
BMS_REDO.elf:     file format elf32-littlearm

Sections:
Idx Name          Size      VMA       LMA       File off  Algn
  0 .isr_vector   000001c4  08000000  08000000  00001000  2**0
                  CONTENTS, ALLOC, LOAD, READONLY, DATA
  1 .text         00008a40  080001d0  080001d0  000011d0  2**4
                  CONTENTS, ALLOC, LOAD, READONLY, CODE
  2 .rodata       000007b0  08008c10  08008c10  00009c10  2**3
                  CONTENTS, ALLOC, LOAD, READONLY, DATA
  3 .ARM.extab    00000000  080093c0  080093c0  0000b1d8  2**0
                  CONTENTS
  4 .ARM          00000008  080093c0  080093c0  0000a3c0  2**2
                  CONTENTS, ALLOC, LOAD, READONLY, DATA
  5 .preinit_array 00000000  080093c8  080093c8  0000b1d8  2**0
                  CONTENTS, ALLOC, LOAD, DATA
  6 .init_array   00000004  080093c8  080093c8  0000a3c8  2**2
                  CONTENTS, ALLOC, LOAD, READONLY, DATA
  7 .fini_array   00000004  080093cc  080093cc  0000a3cc  2**2
                  CONTENTS, ALLOC, LOAD, READONLY, DATA
  8 .data         000001d8  20000000  080093d0  0000b000  2**2
                  CONTENTS, ALLOC, LOAD, DATA
  9 .bss          000004e4  200001d8  080095a8  0000b1d8  2**2
                  ALLOC
 10 ._user_heap_stack 00000604  200006bc  080095a8  0000b6bc  2**0
                  ALLOC
 11 .ARM.attributes 00000030  00000000  00000000  0000b1d8  2**0
                  CONTENTS, READONLY
 12 .debug_info   00016df1  00000000  00000000  0000b208  2**0
                  CONTENTS, READONLY, DEBUGGING, OCTETS
 13 .debug_abbrev 000032c1  00000000  00000000  00021ff9  2**0
                  CONTENTS, READONLY, DEBUGGING, OCTETS
 14 .debug_aranges 000015c0  00000000  00000000  000252c0  2**3
                  CONTENTS, READONLY, DEBUGGING, OCTETS
 15 .debug_rnglists 00001117  00000000  00000000  00026880  2**0
                  CONTENTS, READONLY, DEBUGGING, OCTETS
 16 .debug_macro  000245d8  00000000  00000000  00027997  2**0
                  CONTENTS, READONLY, DEBUGGING, OCTETS
 17 .debug_line   0001c655  00000000  00000000  0004bf6f  2**0
                  CONTENTS, READONLY, DEBUGGING, OCTETS
 18 .debug_str    000da127  00000000  00000000  000685c4  2**0
                  CONTENTS, READONLY, DEBUGGING, OCTETS
 19 .comment      00000043  00000000  00000000  001426eb  2**0
                  CONTENTS, READONLY
 20 .debug_frame  00006f94  00000000  00000000  00142730  2**2
                  CONTENTS, READONLY, DEBUGGING, OCTETS
 21 .debug_line_str 00000064  00000000  00000000  001496c4  2**0
                  CONTENTS, READONLY, DEBUGGING, OCTETS

Disassembly of section .text:

080001d0 <__do_global_dtors_aux>:
 80001d0:	b510      	push	{r4, lr}
 80001d2:	4c05      	ldr	r4, [pc, #20]	@ (80001e8 <__do_global_dtors_aux+0x18>)
 80001d4:	7823      	ldrb	r3, [r4, #0]
 80001d6:	b933      	cbnz	r3, 80001e6 <__do_global_dtors_aux+0x16>
 80001d8:	4b04      	ldr	r3, [pc, #16]	@ (80001ec <__do_global_dtors_aux+0x1c>)
 80001da:	b113      	cbz	r3, 80001e2 <__do_global_dtors_aux+0x12>
 80001dc:	4804      	ldr	r0, [pc, #16]	@ (80001f0 <__do_global_dtors_aux+0x20>)
 80001de:	f3af 8000 	nop.w
 80001e2:	2301      	movs	r3, #1
 80001e4:	7023      	strb	r3, [r4, #0]
 80001e6:	bd10      	pop	{r4, pc}
 80001e8:	200001d8 	.word	0x200001d8
 80001ec:	00000000 	.word	0x00000000
 80001f0:	08008bf8 	.word	0x08008bf8

080001f4 <frame_dummy>:
 80001f4:	b508      	push	{r3, lr}
 80001f6:	4b03      	ldr	r3, [pc, #12]	@ (8000204 <frame_dummy+0x10>)
 80001f8:	b11b      	cbz	r3, 8000202 <frame_dummy+0xe>
 80001fa:	4903      	ldr	r1, [pc, #12]	@ (8000208 <frame_dummy+0x14>)
 80001fc:	4803      	ldr	r0, [pc, #12]	@ (800020c <frame_dummy+0x18>)
 80001fe:	f3af 8000 	nop.w
 8000202:	bd08      	pop	{r3, pc}
 8000204:	00000000 	.word	0x00000000
 8000208:	200001dc 	.word	0x200001dc
 800020c:	08008bf8 	.word	0x08008bf8

08000210 <memchr>:
 8000210:	f001 01ff 	and.w	r1, r1, #255	@ 0xff
 8000214:	2a10      	cmp	r2, #16
 8000216:	db2b      	blt.n	8000270 <memchr+0x60>
 8000218:	f010 0f07 	tst.w	r0, #7
 800021c:	d008      	beq.n	8000230 <memchr+0x20>
 800021e:	f810 3b01 	ldrb.w	r3, [r0], #1
 8000222:	3a01      	subs	r2, #1
 8000224:	428b      	cmp	r3, r1
 8000226:	d02d      	beq.n	8000284 <memchr+0x74>
 8000228:	f010 0f07 	tst.w	r0, #7
 800022c:	b342      	cbz	r2, 8000280 <memchr+0x70>
 800022e:	d1f6      	bne.n	800021e <memchr+0xe>
 8000230:	b4f0      	push	{r4, r5, r6, r7}
 8000232:	ea41 2101 	orr.w	r1, r1, r1, lsl #8
 8000236:	ea41 4101 	orr.w	r1, r1, r1, lsl #16
 800023a:	f022 0407 	bic.w	r4, r2, #7
 800023e:	f07f 0700 	mvns.w	r7, #0
 8000242:	2300      	movs	r3, #0
 8000244:	e8f0 5602 	ldrd	r5, r6, [r0], #8
 8000248:	3c08      	subs	r4, #8
 800024a:	ea85 0501 	eor.w	r5, r5, r1
 800024e:	ea86 0601 	eor.w	r6, r6, r1
 8000252:	fa85 f547 	uadd8	r5, r5, r7
 8000256:	faa3 f587 	sel	r5, r3, r7
 800025a:	fa86 f647 	uadd8	r6, r6, r7
 800025e:	faa5 f687 	sel	r6, r5, r7
 8000262:	b98e      	cbnz	r6, 8000288 <memchr+0x78>
 8000264:	d1ee      	bne.n	8000244 <memchr+0x34>
 8000266:	bcf0      	pop	{r4, r5, r6, r7}
 8000268:	f001 01ff 	and.w	r1, r1, #255	@ 0xff
 800026c:	f002 0207 	and.w	r2, r2, #7
 8000270:	b132      	cbz	r2, 8000280 <memchr+0x70>
 8000272:	f810 3b01 	ldrb.w	r3, [r0], #1
 8000276:	3a01      	subs	r2, #1
 8000278:	ea83 0301 	eor.w	r3, r3, r1
 800027c:	b113      	cbz	r3, 8000284 <memchr+0x74>
 800027e:	d1f8      	bne.n	8000272 <memchr+0x62>
 8000280:	2000      	movs	r0, #0
 8000282:	4770      	bx	lr
 8000284:	3801      	subs	r0, #1
 8000286:	4770      	bx	lr
 8000288:	2d00      	cmp	r5, #0
 800028a:	bf06      	itte	eq
 800028c:	4635      	moveq	r5, r6
 800028e:	3803      	subeq	r0, #3
 8000290:	3807      	subne	r0, #7
 8000292:	f015 0f01 	tst.w	r5, #1
 8000296:	d107      	bne.n	80002a8 <memchr+0x98>
 8000298:	3001      	adds	r0, #1
 800029a:	f415 7f80 	tst.w	r5, #256	@ 0x100
 800029e:	bf02      	ittt	eq
 80002a0:	3001      	addeq	r0, #1
 80002a2:	f415 3fc0 	tsteq.w	r5, #98304	@ 0x18000
 80002a6:	3001      	addeq	r0, #1
 80002a8:	bcf0      	pop	{r4, r5, r6, r7}
 80002aa:	3801      	subs	r0, #1
 80002ac:	4770      	bx	lr
 80002ae:	bf00      	nop

080002b0 <strlen>:
 80002b0:	4603      	mov	r3, r0
 80002b2:	f813 2b01 	ldrb.w	r2, [r3], #1
 80002b6:	2a00      	cmp	r2, #0
 80002b8:	d1fb      	bne.n	80002b2 <strlen+0x2>
 80002ba:	1a18      	subs	r0, r3, r0
 80002bc:	3801      	subs	r0, #1
 80002be:	4770      	bx	lr

080002c0 <__aeabi_drsub>:
 80002c0:	f081 4100 	eor.w	r1, r1, #2147483648	@ 0x80000000
 80002c4:	e002      	b.n	80002cc <__adddf3>
 80002c6:	bf00      	nop

080002c8 <__aeabi_dsub>:
 80002c8:	f083 4300 	eor.w	r3, r3, #2147483648	@ 0x80000000

080002cc <__adddf3>:
 80002cc:	b530      	push	{r4, r5, lr}
 80002ce:	ea4f 0441 	mov.w	r4, r1, lsl #1
 80002d2:	ea4f 0543 	mov.w	r5, r3, lsl #1
 80002d6:	ea94 0f05 	teq	r4, r5
 80002da:	bf08      	it	eq
 80002dc:	ea90 0f02 	teqeq	r0, r2
 80002e0:	bf1f      	itttt	ne
 80002e2:	ea54 0c00 	orrsne.w	ip, r4, r0
 80002e6:	ea55 0c02 	orrsne.w	ip, r5, r2
 80002ea:	ea7f 5c64 	mvnsne.w	ip, r4, asr #21
 80002ee:	ea7f 5c65 	mvnsne.w	ip, r5, asr #21
 80002f2:	f000 80e2 	beq.w	80004ba <__adddf3+0x1ee>
 80002f6:	ea4f 5454 	mov.w	r4, r4, lsr #21
 80002fa:	ebd4 5555 	rsbs	r5, r4, r5, lsr #21
 80002fe:	bfb8      	it	lt
 8000300:	426d      	neglt	r5, r5
 8000302:	dd0c      	ble.n	800031e <__adddf3+0x52>
 8000304:	442c      	add	r4, r5
 8000306:	ea80 0202 	eor.w	r2, r0, r2
 800030a:	ea81 0303 	eor.w	r3, r1, r3
 800030e:	ea82 0000 	eor.w	r0, r2, r0
 8000312:	ea83 0101 	eor.w	r1, r3, r1
 8000316:	ea80 0202 	eor.w	r2, r0, r2
 800031a:	ea81 0303 	eor.w	r3, r1, r3
 800031e:	2d36      	cmp	r5, #54	@ 0x36
 8000320:	bf88      	it	hi
 8000322:	bd30      	pophi	{r4, r5, pc}
 8000324:	f011 4f00 	tst.w	r1, #2147483648	@ 0x80000000
 8000328:	ea4f 3101 	mov.w	r1, r1, lsl #12
 800032c:	f44f 1c80 	mov.w	ip, #1048576	@ 0x100000
 8000330:	ea4c 3111 	orr.w	r1, ip, r1, lsr #12
 8000334:	d002      	beq.n	800033c <__adddf3+0x70>
 8000336:	4240      	negs	r0, r0
 8000338:	eb61 0141 	sbc.w	r1, r1, r1, lsl #1
 800033c:	f013 4f00 	tst.w	r3, #2147483648	@ 0x80000000
 8000340:	ea4f 3303 	mov.w	r3, r3, lsl #12
 8000344:	ea4c 3313 	orr.w	r3, ip, r3, lsr #12
 8000348:	d002      	beq.n	8000350 <__adddf3+0x84>
 800034a:	4252      	negs	r2, r2
 800034c:	eb63 0343 	sbc.w	r3, r3, r3, lsl #1
 8000350:	ea94 0f05 	teq	r4, r5
 8000354:	f000 80a7 	beq.w	80004a6 <__adddf3+0x1da>
 8000358:	f1a4 0401 	sub.w	r4, r4, #1
 800035c:	f1d5 0e20 	rsbs	lr, r5, #32
 8000360:	db0d      	blt.n	800037e <__adddf3+0xb2>
 8000362:	fa02 fc0e 	lsl.w	ip, r2, lr
 8000366:	fa22 f205 	lsr.w	r2, r2, r5
 800036a:	1880      	adds	r0, r0, r2
 800036c:	f141 0100 	adc.w	r1, r1, #0
 8000370:	fa03 f20e 	lsl.w	r2, r3, lr
 8000374:	1880      	adds	r0, r0, r2
 8000376:	fa43 f305 	asr.w	r3, r3, r5
 800037a:	4159      	adcs	r1, r3
 800037c:	e00e      	b.n	800039c <__adddf3+0xd0>
 800037e:	f1a5 0520 	sub.w	r5, r5, #32
 8000382:	f10e 0e20 	add.w	lr, lr, #32
 8000386:	2a01      	cmp	r2, #1
 8000388:	fa03 fc0e 	lsl.w	ip, r3, lr
 800038c:	bf28      	it	cs
 800038e:	f04c 0c02 	orrcs.w	ip, ip, #2
 8000392:	fa43 f305 	asr.w	r3, r3, r5
 8000396:	18c0      	adds	r0, r0, r3
 8000398:	eb51 71e3 	adcs.w	r1, r1, r3, asr #31
 800039c:	f001 4500 	and.w	r5, r1, #2147483648	@ 0x80000000
 80003a0:	d507      	bpl.n	80003b2 <__adddf3+0xe6>
 80003a2:	f04f 0e00 	mov.w	lr, #0
 80003a6:	f1dc 0c00 	rsbs	ip, ip, #0
 80003aa:	eb7e 0000 	sbcs.w	r0, lr, r0
 80003ae:	eb6e 0101 	sbc.w	r1, lr, r1
 80003b2:	f5b1 1f80 	cmp.w	r1, #1048576	@ 0x100000
 80003b6:	d31b      	bcc.n	80003f0 <__adddf3+0x124>
 80003b8:	f5b1 1f00 	cmp.w	r1, #2097152	@ 0x200000
 80003bc:	d30c      	bcc.n	80003d8 <__adddf3+0x10c>
 80003be:	0849      	lsrs	r1, r1, #1
 80003c0:	ea5f 0030 	movs.w	r0, r0, rrx
 80003c4:	ea4f 0c3c 	mov.w	ip, ip, rrx
 80003c8:	f104 0401 	add.w	r4, r4, #1
 80003cc:	ea4f 5244 	mov.w	r2, r4, lsl #21
 80003d0:	f512 0f80 	cmn.w	r2, #4194304	@ 0x400000
 80003d4:	f080 809a 	bcs.w	800050c <__adddf3+0x240>
 80003d8:	f1bc 4f00 	cmp.w	ip, #2147483648	@ 0x80000000
 80003dc:	bf08      	it	eq
 80003de:	ea5f 0c50 	movseq.w	ip, r0, lsr #1
 80003e2:	f150 0000 	adcs.w	r0, r0, #0
 80003e6:	eb41 5104 	adc.w	r1, r1, r4, lsl #20
 80003ea:	ea41 0105 	orr.w	r1, r1, r5
 80003ee:	bd30      	pop	{r4, r5, pc}
 80003f0:	ea5f 0c4c 	movs.w	ip, ip, lsl #1
 80003f4:	4140      	adcs	r0, r0
 80003f6:	eb41 0101 	adc.w	r1, r1, r1
 80003fa:	3c01      	subs	r4, #1
 80003fc:	bf28      	it	cs
 80003fe:	f5b1 1f80 	cmpcs.w	r1, #1048576	@ 0x100000
 8000402:	d2e9      	bcs.n	80003d8 <__adddf3+0x10c>
 8000404:	f091 0f00 	teq	r1, #0
 8000408:	bf04      	itt	eq
 800040a:	4601      	moveq	r1, r0
 800040c:	2000      	moveq	r0, #0
 800040e:	fab1 f381 	clz	r3, r1
 8000412:	bf08      	it	eq
 8000414:	3320      	addeq	r3, #32
 8000416:	f1a3 030b 	sub.w	r3, r3, #11
 800041a:	f1b3 0220 	subs.w	r2, r3, #32
 800041e:	da0c      	bge.n	800043a <__adddf3+0x16e>
 8000420:	320c      	adds	r2, #12
 8000422:	dd08      	ble.n	8000436 <__adddf3+0x16a>
 8000424:	f102 0c14 	add.w	ip, r2, #20
 8000428:	f1c2 020c 	rsb	r2, r2, #12
 800042c:	fa01 f00c 	lsl.w	r0, r1, ip
 8000430:	fa21 f102 	lsr.w	r1, r1, r2
 8000434:	e00c      	b.n	8000450 <__adddf3+0x184>
 8000436:	f102 0214 	add.w	r2, r2, #20
 800043a:	bfd8      	it	le
 800043c:	f1c2 0c20 	rsble	ip, r2, #32
 8000440:	fa01 f102 	lsl.w	r1, r1, r2
 8000444:	fa20 fc0c 	lsr.w	ip, r0, ip
 8000448:	bfdc      	itt	le
 800044a:	ea41 010c 	orrle.w	r1, r1, ip
 800044e:	4090      	lslle	r0, r2
 8000450:	1ae4      	subs	r4, r4, r3
 8000452:	bfa2      	ittt	ge
 8000454:	eb01 5104 	addge.w	r1, r1, r4, lsl #20
 8000458:	4329      	orrge	r1, r5
 800045a:	bd30      	popge	{r4, r5, pc}
 800045c:	ea6f 0404 	mvn.w	r4, r4
 8000460:	3c1f      	subs	r4, #31
 8000462:	da1c      	bge.n	800049e <__adddf3+0x1d2>
 8000464:	340c      	adds	r4, #12
 8000466:	dc0e      	bgt.n	8000486 <__adddf3+0x1ba>
 8000468:	f104 0414 	add.w	r4, r4, #20
 800046c:	f1c4 0220 	rsb	r2, r4, #32
 8000470:	fa20 f004 	lsr.w	r0, r0, r4
 8000474:	fa01 f302 	lsl.w	r3, r1, r2
 8000478:	ea40 0003 	orr.w	r0, r0, r3
 800047c:	fa21 f304 	lsr.w	r3, r1, r4
 8000480:	ea45 0103 	orr.w	r1, r5, r3
 8000484:	bd30      	pop	{r4, r5, pc}
 8000486:	f1c4 040c 	rsb	r4, r4, #12
 800048a:	f1c4 0220 	rsb	r2, r4, #32
 800048e:	fa20 f002 	lsr.w	r0, r0, r2
 8000492:	fa01 f304 	lsl.w	r3, r1, r4
 8000496:	ea40 0003 	orr.w	r0, r0, r3
 800049a:	4629      	mov	r1, r5
 800049c:	bd30      	pop	{r4, r5, pc}
 800049e:	fa21 f004 	lsr.w	r0, r1, r4
 80004a2:	4629      	mov	r1, r5
 80004a4:	bd30      	pop	{r4, r5, pc}
 80004a6:	f094 0f00 	teq	r4, #0
 80004aa:	f483 1380 	eor.w	r3, r3, #1048576	@ 0x100000
 80004ae:	bf06      	itte	eq
 80004b0:	f481 1180 	eoreq.w	r1, r1, #1048576	@ 0x100000
 80004b4:	3401      	addeq	r4, #1
 80004b6:	3d01      	subne	r5, #1
 80004b8:	e74e      	b.n	8000358 <__adddf3+0x8c>
 80004ba:	ea7f 5c64 	mvns.w	ip, r4, asr #21
 80004be:	bf18      	it	ne
 80004c0:	ea7f 5c65 	mvnsne.w	ip, r5, asr #21
 80004c4:	d029      	beq.n	800051a <__adddf3+0x24e>
 80004c6:	ea94 0f05 	teq	r4, r5
 80004ca:	bf08      	it	eq
 80004cc:	ea90 0f02 	teqeq	r0, r2
 80004d0:	d005      	beq.n	80004de <__adddf3+0x212>
 80004d2:	ea54 0c00 	orrs.w	ip, r4, r0
 80004d6:	bf04      	itt	eq
 80004d8:	4619      	moveq	r1, r3
 80004da:	4610      	moveq	r0, r2
 80004dc:	bd30      	pop	{r4, r5, pc}
 80004de:	ea91 0f03 	teq	r1, r3
 80004e2:	bf1e      	ittt	ne
 80004e4:	2100      	movne	r1, #0
 80004e6:	2000      	movne	r0, #0
 80004e8:	bd30      	popne	{r4, r5, pc}
 80004ea:	ea5f 5c54 	movs.w	ip, r4, lsr #21
 80004ee:	d105      	bne.n	80004fc <__adddf3+0x230>
 80004f0:	0040      	lsls	r0, r0, #1
 80004f2:	4149      	adcs	r1, r1
 80004f4:	bf28      	it	cs
 80004f6:	f041 4100 	orrcs.w	r1, r1, #2147483648	@ 0x80000000
 80004fa:	bd30      	pop	{r4, r5, pc}
 80004fc:	f514 0480 	adds.w	r4, r4, #4194304	@ 0x400000
 8000500:	bf3c      	itt	cc
 8000502:	f501 1180 	addcc.w	r1, r1, #1048576	@ 0x100000
 8000506:	bd30      	popcc	{r4, r5, pc}
 8000508:	f001 4500 	and.w	r5, r1, #2147483648	@ 0x80000000
 800050c:	f045 41fe 	orr.w	r1, r5, #2130706432	@ 0x7f000000
 8000510:	f441 0170 	orr.w	r1, r1, #15728640	@ 0xf00000
 8000514:	f04f 0000 	mov.w	r0, #0
 8000518:	bd30      	pop	{r4, r5, pc}
 800051a:	ea7f 5c64 	mvns.w	ip, r4, asr #21
 800051e:	bf1a      	itte	ne
 8000520:	4619      	movne	r1, r3
 8000522:	4610      	movne	r0, r2
 8000524:	ea7f 5c65 	mvnseq.w	ip, r5, asr #21
 8000528:	bf1c      	itt	ne
 800052a:	460b      	movne	r3, r1
 800052c:	4602      	movne	r2, r0
 800052e:	ea50 3401 	orrs.w	r4, r0, r1, lsl #12
 8000532:	bf06      	itte	eq
 8000534:	ea52 3503 	orrseq.w	r5, r2, r3, lsl #12
 8000538:	ea91 0f03 	teqeq	r1, r3
 800053c:	f441 2100 	orrne.w	r1, r1, #524288	@ 0x80000
 8000540:	bd30      	pop	{r4, r5, pc}
 8000542:	bf00      	nop

08000544 <__aeabi_ui2d>:
 8000544:	f090 0f00 	teq	r0, #0
 8000548:	bf04      	itt	eq
 800054a:	2100      	moveq	r1, #0
 800054c:	4770      	bxeq	lr
 800054e:	b530      	push	{r4, r5, lr}
 8000550:	f44f 6480 	mov.w	r4, #1024	@ 0x400
 8000554:	f104 0432 	add.w	r4, r4, #50	@ 0x32
 8000558:	f04f 0500 	mov.w	r5, #0
 800055c:	f04f 0100 	mov.w	r1, #0
 8000560:	e750      	b.n	8000404 <__adddf3+0x138>
 8000562:	bf00      	nop

08000564 <__aeabi_i2d>:
 8000564:	f090 0f00 	teq	r0, #0
 8000568:	bf04      	itt	eq
 800056a:	2100      	moveq	r1, #0
 800056c:	4770      	bxeq	lr
 800056e:	b530      	push	{r4, r5, lr}
 8000570:	f44f 6480 	mov.w	r4, #1024	@ 0x400
 8000574:	f104 0432 	add.w	r4, r4, #50	@ 0x32
 8000578:	f010 4500 	ands.w	r5, r0, #2147483648	@ 0x80000000
 800057c:	bf48      	it	mi
 800057e:	4240      	negmi	r0, r0
 8000580:	f04f 0100 	mov.w	r1, #0
 8000584:	e73e      	b.n	8000404 <__adddf3+0x138>
 8000586:	bf00      	nop

08000588 <__aeabi_f2d>:
 8000588:	0042      	lsls	r2, r0, #1
 800058a:	ea4f 01e2 	mov.w	r1, r2, asr #3
 800058e:	ea4f 0131 	mov.w	r1, r1, rrx
 8000592:	ea4f 7002 	mov.w	r0, r2, lsl #28
 8000596:	bf1f      	itttt	ne
 8000598:	f012 437f 	andsne.w	r3, r2, #4278190080	@ 0xff000000
 800059c:	f093 4f7f 	teqne	r3, #4278190080	@ 0xff000000
 80005a0:	f081 5160 	eorne.w	r1, r1, #939524096	@ 0x38000000
 80005a4:	4770      	bxne	lr
 80005a6:	f032 427f 	bics.w	r2, r2, #4278190080	@ 0xff000000
 80005aa:	bf08      	it	eq
 80005ac:	4770      	bxeq	lr
 80005ae:	f093 4f7f 	teq	r3, #4278190080	@ 0xff000000
 80005b2:	bf04      	itt	eq
 80005b4:	f441 2100 	orreq.w	r1, r1, #524288	@ 0x80000
 80005b8:	4770      	bxeq	lr
 80005ba:	b530      	push	{r4, r5, lr}
 80005bc:	f44f 7460 	mov.w	r4, #896	@ 0x380
 80005c0:	f001 4500 	and.w	r5, r1, #2147483648	@ 0x80000000
 80005c4:	f021 4100 	bic.w	r1, r1, #2147483648	@ 0x80000000
 80005c8:	e71c      	b.n	8000404 <__adddf3+0x138>
 80005ca:	bf00      	nop

080005cc <__aeabi_ul2d>:
 80005cc:	ea50 0201 	orrs.w	r2, r0, r1
 80005d0:	bf08      	it	eq
 80005d2:	4770      	bxeq	lr
 80005d4:	b530      	push	{r4, r5, lr}
 80005d6:	f04f 0500 	mov.w	r5, #0
 80005da:	e00a      	b.n	80005f2 <__aeabi_l2d+0x16>

080005dc <__aeabi_l2d>:
 80005dc:	ea50 0201 	orrs.w	r2, r0, r1
 80005e0:	bf08      	it	eq
 80005e2:	4770      	bxeq	lr
 80005e4:	b530      	push	{r4, r5, lr}
 80005e6:	f011 4500 	ands.w	r5, r1, #2147483648	@ 0x80000000
 80005ea:	d502      	bpl.n	80005f2 <__aeabi_l2d+0x16>
 80005ec:	4240      	negs	r0, r0
 80005ee:	eb61 0141 	sbc.w	r1, r1, r1, lsl #1
 80005f2:	f44f 6480 	mov.w	r4, #1024	@ 0x400
 80005f6:	f104 0432 	add.w	r4, r4, #50	@ 0x32
 80005fa:	ea5f 5c91 	movs.w	ip, r1, lsr #22
 80005fe:	f43f aed8 	beq.w	80003b2 <__adddf3+0xe6>
 8000602:	f04f 0203 	mov.w	r2, #3
 8000606:	ea5f 0cdc 	movs.w	ip, ip, lsr #3
 800060a:	bf18      	it	ne
 800060c:	3203      	addne	r2, #3
 800060e:	ea5f 0cdc 	movs.w	ip, ip, lsr #3
 8000612:	bf18      	it	ne
 8000614:	3203      	addne	r2, #3
 8000616:	eb02 02dc 	add.w	r2, r2, ip, lsr #3
 800061a:	f1c2 0320 	rsb	r3, r2, #32
 800061e:	fa00 fc03 	lsl.w	ip, r0, r3
 8000622:	fa20 f002 	lsr.w	r0, r0, r2
 8000626:	fa01 fe03 	lsl.w	lr, r1, r3
 800062a:	ea40 000e 	orr.w	r0, r0, lr
 800062e:	fa21 f102 	lsr.w	r1, r1, r2
 8000632:	4414      	add	r4, r2
 8000634:	e6bd      	b.n	80003b2 <__adddf3+0xe6>
 8000636:	bf00      	nop

08000638 <__aeabi_dmul>:
 8000638:	b570      	push	{r4, r5, r6, lr}
 800063a:	f04f 0cff 	mov.w	ip, #255	@ 0xff
 800063e:	f44c 6ce0 	orr.w	ip, ip, #1792	@ 0x700
 8000642:	ea1c 5411 	ands.w	r4, ip, r1, lsr #20
 8000646:	bf1d      	ittte	ne
 8000648:	ea1c 5513 	andsne.w	r5, ip, r3, lsr #20
 800064c:	ea94 0f0c 	teqne	r4, ip
 8000650:	ea95 0f0c 	teqne	r5, ip
 8000654:	f000 f8de 	bleq	8000814 <__aeabi_dmul+0x1dc>
 8000658:	442c      	add	r4, r5
 800065a:	ea81 0603 	eor.w	r6, r1, r3
 800065e:	ea21 514c 	bic.w	r1, r1, ip, lsl #21
 8000662:	ea23 534c 	bic.w	r3, r3, ip, lsl #21
 8000666:	ea50 3501 	orrs.w	r5, r0, r1, lsl #12
 800066a:	bf18      	it	ne
 800066c:	ea52 3503 	orrsne.w	r5, r2, r3, lsl #12
 8000670:	f441 1180 	orr.w	r1, r1, #1048576	@ 0x100000
 8000674:	f443 1380 	orr.w	r3, r3, #1048576	@ 0x100000
 8000678:	d038      	beq.n	80006ec <__aeabi_dmul+0xb4>
 800067a:	fba0 ce02 	umull	ip, lr, r0, r2
 800067e:	f04f 0500 	mov.w	r5, #0
 8000682:	fbe1 e502 	umlal	lr, r5, r1, r2
 8000686:	f006 4200 	and.w	r2, r6, #2147483648	@ 0x80000000
 800068a:	fbe0 e503 	umlal	lr, r5, r0, r3
 800068e:	f04f 0600 	mov.w	r6, #0
 8000692:	fbe1 5603 	umlal	r5, r6, r1, r3
 8000696:	f09c 0f00 	teq	ip, #0
 800069a:	bf18      	it	ne
 800069c:	f04e 0e01 	orrne.w	lr, lr, #1
 80006a0:	f1a4 04ff 	sub.w	r4, r4, #255	@ 0xff
 80006a4:	f5b6 7f00 	cmp.w	r6, #512	@ 0x200
 80006a8:	f564 7440 	sbc.w	r4, r4, #768	@ 0x300
 80006ac:	d204      	bcs.n	80006b8 <__aeabi_dmul+0x80>
 80006ae:	ea5f 0e4e 	movs.w	lr, lr, lsl #1
 80006b2:	416d      	adcs	r5, r5
 80006b4:	eb46 0606 	adc.w	r6, r6, r6
 80006b8:	ea42 21c6 	orr.w	r1, r2, r6, lsl #11
 80006bc:	ea41 5155 	orr.w	r1, r1, r5, lsr #21
 80006c0:	ea4f 20c5 	mov.w	r0, r5, lsl #11
 80006c4:	ea40 505e 	orr.w	r0, r0, lr, lsr #21
 80006c8:	ea4f 2ece 	mov.w	lr, lr, lsl #11
 80006cc:	f1b4 0cfd 	subs.w	ip, r4, #253	@ 0xfd
 80006d0:	bf88      	it	hi
 80006d2:	f5bc 6fe0 	cmphi.w	ip, #1792	@ 0x700
 80006d6:	d81e      	bhi.n	8000716 <__aeabi_dmul+0xde>
 80006d8:	f1be 4f00 	cmp.w	lr, #2147483648	@ 0x80000000
 80006dc:	bf08      	it	eq
 80006de:	ea5f 0e50 	movseq.w	lr, r0, lsr #1
 80006e2:	f150 0000 	adcs.w	r0, r0, #0
 80006e6:	eb41 5104 	adc.w	r1, r1, r4, lsl #20
 80006ea:	bd70      	pop	{r4, r5, r6, pc}
 80006ec:	f006 4600 	and.w	r6, r6, #2147483648	@ 0x80000000
 80006f0:	ea46 0101 	orr.w	r1, r6, r1
 80006f4:	ea40 0002 	orr.w	r0, r0, r2
 80006f8:	ea81 0103 	eor.w	r1, r1, r3
 80006fc:	ebb4 045c 	subs.w	r4, r4, ip, lsr #1
 8000700:	bfc2      	ittt	gt
 8000702:	ebd4 050c 	rsbsgt	r5, r4, ip
 8000706:	ea41 5104 	orrgt.w	r1, r1, r4, lsl #20
 800070a:	bd70      	popgt	{r4, r5, r6, pc}
 800070c:	f441 1180 	orr.w	r1, r1, #1048576	@ 0x100000
 8000710:	f04f 0e00 	mov.w	lr, #0
 8000714:	3c01      	subs	r4, #1
 8000716:	f300 80ab 	bgt.w	8000870 <__aeabi_dmul+0x238>
 800071a:	f114 0f36 	cmn.w	r4, #54	@ 0x36
 800071e:	bfde      	ittt	le
 8000720:	2000      	movle	r0, #0
 8000722:	f001 4100 	andle.w	r1, r1, #2147483648	@ 0x80000000
 8000726:	bd70      	pople	{r4, r5, r6, pc}
 8000728:	f1c4 0400 	rsb	r4, r4, #0
 800072c:	3c20      	subs	r4, #32
 800072e:	da35      	bge.n	800079c <__aeabi_dmul+0x164>
 8000730:	340c      	adds	r4, #12
 8000732:	dc1b      	bgt.n	800076c <__aeabi_dmul+0x134>
 8000734:	f104 0414 	add.w	r4, r4, #20
 8000738:	f1c4 0520 	rsb	r5, r4, #32
 800073c:	fa00 f305 	lsl.w	r3, r0, r5
 8000740:	fa20 f004 	lsr.w	r0, r0, r4
 8000744:	fa01 f205 	lsl.w	r2, r1, r5
 8000748:	ea40 0002 	orr.w	r0, r0, r2
 800074c:	f001 4200 	and.w	r2, r1, #2147483648	@ 0x80000000
 8000750:	f021 4100 	bic.w	r1, r1, #2147483648	@ 0x80000000
 8000754:	eb10 70d3 	adds.w	r0, r0, r3, lsr #31
 8000758:	fa21 f604 	lsr.w	r6, r1, r4
 800075c:	eb42 0106 	adc.w	r1, r2, r6
 8000760:	ea5e 0e43 	orrs.w	lr, lr, r3, lsl #1
 8000764:	bf08      	it	eq
 8000766:	ea20 70d3 	biceq.w	r0, r0, r3, lsr #31
 800076a:	bd70      	pop	{r4, r5, r6, pc}
 800076c:	f1c4 040c 	rsb	r4, r4, #12
 8000770:	f1c4 0520 	rsb	r5, r4, #32
 8000774:	fa00 f304 	lsl.w	r3, r0, r4
 8000778:	fa20 f005 	lsr.w	r0, r0, r5
 800077c:	fa01 f204 	lsl.w	r2, r1, r4
 8000780:	ea40 0002 	orr.w	r0, r0, r2
 8000784:	f001 4100 	and.w	r1, r1, #2147483648	@ 0x80000000
 8000788:	eb10 70d3 	adds.w	r0, r0, r3, lsr #31
 800078c:	f141 0100 	adc.w	r1, r1, #0
 8000790:	ea5e 0e43 	orrs.w	lr, lr, r3, lsl #1
 8000794:	bf08      	it	eq
 8000796:	ea20 70d3 	biceq.w	r0, r0, r3, lsr #31
 800079a:	bd70      	pop	{r4, r5, r6, pc}
 800079c:	f1c4 0520 	rsb	r5, r4, #32
 80007a0:	fa00 f205 	lsl.w	r2, r0, r5
 80007a4:	ea4e 0e02 	orr.w	lr, lr, r2
 80007a8:	fa20 f304 	lsr.w	r3, r0, r4
 80007ac:	fa01 f205 	lsl.w	r2, r1, r5
 80007b0:	ea43 0302 	orr.w	r3, r3, r2
 80007b4:	fa21 f004 	lsr.w	r0, r1, r4
 80007b8:	f001 4100 	and.w	r1, r1, #2147483648	@ 0x80000000
 80007bc:	fa21 f204 	lsr.w	r2, r1, r4
 80007c0:	ea20 0002 	bic.w	r0, r0, r2
 80007c4:	eb00 70d3 	add.w	r0, r0, r3, lsr #31
 80007c8:	ea5e 0e43 	orrs.w	lr, lr, r3, lsl #1
 80007cc:	bf08      	it	eq
 80007ce:	ea20 70d3 	biceq.w	r0, r0, r3, lsr #31
 80007d2:	bd70      	pop	{r4, r5, r6, pc}
 80007d4:	f094 0f00 	teq	r4, #0
 80007d8:	d10f      	bne.n	80007fa <__aeabi_dmul+0x1c2>
 80007da:	f001 4600 	and.w	r6, r1, #2147483648	@ 0x80000000
 80007de:	0040      	lsls	r0, r0, #1
 80007e0:	eb41 0101 	adc.w	r1, r1, r1
 80007e4:	f411 1f80 	tst.w	r1, #1048576	@ 0x100000
 80007e8:	bf08      	it	eq
 80007ea:	3c01      	subeq	r4, #1
 80007ec:	d0f7      	beq.n	80007de <__aeabi_dmul+0x1a6>
 80007ee:	ea41 0106 	orr.w	r1, r1, r6
 80007f2:	f095 0f00 	teq	r5, #0
 80007f6:	bf18      	it	ne
 80007f8:	4770      	bxne	lr
 80007fa:	f003 4600 	and.w	r6, r3, #2147483648	@ 0x80000000
 80007fe:	0052      	lsls	r2, r2, #1
 8000800:	eb43 0303 	adc.w	r3, r3, r3
 8000804:	f413 1f80 	tst.w	r3, #1048576	@ 0x100000
 8000808:	bf08      	it	eq
 800080a:	3d01      	subeq	r5, #1
 800080c:	d0f7      	beq.n	80007fe <__aeabi_dmul+0x1c6>
 800080e:	ea43 0306 	orr.w	r3, r3, r6
 8000812:	4770      	bx	lr
 8000814:	ea94 0f0c 	teq	r4, ip
 8000818:	ea0c 5513 	and.w	r5, ip, r3, lsr #20
 800081c:	bf18      	it	ne
 800081e:	ea95 0f0c 	teqne	r5, ip
 8000822:	d00c      	beq.n	800083e <__aeabi_dmul+0x206>
 8000824:	ea50 0641 	orrs.w	r6, r0, r1, lsl #1
 8000828:	bf18      	it	ne
 800082a:	ea52 0643 	orrsne.w	r6, r2, r3, lsl #1
 800082e:	d1d1      	bne.n	80007d4 <__aeabi_dmul+0x19c>
 8000830:	ea81 0103 	eor.w	r1, r1, r3
 8000834:	f001 4100 	and.w	r1, r1, #2147483648	@ 0x80000000
 8000838:	f04f 0000 	mov.w	r0, #0
 800083c:	bd70      	pop	{r4, r5, r6, pc}
 800083e:	ea50 0641 	orrs.w	r6, r0, r1, lsl #1
 8000842:	bf06      	itte	eq
 8000844:	4610      	moveq	r0, r2
 8000846:	4619      	moveq	r1, r3
 8000848:	ea52 0643 	orrsne.w	r6, r2, r3, lsl #1
 800084c:	d019      	beq.n	8000882 <__aeabi_dmul+0x24a>
 800084e:	ea94 0f0c 	teq	r4, ip
 8000852:	d102      	bne.n	800085a <__aeabi_dmul+0x222>
 8000854:	ea50 3601 	orrs.w	r6, r0, r1, lsl #12
 8000858:	d113      	bne.n	8000882 <__aeabi_dmul+0x24a>
 800085a:	ea95 0f0c 	teq	r5, ip
 800085e:	d105      	bne.n	800086c <__aeabi_dmul+0x234>
 8000860:	ea52 3603 	orrs.w	r6, r2, r3, lsl #12
 8000864:	bf1c      	itt	ne
 8000866:	4610      	movne	r0, r2
 8000868:	4619      	movne	r1, r3
 800086a:	d10a      	bne.n	8000882 <__aeabi_dmul+0x24a>
 800086c:	ea81 0103 	eor.w	r1, r1, r3
 8000870:	f001 4100 	and.w	r1, r1, #2147483648	@ 0x80000000
 8000874:	f041 41fe 	orr.w	r1, r1, #2130706432	@ 0x7f000000
 8000878:	f441 0170 	orr.w	r1, r1, #15728640	@ 0xf00000
 800087c:	f04f 0000 	mov.w	r0, #0
 8000880:	bd70      	pop	{r4, r5, r6, pc}
 8000882:	f041 41fe 	orr.w	r1, r1, #2130706432	@ 0x7f000000
 8000886:	f441 0178 	orr.w	r1, r1, #16252928	@ 0xf80000
 800088a:	bd70      	pop	{r4, r5, r6, pc}

0800088c <__aeabi_ddiv>:
 800088c:	b570      	push	{r4, r5, r6, lr}
 800088e:	f04f 0cff 	mov.w	ip, #255	@ 0xff
 8000892:	f44c 6ce0 	orr.w	ip, ip, #1792	@ 0x700
 8000896:	ea1c 5411 	ands.w	r4, ip, r1, lsr #20
 800089a:	bf1d      	ittte	ne
 800089c:	ea1c 5513 	andsne.w	r5, ip, r3, lsr #20
 80008a0:	ea94 0f0c 	teqne	r4, ip
 80008a4:	ea95 0f0c 	teqne	r5, ip
 80008a8:	f000 f8a7 	bleq	80009fa <__aeabi_ddiv+0x16e>
 80008ac:	eba4 0405 	sub.w	r4, r4, r5
 80008b0:	ea81 0e03 	eor.w	lr, r1, r3
 80008b4:	ea52 3503 	orrs.w	r5, r2, r3, lsl #12
 80008b8:	ea4f 3101 	mov.w	r1, r1, lsl #12
 80008bc:	f000 8088 	beq.w	80009d0 <__aeabi_ddiv+0x144>
 80008c0:	ea4f 3303 	mov.w	r3, r3, lsl #12
 80008c4:	f04f 5580 	mov.w	r5, #268435456	@ 0x10000000
 80008c8:	ea45 1313 	orr.w	r3, r5, r3, lsr #4
 80008cc:	ea43 6312 	orr.w	r3, r3, r2, lsr #24
 80008d0:	ea4f 2202 	mov.w	r2, r2, lsl #8
 80008d4:	ea45 1511 	orr.w	r5, r5, r1, lsr #4
 80008d8:	ea45 6510 	orr.w	r5, r5, r0, lsr #24
 80008dc:	ea4f 2600 	mov.w	r6, r0, lsl #8
 80008e0:	f00e 4100 	and.w	r1, lr, #2147483648	@ 0x80000000
 80008e4:	429d      	cmp	r5, r3
 80008e6:	bf08      	it	eq
 80008e8:	4296      	cmpeq	r6, r2
 80008ea:	f144 04fd 	adc.w	r4, r4, #253	@ 0xfd
 80008ee:	f504 7440 	add.w	r4, r4, #768	@ 0x300
 80008f2:	d202      	bcs.n	80008fa <__aeabi_ddiv+0x6e>
 80008f4:	085b      	lsrs	r3, r3, #1
 80008f6:	ea4f 0232 	mov.w	r2, r2, rrx
 80008fa:	1ab6      	subs	r6, r6, r2
 80008fc:	eb65 0503 	sbc.w	r5, r5, r3
 8000900:	085b      	lsrs	r3, r3, #1
 8000902:	ea4f 0232 	mov.w	r2, r2, rrx
 8000906:	f44f 1080 	mov.w	r0, #1048576	@ 0x100000
 800090a:	f44f 2c00 	mov.w	ip, #524288	@ 0x80000
 800090e:	ebb6 0e02 	subs.w	lr, r6, r2
 8000912:	eb75 0e03 	sbcs.w	lr, r5, r3
 8000916:	bf22      	ittt	cs
 8000918:	1ab6      	subcs	r6, r6, r2
 800091a:	4675      	movcs	r5, lr
 800091c:	ea40 000c 	orrcs.w	r0, r0, ip
 8000920:	085b      	lsrs	r3, r3, #1
 8000922:	ea4f 0232 	mov.w	r2, r2, rrx
 8000926:	ebb6 0e02 	subs.w	lr, r6, r2
 800092a:	eb75 0e03 	sbcs.w	lr, r5, r3
 800092e:	bf22      	ittt	cs
 8000930:	1ab6      	subcs	r6, r6, r2
 8000932:	4675      	movcs	r5, lr
 8000934:	ea40 005c 	orrcs.w	r0, r0, ip, lsr #1
 8000938:	085b      	lsrs	r3, r3, #1
 800093a:	ea4f 0232 	mov.w	r2, r2, rrx
 800093e:	ebb6 0e02 	subs.w	lr, r6, r2
 8000942:	eb75 0e03 	sbcs.w	lr, r5, r3
 8000946:	bf22      	ittt	cs
 8000948:	1ab6      	subcs	r6, r6, r2
 800094a:	4675      	movcs	r5, lr
 800094c:	ea40 009c 	orrcs.w	r0, r0, ip, lsr #2
 8000950:	085b      	lsrs	r3, r3, #1
 8000952:	ea4f 0232 	mov.w	r2, r2, rrx
 8000956:	ebb6 0e02 	subs.w	lr, r6, r2
 800095a:	eb75 0e03 	sbcs.w	lr, r5, r3
 800095e:	bf22      	ittt	cs
 8000960:	1ab6      	subcs	r6, r6, r2
 8000962:	4675      	movcs	r5, lr
 8000964:	ea40 00dc 	orrcs.w	r0, r0, ip, lsr #3
 8000968:	ea55 0e06 	orrs.w	lr, r5, r6
 800096c:	d018      	beq.n	80009a0 <__aeabi_ddiv+0x114>
 800096e:	ea4f 1505 	mov.w	r5, r5, lsl #4
 8000972:	ea45 7516 	orr.w	r5, r5, r6, lsr #28
 8000976:	ea4f 1606 	mov.w	r6, r6, lsl #4
 800097a:	ea4f 03c3 	mov.w	r3, r3, lsl #3
 800097e:	ea43 7352 	orr.w	r3, r3, r2, lsr #29
 8000982:	ea4f 02c2 	mov.w	r2, r2, lsl #3
 8000986:	ea5f 1c1c 	movs.w	ip, ip, lsr #4
 800098a:	d1c0      	bne.n	800090e <__aeabi_ddiv+0x82>
 800098c:	f411 1f80 	tst.w	r1, #1048576	@ 0x100000
 8000990:	d10b      	bne.n	80009aa <__aeabi_ddiv+0x11e>
 8000992:	ea41 0100 	orr.w	r1, r1, r0
 8000996:	f04f 0000 	mov.w	r0, #0
 800099a:	f04f 4c00 	mov.w	ip, #2147483648	@ 0x80000000
 800099e:	e7b6      	b.n	800090e <__aeabi_ddiv+0x82>
 80009a0:	f411 1f80 	tst.w	r1, #1048576	@ 0x100000
 80009a4:	bf04      	itt	eq
 80009a6:	4301      	orreq	r1, r0
 80009a8:	2000      	moveq	r0, #0
 80009aa:	f1b4 0cfd 	subs.w	ip, r4, #253	@ 0xfd
 80009ae:	bf88      	it	hi
 80009b0:	f5bc 6fe0 	cmphi.w	ip, #1792	@ 0x700
 80009b4:	f63f aeaf 	bhi.w	8000716 <__aeabi_dmul+0xde>
 80009b8:	ebb5 0c03 	subs.w	ip, r5, r3
 80009bc:	bf04      	itt	eq
 80009be:	ebb6 0c02 	subseq.w	ip, r6, r2
 80009c2:	ea5f 0c50 	movseq.w	ip, r0, lsr #1
 80009c6:	f150 0000 	adcs.w	r0, r0, #0
 80009ca:	eb41 5104 	adc.w	r1, r1, r4, lsl #20
 80009ce:	bd70      	pop	{r4, r5, r6, pc}
 80009d0:	f00e 4e00 	and.w	lr, lr, #2147483648	@ 0x80000000
 80009d4:	ea4e 3111 	orr.w	r1, lr, r1, lsr #12
 80009d8:	eb14 045c 	adds.w	r4, r4, ip, lsr #1
 80009dc:	bfc2      	ittt	gt
 80009de:	ebd4 050c 	rsbsgt	r5, r4, ip
 80009e2:	ea41 5104 	orrgt.w	r1, r1, r4, lsl #20
 80009e6:	bd70      	popgt	{r4, r5, r6, pc}
 80009e8:	f441 1180 	orr.w	r1, r1, #1048576	@ 0x100000
 80009ec:	f04f 0e00 	mov.w	lr, #0
 80009f0:	3c01      	subs	r4, #1
 80009f2:	e690      	b.n	8000716 <__aeabi_dmul+0xde>
 80009f4:	ea45 0e06 	orr.w	lr, r5, r6
 80009f8:	e68d      	b.n	8000716 <__aeabi_dmul+0xde>
 80009fa:	ea0c 5513 	and.w	r5, ip, r3, lsr #20
 80009fe:	ea94 0f0c 	teq	r4, ip
 8000a02:	bf08      	it	eq
 8000a04:	ea95 0f0c 	teqeq	r5, ip
 8000a08:	f43f af3b 	beq.w	8000882 <__aeabi_dmul+0x24a>
 8000a0c:	ea94 0f0c 	teq	r4, ip
 8000a10:	d10a      	bne.n	8000a28 <__aeabi_ddiv+0x19c>
 8000a12:	ea50 3401 	orrs.w	r4, r0, r1, lsl #12
 8000a16:	f47f af34 	bne.w	8000882 <__aeabi_dmul+0x24a>
 8000a1a:	ea95 0f0c 	teq	r5, ip
 8000a1e:	f47f af25 	bne.w	800086c <__aeabi_dmul+0x234>
 8000a22:	4610      	mov	r0, r2
 8000a24:	4619      	mov	r1, r3
 8000a26:	e72c      	b.n	8000882 <__aeabi_dmul+0x24a>
 8000a28:	ea95 0f0c 	teq	r5, ip
 8000a2c:	d106      	bne.n	8000a3c <__aeabi_ddiv+0x1b0>
 8000a2e:	ea52 3503 	orrs.w	r5, r2, r3, lsl #12
 8000a32:	f43f aefd 	beq.w	8000830 <__aeabi_dmul+0x1f8>
 8000a36:	4610      	mov	r0, r2
 8000a38:	4619      	mov	r1, r3
 8000a3a:	e722      	b.n	8000882 <__aeabi_dmul+0x24a>
 8000a3c:	ea50 0641 	orrs.w	r6, r0, r1, lsl #1
 8000a40:	bf18      	it	ne
 8000a42:	ea52 0643 	orrsne.w	r6, r2, r3, lsl #1
 8000a46:	f47f aec5 	bne.w	80007d4 <__aeabi_dmul+0x19c>
 8000a4a:	ea50 0441 	orrs.w	r4, r0, r1, lsl #1
 8000a4e:	f47f af0d 	bne.w	800086c <__aeabi_dmul+0x234>
 8000a52:	ea52 0543 	orrs.w	r5, r2, r3, lsl #1
 8000a56:	f47f aeeb 	bne.w	8000830 <__aeabi_dmul+0x1f8>
 8000a5a:	e712      	b.n	8000882 <__aeabi_dmul+0x24a>

08000a5c <__gedf2>:
 8000a5c:	f04f 3cff 	mov.w	ip, #4294967295
 8000a60:	e006      	b.n	8000a70 <__cmpdf2+0x4>
 8000a62:	bf00      	nop

08000a64 <__ledf2>:
 8000a64:	f04f 0c01 	mov.w	ip, #1
 8000a68:	e002      	b.n	8000a70 <__cmpdf2+0x4>
 8000a6a:	bf00      	nop

08000a6c <__cmpdf2>:
 8000a6c:	f04f 0c01 	mov.w	ip, #1
 8000a70:	f84d cd04 	str.w	ip, [sp, #-4]!
 8000a74:	ea4f 0c41 	mov.w	ip, r1, lsl #1
 8000a78:	ea7f 5c6c 	mvns.w	ip, ip, asr #21
 8000a7c:	ea4f 0c43 	mov.w	ip, r3, lsl #1
 8000a80:	bf18      	it	ne
 8000a82:	ea7f 5c6c 	mvnsne.w	ip, ip, asr #21
 8000a86:	d01b      	beq.n	8000ac0 <__cmpdf2+0x54>
 8000a88:	b001      	add	sp, #4
 8000a8a:	ea50 0c41 	orrs.w	ip, r0, r1, lsl #1
 8000a8e:	bf0c      	ite	eq
 8000a90:	ea52 0c43 	orrseq.w	ip, r2, r3, lsl #1
 8000a94:	ea91 0f03 	teqne	r1, r3
 8000a98:	bf02      	ittt	eq
 8000a9a:	ea90 0f02 	teqeq	r0, r2
 8000a9e:	2000      	moveq	r0, #0
 8000aa0:	4770      	bxeq	lr
 8000aa2:	f110 0f00 	cmn.w	r0, #0
 8000aa6:	ea91 0f03 	teq	r1, r3
 8000aaa:	bf58      	it	pl
 8000aac:	4299      	cmppl	r1, r3
 8000aae:	bf08      	it	eq
 8000ab0:	4290      	cmpeq	r0, r2
 8000ab2:	bf2c      	ite	cs
 8000ab4:	17d8      	asrcs	r0, r3, #31
 8000ab6:	ea6f 70e3 	mvncc.w	r0, r3, asr #31
 8000aba:	f040 0001 	orr.w	r0, r0, #1
 8000abe:	4770      	bx	lr
 8000ac0:	ea4f 0c41 	mov.w	ip, r1, lsl #1
 8000ac4:	ea7f 5c6c 	mvns.w	ip, ip, asr #21
 8000ac8:	d102      	bne.n	8000ad0 <__cmpdf2+0x64>
 8000aca:	ea50 3c01 	orrs.w	ip, r0, r1, lsl #12
 8000ace:	d107      	bne.n	8000ae0 <__cmpdf2+0x74>
 8000ad0:	ea4f 0c43 	mov.w	ip, r3, lsl #1
 8000ad4:	ea7f 5c6c 	mvns.w	ip, ip, asr #21
 8000ad8:	d1d6      	bne.n	8000a88 <__cmpdf2+0x1c>
 8000ada:	ea52 3c03 	orrs.w	ip, r2, r3, lsl #12
 8000ade:	d0d3      	beq.n	8000a88 <__cmpdf2+0x1c>
 8000ae0:	f85d 0b04 	ldr.w	r0, [sp], #4
 8000ae4:	4770      	bx	lr
 8000ae6:	bf00      	nop

08000ae8 <__aeabi_cdrcmple>:
 8000ae8:	4684      	mov	ip, r0
 8000aea:	4610      	mov	r0, r2
 8000aec:	4662      	mov	r2, ip
 8000aee:	468c      	mov	ip, r1
 8000af0:	4619      	mov	r1, r3
 8000af2:	4663      	mov	r3, ip
 8000af4:	e000      	b.n	8000af8 <__aeabi_cdcmpeq>
 8000af6:	bf00      	nop

08000af8 <__aeabi_cdcmpeq>:
 8000af8:	b501      	push	{r0, lr}
 8000afa:	f7ff ffb7 	bl	8000a6c <__cmpdf2>
 8000afe:	2800      	cmp	r0, #0
 8000b00:	bf48      	it	mi
 8000b02:	f110 0f00 	cmnmi.w	r0, #0
 8000b06:	bd01      	pop	{r0, pc}

08000b08 <__aeabi_dcmpeq>:
 8000b08:	f84d ed08 	str.w	lr, [sp, #-8]!
 8000b0c:	f7ff fff4 	bl	8000af8 <__aeabi_cdcmpeq>
 8000b10:	bf0c      	ite	eq
 8000b12:	2001      	moveq	r0, #1
 8000b14:	2000      	movne	r0, #0
 8000b16:	f85d fb08 	ldr.w	pc, [sp], #8
 8000b1a:	bf00      	nop

08000b1c <__aeabi_dcmplt>:
 8000b1c:	f84d ed08 	str.w	lr, [sp, #-8]!
 8000b20:	f7ff ffea 	bl	8000af8 <__aeabi_cdcmpeq>
 8000b24:	bf34      	ite	cc
 8000b26:	2001      	movcc	r0, #1
 8000b28:	2000      	movcs	r0, #0
 8000b2a:	f85d fb08 	ldr.w	pc, [sp], #8
 8000b2e:	bf00      	nop

08000b30 <__aeabi_dcmple>:
 8000b30:	f84d ed08 	str.w	lr, [sp, #-8]!
 8000b34:	f7ff ffe0 	bl	8000af8 <__aeabi_cdcmpeq>
 8000b38:	bf94      	ite	ls
 8000b3a:	2001      	movls	r0, #1
 8000b3c:	2000      	movhi	r0, #0
 8000b3e:	f85d fb08 	ldr.w	pc, [sp], #8
 8000b42:	bf00      	nop

08000b44 <__aeabi_dcmpge>:
 8000b44:	f84d ed08 	str.w	lr, [sp, #-8]!
 8000b48:	f7ff ffce 	bl	8000ae8 <__aeabi_cdrcmple>
 8000b4c:	bf94      	ite	ls
 8000b4e:	2001      	movls	r0, #1
 8000b50:	2000      	movhi	r0, #0
 8000b52:	f85d fb08 	ldr.w	pc, [sp], #8
 8000b56:	bf00      	nop

08000b58 <__aeabi_dcmpgt>:
 8000b58:	f84d ed08 	str.w	lr, [sp, #-8]!
 8000b5c:	f7ff ffc4 	bl	8000ae8 <__aeabi_cdrcmple>
 8000b60:	bf34      	ite	cc
 8000b62:	2001      	movcc	r0, #1
 8000b64:	2000      	movcs	r0, #0
 8000b66:	f85d fb08 	ldr.w	pc, [sp], #8
 8000b6a:	bf00      	nop

08000b6c <__aeabi_dcmpun>:
 8000b6c:	ea4f 0c41 	mov.w	ip, r1, lsl #1
 8000b70:	ea7f 5c6c 	mvns.w	ip, ip, asr #21
 8000b74:	d102      	bne.n	8000b7c <__aeabi_dcmpun+0x10>
 8000b76:	ea50 3c01 	orrs.w	ip, r0, r1, lsl #12
 8000b7a:	d10a      	bne.n	8000b92 <__aeabi_dcmpun+0x26>
 8000b7c:	ea4f 0c43 	mov.w	ip, r3, lsl #1
 8000b80:	ea7f 5c6c 	mvns.w	ip, ip, asr #21
 8000b84:	d102      	bne.n	8000b8c <__aeabi_dcmpun+0x20>
 8000b86:	ea52 3c03 	orrs.w	ip, r2, r3, lsl #12
 8000b8a:	d102      	bne.n	8000b92 <__aeabi_dcmpun+0x26>
 8000b8c:	f04f 0000 	mov.w	r0, #0
 8000b90:	4770      	bx	lr
 8000b92:	f04f 0001 	mov.w	r0, #1
 8000b96:	4770      	bx	lr

08000b98 <__aeabi_d2iz>:
 8000b98:	ea4f 0241 	mov.w	r2, r1, lsl #1
 8000b9c:	f512 1200 	adds.w	r2, r2, #2097152	@ 0x200000
 8000ba0:	d215      	bcs.n	8000bce <__aeabi_d2iz+0x36>
 8000ba2:	d511      	bpl.n	8000bc8 <__aeabi_d2iz+0x30>
 8000ba4:	f46f 7378 	mvn.w	r3, #992	@ 0x3e0
 8000ba8:	ebb3 5262 	subs.w	r2, r3, r2, asr #21
 8000bac:	d912      	bls.n	8000bd4 <__aeabi_d2iz+0x3c>
 8000bae:	ea4f 23c1 	mov.w	r3, r1, lsl #11
 8000bb2:	f043 4300 	orr.w	r3, r3, #2147483648	@ 0x80000000
 8000bb6:	ea43 5350 	orr.w	r3, r3, r0, lsr #21
 8000bba:	f011 4f00 	tst.w	r1, #2147483648	@ 0x80000000
 8000bbe:	fa23 f002 	lsr.w	r0, r3, r2
 8000bc2:	bf18      	it	ne
 8000bc4:	4240      	negne	r0, r0
 8000bc6:	4770      	bx	lr
 8000bc8:	f04f 0000 	mov.w	r0, #0
 8000bcc:	4770      	bx	lr
 8000bce:	ea50 3001 	orrs.w	r0, r0, r1, lsl #12
 8000bd2:	d105      	bne.n	8000be0 <__aeabi_d2iz+0x48>
 8000bd4:	f011 4000 	ands.w	r0, r1, #2147483648	@ 0x80000000
 8000bd8:	bf08      	it	eq
 8000bda:	f06f 4000 	mvneq.w	r0, #2147483648	@ 0x80000000
 8000bde:	4770      	bx	lr
 8000be0:	f04f 0000 	mov.w	r0, #0
 8000be4:	4770      	bx	lr
 8000be6:	bf00      	nop

08000be8 <__aeabi_d2f>:
 8000be8:	ea4f 0241 	mov.w	r2, r1, lsl #1
 8000bec:	f1b2 43e0 	subs.w	r3, r2, #1879048192	@ 0x70000000
 8000bf0:	bf24      	itt	cs
 8000bf2:	f5b3 1c00 	subscs.w	ip, r3, #2097152	@ 0x200000
 8000bf6:	f1dc 5cfe 	rsbscs	ip, ip, #532676608	@ 0x1fc00000
 8000bfa:	d90d      	bls.n	8000c18 <__aeabi_d2f+0x30>
 8000bfc:	f001 4c00 	and.w	ip, r1, #2147483648	@ 0x80000000
 8000c00:	ea4f 02c0 	mov.w	r2, r0, lsl #3
 8000c04:	ea4c 7050 	orr.w	r0, ip, r0, lsr #29
 8000c08:	f1b2 4f00 	cmp.w	r2, #2147483648	@ 0x80000000
 8000c0c:	eb40 0083 	adc.w	r0, r0, r3, lsl #2
 8000c10:	bf08      	it	eq
 8000c12:	f020 0001 	biceq.w	r0, r0, #1
 8000c16:	4770      	bx	lr
 8000c18:	f011 4f80 	tst.w	r1, #1073741824	@ 0x40000000
 8000c1c:	d121      	bne.n	8000c62 <__aeabi_d2f+0x7a>
 8000c1e:	f113 7238 	adds.w	r2, r3, #48234496	@ 0x2e00000
 8000c22:	bfbc      	itt	lt
 8000c24:	f001 4000 	andlt.w	r0, r1, #2147483648	@ 0x80000000
 8000c28:	4770      	bxlt	lr
 8000c2a:	f441 1180 	orr.w	r1, r1, #1048576	@ 0x100000
 8000c2e:	ea4f 5252 	mov.w	r2, r2, lsr #21
 8000c32:	f1c2 0218 	rsb	r2, r2, #24
 8000c36:	f1c2 0c20 	rsb	ip, r2, #32
 8000c3a:	fa10 f30c 	lsls.w	r3, r0, ip
 8000c3e:	fa20 f002 	lsr.w	r0, r0, r2
 8000c42:	bf18      	it	ne
 8000c44:	f040 0001 	orrne.w	r0, r0, #1
 8000c48:	ea4f 23c1 	mov.w	r3, r1, lsl #11
 8000c4c:	ea4f 23d3 	mov.w	r3, r3, lsr #11
 8000c50:	fa03 fc0c 	lsl.w	ip, r3, ip
 8000c54:	ea40 000c 	orr.w	r0, r0, ip
 8000c58:	fa23 f302 	lsr.w	r3, r3, r2
 8000c5c:	ea4f 0343 	mov.w	r3, r3, lsl #1
 8000c60:	e7cc      	b.n	8000bfc <__aeabi_d2f+0x14>
 8000c62:	ea7f 5362 	mvns.w	r3, r2, asr #21
 8000c66:	d107      	bne.n	8000c78 <__aeabi_d2f+0x90>
 8000c68:	ea50 3301 	orrs.w	r3, r0, r1, lsl #12
 8000c6c:	bf1e      	ittt	ne
 8000c6e:	f04f 40fe 	movne.w	r0, #2130706432	@ 0x7f000000
 8000c72:	f440 0040 	orrne.w	r0, r0, #12582912	@ 0xc00000
 8000c76:	4770      	bxne	lr
 8000c78:	f001 4000 	and.w	r0, r1, #2147483648	@ 0x80000000
 8000c7c:	f040 40fe 	orr.w	r0, r0, #2130706432	@ 0x7f000000
 8000c80:	f440 0000 	orr.w	r0, r0, #8388608	@ 0x800000
 8000c84:	4770      	bx	lr
 8000c86:	bf00      	nop

08000c88 <__aeabi_uldivmod>:
 8000c88:	b953      	cbnz	r3, 8000ca0 <__aeabi_uldivmod+0x18>
 8000c8a:	b94a      	cbnz	r2, 8000ca0 <__aeabi_uldivmod+0x18>
 8000c8c:	2900      	cmp	r1, #0
 8000c8e:	bf08      	it	eq
 8000c90:	2800      	cmpeq	r0, #0
 8000c92:	bf1c      	itt	ne
 8000c94:	f04f 31ff 	movne.w	r1, #4294967295
 8000c98:	f04f 30ff 	movne.w	r0, #4294967295
 8000c9c:	f000 b96a 	b.w	8000f74 <__aeabi_idiv0>
 8000ca0:	f1ad 0c08 	sub.w	ip, sp, #8
 8000ca4:	e96d ce04 	strd	ip, lr, [sp, #-16]!
 8000ca8:	f000 f806 	bl	8000cb8 <__udivmoddi4>
 8000cac:	f8dd e004 	ldr.w	lr, [sp, #4]
 8000cb0:	e9dd 2302 	ldrd	r2, r3, [sp, #8]
 8000cb4:	b004      	add	sp, #16
 8000cb6:	4770      	bx	lr

08000cb8 <__udivmoddi4>:
 8000cb8:	e92d 47f0 	stmdb	sp!, {r4, r5, r6, r7, r8, r9, sl, lr}
 8000cbc:	9d08      	ldr	r5, [sp, #32]
 8000cbe:	460c      	mov	r4, r1
 8000cc0:	2b00      	cmp	r3, #0
 8000cc2:	d14e      	bne.n	8000d62 <__udivmoddi4+0xaa>
 8000cc4:	4694      	mov	ip, r2
 8000cc6:	458c      	cmp	ip, r1
 8000cc8:	4686      	mov	lr, r0
 8000cca:	fab2 f282 	clz	r2, r2
 8000cce:	d962      	bls.n	8000d96 <__udivmoddi4+0xde>
 8000cd0:	b14a      	cbz	r2, 8000ce6 <__udivmoddi4+0x2e>
 8000cd2:	f1c2 0320 	rsb	r3, r2, #32
 8000cd6:	4091      	lsls	r1, r2
 8000cd8:	fa20 f303 	lsr.w	r3, r0, r3
 8000cdc:	fa0c fc02 	lsl.w	ip, ip, r2
 8000ce0:	4319      	orrs	r1, r3
 8000ce2:	fa00 fe02 	lsl.w	lr, r0, r2
 8000ce6:	ea4f 471c 	mov.w	r7, ip, lsr #16
 8000cea:	fa1f f68c 	uxth.w	r6, ip
 8000cee:	fbb1 f4f7 	udiv	r4, r1, r7
 8000cf2:	ea4f 431e 	mov.w	r3, lr, lsr #16
 8000cf6:	fb07 1114 	mls	r1, r7, r4, r1
 8000cfa:	ea43 4301 	orr.w	r3, r3, r1, lsl #16
 8000cfe:	fb04 f106 	mul.w	r1, r4, r6
 8000d02:	4299      	cmp	r1, r3
 8000d04:	d90a      	bls.n	8000d1c <__udivmoddi4+0x64>
 8000d06:	eb1c 0303 	adds.w	r3, ip, r3
 8000d0a:	f104 30ff 	add.w	r0, r4, #4294967295
 8000d0e:	f080 8112 	bcs.w	8000f36 <__udivmoddi4+0x27e>
 8000d12:	4299      	cmp	r1, r3
 8000d14:	f240 810f 	bls.w	8000f36 <__udivmoddi4+0x27e>
 8000d18:	3c02      	subs	r4, #2
 8000d1a:	4463      	add	r3, ip
 8000d1c:	1a59      	subs	r1, r3, r1
 8000d1e:	fa1f f38e 	uxth.w	r3, lr
 8000d22:	fbb1 f0f7 	udiv	r0, r1, r7
 8000d26:	fb07 1110 	mls	r1, r7, r0, r1
 8000d2a:	ea43 4301 	orr.w	r3, r3, r1, lsl #16
 8000d2e:	fb00 f606 	mul.w	r6, r0, r6
 8000d32:	429e      	cmp	r6, r3
 8000d34:	d90a      	bls.n	8000d4c <__udivmoddi4+0x94>
 8000d36:	eb1c 0303 	adds.w	r3, ip, r3
 8000d3a:	f100 31ff 	add.w	r1, r0, #4294967295
 8000d3e:	f080 80fc 	bcs.w	8000f3a <__udivmoddi4+0x282>
 8000d42:	429e      	cmp	r6, r3
 8000d44:	f240 80f9 	bls.w	8000f3a <__udivmoddi4+0x282>
 8000d48:	4463      	add	r3, ip
 8000d4a:	3802      	subs	r0, #2
 8000d4c:	1b9b      	subs	r3, r3, r6
 8000d4e:	ea40 4004 	orr.w	r0, r0, r4, lsl #16
 8000d52:	2100      	movs	r1, #0
 8000d54:	b11d      	cbz	r5, 8000d5e <__udivmoddi4+0xa6>
 8000d56:	40d3      	lsrs	r3, r2
 8000d58:	2200      	movs	r2, #0
 8000d5a:	e9c5 3200 	strd	r3, r2, [r5]
 8000d5e:	e8bd 87f0 	ldmia.w	sp!, {r4, r5, r6, r7, r8, r9, sl, pc}
 8000d62:	428b      	cmp	r3, r1
 8000d64:	d905      	bls.n	8000d72 <__udivmoddi4+0xba>
 8000d66:	b10d      	cbz	r5, 8000d6c <__udivmoddi4+0xb4>
 8000d68:	e9c5 0100 	strd	r0, r1, [r5]
 8000d6c:	2100      	movs	r1, #0
 8000d6e:	4608      	mov	r0, r1
 8000d70:	e7f5      	b.n	8000d5e <__udivmoddi4+0xa6>
 8000d72:	fab3 f183 	clz	r1, r3
 8000d76:	2900      	cmp	r1, #0
 8000d78:	d146      	bne.n	8000e08 <__udivmoddi4+0x150>
 8000d7a:	42a3      	cmp	r3, r4
 8000d7c:	d302      	bcc.n	8000d84 <__udivmoddi4+0xcc>
 8000d7e:	4290      	cmp	r0, r2
 8000d80:	f0c0 80f0 	bcc.w	8000f64 <__udivmoddi4+0x2ac>
 8000d84:	1a86      	subs	r6, r0, r2
 8000d86:	eb64 0303 	sbc.w	r3, r4, r3
 8000d8a:	2001      	movs	r0, #1
 8000d8c:	2d00      	cmp	r5, #0
 8000d8e:	d0e6      	beq.n	8000d5e <__udivmoddi4+0xa6>
 8000d90:	e9c5 6300 	strd	r6, r3, [r5]
 8000d94:	e7e3      	b.n	8000d5e <__udivmoddi4+0xa6>
 8000d96:	2a00      	cmp	r2, #0
 8000d98:	f040 8090 	bne.w	8000ebc <__udivmoddi4+0x204>
 8000d9c:	eba1 040c 	sub.w	r4, r1, ip
 8000da0:	ea4f 481c 	mov.w	r8, ip, lsr #16
 8000da4:	fa1f f78c 	uxth.w	r7, ip
 8000da8:	2101      	movs	r1, #1
 8000daa:	fbb4 f6f8 	udiv	r6, r4, r8
 8000dae:	ea4f 431e 	mov.w	r3, lr, lsr #16
 8000db2:	fb08 4416 	mls	r4, r8, r6, r4
 8000db6:	ea43 4304 	orr.w	r3, r3, r4, lsl #16
 8000dba:	fb07 f006 	mul.w	r0, r7, r6
 8000dbe:	4298      	cmp	r0, r3
 8000dc0:	d908      	bls.n	8000dd4 <__udivmoddi4+0x11c>
 8000dc2:	eb1c 0303 	adds.w	r3, ip, r3
 8000dc6:	f106 34ff 	add.w	r4, r6, #4294967295
 8000dca:	d202      	bcs.n	8000dd2 <__udivmoddi4+0x11a>
 8000dcc:	4298      	cmp	r0, r3
 8000dce:	f200 80cd 	bhi.w	8000f6c <__udivmoddi4+0x2b4>
 8000dd2:	4626      	mov	r6, r4
 8000dd4:	1a1c      	subs	r4, r3, r0
 8000dd6:	fa1f f38e 	uxth.w	r3, lr
 8000dda:	fbb4 f0f8 	udiv	r0, r4, r8
 8000dde:	fb08 4410 	mls	r4, r8, r0, r4
 8000de2:	ea43 4304 	orr.w	r3, r3, r4, lsl #16
 8000de6:	fb00 f707 	mul.w	r7, r0, r7
 8000dea:	429f      	cmp	r7, r3
 8000dec:	d908      	bls.n	8000e00 <__udivmoddi4+0x148>
 8000dee:	eb1c 0303 	adds.w	r3, ip, r3
 8000df2:	f100 34ff 	add.w	r4, r0, #4294967295
 8000df6:	d202      	bcs.n	8000dfe <__udivmoddi4+0x146>
 8000df8:	429f      	cmp	r7, r3
 8000dfa:	f200 80b0 	bhi.w	8000f5e <__udivmoddi4+0x2a6>
 8000dfe:	4620      	mov	r0, r4
 8000e00:	1bdb      	subs	r3, r3, r7
 8000e02:	ea40 4006 	orr.w	r0, r0, r6, lsl #16
 8000e06:	e7a5      	b.n	8000d54 <__udivmoddi4+0x9c>
 8000e08:	f1c1 0620 	rsb	r6, r1, #32
 8000e0c:	408b      	lsls	r3, r1
 8000e0e:	fa22 f706 	lsr.w	r7, r2, r6
 8000e12:	431f      	orrs	r7, r3
 8000e14:	fa20 fc06 	lsr.w	ip, r0, r6
 8000e18:	fa04 f301 	lsl.w	r3, r4, r1
 8000e1c:	ea43 030c 	orr.w	r3, r3, ip
 8000e20:	40f4      	lsrs	r4, r6
 8000e22:	fa00 f801 	lsl.w	r8, r0, r1
 8000e26:	0c38      	lsrs	r0, r7, #16
 8000e28:	ea4f 4913 	mov.w	r9, r3, lsr #16
 8000e2c:	fbb4 fef0 	udiv	lr, r4, r0
 8000e30:	fa1f fc87 	uxth.w	ip, r7
 8000e34:	fb00 441e 	mls	r4, r0, lr, r4
 8000e38:	ea49 4404 	orr.w	r4, r9, r4, lsl #16
 8000e3c:	fb0e f90c 	mul.w	r9, lr, ip
 8000e40:	45a1      	cmp	r9, r4
 8000e42:	fa02 f201 	lsl.w	r2, r2, r1
 8000e46:	d90a      	bls.n	8000e5e <__udivmoddi4+0x1a6>
 8000e48:	193c      	adds	r4, r7, r4
 8000e4a:	f10e 3aff 	add.w	sl, lr, #4294967295
 8000e4e:	f080 8084 	bcs.w	8000f5a <__udivmoddi4+0x2a2>
 8000e52:	45a1      	cmp	r9, r4
 8000e54:	f240 8081 	bls.w	8000f5a <__udivmoddi4+0x2a2>
 8000e58:	f1ae 0e02 	sub.w	lr, lr, #2
 8000e5c:	443c      	add	r4, r7
 8000e5e:	eba4 0409 	sub.w	r4, r4, r9
 8000e62:	fa1f f983 	uxth.w	r9, r3
 8000e66:	fbb4 f3f0 	udiv	r3, r4, r0
 8000e6a:	fb00 4413 	mls	r4, r0, r3, r4
 8000e6e:	ea49 4404 	orr.w	r4, r9, r4, lsl #16
 8000e72:	fb03 fc0c 	mul.w	ip, r3, ip
 8000e76:	45a4      	cmp	ip, r4
 8000e78:	d907      	bls.n	8000e8a <__udivmoddi4+0x1d2>
 8000e7a:	193c      	adds	r4, r7, r4
 8000e7c:	f103 30ff 	add.w	r0, r3, #4294967295
 8000e80:	d267      	bcs.n	8000f52 <__udivmoddi4+0x29a>
 8000e82:	45a4      	cmp	ip, r4
 8000e84:	d965      	bls.n	8000f52 <__udivmoddi4+0x29a>
 8000e86:	3b02      	subs	r3, #2
 8000e88:	443c      	add	r4, r7
 8000e8a:	ea43 400e 	orr.w	r0, r3, lr, lsl #16
 8000e8e:	fba0 9302 	umull	r9, r3, r0, r2
 8000e92:	eba4 040c 	sub.w	r4, r4, ip
 8000e96:	429c      	cmp	r4, r3
 8000e98:	46ce      	mov	lr, r9
 8000e9a:	469c      	mov	ip, r3
 8000e9c:	d351      	bcc.n	8000f42 <__udivmoddi4+0x28a>
 8000e9e:	d04e      	beq.n	8000f3e <__udivmoddi4+0x286>
 8000ea0:	b155      	cbz	r5, 8000eb8 <__udivmoddi4+0x200>
 8000ea2:	ebb8 030e 	subs.w	r3, r8, lr
 8000ea6:	eb64 040c 	sbc.w	r4, r4, ip
 8000eaa:	fa04 f606 	lsl.w	r6, r4, r6
 8000eae:	40cb      	lsrs	r3, r1
 8000eb0:	431e      	orrs	r6, r3
 8000eb2:	40cc      	lsrs	r4, r1
 8000eb4:	e9c5 6400 	strd	r6, r4, [r5]
 8000eb8:	2100      	movs	r1, #0
 8000eba:	e750      	b.n	8000d5e <__udivmoddi4+0xa6>
 8000ebc:	f1c2 0320 	rsb	r3, r2, #32
 8000ec0:	fa20 f103 	lsr.w	r1, r0, r3
 8000ec4:	fa0c fc02 	lsl.w	ip, ip, r2
 8000ec8:	fa24 f303 	lsr.w	r3, r4, r3
 8000ecc:	4094      	lsls	r4, r2
 8000ece:	430c      	orrs	r4, r1
 8000ed0:	ea4f 481c 	mov.w	r8, ip, lsr #16
 8000ed4:	fa00 fe02 	lsl.w	lr, r0, r2
 8000ed8:	fa1f f78c 	uxth.w	r7, ip
 8000edc:	fbb3 f0f8 	udiv	r0, r3, r8
 8000ee0:	fb08 3110 	mls	r1, r8, r0, r3
 8000ee4:	0c23      	lsrs	r3, r4, #16
 8000ee6:	ea43 4301 	orr.w	r3, r3, r1, lsl #16
 8000eea:	fb00 f107 	mul.w	r1, r0, r7
 8000eee:	4299      	cmp	r1, r3
 8000ef0:	d908      	bls.n	8000f04 <__udivmoddi4+0x24c>
 8000ef2:	eb1c 0303 	adds.w	r3, ip, r3
 8000ef6:	f100 36ff 	add.w	r6, r0, #4294967295
 8000efa:	d22c      	bcs.n	8000f56 <__udivmoddi4+0x29e>
 8000efc:	4299      	cmp	r1, r3
 8000efe:	d92a      	bls.n	8000f56 <__udivmoddi4+0x29e>
 8000f00:	3802      	subs	r0, #2
 8000f02:	4463      	add	r3, ip
 8000f04:	1a5b      	subs	r3, r3, r1
 8000f06:	b2a4      	uxth	r4, r4
 8000f08:	fbb3 f1f8 	udiv	r1, r3, r8
 8000f0c:	fb08 3311 	mls	r3, r8, r1, r3
 8000f10:	ea44 4403 	orr.w	r4, r4, r3, lsl #16
 8000f14:	fb01 f307 	mul.w	r3, r1, r7
 8000f18:	42a3      	cmp	r3, r4
 8000f1a:	d908      	bls.n	8000f2e <__udivmoddi4+0x276>
 8000f1c:	eb1c 0404 	adds.w	r4, ip, r4
 8000f20:	f101 36ff 	add.w	r6, r1, #4294967295
 8000f24:	d213      	bcs.n	8000f4e <__udivmoddi4+0x296>
 8000f26:	42a3      	cmp	r3, r4
 8000f28:	d911      	bls.n	8000f4e <__udivmoddi4+0x296>
 8000f2a:	3902      	subs	r1, #2
 8000f2c:	4464      	add	r4, ip
 8000f2e:	1ae4      	subs	r4, r4, r3
 8000f30:	ea41 4100 	orr.w	r1, r1, r0, lsl #16
 8000f34:	e739      	b.n	8000daa <__udivmoddi4+0xf2>
 8000f36:	4604      	mov	r4, r0
 8000f38:	e6f0      	b.n	8000d1c <__udivmoddi4+0x64>
 8000f3a:	4608      	mov	r0, r1
 8000f3c:	e706      	b.n	8000d4c <__udivmoddi4+0x94>
 8000f3e:	45c8      	cmp	r8, r9
 8000f40:	d2ae      	bcs.n	8000ea0 <__udivmoddi4+0x1e8>
 8000f42:	ebb9 0e02 	subs.w	lr, r9, r2
 8000f46:	eb63 0c07 	sbc.w	ip, r3, r7
 8000f4a:	3801      	subs	r0, #1
 8000f4c:	e7a8      	b.n	8000ea0 <__udivmoddi4+0x1e8>
 8000f4e:	4631      	mov	r1, r6
 8000f50:	e7ed      	b.n	8000f2e <__udivmoddi4+0x276>
 8000f52:	4603      	mov	r3, r0
 8000f54:	e799      	b.n	8000e8a <__udivmoddi4+0x1d2>
 8000f56:	4630      	mov	r0, r6
 8000f58:	e7d4      	b.n	8000f04 <__udivmoddi4+0x24c>
 8000f5a:	46d6      	mov	lr, sl
 8000f5c:	e77f      	b.n	8000e5e <__udivmoddi4+0x1a6>
 8000f5e:	4463      	add	r3, ip
 8000f60:	3802      	subs	r0, #2
 8000f62:	e74d      	b.n	8000e00 <__udivmoddi4+0x148>
 8000f64:	4606      	mov	r6, r0
 8000f66:	4623      	mov	r3, r4
 8000f68:	4608      	mov	r0, r1
 8000f6a:	e70f      	b.n	8000d8c <__udivmoddi4+0xd4>
 8000f6c:	3e02      	subs	r6, #2
 8000f6e:	4463      	add	r3, ip
 8000f70:	e730      	b.n	8000dd4 <__udivmoddi4+0x11c>
 8000f72:	bf00      	nop

08000f74 <__aeabi_idiv0>:
 8000f74:	4770      	bx	lr
 8000f76:	bf00      	nop

08000f78 <pec15_calc>:
// ****************** Error Correction *******************
/* Calculates  and returns the CRC15 */
uint16_t pec15_calc(uint8_t len, //Number of bytes that will be used to calculate a PEC
                    uint8_t *data //Array of data that will be used to calculate  a PEC
                   )
{
 8000f78:	b480      	push	{r7}
 8000f7a:	b085      	sub	sp, #20
 8000f7c:	af00      	add	r7, sp, #0
 8000f7e:	4603      	mov	r3, r0
 8000f80:	6039      	str	r1, [r7, #0]
 8000f82:	71fb      	strb	r3, [r7, #7]
	uint16_t remainder, addr;
	remainder = 16;//initialize the PEC
 8000f84:	2310      	movs	r3, #16
 8000f86:	81fb      	strh	r3, [r7, #14]

	for (uint8_t i = 0; i < len; i++) // loops for each byte in data array
 8000f88:	2300      	movs	r3, #0
 8000f8a:	737b      	strb	r3, [r7, #13]
 8000f8c:	e018      	b.n	8000fc0 <pec15_calc+0x48>
	{
		addr = ((remainder >> 7) ^ data[i]) & 0xff;//calculate PEC table address
 8000f8e:	89fb      	ldrh	r3, [r7, #14]
 8000f90:	09db      	lsrs	r3, r3, #7
 8000f92:	b29b      	uxth	r3, r3
 8000f94:	7b7a      	ldrb	r2, [r7, #13]
 8000f96:	6839      	ldr	r1, [r7, #0]
 8000f98:	440a      	add	r2, r1
 8000f9a:	7812      	ldrb	r2, [r2, #0]
 8000f9c:	4053      	eors	r3, r2
 8000f9e:	b29b      	uxth	r3, r3
 8000fa0:	b2db      	uxtb	r3, r3
 8000fa2:	817b      	strh	r3, [r7, #10]
		remainder = (remainder << 8) ^ crc15Table[addr];
 8000fa4:	89fb      	ldrh	r3, [r7, #14]
 8000fa6:	021b      	lsls	r3, r3, #8
 8000fa8:	b21a      	sxth	r2, r3
 8000faa:	897b      	ldrh	r3, [r7, #10]
 8000fac:	490b      	ldr	r1, [pc, #44]	@ (8000fdc <pec15_calc+0x64>)
 8000fae:	f831 3013 	ldrh.w	r3, [r1, r3, lsl #1]
 8000fb2:	b21b      	sxth	r3, r3
 8000fb4:	4053      	eors	r3, r2
 8000fb6:	b21b      	sxth	r3, r3
 8000fb8:	81fb      	strh	r3, [r7, #14]
	for (uint8_t i = 0; i < len; i++) // loops for each byte in data array
 8000fba:	7b7b      	ldrb	r3, [r7, #13]
 8000fbc:	3301      	adds	r3, #1
 8000fbe:	737b      	strb	r3, [r7, #13]
 8000fc0:	7b7a      	ldrb	r2, [r7, #13]
 8000fc2:	79fb      	ldrb	r3, [r7, #7]
 8000fc4:	429a      	cmp	r2, r3
 8000fc6:	d3e2      	bcc.n	8000f8e <pec15_calc+0x16>
	}

	return(remainder * 2);//The CRC15 has a 0 in the LSB so the remainder must be multiplied by 2
 8000fc8:	89fb      	ldrh	r3, [r7, #14]
 8000fca:	005b      	lsls	r3, r3, #1
 8000fcc:	b29b      	uxth	r3, r3
}
 8000fce:	4618      	mov	r0, r3
 8000fd0:	3714      	adds	r7, #20
 8000fd2:	46bd      	mov	sp, r7
 8000fd4:	f85d 7b04 	ldr.w	r7, [sp], #4
 8000fd8:	4770      	bx	lr
 8000fda:	bf00      	nop
 8000fdc:	08008e34 	.word	0x08008e34

08000fe0 <Pec10_calc>:

/* Calculates  and returns the CRC10 */
uint16_t Pec10_calc( bool bIsRxCmd, uint8_t nLength, uint8_t *pDataBuf)
{
 8000fe0:	b480      	push	{r7}
 8000fe2:	b085      	sub	sp, #20
 8000fe4:	af00      	add	r7, sp, #0
 8000fe6:	4603      	mov	r3, r0
 8000fe8:	603a      	str	r2, [r7, #0]
 8000fea:	71fb      	strb	r3, [r7, #7]
 8000fec:	460b      	mov	r3, r1
 8000fee:	71bb      	strb	r3, [r7, #6]
    uint16_t nRemainder = 16u; /* PEC_SEED */
 8000ff0:	2310      	movs	r3, #16
 8000ff2:	81fb      	strh	r3, [r7, #14]
    /* x10 + x7 + x3 + x2 + x + 1 <- the CRC10 polynomial 100 1000 1111 */
    uint16_t nPolynomial = 0x8Fu;
 8000ff4:	238f      	movs	r3, #143	@ 0x8f
 8000ff6:	817b      	strh	r3, [r7, #10]
    uint8_t nByteIndex, nBitIndex;

    for (nByteIndex = 0u; nByteIndex < nLength; ++nByteIndex)
 8000ff8:	2300      	movs	r3, #0
 8000ffa:	737b      	strb	r3, [r7, #13]
 8000ffc:	e024      	b.n	8001048 <Pec10_calc+0x68>
  {
    /* Bring the next byte into the remainder. */
        nRemainder ^= (uint16_t)((uint16_t)pDataBuf[nByteIndex] << 2u);
 8000ffe:	7b7b      	ldrb	r3, [r7, #13]
 8001000:	683a      	ldr	r2, [r7, #0]
 8001002:	4413      	add	r3, r2
 8001004:	781b      	ldrb	r3, [r3, #0]
 8001006:	009b      	lsls	r3, r3, #2
 8001008:	b29a      	uxth	r2, r3
 800100a:	89fb      	ldrh	r3, [r7, #14]
 800100c:	4053      	eors	r3, r2
 800100e:	81fb      	strh	r3, [r7, #14]

    /* Perform modulo-2 division, a bit at a time.*/
        for (nBitIndex = 8u; nBitIndex > 0u; --nBitIndex)
 8001010:	2308      	movs	r3, #8
 8001012:	733b      	strb	r3, [r7, #12]
 8001014:	e012      	b.n	800103c <Pec10_calc+0x5c>
    {
      /* Try to divide the current data bit. */
            if ((nRemainder & 0x200u) > 0u)
 8001016:	89fb      	ldrh	r3, [r7, #14]
 8001018:	f403 7300 	and.w	r3, r3, #512	@ 0x200
 800101c:	2b00      	cmp	r3, #0
 800101e:	d007      	beq.n	8001030 <Pec10_calc+0x50>
      {
                nRemainder = (uint16_t)((nRemainder << 1u));
 8001020:	89fb      	ldrh	r3, [r7, #14]
 8001022:	005b      	lsls	r3, r3, #1
 8001024:	81fb      	strh	r3, [r7, #14]
                nRemainder = (uint16_t)(nRemainder ^ nPolynomial);
 8001026:	89fa      	ldrh	r2, [r7, #14]
 8001028:	897b      	ldrh	r3, [r7, #10]
 800102a:	4053      	eors	r3, r2
 800102c:	81fb      	strh	r3, [r7, #14]
 800102e:	e002      	b.n	8001036 <Pec10_calc+0x56>
      }
      else
      {
                nRemainder = (uint16_t)(nRemainder << 1u);
 8001030:	89fb      	ldrh	r3, [r7, #14]
 8001032:	005b      	lsls	r3, r3, #1
 8001034:	81fb      	strh	r3, [r7, #14]
        for (nBitIndex = 8u; nBitIndex > 0u; --nBitIndex)
 8001036:	7b3b      	ldrb	r3, [r7, #12]
 8001038:	3b01      	subs	r3, #1
 800103a:	733b      	strb	r3, [r7, #12]
 800103c:	7b3b      	ldrb	r3, [r7, #12]
 800103e:	2b00      	cmp	r3, #0
 8001040:	d1e9      	bne.n	8001016 <Pec10_calc+0x36>
    for (nByteIndex = 0u; nByteIndex < nLength; ++nByteIndex)
 8001042:	7b7b      	ldrb	r3, [r7, #13]
 8001044:	3301      	adds	r3, #1
 8001046:	737b      	strb	r3, [r7, #13]
 8001048:	7b7a      	ldrb	r2, [r7, #13]
 800104a:	79bb      	ldrb	r3, [r7, #6]
 800104c:	429a      	cmp	r2, r3
 800104e:	d3d6      	bcc.n	8000ffe <Pec10_calc+0x1e>
      }
    }
  }

    /* If array is from received buffer add command counter to crc calculation */
    if (bIsRxCmd == true)
 8001050:	79fb      	ldrb	r3, [r7, #7]
 8001052:	2b00      	cmp	r3, #0
 8001054:	d00e      	beq.n	8001074 <Pec10_calc+0x94>
  {
        nRemainder ^= (uint16_t)(((uint16_t)pDataBuf[nLength] & (uint8_t)0xFC) << 2u);
 8001056:	79bb      	ldrb	r3, [r7, #6]
 8001058:	683a      	ldr	r2, [r7, #0]
 800105a:	4413      	add	r3, r2
 800105c:	781b      	ldrb	r3, [r3, #0]
 800105e:	b21b      	sxth	r3, r3
 8001060:	009b      	lsls	r3, r3, #2
 8001062:	b21b      	sxth	r3, r3
 8001064:	f403 737c 	and.w	r3, r3, #1008	@ 0x3f0
 8001068:	b21a      	sxth	r2, r3
 800106a:	f9b7 300e 	ldrsh.w	r3, [r7, #14]
 800106e:	4053      	eors	r3, r2
 8001070:	b21b      	sxth	r3, r3
 8001072:	81fb      	strh	r3, [r7, #14]
  }
  /* Perform modulo-2 division, a bit at a time */
    for (nBitIndex = 6u; nBitIndex > 0u; --nBitIndex)
 8001074:	2306      	movs	r3, #6
 8001076:	733b      	strb	r3, [r7, #12]
 8001078:	e012      	b.n	80010a0 <Pec10_calc+0xc0>
  {
    /* Try to divide the current data bit */
        if ((nRemainder & 0x200u) > 0u)
 800107a:	89fb      	ldrh	r3, [r7, #14]
 800107c:	f403 7300 	and.w	r3, r3, #512	@ 0x200
 8001080:	2b00      	cmp	r3, #0
 8001082:	d007      	beq.n	8001094 <Pec10_calc+0xb4>
    {
            nRemainder = (uint16_t)((nRemainder << 1u));
 8001084:	89fb      	ldrh	r3, [r7, #14]
 8001086:	005b      	lsls	r3, r3, #1
 8001088:	81fb      	strh	r3, [r7, #14]
            nRemainder = (uint16_t)(nRemainder ^ nPolynomial);
 800108a:	89fa      	ldrh	r2, [r7, #14]
 800108c:	897b      	ldrh	r3, [r7, #10]
 800108e:	4053      	eors	r3, r2
 8001090:	81fb      	strh	r3, [r7, #14]
 8001092:	e002      	b.n	800109a <Pec10_calc+0xba>
    }
    else
    {
            nRemainder = (uint16_t)((nRemainder << 1u));
 8001094:	89fb      	ldrh	r3, [r7, #14]
 8001096:	005b      	lsls	r3, r3, #1
 8001098:	81fb      	strh	r3, [r7, #14]
    for (nBitIndex = 6u; nBitIndex > 0u; --nBitIndex)
 800109a:	7b3b      	ldrb	r3, [r7, #12]
 800109c:	3b01      	subs	r3, #1
 800109e:	733b      	strb	r3, [r7, #12]
 80010a0:	7b3b      	ldrb	r3, [r7, #12]
 80010a2:	2b00      	cmp	r3, #0
 80010a4:	d1e9      	bne.n	800107a <Pec10_calc+0x9a>
    }
  }
    return ((uint16_t)(nRemainder & 0x3FFu));
 80010a6:	89fb      	ldrh	r3, [r7, #14]
 80010a8:	f3c3 0309 	ubfx	r3, r3, #0, #10
 80010ac:	b29b      	uxth	r3, r3
}
 80010ae:	4618      	mov	r0, r3
 80010b0:	3714      	adds	r7, #20
 80010b2:	46bd      	mov	sp, r7
 80010b4:	f85d 7b04 	ldr.w	r7, [sp], #4
 80010b8:	4770      	bx	lr

080010ba <pec10_calc>:
uint16_t pec10_calc(uint8_t nLength, uint8_t *pDataBuf)
{
 80010ba:	b480      	push	{r7}
 80010bc:	b085      	sub	sp, #20
 80010be:	af00      	add	r7, sp, #0
 80010c0:	4603      	mov	r3, r0
 80010c2:	6039      	str	r1, [r7, #0]
 80010c4:	71fb      	strb	r3, [r7, #7]
	bool bIsRxCmd=true;
 80010c6:	2301      	movs	r3, #1
 80010c8:	72fb      	strb	r3, [r7, #11]
    uint16_t nRemainder = 16u; /* PEC_SEED */
 80010ca:	2310      	movs	r3, #16
 80010cc:	81fb      	strh	r3, [r7, #14]
    /* x10 + x7 + x3 + x2 + x + 1 <- the CRC10 polynomial 100 1000 1111 */
    uint16_t nPolynomial = 0x8Fu;
 80010ce:	238f      	movs	r3, #143	@ 0x8f
 80010d0:	813b      	strh	r3, [r7, #8]
    uint8_t nByteIndex, nBitIndex;

    for (nByteIndex = 0u; nByteIndex < nLength; ++nByteIndex)
 80010d2:	2300      	movs	r3, #0
 80010d4:	737b      	strb	r3, [r7, #13]
 80010d6:	e024      	b.n	8001122 <pec10_calc+0x68>
  {
    /* Bring the next byte into the remainder. */
        nRemainder ^= (uint16_t)((uint16_t)pDataBuf[nByteIndex] << 2u);
 80010d8:	7b7b      	ldrb	r3, [r7, #13]
 80010da:	683a      	ldr	r2, [r7, #0]
 80010dc:	4413      	add	r3, r2
 80010de:	781b      	ldrb	r3, [r3, #0]
 80010e0:	009b      	lsls	r3, r3, #2
 80010e2:	b29a      	uxth	r2, r3
 80010e4:	89fb      	ldrh	r3, [r7, #14]
 80010e6:	4053      	eors	r3, r2
 80010e8:	81fb      	strh	r3, [r7, #14]

    /* Perform modulo-2 division, a bit at a time.*/
        for (nBitIndex = 8u; nBitIndex > 0u; --nBitIndex)
 80010ea:	2308      	movs	r3, #8
 80010ec:	733b      	strb	r3, [r7, #12]
 80010ee:	e012      	b.n	8001116 <pec10_calc+0x5c>
    {
      /* Try to divide the current data bit. */
            if ((nRemainder & 0x200u) > 0u)
 80010f0:	89fb      	ldrh	r3, [r7, #14]
 80010f2:	f403 7300 	and.w	r3, r3, #512	@ 0x200
 80010f6:	2b00      	cmp	r3, #0
 80010f8:	d007      	beq.n	800110a <pec10_calc+0x50>
      {
                nRemainder = (uint16_t)((nRemainder << 1u));
 80010fa:	89fb      	ldrh	r3, [r7, #14]
 80010fc:	005b      	lsls	r3, r3, #1
 80010fe:	81fb      	strh	r3, [r7, #14]
                nRemainder = (uint16_t)(nRemainder ^ nPolynomial);
 8001100:	89fa      	ldrh	r2, [r7, #14]
 8001102:	893b      	ldrh	r3, [r7, #8]
 8001104:	4053      	eors	r3, r2
 8001106:	81fb      	strh	r3, [r7, #14]
 8001108:	e002      	b.n	8001110 <pec10_calc+0x56>
      }
      else
      {
                nRemainder = (uint16_t)(nRemainder << 1u);
 800110a:	89fb      	ldrh	r3, [r7, #14]
 800110c:	005b      	lsls	r3, r3, #1
 800110e:	81fb      	strh	r3, [r7, #14]
        for (nBitIndex = 8u; nBitIndex > 0u; --nBitIndex)
 8001110:	7b3b      	ldrb	r3, [r7, #12]
 8001112:	3b01      	subs	r3, #1
 8001114:	733b      	strb	r3, [r7, #12]
 8001116:	7b3b      	ldrb	r3, [r7, #12]
 8001118:	2b00      	cmp	r3, #0
 800111a:	d1e9      	bne.n	80010f0 <pec10_calc+0x36>
    for (nByteIndex = 0u; nByteIndex < nLength; ++nByteIndex)
 800111c:	7b7b      	ldrb	r3, [r7, #13]
 800111e:	3301      	adds	r3, #1
 8001120:	737b      	strb	r3, [r7, #13]
 8001122:	7b7a      	ldrb	r2, [r7, #13]
 8001124:	79fb      	ldrb	r3, [r7, #7]
 8001126:	429a      	cmp	r2, r3
 8001128:	d3d6      	bcc.n	80010d8 <pec10_calc+0x1e>
      }
    }
  }

    /* If array is from received buffer add command counter to crc calculation */
    if (bIsRxCmd == true)
 800112a:	7afb      	ldrb	r3, [r7, #11]
 800112c:	2b00      	cmp	r3, #0
 800112e:	d00e      	beq.n	800114e <pec10_calc+0x94>
  {
        nRemainder ^= (uint16_t)(((uint16_t)pDataBuf[nLength] & (uint8_t)0xFC) << 2u);
 8001130:	79fb      	ldrb	r3, [r7, #7]
 8001132:	683a      	ldr	r2, [r7, #0]
 8001134:	4413      	add	r3, r2
 8001136:	781b      	ldrb	r3, [r3, #0]
 8001138:	b21b      	sxth	r3, r3
 800113a:	009b      	lsls	r3, r3, #2
 800113c:	b21b      	sxth	r3, r3
 800113e:	f403 737c 	and.w	r3, r3, #1008	@ 0x3f0
 8001142:	b21a      	sxth	r2, r3
 8001144:	f9b7 300e 	ldrsh.w	r3, [r7, #14]
 8001148:	4053      	eors	r3, r2
 800114a:	b21b      	sxth	r3, r3
 800114c:	81fb      	strh	r3, [r7, #14]
  }
  /* Perform modulo-2 division, a bit at a time */
    for (nBitIndex = 6u; nBitIndex > 0u; --nBitIndex)
 800114e:	2306      	movs	r3, #6
 8001150:	733b      	strb	r3, [r7, #12]
 8001152:	e012      	b.n	800117a <pec10_calc+0xc0>
  {
    /* Try to divide the current data bit */
        if ((nRemainder & 0x200u) > 0u)
 8001154:	89fb      	ldrh	r3, [r7, #14]
 8001156:	f403 7300 	and.w	r3, r3, #512	@ 0x200
 800115a:	2b00      	cmp	r3, #0
 800115c:	d007      	beq.n	800116e <pec10_calc+0xb4>
    {
            nRemainder = (uint16_t)((nRemainder << 1u));
 800115e:	89fb      	ldrh	r3, [r7, #14]
 8001160:	005b      	lsls	r3, r3, #1
 8001162:	81fb      	strh	r3, [r7, #14]
            nRemainder = (uint16_t)(nRemainder ^ nPolynomial);
 8001164:	89fa      	ldrh	r2, [r7, #14]
 8001166:	893b      	ldrh	r3, [r7, #8]
 8001168:	4053      	eors	r3, r2
 800116a:	81fb      	strh	r3, [r7, #14]
 800116c:	e002      	b.n	8001174 <pec10_calc+0xba>
    }
    else
    {
            nRemainder = (uint16_t)((nRemainder << 1u));
 800116e:	89fb      	ldrh	r3, [r7, #14]
 8001170:	005b      	lsls	r3, r3, #1
 8001172:	81fb      	strh	r3, [r7, #14]
    for (nBitIndex = 6u; nBitIndex > 0u; --nBitIndex)
 8001174:	7b3b      	ldrb	r3, [r7, #12]
 8001176:	3b01      	subs	r3, #1
 8001178:	733b      	strb	r3, [r7, #12]
 800117a:	7b3b      	ldrb	r3, [r7, #12]
 800117c:	2b00      	cmp	r3, #0
 800117e:	d1e9      	bne.n	8001154 <pec10_calc+0x9a>
    }
  }
    return ((uint16_t)(nRemainder & 0x3FFu));
 8001180:	89fb      	ldrh	r3, [r7, #14]
 8001182:	f3c3 0309 	ubfx	r3, r3, #0, #10
 8001186:	b29b      	uxth	r3, r3
}
 8001188:	4618      	mov	r0, r3
 800118a:	3714      	adds	r7, #20
 800118c:	46bd      	mov	sp, r7
 800118e:	f85d 7b04 	ldr.w	r7, [sp], #4
 8001192:	4770      	bx	lr

08001194 <cmd_68>:
//***************** Read and Write to SPI ****************
/* Generic function to write 68xx commands. Function calculates PEC for tx_cmd data. */
void cmd_68(uint8_t tx_cmd[2]) //The command to be transmitted
{
 8001194:	b580      	push	{r7, lr}
 8001196:	b084      	sub	sp, #16
 8001198:	af00      	add	r7, sp, #0
 800119a:	6078      	str	r0, [r7, #4]
	uint8_t cmd[4];
	uint16_t cmd_pec;

	cmd[0] = tx_cmd[0];
 800119c:	687b      	ldr	r3, [r7, #4]
 800119e:	781b      	ldrb	r3, [r3, #0]
 80011a0:	723b      	strb	r3, [r7, #8]
	cmd[1] =  tx_cmd[1];
 80011a2:	687b      	ldr	r3, [r7, #4]
 80011a4:	785b      	ldrb	r3, [r3, #1]
 80011a6:	727b      	strb	r3, [r7, #9]
	cmd_pec = pec15_calc(2, cmd);
 80011a8:	f107 0308 	add.w	r3, r7, #8
 80011ac:	4619      	mov	r1, r3
 80011ae:	2002      	movs	r0, #2
 80011b0:	f7ff fee2 	bl	8000f78 <pec15_calc>
 80011b4:	4603      	mov	r3, r0
 80011b6:	81fb      	strh	r3, [r7, #14]
	cmd[2] = (uint8_t)(cmd_pec >> 8);
 80011b8:	89fb      	ldrh	r3, [r7, #14]
 80011ba:	0a1b      	lsrs	r3, r3, #8
 80011bc:	b29b      	uxth	r3, r3
 80011be:	b2db      	uxtb	r3, r3
 80011c0:	72bb      	strb	r3, [r7, #10]
	cmd[3] = (uint8_t)(cmd_pec);
 80011c2:	89fb      	ldrh	r3, [r7, #14]
 80011c4:	b2db      	uxtb	r3, r3
 80011c6:	72fb      	strb	r3, [r7, #11]
	wakeup_sleep(FEB_NUM_IC);
 80011c8:	2001      	movs	r0, #1
 80011ca:	f000 ffd7 	bl	800217c <wakeup_sleep>
	FEB_cs_low();
 80011ce:	f001 f809 	bl	80021e4 <FEB_cs_low>
	FEB_spi_write_array(4,cmd);
 80011d2:	f107 0308 	add.w	r3, r7, #8
 80011d6:	4619      	mov	r1, r3
 80011d8:	2004      	movs	r0, #4
 80011da:	f001 f81b 	bl	8002214 <FEB_spi_write_array>
	FEB_cs_high();
 80011de:	f001 f80d 	bl	80021fc <FEB_cs_high>
}
 80011e2:	bf00      	nop
 80011e4:	3710      	adds	r7, #16
 80011e6:	46bd      	mov	sp, r7
 80011e8:	bd80      	pop	{r7, pc}

080011ea <cmd_68_r>:
void cmd_68_r(uint8_t tx_cmd[2],uint8_t* data, uint8_t len) //The command to be transmitted
{
 80011ea:	b580      	push	{r7, lr}
 80011ec:	b086      	sub	sp, #24
 80011ee:	af00      	add	r7, sp, #0
 80011f0:	60f8      	str	r0, [r7, #12]
 80011f2:	60b9      	str	r1, [r7, #8]
 80011f4:	4613      	mov	r3, r2
 80011f6:	71fb      	strb	r3, [r7, #7]
	uint8_t cmd[4];
	uint16_t cmd_pec;

	cmd[0] = tx_cmd[0];
 80011f8:	68fb      	ldr	r3, [r7, #12]
 80011fa:	781b      	ldrb	r3, [r3, #0]
 80011fc:	743b      	strb	r3, [r7, #16]
	cmd[1] =  tx_cmd[1];
 80011fe:	68fb      	ldr	r3, [r7, #12]
 8001200:	785b      	ldrb	r3, [r3, #1]
 8001202:	747b      	strb	r3, [r7, #17]
	cmd_pec = pec15_calc(2, cmd);
 8001204:	f107 0310 	add.w	r3, r7, #16
 8001208:	4619      	mov	r1, r3
 800120a:	2002      	movs	r0, #2
 800120c:	f7ff feb4 	bl	8000f78 <pec15_calc>
 8001210:	4603      	mov	r3, r0
 8001212:	82fb      	strh	r3, [r7, #22]
	cmd[2] = (uint8_t)(cmd_pec >> 8);
 8001214:	8afb      	ldrh	r3, [r7, #22]
 8001216:	0a1b      	lsrs	r3, r3, #8
 8001218:	b29b      	uxth	r3, r3
 800121a:	b2db      	uxtb	r3, r3
 800121c:	74bb      	strb	r3, [r7, #18]
	cmd[3] = (uint8_t)(cmd_pec);
 800121e:	8afb      	ldrh	r3, [r7, #22]
 8001220:	b2db      	uxtb	r3, r3
 8001222:	74fb      	strb	r3, [r7, #19]
	wakeup_sleep(FEB_NUM_IC);
 8001224:	2001      	movs	r0, #1
 8001226:	f000 ffa9 	bl	800217c <wakeup_sleep>
	FEB_cs_low();
 800122a:	f000 ffdb 	bl	80021e4 <FEB_cs_low>
	FEB_spi_write_read(cmd, 4, data, len);
 800122e:	79fb      	ldrb	r3, [r7, #7]
 8001230:	f107 0010 	add.w	r0, r7, #16
 8001234:	68ba      	ldr	r2, [r7, #8]
 8001236:	2104      	movs	r1, #4
 8001238:	f001 f800 	bl	800223c <FEB_spi_write_read>
	FEB_cs_high();
 800123c:	f000 ffde 	bl	80021fc <FEB_cs_high>
}
 8001240:	bf00      	nop
 8001242:	3718      	adds	r7, #24
 8001244:	46bd      	mov	sp, r7
 8001246:	bd80      	pop	{r7, pc}

08001248 <write_68>:
 */
void write_68(uint8_t total_ic, //Number of ICs to be written to
			  uint8_t tx_cmd[2], //The command to be transmitted
			  uint8_t data[] // Payload Data
			  )
{
 8001248:	b580      	push	{r7, lr}
 800124a:	b08a      	sub	sp, #40	@ 0x28
 800124c:	af00      	add	r7, sp, #0
 800124e:	4603      	mov	r3, r0
 8001250:	60b9      	str	r1, [r7, #8]
 8001252:	607a      	str	r2, [r7, #4]
 8001254:	73fb      	strb	r3, [r7, #15]
	FEB_cs_low();
	FEB_spi_write_array(CMD_LEN, cmd);
	FEB_cs_high();

	free(cmd);*/
	 uint8_t BYTES_IN_REG = 6;
 8001256:	2306      	movs	r3, #6
 8001258:	f887 3024 	strb.w	r3, [r7, #36]	@ 0x24
	 uint8_t CMD_LEN = 4 + (8 * total_ic);
 800125c:	7bfb      	ldrb	r3, [r7, #15]
 800125e:	00db      	lsls	r3, r3, #3
 8001260:	b2db      	uxtb	r3, r3
 8001262:	3304      	adds	r3, #4
 8001264:	f887 3023 	strb.w	r3, [r7, #35]	@ 0x23
	 uint16_t data_pec, cmd_pec;
	 uint8_t *cmd, copyArray[6], src_address = 0;
 8001268:	2300      	movs	r3, #0
 800126a:	f887 3022 	strb.w	r3, [r7, #34]	@ 0x22
	 uint8_t cmd_index;
	 cmd = (uint8_t *)calloc(CMD_LEN, sizeof(uint8_t));
 800126e:	f897 3023 	ldrb.w	r3, [r7, #35]	@ 0x23
 8001272:	2101      	movs	r1, #1
 8001274:	4618      	mov	r0, r3
 8001276:	f004 fe1d 	bl	8005eb4 <calloc>
 800127a:	4603      	mov	r3, r0
 800127c:	61fb      	str	r3, [r7, #28]
	 cmd[0] = tx_cmd[0];
 800127e:	68bb      	ldr	r3, [r7, #8]
 8001280:	781a      	ldrb	r2, [r3, #0]
 8001282:	69fb      	ldr	r3, [r7, #28]
 8001284:	701a      	strb	r2, [r3, #0]
	 cmd[1] = tx_cmd[1];
 8001286:	69fb      	ldr	r3, [r7, #28]
 8001288:	3301      	adds	r3, #1
 800128a:	68ba      	ldr	r2, [r7, #8]
 800128c:	7852      	ldrb	r2, [r2, #1]
 800128e:	701a      	strb	r2, [r3, #0]
	 cmd_pec = pec15_calc(2, cmd);
 8001290:	69f9      	ldr	r1, [r7, #28]
 8001292:	2002      	movs	r0, #2
 8001294:	f7ff fe70 	bl	8000f78 <pec15_calc>
 8001298:	4603      	mov	r3, r0
 800129a:	837b      	strh	r3, [r7, #26]
	 cmd[2] = (uint8_t)(cmd_pec >> 8);
 800129c:	8b7b      	ldrh	r3, [r7, #26]
 800129e:	0a1b      	lsrs	r3, r3, #8
 80012a0:	b29a      	uxth	r2, r3
 80012a2:	69fb      	ldr	r3, [r7, #28]
 80012a4:	3302      	adds	r3, #2
 80012a6:	b2d2      	uxtb	r2, r2
 80012a8:	701a      	strb	r2, [r3, #0]
	 cmd[3] = (uint8_t)(cmd_pec);
 80012aa:	69fb      	ldr	r3, [r7, #28]
 80012ac:	3303      	adds	r3, #3
 80012ae:	8b7a      	ldrh	r2, [r7, #26]
 80012b0:	b2d2      	uxtb	r2, r2
 80012b2:	701a      	strb	r2, [r3, #0]
	 cmd_index = 4;
 80012b4:	2304      	movs	r3, #4
 80012b6:	f887 3027 	strb.w	r3, [r7, #39]	@ 0x27
	 /* executes for each LTC68xx, this loops starts with the last IC on the stack */
	 for (uint8_t current_ic = total_ic; current_ic > 0; current_ic--) {
 80012ba:	7bfb      	ldrb	r3, [r7, #15]
 80012bc:	f887 3026 	strb.w	r3, [r7, #38]	@ 0x26
 80012c0:	e064      	b.n	800138c <write_68+0x144>
		 src_address = ((current_ic-1) * 6);
 80012c2:	f897 3026 	ldrb.w	r3, [r7, #38]	@ 0x26
 80012c6:	461a      	mov	r2, r3
 80012c8:	0052      	lsls	r2, r2, #1
 80012ca:	4413      	add	r3, r2
 80012cc:	005b      	lsls	r3, r3, #1
 80012ce:	b2db      	uxtb	r3, r3
 80012d0:	3b06      	subs	r3, #6
 80012d2:	f887 3022 	strb.w	r3, [r7, #34]	@ 0x22
	     /* The first configuration written is received by the last IC in the daisy chain */
	     for (uint8_t current_byte = 0; current_byte < BYTES_IN_REG; current_byte++)
 80012d6:	2300      	movs	r3, #0
 80012d8:	f887 3025 	strb.w	r3, [r7, #37]	@ 0x25
 80012dc:	e01d      	b.n	800131a <write_68+0xd2>
	     {
	        cmd[cmd_index] = data[((current_ic-1)*6)+current_byte];
 80012de:	f897 3026 	ldrb.w	r3, [r7, #38]	@ 0x26
 80012e2:	1e5a      	subs	r2, r3, #1
 80012e4:	4613      	mov	r3, r2
 80012e6:	005b      	lsls	r3, r3, #1
 80012e8:	4413      	add	r3, r2
 80012ea:	005b      	lsls	r3, r3, #1
 80012ec:	461a      	mov	r2, r3
 80012ee:	f897 3025 	ldrb.w	r3, [r7, #37]	@ 0x25
 80012f2:	4413      	add	r3, r2
 80012f4:	461a      	mov	r2, r3
 80012f6:	687b      	ldr	r3, [r7, #4]
 80012f8:	441a      	add	r2, r3
 80012fa:	f897 3027 	ldrb.w	r3, [r7, #39]	@ 0x27
 80012fe:	69f9      	ldr	r1, [r7, #28]
 8001300:	440b      	add	r3, r1
 8001302:	7812      	ldrb	r2, [r2, #0]
 8001304:	701a      	strb	r2, [r3, #0]
	        cmd_index = cmd_index + 1;
 8001306:	f897 3027 	ldrb.w	r3, [r7, #39]	@ 0x27
 800130a:	3301      	adds	r3, #1
 800130c:	f887 3027 	strb.w	r3, [r7, #39]	@ 0x27
	     for (uint8_t current_byte = 0; current_byte < BYTES_IN_REG; current_byte++)
 8001310:	f897 3025 	ldrb.w	r3, [r7, #37]	@ 0x25
 8001314:	3301      	adds	r3, #1
 8001316:	f887 3025 	strb.w	r3, [r7, #37]	@ 0x25
 800131a:	f897 2025 	ldrb.w	r2, [r7, #37]	@ 0x25
 800131e:	f897 3024 	ldrb.w	r3, [r7, #36]	@ 0x24
 8001322:	429a      	cmp	r2, r3
 8001324:	d3db      	bcc.n	80012de <write_68+0x96>
	      }
	     /* Copy each ic correspond data + pec value for calculate data pec */
	     memcpy(&copyArray[0], &data[src_address], 6); /* dst, src, size */
 8001326:	f897 3022 	ldrb.w	r3, [r7, #34]	@ 0x22
 800132a:	687a      	ldr	r2, [r7, #4]
 800132c:	18d1      	adds	r1, r2, r3
 800132e:	f107 0310 	add.w	r3, r7, #16
 8001332:	2206      	movs	r2, #6
 8001334:	4618      	mov	r0, r3
 8001336:	f005 fc9e 	bl	8006c76 <memcpy>
	     /* calculating the PEC for each Ics configuration register data */
	     data_pec = (uint16_t)Pec10_calc(false, BYTES_IN_REG, &copyArray[0]);
 800133a:	f107 0210 	add.w	r2, r7, #16
 800133e:	f897 3024 	ldrb.w	r3, [r7, #36]	@ 0x24
 8001342:	4619      	mov	r1, r3
 8001344:	2000      	movs	r0, #0
 8001346:	f7ff fe4b 	bl	8000fe0 <Pec10_calc>
 800134a:	4603      	mov	r3, r0
 800134c:	833b      	strh	r3, [r7, #24]
	     cmd[cmd_index] = (uint8_t)(data_pec >> 8);
 800134e:	8b3b      	ldrh	r3, [r7, #24]
 8001350:	0a1b      	lsrs	r3, r3, #8
 8001352:	b299      	uxth	r1, r3
 8001354:	f897 3027 	ldrb.w	r3, [r7, #39]	@ 0x27
 8001358:	69fa      	ldr	r2, [r7, #28]
 800135a:	4413      	add	r3, r2
 800135c:	b2ca      	uxtb	r2, r1
 800135e:	701a      	strb	r2, [r3, #0]
	     cmd_index = cmd_index + 1;
 8001360:	f897 3027 	ldrb.w	r3, [r7, #39]	@ 0x27
 8001364:	3301      	adds	r3, #1
 8001366:	f887 3027 	strb.w	r3, [r7, #39]	@ 0x27
	     cmd[cmd_index] = (uint8_t)data_pec;
 800136a:	f897 3027 	ldrb.w	r3, [r7, #39]	@ 0x27
 800136e:	69fa      	ldr	r2, [r7, #28]
 8001370:	4413      	add	r3, r2
 8001372:	8b3a      	ldrh	r2, [r7, #24]
 8001374:	b2d2      	uxtb	r2, r2
 8001376:	701a      	strb	r2, [r3, #0]
	     cmd_index = cmd_index + 1;
 8001378:	f897 3027 	ldrb.w	r3, [r7, #39]	@ 0x27
 800137c:	3301      	adds	r3, #1
 800137e:	f887 3027 	strb.w	r3, [r7, #39]	@ 0x27
	 for (uint8_t current_ic = total_ic; current_ic > 0; current_ic--) {
 8001382:	f897 3026 	ldrb.w	r3, [r7, #38]	@ 0x26
 8001386:	3b01      	subs	r3, #1
 8001388:	f887 3026 	strb.w	r3, [r7, #38]	@ 0x26
 800138c:	f897 3026 	ldrb.w	r3, [r7, #38]	@ 0x26
 8001390:	2b00      	cmp	r3, #0
 8001392:	d196      	bne.n	80012c2 <write_68+0x7a>
	 }
	 wakeup_sleep(FEB_NUM_IC);
 8001394:	2001      	movs	r0, #1
 8001396:	f000 fef1 	bl	800217c <wakeup_sleep>
	 FEB_cs_low();
 800139a:	f000 ff23 	bl	80021e4 <FEB_cs_low>
	 FEB_spi_write_array(CMD_LEN, &cmd[0]);
 800139e:	f897 3023 	ldrb.w	r3, [r7, #35]	@ 0x23
 80013a2:	b29b      	uxth	r3, r3
 80013a4:	69f9      	ldr	r1, [r7, #28]
 80013a6:	4618      	mov	r0, r3
 80013a8:	f000 ff34 	bl	8002214 <FEB_spi_write_array>
	 FEB_cs_high();
 80013ac:	f000 ff26 	bl	80021fc <FEB_cs_high>
	 free(cmd);
 80013b0:	69f8      	ldr	r0, [r7, #28]
 80013b2:	f004 fda3 	bl	8005efc <free>
}
 80013b6:	bf00      	nop
 80013b8:	3728      	adds	r7, #40	@ 0x28
 80013ba:	46bd      	mov	sp, r7
 80013bc:	bd80      	pop	{r7, pc}

080013be <transmitCMDR>:
	uint8_t cmd[2];
	cmd[0]=(cmdcode/0x100);//selects first byte
	cmd[1]=(cmdcode%0x100);//selects second byte
	cmd_68(cmd);
}
void transmitCMDR(uint16_t cmdcode,uint8_t*data,uint8_t len){
 80013be:	b580      	push	{r7, lr}
 80013c0:	b084      	sub	sp, #16
 80013c2:	af00      	add	r7, sp, #0
 80013c4:	4603      	mov	r3, r0
 80013c6:	6039      	str	r1, [r7, #0]
 80013c8:	80fb      	strh	r3, [r7, #6]
 80013ca:	4613      	mov	r3, r2
 80013cc:	717b      	strb	r3, [r7, #5]
	uint8_t cmd[2];
	cmd[0]=(cmdcode/0x100);//selects first byte
 80013ce:	88fb      	ldrh	r3, [r7, #6]
 80013d0:	0a1b      	lsrs	r3, r3, #8
 80013d2:	b29b      	uxth	r3, r3
 80013d4:	b2db      	uxtb	r3, r3
 80013d6:	733b      	strb	r3, [r7, #12]
	cmd[1]=(cmdcode%0x100);//selects second byte
 80013d8:	88fb      	ldrh	r3, [r7, #6]
 80013da:	b2db      	uxtb	r3, r3
 80013dc:	737b      	strb	r3, [r7, #13]
	cmd_68_r(cmd,data,len);
 80013de:	797a      	ldrb	r2, [r7, #5]
 80013e0:	f107 030c 	add.w	r3, r7, #12
 80013e4:	6839      	ldr	r1, [r7, #0]
 80013e6:	4618      	mov	r0, r3
 80013e8:	f7ff feff 	bl	80011ea <cmd_68_r>
}
 80013ec:	bf00      	nop
 80013ee:	3710      	adds	r7, #16
 80013f0:	46bd      	mov	sp, r7
 80013f2:	bd80      	pop	{r7, pc}

080013f4 <transmitCMDW>:

void transmitCMDW(uint16_t cmdcode,uint8_t*data){
 80013f4:	b580      	push	{r7, lr}
 80013f6:	b084      	sub	sp, #16
 80013f8:	af00      	add	r7, sp, #0
 80013fa:	4603      	mov	r3, r0
 80013fc:	6039      	str	r1, [r7, #0]
 80013fe:	80fb      	strh	r3, [r7, #6]
	uint8_t cmd[2];
	cmd[0]=(cmdcode/0x100);//selects first byte
 8001400:	88fb      	ldrh	r3, [r7, #6]
 8001402:	0a1b      	lsrs	r3, r3, #8
 8001404:	b29b      	uxth	r3, r3
 8001406:	b2db      	uxtb	r3, r3
 8001408:	733b      	strb	r3, [r7, #12]
	cmd[1]=(cmdcode%0x100);//selects second byte
 800140a:	88fb      	ldrh	r3, [r7, #6]
 800140c:	b2db      	uxtb	r3, r3
 800140e:	737b      	strb	r3, [r7, #13]
	write_68(FEB_NUM_IC,cmd,data);
 8001410:	f107 030c 	add.w	r3, r7, #12
 8001414:	683a      	ldr	r2, [r7, #0]
 8001416:	4619      	mov	r1, r3
 8001418:	2001      	movs	r0, #1
 800141a:	f7ff ff15 	bl	8001248 <write_68>
}
 800141e:	bf00      	nop
 8001420:	3710      	adds	r7, #16
 8001422:	46bd      	mov	sp, r7
 8001424:	bd80      	pop	{r7, pc}
	...

08001428 <convert_voltage>:

static uint8_t get_sensor(uint8_t mux, uint8_t channel) {
	return mux * 8 + channel;
}

static float convert_voltage(int16_t raw_code) {
 8001428:	b580      	push	{r7, lr}
 800142a:	b082      	sub	sp, #8
 800142c:	af00      	add	r7, sp, #0
 800142e:	4603      	mov	r3, r0
 8001430:	80fb      	strh	r3, [r7, #6]
	return raw_code * 0.000150 + 1.5;
 8001432:	f9b7 3006 	ldrsh.w	r3, [r7, #6]
 8001436:	4618      	mov	r0, r3
 8001438:	f7ff f894 	bl	8000564 <__aeabi_i2d>
 800143c:	a30f      	add	r3, pc, #60	@ (adr r3, 800147c <convert_voltage+0x54>)
 800143e:	e9d3 2300 	ldrd	r2, r3, [r3]
 8001442:	f7ff f8f9 	bl	8000638 <__aeabi_dmul>
 8001446:	4602      	mov	r2, r0
 8001448:	460b      	mov	r3, r1
 800144a:	4610      	mov	r0, r2
 800144c:	4619      	mov	r1, r3
 800144e:	f04f 0200 	mov.w	r2, #0
 8001452:	4b09      	ldr	r3, [pc, #36]	@ (8001478 <convert_voltage+0x50>)
 8001454:	f7fe ff3a 	bl	80002cc <__adddf3>
 8001458:	4602      	mov	r2, r0
 800145a:	460b      	mov	r3, r1
 800145c:	4610      	mov	r0, r2
 800145e:	4619      	mov	r1, r3
 8001460:	f7ff fbc2 	bl	8000be8 <__aeabi_d2f>
 8001464:	4603      	mov	r3, r0
 8001466:	ee07 3a90 	vmov	s15, r3
}
 800146a:	eeb0 0a67 	vmov.f32	s0, s15
 800146e:	3708      	adds	r7, #8
 8001470:	46bd      	mov	sp, r7
 8001472:	bd80      	pop	{r7, pc}
 8001474:	f3af 8000 	nop.w
 8001478:	3ff80000 	.word	0x3ff80000
 800147c:	30553261 	.word	0x30553261
 8001480:	3f23a92a 	.word	0x3f23a92a

08001484 <FEB_ADBMS_Init>:
	return voltage;
}
//TODO: Convert voltage to temperature
// ******************************** Functions ********************************

void FEB_ADBMS_Init() {
 8001484:	b580      	push	{r7, lr}
 8001486:	af00      	add	r7, sp, #0
	FEB_cs_high();
 8001488:	f000 feb8 	bl	80021fc <FEB_cs_high>
	//if(FEB_PIN_RD(P_PB0))FEB_Siren_Activate();
	ADBMS6830B_init_cfg(FEB_NUM_IC, IC_Config);
 800148c:	4908      	ldr	r1, [pc, #32]	@ (80014b0 <FEB_ADBMS_Init+0x2c>)
 800148e:	2001      	movs	r0, #1
 8001490:	f000 f9be 	bl	8001810 <ADBMS6830B_init_cfg>
	ADBMS6830B_reset_crc_count(FEB_NUM_IC, IC_Config);
 8001494:	4906      	ldr	r1, [pc, #24]	@ (80014b0 <FEB_ADBMS_Init+0x2c>)
 8001496:	2001      	movs	r0, #1
 8001498:	f000 fa58 	bl	800194c <ADBMS6830B_reset_crc_count>
	ADBMS6830B_init_reg_limits(FEB_NUM_IC, IC_Config);
 800149c:	4904      	ldr	r1, [pc, #16]	@ (80014b0 <FEB_ADBMS_Init+0x2c>)
 800149e:	2001      	movs	r0, #1
 80014a0:	f000 fac1 	bl	8001a26 <ADBMS6830B_init_reg_limits>
	ADBMS6830B_wrALL(FEB_NUM_IC, IC_Config);
 80014a4:	4902      	ldr	r1, [pc, #8]	@ (80014b0 <FEB_ADBMS_Init+0x2c>)
 80014a6:	2001      	movs	r0, #1
 80014a8:	f000 fd88 	bl	8001fbc <ADBMS6830B_wrALL>
	//ADBMS6830B_rdALL(FEB_NUM_IC, IC_Config);


}
 80014ac:	bf00      	nop
 80014ae:	bd80      	pop	{r7, pc}
 80014b0:	200001f4 	.word	0x200001f4

080014b4 <FEB_ADBMS_Voltage_Process>:
#define POLL_RATE 4
int poll = POLL_RATE;

void FEB_ADBMS_Voltage_Process() {
 80014b4:	b580      	push	{r7, lr}
 80014b6:	b082      	sub	sp, #8
 80014b8:	af00      	add	r7, sp, #0
	start_adc_cell_voltage_measurements();
 80014ba:	f000 f841 	bl	8001540 <start_adc_cell_voltage_measurements>
	read_cell_voltages();
 80014be:	f000 f851 	bl	8001564 <read_cell_voltages>
	store_cell_voltages();
 80014c2:	f000 f85d 	bl	8001580 <store_cell_voltages>
	validate_voltages();
 80014c6:	f000 f8e3 	bl	8001690 <validate_voltages>
	for(int icn =0;icn<FEB_NUM_IC;icn++)
 80014ca:	2300      	movs	r3, #0
 80014cc:	607b      	str	r3, [r7, #4]
 80014ce:	e018      	b.n	8001502 <FEB_ADBMS_Voltage_Process+0x4e>
		IC_Config[icn].configa.tx_data[4]^=0x02;
 80014d0:	4a18      	ldr	r2, [pc, #96]	@ (8001534 <FEB_ADBMS_Voltage_Process+0x80>)
 80014d2:	687b      	ldr	r3, [r7, #4]
 80014d4:	f44f 7186 	mov.w	r1, #268	@ 0x10c
 80014d8:	fb01 f303 	mul.w	r3, r1, r3
 80014dc:	4413      	add	r3, r2
 80014de:	3304      	adds	r3, #4
 80014e0:	781b      	ldrb	r3, [r3, #0]
 80014e2:	f083 0302 	eor.w	r3, r3, #2
 80014e6:	b2d8      	uxtb	r0, r3
 80014e8:	4a12      	ldr	r2, [pc, #72]	@ (8001534 <FEB_ADBMS_Voltage_Process+0x80>)
 80014ea:	687b      	ldr	r3, [r7, #4]
 80014ec:	f44f 7186 	mov.w	r1, #268	@ 0x10c
 80014f0:	fb01 f303 	mul.w	r3, r1, r3
 80014f4:	4413      	add	r3, r2
 80014f6:	3304      	adds	r3, #4
 80014f8:	4602      	mov	r2, r0
 80014fa:	701a      	strb	r2, [r3, #0]
	for(int icn =0;icn<FEB_NUM_IC;icn++)
 80014fc:	687b      	ldr	r3, [r7, #4]
 80014fe:	3301      	adds	r3, #1
 8001500:	607b      	str	r3, [r7, #4]
 8001502:	687b      	ldr	r3, [r7, #4]
 8001504:	2b00      	cmp	r3, #0
 8001506:	dde3      	ble.n	80014d0 <FEB_ADBMS_Voltage_Process+0x1c>
	ADBMS6830B_wrALL(FEB_NUM_IC, IC_Config);
 8001508:	490a      	ldr	r1, [pc, #40]	@ (8001534 <FEB_ADBMS_Voltage_Process+0x80>)
 800150a:	2001      	movs	r0, #1
 800150c:	f000 fd56 	bl	8001fbc <ADBMS6830B_wrALL>
	if(poll-- == 0){
 8001510:	4b09      	ldr	r3, [pc, #36]	@ (8001538 <FEB_ADBMS_Voltage_Process+0x84>)
 8001512:	681b      	ldr	r3, [r3, #0]
 8001514:	1e5a      	subs	r2, r3, #1
 8001516:	4908      	ldr	r1, [pc, #32]	@ (8001538 <FEB_ADBMS_Voltage_Process+0x84>)
 8001518:	600a      	str	r2, [r1, #0]
 800151a:	2b00      	cmp	r3, #0
 800151c:	d105      	bne.n	800152a <FEB_ADBMS_Voltage_Process+0x76>
		FEB_ADBMS_UART_Transmit(&FEB_ACC);
 800151e:	4807      	ldr	r0, [pc, #28]	@ (800153c <FEB_ADBMS_Voltage_Process+0x88>)
 8001520:	f000 feba 	bl	8002298 <FEB_ADBMS_UART_Transmit>
		poll=POLL_RATE;
 8001524:	4b04      	ldr	r3, [pc, #16]	@ (8001538 <FEB_ADBMS_Voltage_Process+0x84>)
 8001526:	2204      	movs	r2, #4
 8001528:	601a      	str	r2, [r3, #0]
	}

}
 800152a:	bf00      	nop
 800152c:	3708      	adds	r7, #8
 800152e:	46bd      	mov	sp, r7
 8001530:	bd80      	pop	{r7, pc}
 8001532:	bf00      	nop
 8001534:	200001f4 	.word	0x200001f4
 8001538:	20000000 	.word	0x20000000
 800153c:	20000300 	.word	0x20000300

08001540 <start_adc_cell_voltage_measurements>:
	}
}

// ******************************** Voltage ********************************

void start_adc_cell_voltage_measurements() {
 8001540:	b580      	push	{r7, lr}
 8001542:	b082      	sub	sp, #8
 8001544:	af02      	add	r7, sp, #8
	ADBMS6830B_adcv(1, 0, 0, 0, OWVR);
 8001546:	2300      	movs	r3, #0
 8001548:	9300      	str	r3, [sp, #0]
 800154a:	2300      	movs	r3, #0
 800154c:	2200      	movs	r2, #0
 800154e:	2100      	movs	r1, #0
 8001550:	2001      	movs	r0, #1
 8001552:	f000 fabb 	bl	8001acc <ADBMS6830B_adcv>
	HAL_Delay(5);
 8001556:	2005      	movs	r0, #5
 8001558:	f001 fd1e 	bl	8002f98 <HAL_Delay>
	//ADBMS6830B_pollAdc();
}
 800155c:	bf00      	nop
 800155e:	46bd      	mov	sp, r7
 8001560:	bd80      	pop	{r7, pc}
	...

08001564 <read_cell_voltages>:

void read_cell_voltages() {
 8001564:	b580      	push	{r7, lr}
 8001566:	af00      	add	r7, sp, #0
	ADBMS6830B_rdcv(FEB_NUM_IC, IC_Config);
 8001568:	4904      	ldr	r1, [pc, #16]	@ (800157c <read_cell_voltages+0x18>)
 800156a:	2001      	movs	r0, #1
 800156c:	f000 fae0 	bl	8001b30 <ADBMS6830B_rdcv>
	ADBMS6830B_rdsv(FEB_NUM_IC, IC_Config);
 8001570:	4902      	ldr	r1, [pc, #8]	@ (800157c <read_cell_voltages+0x18>)
 8001572:	2001      	movs	r0, #1
 8001574:	f000 fbfe 	bl	8001d74 <ADBMS6830B_rdsv>
}
 8001578:	bf00      	nop
 800157a:	bd80      	pop	{r7, pc}
 800157c:	200001f4 	.word	0x200001f4

08001580 <store_cell_voltages>:

void store_cell_voltages() {
 8001580:	b5b0      	push	{r4, r5, r7, lr}
 8001582:	b082      	sub	sp, #8
 8001584:	af00      	add	r7, sp, #0
	FEB_ACC.total_voltage_V = 0;
 8001586:	4b40      	ldr	r3, [pc, #256]	@ (8001688 <store_cell_voltages+0x108>)
 8001588:	f04f 0200 	mov.w	r2, #0
 800158c:	601a      	str	r2, [r3, #0]
	for (uint8_t bank = 0; bank < FEB_NUM_BANKS; bank ++) {
 800158e:	2300      	movs	r3, #0
 8001590:	71fb      	strb	r3, [r7, #7]
 8001592:	e071      	b.n	8001678 <store_cell_voltages+0xf8>
		for(uint8_t ic =0; ic<FEB_NUM_ICPBANK;ic++){
 8001594:	2300      	movs	r3, #0
 8001596:	71bb      	strb	r3, [r7, #6]
 8001598:	e068      	b.n	800166c <store_cell_voltages+0xec>
			for (uint8_t cell = 0; cell < FEB_NUM_CELLS_PER_IC; cell ++) {
 800159a:	2300      	movs	r3, #0
 800159c:	717b      	strb	r3, [r7, #5]
 800159e:	e05f      	b.n	8001660 <store_cell_voltages+0xe0>
				float CVoltage = convert_voltage(IC_Config[ic+bank*FEB_NUM_ICPBANK].cells.c_codes[cell]);
 80015a0:	79ba      	ldrb	r2, [r7, #6]
 80015a2:	79fb      	ldrb	r3, [r7, #7]
 80015a4:	441a      	add	r2, r3
 80015a6:	797b      	ldrb	r3, [r7, #5]
 80015a8:	4938      	ldr	r1, [pc, #224]	@ (800168c <store_cell_voltages+0x10c>)
 80015aa:	2086      	movs	r0, #134	@ 0x86
 80015ac:	fb00 f202 	mul.w	r2, r0, r2
 80015b0:	4413      	add	r3, r2
 80015b2:	330c      	adds	r3, #12
 80015b4:	005b      	lsls	r3, r3, #1
 80015b6:	440b      	add	r3, r1
 80015b8:	88db      	ldrh	r3, [r3, #6]
 80015ba:	b21b      	sxth	r3, r3
 80015bc:	4618      	mov	r0, r3
 80015be:	f7ff ff33 	bl	8001428 <convert_voltage>
 80015c2:	ed87 0a00 	vstr	s0, [r7]
				FEB_ACC.banks[bank].cells[cell+ic*FEB_NUM_CELLS_PER_IC].voltage_V = CVoltage;
 80015c6:	79f9      	ldrb	r1, [r7, #7]
 80015c8:	7978      	ldrb	r0, [r7, #5]
 80015ca:	79ba      	ldrb	r2, [r7, #6]
 80015cc:	4613      	mov	r3, r2
 80015ce:	009b      	lsls	r3, r3, #2
 80015d0:	4413      	add	r3, r2
 80015d2:	005b      	lsls	r3, r3, #1
 80015d4:	4403      	add	r3, r0
 80015d6:	482c      	ldr	r0, [pc, #176]	@ (8001688 <store_cell_voltages+0x108>)
 80015d8:	461a      	mov	r2, r3
 80015da:	0052      	lsls	r2, r2, #1
 80015dc:	441a      	add	r2, r3
 80015de:	0093      	lsls	r3, r2, #2
 80015e0:	461a      	mov	r2, r3
 80015e2:	460b      	mov	r3, r1
 80015e4:	019b      	lsls	r3, r3, #6
 80015e6:	1a5b      	subs	r3, r3, r1
 80015e8:	009b      	lsls	r3, r3, #2
 80015ea:	4413      	add	r3, r2
 80015ec:	4403      	add	r3, r0
 80015ee:	3388      	adds	r3, #136	@ 0x88
 80015f0:	683a      	ldr	r2, [r7, #0]
 80015f2:	601a      	str	r2, [r3, #0]
				FEB_ACC.banks[bank].cells[cell+ic*FEB_NUM_CELLS_PER_IC].voltage_S = convert_voltage(IC_Config[ic+bank*FEB_NUM_ICPBANK].cells.s_codes[cell]);
 80015f4:	79ba      	ldrb	r2, [r7, #6]
 80015f6:	79fb      	ldrb	r3, [r7, #7]
 80015f8:	441a      	add	r2, r3
 80015fa:	797b      	ldrb	r3, [r7, #5]
 80015fc:	4923      	ldr	r1, [pc, #140]	@ (800168c <store_cell_voltages+0x10c>)
 80015fe:	2086      	movs	r0, #134	@ 0x86
 8001600:	fb00 f202 	mul.w	r2, r0, r2
 8001604:	4413      	add	r3, r2
 8001606:	331c      	adds	r3, #28
 8001608:	005b      	lsls	r3, r3, #1
 800160a:	440b      	add	r3, r1
 800160c:	895b      	ldrh	r3, [r3, #10]
 800160e:	b218      	sxth	r0, r3
 8001610:	79fc      	ldrb	r4, [r7, #7]
 8001612:	7979      	ldrb	r1, [r7, #5]
 8001614:	79ba      	ldrb	r2, [r7, #6]
 8001616:	4613      	mov	r3, r2
 8001618:	009b      	lsls	r3, r3, #2
 800161a:	4413      	add	r3, r2
 800161c:	005b      	lsls	r3, r3, #1
 800161e:	18cd      	adds	r5, r1, r3
 8001620:	f7ff ff02 	bl	8001428 <convert_voltage>
 8001624:	eef0 7a40 	vmov.f32	s15, s0
 8001628:	4917      	ldr	r1, [pc, #92]	@ (8001688 <store_cell_voltages+0x108>)
 800162a:	462a      	mov	r2, r5
 800162c:	0052      	lsls	r2, r2, #1
 800162e:	442a      	add	r2, r5
 8001630:	0093      	lsls	r3, r2, #2
 8001632:	461a      	mov	r2, r3
 8001634:	4623      	mov	r3, r4
 8001636:	019b      	lsls	r3, r3, #6
 8001638:	1b1b      	subs	r3, r3, r4
 800163a:	009b      	lsls	r3, r3, #2
 800163c:	4413      	add	r3, r2
 800163e:	440b      	add	r3, r1
 8001640:	338c      	adds	r3, #140	@ 0x8c
 8001642:	edc3 7a00 	vstr	s15, [r3]
				FEB_ACC.total_voltage_V+=CVoltage;
 8001646:	4b10      	ldr	r3, [pc, #64]	@ (8001688 <store_cell_voltages+0x108>)
 8001648:	ed93 7a00 	vldr	s14, [r3]
 800164c:	edd7 7a00 	vldr	s15, [r7]
 8001650:	ee77 7a27 	vadd.f32	s15, s14, s15
 8001654:	4b0c      	ldr	r3, [pc, #48]	@ (8001688 <store_cell_voltages+0x108>)
 8001656:	edc3 7a00 	vstr	s15, [r3]
			for (uint8_t cell = 0; cell < FEB_NUM_CELLS_PER_IC; cell ++) {
 800165a:	797b      	ldrb	r3, [r7, #5]
 800165c:	3301      	adds	r3, #1
 800165e:	717b      	strb	r3, [r7, #5]
 8001660:	797b      	ldrb	r3, [r7, #5]
 8001662:	2b09      	cmp	r3, #9
 8001664:	d99c      	bls.n	80015a0 <store_cell_voltages+0x20>
		for(uint8_t ic =0; ic<FEB_NUM_ICPBANK;ic++){
 8001666:	79bb      	ldrb	r3, [r7, #6]
 8001668:	3301      	adds	r3, #1
 800166a:	71bb      	strb	r3, [r7, #6]
 800166c:	79bb      	ldrb	r3, [r7, #6]
 800166e:	2b00      	cmp	r3, #0
 8001670:	d093      	beq.n	800159a <store_cell_voltages+0x1a>
	for (uint8_t bank = 0; bank < FEB_NUM_BANKS; bank ++) {
 8001672:	79fb      	ldrb	r3, [r7, #7]
 8001674:	3301      	adds	r3, #1
 8001676:	71fb      	strb	r3, [r7, #7]
 8001678:	79fb      	ldrb	r3, [r7, #7]
 800167a:	2b00      	cmp	r3, #0
 800167c:	d08a      	beq.n	8001594 <store_cell_voltages+0x14>
			}
		}

	}
}
 800167e:	bf00      	nop
 8001680:	bf00      	nop
 8001682:	3708      	adds	r7, #8
 8001684:	46bd      	mov	sp, r7
 8001686:	bdb0      	pop	{r4, r5, r7, pc}
 8001688:	20000300 	.word	0x20000300
 800168c:	200001f4 	.word	0x200001f4

08001690 <validate_voltages>:

void validate_voltages() {
 8001690:	b580      	push	{r7, lr}
 8001692:	b084      	sub	sp, #16
 8001694:	af00      	add	r7, sp, #0
	uint16_t vMax = FEB_Config_Get_Cell_Max_Voltage_mV();
 8001696:	f000 fd95 	bl	80021c4 <FEB_Config_Get_Cell_Max_Voltage_mV>
 800169a:	4603      	mov	r3, r0
 800169c:	81bb      	strh	r3, [r7, #12]
	uint16_t vMin = FEB_Config_Get_Cell_Min_Voltage_mV();
 800169e:	f000 fd81 	bl	80021a4 <FEB_Config_Get_Cell_Min_Voltage_mV>
 80016a2:	4603      	mov	r3, r0
 80016a4:	817b      	strh	r3, [r7, #10]
	for (uint8_t bank = 0; bank < FEB_NUM_BANKS; bank ++) {
 80016a6:	2300      	movs	r3, #0
 80016a8:	73fb      	strb	r3, [r7, #15]
 80016aa:	e027      	b.n	80016fc <validate_voltages+0x6c>
		for (uint8_t cell = 0; cell < FEB_NUM_CELLS_PER_IC; cell ++) {
 80016ac:	2300      	movs	r3, #0
 80016ae:	73bb      	strb	r3, [r7, #14]
 80016b0:	e01e      	b.n	80016f0 <validate_voltages+0x60>
			float voltage = FEB_ACC.banks[bank].cells[cell].voltage_V;
 80016b2:	7bf9      	ldrb	r1, [r7, #15]
 80016b4:	7bbb      	ldrb	r3, [r7, #14]
 80016b6:	4815      	ldr	r0, [pc, #84]	@ (800170c <validate_voltages+0x7c>)
 80016b8:	461a      	mov	r2, r3
 80016ba:	0052      	lsls	r2, r2, #1
 80016bc:	441a      	add	r2, r3
 80016be:	0093      	lsls	r3, r2, #2
 80016c0:	461a      	mov	r2, r3
 80016c2:	460b      	mov	r3, r1
 80016c4:	019b      	lsls	r3, r3, #6
 80016c6:	1a5b      	subs	r3, r3, r1
 80016c8:	009b      	lsls	r3, r3, #2
 80016ca:	4413      	add	r3, r2
 80016cc:	4403      	add	r3, r0
 80016ce:	3388      	adds	r3, #136	@ 0x88
 80016d0:	681b      	ldr	r3, [r3, #0]
 80016d2:	607b      	str	r3, [r7, #4]
			if (voltage > vMax || voltage < vMin) {
 80016d4:	89bb      	ldrh	r3, [r7, #12]
 80016d6:	ee07 3a90 	vmov	s15, r3
 80016da:	eef8 7ae7 	vcvt.f32.s32	s15, s15
 80016de:	ed97 7a01 	vldr	s14, [r7, #4]
 80016e2:	eeb4 7ae7 	vcmpe.f32	s14, s15
 80016e6:	eef1 fa10 	vmrs	APSR_nzcv, fpscr
		for (uint8_t cell = 0; cell < FEB_NUM_CELLS_PER_IC; cell ++) {
 80016ea:	7bbb      	ldrb	r3, [r7, #14]
 80016ec:	3301      	adds	r3, #1
 80016ee:	73bb      	strb	r3, [r7, #14]
 80016f0:	7bbb      	ldrb	r3, [r7, #14]
 80016f2:	2b09      	cmp	r3, #9
 80016f4:	d9dd      	bls.n	80016b2 <validate_voltages+0x22>
	for (uint8_t bank = 0; bank < FEB_NUM_BANKS; bank ++) {
 80016f6:	7bfb      	ldrb	r3, [r7, #15]
 80016f8:	3301      	adds	r3, #1
 80016fa:	73fb      	strb	r3, [r7, #15]
 80016fc:	7bfb      	ldrb	r3, [r7, #15]
 80016fe:	2b00      	cmp	r3, #0
 8001700:	d0d4      	beq.n	80016ac <validate_voltages+0x1c>
				//FEB_SM_Transition(FEB_SM_ST_FAULT_BMS);
			}
		}
	}
}
 8001702:	bf00      	nop
 8001704:	bf00      	nop
 8001706:	3710      	adds	r7, #16
 8001708:	46bd      	mov	sp, r7
 800170a:	bd80      	pop	{r7, pc}
 800170c:	20000300 	.word	0x20000300

08001710 <SetOverVoltageThreshold>:
#include "FEB_ADBMS6830B_Driver.h"
#include "FEB_HW.h"
uint16_t SetOverVoltageThreshold(float voltage)
{
 8001710:	b580      	push	{r7, lr}
 8001712:	b084      	sub	sp, #16
 8001714:	af00      	add	r7, sp, #0
 8001716:	ed87 0a01 	vstr	s0, [r7, #4]
  uint16_t vov_value;
  uint8_t rbits = 12;
 800171a:	230c      	movs	r3, #12
 800171c:	73fb      	strb	r3, [r7, #15]
  voltage = (voltage - 1.5);
 800171e:	edd7 7a01 	vldr	s15, [r7, #4]
 8001722:	eeb7 7a08 	vmov.f32	s14, #120	@ 0x3fc00000  1.5
 8001726:	ee77 7ac7 	vsub.f32	s15, s15, s14
 800172a:	edc7 7a01 	vstr	s15, [r7, #4]
  voltage = voltage / (16 * 0.000150);
 800172e:	6878      	ldr	r0, [r7, #4]
 8001730:	f7fe ff2a 	bl	8000588 <__aeabi_f2d>
 8001734:	a314      	add	r3, pc, #80	@ (adr r3, 8001788 <SetOverVoltageThreshold+0x78>)
 8001736:	e9d3 2300 	ldrd	r2, r3, [r3]
 800173a:	f7ff f8a7 	bl	800088c <__aeabi_ddiv>
 800173e:	4602      	mov	r2, r0
 8001740:	460b      	mov	r3, r1
 8001742:	4610      	mov	r0, r2
 8001744:	4619      	mov	r1, r3
 8001746:	f7ff fa4f 	bl	8000be8 <__aeabi_d2f>
 800174a:	4603      	mov	r3, r0
 800174c:	607b      	str	r3, [r7, #4]
  vov_value = (uint16_t )(voltage + 2 * (1 << (rbits - 1)));
 800174e:	7bfb      	ldrb	r3, [r7, #15]
 8001750:	3b01      	subs	r3, #1
 8001752:	2202      	movs	r2, #2
 8001754:	fa02 f303 	lsl.w	r3, r2, r3
 8001758:	ee07 3a90 	vmov	s15, r3
 800175c:	eeb8 7ae7 	vcvt.f32.s32	s14, s15
 8001760:	edd7 7a01 	vldr	s15, [r7, #4]
 8001764:	ee77 7a27 	vadd.f32	s15, s14, s15
 8001768:	eefc 7ae7 	vcvt.u32.f32	s15, s15
 800176c:	ee17 3a90 	vmov	r3, s15
 8001770:	81bb      	strh	r3, [r7, #12]
  vov_value &= 0xFFF;
 8001772:	89bb      	ldrh	r3, [r7, #12]
 8001774:	f3c3 030b 	ubfx	r3, r3, #0, #12
 8001778:	81bb      	strh	r3, [r7, #12]
  return vov_value;
 800177a:	89bb      	ldrh	r3, [r7, #12]
}
 800177c:	4618      	mov	r0, r3
 800177e:	3710      	adds	r7, #16
 8001780:	46bd      	mov	sp, r7
 8001782:	bd80      	pop	{r7, pc}
 8001784:	f3af 8000 	nop.w
 8001788:	30553261 	.word	0x30553261
 800178c:	3f63a92a 	.word	0x3f63a92a

08001790 <SetUnderVoltageThreshold>:
uint16_t SetUnderVoltageThreshold(float voltage)
{
 8001790:	b580      	push	{r7, lr}
 8001792:	b084      	sub	sp, #16
 8001794:	af00      	add	r7, sp, #0
 8001796:	ed87 0a01 	vstr	s0, [r7, #4]
  uint16_t vuv_value;
  uint8_t rbits = 12;
 800179a:	230c      	movs	r3, #12
 800179c:	73fb      	strb	r3, [r7, #15]
  voltage = (voltage - 1.5);
 800179e:	edd7 7a01 	vldr	s15, [r7, #4]
 80017a2:	eeb7 7a08 	vmov.f32	s14, #120	@ 0x3fc00000  1.5
 80017a6:	ee77 7ac7 	vsub.f32	s15, s15, s14
 80017aa:	edc7 7a01 	vstr	s15, [r7, #4]
  voltage = voltage / (16 * 0.000150);
 80017ae:	6878      	ldr	r0, [r7, #4]
 80017b0:	f7fe feea 	bl	8000588 <__aeabi_f2d>
 80017b4:	a314      	add	r3, pc, #80	@ (adr r3, 8001808 <SetUnderVoltageThreshold+0x78>)
 80017b6:	e9d3 2300 	ldrd	r2, r3, [r3]
 80017ba:	f7ff f867 	bl	800088c <__aeabi_ddiv>
 80017be:	4602      	mov	r2, r0
 80017c0:	460b      	mov	r3, r1
 80017c2:	4610      	mov	r0, r2
 80017c4:	4619      	mov	r1, r3
 80017c6:	f7ff fa0f 	bl	8000be8 <__aeabi_d2f>
 80017ca:	4603      	mov	r3, r0
 80017cc:	607b      	str	r3, [r7, #4]
  vuv_value = (uint16_t )(voltage + 2 * (1 << (rbits - 1)));
 80017ce:	7bfb      	ldrb	r3, [r7, #15]
 80017d0:	3b01      	subs	r3, #1
 80017d2:	2202      	movs	r2, #2
 80017d4:	fa02 f303 	lsl.w	r3, r2, r3
 80017d8:	ee07 3a90 	vmov	s15, r3
 80017dc:	eeb8 7ae7 	vcvt.f32.s32	s14, s15
 80017e0:	edd7 7a01 	vldr	s15, [r7, #4]
 80017e4:	ee77 7a27 	vadd.f32	s15, s14, s15
 80017e8:	eefc 7ae7 	vcvt.u32.f32	s15, s15
 80017ec:	ee17 3a90 	vmov	r3, s15
 80017f0:	81bb      	strh	r3, [r7, #12]
  vuv_value &= 0xFFF;
 80017f2:	89bb      	ldrh	r3, [r7, #12]
 80017f4:	f3c3 030b 	ubfx	r3, r3, #0, #12
 80017f8:	81bb      	strh	r3, [r7, #12]
  return vuv_value;
 80017fa:	89bb      	ldrh	r3, [r7, #12]
}
 80017fc:	4618      	mov	r0, r3
 80017fe:	3710      	adds	r7, #16
 8001800:	46bd      	mov	sp, r7
 8001802:	bd80      	pop	{r7, pc}
 8001804:	f3af 8000 	nop.w
 8001808:	30553261 	.word	0x30553261
 800180c:	3f63a92a 	.word	0x3f63a92a

08001810 <ADBMS6830B_init_cfg>:
/* Helper function to initialize CFG variables */
void ADBMS6830B_init_cfg(uint8_t total_ic, //Number of ICs in the system
					  cell_asic *ic //A two dimensional array that stores the data
					  )
{
 8001810:	b580      	push	{r7, lr}
 8001812:	b084      	sub	sp, #16
 8001814:	af00      	add	r7, sp, #0
 8001816:	4603      	mov	r3, r0
 8001818:	6039      	str	r1, [r7, #0]
 800181a:	71fb      	strb	r3, [r7, #7]
	  for(uint8_t cic = 0; cic < total_ic; cic++)
 800181c:	2300      	movs	r3, #0
 800181e:	73fb      	strb	r3, [r7, #15]
 8001820:	e087      	b.n	8001932 <ADBMS6830B_init_cfg+0x122>
	  {
	    /* Init config A */
	    ic[cic].configa.tx_data[0] = 0x83; //REFON | | CTH[3]
 8001822:	7bfb      	ldrb	r3, [r7, #15]
 8001824:	f44f 7286 	mov.w	r2, #268	@ 0x10c
 8001828:	fb02 f303 	mul.w	r3, r2, r3
 800182c:	683a      	ldr	r2, [r7, #0]
 800182e:	4413      	add	r3, r2
 8001830:	2283      	movs	r2, #131	@ 0x83
 8001832:	701a      	strb	r2, [r3, #0]
	    ic[cic].configa.tx_data[1] = 0x01; //FLAGS
 8001834:	7bfb      	ldrb	r3, [r7, #15]
 8001836:	f44f 7286 	mov.w	r2, #268	@ 0x10c
 800183a:	fb02 f303 	mul.w	r3, r2, r3
 800183e:	683a      	ldr	r2, [r7, #0]
 8001840:	4413      	add	r3, r2
 8001842:	2201      	movs	r2, #1
 8001844:	705a      	strb	r2, [r3, #1]
	    ic[cic].configa.tx_data[2] = 0x00;
 8001846:	7bfb      	ldrb	r3, [r7, #15]
 8001848:	f44f 7286 	mov.w	r2, #268	@ 0x10c
 800184c:	fb02 f303 	mul.w	r3, r2, r3
 8001850:	683a      	ldr	r2, [r7, #0]
 8001852:	4413      	add	r3, r2
 8001854:	2200      	movs	r2, #0
 8001856:	709a      	strb	r2, [r3, #2]
	    ic[cic].configa.tx_data[3] = 0x00; //GPIO
 8001858:	7bfb      	ldrb	r3, [r7, #15]
 800185a:	f44f 7286 	mov.w	r2, #268	@ 0x10c
 800185e:	fb02 f303 	mul.w	r3, r2, r3
 8001862:	683a      	ldr	r2, [r7, #0]
 8001864:	4413      	add	r3, r2
 8001866:	2200      	movs	r2, #0
 8001868:	70da      	strb	r2, [r3, #3]
	    ic[cic].configa.tx_data[4] = 0x00;
 800186a:	7bfb      	ldrb	r3, [r7, #15]
 800186c:	f44f 7286 	mov.w	r2, #268	@ 0x10c
 8001870:	fb02 f303 	mul.w	r3, r2, r3
 8001874:	683a      	ldr	r2, [r7, #0]
 8001876:	4413      	add	r3, r2
 8001878:	2200      	movs	r2, #0
 800187a:	711a      	strb	r2, [r3, #4]
	    ic[cic].configa.tx_data[5] = 0x00;
 800187c:	7bfb      	ldrb	r3, [r7, #15]
 800187e:	f44f 7286 	mov.w	r2, #268	@ 0x10c
 8001882:	fb02 f303 	mul.w	r3, r2, r3
 8001886:	683a      	ldr	r2, [r7, #0]
 8001888:	4413      	add	r3, r2
 800188a:	2200      	movs	r2, #0
 800188c:	715a      	strb	r2, [r3, #5]
	    uint16_t VOVCode = SetOverVoltageThreshold(3.2);
 800188e:	ed9f 0a2e 	vldr	s0, [pc, #184]	@ 8001948 <ADBMS6830B_init_cfg+0x138>
 8001892:	f7ff ff3d 	bl	8001710 <SetOverVoltageThreshold>
 8001896:	4603      	mov	r3, r0
 8001898:	81bb      	strh	r3, [r7, #12]
	    uint16_t VUVCode = SetUnderVoltageThreshold(2.0);
 800189a:	eeb0 0a00 	vmov.f32	s0, #0	@ 0x40000000  2.0
 800189e:	f7ff ff77 	bl	8001790 <SetUnderVoltageThreshold>
 80018a2:	4603      	mov	r3, r0
 80018a4:	817b      	strh	r3, [r7, #10]
	    ic[cic].configb.tx_data[0] = VUVCode;
 80018a6:	7bfb      	ldrb	r3, [r7, #15]
 80018a8:	f44f 7286 	mov.w	r2, #268	@ 0x10c
 80018ac:	fb02 f303 	mul.w	r3, r2, r3
 80018b0:	683a      	ldr	r2, [r7, #0]
 80018b2:	4413      	add	r3, r2
 80018b4:	897a      	ldrh	r2, [r7, #10]
 80018b6:	b2d2      	uxtb	r2, r2
 80018b8:	73da      	strb	r2, [r3, #15]
	    ic[cic].configb.tx_data[1] = (((VOVCode & 0x000F) << 4) | ((VUVCode ) >> 8));
 80018ba:	89bb      	ldrh	r3, [r7, #12]
 80018bc:	011b      	lsls	r3, r3, #4
 80018be:	b25a      	sxtb	r2, r3
 80018c0:	897b      	ldrh	r3, [r7, #10]
 80018c2:	0a1b      	lsrs	r3, r3, #8
 80018c4:	b29b      	uxth	r3, r3
 80018c6:	b25b      	sxtb	r3, r3
 80018c8:	4313      	orrs	r3, r2
 80018ca:	b259      	sxtb	r1, r3
 80018cc:	7bfb      	ldrb	r3, [r7, #15]
 80018ce:	f44f 7286 	mov.w	r2, #268	@ 0x10c
 80018d2:	fb02 f303 	mul.w	r3, r2, r3
 80018d6:	683a      	ldr	r2, [r7, #0]
 80018d8:	4413      	add	r3, r2
 80018da:	b2ca      	uxtb	r2, r1
 80018dc:	741a      	strb	r2, [r3, #16]
	    ic[cic].configb.tx_data[2] = ((VOVCode>>4)&0x0FF);
 80018de:	89bb      	ldrh	r3, [r7, #12]
 80018e0:	091b      	lsrs	r3, r3, #4
 80018e2:	b299      	uxth	r1, r3
 80018e4:	7bfb      	ldrb	r3, [r7, #15]
 80018e6:	f44f 7286 	mov.w	r2, #268	@ 0x10c
 80018ea:	fb02 f303 	mul.w	r3, r2, r3
 80018ee:	683a      	ldr	r2, [r7, #0]
 80018f0:	4413      	add	r3, r2
 80018f2:	b2ca      	uxtb	r2, r1
 80018f4:	745a      	strb	r2, [r3, #17]
	    ic[cic].configb.tx_data[3] = 0xFF;
 80018f6:	7bfb      	ldrb	r3, [r7, #15]
 80018f8:	f44f 7286 	mov.w	r2, #268	@ 0x10c
 80018fc:	fb02 f303 	mul.w	r3, r2, r3
 8001900:	683a      	ldr	r2, [r7, #0]
 8001902:	4413      	add	r3, r2
 8001904:	22ff      	movs	r2, #255	@ 0xff
 8001906:	749a      	strb	r2, [r3, #18]
	    ic[cic].configb.tx_data[4] = 0x00;
 8001908:	7bfb      	ldrb	r3, [r7, #15]
 800190a:	f44f 7286 	mov.w	r2, #268	@ 0x10c
 800190e:	fb02 f303 	mul.w	r3, r2, r3
 8001912:	683a      	ldr	r2, [r7, #0]
 8001914:	4413      	add	r3, r2
 8001916:	2200      	movs	r2, #0
 8001918:	74da      	strb	r2, [r3, #19]
	    ic[cic].configb.tx_data[4] = 0x00;
 800191a:	7bfb      	ldrb	r3, [r7, #15]
 800191c:	f44f 7286 	mov.w	r2, #268	@ 0x10c
 8001920:	fb02 f303 	mul.w	r3, r2, r3
 8001924:	683a      	ldr	r2, [r7, #0]
 8001926:	4413      	add	r3, r2
 8001928:	2200      	movs	r2, #0
 800192a:	74da      	strb	r2, [r3, #19]
	  for(uint8_t cic = 0; cic < total_ic; cic++)
 800192c:	7bfb      	ldrb	r3, [r7, #15]
 800192e:	3301      	adds	r3, #1
 8001930:	73fb      	strb	r3, [r7, #15]
 8001932:	7bfa      	ldrb	r2, [r7, #15]
 8001934:	79fb      	ldrb	r3, [r7, #7]
 8001936:	429a      	cmp	r2, r3
 8001938:	f4ff af73 	bcc.w	8001822 <ADBMS6830B_init_cfg+0x12>
	  }
}
 800193c:	bf00      	nop
 800193e:	bf00      	nop
 8001940:	3710      	adds	r7, #16
 8001942:	46bd      	mov	sp, r7
 8001944:	bd80      	pop	{r7, pc}
 8001946:	bf00      	nop
 8001948:	404ccccd 	.word	0x404ccccd

0800194c <ADBMS6830B_reset_crc_count>:

/* Helper Function to reset PEC counters */
void ADBMS6830B_reset_crc_count(uint8_t total_ic, //Number of ICs in the system
							 cell_asic *ic //A two dimensional array that stores the data
							 )
{
 800194c:	b480      	push	{r7}
 800194e:	b087      	sub	sp, #28
 8001950:	af00      	add	r7, sp, #0
 8001952:	4603      	mov	r3, r0
 8001954:	6039      	str	r1, [r7, #0]
 8001956:	71fb      	strb	r3, [r7, #7]
	for (int current_ic = 0 ; current_ic < total_ic; current_ic++)
 8001958:	2300      	movs	r3, #0
 800195a:	617b      	str	r3, [r7, #20]
 800195c:	e058      	b.n	8001a10 <ADBMS6830B_reset_crc_count+0xc4>
	{
		ic[current_ic].crc_count.pec_count = 0;
 800195e:	697b      	ldr	r3, [r7, #20]
 8001960:	f44f 7286 	mov.w	r2, #268	@ 0x10c
 8001964:	fb02 f303 	mul.w	r3, r2, r3
 8001968:	683a      	ldr	r2, [r7, #0]
 800196a:	4413      	add	r3, r2
 800196c:	2200      	movs	r2, #0
 800196e:	f8a3 20e6 	strh.w	r2, [r3, #230]	@ 0xe6
		ic[current_ic].crc_count.cfgr_pec = 0;
 8001972:	697b      	ldr	r3, [r7, #20]
 8001974:	f44f 7286 	mov.w	r2, #268	@ 0x10c
 8001978:	fb02 f303 	mul.w	r3, r2, r3
 800197c:	683a      	ldr	r2, [r7, #0]
 800197e:	4413      	add	r3, r2
 8001980:	2200      	movs	r2, #0
 8001982:	f8a3 20e8 	strh.w	r2, [r3, #232]	@ 0xe8
		for (int i=0; i<6; i++)
 8001986:	2300      	movs	r3, #0
 8001988:	613b      	str	r3, [r7, #16]
 800198a:	e00f      	b.n	80019ac <ADBMS6830B_reset_crc_count+0x60>
		{
			ic[current_ic].crc_count.cell_pec[i]=0;
 800198c:	697b      	ldr	r3, [r7, #20]
 800198e:	f44f 7286 	mov.w	r2, #268	@ 0x10c
 8001992:	fb02 f303 	mul.w	r3, r2, r3
 8001996:	683a      	ldr	r2, [r7, #0]
 8001998:	441a      	add	r2, r3
 800199a:	693b      	ldr	r3, [r7, #16]
 800199c:	3370      	adds	r3, #112	@ 0x70
 800199e:	005b      	lsls	r3, r3, #1
 80019a0:	4413      	add	r3, r2
 80019a2:	2200      	movs	r2, #0
 80019a4:	815a      	strh	r2, [r3, #10]
		for (int i=0; i<6; i++)
 80019a6:	693b      	ldr	r3, [r7, #16]
 80019a8:	3301      	adds	r3, #1
 80019aa:	613b      	str	r3, [r7, #16]
 80019ac:	693b      	ldr	r3, [r7, #16]
 80019ae:	2b05      	cmp	r3, #5
 80019b0:	ddec      	ble.n	800198c <ADBMS6830B_reset_crc_count+0x40>

		}
		for (int i=0; i<4; i++)
 80019b2:	2300      	movs	r3, #0
 80019b4:	60fb      	str	r3, [r7, #12]
 80019b6:	e00f      	b.n	80019d8 <ADBMS6830B_reset_crc_count+0x8c>
		{
			ic[current_ic].crc_count.aux_pec[i]=0;
 80019b8:	697b      	ldr	r3, [r7, #20]
 80019ba:	f44f 7286 	mov.w	r2, #268	@ 0x10c
 80019be:	fb02 f303 	mul.w	r3, r2, r3
 80019c2:	683a      	ldr	r2, [r7, #0]
 80019c4:	441a      	add	r2, r3
 80019c6:	68fb      	ldr	r3, [r7, #12]
 80019c8:	3378      	adds	r3, #120	@ 0x78
 80019ca:	005b      	lsls	r3, r3, #1
 80019cc:	4413      	add	r3, r2
 80019ce:	2200      	movs	r2, #0
 80019d0:	80da      	strh	r2, [r3, #6]
		for (int i=0; i<4; i++)
 80019d2:	68fb      	ldr	r3, [r7, #12]
 80019d4:	3301      	adds	r3, #1
 80019d6:	60fb      	str	r3, [r7, #12]
 80019d8:	68fb      	ldr	r3, [r7, #12]
 80019da:	2b03      	cmp	r3, #3
 80019dc:	ddec      	ble.n	80019b8 <ADBMS6830B_reset_crc_count+0x6c>
		}
		for (int i=0; i<2; i++)
 80019de:	2300      	movs	r3, #0
 80019e0:	60bb      	str	r3, [r7, #8]
 80019e2:	e00f      	b.n	8001a04 <ADBMS6830B_reset_crc_count+0xb8>
		{
			ic[current_ic].crc_count.stat_pec[i]=0;
 80019e4:	697b      	ldr	r3, [r7, #20]
 80019e6:	f44f 7286 	mov.w	r2, #268	@ 0x10c
 80019ea:	fb02 f303 	mul.w	r3, r2, r3
 80019ee:	683a      	ldr	r2, [r7, #0]
 80019f0:	441a      	add	r2, r3
 80019f2:	68bb      	ldr	r3, [r7, #8]
 80019f4:	337c      	adds	r3, #124	@ 0x7c
 80019f6:	005b      	lsls	r3, r3, #1
 80019f8:	4413      	add	r3, r2
 80019fa:	2200      	movs	r2, #0
 80019fc:	80da      	strh	r2, [r3, #6]
		for (int i=0; i<2; i++)
 80019fe:	68bb      	ldr	r3, [r7, #8]
 8001a00:	3301      	adds	r3, #1
 8001a02:	60bb      	str	r3, [r7, #8]
 8001a04:	68bb      	ldr	r3, [r7, #8]
 8001a06:	2b01      	cmp	r3, #1
 8001a08:	ddec      	ble.n	80019e4 <ADBMS6830B_reset_crc_count+0x98>
	for (int current_ic = 0 ; current_ic < total_ic; current_ic++)
 8001a0a:	697b      	ldr	r3, [r7, #20]
 8001a0c:	3301      	adds	r3, #1
 8001a0e:	617b      	str	r3, [r7, #20]
 8001a10:	79fb      	ldrb	r3, [r7, #7]
 8001a12:	697a      	ldr	r2, [r7, #20]
 8001a14:	429a      	cmp	r2, r3
 8001a16:	dba2      	blt.n	800195e <ADBMS6830B_reset_crc_count+0x12>
		}
	}
}
 8001a18:	bf00      	nop
 8001a1a:	bf00      	nop
 8001a1c:	371c      	adds	r7, #28
 8001a1e:	46bd      	mov	sp, r7
 8001a20:	f85d 7b04 	ldr.w	r7, [sp], #4
 8001a24:	4770      	bx	lr

08001a26 <ADBMS6830B_init_reg_limits>:

/* Initialize the Register limits */
void ADBMS6830B_init_reg_limits(uint8_t total_ic, //The number of ICs in the system
							cell_asic *ic  //A two dimensional array where data will be written
							)
{
 8001a26:	b480      	push	{r7}
 8001a28:	b085      	sub	sp, #20
 8001a2a:	af00      	add	r7, sp, #0
 8001a2c:	4603      	mov	r3, r0
 8001a2e:	6039      	str	r1, [r7, #0]
 8001a30:	71fb      	strb	r3, [r7, #7]
  for (uint8_t cic = 0; cic < total_ic; cic++) {
 8001a32:	2300      	movs	r3, #0
 8001a34:	73fb      	strb	r3, [r7, #15]
 8001a36:	e03e      	b.n	8001ab6 <ADBMS6830B_init_reg_limits+0x90>
    ic[cic].ic_reg.cell_channels = 20;
 8001a38:	7bfb      	ldrb	r3, [r7, #15]
 8001a3a:	f44f 7286 	mov.w	r2, #268	@ 0x10c
 8001a3e:	fb02 f303 	mul.w	r3, r2, r3
 8001a42:	683a      	ldr	r2, [r7, #0]
 8001a44:	4413      	add	r3, r2
 8001a46:	2214      	movs	r2, #20
 8001a48:	f883 2102 	strb.w	r2, [r3, #258]	@ 0x102
    ic[cic].ic_reg.stat_channels = 4; //Doesn't matter?
 8001a4c:	7bfb      	ldrb	r3, [r7, #15]
 8001a4e:	f44f 7286 	mov.w	r2, #268	@ 0x10c
 8001a52:	fb02 f303 	mul.w	r3, r2, r3
 8001a56:	683a      	ldr	r2, [r7, #0]
 8001a58:	4413      	add	r3, r2
 8001a5a:	2204      	movs	r2, #4
 8001a5c:	f883 2103 	strb.w	r2, [r3, #259]	@ 0x103
    ic[cic].ic_reg.aux_channels = 6; //Doesn't matter?
 8001a60:	7bfb      	ldrb	r3, [r7, #15]
 8001a62:	f44f 7286 	mov.w	r2, #268	@ 0x10c
 8001a66:	fb02 f303 	mul.w	r3, r2, r3
 8001a6a:	683a      	ldr	r2, [r7, #0]
 8001a6c:	4413      	add	r3, r2
 8001a6e:	2206      	movs	r2, #6
 8001a70:	f883 2104 	strb.w	r2, [r3, #260]	@ 0x104
    ic[cic].ic_reg.num_cv_reg = 6;
 8001a74:	7bfb      	ldrb	r3, [r7, #15]
 8001a76:	f44f 7286 	mov.w	r2, #268	@ 0x10c
 8001a7a:	fb02 f303 	mul.w	r3, r2, r3
 8001a7e:	683a      	ldr	r2, [r7, #0]
 8001a80:	4413      	add	r3, r2
 8001a82:	2206      	movs	r2, #6
 8001a84:	f883 2105 	strb.w	r2, [r3, #261]	@ 0x105
    ic[cic].ic_reg.num_gpio_reg = 4;
 8001a88:	7bfb      	ldrb	r3, [r7, #15]
 8001a8a:	f44f 7286 	mov.w	r2, #268	@ 0x10c
 8001a8e:	fb02 f303 	mul.w	r3, r2, r3
 8001a92:	683a      	ldr	r2, [r7, #0]
 8001a94:	4413      	add	r3, r2
 8001a96:	2204      	movs	r2, #4
 8001a98:	f883 2106 	strb.w	r2, [r3, #262]	@ 0x106
    ic[cic].ic_reg.num_stat_reg = 5;
 8001a9c:	7bfb      	ldrb	r3, [r7, #15]
 8001a9e:	f44f 7286 	mov.w	r2, #268	@ 0x10c
 8001aa2:	fb02 f303 	mul.w	r3, r2, r3
 8001aa6:	683a      	ldr	r2, [r7, #0]
 8001aa8:	4413      	add	r3, r2
 8001aaa:	2205      	movs	r2, #5
 8001aac:	f883 2107 	strb.w	r2, [r3, #263]	@ 0x107
  for (uint8_t cic = 0; cic < total_ic; cic++) {
 8001ab0:	7bfb      	ldrb	r3, [r7, #15]
 8001ab2:	3301      	adds	r3, #1
 8001ab4:	73fb      	strb	r3, [r7, #15]
 8001ab6:	7bfa      	ldrb	r2, [r7, #15]
 8001ab8:	79fb      	ldrb	r3, [r7, #7]
 8001aba:	429a      	cmp	r2, r3
 8001abc:	d3bc      	bcc.n	8001a38 <ADBMS6830B_init_reg_limits+0x12>
  }
}
 8001abe:	bf00      	nop
 8001ac0:	bf00      	nop
 8001ac2:	3714      	adds	r7, #20
 8001ac4:	46bd      	mov	sp, r7
 8001ac6:	f85d 7b04 	ldr.w	r7, [sp], #4
 8001aca:	4770      	bx	lr

08001acc <ADBMS6830B_adcv>:
				   uint8_t DCP, //Discharge Permit
				   uint8_t CONT, //Cell Channels to be measured
				   uint8_t RSTF, //Reset Filter
				   uint8_t OW //Open-wire bits
                 )
{
 8001acc:	b590      	push	{r4, r7, lr}
 8001ace:	b085      	sub	sp, #20
 8001ad0:	af00      	add	r7, sp, #0
 8001ad2:	4604      	mov	r4, r0
 8001ad4:	4608      	mov	r0, r1
 8001ad6:	4611      	mov	r1, r2
 8001ad8:	461a      	mov	r2, r3
 8001ada:	4623      	mov	r3, r4
 8001adc:	71fb      	strb	r3, [r7, #7]
 8001ade:	4603      	mov	r3, r0
 8001ae0:	71bb      	strb	r3, [r7, #6]
 8001ae2:	460b      	mov	r3, r1
 8001ae4:	717b      	strb	r3, [r7, #5]
 8001ae6:	4613      	mov	r3, r2
 8001ae8:	713b      	strb	r3, [r7, #4]
	uint8_t cmd[2];

	cmd[0] = 0x02 + RD;
 8001aea:	79fb      	ldrb	r3, [r7, #7]
 8001aec:	3302      	adds	r3, #2
 8001aee:	b2db      	uxtb	r3, r3
 8001af0:	733b      	strb	r3, [r7, #12]
	cmd[1] = 0x60 | (CONT << 7) | (DCP << 4) | (RSTF << 2) | OW;
 8001af2:	797b      	ldrb	r3, [r7, #5]
 8001af4:	01db      	lsls	r3, r3, #7
 8001af6:	b25b      	sxtb	r3, r3
 8001af8:	f043 0360 	orr.w	r3, r3, #96	@ 0x60
 8001afc:	b25a      	sxtb	r2, r3
 8001afe:	79bb      	ldrb	r3, [r7, #6]
 8001b00:	011b      	lsls	r3, r3, #4
 8001b02:	b25b      	sxtb	r3, r3
 8001b04:	4313      	orrs	r3, r2
 8001b06:	b25a      	sxtb	r2, r3
 8001b08:	793b      	ldrb	r3, [r7, #4]
 8001b0a:	009b      	lsls	r3, r3, #2
 8001b0c:	b25b      	sxtb	r3, r3
 8001b0e:	4313      	orrs	r3, r2
 8001b10:	b25a      	sxtb	r2, r3
 8001b12:	f997 3020 	ldrsb.w	r3, [r7, #32]
 8001b16:	4313      	orrs	r3, r2
 8001b18:	b25b      	sxtb	r3, r3
 8001b1a:	b2db      	uxtb	r3, r3
 8001b1c:	737b      	strb	r3, [r7, #13]
	cmd_68(cmd);
 8001b1e:	f107 030c 	add.w	r3, r7, #12
 8001b22:	4618      	mov	r0, r3
 8001b24:	f7ff fb36 	bl	8001194 <cmd_68>
}
 8001b28:	bf00      	nop
 8001b2a:	3714      	adds	r7, #20
 8001b2c:	46bd      	mov	sp, r7
 8001b2e:	bd90      	pop	{r4, r7, pc}

08001b30 <ADBMS6830B_rdcv>:
*/

uint8_t ADBMS6830B_rdcv(uint8_t total_ic, // The number of ICs in the system
                     	   cell_asic *ic // Array of the parsed cell codes
                    	  )
{
 8001b30:	e92d 43f0 	stmdb	sp!, {r4, r5, r6, r7, r8, r9, lr}
 8001b34:	b08f      	sub	sp, #60	@ 0x3c
 8001b36:	af00      	add	r7, sp, #0
 8001b38:	4603      	mov	r3, r0
 8001b3a:	6039      	str	r1, [r7, #0]
 8001b3c:	71fb      	strb	r3, [r7, #7]
 8001b3e:	466b      	mov	r3, sp
 8001b40:	461e      	mov	r6, r3
	int16_t c_data_pec=pec10_calc(TxSize-2,cell_data);
	int16_t c_rx_pec=*(uint16_t*)(cell_data+TxSize-2);

	return(c_data_pec!=c_rx_pec);
#else
	uint8_t errorCount = 0;
 8001b42:	2300      	movs	r3, #0
 8001b44:	f887 3037 	strb.w	r3, [r7, #55]	@ 0x37
	uint8_t TxSize = 8;
 8001b48:	2308      	movs	r3, #8
 8001b4a:	f887 3027 	strb.w	r3, [r7, #39]	@ 0x27
	uint8_t cell_data[TxSize*total_ic];
 8001b4e:	f897 3027 	ldrb.w	r3, [r7, #39]	@ 0x27
 8001b52:	79fa      	ldrb	r2, [r7, #7]
 8001b54:	fb02 f103 	mul.w	r1, r2, r3
 8001b58:	1e4b      	subs	r3, r1, #1
 8001b5a:	623b      	str	r3, [r7, #32]
 8001b5c:	460a      	mov	r2, r1
 8001b5e:	2300      	movs	r3, #0
 8001b60:	4690      	mov	r8, r2
 8001b62:	4699      	mov	r9, r3
 8001b64:	f04f 0200 	mov.w	r2, #0
 8001b68:	f04f 0300 	mov.w	r3, #0
 8001b6c:	ea4f 03c9 	mov.w	r3, r9, lsl #3
 8001b70:	ea43 7358 	orr.w	r3, r3, r8, lsr #29
 8001b74:	ea4f 02c8 	mov.w	r2, r8, lsl #3
 8001b78:	460a      	mov	r2, r1
 8001b7a:	2300      	movs	r3, #0
 8001b7c:	4614      	mov	r4, r2
 8001b7e:	461d      	mov	r5, r3
 8001b80:	f04f 0200 	mov.w	r2, #0
 8001b84:	f04f 0300 	mov.w	r3, #0
 8001b88:	00eb      	lsls	r3, r5, #3
 8001b8a:	ea43 7354 	orr.w	r3, r3, r4, lsr #29
 8001b8e:	00e2      	lsls	r2, r4, #3
 8001b90:	460b      	mov	r3, r1
 8001b92:	3307      	adds	r3, #7
 8001b94:	08db      	lsrs	r3, r3, #3
 8001b96:	00db      	lsls	r3, r3, #3
 8001b98:	ebad 0d03 	sub.w	sp, sp, r3
 8001b9c:	466b      	mov	r3, sp
 8001b9e:	3300      	adds	r3, #0
 8001ba0:	61fb      	str	r3, [r7, #28]
	uint16_t codes[6]={
 8001ba2:	4a73      	ldr	r2, [pc, #460]	@ (8001d70 <ADBMS6830B_rdcv+0x240>)
 8001ba4:	f107 0308 	add.w	r3, r7, #8
 8001ba8:	ca07      	ldmia	r2, {r0, r1, r2}
 8001baa:	e883 0007 	stmia.w	r3, {r0, r1, r2}
			RDCVC,
			RDCVD,
			RDCVE,
			RDCVF
	};
	for(int REGGRP=0;REGGRP<6;REGGRP++){
 8001bae:	2300      	movs	r3, #0
 8001bb0:	633b      	str	r3, [r7, #48]	@ 0x30
 8001bb2:	e0d0      	b.n	8001d56 <ADBMS6830B_rdcv+0x226>
		wakeup_sleep(FEB_NUM_IC);
 8001bb4:	2001      	movs	r0, #1
 8001bb6:	f000 fae1 	bl	800217c <wakeup_sleep>
		transmitCMDR(codes[REGGRP],cell_data,TxSize*total_ic);
 8001bba:	6b3b      	ldr	r3, [r7, #48]	@ 0x30
 8001bbc:	005b      	lsls	r3, r3, #1
 8001bbe:	3338      	adds	r3, #56	@ 0x38
 8001bc0:	443b      	add	r3, r7
 8001bc2:	f833 0c30 	ldrh.w	r0, [r3, #-48]
 8001bc6:	f897 2027 	ldrb.w	r2, [r7, #39]	@ 0x27
 8001bca:	79fb      	ldrb	r3, [r7, #7]
 8001bcc:	fb12 f303 	smulbb	r3, r2, r3
 8001bd0:	b2db      	uxtb	r3, r3
 8001bd2:	461a      	mov	r2, r3
 8001bd4:	69f9      	ldr	r1, [r7, #28]
 8001bd6:	f7ff fbf2 	bl	80013be <transmitCMDR>
		uint8_t bytesInGroup = (REGGRP==5)?2:6;
 8001bda:	6b3b      	ldr	r3, [r7, #48]	@ 0x30
 8001bdc:	2b05      	cmp	r3, #5
 8001bde:	d101      	bne.n	8001be4 <ADBMS6830B_rdcv+0xb4>
 8001be0:	2302      	movs	r3, #2
 8001be2:	e000      	b.n	8001be6 <ADBMS6830B_rdcv+0xb6>
 8001be4:	2306      	movs	r3, #6
 8001be6:	76fb      	strb	r3, [r7, #27]
		for(int icn=0;icn<total_ic;icn++){
 8001be8:	2300      	movs	r3, #0
 8001bea:	62fb      	str	r3, [r7, #44]	@ 0x2c
 8001bec:	e08f      	b.n	8001d0e <ADBMS6830B_rdcv+0x1de>
			for(int byte=0;byte<bytesInGroup;byte++){
 8001bee:	2300      	movs	r3, #0
 8001bf0:	62bb      	str	r3, [r7, #40]	@ 0x28
 8001bf2:	e084      	b.n	8001cfe <ADBMS6830B_rdcv+0x1ce>
				if(byte%2==0){
 8001bf4:	6abb      	ldr	r3, [r7, #40]	@ 0x28
 8001bf6:	f003 0301 	and.w	r3, r3, #1
 8001bfa:	2b00      	cmp	r3, #0
 8001bfc:	d148      	bne.n	8001c90 <ADBMS6830B_rdcv+0x160>
					ic[icn].cells.c_codes[byte/2+3*REGGRP] = 0;
 8001bfe:	6afb      	ldr	r3, [r7, #44]	@ 0x2c
 8001c00:	f44f 7286 	mov.w	r2, #268	@ 0x10c
 8001c04:	fb02 f303 	mul.w	r3, r2, r3
 8001c08:	683a      	ldr	r2, [r7, #0]
 8001c0a:	18d1      	adds	r1, r2, r3
 8001c0c:	6abb      	ldr	r3, [r7, #40]	@ 0x28
 8001c0e:	0fda      	lsrs	r2, r3, #31
 8001c10:	4413      	add	r3, r2
 8001c12:	105b      	asrs	r3, r3, #1
 8001c14:	4618      	mov	r0, r3
 8001c16:	6b3a      	ldr	r2, [r7, #48]	@ 0x30
 8001c18:	4613      	mov	r3, r2
 8001c1a:	005b      	lsls	r3, r3, #1
 8001c1c:	4413      	add	r3, r2
 8001c1e:	4403      	add	r3, r0
 8001c20:	330c      	adds	r3, #12
 8001c22:	005b      	lsls	r3, r3, #1
 8001c24:	440b      	add	r3, r1
 8001c26:	2200      	movs	r2, #0
 8001c28:	80da      	strh	r2, [r3, #6]
					ic[icn].cells.c_codes[byte/2+3*REGGRP] |= cell_data[byte+TxSize*icn];
 8001c2a:	6afb      	ldr	r3, [r7, #44]	@ 0x2c
 8001c2c:	f44f 7286 	mov.w	r2, #268	@ 0x10c
 8001c30:	fb02 f303 	mul.w	r3, r2, r3
 8001c34:	683a      	ldr	r2, [r7, #0]
 8001c36:	18d0      	adds	r0, r2, r3
 8001c38:	6abb      	ldr	r3, [r7, #40]	@ 0x28
 8001c3a:	0fda      	lsrs	r2, r3, #31
 8001c3c:	4413      	add	r3, r2
 8001c3e:	105b      	asrs	r3, r3, #1
 8001c40:	461a      	mov	r2, r3
 8001c42:	6b39      	ldr	r1, [r7, #48]	@ 0x30
 8001c44:	460b      	mov	r3, r1
 8001c46:	005b      	lsls	r3, r3, #1
 8001c48:	440b      	add	r3, r1
 8001c4a:	4413      	add	r3, r2
 8001c4c:	330c      	adds	r3, #12
 8001c4e:	005b      	lsls	r3, r3, #1
 8001c50:	4403      	add	r3, r0
 8001c52:	88dc      	ldrh	r4, [r3, #6]
 8001c54:	f897 3027 	ldrb.w	r3, [r7, #39]	@ 0x27
 8001c58:	6af9      	ldr	r1, [r7, #44]	@ 0x2c
 8001c5a:	fb03 f101 	mul.w	r1, r3, r1
 8001c5e:	6abb      	ldr	r3, [r7, #40]	@ 0x28
 8001c60:	440b      	add	r3, r1
 8001c62:	69f9      	ldr	r1, [r7, #28]
 8001c64:	5ccb      	ldrb	r3, [r1, r3]
 8001c66:	461d      	mov	r5, r3
 8001c68:	6afb      	ldr	r3, [r7, #44]	@ 0x2c
 8001c6a:	f44f 7186 	mov.w	r1, #268	@ 0x10c
 8001c6e:	fb01 f303 	mul.w	r3, r1, r3
 8001c72:	6839      	ldr	r1, [r7, #0]
 8001c74:	18c8      	adds	r0, r1, r3
 8001c76:	6b39      	ldr	r1, [r7, #48]	@ 0x30
 8001c78:	460b      	mov	r3, r1
 8001c7a:	005b      	lsls	r3, r3, #1
 8001c7c:	440b      	add	r3, r1
 8001c7e:	4413      	add	r3, r2
 8001c80:	ea44 0205 	orr.w	r2, r4, r5
 8001c84:	b292      	uxth	r2, r2
 8001c86:	330c      	adds	r3, #12
 8001c88:	005b      	lsls	r3, r3, #1
 8001c8a:	4403      	add	r3, r0
 8001c8c:	80da      	strh	r2, [r3, #6]
 8001c8e:	e033      	b.n	8001cf8 <ADBMS6830B_rdcv+0x1c8>
				} else {
					ic[icn].cells.c_codes[byte/2+3*REGGRP] |= cell_data[byte+TxSize*icn]<<8;
 8001c90:	6afb      	ldr	r3, [r7, #44]	@ 0x2c
 8001c92:	f44f 7286 	mov.w	r2, #268	@ 0x10c
 8001c96:	fb02 f303 	mul.w	r3, r2, r3
 8001c9a:	683a      	ldr	r2, [r7, #0]
 8001c9c:	18d0      	adds	r0, r2, r3
 8001c9e:	6abb      	ldr	r3, [r7, #40]	@ 0x28
 8001ca0:	0fda      	lsrs	r2, r3, #31
 8001ca2:	4413      	add	r3, r2
 8001ca4:	105b      	asrs	r3, r3, #1
 8001ca6:	461a      	mov	r2, r3
 8001ca8:	6b39      	ldr	r1, [r7, #48]	@ 0x30
 8001caa:	460b      	mov	r3, r1
 8001cac:	005b      	lsls	r3, r3, #1
 8001cae:	440b      	add	r3, r1
 8001cb0:	4413      	add	r3, r2
 8001cb2:	330c      	adds	r3, #12
 8001cb4:	005b      	lsls	r3, r3, #1
 8001cb6:	4403      	add	r3, r0
 8001cb8:	88db      	ldrh	r3, [r3, #6]
 8001cba:	b219      	sxth	r1, r3
 8001cbc:	f897 3027 	ldrb.w	r3, [r7, #39]	@ 0x27
 8001cc0:	6af8      	ldr	r0, [r7, #44]	@ 0x2c
 8001cc2:	fb03 f000 	mul.w	r0, r3, r0
 8001cc6:	6abb      	ldr	r3, [r7, #40]	@ 0x28
 8001cc8:	4403      	add	r3, r0
 8001cca:	69f8      	ldr	r0, [r7, #28]
 8001ccc:	5cc3      	ldrb	r3, [r0, r3]
 8001cce:	021b      	lsls	r3, r3, #8
 8001cd0:	b21b      	sxth	r3, r3
 8001cd2:	430b      	orrs	r3, r1
 8001cd4:	b21c      	sxth	r4, r3
 8001cd6:	6afb      	ldr	r3, [r7, #44]	@ 0x2c
 8001cd8:	f44f 7186 	mov.w	r1, #268	@ 0x10c
 8001cdc:	fb01 f303 	mul.w	r3, r1, r3
 8001ce0:	6839      	ldr	r1, [r7, #0]
 8001ce2:	18c8      	adds	r0, r1, r3
 8001ce4:	6b39      	ldr	r1, [r7, #48]	@ 0x30
 8001ce6:	460b      	mov	r3, r1
 8001ce8:	005b      	lsls	r3, r3, #1
 8001cea:	440b      	add	r3, r1
 8001cec:	4413      	add	r3, r2
 8001cee:	b2a2      	uxth	r2, r4
 8001cf0:	330c      	adds	r3, #12
 8001cf2:	005b      	lsls	r3, r3, #1
 8001cf4:	4403      	add	r3, r0
 8001cf6:	80da      	strh	r2, [r3, #6]
			for(int byte=0;byte<bytesInGroup;byte++){
 8001cf8:	6abb      	ldr	r3, [r7, #40]	@ 0x28
 8001cfa:	3301      	adds	r3, #1
 8001cfc:	62bb      	str	r3, [r7, #40]	@ 0x28
 8001cfe:	7efb      	ldrb	r3, [r7, #27]
 8001d00:	6aba      	ldr	r2, [r7, #40]	@ 0x28
 8001d02:	429a      	cmp	r2, r3
 8001d04:	f6ff af76 	blt.w	8001bf4 <ADBMS6830B_rdcv+0xc4>
		for(int icn=0;icn<total_ic;icn++){
 8001d08:	6afb      	ldr	r3, [r7, #44]	@ 0x2c
 8001d0a:	3301      	adds	r3, #1
 8001d0c:	62fb      	str	r3, [r7, #44]	@ 0x2c
 8001d0e:	79fb      	ldrb	r3, [r7, #7]
 8001d10:	6afa      	ldr	r2, [r7, #44]	@ 0x2c
 8001d12:	429a      	cmp	r2, r3
 8001d14:	f6ff af6b 	blt.w	8001bee <ADBMS6830B_rdcv+0xbe>
				}
			}

		}
		int16_t c_data_pec=pec10_calc(TxSize-2,cell_data);
 8001d18:	f897 3027 	ldrb.w	r3, [r7, #39]	@ 0x27
 8001d1c:	3b02      	subs	r3, #2
 8001d1e:	b2db      	uxtb	r3, r3
 8001d20:	69f9      	ldr	r1, [r7, #28]
 8001d22:	4618      	mov	r0, r3
 8001d24:	f7ff f9c9 	bl	80010ba <pec10_calc>
 8001d28:	4603      	mov	r3, r0
 8001d2a:	833b      	strh	r3, [r7, #24]
		int16_t c_rx_pec=*(uint16_t*)(cell_data+TxSize-2);
 8001d2c:	f897 3027 	ldrb.w	r3, [r7, #39]	@ 0x27
 8001d30:	3b02      	subs	r3, #2
 8001d32:	69fa      	ldr	r2, [r7, #28]
 8001d34:	4413      	add	r3, r2
 8001d36:	881b      	ldrh	r3, [r3, #0]
 8001d38:	82fb      	strh	r3, [r7, #22]
		if(c_data_pec!=c_rx_pec)errorCount++;
 8001d3a:	f9b7 2018 	ldrsh.w	r2, [r7, #24]
 8001d3e:	f9b7 3016 	ldrsh.w	r3, [r7, #22]
 8001d42:	429a      	cmp	r2, r3
 8001d44:	d004      	beq.n	8001d50 <ADBMS6830B_rdcv+0x220>
 8001d46:	f897 3037 	ldrb.w	r3, [r7, #55]	@ 0x37
 8001d4a:	3301      	adds	r3, #1
 8001d4c:	f887 3037 	strb.w	r3, [r7, #55]	@ 0x37
	for(int REGGRP=0;REGGRP<6;REGGRP++){
 8001d50:	6b3b      	ldr	r3, [r7, #48]	@ 0x30
 8001d52:	3301      	adds	r3, #1
 8001d54:	633b      	str	r3, [r7, #48]	@ 0x30
 8001d56:	6b3b      	ldr	r3, [r7, #48]	@ 0x30
 8001d58:	2b05      	cmp	r3, #5
 8001d5a:	f77f af2b 	ble.w	8001bb4 <ADBMS6830B_rdcv+0x84>
	}
	return errorCount;
 8001d5e:	f897 3037 	ldrb.w	r3, [r7, #55]	@ 0x37
 8001d62:	46b5      	mov	sp, r6
#endif

}
 8001d64:	4618      	mov	r0, r3
 8001d66:	373c      	adds	r7, #60	@ 0x3c
 8001d68:	46bd      	mov	sp, r7
 8001d6a:	e8bd 83f0 	ldmia.w	sp!, {r4, r5, r6, r7, r8, r9, pc}
 8001d6e:	bf00      	nop
 8001d70:	08008c10 	.word	0x08008c10

08001d74 <ADBMS6830B_rdsv>:

uint8_t ADBMS6830B_rdsv(uint8_t total_ic, // The number of ICs in the system
                     	   cell_asic *ic // Array of the parsed cell codes
                    	  )
{
 8001d74:	e92d 43f0 	stmdb	sp!, {r4, r5, r6, r7, r8, r9, lr}
 8001d78:	b08f      	sub	sp, #60	@ 0x3c
 8001d7a:	af00      	add	r7, sp, #0
 8001d7c:	4603      	mov	r3, r0
 8001d7e:	6039      	str	r1, [r7, #0]
 8001d80:	71fb      	strb	r3, [r7, #7]
 8001d82:	466b      	mov	r3, sp
 8001d84:	461e      	mov	r6, r3
	uint16_t data_pec=pec10_calc(32,cell_data);
	uint16_t rx_pec=*(uint16_t*)(cell_data+32);

	return(data_pec!=rx_pec);
#else
	uint8_t errorCount = 0;
 8001d86:	2300      	movs	r3, #0
 8001d88:	f887 3037 	strb.w	r3, [r7, #55]	@ 0x37
	uint8_t TxSize = 8;
 8001d8c:	2308      	movs	r3, #8
 8001d8e:	f887 3027 	strb.w	r3, [r7, #39]	@ 0x27
	uint8_t cell_data[TxSize*total_ic];
 8001d92:	f897 3027 	ldrb.w	r3, [r7, #39]	@ 0x27
 8001d96:	79fa      	ldrb	r2, [r7, #7]
 8001d98:	fb02 f103 	mul.w	r1, r2, r3
 8001d9c:	1e4b      	subs	r3, r1, #1
 8001d9e:	623b      	str	r3, [r7, #32]
 8001da0:	460a      	mov	r2, r1
 8001da2:	2300      	movs	r3, #0
 8001da4:	4690      	mov	r8, r2
 8001da6:	4699      	mov	r9, r3
 8001da8:	f04f 0200 	mov.w	r2, #0
 8001dac:	f04f 0300 	mov.w	r3, #0
 8001db0:	ea4f 03c9 	mov.w	r3, r9, lsl #3
 8001db4:	ea43 7358 	orr.w	r3, r3, r8, lsr #29
 8001db8:	ea4f 02c8 	mov.w	r2, r8, lsl #3
 8001dbc:	460a      	mov	r2, r1
 8001dbe:	2300      	movs	r3, #0
 8001dc0:	4614      	mov	r4, r2
 8001dc2:	461d      	mov	r5, r3
 8001dc4:	f04f 0200 	mov.w	r2, #0
 8001dc8:	f04f 0300 	mov.w	r3, #0
 8001dcc:	00eb      	lsls	r3, r5, #3
 8001dce:	ea43 7354 	orr.w	r3, r3, r4, lsr #29
 8001dd2:	00e2      	lsls	r2, r4, #3
 8001dd4:	460b      	mov	r3, r1
 8001dd6:	3307      	adds	r3, #7
 8001dd8:	08db      	lsrs	r3, r3, #3
 8001dda:	00db      	lsls	r3, r3, #3
 8001ddc:	ebad 0d03 	sub.w	sp, sp, r3
 8001de0:	466b      	mov	r3, sp
 8001de2:	3300      	adds	r3, #0
 8001de4:	61fb      	str	r3, [r7, #28]
	uint16_t codes[6]={
 8001de6:	4a74      	ldr	r2, [pc, #464]	@ (8001fb8 <ADBMS6830B_rdsv+0x244>)
 8001de8:	f107 0308 	add.w	r3, r7, #8
 8001dec:	ca07      	ldmia	r2, {r0, r1, r2}
 8001dee:	e883 0007 	stmia.w	r3, {r0, r1, r2}
			RDSVC,
			RDSVD,
			RDSVE,
			RDSVF
	};
	for(int REGGRP=0;REGGRP<6;REGGRP++){
 8001df2:	2300      	movs	r3, #0
 8001df4:	633b      	str	r3, [r7, #48]	@ 0x30
 8001df6:	e0d3      	b.n	8001fa0 <ADBMS6830B_rdsv+0x22c>
		wakeup_sleep(FEB_NUM_IC);
 8001df8:	2001      	movs	r0, #1
 8001dfa:	f000 f9bf 	bl	800217c <wakeup_sleep>
		transmitCMDR(codes[REGGRP],cell_data,TxSize*total_ic);
 8001dfe:	6b3b      	ldr	r3, [r7, #48]	@ 0x30
 8001e00:	005b      	lsls	r3, r3, #1
 8001e02:	3338      	adds	r3, #56	@ 0x38
 8001e04:	443b      	add	r3, r7
 8001e06:	f833 0c30 	ldrh.w	r0, [r3, #-48]
 8001e0a:	f897 2027 	ldrb.w	r2, [r7, #39]	@ 0x27
 8001e0e:	79fb      	ldrb	r3, [r7, #7]
 8001e10:	fb12 f303 	smulbb	r3, r2, r3
 8001e14:	b2db      	uxtb	r3, r3
 8001e16:	461a      	mov	r2, r3
 8001e18:	69f9      	ldr	r1, [r7, #28]
 8001e1a:	f7ff fad0 	bl	80013be <transmitCMDR>
		uint8_t bytesInGroup = (REGGRP==5)?2:6;
 8001e1e:	6b3b      	ldr	r3, [r7, #48]	@ 0x30
 8001e20:	2b05      	cmp	r3, #5
 8001e22:	d101      	bne.n	8001e28 <ADBMS6830B_rdsv+0xb4>
 8001e24:	2302      	movs	r3, #2
 8001e26:	e000      	b.n	8001e2a <ADBMS6830B_rdsv+0xb6>
 8001e28:	2306      	movs	r3, #6
 8001e2a:	76fb      	strb	r3, [r7, #27]
		for(int icn=0;icn<total_ic;icn++){
 8001e2c:	2300      	movs	r3, #0
 8001e2e:	62fb      	str	r3, [r7, #44]	@ 0x2c
 8001e30:	e08f      	b.n	8001f52 <ADBMS6830B_rdsv+0x1de>
			for(int byte=0;byte<bytesInGroup;byte++){
 8001e32:	2300      	movs	r3, #0
 8001e34:	62bb      	str	r3, [r7, #40]	@ 0x28
 8001e36:	e084      	b.n	8001f42 <ADBMS6830B_rdsv+0x1ce>
				if(byte%2==0){
 8001e38:	6abb      	ldr	r3, [r7, #40]	@ 0x28
 8001e3a:	f003 0301 	and.w	r3, r3, #1
 8001e3e:	2b00      	cmp	r3, #0
 8001e40:	d148      	bne.n	8001ed4 <ADBMS6830B_rdsv+0x160>
					ic[icn].cells.s_codes[byte/2+3*REGGRP] = 0;
 8001e42:	6afb      	ldr	r3, [r7, #44]	@ 0x2c
 8001e44:	f44f 7286 	mov.w	r2, #268	@ 0x10c
 8001e48:	fb02 f303 	mul.w	r3, r2, r3
 8001e4c:	683a      	ldr	r2, [r7, #0]
 8001e4e:	18d1      	adds	r1, r2, r3
 8001e50:	6abb      	ldr	r3, [r7, #40]	@ 0x28
 8001e52:	0fda      	lsrs	r2, r3, #31
 8001e54:	4413      	add	r3, r2
 8001e56:	105b      	asrs	r3, r3, #1
 8001e58:	4618      	mov	r0, r3
 8001e5a:	6b3a      	ldr	r2, [r7, #48]	@ 0x30
 8001e5c:	4613      	mov	r3, r2
 8001e5e:	005b      	lsls	r3, r3, #1
 8001e60:	4413      	add	r3, r2
 8001e62:	4403      	add	r3, r0
 8001e64:	331c      	adds	r3, #28
 8001e66:	005b      	lsls	r3, r3, #1
 8001e68:	440b      	add	r3, r1
 8001e6a:	2200      	movs	r2, #0
 8001e6c:	815a      	strh	r2, [r3, #10]
					ic[icn].cells.s_codes[byte/2+3*REGGRP] |= cell_data[byte+TxSize*icn];
 8001e6e:	6afb      	ldr	r3, [r7, #44]	@ 0x2c
 8001e70:	f44f 7286 	mov.w	r2, #268	@ 0x10c
 8001e74:	fb02 f303 	mul.w	r3, r2, r3
 8001e78:	683a      	ldr	r2, [r7, #0]
 8001e7a:	18d0      	adds	r0, r2, r3
 8001e7c:	6abb      	ldr	r3, [r7, #40]	@ 0x28
 8001e7e:	0fda      	lsrs	r2, r3, #31
 8001e80:	4413      	add	r3, r2
 8001e82:	105b      	asrs	r3, r3, #1
 8001e84:	461a      	mov	r2, r3
 8001e86:	6b39      	ldr	r1, [r7, #48]	@ 0x30
 8001e88:	460b      	mov	r3, r1
 8001e8a:	005b      	lsls	r3, r3, #1
 8001e8c:	440b      	add	r3, r1
 8001e8e:	4413      	add	r3, r2
 8001e90:	331c      	adds	r3, #28
 8001e92:	005b      	lsls	r3, r3, #1
 8001e94:	4403      	add	r3, r0
 8001e96:	895c      	ldrh	r4, [r3, #10]
 8001e98:	f897 3027 	ldrb.w	r3, [r7, #39]	@ 0x27
 8001e9c:	6af9      	ldr	r1, [r7, #44]	@ 0x2c
 8001e9e:	fb03 f101 	mul.w	r1, r3, r1
 8001ea2:	6abb      	ldr	r3, [r7, #40]	@ 0x28
 8001ea4:	440b      	add	r3, r1
 8001ea6:	69f9      	ldr	r1, [r7, #28]
 8001ea8:	5ccb      	ldrb	r3, [r1, r3]
 8001eaa:	461d      	mov	r5, r3
 8001eac:	6afb      	ldr	r3, [r7, #44]	@ 0x2c
 8001eae:	f44f 7186 	mov.w	r1, #268	@ 0x10c
 8001eb2:	fb01 f303 	mul.w	r3, r1, r3
 8001eb6:	6839      	ldr	r1, [r7, #0]
 8001eb8:	18c8      	adds	r0, r1, r3
 8001eba:	6b39      	ldr	r1, [r7, #48]	@ 0x30
 8001ebc:	460b      	mov	r3, r1
 8001ebe:	005b      	lsls	r3, r3, #1
 8001ec0:	440b      	add	r3, r1
 8001ec2:	4413      	add	r3, r2
 8001ec4:	ea44 0205 	orr.w	r2, r4, r5
 8001ec8:	b292      	uxth	r2, r2
 8001eca:	331c      	adds	r3, #28
 8001ecc:	005b      	lsls	r3, r3, #1
 8001ece:	4403      	add	r3, r0
 8001ed0:	815a      	strh	r2, [r3, #10]
 8001ed2:	e033      	b.n	8001f3c <ADBMS6830B_rdsv+0x1c8>
				} else {
					ic[icn].cells.s_codes[byte/2+3*REGGRP] |= cell_data[byte+TxSize*icn]<<8;
 8001ed4:	6afb      	ldr	r3, [r7, #44]	@ 0x2c
 8001ed6:	f44f 7286 	mov.w	r2, #268	@ 0x10c
 8001eda:	fb02 f303 	mul.w	r3, r2, r3
 8001ede:	683a      	ldr	r2, [r7, #0]
 8001ee0:	18d0      	adds	r0, r2, r3
 8001ee2:	6abb      	ldr	r3, [r7, #40]	@ 0x28
 8001ee4:	0fda      	lsrs	r2, r3, #31
 8001ee6:	4413      	add	r3, r2
 8001ee8:	105b      	asrs	r3, r3, #1
 8001eea:	461a      	mov	r2, r3
 8001eec:	6b39      	ldr	r1, [r7, #48]	@ 0x30
 8001eee:	460b      	mov	r3, r1
 8001ef0:	005b      	lsls	r3, r3, #1
 8001ef2:	440b      	add	r3, r1
 8001ef4:	4413      	add	r3, r2
 8001ef6:	331c      	adds	r3, #28
 8001ef8:	005b      	lsls	r3, r3, #1
 8001efa:	4403      	add	r3, r0
 8001efc:	895b      	ldrh	r3, [r3, #10]
 8001efe:	b219      	sxth	r1, r3
 8001f00:	f897 3027 	ldrb.w	r3, [r7, #39]	@ 0x27
 8001f04:	6af8      	ldr	r0, [r7, #44]	@ 0x2c
 8001f06:	fb03 f000 	mul.w	r0, r3, r0
 8001f0a:	6abb      	ldr	r3, [r7, #40]	@ 0x28
 8001f0c:	4403      	add	r3, r0
 8001f0e:	69f8      	ldr	r0, [r7, #28]
 8001f10:	5cc3      	ldrb	r3, [r0, r3]
 8001f12:	021b      	lsls	r3, r3, #8
 8001f14:	b21b      	sxth	r3, r3
 8001f16:	430b      	orrs	r3, r1
 8001f18:	b21c      	sxth	r4, r3
 8001f1a:	6afb      	ldr	r3, [r7, #44]	@ 0x2c
 8001f1c:	f44f 7186 	mov.w	r1, #268	@ 0x10c
 8001f20:	fb01 f303 	mul.w	r3, r1, r3
 8001f24:	6839      	ldr	r1, [r7, #0]
 8001f26:	18c8      	adds	r0, r1, r3
 8001f28:	6b39      	ldr	r1, [r7, #48]	@ 0x30
 8001f2a:	460b      	mov	r3, r1
 8001f2c:	005b      	lsls	r3, r3, #1
 8001f2e:	440b      	add	r3, r1
 8001f30:	4413      	add	r3, r2
 8001f32:	b2a2      	uxth	r2, r4
 8001f34:	331c      	adds	r3, #28
 8001f36:	005b      	lsls	r3, r3, #1
 8001f38:	4403      	add	r3, r0
 8001f3a:	815a      	strh	r2, [r3, #10]
			for(int byte=0;byte<bytesInGroup;byte++){
 8001f3c:	6abb      	ldr	r3, [r7, #40]	@ 0x28
 8001f3e:	3301      	adds	r3, #1
 8001f40:	62bb      	str	r3, [r7, #40]	@ 0x28
 8001f42:	7efb      	ldrb	r3, [r7, #27]
 8001f44:	6aba      	ldr	r2, [r7, #40]	@ 0x28
 8001f46:	429a      	cmp	r2, r3
 8001f48:	f6ff af76 	blt.w	8001e38 <ADBMS6830B_rdsv+0xc4>
		for(int icn=0;icn<total_ic;icn++){
 8001f4c:	6afb      	ldr	r3, [r7, #44]	@ 0x2c
 8001f4e:	3301      	adds	r3, #1
 8001f50:	62fb      	str	r3, [r7, #44]	@ 0x2c
 8001f52:	79fb      	ldrb	r3, [r7, #7]
 8001f54:	6afa      	ldr	r2, [r7, #44]	@ 0x2c
 8001f56:	429a      	cmp	r2, r3
 8001f58:	f6ff af6b 	blt.w	8001e32 <ADBMS6830B_rdsv+0xbe>
				}
			}

		}
		int16_t c_data_pec=pec10_calc(TxSize-2,cell_data);
 8001f5c:	f897 3027 	ldrb.w	r3, [r7, #39]	@ 0x27
 8001f60:	3b02      	subs	r3, #2
 8001f62:	b2db      	uxtb	r3, r3
 8001f64:	69f9      	ldr	r1, [r7, #28]
 8001f66:	4618      	mov	r0, r3
 8001f68:	f7ff f8a7 	bl	80010ba <pec10_calc>
 8001f6c:	4603      	mov	r3, r0
 8001f6e:	833b      	strh	r3, [r7, #24]
		int16_t c_rx_pec=*(uint16_t*)(cell_data+TxSize-2);
 8001f70:	f897 3027 	ldrb.w	r3, [r7, #39]	@ 0x27
 8001f74:	3b02      	subs	r3, #2
 8001f76:	69fa      	ldr	r2, [r7, #28]
 8001f78:	4413      	add	r3, r2
 8001f7a:	881b      	ldrh	r3, [r3, #0]
 8001f7c:	82fb      	strh	r3, [r7, #22]
		if(c_data_pec!=c_rx_pec)errorCount++;
 8001f7e:	f9b7 2018 	ldrsh.w	r2, [r7, #24]
 8001f82:	f9b7 3016 	ldrsh.w	r3, [r7, #22]
 8001f86:	429a      	cmp	r2, r3
 8001f88:	d004      	beq.n	8001f94 <ADBMS6830B_rdsv+0x220>
 8001f8a:	f897 3037 	ldrb.w	r3, [r7, #55]	@ 0x37
 8001f8e:	3301      	adds	r3, #1
 8001f90:	f887 3037 	strb.w	r3, [r7, #55]	@ 0x37
		HAL_Delay(1);
 8001f94:	2001      	movs	r0, #1
 8001f96:	f000 ffff 	bl	8002f98 <HAL_Delay>
	for(int REGGRP=0;REGGRP<6;REGGRP++){
 8001f9a:	6b3b      	ldr	r3, [r7, #48]	@ 0x30
 8001f9c:	3301      	adds	r3, #1
 8001f9e:	633b      	str	r3, [r7, #48]	@ 0x30
 8001fa0:	6b3b      	ldr	r3, [r7, #48]	@ 0x30
 8001fa2:	2b05      	cmp	r3, #5
 8001fa4:	f77f af28 	ble.w	8001df8 <ADBMS6830B_rdsv+0x84>
	}
	return errorCount;
 8001fa8:	f897 3037 	ldrb.w	r3, [r7, #55]	@ 0x37
 8001fac:	46b5      	mov	sp, r6
#endif
}
 8001fae:	4618      	mov	r0, r3
 8001fb0:	373c      	adds	r7, #60	@ 0x3c
 8001fb2:	46bd      	mov	sp, r7
 8001fb4:	e8bd 83f0 	ldmia.w	sp!, {r4, r5, r6, r7, r8, r9, pc}
 8001fb8:	08008c1c 	.word	0x08008c1c

08001fbc <ADBMS6830B_wrALL>:
// ******************************** Temperature ********************************
void ADBMS6830B_wrALL(uint8_t total_ic, //The number of ICs being written to
                      cell_asic ic[]  // A two dimensional array of the configuration data that will be written
                     )
{
 8001fbc:	b580      	push	{r7, lr}
 8001fbe:	b082      	sub	sp, #8
 8001fc0:	af00      	add	r7, sp, #0
 8001fc2:	4603      	mov	r3, r0
 8001fc4:	6039      	str	r1, [r7, #0]
 8001fc6:	71fb      	strb	r3, [r7, #7]
	wakeup_sleep(total_ic);
 8001fc8:	79fb      	ldrb	r3, [r7, #7]
 8001fca:	4618      	mov	r0, r3
 8001fcc:	f000 f8d6 	bl	800217c <wakeup_sleep>
	ADBMS6830B_wrcfga(total_ic, ic);
 8001fd0:	79fb      	ldrb	r3, [r7, #7]
 8001fd2:	6839      	ldr	r1, [r7, #0]
 8001fd4:	4618      	mov	r0, r3
 8001fd6:	f000 f80d 	bl	8001ff4 <ADBMS6830B_wrcfga>
	wakeup_sleep(total_ic);
 8001fda:	79fb      	ldrb	r3, [r7, #7]
 8001fdc:	4618      	mov	r0, r3
 8001fde:	f000 f8cd 	bl	800217c <wakeup_sleep>
	ADBMS6830B_wrcfgb(total_ic, ic);
 8001fe2:	79fb      	ldrb	r3, [r7, #7]
 8001fe4:	6839      	ldr	r1, [r7, #0]
 8001fe6:	4618      	mov	r0, r3
 8001fe8:	f000 f86a 	bl	80020c0 <ADBMS6830B_wrcfgb>
	//wakeup_sleep(total_ic);
	//ADBMS6830B_wrpwmga(total_ic, ic);
	//wakeup_sleep(total_ic);
	//ADBMS6830B_wrpwmgb(total_ic, ic);
}
 8001fec:	bf00      	nop
 8001fee:	3708      	adds	r7, #8
 8001ff0:	46bd      	mov	sp, r7
 8001ff2:	bd80      	pop	{r7, pc}

08001ff4 <ADBMS6830B_wrcfga>:
}
/* Write the ADBMS6830B CFGRA */
void ADBMS6830B_wrcfga(uint8_t total_ic, //The number of ICs being written to
                   cell_asic ic[]  // A two dimensional array of the configuration data that will be written
                  )
{
 8001ff4:	e92d 43f0 	stmdb	sp!, {r4, r5, r6, r7, r8, r9, lr}
 8001ff8:	b087      	sub	sp, #28
 8001ffa:	af00      	add	r7, sp, #0
 8001ffc:	4603      	mov	r3, r0
 8001ffe:	6039      	str	r1, [r7, #0]
 8002000:	71fb      	strb	r3, [r7, #7]
 8002002:	466b      	mov	r3, sp
 8002004:	461e      	mov	r6, r3
	uint8_t write_buffer[total_ic*6];
 8002006:	79fa      	ldrb	r2, [r7, #7]
 8002008:	4613      	mov	r3, r2
 800200a:	005b      	lsls	r3, r3, #1
 800200c:	4413      	add	r3, r2
 800200e:	005b      	lsls	r3, r3, #1
 8002010:	4619      	mov	r1, r3
 8002012:	1e4b      	subs	r3, r1, #1
 8002014:	613b      	str	r3, [r7, #16]
 8002016:	460a      	mov	r2, r1
 8002018:	2300      	movs	r3, #0
 800201a:	4690      	mov	r8, r2
 800201c:	4699      	mov	r9, r3
 800201e:	f04f 0200 	mov.w	r2, #0
 8002022:	f04f 0300 	mov.w	r3, #0
 8002026:	ea4f 03c9 	mov.w	r3, r9, lsl #3
 800202a:	ea43 7358 	orr.w	r3, r3, r8, lsr #29
 800202e:	ea4f 02c8 	mov.w	r2, r8, lsl #3
 8002032:	460a      	mov	r2, r1
 8002034:	2300      	movs	r3, #0
 8002036:	4614      	mov	r4, r2
 8002038:	461d      	mov	r5, r3
 800203a:	f04f 0200 	mov.w	r2, #0
 800203e:	f04f 0300 	mov.w	r3, #0
 8002042:	00eb      	lsls	r3, r5, #3
 8002044:	ea43 7354 	orr.w	r3, r3, r4, lsr #29
 8002048:	00e2      	lsls	r2, r4, #3
 800204a:	460b      	mov	r3, r1
 800204c:	3307      	adds	r3, #7
 800204e:	08db      	lsrs	r3, r3, #3
 8002050:	00db      	lsls	r3, r3, #3
 8002052:	ebad 0d03 	sub.w	sp, sp, r3
 8002056:	466b      	mov	r3, sp
 8002058:	3300      	adds	r3, #0
 800205a:	60fb      	str	r3, [r7, #12]
	uint8_t write_count = 0;
 800205c:	2300      	movs	r3, #0
 800205e:	75fb      	strb	r3, [r7, #23]
	uint8_t c_ic = 0;
 8002060:	2300      	movs	r3, #0
 8002062:	72fb      	strb	r3, [r7, #11]
	for (uint8_t current_ic = 0; current_ic<total_ic; current_ic++)
 8002064:	2300      	movs	r3, #0
 8002066:	75bb      	strb	r3, [r7, #22]
 8002068:	e01c      	b.n	80020a4 <ADBMS6830B_wrcfga+0xb0>
	{
		c_ic = current_ic;
 800206a:	7dbb      	ldrb	r3, [r7, #22]
 800206c:	72fb      	strb	r3, [r7, #11]
		for (uint8_t data = 0; data<6; data++)
 800206e:	2300      	movs	r3, #0
 8002070:	757b      	strb	r3, [r7, #21]
 8002072:	e011      	b.n	8002098 <ADBMS6830B_wrcfga+0xa4>
		{
			write_buffer[write_count] = ic[c_ic].configa.tx_data[data];
 8002074:	7afb      	ldrb	r3, [r7, #11]
 8002076:	f44f 7286 	mov.w	r2, #268	@ 0x10c
 800207a:	fb02 f303 	mul.w	r3, r2, r3
 800207e:	683a      	ldr	r2, [r7, #0]
 8002080:	18d1      	adds	r1, r2, r3
 8002082:	7d7a      	ldrb	r2, [r7, #21]
 8002084:	7dfb      	ldrb	r3, [r7, #23]
 8002086:	5c89      	ldrb	r1, [r1, r2]
 8002088:	68fa      	ldr	r2, [r7, #12]
 800208a:	54d1      	strb	r1, [r2, r3]
			write_count++;
 800208c:	7dfb      	ldrb	r3, [r7, #23]
 800208e:	3301      	adds	r3, #1
 8002090:	75fb      	strb	r3, [r7, #23]
		for (uint8_t data = 0; data<6; data++)
 8002092:	7d7b      	ldrb	r3, [r7, #21]
 8002094:	3301      	adds	r3, #1
 8002096:	757b      	strb	r3, [r7, #21]
 8002098:	7d7b      	ldrb	r3, [r7, #21]
 800209a:	2b05      	cmp	r3, #5
 800209c:	d9ea      	bls.n	8002074 <ADBMS6830B_wrcfga+0x80>
	for (uint8_t current_ic = 0; current_ic<total_ic; current_ic++)
 800209e:	7dbb      	ldrb	r3, [r7, #22]
 80020a0:	3301      	adds	r3, #1
 80020a2:	75bb      	strb	r3, [r7, #22]
 80020a4:	7dba      	ldrb	r2, [r7, #22]
 80020a6:	79fb      	ldrb	r3, [r7, #7]
 80020a8:	429a      	cmp	r2, r3
 80020aa:	d3de      	bcc.n	800206a <ADBMS6830B_wrcfga+0x76>
		}
	}

	transmitCMDW(WRCFGA,write_buffer);
 80020ac:	68f9      	ldr	r1, [r7, #12]
 80020ae:	2001      	movs	r0, #1
 80020b0:	f7ff f9a0 	bl	80013f4 <transmitCMDW>
 80020b4:	46b5      	mov	sp, r6
}
 80020b6:	bf00      	nop
 80020b8:	371c      	adds	r7, #28
 80020ba:	46bd      	mov	sp, r7
 80020bc:	e8bd 83f0 	ldmia.w	sp!, {r4, r5, r6, r7, r8, r9, pc}

080020c0 <ADBMS6830B_wrcfgb>:
}
/* Write the ADBMS6830B CFGRB */
void ADBMS6830B_wrcfgb(uint8_t total_ic, //The number of ICs being written to
                    cell_asic ic[] // A two dimensional array of the configuration data that will be written
                   )
{
 80020c0:	b580      	push	{r7, lr}
 80020c2:	b0c4      	sub	sp, #272	@ 0x110
 80020c4:	af00      	add	r7, sp, #0
 80020c6:	4602      	mov	r2, r0
 80020c8:	f507 7388 	add.w	r3, r7, #272	@ 0x110
 80020cc:	f5a3 7388 	sub.w	r3, r3, #272	@ 0x110
 80020d0:	6019      	str	r1, [r3, #0]
 80020d2:	f507 7388 	add.w	r3, r7, #272	@ 0x110
 80020d6:	f2a3 1309 	subw	r3, r3, #265	@ 0x109
 80020da:	701a      	strb	r2, [r3, #0]
	uint8_t write_buffer[256];
	uint8_t write_count = 0;
 80020dc:	2300      	movs	r3, #0
 80020de:	f887 310f 	strb.w	r3, [r7, #271]	@ 0x10f
	uint8_t c_ic = 0;
 80020e2:	2300      	movs	r3, #0
 80020e4:	f887 310c 	strb.w	r3, [r7, #268]	@ 0x10c

	for (uint8_t current_ic = 0; current_ic<total_ic; current_ic++)
 80020e8:	2300      	movs	r3, #0
 80020ea:	f887 310e 	strb.w	r3, [r7, #270]	@ 0x10e
 80020ee:	e031      	b.n	8002154 <ADBMS6830B_wrcfgb+0x94>
	{
		c_ic = current_ic;
 80020f0:	f897 310e 	ldrb.w	r3, [r7, #270]	@ 0x10e
 80020f4:	f887 310c 	strb.w	r3, [r7, #268]	@ 0x10c
		for (uint8_t data = 0; data<6; data++)
 80020f8:	2300      	movs	r3, #0
 80020fa:	f887 310d 	strb.w	r3, [r7, #269]	@ 0x10d
 80020fe:	e020      	b.n	8002142 <ADBMS6830B_wrcfgb+0x82>
		{
			write_buffer[write_count] = ic[c_ic].configb.tx_data[data];
 8002100:	f897 310c 	ldrb.w	r3, [r7, #268]	@ 0x10c
 8002104:	f44f 7286 	mov.w	r2, #268	@ 0x10c
 8002108:	fb02 f303 	mul.w	r3, r2, r3
 800210c:	f507 7288 	add.w	r2, r7, #272	@ 0x110
 8002110:	f5a2 7288 	sub.w	r2, r2, #272	@ 0x110
 8002114:	6812      	ldr	r2, [r2, #0]
 8002116:	18d1      	adds	r1, r2, r3
 8002118:	f897 210d 	ldrb.w	r2, [r7, #269]	@ 0x10d
 800211c:	f897 310f 	ldrb.w	r3, [r7, #271]	@ 0x10f
 8002120:	440a      	add	r2, r1
 8002122:	7bd1      	ldrb	r1, [r2, #15]
 8002124:	f507 7288 	add.w	r2, r7, #272	@ 0x110
 8002128:	f5a2 7282 	sub.w	r2, r2, #260	@ 0x104
 800212c:	54d1      	strb	r1, [r2, r3]
			write_count++;
 800212e:	f897 310f 	ldrb.w	r3, [r7, #271]	@ 0x10f
 8002132:	3301      	adds	r3, #1
 8002134:	f887 310f 	strb.w	r3, [r7, #271]	@ 0x10f
		for (uint8_t data = 0; data<6; data++)
 8002138:	f897 310d 	ldrb.w	r3, [r7, #269]	@ 0x10d
 800213c:	3301      	adds	r3, #1
 800213e:	f887 310d 	strb.w	r3, [r7, #269]	@ 0x10d
 8002142:	f897 310d 	ldrb.w	r3, [r7, #269]	@ 0x10d
 8002146:	2b05      	cmp	r3, #5
 8002148:	d9da      	bls.n	8002100 <ADBMS6830B_wrcfgb+0x40>
	for (uint8_t current_ic = 0; current_ic<total_ic; current_ic++)
 800214a:	f897 310e 	ldrb.w	r3, [r7, #270]	@ 0x10e
 800214e:	3301      	adds	r3, #1
 8002150:	f887 310e 	strb.w	r3, [r7, #270]	@ 0x10e
 8002154:	f507 7388 	add.w	r3, r7, #272	@ 0x110
 8002158:	f2a3 1309 	subw	r3, r3, #265	@ 0x109
 800215c:	f897 210e 	ldrb.w	r2, [r7, #270]	@ 0x10e
 8002160:	781b      	ldrb	r3, [r3, #0]
 8002162:	429a      	cmp	r2, r3
 8002164:	d3c4      	bcc.n	80020f0 <ADBMS6830B_wrcfgb+0x30>
		}
	}
	transmitCMDW(WRCFGB,write_buffer);
 8002166:	f107 030c 	add.w	r3, r7, #12
 800216a:	4619      	mov	r1, r3
 800216c:	2024      	movs	r0, #36	@ 0x24
 800216e:	f7ff f941 	bl	80013f4 <transmitCMDW>
}
 8002172:	bf00      	nop
 8002174:	f507 7788 	add.w	r7, r7, #272	@ 0x110
 8002178:	46bd      	mov	sp, r7
 800217a:	bd80      	pop	{r7, pc}

0800217c <wakeup_sleep>:
	}
	transmitCMDW(CLRFLAG, flagData);
}
/* Generic wakeup command to wake the ADBMS6830B from sleep state */
void wakeup_sleep(uint8_t total_ic) //Number of ICs in the system
{
 800217c:	b580      	push	{r7, lr}
 800217e:	b082      	sub	sp, #8
 8002180:	af00      	add	r7, sp, #0
 8002182:	4603      	mov	r3, r0
 8002184:	71fb      	strb	r3, [r7, #7]
	FEB_cs_low();
 8002186:	f000 f82d 	bl	80021e4 <FEB_cs_low>
	HAL_Delay(1);
 800218a:	2001      	movs	r0, #1
 800218c:	f000 ff04 	bl	8002f98 <HAL_Delay>
	FEB_cs_high();
 8002190:	f000 f834 	bl	80021fc <FEB_cs_high>
	HAL_Delay(2);
 8002194:	2002      	movs	r0, #2
 8002196:	f000 feff 	bl	8002f98 <HAL_Delay>
}
 800219a:	bf00      	nop
 800219c:	3708      	adds	r7, #8
 800219e:	46bd      	mov	sp, r7
 80021a0:	bd80      	pop	{r7, pc}
	...

080021a4 <FEB_Config_Get_Cell_Min_Voltage_mV>:
	}
}

/* ******** Interface ******** */

uint16_t FEB_Config_Get_Cell_Min_Voltage_mV(void) {
 80021a4:	b480      	push	{r7}
 80021a6:	b083      	sub	sp, #12
 80021a8:	af00      	add	r7, sp, #0
	//while (osMutexAcquire(FEB_SM_LockHandle, UINT32_MAX) != osOK);
	uint16_t value = cell_min_voltage_mV;
 80021aa:	4b05      	ldr	r3, [pc, #20]	@ (80021c0 <FEB_Config_Get_Cell_Min_Voltage_mV+0x1c>)
 80021ac:	881b      	ldrh	r3, [r3, #0]
 80021ae:	80fb      	strh	r3, [r7, #6]
	//osMutexRelease(FEB_SM_LockHandle);
	return value;
 80021b0:	88fb      	ldrh	r3, [r7, #6]
}
 80021b2:	4618      	mov	r0, r3
 80021b4:	370c      	adds	r7, #12
 80021b6:	46bd      	mov	sp, r7
 80021b8:	f85d 7b04 	ldr.w	r7, [sp], #4
 80021bc:	4770      	bx	lr
 80021be:	bf00      	nop
 80021c0:	20000400 	.word	0x20000400

080021c4 <FEB_Config_Get_Cell_Max_Voltage_mV>:

uint16_t FEB_Config_Get_Cell_Max_Voltage_mV(void) {
 80021c4:	b480      	push	{r7}
 80021c6:	b083      	sub	sp, #12
 80021c8:	af00      	add	r7, sp, #0
	//while (osMutexAcquire(FEB_SM_LockHandle, UINT32_MAX) != osOK);
	uint16_t value = cell_max_voltage_mV;
 80021ca:	4b05      	ldr	r3, [pc, #20]	@ (80021e0 <FEB_Config_Get_Cell_Max_Voltage_mV+0x1c>)
 80021cc:	881b      	ldrh	r3, [r3, #0]
 80021ce:	80fb      	strh	r3, [r7, #6]
	//osMutexRelease(FEB_SM_LockHandle);
	return value;
 80021d0:	88fb      	ldrh	r3, [r7, #6]
}
 80021d2:	4618      	mov	r0, r3
 80021d4:	370c      	adds	r7, #12
 80021d6:	46bd      	mov	sp, r7
 80021d8:	f85d 7b04 	ldr.w	r7, [sp], #4
 80021dc:	4770      	bx	lr
 80021de:	bf00      	nop
 80021e0:	20000402 	.word	0x20000402

080021e4 <FEB_cs_low>:
			if(period==10)period=4500;
		}

		HAL_GPIO_WritePin(GPIOC, GPIO_PIN_13, GPIO_PIN_RESET);
}
void FEB_cs_low() {
 80021e4:	b580      	push	{r7, lr}
 80021e6:	af00      	add	r7, sp, #0
	HAL_GPIO_WritePin(GPIOC, GPIO_PIN_3, GPIO_PIN_RESET);
 80021e8:	2200      	movs	r2, #0
 80021ea:	2108      	movs	r1, #8
 80021ec:	4802      	ldr	r0, [pc, #8]	@ (80021f8 <FEB_cs_low+0x14>)
 80021ee:	f001 fa69 	bl	80036c4 <HAL_GPIO_WritePin>
}
 80021f2:	bf00      	nop
 80021f4:	bd80      	pop	{r7, pc}
 80021f6:	bf00      	nop
 80021f8:	40020800 	.word	0x40020800

080021fc <FEB_cs_high>:


void FEB_cs_high() {
 80021fc:	b580      	push	{r7, lr}
 80021fe:	af00      	add	r7, sp, #0
	HAL_GPIO_WritePin(GPIOC, GPIO_PIN_3, GPIO_PIN_SET);
 8002200:	2201      	movs	r2, #1
 8002202:	2108      	movs	r1, #8
 8002204:	4802      	ldr	r0, [pc, #8]	@ (8002210 <FEB_cs_high+0x14>)
 8002206:	f001 fa5d 	bl	80036c4 <HAL_GPIO_WritePin>
}
 800220a:	bf00      	nop
 800220c:	bd80      	pop	{r7, pc}
 800220e:	bf00      	nop
 8002210:	40020800 	.word	0x40020800

08002214 <FEB_spi_write_array>:
void FEB_spi_write_array(
		uint16_t size,                     /*Option: Number of bytes to be written on the SPI port*/
		uint8_t *tx_Data                       /*Array of bytes to be written on the SPI port*/
		)
		{
 8002214:	b580      	push	{r7, lr}
 8002216:	b082      	sub	sp, #8
 8002218:	af00      	add	r7, sp, #0
 800221a:	4603      	mov	r3, r0
 800221c:	6039      	str	r1, [r7, #0]
 800221e:	80fb      	strh	r3, [r7, #6]
			HAL_SPI_Transmit(&hspi1, tx_Data, size, HAL_MAX_DELAY); /* SPI1 , data, size, timeout */
 8002220:	88fa      	ldrh	r2, [r7, #6]
 8002222:	f04f 33ff 	mov.w	r3, #4294967295
 8002226:	6839      	ldr	r1, [r7, #0]
 8002228:	4803      	ldr	r0, [pc, #12]	@ (8002238 <FEB_spi_write_array+0x24>)
 800222a:	f002 fa4c 	bl	80046c6 <HAL_SPI_Transmit>
		}
 800222e:	bf00      	nop
 8002230:	3708      	adds	r7, #8
 8002232:	46bd      	mov	sp, r7
 8002234:	bd80      	pop	{r7, pc}
 8002236:	bf00      	nop
 8002238:	20000480 	.word	0x20000480

0800223c <FEB_spi_write_read>:
		//catch error
	}
	return data;
}

void FEB_spi_write_read(uint8_t tx_Data[], uint8_t tx_len, uint8_t *rx_data, size_t rx_len) {
 800223c:	b580      	push	{r7, lr}
 800223e:	b084      	sub	sp, #16
 8002240:	af00      	add	r7, sp, #0
 8002242:	60f8      	str	r0, [r7, #12]
 8002244:	607a      	str	r2, [r7, #4]
 8002246:	603b      	str	r3, [r7, #0]
 8002248:	460b      	mov	r3, r1
 800224a:	72fb      	strb	r3, [r7, #11]
	HAL_SPI_Transmit(&hspi1,tx_Data,tx_len,HAL_MAX_DELAY);
 800224c:	7afb      	ldrb	r3, [r7, #11]
 800224e:	b29a      	uxth	r2, r3
 8002250:	f04f 33ff 	mov.w	r3, #4294967295
 8002254:	68f9      	ldr	r1, [r7, #12]
 8002256:	4807      	ldr	r0, [pc, #28]	@ (8002274 <FEB_spi_write_read+0x38>)
 8002258:	f002 fa35 	bl	80046c6 <HAL_SPI_Transmit>
		//catch error
	if(HAL_SPI_Receive(&hspi1,rx_data,rx_len,HAL_MAX_DELAY) != HAL_OK){
 800225c:	683b      	ldr	r3, [r7, #0]
 800225e:	b29a      	uxth	r2, r3
 8002260:	f04f 33ff 	mov.w	r3, #4294967295
 8002264:	6879      	ldr	r1, [r7, #4]
 8002266:	4803      	ldr	r0, [pc, #12]	@ (8002274 <FEB_spi_write_read+0x38>)
 8002268:	f002 fb71 	bl	800494e <HAL_SPI_Receive>
		//catch error
	}
	return;
 800226c:	bf00      	nop
}
 800226e:	3710      	adds	r7, #16
 8002270:	46bd      	mov	sp, r7
 8002272:	bd80      	pop	{r7, pc}
 8002274:	20000480 	.word	0x20000480

08002278 <FEB_Main_Setup>:
#include "FEB_Main.h"


// ******************************** Functions ********************************

void FEB_Main_Setup() {
 8002278:	b580      	push	{r7, lr}
 800227a:	af00      	add	r7, sp, #0
	//SM setup
	FEB_ADBMS_Init();
 800227c:	f7ff f902 	bl	8001484 <FEB_ADBMS_Init>
	//FEB_SM_Init();
	//FEB_CAN_Init();
	//IVT Setup
}
 8002280:	bf00      	nop
 8002282:	bd80      	pop	{r7, pc}

08002284 <FEB_Task_ADBMS>:

void FEB_Task_ADBMS() {
 8002284:	b580      	push	{r7, lr}
 8002286:	af00      	add	r7, sp, #0
	FEB_ADBMS_Voltage_Process();
 8002288:	f7ff f914 	bl	80014b4 <FEB_ADBMS_Voltage_Process>
	//FEB_Siren_Activate();
	//FEB_ADBMS_Temperature_Process();
	HAL_Delay(50);
 800228c:	2032      	movs	r0, #50	@ 0x32
 800228e:	f000 fe83 	bl	8002f98 <HAL_Delay>
}
 8002292:	bf00      	nop
 8002294:	bd80      	pop	{r7, pc}
	...

08002298 <FEB_ADBMS_UART_Transmit>:
// **************************************** Global Variables ********************************

static uint8_t counter = 0;

// **************************************** Functions ****************************************
void FEB_ADBMS_UART_Transmit(accumulator_t* FEB_ACC) {
 8002298:	e92d 4ff0 	stmdb	sp!, {r4, r5, r6, r7, r8, r9, sl, fp, lr}
 800229c:	b0b1      	sub	sp, #196	@ 0xc4
 800229e:	af00      	add	r7, sp, #0
 80022a0:	61f8      	str	r0, [r7, #28]
	int NUMLINES=3;
 80022a2:	2303      	movs	r3, #3
 80022a4:	f8c7 30b4 	str.w	r3, [r7, #180]	@ 0xb4
	for (uint8_t bank = 0; bank < FEB_NUM_BANKS; bank++) {
 80022a8:	2300      	movs	r3, #0
 80022aa:	f887 30bf 	strb.w	r3, [r7, #191]	@ 0xbf
 80022ae:	e199      	b.n	80025e4 <FEB_ADBMS_UART_Transmit+0x34c>
 80022b0:	466b      	mov	r3, sp
 80022b2:	61bb      	str	r3, [r7, #24]
		char UART_line[NUMLINES][32*FEB_NUM_CELLS_PER_IC*FEB_NUM_ICPBANK];
 80022b4:	f8d7 40b4 	ldr.w	r4, [r7, #180]	@ 0xb4
 80022b8:	1e63      	subs	r3, r4, #1
 80022ba:	f8c7 30ac 	str.w	r3, [r7, #172]	@ 0xac
 80022be:	4622      	mov	r2, r4
 80022c0:	2300      	movs	r3, #0
 80022c2:	613a      	str	r2, [r7, #16]
 80022c4:	617b      	str	r3, [r7, #20]
 80022c6:	e9d7 2304 	ldrd	r2, r3, [r7, #16]
 80022ca:	f04f 0000 	mov.w	r0, #0
 80022ce:	f04f 0100 	mov.w	r1, #0
 80022d2:	0099      	lsls	r1, r3, #2
 80022d4:	ea41 7192 	orr.w	r1, r1, r2, lsr #30
 80022d8:	0090      	lsls	r0, r2, #2
 80022da:	4602      	mov	r2, r0
 80022dc:	460b      	mov	r3, r1
 80022de:	6939      	ldr	r1, [r7, #16]
 80022e0:	eb12 0801 	adds.w	r8, r2, r1
 80022e4:	6979      	ldr	r1, [r7, #20]
 80022e6:	eb43 0901 	adc.w	r9, r3, r1
 80022ea:	f04f 0200 	mov.w	r2, #0
 80022ee:	f04f 0300 	mov.w	r3, #0
 80022f2:	ea4f 2349 	mov.w	r3, r9, lsl #9
 80022f6:	ea43 53d8 	orr.w	r3, r3, r8, lsr #23
 80022fa:	ea4f 2248 	mov.w	r2, r8, lsl #9
 80022fe:	4690      	mov	r8, r2
 8002300:	4699      	mov	r9, r3
 8002302:	4622      	mov	r2, r4
 8002304:	2300      	movs	r3, #0
 8002306:	60ba      	str	r2, [r7, #8]
 8002308:	60fb      	str	r3, [r7, #12]
 800230a:	e9d7 2302 	ldrd	r2, r3, [r7, #8]
 800230e:	f04f 0000 	mov.w	r0, #0
 8002312:	f04f 0100 	mov.w	r1, #0
 8002316:	0099      	lsls	r1, r3, #2
 8002318:	ea41 7192 	orr.w	r1, r1, r2, lsr #30
 800231c:	0090      	lsls	r0, r2, #2
 800231e:	4602      	mov	r2, r0
 8002320:	460b      	mov	r3, r1
 8002322:	68b9      	ldr	r1, [r7, #8]
 8002324:	eb12 0a01 	adds.w	sl, r2, r1
 8002328:	68f9      	ldr	r1, [r7, #12]
 800232a:	eb43 0b01 	adc.w	fp, r3, r1
 800232e:	f04f 0200 	mov.w	r2, #0
 8002332:	f04f 0300 	mov.w	r3, #0
 8002336:	ea4f 234b 	mov.w	r3, fp, lsl #9
 800233a:	ea43 53da 	orr.w	r3, r3, sl, lsr #23
 800233e:	ea4f 224a 	mov.w	r2, sl, lsl #9
 8002342:	4692      	mov	sl, r2
 8002344:	469b      	mov	fp, r3
 8002346:	4622      	mov	r2, r4
 8002348:	4613      	mov	r3, r2
 800234a:	009b      	lsls	r3, r3, #2
 800234c:	4413      	add	r3, r2
 800234e:	019b      	lsls	r3, r3, #6
 8002350:	3307      	adds	r3, #7
 8002352:	08db      	lsrs	r3, r3, #3
 8002354:	00db      	lsls	r3, r3, #3
 8002356:	ebad 0d03 	sub.w	sp, sp, r3
 800235a:	466b      	mov	r3, sp
 800235c:	3300      	adds	r3, #0
 800235e:	f8c7 30a8 	str.w	r3, [r7, #168]	@ 0xa8
		int offset[NUMLINES];
 8002362:	f8d7 10b4 	ldr.w	r1, [r7, #180]	@ 0xb4
 8002366:	1e4b      	subs	r3, r1, #1
 8002368:	f8c7 30a4 	str.w	r3, [r7, #164]	@ 0xa4
 800236c:	460a      	mov	r2, r1
 800236e:	2300      	movs	r3, #0
 8002370:	4615      	mov	r5, r2
 8002372:	461e      	mov	r6, r3
 8002374:	f04f 0200 	mov.w	r2, #0
 8002378:	f04f 0300 	mov.w	r3, #0
 800237c:	0173      	lsls	r3, r6, #5
 800237e:	ea43 63d5 	orr.w	r3, r3, r5, lsr #27
 8002382:	016a      	lsls	r2, r5, #5
 8002384:	460a      	mov	r2, r1
 8002386:	2300      	movs	r3, #0
 8002388:	603a      	str	r2, [r7, #0]
 800238a:	607b      	str	r3, [r7, #4]
 800238c:	f04f 0200 	mov.w	r2, #0
 8002390:	f04f 0300 	mov.w	r3, #0
 8002394:	6878      	ldr	r0, [r7, #4]
 8002396:	0143      	lsls	r3, r0, #5
 8002398:	6838      	ldr	r0, [r7, #0]
 800239a:	ea43 63d0 	orr.w	r3, r3, r0, lsr #27
 800239e:	6838      	ldr	r0, [r7, #0]
 80023a0:	0142      	lsls	r2, r0, #5
 80023a2:	460b      	mov	r3, r1
 80023a4:	009b      	lsls	r3, r3, #2
 80023a6:	3307      	adds	r3, #7
 80023a8:	08db      	lsrs	r3, r3, #3
 80023aa:	00db      	lsls	r3, r3, #3
 80023ac:	ebad 0d03 	sub.w	sp, sp, r3
 80023b0:	466b      	mov	r3, sp
 80023b2:	3303      	adds	r3, #3
 80023b4:	089b      	lsrs	r3, r3, #2
 80023b6:	009b      	lsls	r3, r3, #2
 80023b8:	f8c7 30a0 	str.w	r3, [r7, #160]	@ 0xa0
		offset[0]=sprintf((char*)(UART_line[0]),"|Bnk %d|",bank);
 80023bc:	f8d7 00a8 	ldr.w	r0, [r7, #168]	@ 0xa8
 80023c0:	f897 30bf 	ldrb.w	r3, [r7, #191]	@ 0xbf
 80023c4:	461a      	mov	r2, r3
 80023c6:	4996      	ldr	r1, [pc, #600]	@ (8002620 <FEB_ADBMS_UART_Transmit+0x388>)
 80023c8:	f004 fb68 	bl	8006a9c <siprintf>
 80023cc:	4602      	mov	r2, r0
 80023ce:	f8d7 30a0 	ldr.w	r3, [r7, #160]	@ 0xa0
 80023d2:	601a      	str	r2, [r3, #0]
		offset[1]=sprintf((char*)(UART_line[1]),"|Vlt C|");
 80023d4:	f8d7 30a8 	ldr.w	r3, [r7, #168]	@ 0xa8
 80023d8:	f503 73a0 	add.w	r3, r3, #320	@ 0x140
 80023dc:	4991      	ldr	r1, [pc, #580]	@ (8002624 <FEB_ADBMS_UART_Transmit+0x38c>)
 80023de:	4618      	mov	r0, r3
 80023e0:	f004 fb5c 	bl	8006a9c <siprintf>
 80023e4:	4602      	mov	r2, r0
 80023e6:	f8d7 30a0 	ldr.w	r3, [r7, #160]	@ 0xa0
 80023ea:	605a      	str	r2, [r3, #4]
		offset[2]=sprintf((char*)(UART_line[2]),"|Vlt S|");
 80023ec:	f8d7 30a8 	ldr.w	r3, [r7, #168]	@ 0xa8
 80023f0:	f503 7320 	add.w	r3, r3, #640	@ 0x280
 80023f4:	498c      	ldr	r1, [pc, #560]	@ (8002628 <FEB_ADBMS_UART_Transmit+0x390>)
 80023f6:	4618      	mov	r0, r3
 80023f8:	f004 fb50 	bl	8006a9c <siprintf>
 80023fc:	4602      	mov	r2, r0
 80023fe:	f8d7 30a0 	ldr.w	r3, [r7, #160]	@ 0xa0
 8002402:	609a      	str	r2, [r3, #8]
		//offset[3]=sprintf((char*)(UART_line[3]),"|Tmp 1|");
		//offset[4]=sprintf((char*)(UART_line[4]),"|Tmp 2|");
		//offset[4]=sprintf((char*)(UART_line[5]),"|PWM  |");

		for (uint8_t cell = 0; cell < FEB_NUM_CELLS_PER_IC*FEB_NUM_ICPBANK; cell++) {
 8002404:	2300      	movs	r3, #0
 8002406:	f887 30be 	strb.w	r3, [r7, #190]	@ 0xbe
 800240a:	e074      	b.n	80024f6 <FEB_ADBMS_UART_Transmit+0x25e>
			offset[0]+=sprintf(((char*)(UART_line[0]) + offset[0]), (cell>=10)?"Cell  %d|":"Cell   %d|",cell);
 800240c:	f8d7 20a8 	ldr.w	r2, [r7, #168]	@ 0xa8
 8002410:	f8d7 30a0 	ldr.w	r3, [r7, #160]	@ 0xa0
 8002414:	681b      	ldr	r3, [r3, #0]
 8002416:	18d0      	adds	r0, r2, r3
 8002418:	f897 30be 	ldrb.w	r3, [r7, #190]	@ 0xbe
 800241c:	2b09      	cmp	r3, #9
 800241e:	d901      	bls.n	8002424 <FEB_ADBMS_UART_Transmit+0x18c>
 8002420:	4982      	ldr	r1, [pc, #520]	@ (800262c <FEB_ADBMS_UART_Transmit+0x394>)
 8002422:	e000      	b.n	8002426 <FEB_ADBMS_UART_Transmit+0x18e>
 8002424:	4982      	ldr	r1, [pc, #520]	@ (8002630 <FEB_ADBMS_UART_Transmit+0x398>)
 8002426:	f897 30be 	ldrb.w	r3, [r7, #190]	@ 0xbe
 800242a:	461a      	mov	r2, r3
 800242c:	f004 fb36 	bl	8006a9c <siprintf>
 8002430:	4602      	mov	r2, r0
 8002432:	f8d7 30a0 	ldr.w	r3, [r7, #160]	@ 0xa0
 8002436:	681b      	ldr	r3, [r3, #0]
 8002438:	441a      	add	r2, r3
 800243a:	f8d7 30a0 	ldr.w	r3, [r7, #160]	@ 0xa0
 800243e:	601a      	str	r2, [r3, #0]
			offset[1]+=sprintf(((char*)(UART_line[1]) + offset[1]), "%.6f|",FEB_ACC->banks[bank].cells[cell].voltage_V);
 8002440:	f8d7 30a8 	ldr.w	r3, [r7, #168]	@ 0xa8
 8002444:	f503 72a0 	add.w	r2, r3, #320	@ 0x140
 8002448:	f8d7 30a0 	ldr.w	r3, [r7, #160]	@ 0xa0
 800244c:	685b      	ldr	r3, [r3, #4]
 800244e:	18d4      	adds	r4, r2, r3
 8002450:	f897 10bf 	ldrb.w	r1, [r7, #191]	@ 0xbf
 8002454:	f897 30be 	ldrb.w	r3, [r7, #190]	@ 0xbe
 8002458:	69f8      	ldr	r0, [r7, #28]
 800245a:	461a      	mov	r2, r3
 800245c:	0052      	lsls	r2, r2, #1
 800245e:	441a      	add	r2, r3
 8002460:	0093      	lsls	r3, r2, #2
 8002462:	461a      	mov	r2, r3
 8002464:	460b      	mov	r3, r1
 8002466:	019b      	lsls	r3, r3, #6
 8002468:	1a5b      	subs	r3, r3, r1
 800246a:	009b      	lsls	r3, r3, #2
 800246c:	4413      	add	r3, r2
 800246e:	4403      	add	r3, r0
 8002470:	3388      	adds	r3, #136	@ 0x88
 8002472:	681b      	ldr	r3, [r3, #0]
 8002474:	4618      	mov	r0, r3
 8002476:	f7fe f887 	bl	8000588 <__aeabi_f2d>
 800247a:	4602      	mov	r2, r0
 800247c:	460b      	mov	r3, r1
 800247e:	496d      	ldr	r1, [pc, #436]	@ (8002634 <FEB_ADBMS_UART_Transmit+0x39c>)
 8002480:	4620      	mov	r0, r4
 8002482:	f004 fb0b 	bl	8006a9c <siprintf>
 8002486:	4602      	mov	r2, r0
 8002488:	f8d7 30a0 	ldr.w	r3, [r7, #160]	@ 0xa0
 800248c:	685b      	ldr	r3, [r3, #4]
 800248e:	441a      	add	r2, r3
 8002490:	f8d7 30a0 	ldr.w	r3, [r7, #160]	@ 0xa0
 8002494:	605a      	str	r2, [r3, #4]
			offset[2]+=sprintf(((char*)(UART_line[2]) + offset[2]), "%.6f|",FEB_ACC->banks[bank].cells[cell].voltage_S);
 8002496:	f8d7 30a8 	ldr.w	r3, [r7, #168]	@ 0xa8
 800249a:	f503 7220 	add.w	r2, r3, #640	@ 0x280
 800249e:	f8d7 30a0 	ldr.w	r3, [r7, #160]	@ 0xa0
 80024a2:	689b      	ldr	r3, [r3, #8]
 80024a4:	18d4      	adds	r4, r2, r3
 80024a6:	f897 10bf 	ldrb.w	r1, [r7, #191]	@ 0xbf
 80024aa:	f897 30be 	ldrb.w	r3, [r7, #190]	@ 0xbe
 80024ae:	69f8      	ldr	r0, [r7, #28]
 80024b0:	461a      	mov	r2, r3
 80024b2:	0052      	lsls	r2, r2, #1
 80024b4:	441a      	add	r2, r3
 80024b6:	0093      	lsls	r3, r2, #2
 80024b8:	461a      	mov	r2, r3
 80024ba:	460b      	mov	r3, r1
 80024bc:	019b      	lsls	r3, r3, #6
 80024be:	1a5b      	subs	r3, r3, r1
 80024c0:	009b      	lsls	r3, r3, #2
 80024c2:	4413      	add	r3, r2
 80024c4:	4403      	add	r3, r0
 80024c6:	338c      	adds	r3, #140	@ 0x8c
 80024c8:	681b      	ldr	r3, [r3, #0]
 80024ca:	4618      	mov	r0, r3
 80024cc:	f7fe f85c 	bl	8000588 <__aeabi_f2d>
 80024d0:	4602      	mov	r2, r0
 80024d2:	460b      	mov	r3, r1
 80024d4:	4957      	ldr	r1, [pc, #348]	@ (8002634 <FEB_ADBMS_UART_Transmit+0x39c>)
 80024d6:	4620      	mov	r0, r4
 80024d8:	f004 fae0 	bl	8006a9c <siprintf>
 80024dc:	4602      	mov	r2, r0
 80024de:	f8d7 30a0 	ldr.w	r3, [r7, #160]	@ 0xa0
 80024e2:	689b      	ldr	r3, [r3, #8]
 80024e4:	441a      	add	r2, r3
 80024e6:	f8d7 30a0 	ldr.w	r3, [r7, #160]	@ 0xa0
 80024ea:	609a      	str	r2, [r3, #8]
		for (uint8_t cell = 0; cell < FEB_NUM_CELLS_PER_IC*FEB_NUM_ICPBANK; cell++) {
 80024ec:	f897 30be 	ldrb.w	r3, [r7, #190]	@ 0xbe
 80024f0:	3301      	adds	r3, #1
 80024f2:	f887 30be 	strb.w	r3, [r7, #190]	@ 0xbe
 80024f6:	f897 30be 	ldrb.w	r3, [r7, #190]	@ 0xbe
 80024fa:	2b09      	cmp	r3, #9
 80024fc:	d986      	bls.n	800240c <FEB_ADBMS_UART_Transmit+0x174>
			//offset[3]+=sprintf(((char*)(UART_line[3]) + offset[3]), "%.6f|",FEB_ACC.banks[bank].temp_sensor_readings_V[cell]); // @suppress("Float formatting support")
			//offset[4]+=sprintf(((char*)(UART_line[4]) + offset[4]), "%.6f|",FEB_ACC.banks[bank].temp_sensor_readings_V[cell]);
			//offset[5]+=sprintf(((char*)(UART_line[4]) + offset[4]), "%X|",FEB_ACC.banks[bank].temp_sensor_readings_V[cell+16]);
		}
		offset[NUMLINES-1]+=sprintf(((char*)(UART_line[NUMLINES-1]) + offset[NUMLINES-1]), "\n\r");
 80024fe:	f8d7 30b4 	ldr.w	r3, [r7, #180]	@ 0xb4
 8002502:	1e5a      	subs	r2, r3, #1
 8002504:	4613      	mov	r3, r2
 8002506:	009b      	lsls	r3, r3, #2
 8002508:	4413      	add	r3, r2
 800250a:	019b      	lsls	r3, r3, #6
 800250c:	f8d7 20a8 	ldr.w	r2, [r7, #168]	@ 0xa8
 8002510:	18d1      	adds	r1, r2, r3
 8002512:	f8d7 30b4 	ldr.w	r3, [r7, #180]	@ 0xb4
 8002516:	1e5a      	subs	r2, r3, #1
 8002518:	f8d7 30a0 	ldr.w	r3, [r7, #160]	@ 0xa0
 800251c:	f853 3022 	ldr.w	r3, [r3, r2, lsl #2]
 8002520:	440b      	add	r3, r1
 8002522:	4945      	ldr	r1, [pc, #276]	@ (8002638 <FEB_ADBMS_UART_Transmit+0x3a0>)
 8002524:	4618      	mov	r0, r3
 8002526:	f004 fab9 	bl	8006a9c <siprintf>
 800252a:	f8d7 30b4 	ldr.w	r3, [r7, #180]	@ 0xb4
 800252e:	1e5a      	subs	r2, r3, #1
 8002530:	f8d7 30a0 	ldr.w	r3, [r7, #160]	@ 0xa0
 8002534:	f853 2022 	ldr.w	r2, [r3, r2, lsl #2]
 8002538:	f8d7 30b4 	ldr.w	r3, [r7, #180]	@ 0xb4
 800253c:	1e59      	subs	r1, r3, #1
 800253e:	4402      	add	r2, r0
 8002540:	f8d7 30a0 	ldr.w	r3, [r7, #160]	@ 0xa0
 8002544:	f843 2021 	str.w	r2, [r3, r1, lsl #2]
		for(int line=0;line<NUMLINES;line++){
 8002548:	2300      	movs	r3, #0
 800254a:	f8c7 30b8 	str.w	r3, [r7, #184]	@ 0xb8
 800254e:	e03c      	b.n	80025ca <FEB_ADBMS_UART_Transmit+0x332>
			offset[line]+=sprintf(((char*)(UART_line[line]) + offset[line]), "\n\r") ;
 8002550:	f8d7 20b8 	ldr.w	r2, [r7, #184]	@ 0xb8
 8002554:	4613      	mov	r3, r2
 8002556:	009b      	lsls	r3, r3, #2
 8002558:	4413      	add	r3, r2
 800255a:	019b      	lsls	r3, r3, #6
 800255c:	f8d7 20a8 	ldr.w	r2, [r7, #168]	@ 0xa8
 8002560:	18d1      	adds	r1, r2, r3
 8002562:	f8d7 20a0 	ldr.w	r2, [r7, #160]	@ 0xa0
 8002566:	f8d7 30b8 	ldr.w	r3, [r7, #184]	@ 0xb8
 800256a:	f852 3023 	ldr.w	r3, [r2, r3, lsl #2]
 800256e:	440b      	add	r3, r1
 8002570:	4931      	ldr	r1, [pc, #196]	@ (8002638 <FEB_ADBMS_UART_Transmit+0x3a0>)
 8002572:	4618      	mov	r0, r3
 8002574:	f004 fa92 	bl	8006a9c <siprintf>
 8002578:	4601      	mov	r1, r0
 800257a:	f8d7 20a0 	ldr.w	r2, [r7, #160]	@ 0xa0
 800257e:	f8d7 30b8 	ldr.w	r3, [r7, #184]	@ 0xb8
 8002582:	f852 3023 	ldr.w	r3, [r2, r3, lsl #2]
 8002586:	4419      	add	r1, r3
 8002588:	f8d7 20a0 	ldr.w	r2, [r7, #160]	@ 0xa0
 800258c:	f8d7 30b8 	ldr.w	r3, [r7, #184]	@ 0xb8
 8002590:	f842 1023 	str.w	r1, [r2, r3, lsl #2]
			HAL_UART_Transmit(&huart2, (uint8_t*) UART_line[line], offset[line]+1, 100);
 8002594:	f8d7 20b8 	ldr.w	r2, [r7, #184]	@ 0xb8
 8002598:	4613      	mov	r3, r2
 800259a:	009b      	lsls	r3, r3, #2
 800259c:	4413      	add	r3, r2
 800259e:	019b      	lsls	r3, r3, #6
 80025a0:	f8d7 20a8 	ldr.w	r2, [r7, #168]	@ 0xa8
 80025a4:	18d1      	adds	r1, r2, r3
 80025a6:	f8d7 20a0 	ldr.w	r2, [r7, #160]	@ 0xa0
 80025aa:	f8d7 30b8 	ldr.w	r3, [r7, #184]	@ 0xb8
 80025ae:	f852 3023 	ldr.w	r3, [r2, r3, lsl #2]
 80025b2:	b29b      	uxth	r3, r3
 80025b4:	3301      	adds	r3, #1
 80025b6:	b29a      	uxth	r2, r3
 80025b8:	2364      	movs	r3, #100	@ 0x64
 80025ba:	4820      	ldr	r0, [pc, #128]	@ (800263c <FEB_ADBMS_UART_Transmit+0x3a4>)
 80025bc:	f003 f8be 	bl	800573c <HAL_UART_Transmit>
		for(int line=0;line<NUMLINES;line++){
 80025c0:	f8d7 30b8 	ldr.w	r3, [r7, #184]	@ 0xb8
 80025c4:	3301      	adds	r3, #1
 80025c6:	f8c7 30b8 	str.w	r3, [r7, #184]	@ 0xb8
 80025ca:	f8d7 20b8 	ldr.w	r2, [r7, #184]	@ 0xb8
 80025ce:	f8d7 30b4 	ldr.w	r3, [r7, #180]	@ 0xb4
 80025d2:	429a      	cmp	r2, r3
 80025d4:	dbbc      	blt.n	8002550 <FEB_ADBMS_UART_Transmit+0x2b8>
 80025d6:	f8d7 d018 	ldr.w	sp, [r7, #24]
	for (uint8_t bank = 0; bank < FEB_NUM_BANKS; bank++) {
 80025da:	f897 30bf 	ldrb.w	r3, [r7, #191]	@ 0xbf
 80025de:	3301      	adds	r3, #1
 80025e0:	f887 30bf 	strb.w	r3, [r7, #191]	@ 0xbf
 80025e4:	f897 30bf 	ldrb.w	r3, [r7, #191]	@ 0xbf
 80025e8:	2b00      	cmp	r3, #0
 80025ea:	f43f ae61 	beq.w	80022b0 <FEB_ADBMS_UART_Transmit+0x18>
		}

	}
	char UART_line[128];
	size_t len =sprintf( (UART_line) , "------------------------------------------------------------------------------------------------\n\r\n\r");
 80025ee:	f107 0320 	add.w	r3, r7, #32
 80025f2:	4913      	ldr	r1, [pc, #76]	@ (8002640 <FEB_ADBMS_UART_Transmit+0x3a8>)
 80025f4:	4618      	mov	r0, r3
 80025f6:	f004 fa51 	bl	8006a9c <siprintf>
 80025fa:	4603      	mov	r3, r0
 80025fc:	f8c7 30b0 	str.w	r3, [r7, #176]	@ 0xb0
	HAL_UART_Transmit(&huart2, (uint8_t*) UART_line, len+1, 100);
 8002600:	f8d7 30b0 	ldr.w	r3, [r7, #176]	@ 0xb0
 8002604:	b29b      	uxth	r3, r3
 8002606:	3301      	adds	r3, #1
 8002608:	b29a      	uxth	r2, r3
 800260a:	f107 0120 	add.w	r1, r7, #32
 800260e:	2364      	movs	r3, #100	@ 0x64
 8002610:	480a      	ldr	r0, [pc, #40]	@ (800263c <FEB_ADBMS_UART_Transmit+0x3a4>)
 8002612:	f003 f893 	bl	800573c <HAL_UART_Transmit>
}
 8002616:	bf00      	nop
 8002618:	37c4      	adds	r7, #196	@ 0xc4
 800261a:	46bd      	mov	sp, r7
 800261c:	e8bd 8ff0 	ldmia.w	sp!, {r4, r5, r6, r7, r8, r9, sl, fp, pc}
 8002620:	08008c28 	.word	0x08008c28
 8002624:	08008c34 	.word	0x08008c34
 8002628:	08008c3c 	.word	0x08008c3c
 800262c:	08008c44 	.word	0x08008c44
 8002630:	08008c50 	.word	0x08008c50
 8002634:	08008c5c 	.word	0x08008c5c
 8002638:	08008c64 	.word	0x08008c64
 800263c:	200004d8 	.word	0x200004d8
 8002640:	08008c68 	.word	0x08008c68

08002644 <main>:
/**
  * @brief  The application entry point.
  * @retval int
  */
int main(void)
{
 8002644:	b580      	push	{r7, lr}
 8002646:	af00      	add	r7, sp, #0
  /* USER CODE END 1 */

  /* MCU Configuration--------------------------------------------------------*/

  /* Reset of all peripherals, Initializes the Flash interface and the Systick. */
  HAL_Init();
 8002648:	f000 fc64 	bl	8002f14 <HAL_Init>
  /* USER CODE BEGIN Init */

  /* USER CODE END Init */

  /* Configure the system clock */
  SystemClock_Config();
 800264c:	f000 f810 	bl	8002670 <SystemClock_Config>
  /* USER CODE BEGIN SysInit */

  /* USER CODE END SysInit */

  /* Initialize all configured peripherals */
  MX_GPIO_Init();
 8002650:	f000 f93c 	bl	80028cc <MX_GPIO_Init>
  MX_USART2_UART_Init();
 8002654:	f000 f910 	bl	8002878 <MX_USART2_UART_Init>
  MX_SPI1_Init();
 8002658:	f000 f8d8 	bl	800280c <MX_SPI1_Init>
  MX_CAN1_Init();
 800265c:	f000 f874 	bl	8002748 <MX_CAN1_Init>
  MX_I2C1_Init();
 8002660:	f000 f8a6 	bl	80027b0 <MX_I2C1_Init>
  /* USER CODE BEGIN 2 */

  FEB_Main_Setup();
 8002664:	f7ff fe08 	bl	8002278 <FEB_Main_Setup>
  while (1)
  {
    /* USER CODE END WHILE */

    /* USER CODE BEGIN 3 */
	  FEB_Task_ADBMS();
 8002668:	f7ff fe0c 	bl	8002284 <FEB_Task_ADBMS>
 800266c:	e7fc      	b.n	8002668 <main+0x24>
	...

08002670 <SystemClock_Config>:
/**
  * @brief System Clock Configuration
  * @retval None
  */
void SystemClock_Config(void)
{
 8002670:	b580      	push	{r7, lr}
 8002672:	b094      	sub	sp, #80	@ 0x50
 8002674:	af00      	add	r7, sp, #0
  RCC_OscInitTypeDef RCC_OscInitStruct = {0};
 8002676:	f107 031c 	add.w	r3, r7, #28
 800267a:	2234      	movs	r2, #52	@ 0x34
 800267c:	2100      	movs	r1, #0
 800267e:	4618      	mov	r0, r3
 8002680:	f004 fa6f 	bl	8006b62 <memset>
  RCC_ClkInitTypeDef RCC_ClkInitStruct = {0};
 8002684:	f107 0308 	add.w	r3, r7, #8
 8002688:	2200      	movs	r2, #0
 800268a:	601a      	str	r2, [r3, #0]
 800268c:	605a      	str	r2, [r3, #4]
 800268e:	609a      	str	r2, [r3, #8]
 8002690:	60da      	str	r2, [r3, #12]
 8002692:	611a      	str	r2, [r3, #16]

  /** Configure the main internal regulator output voltage
  */
  __HAL_RCC_PWR_CLK_ENABLE();
 8002694:	2300      	movs	r3, #0
 8002696:	607b      	str	r3, [r7, #4]
 8002698:	4b29      	ldr	r3, [pc, #164]	@ (8002740 <SystemClock_Config+0xd0>)
 800269a:	6c1b      	ldr	r3, [r3, #64]	@ 0x40
 800269c:	4a28      	ldr	r2, [pc, #160]	@ (8002740 <SystemClock_Config+0xd0>)
 800269e:	f043 5380 	orr.w	r3, r3, #268435456	@ 0x10000000
 80026a2:	6413      	str	r3, [r2, #64]	@ 0x40
 80026a4:	4b26      	ldr	r3, [pc, #152]	@ (8002740 <SystemClock_Config+0xd0>)
 80026a6:	6c1b      	ldr	r3, [r3, #64]	@ 0x40
 80026a8:	f003 5380 	and.w	r3, r3, #268435456	@ 0x10000000
 80026ac:	607b      	str	r3, [r7, #4]
 80026ae:	687b      	ldr	r3, [r7, #4]
  __HAL_PWR_VOLTAGESCALING_CONFIG(PWR_REGULATOR_VOLTAGE_SCALE1);
 80026b0:	2300      	movs	r3, #0
 80026b2:	603b      	str	r3, [r7, #0]
 80026b4:	4b23      	ldr	r3, [pc, #140]	@ (8002744 <SystemClock_Config+0xd4>)
 80026b6:	681b      	ldr	r3, [r3, #0]
 80026b8:	4a22      	ldr	r2, [pc, #136]	@ (8002744 <SystemClock_Config+0xd4>)
 80026ba:	f443 4340 	orr.w	r3, r3, #49152	@ 0xc000
 80026be:	6013      	str	r3, [r2, #0]
 80026c0:	4b20      	ldr	r3, [pc, #128]	@ (8002744 <SystemClock_Config+0xd4>)
 80026c2:	681b      	ldr	r3, [r3, #0]
 80026c4:	f403 4340 	and.w	r3, r3, #49152	@ 0xc000
 80026c8:	603b      	str	r3, [r7, #0]
 80026ca:	683b      	ldr	r3, [r7, #0]

  /** Initializes the RCC Oscillators according to the specified parameters
  * in the RCC_OscInitTypeDef structure.
  */
  RCC_OscInitStruct.OscillatorType = RCC_OSCILLATORTYPE_HSE;
 80026cc:	2301      	movs	r3, #1
 80026ce:	61fb      	str	r3, [r7, #28]
  RCC_OscInitStruct.HSEState = RCC_HSE_ON;
 80026d0:	f44f 3380 	mov.w	r3, #65536	@ 0x10000
 80026d4:	623b      	str	r3, [r7, #32]
  RCC_OscInitStruct.PLL.PLLState = RCC_PLL_ON;
 80026d6:	2302      	movs	r3, #2
 80026d8:	637b      	str	r3, [r7, #52]	@ 0x34
  RCC_OscInitStruct.PLL.PLLSource = RCC_PLLSOURCE_HSE;
 80026da:	f44f 0380 	mov.w	r3, #4194304	@ 0x400000
 80026de:	63bb      	str	r3, [r7, #56]	@ 0x38
  RCC_OscInitStruct.PLL.PLLM = 4;
 80026e0:	2304      	movs	r3, #4
 80026e2:	63fb      	str	r3, [r7, #60]	@ 0x3c
  RCC_OscInitStruct.PLL.PLLN = 160;
 80026e4:	23a0      	movs	r3, #160	@ 0xa0
 80026e6:	643b      	str	r3, [r7, #64]	@ 0x40
  RCC_OscInitStruct.PLL.PLLP = RCC_PLLP_DIV2;
 80026e8:	2302      	movs	r3, #2
 80026ea:	647b      	str	r3, [r7, #68]	@ 0x44
  RCC_OscInitStruct.PLL.PLLQ = 2;
 80026ec:	2302      	movs	r3, #2
 80026ee:	64bb      	str	r3, [r7, #72]	@ 0x48
  RCC_OscInitStruct.PLL.PLLR = 2;
 80026f0:	2302      	movs	r3, #2
 80026f2:	64fb      	str	r3, [r7, #76]	@ 0x4c
  if (HAL_RCC_OscConfig(&RCC_OscInitStruct) != HAL_OK)
 80026f4:	f107 031c 	add.w	r3, r7, #28
 80026f8:	4618      	mov	r0, r3
 80026fa:	f001 fcbd 	bl	8004078 <HAL_RCC_OscConfig>
 80026fe:	4603      	mov	r3, r0
 8002700:	2b00      	cmp	r3, #0
 8002702:	d001      	beq.n	8002708 <SystemClock_Config+0x98>
  {
    Error_Handler();
 8002704:	f000 f9ce 	bl	8002aa4 <Error_Handler>
  }

  /** Initializes the CPU, AHB and APB buses clocks
  */
  RCC_ClkInitStruct.ClockType = RCC_CLOCKTYPE_HCLK|RCC_CLOCKTYPE_SYSCLK
 8002708:	230f      	movs	r3, #15
 800270a:	60bb      	str	r3, [r7, #8]
                              |RCC_CLOCKTYPE_PCLK1|RCC_CLOCKTYPE_PCLK2;
  RCC_ClkInitStruct.SYSCLKSource = RCC_SYSCLKSOURCE_PLLCLK;
 800270c:	2302      	movs	r3, #2
 800270e:	60fb      	str	r3, [r7, #12]
  RCC_ClkInitStruct.AHBCLKDivider = RCC_SYSCLK_DIV1;
 8002710:	2300      	movs	r3, #0
 8002712:	613b      	str	r3, [r7, #16]
  RCC_ClkInitStruct.APB1CLKDivider = RCC_HCLK_DIV4;
 8002714:	f44f 53a0 	mov.w	r3, #5120	@ 0x1400
 8002718:	617b      	str	r3, [r7, #20]
  RCC_ClkInitStruct.APB2CLKDivider = RCC_HCLK_DIV2;
 800271a:	f44f 5380 	mov.w	r3, #4096	@ 0x1000
 800271e:	61bb      	str	r3, [r7, #24]

  if (HAL_RCC_ClockConfig(&RCC_ClkInitStruct, FLASH_LATENCY_5) != HAL_OK)
 8002720:	f107 0308 	add.w	r3, r7, #8
 8002724:	2105      	movs	r1, #5
 8002726:	4618      	mov	r0, r3
 8002728:	f001 f92a 	bl	8003980 <HAL_RCC_ClockConfig>
 800272c:	4603      	mov	r3, r0
 800272e:	2b00      	cmp	r3, #0
 8002730:	d001      	beq.n	8002736 <SystemClock_Config+0xc6>
  {
    Error_Handler();
 8002732:	f000 f9b7 	bl	8002aa4 <Error_Handler>
  }
}
 8002736:	bf00      	nop
 8002738:	3750      	adds	r7, #80	@ 0x50
 800273a:	46bd      	mov	sp, r7
 800273c:	bd80      	pop	{r7, pc}
 800273e:	bf00      	nop
 8002740:	40023800 	.word	0x40023800
 8002744:	40007000 	.word	0x40007000

08002748 <MX_CAN1_Init>:
  * @brief CAN1 Initialization Function
  * @param None
  * @retval None
  */
static void MX_CAN1_Init(void)
{
 8002748:	b580      	push	{r7, lr}
 800274a:	af00      	add	r7, sp, #0
  /* USER CODE END CAN1_Init 0 */

  /* USER CODE BEGIN CAN1_Init 1 */

  /* USER CODE END CAN1_Init 1 */
  hcan1.Instance = CAN1;
 800274c:	4b16      	ldr	r3, [pc, #88]	@ (80027a8 <MX_CAN1_Init+0x60>)
 800274e:	4a17      	ldr	r2, [pc, #92]	@ (80027ac <MX_CAN1_Init+0x64>)
 8002750:	601a      	str	r2, [r3, #0]
  hcan1.Init.Prescaler = 16;
 8002752:	4b15      	ldr	r3, [pc, #84]	@ (80027a8 <MX_CAN1_Init+0x60>)
 8002754:	2210      	movs	r2, #16
 8002756:	605a      	str	r2, [r3, #4]
  hcan1.Init.Mode = CAN_MODE_NORMAL;
 8002758:	4b13      	ldr	r3, [pc, #76]	@ (80027a8 <MX_CAN1_Init+0x60>)
 800275a:	2200      	movs	r2, #0
 800275c:	609a      	str	r2, [r3, #8]
  hcan1.Init.SyncJumpWidth = CAN_SJW_1TQ;
 800275e:	4b12      	ldr	r3, [pc, #72]	@ (80027a8 <MX_CAN1_Init+0x60>)
 8002760:	2200      	movs	r2, #0
 8002762:	60da      	str	r2, [r3, #12]
  hcan1.Init.TimeSeg1 = CAN_BS1_1TQ;
 8002764:	4b10      	ldr	r3, [pc, #64]	@ (80027a8 <MX_CAN1_Init+0x60>)
 8002766:	2200      	movs	r2, #0
 8002768:	611a      	str	r2, [r3, #16]
  hcan1.Init.TimeSeg2 = CAN_BS2_1TQ;
 800276a:	4b0f      	ldr	r3, [pc, #60]	@ (80027a8 <MX_CAN1_Init+0x60>)
 800276c:	2200      	movs	r2, #0
 800276e:	615a      	str	r2, [r3, #20]
  hcan1.Init.TimeTriggeredMode = DISABLE;
 8002770:	4b0d      	ldr	r3, [pc, #52]	@ (80027a8 <MX_CAN1_Init+0x60>)
 8002772:	2200      	movs	r2, #0
 8002774:	761a      	strb	r2, [r3, #24]
  hcan1.Init.AutoBusOff = DISABLE;
 8002776:	4b0c      	ldr	r3, [pc, #48]	@ (80027a8 <MX_CAN1_Init+0x60>)
 8002778:	2200      	movs	r2, #0
 800277a:	765a      	strb	r2, [r3, #25]
  hcan1.Init.AutoWakeUp = DISABLE;
 800277c:	4b0a      	ldr	r3, [pc, #40]	@ (80027a8 <MX_CAN1_Init+0x60>)
 800277e:	2200      	movs	r2, #0
 8002780:	769a      	strb	r2, [r3, #26]
  hcan1.Init.AutoRetransmission = DISABLE;
 8002782:	4b09      	ldr	r3, [pc, #36]	@ (80027a8 <MX_CAN1_Init+0x60>)
 8002784:	2200      	movs	r2, #0
 8002786:	76da      	strb	r2, [r3, #27]
  hcan1.Init.ReceiveFifoLocked = DISABLE;
 8002788:	4b07      	ldr	r3, [pc, #28]	@ (80027a8 <MX_CAN1_Init+0x60>)
 800278a:	2200      	movs	r2, #0
 800278c:	771a      	strb	r2, [r3, #28]
  hcan1.Init.TransmitFifoPriority = DISABLE;
 800278e:	4b06      	ldr	r3, [pc, #24]	@ (80027a8 <MX_CAN1_Init+0x60>)
 8002790:	2200      	movs	r2, #0
 8002792:	775a      	strb	r2, [r3, #29]
  if (HAL_CAN_Init(&hcan1) != HAL_OK)
 8002794:	4804      	ldr	r0, [pc, #16]	@ (80027a8 <MX_CAN1_Init+0x60>)
 8002796:	f000 fc23 	bl	8002fe0 <HAL_CAN_Init>
 800279a:	4603      	mov	r3, r0
 800279c:	2b00      	cmp	r3, #0
 800279e:	d001      	beq.n	80027a4 <MX_CAN1_Init+0x5c>
  {
    Error_Handler();
 80027a0:	f000 f980 	bl	8002aa4 <Error_Handler>
  }
  /* USER CODE BEGIN CAN1_Init 2 */

  /* USER CODE END CAN1_Init 2 */

}
 80027a4:	bf00      	nop
 80027a6:	bd80      	pop	{r7, pc}
 80027a8:	20000404 	.word	0x20000404
 80027ac:	40006400 	.word	0x40006400

080027b0 <MX_I2C1_Init>:
  * @brief I2C1 Initialization Function
  * @param None
  * @retval None
  */
static void MX_I2C1_Init(void)
{
 80027b0:	b580      	push	{r7, lr}
 80027b2:	af00      	add	r7, sp, #0
  /* USER CODE END I2C1_Init 0 */

  /* USER CODE BEGIN I2C1_Init 1 */

  /* USER CODE END I2C1_Init 1 */
  hi2c1.Instance = I2C1;
 80027b4:	4b12      	ldr	r3, [pc, #72]	@ (8002800 <MX_I2C1_Init+0x50>)
 80027b6:	4a13      	ldr	r2, [pc, #76]	@ (8002804 <MX_I2C1_Init+0x54>)
 80027b8:	601a      	str	r2, [r3, #0]
  hi2c1.Init.ClockSpeed = 100000;
 80027ba:	4b11      	ldr	r3, [pc, #68]	@ (8002800 <MX_I2C1_Init+0x50>)
 80027bc:	4a12      	ldr	r2, [pc, #72]	@ (8002808 <MX_I2C1_Init+0x58>)
 80027be:	605a      	str	r2, [r3, #4]
  hi2c1.Init.DutyCycle = I2C_DUTYCYCLE_2;
 80027c0:	4b0f      	ldr	r3, [pc, #60]	@ (8002800 <MX_I2C1_Init+0x50>)
 80027c2:	2200      	movs	r2, #0
 80027c4:	609a      	str	r2, [r3, #8]
  hi2c1.Init.OwnAddress1 = 0;
 80027c6:	4b0e      	ldr	r3, [pc, #56]	@ (8002800 <MX_I2C1_Init+0x50>)
 80027c8:	2200      	movs	r2, #0
 80027ca:	60da      	str	r2, [r3, #12]
  hi2c1.Init.AddressingMode = I2C_ADDRESSINGMODE_7BIT;
 80027cc:	4b0c      	ldr	r3, [pc, #48]	@ (8002800 <MX_I2C1_Init+0x50>)
 80027ce:	f44f 4280 	mov.w	r2, #16384	@ 0x4000
 80027d2:	611a      	str	r2, [r3, #16]
  hi2c1.Init.DualAddressMode = I2C_DUALADDRESS_DISABLE;
 80027d4:	4b0a      	ldr	r3, [pc, #40]	@ (8002800 <MX_I2C1_Init+0x50>)
 80027d6:	2200      	movs	r2, #0
 80027d8:	615a      	str	r2, [r3, #20]
  hi2c1.Init.OwnAddress2 = 0;
 80027da:	4b09      	ldr	r3, [pc, #36]	@ (8002800 <MX_I2C1_Init+0x50>)
 80027dc:	2200      	movs	r2, #0
 80027de:	619a      	str	r2, [r3, #24]
  hi2c1.Init.GeneralCallMode = I2C_GENERALCALL_DISABLE;
 80027e0:	4b07      	ldr	r3, [pc, #28]	@ (8002800 <MX_I2C1_Init+0x50>)
 80027e2:	2200      	movs	r2, #0
 80027e4:	61da      	str	r2, [r3, #28]
  hi2c1.Init.NoStretchMode = I2C_NOSTRETCH_DISABLE;
 80027e6:	4b06      	ldr	r3, [pc, #24]	@ (8002800 <MX_I2C1_Init+0x50>)
 80027e8:	2200      	movs	r2, #0
 80027ea:	621a      	str	r2, [r3, #32]
  if (HAL_I2C_Init(&hi2c1) != HAL_OK)
 80027ec:	4804      	ldr	r0, [pc, #16]	@ (8002800 <MX_I2C1_Init+0x50>)
 80027ee:	f000 ff83 	bl	80036f8 <HAL_I2C_Init>
 80027f2:	4603      	mov	r3, r0
 80027f4:	2b00      	cmp	r3, #0
 80027f6:	d001      	beq.n	80027fc <MX_I2C1_Init+0x4c>
  {
    Error_Handler();
 80027f8:	f000 f954 	bl	8002aa4 <Error_Handler>
  }
  /* USER CODE BEGIN I2C1_Init 2 */

  /* USER CODE END I2C1_Init 2 */

}
 80027fc:	bf00      	nop
 80027fe:	bd80      	pop	{r7, pc}
 8002800:	2000042c 	.word	0x2000042c
 8002804:	40005400 	.word	0x40005400
 8002808:	000186a0 	.word	0x000186a0

0800280c <MX_SPI1_Init>:
  * @brief SPI1 Initialization Function
  * @param None
  * @retval None
  */
static void MX_SPI1_Init(void)
{
 800280c:	b580      	push	{r7, lr}
 800280e:	af00      	add	r7, sp, #0

  /* USER CODE BEGIN SPI1_Init 1 */

  /* USER CODE END SPI1_Init 1 */
  /* SPI1 parameter configuration*/
  hspi1.Instance = SPI1;
 8002810:	4b17      	ldr	r3, [pc, #92]	@ (8002870 <MX_SPI1_Init+0x64>)
 8002812:	4a18      	ldr	r2, [pc, #96]	@ (8002874 <MX_SPI1_Init+0x68>)
 8002814:	601a      	str	r2, [r3, #0]
  hspi1.Init.Mode = SPI_MODE_MASTER;
 8002816:	4b16      	ldr	r3, [pc, #88]	@ (8002870 <MX_SPI1_Init+0x64>)
 8002818:	f44f 7282 	mov.w	r2, #260	@ 0x104
 800281c:	605a      	str	r2, [r3, #4]
  hspi1.Init.Direction = SPI_DIRECTION_2LINES;
 800281e:	4b14      	ldr	r3, [pc, #80]	@ (8002870 <MX_SPI1_Init+0x64>)
 8002820:	2200      	movs	r2, #0
 8002822:	609a      	str	r2, [r3, #8]
  hspi1.Init.DataSize = SPI_DATASIZE_8BIT;
 8002824:	4b12      	ldr	r3, [pc, #72]	@ (8002870 <MX_SPI1_Init+0x64>)
 8002826:	2200      	movs	r2, #0
 8002828:	60da      	str	r2, [r3, #12]
  hspi1.Init.CLKPolarity = SPI_POLARITY_HIGH;
 800282a:	4b11      	ldr	r3, [pc, #68]	@ (8002870 <MX_SPI1_Init+0x64>)
 800282c:	2202      	movs	r2, #2
 800282e:	611a      	str	r2, [r3, #16]
  hspi1.Init.CLKPhase = SPI_PHASE_2EDGE;
 8002830:	4b0f      	ldr	r3, [pc, #60]	@ (8002870 <MX_SPI1_Init+0x64>)
 8002832:	2201      	movs	r2, #1
 8002834:	615a      	str	r2, [r3, #20]
  hspi1.Init.NSS = SPI_NSS_SOFT;
 8002836:	4b0e      	ldr	r3, [pc, #56]	@ (8002870 <MX_SPI1_Init+0x64>)
 8002838:	f44f 7200 	mov.w	r2, #512	@ 0x200
 800283c:	619a      	str	r2, [r3, #24]
  hspi1.Init.BaudRatePrescaler = SPI_BAUDRATEPRESCALER_256;
 800283e:	4b0c      	ldr	r3, [pc, #48]	@ (8002870 <MX_SPI1_Init+0x64>)
 8002840:	2238      	movs	r2, #56	@ 0x38
 8002842:	61da      	str	r2, [r3, #28]
  hspi1.Init.FirstBit = SPI_FIRSTBIT_MSB;
 8002844:	4b0a      	ldr	r3, [pc, #40]	@ (8002870 <MX_SPI1_Init+0x64>)
 8002846:	2200      	movs	r2, #0
 8002848:	621a      	str	r2, [r3, #32]
  hspi1.Init.TIMode = SPI_TIMODE_DISABLE;
 800284a:	4b09      	ldr	r3, [pc, #36]	@ (8002870 <MX_SPI1_Init+0x64>)
 800284c:	2200      	movs	r2, #0
 800284e:	625a      	str	r2, [r3, #36]	@ 0x24
  hspi1.Init.CRCCalculation = SPI_CRCCALCULATION_DISABLE;
 8002850:	4b07      	ldr	r3, [pc, #28]	@ (8002870 <MX_SPI1_Init+0x64>)
 8002852:	2200      	movs	r2, #0
 8002854:	629a      	str	r2, [r3, #40]	@ 0x28
  hspi1.Init.CRCPolynomial = 10;
 8002856:	4b06      	ldr	r3, [pc, #24]	@ (8002870 <MX_SPI1_Init+0x64>)
 8002858:	220a      	movs	r2, #10
 800285a:	62da      	str	r2, [r3, #44]	@ 0x2c
  if (HAL_SPI_Init(&hspi1) != HAL_OK)
 800285c:	4804      	ldr	r0, [pc, #16]	@ (8002870 <MX_SPI1_Init+0x64>)
 800285e:	f001 fea9 	bl	80045b4 <HAL_SPI_Init>
 8002862:	4603      	mov	r3, r0
 8002864:	2b00      	cmp	r3, #0
 8002866:	d001      	beq.n	800286c <MX_SPI1_Init+0x60>
  {
    Error_Handler();
 8002868:	f000 f91c 	bl	8002aa4 <Error_Handler>
  }
  /* USER CODE BEGIN SPI1_Init 2 */

  /* USER CODE END SPI1_Init 2 */

}
 800286c:	bf00      	nop
 800286e:	bd80      	pop	{r7, pc}
 8002870:	20000480 	.word	0x20000480
 8002874:	40013000 	.word	0x40013000

08002878 <MX_USART2_UART_Init>:
  * @brief USART2 Initialization Function
  * @param None
  * @retval None
  */
static void MX_USART2_UART_Init(void)
{
 8002878:	b580      	push	{r7, lr}
 800287a:	af00      	add	r7, sp, #0
  /* USER CODE END USART2_Init 0 */

  /* USER CODE BEGIN USART2_Init 1 */

  /* USER CODE END USART2_Init 1 */
  huart2.Instance = USART2;
 800287c:	4b11      	ldr	r3, [pc, #68]	@ (80028c4 <MX_USART2_UART_Init+0x4c>)
 800287e:	4a12      	ldr	r2, [pc, #72]	@ (80028c8 <MX_USART2_UART_Init+0x50>)
 8002880:	601a      	str	r2, [r3, #0]
  huart2.Init.BaudRate = 115200;
 8002882:	4b10      	ldr	r3, [pc, #64]	@ (80028c4 <MX_USART2_UART_Init+0x4c>)
 8002884:	f44f 32e1 	mov.w	r2, #115200	@ 0x1c200
 8002888:	605a      	str	r2, [r3, #4]
  huart2.Init.WordLength = UART_WORDLENGTH_8B;
 800288a:	4b0e      	ldr	r3, [pc, #56]	@ (80028c4 <MX_USART2_UART_Init+0x4c>)
 800288c:	2200      	movs	r2, #0
 800288e:	609a      	str	r2, [r3, #8]
  huart2.Init.StopBits = UART_STOPBITS_1;
 8002890:	4b0c      	ldr	r3, [pc, #48]	@ (80028c4 <MX_USART2_UART_Init+0x4c>)
 8002892:	2200      	movs	r2, #0
 8002894:	60da      	str	r2, [r3, #12]
  huart2.Init.Parity = UART_PARITY_NONE;
 8002896:	4b0b      	ldr	r3, [pc, #44]	@ (80028c4 <MX_USART2_UART_Init+0x4c>)
 8002898:	2200      	movs	r2, #0
 800289a:	611a      	str	r2, [r3, #16]
  huart2.Init.Mode = UART_MODE_TX_RX;
 800289c:	4b09      	ldr	r3, [pc, #36]	@ (80028c4 <MX_USART2_UART_Init+0x4c>)
 800289e:	220c      	movs	r2, #12
 80028a0:	615a      	str	r2, [r3, #20]
  huart2.Init.HwFlowCtl = UART_HWCONTROL_NONE;
 80028a2:	4b08      	ldr	r3, [pc, #32]	@ (80028c4 <MX_USART2_UART_Init+0x4c>)
 80028a4:	2200      	movs	r2, #0
 80028a6:	619a      	str	r2, [r3, #24]
  huart2.Init.OverSampling = UART_OVERSAMPLING_16;
 80028a8:	4b06      	ldr	r3, [pc, #24]	@ (80028c4 <MX_USART2_UART_Init+0x4c>)
 80028aa:	2200      	movs	r2, #0
 80028ac:	61da      	str	r2, [r3, #28]
  if (HAL_UART_Init(&huart2) != HAL_OK)
 80028ae:	4805      	ldr	r0, [pc, #20]	@ (80028c4 <MX_USART2_UART_Init+0x4c>)
 80028b0:	f002 fef4 	bl	800569c <HAL_UART_Init>
 80028b4:	4603      	mov	r3, r0
 80028b6:	2b00      	cmp	r3, #0
 80028b8:	d001      	beq.n	80028be <MX_USART2_UART_Init+0x46>
  {
    Error_Handler();
 80028ba:	f000 f8f3 	bl	8002aa4 <Error_Handler>
  }
  /* USER CODE BEGIN USART2_Init 2 */

  /* USER CODE END USART2_Init 2 */

}
 80028be:	bf00      	nop
 80028c0:	bd80      	pop	{r7, pc}
 80028c2:	bf00      	nop
 80028c4:	200004d8 	.word	0x200004d8
 80028c8:	40004400 	.word	0x40004400

080028cc <MX_GPIO_Init>:
  * @brief GPIO Initialization Function
  * @param None
  * @retval None
  */
static void MX_GPIO_Init(void)
{
 80028cc:	b580      	push	{r7, lr}
 80028ce:	b08a      	sub	sp, #40	@ 0x28
 80028d0:	af00      	add	r7, sp, #0
  GPIO_InitTypeDef GPIO_InitStruct = {0};
 80028d2:	f107 0314 	add.w	r3, r7, #20
 80028d6:	2200      	movs	r2, #0
 80028d8:	601a      	str	r2, [r3, #0]
 80028da:	605a      	str	r2, [r3, #4]
 80028dc:	609a      	str	r2, [r3, #8]
 80028de:	60da      	str	r2, [r3, #12]
 80028e0:	611a      	str	r2, [r3, #16]
/* USER CODE BEGIN MX_GPIO_Init_1 */
/* USER CODE END MX_GPIO_Init_1 */

  /* GPIO Ports Clock Enable */
  __HAL_RCC_GPIOC_CLK_ENABLE();
 80028e2:	2300      	movs	r3, #0
 80028e4:	613b      	str	r3, [r7, #16]
 80028e6:	4b61      	ldr	r3, [pc, #388]	@ (8002a6c <MX_GPIO_Init+0x1a0>)
 80028e8:	6b1b      	ldr	r3, [r3, #48]	@ 0x30
 80028ea:	4a60      	ldr	r2, [pc, #384]	@ (8002a6c <MX_GPIO_Init+0x1a0>)
 80028ec:	f043 0304 	orr.w	r3, r3, #4
 80028f0:	6313      	str	r3, [r2, #48]	@ 0x30
 80028f2:	4b5e      	ldr	r3, [pc, #376]	@ (8002a6c <MX_GPIO_Init+0x1a0>)
 80028f4:	6b1b      	ldr	r3, [r3, #48]	@ 0x30
 80028f6:	f003 0304 	and.w	r3, r3, #4
 80028fa:	613b      	str	r3, [r7, #16]
 80028fc:	693b      	ldr	r3, [r7, #16]
  __HAL_RCC_GPIOH_CLK_ENABLE();
 80028fe:	2300      	movs	r3, #0
 8002900:	60fb      	str	r3, [r7, #12]
 8002902:	4b5a      	ldr	r3, [pc, #360]	@ (8002a6c <MX_GPIO_Init+0x1a0>)
 8002904:	6b1b      	ldr	r3, [r3, #48]	@ 0x30
 8002906:	4a59      	ldr	r2, [pc, #356]	@ (8002a6c <MX_GPIO_Init+0x1a0>)
 8002908:	f043 0380 	orr.w	r3, r3, #128	@ 0x80
 800290c:	6313      	str	r3, [r2, #48]	@ 0x30
 800290e:	4b57      	ldr	r3, [pc, #348]	@ (8002a6c <MX_GPIO_Init+0x1a0>)
 8002910:	6b1b      	ldr	r3, [r3, #48]	@ 0x30
 8002912:	f003 0380 	and.w	r3, r3, #128	@ 0x80
 8002916:	60fb      	str	r3, [r7, #12]
 8002918:	68fb      	ldr	r3, [r7, #12]
  __HAL_RCC_GPIOA_CLK_ENABLE();
 800291a:	2300      	movs	r3, #0
 800291c:	60bb      	str	r3, [r7, #8]
 800291e:	4b53      	ldr	r3, [pc, #332]	@ (8002a6c <MX_GPIO_Init+0x1a0>)
 8002920:	6b1b      	ldr	r3, [r3, #48]	@ 0x30
 8002922:	4a52      	ldr	r2, [pc, #328]	@ (8002a6c <MX_GPIO_Init+0x1a0>)
 8002924:	f043 0301 	orr.w	r3, r3, #1
 8002928:	6313      	str	r3, [r2, #48]	@ 0x30
 800292a:	4b50      	ldr	r3, [pc, #320]	@ (8002a6c <MX_GPIO_Init+0x1a0>)
 800292c:	6b1b      	ldr	r3, [r3, #48]	@ 0x30
 800292e:	f003 0301 	and.w	r3, r3, #1
 8002932:	60bb      	str	r3, [r7, #8]
 8002934:	68bb      	ldr	r3, [r7, #8]
  __HAL_RCC_GPIOB_CLK_ENABLE();
 8002936:	2300      	movs	r3, #0
 8002938:	607b      	str	r3, [r7, #4]
 800293a:	4b4c      	ldr	r3, [pc, #304]	@ (8002a6c <MX_GPIO_Init+0x1a0>)
 800293c:	6b1b      	ldr	r3, [r3, #48]	@ 0x30
 800293e:	4a4b      	ldr	r2, [pc, #300]	@ (8002a6c <MX_GPIO_Init+0x1a0>)
 8002940:	f043 0302 	orr.w	r3, r3, #2
 8002944:	6313      	str	r3, [r2, #48]	@ 0x30
 8002946:	4b49      	ldr	r3, [pc, #292]	@ (8002a6c <MX_GPIO_Init+0x1a0>)
 8002948:	6b1b      	ldr	r3, [r3, #48]	@ 0x30
 800294a:	f003 0302 	and.w	r3, r3, #2
 800294e:	607b      	str	r3, [r7, #4]
 8002950:	687b      	ldr	r3, [r7, #4]
  __HAL_RCC_GPIOD_CLK_ENABLE();
 8002952:	2300      	movs	r3, #0
 8002954:	603b      	str	r3, [r7, #0]
 8002956:	4b45      	ldr	r3, [pc, #276]	@ (8002a6c <MX_GPIO_Init+0x1a0>)
 8002958:	6b1b      	ldr	r3, [r3, #48]	@ 0x30
 800295a:	4a44      	ldr	r2, [pc, #272]	@ (8002a6c <MX_GPIO_Init+0x1a0>)
 800295c:	f043 0308 	orr.w	r3, r3, #8
 8002960:	6313      	str	r3, [r2, #48]	@ 0x30
 8002962:	4b42      	ldr	r3, [pc, #264]	@ (8002a6c <MX_GPIO_Init+0x1a0>)
 8002964:	6b1b      	ldr	r3, [r3, #48]	@ 0x30
 8002966:	f003 0308 	and.w	r3, r3, #8
 800296a:	603b      	str	r3, [r7, #0]
 800296c:	683b      	ldr	r3, [r7, #0]

  /*Configure GPIO pin Output Level */
  HAL_GPIO_WritePin(GPIOC, INDICATOR_Pin|BMS_IND_Pin|BMS_A_Pin|PC_AIR_Pin, GPIO_PIN_RESET);
 800296e:	2200      	movs	r2, #0
 8002970:	f242 0107 	movw	r1, #8199	@ 0x2007
 8002974:	483e      	ldr	r0, [pc, #248]	@ (8002a70 <MX_GPIO_Init+0x1a4>)
 8002976:	f000 fea5 	bl	80036c4 <HAL_GPIO_WritePin>

  /*Configure GPIO pin Output Level */
  HAL_GPIO_WritePin(CS_GPIO_Port, CS_Pin, GPIO_PIN_SET);
 800297a:	2201      	movs	r2, #1
 800297c:	2108      	movs	r1, #8
 800297e:	483c      	ldr	r0, [pc, #240]	@ (8002a70 <MX_GPIO_Init+0x1a4>)
 8002980:	f000 fea0 	bl	80036c4 <HAL_GPIO_WritePin>

  /*Configure GPIO pin Output Level */
  HAL_GPIO_WritePin(BUZZER_GPIO_Port, BUZZER_Pin, GPIO_PIN_SET);
 8002984:	2201      	movs	r2, #1
 8002986:	2101      	movs	r1, #1
 8002988:	483a      	ldr	r0, [pc, #232]	@ (8002a74 <MX_GPIO_Init+0x1a8>)
 800298a:	f000 fe9b 	bl	80036c4 <HAL_GPIO_WritePin>

  /*Configure GPIO pin Output Level */
  HAL_GPIO_WritePin(PC_REL_GPIO_Port, PC_REL_Pin, GPIO_PIN_RESET);
 800298e:	2200      	movs	r2, #0
 8002990:	2104      	movs	r1, #4
 8002992:	4839      	ldr	r0, [pc, #228]	@ (8002a78 <MX_GPIO_Init+0x1ac>)
 8002994:	f000 fe96 	bl	80036c4 <HAL_GPIO_WritePin>

  /*Configure GPIO pin Output Level */
  HAL_GPIO_WritePin(GPIOB, GPIO_PIN_6, GPIO_PIN_SET);
 8002998:	2201      	movs	r2, #1
 800299a:	2140      	movs	r1, #64	@ 0x40
 800299c:	4837      	ldr	r0, [pc, #220]	@ (8002a7c <MX_GPIO_Init+0x1b0>)
 800299e:	f000 fe91 	bl	80036c4 <HAL_GPIO_WritePin>

  /*Configure GPIO pins : INDICATOR_Pin BMS_IND_Pin BMS_A_Pin PC_AIR_Pin */
  GPIO_InitStruct.Pin = INDICATOR_Pin|BMS_IND_Pin|BMS_A_Pin|PC_AIR_Pin;
 80029a2:	f242 0307 	movw	r3, #8199	@ 0x2007
 80029a6:	617b      	str	r3, [r7, #20]
  GPIO_InitStruct.Mode = GPIO_MODE_OUTPUT_PP;
 80029a8:	2301      	movs	r3, #1
 80029aa:	61bb      	str	r3, [r7, #24]
  GPIO_InitStruct.Pull = GPIO_NOPULL;
 80029ac:	2300      	movs	r3, #0
 80029ae:	61fb      	str	r3, [r7, #28]
  GPIO_InitStruct.Speed = GPIO_SPEED_FREQ_LOW;
 80029b0:	2300      	movs	r3, #0
 80029b2:	623b      	str	r3, [r7, #32]
  HAL_GPIO_Init(GPIOC, &GPIO_InitStruct);
 80029b4:	f107 0314 	add.w	r3, r7, #20
 80029b8:	4619      	mov	r1, r3
 80029ba:	482d      	ldr	r0, [pc, #180]	@ (8002a70 <MX_GPIO_Init+0x1a4>)
 80029bc:	f000 fcee 	bl	800339c <HAL_GPIO_Init>

  /*Configure GPIO pin : CS_Pin */
  GPIO_InitStruct.Pin = CS_Pin;
 80029c0:	2308      	movs	r3, #8
 80029c2:	617b      	str	r3, [r7, #20]
  GPIO_InitStruct.Mode = GPIO_MODE_OUTPUT_PP;
 80029c4:	2301      	movs	r3, #1
 80029c6:	61bb      	str	r3, [r7, #24]
  GPIO_InitStruct.Pull = GPIO_NOPULL;
 80029c8:	2300      	movs	r3, #0
 80029ca:	61fb      	str	r3, [r7, #28]
  GPIO_InitStruct.Speed = GPIO_SPEED_FREQ_MEDIUM;
 80029cc:	2301      	movs	r3, #1
 80029ce:	623b      	str	r3, [r7, #32]
  HAL_GPIO_Init(CS_GPIO_Port, &GPIO_InitStruct);
 80029d0:	f107 0314 	add.w	r3, r7, #20
 80029d4:	4619      	mov	r1, r3
 80029d6:	4826      	ldr	r0, [pc, #152]	@ (8002a70 <MX_GPIO_Init+0x1a4>)
 80029d8:	f000 fce0 	bl	800339c <HAL_GPIO_Init>

  /*Configure GPIO pin : BUZZER_Pin */
  GPIO_InitStruct.Pin = BUZZER_Pin;
 80029dc:	2301      	movs	r3, #1
 80029de:	617b      	str	r3, [r7, #20]
  GPIO_InitStruct.Mode = GPIO_MODE_OUTPUT_PP;
 80029e0:	2301      	movs	r3, #1
 80029e2:	61bb      	str	r3, [r7, #24]
  GPIO_InitStruct.Pull = GPIO_NOPULL;
 80029e4:	2300      	movs	r3, #0
 80029e6:	61fb      	str	r3, [r7, #28]
  GPIO_InitStruct.Speed = GPIO_SPEED_FREQ_MEDIUM;
 80029e8:	2301      	movs	r3, #1
 80029ea:	623b      	str	r3, [r7, #32]
  HAL_GPIO_Init(BUZZER_GPIO_Port, &GPIO_InitStruct);
 80029ec:	f107 0314 	add.w	r3, r7, #20
 80029f0:	4619      	mov	r1, r3
 80029f2:	4820      	ldr	r0, [pc, #128]	@ (8002a74 <MX_GPIO_Init+0x1a8>)
 80029f4:	f000 fcd2 	bl	800339c <HAL_GPIO_Init>

  /*Configure GPIO pins : AIR__SENSE_Pin AIR__SENSEC5_Pin SHS_IMD_Pin SHS_TSMS_Pin
                           SHS_IN_Pin */
  GPIO_InitStruct.Pin = AIR__SENSE_Pin|AIR__SENSEC5_Pin|SHS_IMD_Pin|SHS_TSMS_Pin
 80029f8:	f641 4330 	movw	r3, #7216	@ 0x1c30
 80029fc:	617b      	str	r3, [r7, #20]
                          |SHS_IN_Pin;
  GPIO_InitStruct.Mode = GPIO_MODE_INPUT;
 80029fe:	2300      	movs	r3, #0
 8002a00:	61bb      	str	r3, [r7, #24]
  GPIO_InitStruct.Pull = GPIO_NOPULL;
 8002a02:	2300      	movs	r3, #0
 8002a04:	61fb      	str	r3, [r7, #28]
  HAL_GPIO_Init(GPIOC, &GPIO_InitStruct);
 8002a06:	f107 0314 	add.w	r3, r7, #20
 8002a0a:	4619      	mov	r1, r3
 8002a0c:	4818      	ldr	r0, [pc, #96]	@ (8002a70 <MX_GPIO_Init+0x1a4>)
 8002a0e:	f000 fcc5 	bl	800339c <HAL_GPIO_Init>

  /*Configure GPIO pins : WAKE_Pin INTR_Pin RST_Pin Alert_Pin */
  GPIO_InitStruct.Pin = WAKE_Pin|INTR_Pin|RST_Pin|Alert_Pin;
 8002a12:	23a3      	movs	r3, #163	@ 0xa3
 8002a14:	617b      	str	r3, [r7, #20]
  GPIO_InitStruct.Mode = GPIO_MODE_INPUT;
 8002a16:	2300      	movs	r3, #0
 8002a18:	61bb      	str	r3, [r7, #24]
  GPIO_InitStruct.Pull = GPIO_NOPULL;
 8002a1a:	2300      	movs	r3, #0
 8002a1c:	61fb      	str	r3, [r7, #28]
  HAL_GPIO_Init(GPIOB, &GPIO_InitStruct);
 8002a1e:	f107 0314 	add.w	r3, r7, #20
 8002a22:	4619      	mov	r1, r3
 8002a24:	4815      	ldr	r0, [pc, #84]	@ (8002a7c <MX_GPIO_Init+0x1b0>)
 8002a26:	f000 fcb9 	bl	800339c <HAL_GPIO_Init>

  /*Configure GPIO pin : PC_REL_Pin */
  GPIO_InitStruct.Pin = PC_REL_Pin;
 8002a2a:	2304      	movs	r3, #4
 8002a2c:	617b      	str	r3, [r7, #20]
  GPIO_InitStruct.Mode = GPIO_MODE_OUTPUT_PP;
 8002a2e:	2301      	movs	r3, #1
 8002a30:	61bb      	str	r3, [r7, #24]
  GPIO_InitStruct.Pull = GPIO_NOPULL;
 8002a32:	2300      	movs	r3, #0
 8002a34:	61fb      	str	r3, [r7, #28]
  GPIO_InitStruct.Speed = GPIO_SPEED_FREQ_LOW;
 8002a36:	2300      	movs	r3, #0
 8002a38:	623b      	str	r3, [r7, #32]
  HAL_GPIO_Init(PC_REL_GPIO_Port, &GPIO_InitStruct);
 8002a3a:	f107 0314 	add.w	r3, r7, #20
 8002a3e:	4619      	mov	r1, r3
 8002a40:	480d      	ldr	r0, [pc, #52]	@ (8002a78 <MX_GPIO_Init+0x1ac>)
 8002a42:	f000 fcab 	bl	800339c <HAL_GPIO_Init>

  /*Configure GPIO pin : PB6 */
  GPIO_InitStruct.Pin = GPIO_PIN_6;
 8002a46:	2340      	movs	r3, #64	@ 0x40
 8002a48:	617b      	str	r3, [r7, #20]
  GPIO_InitStruct.Mode = GPIO_MODE_OUTPUT_PP;
 8002a4a:	2301      	movs	r3, #1
 8002a4c:	61bb      	str	r3, [r7, #24]
  GPIO_InitStruct.Pull = GPIO_NOPULL;
 8002a4e:	2300      	movs	r3, #0
 8002a50:	61fb      	str	r3, [r7, #28]
  GPIO_InitStruct.Speed = GPIO_SPEED_FREQ_VERY_HIGH;
 8002a52:	2303      	movs	r3, #3
 8002a54:	623b      	str	r3, [r7, #32]
  HAL_GPIO_Init(GPIOB, &GPIO_InitStruct);
 8002a56:	f107 0314 	add.w	r3, r7, #20
 8002a5a:	4619      	mov	r1, r3
 8002a5c:	4807      	ldr	r0, [pc, #28]	@ (8002a7c <MX_GPIO_Init+0x1b0>)
 8002a5e:	f000 fc9d 	bl	800339c <HAL_GPIO_Init>

/* USER CODE BEGIN MX_GPIO_Init_2 */
/* USER CODE END MX_GPIO_Init_2 */
}
 8002a62:	bf00      	nop
 8002a64:	3728      	adds	r7, #40	@ 0x28
 8002a66:	46bd      	mov	sp, r7
 8002a68:	bd80      	pop	{r7, pc}
 8002a6a:	bf00      	nop
 8002a6c:	40023800 	.word	0x40023800
 8002a70:	40020800 	.word	0x40020800
 8002a74:	40020000 	.word	0x40020000
 8002a78:	40020c00 	.word	0x40020c00
 8002a7c:	40020400 	.word	0x40020400

08002a80 <HAL_TIM_PeriodElapsedCallback>:
  * a global variable "uwTick" used as application time base.
  * @param  htim : TIM handle
  * @retval None
  */
void HAL_TIM_PeriodElapsedCallback(TIM_HandleTypeDef *htim)
{
 8002a80:	b580      	push	{r7, lr}
 8002a82:	b082      	sub	sp, #8
 8002a84:	af00      	add	r7, sp, #0
 8002a86:	6078      	str	r0, [r7, #4]
  /* USER CODE BEGIN Callback 0 */

  /* USER CODE END Callback 0 */
  if (htim->Instance == TIM1) {
 8002a88:	687b      	ldr	r3, [r7, #4]
 8002a8a:	681b      	ldr	r3, [r3, #0]
 8002a8c:	4a04      	ldr	r2, [pc, #16]	@ (8002aa0 <HAL_TIM_PeriodElapsedCallback+0x20>)
 8002a8e:	4293      	cmp	r3, r2
 8002a90:	d101      	bne.n	8002a96 <HAL_TIM_PeriodElapsedCallback+0x16>
    HAL_IncTick();
 8002a92:	f000 fa61 	bl	8002f58 <HAL_IncTick>
  }
  /* USER CODE BEGIN Callback 1 */

  /* USER CODE END Callback 1 */
}
 8002a96:	bf00      	nop
 8002a98:	3708      	adds	r7, #8
 8002a9a:	46bd      	mov	sp, r7
 8002a9c:	bd80      	pop	{r7, pc}
 8002a9e:	bf00      	nop
 8002aa0:	40010000 	.word	0x40010000

08002aa4 <Error_Handler>:
/**
  * @brief  This function is executed in case of error occurrence.
  * @retval None
  */
void Error_Handler(void)
{
 8002aa4:	b480      	push	{r7}
 8002aa6:	af00      	add	r7, sp, #0
  \details Disables IRQ interrupts by setting special-purpose register PRIMASK.
           Can only be executed in Privileged modes.
 */
__STATIC_FORCEINLINE void __disable_irq(void)
{
  __ASM volatile ("cpsid i" : : : "memory");
 8002aa8:	b672      	cpsid	i
}
 8002aaa:	bf00      	nop
  /* USER CODE BEGIN Error_Handler_Debug */
  /* User can add his own implementation to report the HAL error return state */
  __disable_irq();
  while (1)
 8002aac:	bf00      	nop
 8002aae:	e7fd      	b.n	8002aac <Error_Handler+0x8>

08002ab0 <HAL_MspInit>:
/* USER CODE END 0 */
/**
  * Initializes the Global MSP.
  */
void HAL_MspInit(void)
{
 8002ab0:	b480      	push	{r7}
 8002ab2:	b083      	sub	sp, #12
 8002ab4:	af00      	add	r7, sp, #0

  /* USER CODE BEGIN MspInit 0 */

  /* USER CODE END MspInit 0 */

  __HAL_RCC_SYSCFG_CLK_ENABLE();
 8002ab6:	2300      	movs	r3, #0
 8002ab8:	607b      	str	r3, [r7, #4]
 8002aba:	4b10      	ldr	r3, [pc, #64]	@ (8002afc <HAL_MspInit+0x4c>)
 8002abc:	6c5b      	ldr	r3, [r3, #68]	@ 0x44
 8002abe:	4a0f      	ldr	r2, [pc, #60]	@ (8002afc <HAL_MspInit+0x4c>)
 8002ac0:	f443 4380 	orr.w	r3, r3, #16384	@ 0x4000
 8002ac4:	6453      	str	r3, [r2, #68]	@ 0x44
 8002ac6:	4b0d      	ldr	r3, [pc, #52]	@ (8002afc <HAL_MspInit+0x4c>)
 8002ac8:	6c5b      	ldr	r3, [r3, #68]	@ 0x44
 8002aca:	f403 4380 	and.w	r3, r3, #16384	@ 0x4000
 8002ace:	607b      	str	r3, [r7, #4]
 8002ad0:	687b      	ldr	r3, [r7, #4]
  __HAL_RCC_PWR_CLK_ENABLE();
 8002ad2:	2300      	movs	r3, #0
 8002ad4:	603b      	str	r3, [r7, #0]
 8002ad6:	4b09      	ldr	r3, [pc, #36]	@ (8002afc <HAL_MspInit+0x4c>)
 8002ad8:	6c1b      	ldr	r3, [r3, #64]	@ 0x40
 8002ada:	4a08      	ldr	r2, [pc, #32]	@ (8002afc <HAL_MspInit+0x4c>)
 8002adc:	f043 5380 	orr.w	r3, r3, #268435456	@ 0x10000000
 8002ae0:	6413      	str	r3, [r2, #64]	@ 0x40
 8002ae2:	4b06      	ldr	r3, [pc, #24]	@ (8002afc <HAL_MspInit+0x4c>)
 8002ae4:	6c1b      	ldr	r3, [r3, #64]	@ 0x40
 8002ae6:	f003 5380 	and.w	r3, r3, #268435456	@ 0x10000000
 8002aea:	603b      	str	r3, [r7, #0]
 8002aec:	683b      	ldr	r3, [r7, #0]
  /* System interrupt init*/

  /* USER CODE BEGIN MspInit 1 */

  /* USER CODE END MspInit 1 */
}
 8002aee:	bf00      	nop
 8002af0:	370c      	adds	r7, #12
 8002af2:	46bd      	mov	sp, r7
 8002af4:	f85d 7b04 	ldr.w	r7, [sp], #4
 8002af8:	4770      	bx	lr
 8002afa:	bf00      	nop
 8002afc:	40023800 	.word	0x40023800

08002b00 <HAL_CAN_MspInit>:
* This function configures the hardware resources used in this example
* @param hcan: CAN handle pointer
* @retval None
*/
void HAL_CAN_MspInit(CAN_HandleTypeDef* hcan)
{
 8002b00:	b580      	push	{r7, lr}
 8002b02:	b08a      	sub	sp, #40	@ 0x28
 8002b04:	af00      	add	r7, sp, #0
 8002b06:	6078      	str	r0, [r7, #4]
  GPIO_InitTypeDef GPIO_InitStruct = {0};
 8002b08:	f107 0314 	add.w	r3, r7, #20
 8002b0c:	2200      	movs	r2, #0
 8002b0e:	601a      	str	r2, [r3, #0]
 8002b10:	605a      	str	r2, [r3, #4]
 8002b12:	609a      	str	r2, [r3, #8]
 8002b14:	60da      	str	r2, [r3, #12]
 8002b16:	611a      	str	r2, [r3, #16]
  if(hcan->Instance==CAN1)
 8002b18:	687b      	ldr	r3, [r7, #4]
 8002b1a:	681b      	ldr	r3, [r3, #0]
 8002b1c:	4a19      	ldr	r2, [pc, #100]	@ (8002b84 <HAL_CAN_MspInit+0x84>)
 8002b1e:	4293      	cmp	r3, r2
 8002b20:	d12c      	bne.n	8002b7c <HAL_CAN_MspInit+0x7c>
  {
  /* USER CODE BEGIN CAN1_MspInit 0 */

  /* USER CODE END CAN1_MspInit 0 */
    /* Peripheral clock enable */
    __HAL_RCC_CAN1_CLK_ENABLE();
 8002b22:	2300      	movs	r3, #0
 8002b24:	613b      	str	r3, [r7, #16]
 8002b26:	4b18      	ldr	r3, [pc, #96]	@ (8002b88 <HAL_CAN_MspInit+0x88>)
 8002b28:	6c1b      	ldr	r3, [r3, #64]	@ 0x40
 8002b2a:	4a17      	ldr	r2, [pc, #92]	@ (8002b88 <HAL_CAN_MspInit+0x88>)
 8002b2c:	f043 7300 	orr.w	r3, r3, #33554432	@ 0x2000000
 8002b30:	6413      	str	r3, [r2, #64]	@ 0x40
 8002b32:	4b15      	ldr	r3, [pc, #84]	@ (8002b88 <HAL_CAN_MspInit+0x88>)
 8002b34:	6c1b      	ldr	r3, [r3, #64]	@ 0x40
 8002b36:	f003 7300 	and.w	r3, r3, #33554432	@ 0x2000000
 8002b3a:	613b      	str	r3, [r7, #16]
 8002b3c:	693b      	ldr	r3, [r7, #16]

    __HAL_RCC_GPIOA_CLK_ENABLE();
 8002b3e:	2300      	movs	r3, #0
 8002b40:	60fb      	str	r3, [r7, #12]
 8002b42:	4b11      	ldr	r3, [pc, #68]	@ (8002b88 <HAL_CAN_MspInit+0x88>)
 8002b44:	6b1b      	ldr	r3, [r3, #48]	@ 0x30
 8002b46:	4a10      	ldr	r2, [pc, #64]	@ (8002b88 <HAL_CAN_MspInit+0x88>)
 8002b48:	f043 0301 	orr.w	r3, r3, #1
 8002b4c:	6313      	str	r3, [r2, #48]	@ 0x30
 8002b4e:	4b0e      	ldr	r3, [pc, #56]	@ (8002b88 <HAL_CAN_MspInit+0x88>)
 8002b50:	6b1b      	ldr	r3, [r3, #48]	@ 0x30
 8002b52:	f003 0301 	and.w	r3, r3, #1
 8002b56:	60fb      	str	r3, [r7, #12]
 8002b58:	68fb      	ldr	r3, [r7, #12]
    /**CAN1 GPIO Configuration
    PA11     ------> CAN1_RX
    PA12     ------> CAN1_TX
    */
    GPIO_InitStruct.Pin = GPIO_PIN_11|GPIO_PIN_12;
 8002b5a:	f44f 53c0 	mov.w	r3, #6144	@ 0x1800
 8002b5e:	617b      	str	r3, [r7, #20]
    GPIO_InitStruct.Mode = GPIO_MODE_AF_PP;
 8002b60:	2302      	movs	r3, #2
 8002b62:	61bb      	str	r3, [r7, #24]
    GPIO_InitStruct.Pull = GPIO_NOPULL;
 8002b64:	2300      	movs	r3, #0
 8002b66:	61fb      	str	r3, [r7, #28]
    GPIO_InitStruct.Speed = GPIO_SPEED_FREQ_VERY_HIGH;
 8002b68:	2303      	movs	r3, #3
 8002b6a:	623b      	str	r3, [r7, #32]
    GPIO_InitStruct.Alternate = GPIO_AF9_CAN1;
 8002b6c:	2309      	movs	r3, #9
 8002b6e:	627b      	str	r3, [r7, #36]	@ 0x24
    HAL_GPIO_Init(GPIOA, &GPIO_InitStruct);
 8002b70:	f107 0314 	add.w	r3, r7, #20
 8002b74:	4619      	mov	r1, r3
 8002b76:	4805      	ldr	r0, [pc, #20]	@ (8002b8c <HAL_CAN_MspInit+0x8c>)
 8002b78:	f000 fc10 	bl	800339c <HAL_GPIO_Init>

  /* USER CODE END CAN1_MspInit 1 */

  }

}
 8002b7c:	bf00      	nop
 8002b7e:	3728      	adds	r7, #40	@ 0x28
 8002b80:	46bd      	mov	sp, r7
 8002b82:	bd80      	pop	{r7, pc}
 8002b84:	40006400 	.word	0x40006400
 8002b88:	40023800 	.word	0x40023800
 8002b8c:	40020000 	.word	0x40020000

08002b90 <HAL_I2C_MspInit>:
* This function configures the hardware resources used in this example
* @param hi2c: I2C handle pointer
* @retval None
*/
void HAL_I2C_MspInit(I2C_HandleTypeDef* hi2c)
{
 8002b90:	b580      	push	{r7, lr}
 8002b92:	b08a      	sub	sp, #40	@ 0x28
 8002b94:	af00      	add	r7, sp, #0
 8002b96:	6078      	str	r0, [r7, #4]
  GPIO_InitTypeDef GPIO_InitStruct = {0};
 8002b98:	f107 0314 	add.w	r3, r7, #20
 8002b9c:	2200      	movs	r2, #0
 8002b9e:	601a      	str	r2, [r3, #0]
 8002ba0:	605a      	str	r2, [r3, #4]
 8002ba2:	609a      	str	r2, [r3, #8]
 8002ba4:	60da      	str	r2, [r3, #12]
 8002ba6:	611a      	str	r2, [r3, #16]
  if(hi2c->Instance==I2C1)
 8002ba8:	687b      	ldr	r3, [r7, #4]
 8002baa:	681b      	ldr	r3, [r3, #0]
 8002bac:	4a19      	ldr	r2, [pc, #100]	@ (8002c14 <HAL_I2C_MspInit+0x84>)
 8002bae:	4293      	cmp	r3, r2
 8002bb0:	d12c      	bne.n	8002c0c <HAL_I2C_MspInit+0x7c>
  {
  /* USER CODE BEGIN I2C1_MspInit 0 */

  /* USER CODE END I2C1_MspInit 0 */

    __HAL_RCC_GPIOB_CLK_ENABLE();
 8002bb2:	2300      	movs	r3, #0
 8002bb4:	613b      	str	r3, [r7, #16]
 8002bb6:	4b18      	ldr	r3, [pc, #96]	@ (8002c18 <HAL_I2C_MspInit+0x88>)
 8002bb8:	6b1b      	ldr	r3, [r3, #48]	@ 0x30
 8002bba:	4a17      	ldr	r2, [pc, #92]	@ (8002c18 <HAL_I2C_MspInit+0x88>)
 8002bbc:	f043 0302 	orr.w	r3, r3, #2
 8002bc0:	6313      	str	r3, [r2, #48]	@ 0x30
 8002bc2:	4b15      	ldr	r3, [pc, #84]	@ (8002c18 <HAL_I2C_MspInit+0x88>)
 8002bc4:	6b1b      	ldr	r3, [r3, #48]	@ 0x30
 8002bc6:	f003 0302 	and.w	r3, r3, #2
 8002bca:	613b      	str	r3, [r7, #16]
 8002bcc:	693b      	ldr	r3, [r7, #16]
    /**I2C1 GPIO Configuration
    PB8     ------> I2C1_SCL
    PB9     ------> I2C1_SDA
    */
    GPIO_InitStruct.Pin = GPIO_PIN_8|GPIO_PIN_9;
 8002bce:	f44f 7340 	mov.w	r3, #768	@ 0x300
 8002bd2:	617b      	str	r3, [r7, #20]
    GPIO_InitStruct.Mode = GPIO_MODE_AF_OD;
 8002bd4:	2312      	movs	r3, #18
 8002bd6:	61bb      	str	r3, [r7, #24]
    GPIO_InitStruct.Pull = GPIO_NOPULL;
 8002bd8:	2300      	movs	r3, #0
 8002bda:	61fb      	str	r3, [r7, #28]
    GPIO_InitStruct.Speed = GPIO_SPEED_FREQ_VERY_HIGH;
 8002bdc:	2303      	movs	r3, #3
 8002bde:	623b      	str	r3, [r7, #32]
    GPIO_InitStruct.Alternate = GPIO_AF4_I2C1;
 8002be0:	2304      	movs	r3, #4
 8002be2:	627b      	str	r3, [r7, #36]	@ 0x24
    HAL_GPIO_Init(GPIOB, &GPIO_InitStruct);
 8002be4:	f107 0314 	add.w	r3, r7, #20
 8002be8:	4619      	mov	r1, r3
 8002bea:	480c      	ldr	r0, [pc, #48]	@ (8002c1c <HAL_I2C_MspInit+0x8c>)
 8002bec:	f000 fbd6 	bl	800339c <HAL_GPIO_Init>

    /* Peripheral clock enable */
    __HAL_RCC_I2C1_CLK_ENABLE();
 8002bf0:	2300      	movs	r3, #0
 8002bf2:	60fb      	str	r3, [r7, #12]
 8002bf4:	4b08      	ldr	r3, [pc, #32]	@ (8002c18 <HAL_I2C_MspInit+0x88>)
 8002bf6:	6c1b      	ldr	r3, [r3, #64]	@ 0x40
 8002bf8:	4a07      	ldr	r2, [pc, #28]	@ (8002c18 <HAL_I2C_MspInit+0x88>)
 8002bfa:	f443 1300 	orr.w	r3, r3, #2097152	@ 0x200000
 8002bfe:	6413      	str	r3, [r2, #64]	@ 0x40
 8002c00:	4b05      	ldr	r3, [pc, #20]	@ (8002c18 <HAL_I2C_MspInit+0x88>)
 8002c02:	6c1b      	ldr	r3, [r3, #64]	@ 0x40
 8002c04:	f403 1300 	and.w	r3, r3, #2097152	@ 0x200000
 8002c08:	60fb      	str	r3, [r7, #12]
 8002c0a:	68fb      	ldr	r3, [r7, #12]

  /* USER CODE END I2C1_MspInit 1 */

  }

}
 8002c0c:	bf00      	nop
 8002c0e:	3728      	adds	r7, #40	@ 0x28
 8002c10:	46bd      	mov	sp, r7
 8002c12:	bd80      	pop	{r7, pc}
 8002c14:	40005400 	.word	0x40005400
 8002c18:	40023800 	.word	0x40023800
 8002c1c:	40020400 	.word	0x40020400

08002c20 <HAL_SPI_MspInit>:
* This function configures the hardware resources used in this example
* @param hspi: SPI handle pointer
* @retval None
*/
void HAL_SPI_MspInit(SPI_HandleTypeDef* hspi)
{
 8002c20:	b580      	push	{r7, lr}
 8002c22:	b08a      	sub	sp, #40	@ 0x28
 8002c24:	af00      	add	r7, sp, #0
 8002c26:	6078      	str	r0, [r7, #4]
  GPIO_InitTypeDef GPIO_InitStruct = {0};
 8002c28:	f107 0314 	add.w	r3, r7, #20
 8002c2c:	2200      	movs	r2, #0
 8002c2e:	601a      	str	r2, [r3, #0]
 8002c30:	605a      	str	r2, [r3, #4]
 8002c32:	609a      	str	r2, [r3, #8]
 8002c34:	60da      	str	r2, [r3, #12]
 8002c36:	611a      	str	r2, [r3, #16]
  if(hspi->Instance==SPI1)
 8002c38:	687b      	ldr	r3, [r7, #4]
 8002c3a:	681b      	ldr	r3, [r3, #0]
 8002c3c:	4a19      	ldr	r2, [pc, #100]	@ (8002ca4 <HAL_SPI_MspInit+0x84>)
 8002c3e:	4293      	cmp	r3, r2
 8002c40:	d12b      	bne.n	8002c9a <HAL_SPI_MspInit+0x7a>
  {
  /* USER CODE BEGIN SPI1_MspInit 0 */

  /* USER CODE END SPI1_MspInit 0 */
    /* Peripheral clock enable */
    __HAL_RCC_SPI1_CLK_ENABLE();
 8002c42:	2300      	movs	r3, #0
 8002c44:	613b      	str	r3, [r7, #16]
 8002c46:	4b18      	ldr	r3, [pc, #96]	@ (8002ca8 <HAL_SPI_MspInit+0x88>)
 8002c48:	6c5b      	ldr	r3, [r3, #68]	@ 0x44
 8002c4a:	4a17      	ldr	r2, [pc, #92]	@ (8002ca8 <HAL_SPI_MspInit+0x88>)
 8002c4c:	f443 5380 	orr.w	r3, r3, #4096	@ 0x1000
 8002c50:	6453      	str	r3, [r2, #68]	@ 0x44
 8002c52:	4b15      	ldr	r3, [pc, #84]	@ (8002ca8 <HAL_SPI_MspInit+0x88>)
 8002c54:	6c5b      	ldr	r3, [r3, #68]	@ 0x44
 8002c56:	f403 5380 	and.w	r3, r3, #4096	@ 0x1000
 8002c5a:	613b      	str	r3, [r7, #16]
 8002c5c:	693b      	ldr	r3, [r7, #16]

    __HAL_RCC_GPIOA_CLK_ENABLE();
 8002c5e:	2300      	movs	r3, #0
 8002c60:	60fb      	str	r3, [r7, #12]
 8002c62:	4b11      	ldr	r3, [pc, #68]	@ (8002ca8 <HAL_SPI_MspInit+0x88>)
 8002c64:	6b1b      	ldr	r3, [r3, #48]	@ 0x30
 8002c66:	4a10      	ldr	r2, [pc, #64]	@ (8002ca8 <HAL_SPI_MspInit+0x88>)
 8002c68:	f043 0301 	orr.w	r3, r3, #1
 8002c6c:	6313      	str	r3, [r2, #48]	@ 0x30
 8002c6e:	4b0e      	ldr	r3, [pc, #56]	@ (8002ca8 <HAL_SPI_MspInit+0x88>)
 8002c70:	6b1b      	ldr	r3, [r3, #48]	@ 0x30
 8002c72:	f003 0301 	and.w	r3, r3, #1
 8002c76:	60fb      	str	r3, [r7, #12]
 8002c78:	68fb      	ldr	r3, [r7, #12]
    /**SPI1 GPIO Configuration
    PA5     ------> SPI1_SCK
    PA6     ------> SPI1_MISO
    PA7     ------> SPI1_MOSI
    */
    GPIO_InitStruct.Pin = GPIO_PIN_5|GPIO_PIN_6|GPIO_PIN_7;
 8002c7a:	23e0      	movs	r3, #224	@ 0xe0
 8002c7c:	617b      	str	r3, [r7, #20]
    GPIO_InitStruct.Mode = GPIO_MODE_AF_PP;
 8002c7e:	2302      	movs	r3, #2
 8002c80:	61bb      	str	r3, [r7, #24]
    GPIO_InitStruct.Pull = GPIO_NOPULL;
 8002c82:	2300      	movs	r3, #0
 8002c84:	61fb      	str	r3, [r7, #28]
    GPIO_InitStruct.Speed = GPIO_SPEED_FREQ_VERY_HIGH;
 8002c86:	2303      	movs	r3, #3
 8002c88:	623b      	str	r3, [r7, #32]
    GPIO_InitStruct.Alternate = GPIO_AF5_SPI1;
 8002c8a:	2305      	movs	r3, #5
 8002c8c:	627b      	str	r3, [r7, #36]	@ 0x24
    HAL_GPIO_Init(GPIOA, &GPIO_InitStruct);
 8002c8e:	f107 0314 	add.w	r3, r7, #20
 8002c92:	4619      	mov	r1, r3
 8002c94:	4805      	ldr	r0, [pc, #20]	@ (8002cac <HAL_SPI_MspInit+0x8c>)
 8002c96:	f000 fb81 	bl	800339c <HAL_GPIO_Init>

  /* USER CODE END SPI1_MspInit 1 */

  }

}
 8002c9a:	bf00      	nop
 8002c9c:	3728      	adds	r7, #40	@ 0x28
 8002c9e:	46bd      	mov	sp, r7
 8002ca0:	bd80      	pop	{r7, pc}
 8002ca2:	bf00      	nop
 8002ca4:	40013000 	.word	0x40013000
 8002ca8:	40023800 	.word	0x40023800
 8002cac:	40020000 	.word	0x40020000

08002cb0 <HAL_UART_MspInit>:
* This function configures the hardware resources used in this example
* @param huart: UART handle pointer
* @retval None
*/
void HAL_UART_MspInit(UART_HandleTypeDef* huart)
{
 8002cb0:	b580      	push	{r7, lr}
 8002cb2:	b08a      	sub	sp, #40	@ 0x28
 8002cb4:	af00      	add	r7, sp, #0
 8002cb6:	6078      	str	r0, [r7, #4]
  GPIO_InitTypeDef GPIO_InitStruct = {0};
 8002cb8:	f107 0314 	add.w	r3, r7, #20
 8002cbc:	2200      	movs	r2, #0
 8002cbe:	601a      	str	r2, [r3, #0]
 8002cc0:	605a      	str	r2, [r3, #4]
 8002cc2:	609a      	str	r2, [r3, #8]
 8002cc4:	60da      	str	r2, [r3, #12]
 8002cc6:	611a      	str	r2, [r3, #16]
  if(huart->Instance==USART2)
 8002cc8:	687b      	ldr	r3, [r7, #4]
 8002cca:	681b      	ldr	r3, [r3, #0]
 8002ccc:	4a19      	ldr	r2, [pc, #100]	@ (8002d34 <HAL_UART_MspInit+0x84>)
 8002cce:	4293      	cmp	r3, r2
 8002cd0:	d12b      	bne.n	8002d2a <HAL_UART_MspInit+0x7a>
  {
  /* USER CODE BEGIN USART2_MspInit 0 */

  /* USER CODE END USART2_MspInit 0 */
    /* Peripheral clock enable */
    __HAL_RCC_USART2_CLK_ENABLE();
 8002cd2:	2300      	movs	r3, #0
 8002cd4:	613b      	str	r3, [r7, #16]
 8002cd6:	4b18      	ldr	r3, [pc, #96]	@ (8002d38 <HAL_UART_MspInit+0x88>)
 8002cd8:	6c1b      	ldr	r3, [r3, #64]	@ 0x40
 8002cda:	4a17      	ldr	r2, [pc, #92]	@ (8002d38 <HAL_UART_MspInit+0x88>)
 8002cdc:	f443 3300 	orr.w	r3, r3, #131072	@ 0x20000
 8002ce0:	6413      	str	r3, [r2, #64]	@ 0x40
 8002ce2:	4b15      	ldr	r3, [pc, #84]	@ (8002d38 <HAL_UART_MspInit+0x88>)
 8002ce4:	6c1b      	ldr	r3, [r3, #64]	@ 0x40
 8002ce6:	f403 3300 	and.w	r3, r3, #131072	@ 0x20000
 8002cea:	613b      	str	r3, [r7, #16]
 8002cec:	693b      	ldr	r3, [r7, #16]

    __HAL_RCC_GPIOA_CLK_ENABLE();
 8002cee:	2300      	movs	r3, #0
 8002cf0:	60fb      	str	r3, [r7, #12]
 8002cf2:	4b11      	ldr	r3, [pc, #68]	@ (8002d38 <HAL_UART_MspInit+0x88>)
 8002cf4:	6b1b      	ldr	r3, [r3, #48]	@ 0x30
 8002cf6:	4a10      	ldr	r2, [pc, #64]	@ (8002d38 <HAL_UART_MspInit+0x88>)
 8002cf8:	f043 0301 	orr.w	r3, r3, #1
 8002cfc:	6313      	str	r3, [r2, #48]	@ 0x30
 8002cfe:	4b0e      	ldr	r3, [pc, #56]	@ (8002d38 <HAL_UART_MspInit+0x88>)
 8002d00:	6b1b      	ldr	r3, [r3, #48]	@ 0x30
 8002d02:	f003 0301 	and.w	r3, r3, #1
 8002d06:	60fb      	str	r3, [r7, #12]
 8002d08:	68fb      	ldr	r3, [r7, #12]
    /**USART2 GPIO Configuration
    PA2     ------> USART2_TX
    PA3     ------> USART2_RX
    */
    GPIO_InitStruct.Pin = USART_TX_Pin|USART_RX_Pin;
 8002d0a:	230c      	movs	r3, #12
 8002d0c:	617b      	str	r3, [r7, #20]
    GPIO_InitStruct.Mode = GPIO_MODE_AF_PP;
 8002d0e:	2302      	movs	r3, #2
 8002d10:	61bb      	str	r3, [r7, #24]
    GPIO_InitStruct.Pull = GPIO_NOPULL;
 8002d12:	2300      	movs	r3, #0
 8002d14:	61fb      	str	r3, [r7, #28]
    GPIO_InitStruct.Speed = GPIO_SPEED_FREQ_VERY_HIGH;
 8002d16:	2303      	movs	r3, #3
 8002d18:	623b      	str	r3, [r7, #32]
    GPIO_InitStruct.Alternate = GPIO_AF7_USART2;
 8002d1a:	2307      	movs	r3, #7
 8002d1c:	627b      	str	r3, [r7, #36]	@ 0x24
    HAL_GPIO_Init(GPIOA, &GPIO_InitStruct);
 8002d1e:	f107 0314 	add.w	r3, r7, #20
 8002d22:	4619      	mov	r1, r3
 8002d24:	4805      	ldr	r0, [pc, #20]	@ (8002d3c <HAL_UART_MspInit+0x8c>)
 8002d26:	f000 fb39 	bl	800339c <HAL_GPIO_Init>

  /* USER CODE END USART2_MspInit 1 */

  }

}
 8002d2a:	bf00      	nop
 8002d2c:	3728      	adds	r7, #40	@ 0x28
 8002d2e:	46bd      	mov	sp, r7
 8002d30:	bd80      	pop	{r7, pc}
 8002d32:	bf00      	nop
 8002d34:	40004400 	.word	0x40004400
 8002d38:	40023800 	.word	0x40023800
 8002d3c:	40020000 	.word	0x40020000

08002d40 <HAL_InitTick>:
  *         reset by HAL_Init() or at any time when clock is configured, by HAL_RCC_ClockConfig().
  * @param  TickPriority: Tick interrupt priority.
  * @retval HAL status
  */
HAL_StatusTypeDef HAL_InitTick(uint32_t TickPriority)
{
 8002d40:	b580      	push	{r7, lr}
 8002d42:	b08c      	sub	sp, #48	@ 0x30
 8002d44:	af00      	add	r7, sp, #0
 8002d46:	6078      	str	r0, [r7, #4]
  RCC_ClkInitTypeDef    clkconfig;
  uint32_t              uwTimclock = 0U;
 8002d48:	2300      	movs	r3, #0
 8002d4a:	62bb      	str	r3, [r7, #40]	@ 0x28

  uint32_t              uwPrescalerValue = 0U;
 8002d4c:	2300      	movs	r3, #0
 8002d4e:	627b      	str	r3, [r7, #36]	@ 0x24
  uint32_t              pFLatency;

  HAL_StatusTypeDef     status;

  /* Enable TIM1 clock */
  __HAL_RCC_TIM1_CLK_ENABLE();
 8002d50:	2300      	movs	r3, #0
 8002d52:	60bb      	str	r3, [r7, #8]
 8002d54:	4b2f      	ldr	r3, [pc, #188]	@ (8002e14 <HAL_InitTick+0xd4>)
 8002d56:	6c5b      	ldr	r3, [r3, #68]	@ 0x44
 8002d58:	4a2e      	ldr	r2, [pc, #184]	@ (8002e14 <HAL_InitTick+0xd4>)
 8002d5a:	f043 0301 	orr.w	r3, r3, #1
 8002d5e:	6453      	str	r3, [r2, #68]	@ 0x44
 8002d60:	4b2c      	ldr	r3, [pc, #176]	@ (8002e14 <HAL_InitTick+0xd4>)
 8002d62:	6c5b      	ldr	r3, [r3, #68]	@ 0x44
 8002d64:	f003 0301 	and.w	r3, r3, #1
 8002d68:	60bb      	str	r3, [r7, #8]
 8002d6a:	68bb      	ldr	r3, [r7, #8]

/* Get clock configuration */
  HAL_RCC_GetClockConfig(&clkconfig, &pFLatency);
 8002d6c:	f107 020c 	add.w	r2, r7, #12
 8002d70:	f107 0310 	add.w	r3, r7, #16
 8002d74:	4611      	mov	r1, r2
 8002d76:	4618      	mov	r0, r3
 8002d78:	f000 ff1c 	bl	8003bb4 <HAL_RCC_GetClockConfig>

  /* Compute TIM1 clock */
      uwTimclock = 2*HAL_RCC_GetPCLK2Freq();
 8002d7c:	f000 ff06 	bl	8003b8c <HAL_RCC_GetPCLK2Freq>
 8002d80:	4603      	mov	r3, r0
 8002d82:	005b      	lsls	r3, r3, #1
 8002d84:	62bb      	str	r3, [r7, #40]	@ 0x28

  /* Compute the prescaler value to have TIM1 counter clock equal to 1MHz */
  uwPrescalerValue = (uint32_t) ((uwTimclock / 1000000U) - 1U);
 8002d86:	6abb      	ldr	r3, [r7, #40]	@ 0x28
 8002d88:	4a23      	ldr	r2, [pc, #140]	@ (8002e18 <HAL_InitTick+0xd8>)
 8002d8a:	fba2 2303 	umull	r2, r3, r2, r3
 8002d8e:	0c9b      	lsrs	r3, r3, #18
 8002d90:	3b01      	subs	r3, #1
 8002d92:	627b      	str	r3, [r7, #36]	@ 0x24

  /* Initialize TIM1 */
  htim1.Instance = TIM1;
 8002d94:	4b21      	ldr	r3, [pc, #132]	@ (8002e1c <HAL_InitTick+0xdc>)
 8002d96:	4a22      	ldr	r2, [pc, #136]	@ (8002e20 <HAL_InitTick+0xe0>)
 8002d98:	601a      	str	r2, [r3, #0]
  + Period = [(TIM1CLK/1000) - 1]. to have a (1/1000) s time base.
  + Prescaler = (uwTimclock/1000000 - 1) to have a 1MHz counter clock.
  + ClockDivision = 0
  + Counter direction = Up
  */
  htim1.Init.Period = (1000000U / 1000U) - 1U;
 8002d9a:	4b20      	ldr	r3, [pc, #128]	@ (8002e1c <HAL_InitTick+0xdc>)
 8002d9c:	f240 32e7 	movw	r2, #999	@ 0x3e7
 8002da0:	60da      	str	r2, [r3, #12]
  htim1.Init.Prescaler = uwPrescalerValue;
 8002da2:	4a1e      	ldr	r2, [pc, #120]	@ (8002e1c <HAL_InitTick+0xdc>)
 8002da4:	6a7b      	ldr	r3, [r7, #36]	@ 0x24
 8002da6:	6053      	str	r3, [r2, #4]
  htim1.Init.ClockDivision = 0;
 8002da8:	4b1c      	ldr	r3, [pc, #112]	@ (8002e1c <HAL_InitTick+0xdc>)
 8002daa:	2200      	movs	r2, #0
 8002dac:	611a      	str	r2, [r3, #16]
  htim1.Init.CounterMode = TIM_COUNTERMODE_UP;
 8002dae:	4b1b      	ldr	r3, [pc, #108]	@ (8002e1c <HAL_InitTick+0xdc>)
 8002db0:	2200      	movs	r2, #0
 8002db2:	609a      	str	r2, [r3, #8]
  htim1.Init.AutoReloadPreload = TIM_AUTORELOAD_PRELOAD_DISABLE;
 8002db4:	4b19      	ldr	r3, [pc, #100]	@ (8002e1c <HAL_InitTick+0xdc>)
 8002db6:	2200      	movs	r2, #0
 8002db8:	619a      	str	r2, [r3, #24]

  status = HAL_TIM_Base_Init(&htim1);
 8002dba:	4818      	ldr	r0, [pc, #96]	@ (8002e1c <HAL_InitTick+0xdc>)
 8002dbc:	f002 f9cc 	bl	8005158 <HAL_TIM_Base_Init>
 8002dc0:	4603      	mov	r3, r0
 8002dc2:	f887 302f 	strb.w	r3, [r7, #47]	@ 0x2f
  if (status == HAL_OK)
 8002dc6:	f897 302f 	ldrb.w	r3, [r7, #47]	@ 0x2f
 8002dca:	2b00      	cmp	r3, #0
 8002dcc:	d11b      	bne.n	8002e06 <HAL_InitTick+0xc6>
  {
    /* Start the TIM time Base generation in interrupt mode */
    status = HAL_TIM_Base_Start_IT(&htim1);
 8002dce:	4813      	ldr	r0, [pc, #76]	@ (8002e1c <HAL_InitTick+0xdc>)
 8002dd0:	f002 fa1c 	bl	800520c <HAL_TIM_Base_Start_IT>
 8002dd4:	4603      	mov	r3, r0
 8002dd6:	f887 302f 	strb.w	r3, [r7, #47]	@ 0x2f
    if (status == HAL_OK)
 8002dda:	f897 302f 	ldrb.w	r3, [r7, #47]	@ 0x2f
 8002dde:	2b00      	cmp	r3, #0
 8002de0:	d111      	bne.n	8002e06 <HAL_InitTick+0xc6>
    {
    /* Enable the TIM1 global Interrupt */
        HAL_NVIC_EnableIRQ(TIM1_UP_TIM10_IRQn);
 8002de2:	2019      	movs	r0, #25
 8002de4:	f000 facc 	bl	8003380 <HAL_NVIC_EnableIRQ>
      /* Configure the SysTick IRQ priority */
      if (TickPriority < (1UL << __NVIC_PRIO_BITS))
 8002de8:	687b      	ldr	r3, [r7, #4]
 8002dea:	2b0f      	cmp	r3, #15
 8002dec:	d808      	bhi.n	8002e00 <HAL_InitTick+0xc0>
      {
        /* Configure the TIM IRQ priority */
        HAL_NVIC_SetPriority(TIM1_UP_TIM10_IRQn, TickPriority, 0U);
 8002dee:	2200      	movs	r2, #0
 8002df0:	6879      	ldr	r1, [r7, #4]
 8002df2:	2019      	movs	r0, #25
 8002df4:	f000 faa8 	bl	8003348 <HAL_NVIC_SetPriority>
        uwTickPrio = TickPriority;
 8002df8:	4a0a      	ldr	r2, [pc, #40]	@ (8002e24 <HAL_InitTick+0xe4>)
 8002dfa:	687b      	ldr	r3, [r7, #4]
 8002dfc:	6013      	str	r3, [r2, #0]
 8002dfe:	e002      	b.n	8002e06 <HAL_InitTick+0xc6>
      }
      else
      {
        status = HAL_ERROR;
 8002e00:	2301      	movs	r3, #1
 8002e02:	f887 302f 	strb.w	r3, [r7, #47]	@ 0x2f
      }
    }
  }

 /* Return function status */
  return status;
 8002e06:	f897 302f 	ldrb.w	r3, [r7, #47]	@ 0x2f
}
 8002e0a:	4618      	mov	r0, r3
 8002e0c:	3730      	adds	r7, #48	@ 0x30
 8002e0e:	46bd      	mov	sp, r7
 8002e10:	bd80      	pop	{r7, pc}
 8002e12:	bf00      	nop
 8002e14:	40023800 	.word	0x40023800
 8002e18:	431bde83 	.word	0x431bde83
 8002e1c:	20000520 	.word	0x20000520
 8002e20:	40010000 	.word	0x40010000
 8002e24:	20000008 	.word	0x20000008

08002e28 <NMI_Handler>:
/******************************************************************************/
/**
  * @brief This function handles Non maskable interrupt.
  */
void NMI_Handler(void)
{
 8002e28:	b480      	push	{r7}
 8002e2a:	af00      	add	r7, sp, #0
  /* USER CODE BEGIN NonMaskableInt_IRQn 0 */

  /* USER CODE END NonMaskableInt_IRQn 0 */
  /* USER CODE BEGIN NonMaskableInt_IRQn 1 */
   while (1)
 8002e2c:	bf00      	nop
 8002e2e:	e7fd      	b.n	8002e2c <NMI_Handler+0x4>

08002e30 <HardFault_Handler>:

/**
  * @brief This function handles Hard fault interrupt.
  */
void HardFault_Handler(void)
{
 8002e30:	b480      	push	{r7}
 8002e32:	af00      	add	r7, sp, #0
  /* USER CODE BEGIN HardFault_IRQn 0 */

  /* USER CODE END HardFault_IRQn 0 */
  while (1)
 8002e34:	bf00      	nop
 8002e36:	e7fd      	b.n	8002e34 <HardFault_Handler+0x4>

08002e38 <MemManage_Handler>:

/**
  * @brief This function handles Memory management fault.
  */
void MemManage_Handler(void)
{
 8002e38:	b480      	push	{r7}
 8002e3a:	af00      	add	r7, sp, #0
  /* USER CODE BEGIN MemoryManagement_IRQn 0 */

  /* USER CODE END MemoryManagement_IRQn 0 */
  while (1)
 8002e3c:	bf00      	nop
 8002e3e:	e7fd      	b.n	8002e3c <MemManage_Handler+0x4>

08002e40 <BusFault_Handler>:

/**
  * @brief This function handles Pre-fetch fault, memory access fault.
  */
void BusFault_Handler(void)
{
 8002e40:	b480      	push	{r7}
 8002e42:	af00      	add	r7, sp, #0
  /* USER CODE BEGIN BusFault_IRQn 0 */

  /* USER CODE END BusFault_IRQn 0 */
  while (1)
 8002e44:	bf00      	nop
 8002e46:	e7fd      	b.n	8002e44 <BusFault_Handler+0x4>

08002e48 <UsageFault_Handler>:

/**
  * @brief This function handles Undefined instruction or illegal state.
  */
void UsageFault_Handler(void)
{
 8002e48:	b480      	push	{r7}
 8002e4a:	af00      	add	r7, sp, #0
  /* USER CODE BEGIN UsageFault_IRQn 0 */

  /* USER CODE END UsageFault_IRQn 0 */
  while (1)
 8002e4c:	bf00      	nop
 8002e4e:	e7fd      	b.n	8002e4c <UsageFault_Handler+0x4>

08002e50 <SVC_Handler>:

/**
  * @brief This function handles System service call via SWI instruction.
  */
void SVC_Handler(void)
{
 8002e50:	b480      	push	{r7}
 8002e52:	af00      	add	r7, sp, #0

  /* USER CODE END SVCall_IRQn 0 */
  /* USER CODE BEGIN SVCall_IRQn 1 */

  /* USER CODE END SVCall_IRQn 1 */
}
 8002e54:	bf00      	nop
 8002e56:	46bd      	mov	sp, r7
 8002e58:	f85d 7b04 	ldr.w	r7, [sp], #4
 8002e5c:	4770      	bx	lr

08002e5e <DebugMon_Handler>:

/**
  * @brief This function handles Debug monitor.
  */
void DebugMon_Handler(void)
{
 8002e5e:	b480      	push	{r7}
 8002e60:	af00      	add	r7, sp, #0

  /* USER CODE END DebugMonitor_IRQn 0 */
  /* USER CODE BEGIN DebugMonitor_IRQn 1 */

  /* USER CODE END DebugMonitor_IRQn 1 */
}
 8002e62:	bf00      	nop
 8002e64:	46bd      	mov	sp, r7
 8002e66:	f85d 7b04 	ldr.w	r7, [sp], #4
 8002e6a:	4770      	bx	lr

08002e6c <PendSV_Handler>:

/**
  * @brief This function handles Pendable request for system service.
  */
void PendSV_Handler(void)
{
 8002e6c:	b480      	push	{r7}
 8002e6e:	af00      	add	r7, sp, #0

  /* USER CODE END PendSV_IRQn 0 */
  /* USER CODE BEGIN PendSV_IRQn 1 */

  /* USER CODE END PendSV_IRQn 1 */
}
 8002e70:	bf00      	nop
 8002e72:	46bd      	mov	sp, r7
 8002e74:	f85d 7b04 	ldr.w	r7, [sp], #4
 8002e78:	4770      	bx	lr

08002e7a <SysTick_Handler>:

/**
  * @brief This function handles System tick timer.
  */
void SysTick_Handler(void)
{
 8002e7a:	b480      	push	{r7}
 8002e7c:	af00      	add	r7, sp, #0
  /* USER CODE END SysTick_IRQn 0 */

  /* USER CODE BEGIN SysTick_IRQn 1 */

  /* USER CODE END SysTick_IRQn 1 */
}
 8002e7e:	bf00      	nop
 8002e80:	46bd      	mov	sp, r7
 8002e82:	f85d 7b04 	ldr.w	r7, [sp], #4
 8002e86:	4770      	bx	lr

08002e88 <TIM1_UP_TIM10_IRQHandler>:

/**
  * @brief This function handles TIM1 update interrupt and TIM10 global interrupt.
  */
void TIM1_UP_TIM10_IRQHandler(void)
{
 8002e88:	b580      	push	{r7, lr}
 8002e8a:	af00      	add	r7, sp, #0
  /* USER CODE BEGIN TIM1_UP_TIM10_IRQn 0 */

  /* USER CODE END TIM1_UP_TIM10_IRQn 0 */
  HAL_TIM_IRQHandler(&htim1);
 8002e8c:	4802      	ldr	r0, [pc, #8]	@ (8002e98 <TIM1_UP_TIM10_IRQHandler+0x10>)
 8002e8e:	f002 fa2d 	bl	80052ec <HAL_TIM_IRQHandler>
  /* USER CODE BEGIN TIM1_UP_TIM10_IRQn 1 */

  /* USER CODE END TIM1_UP_TIM10_IRQn 1 */
}
 8002e92:	bf00      	nop
 8002e94:	bd80      	pop	{r7, pc}
 8002e96:	bf00      	nop
 8002e98:	20000520 	.word	0x20000520

08002e9c <SystemInit>:
  *         configuration.
  * @param  None
  * @retval None
  */
void SystemInit(void)
{
 8002e9c:	b480      	push	{r7}
 8002e9e:	af00      	add	r7, sp, #0
  /* FPU settings ------------------------------------------------------------*/
  #if (__FPU_PRESENT == 1) && (__FPU_USED == 1)
    SCB->CPACR |= ((3UL << 10*2)|(3UL << 11*2));  /* set CP10 and CP11 Full Access */
 8002ea0:	4b06      	ldr	r3, [pc, #24]	@ (8002ebc <SystemInit+0x20>)
 8002ea2:	f8d3 3088 	ldr.w	r3, [r3, #136]	@ 0x88
 8002ea6:	4a05      	ldr	r2, [pc, #20]	@ (8002ebc <SystemInit+0x20>)
 8002ea8:	f443 0370 	orr.w	r3, r3, #15728640	@ 0xf00000
 8002eac:	f8c2 3088 	str.w	r3, [r2, #136]	@ 0x88

  /* Configure the Vector Table location -------------------------------------*/
#if defined(USER_VECT_TAB_ADDRESS)
  SCB->VTOR = VECT_TAB_BASE_ADDRESS | VECT_TAB_OFFSET; /* Vector Table Relocation in Internal SRAM */
#endif /* USER_VECT_TAB_ADDRESS */
}
 8002eb0:	bf00      	nop
 8002eb2:	46bd      	mov	sp, r7
 8002eb4:	f85d 7b04 	ldr.w	r7, [sp], #4
 8002eb8:	4770      	bx	lr
 8002eba:	bf00      	nop
 8002ebc:	e000ed00 	.word	0xe000ed00

08002ec0 <Reset_Handler>:

    .section  .text.Reset_Handler
  .weak  Reset_Handler
  .type  Reset_Handler, %function
Reset_Handler:  
  ldr   sp, =_estack      /* set stack pointer */
 8002ec0:	f8df d034 	ldr.w	sp, [pc, #52]	@ 8002ef8 <LoopFillZerobss+0x12>

/* Copy the data segment initializers from flash to SRAM */  
  ldr r0, =_sdata
 8002ec4:	480d      	ldr	r0, [pc, #52]	@ (8002efc <LoopFillZerobss+0x16>)
  ldr r1, =_edata
 8002ec6:	490e      	ldr	r1, [pc, #56]	@ (8002f00 <LoopFillZerobss+0x1a>)
  ldr r2, =_sidata
 8002ec8:	4a0e      	ldr	r2, [pc, #56]	@ (8002f04 <LoopFillZerobss+0x1e>)
  movs r3, #0
 8002eca:	2300      	movs	r3, #0
  b LoopCopyDataInit
 8002ecc:	e002      	b.n	8002ed4 <LoopCopyDataInit>

08002ece <CopyDataInit>:

CopyDataInit:
  ldr r4, [r2, r3]
 8002ece:	58d4      	ldr	r4, [r2, r3]
  str r4, [r0, r3]
 8002ed0:	50c4      	str	r4, [r0, r3]
  adds r3, r3, #4
 8002ed2:	3304      	adds	r3, #4

08002ed4 <LoopCopyDataInit>:

LoopCopyDataInit:
  adds r4, r0, r3
 8002ed4:	18c4      	adds	r4, r0, r3
  cmp r4, r1
 8002ed6:	428c      	cmp	r4, r1
  bcc CopyDataInit
 8002ed8:	d3f9      	bcc.n	8002ece <CopyDataInit>
  
/* Zero fill the bss segment. */
  ldr r2, =_sbss
 8002eda:	4a0b      	ldr	r2, [pc, #44]	@ (8002f08 <LoopFillZerobss+0x22>)
  ldr r4, =_ebss
 8002edc:	4c0b      	ldr	r4, [pc, #44]	@ (8002f0c <LoopFillZerobss+0x26>)
  movs r3, #0
 8002ede:	2300      	movs	r3, #0
  b LoopFillZerobss
 8002ee0:	e001      	b.n	8002ee6 <LoopFillZerobss>

08002ee2 <FillZerobss>:

FillZerobss:
  str  r3, [r2]
 8002ee2:	6013      	str	r3, [r2, #0]
  adds r2, r2, #4
 8002ee4:	3204      	adds	r2, #4

08002ee6 <LoopFillZerobss>:

LoopFillZerobss:
  cmp r2, r4
 8002ee6:	42a2      	cmp	r2, r4
  bcc FillZerobss
 8002ee8:	d3fb      	bcc.n	8002ee2 <FillZerobss>

/* Call the clock system initialization function.*/
  bl  SystemInit   
 8002eea:	f7ff ffd7 	bl	8002e9c <SystemInit>
/* Call static constructors */
    bl __libc_init_array
 8002eee:	f003 fe9b 	bl	8006c28 <__libc_init_array>
/* Call the application's entry point.*/
  bl  main
 8002ef2:	f7ff fba7 	bl	8002644 <main>
  bx  lr    
 8002ef6:	4770      	bx	lr
  ldr   sp, =_estack      /* set stack pointer */
 8002ef8:	20020000 	.word	0x20020000
  ldr r0, =_sdata
 8002efc:	20000000 	.word	0x20000000
  ldr r1, =_edata
 8002f00:	200001d8 	.word	0x200001d8
  ldr r2, =_sidata
 8002f04:	080093d0 	.word	0x080093d0
  ldr r2, =_sbss
 8002f08:	200001d8 	.word	0x200001d8
  ldr r4, =_ebss
 8002f0c:	200006bc 	.word	0x200006bc

08002f10 <ADC_IRQHandler>:
 * @retval None       
*/
    .section  .text.Default_Handler,"ax",%progbits
Default_Handler:
Infinite_Loop:
  b  Infinite_Loop
 8002f10:	e7fe      	b.n	8002f10 <ADC_IRQHandler>
	...

08002f14 <HAL_Init>:
  *         need to ensure that the SysTick time base is always set to 1 millisecond
  *         to have correct HAL operation.
  * @retval HAL status
  */
HAL_StatusTypeDef HAL_Init(void)
{
 8002f14:	b580      	push	{r7, lr}
 8002f16:	af00      	add	r7, sp, #0
  /* Configure Flash prefetch, Instruction cache, Data cache */ 
#if (INSTRUCTION_CACHE_ENABLE != 0U)
  __HAL_FLASH_INSTRUCTION_CACHE_ENABLE();
 8002f18:	4b0e      	ldr	r3, [pc, #56]	@ (8002f54 <HAL_Init+0x40>)
 8002f1a:	681b      	ldr	r3, [r3, #0]
 8002f1c:	4a0d      	ldr	r2, [pc, #52]	@ (8002f54 <HAL_Init+0x40>)
 8002f1e:	f443 7300 	orr.w	r3, r3, #512	@ 0x200
 8002f22:	6013      	str	r3, [r2, #0]
#endif /* INSTRUCTION_CACHE_ENABLE */

#if (DATA_CACHE_ENABLE != 0U)
  __HAL_FLASH_DATA_CACHE_ENABLE();
 8002f24:	4b0b      	ldr	r3, [pc, #44]	@ (8002f54 <HAL_Init+0x40>)
 8002f26:	681b      	ldr	r3, [r3, #0]
 8002f28:	4a0a      	ldr	r2, [pc, #40]	@ (8002f54 <HAL_Init+0x40>)
 8002f2a:	f443 6380 	orr.w	r3, r3, #1024	@ 0x400
 8002f2e:	6013      	str	r3, [r2, #0]
#endif /* DATA_CACHE_ENABLE */

#if (PREFETCH_ENABLE != 0U)
  __HAL_FLASH_PREFETCH_BUFFER_ENABLE();
 8002f30:	4b08      	ldr	r3, [pc, #32]	@ (8002f54 <HAL_Init+0x40>)
 8002f32:	681b      	ldr	r3, [r3, #0]
 8002f34:	4a07      	ldr	r2, [pc, #28]	@ (8002f54 <HAL_Init+0x40>)
 8002f36:	f443 7380 	orr.w	r3, r3, #256	@ 0x100
 8002f3a:	6013      	str	r3, [r2, #0]
#endif /* PREFETCH_ENABLE */

  /* Set Interrupt Group Priority */
  HAL_NVIC_SetPriorityGrouping(NVIC_PRIORITYGROUP_4);
 8002f3c:	2003      	movs	r0, #3
 8002f3e:	f000 f9f8 	bl	8003332 <HAL_NVIC_SetPriorityGrouping>

  /* Use systick as time base source and configure 1ms tick (default clock after Reset is HSI) */
  HAL_InitTick(TICK_INT_PRIORITY);
 8002f42:	200f      	movs	r0, #15
 8002f44:	f7ff fefc 	bl	8002d40 <HAL_InitTick>

  /* Init the low level hardware */
  HAL_MspInit();
 8002f48:	f7ff fdb2 	bl	8002ab0 <HAL_MspInit>

  /* Return function status */
  return HAL_OK;
 8002f4c:	2300      	movs	r3, #0
}
 8002f4e:	4618      	mov	r0, r3
 8002f50:	bd80      	pop	{r7, pc}
 8002f52:	bf00      	nop
 8002f54:	40023c00 	.word	0x40023c00

08002f58 <HAL_IncTick>:
 * @note This function is declared as __weak to be overwritten in case of other 
  *      implementations in user file.
  * @retval None
  */
__weak void HAL_IncTick(void)
{
 8002f58:	b480      	push	{r7}
 8002f5a:	af00      	add	r7, sp, #0
  uwTick += uwTickFreq;
 8002f5c:	4b06      	ldr	r3, [pc, #24]	@ (8002f78 <HAL_IncTick+0x20>)
 8002f5e:	781b      	ldrb	r3, [r3, #0]
 8002f60:	461a      	mov	r2, r3
 8002f62:	4b06      	ldr	r3, [pc, #24]	@ (8002f7c <HAL_IncTick+0x24>)
 8002f64:	681b      	ldr	r3, [r3, #0]
 8002f66:	4413      	add	r3, r2
 8002f68:	4a04      	ldr	r2, [pc, #16]	@ (8002f7c <HAL_IncTick+0x24>)
 8002f6a:	6013      	str	r3, [r2, #0]
}
 8002f6c:	bf00      	nop
 8002f6e:	46bd      	mov	sp, r7
 8002f70:	f85d 7b04 	ldr.w	r7, [sp], #4
 8002f74:	4770      	bx	lr
 8002f76:	bf00      	nop
 8002f78:	2000000c 	.word	0x2000000c
 8002f7c:	20000568 	.word	0x20000568

08002f80 <HAL_GetTick>:
  * @note This function is declared as __weak to be overwritten in case of other 
  *       implementations in user file.
  * @retval tick value
  */
__weak uint32_t HAL_GetTick(void)
{
 8002f80:	b480      	push	{r7}
 8002f82:	af00      	add	r7, sp, #0
  return uwTick;
 8002f84:	4b03      	ldr	r3, [pc, #12]	@ (8002f94 <HAL_GetTick+0x14>)
 8002f86:	681b      	ldr	r3, [r3, #0]
}
 8002f88:	4618      	mov	r0, r3
 8002f8a:	46bd      	mov	sp, r7
 8002f8c:	f85d 7b04 	ldr.w	r7, [sp], #4
 8002f90:	4770      	bx	lr
 8002f92:	bf00      	nop
 8002f94:	20000568 	.word	0x20000568

08002f98 <HAL_Delay>:
  *       implementations in user file.
  * @param Delay specifies the delay time length, in milliseconds.
  * @retval None
  */
__weak void HAL_Delay(uint32_t Delay)
{
 8002f98:	b580      	push	{r7, lr}
 8002f9a:	b084      	sub	sp, #16
 8002f9c:	af00      	add	r7, sp, #0
 8002f9e:	6078      	str	r0, [r7, #4]
  uint32_t tickstart = HAL_GetTick();
 8002fa0:	f7ff ffee 	bl	8002f80 <HAL_GetTick>
 8002fa4:	60b8      	str	r0, [r7, #8]
  uint32_t wait = Delay;
 8002fa6:	687b      	ldr	r3, [r7, #4]
 8002fa8:	60fb      	str	r3, [r7, #12]

  /* Add a freq to guarantee minimum wait */
  if (wait < HAL_MAX_DELAY)
 8002faa:	68fb      	ldr	r3, [r7, #12]
 8002fac:	f1b3 3fff 	cmp.w	r3, #4294967295
 8002fb0:	d005      	beq.n	8002fbe <HAL_Delay+0x26>
  {
    wait += (uint32_t)(uwTickFreq);
 8002fb2:	4b0a      	ldr	r3, [pc, #40]	@ (8002fdc <HAL_Delay+0x44>)
 8002fb4:	781b      	ldrb	r3, [r3, #0]
 8002fb6:	461a      	mov	r2, r3
 8002fb8:	68fb      	ldr	r3, [r7, #12]
 8002fba:	4413      	add	r3, r2
 8002fbc:	60fb      	str	r3, [r7, #12]
  }

  while((HAL_GetTick() - tickstart) < wait)
 8002fbe:	bf00      	nop
 8002fc0:	f7ff ffde 	bl	8002f80 <HAL_GetTick>
 8002fc4:	4602      	mov	r2, r0
 8002fc6:	68bb      	ldr	r3, [r7, #8]
 8002fc8:	1ad3      	subs	r3, r2, r3
 8002fca:	68fa      	ldr	r2, [r7, #12]
 8002fcc:	429a      	cmp	r2, r3
 8002fce:	d8f7      	bhi.n	8002fc0 <HAL_Delay+0x28>
  {
  }
}
 8002fd0:	bf00      	nop
 8002fd2:	bf00      	nop
 8002fd4:	3710      	adds	r7, #16
 8002fd6:	46bd      	mov	sp, r7
 8002fd8:	bd80      	pop	{r7, pc}
 8002fda:	bf00      	nop
 8002fdc:	2000000c 	.word	0x2000000c

08002fe0 <HAL_CAN_Init>:
  * @param  hcan pointer to a CAN_HandleTypeDef structure that contains
  *         the configuration information for the specified CAN.
  * @retval HAL status
  */
HAL_StatusTypeDef HAL_CAN_Init(CAN_HandleTypeDef *hcan)
{
 8002fe0:	b580      	push	{r7, lr}
 8002fe2:	b084      	sub	sp, #16
 8002fe4:	af00      	add	r7, sp, #0
 8002fe6:	6078      	str	r0, [r7, #4]
  uint32_t tickstart;

  /* Check CAN handle */
  if (hcan == NULL)
 8002fe8:	687b      	ldr	r3, [r7, #4]
 8002fea:	2b00      	cmp	r3, #0
 8002fec:	d101      	bne.n	8002ff2 <HAL_CAN_Init+0x12>
  {
    return HAL_ERROR;
 8002fee:	2301      	movs	r3, #1
 8002ff0:	e0ed      	b.n	80031ce <HAL_CAN_Init+0x1ee>
    /* Init the low level hardware: CLOCK, NVIC */
    hcan->MspInitCallback(hcan);
  }

#else
  if (hcan->State == HAL_CAN_STATE_RESET)
 8002ff2:	687b      	ldr	r3, [r7, #4]
 8002ff4:	f893 3020 	ldrb.w	r3, [r3, #32]
 8002ff8:	b2db      	uxtb	r3, r3
 8002ffa:	2b00      	cmp	r3, #0
 8002ffc:	d102      	bne.n	8003004 <HAL_CAN_Init+0x24>
  {
    /* Init the low level hardware: CLOCK, NVIC */
    HAL_CAN_MspInit(hcan);
 8002ffe:	6878      	ldr	r0, [r7, #4]
 8003000:	f7ff fd7e 	bl	8002b00 <HAL_CAN_MspInit>
  }
#endif /* USE_HAL_CAN_REGISTER_CALLBACKS */

  /* Request initialisation */
  SET_BIT(hcan->Instance->MCR, CAN_MCR_INRQ);
 8003004:	687b      	ldr	r3, [r7, #4]
 8003006:	681b      	ldr	r3, [r3, #0]
 8003008:	681a      	ldr	r2, [r3, #0]
 800300a:	687b      	ldr	r3, [r7, #4]
 800300c:	681b      	ldr	r3, [r3, #0]
 800300e:	f042 0201 	orr.w	r2, r2, #1
 8003012:	601a      	str	r2, [r3, #0]

  /* Get tick */
  tickstart = HAL_GetTick();
 8003014:	f7ff ffb4 	bl	8002f80 <HAL_GetTick>
 8003018:	60f8      	str	r0, [r7, #12]

  /* Wait initialisation acknowledge */
  while ((hcan->Instance->MSR & CAN_MSR_INAK) == 0U)
 800301a:	e012      	b.n	8003042 <HAL_CAN_Init+0x62>
  {
    if ((HAL_GetTick() - tickstart) > CAN_TIMEOUT_VALUE)
 800301c:	f7ff ffb0 	bl	8002f80 <HAL_GetTick>
 8003020:	4602      	mov	r2, r0
 8003022:	68fb      	ldr	r3, [r7, #12]
 8003024:	1ad3      	subs	r3, r2, r3
 8003026:	2b0a      	cmp	r3, #10
 8003028:	d90b      	bls.n	8003042 <HAL_CAN_Init+0x62>
    {
      /* Update error code */
      hcan->ErrorCode |= HAL_CAN_ERROR_TIMEOUT;
 800302a:	687b      	ldr	r3, [r7, #4]
 800302c:	6a5b      	ldr	r3, [r3, #36]	@ 0x24
 800302e:	f443 3200 	orr.w	r2, r3, #131072	@ 0x20000
 8003032:	687b      	ldr	r3, [r7, #4]
 8003034:	625a      	str	r2, [r3, #36]	@ 0x24

      /* Change CAN state */
      hcan->State = HAL_CAN_STATE_ERROR;
 8003036:	687b      	ldr	r3, [r7, #4]
 8003038:	2205      	movs	r2, #5
 800303a:	f883 2020 	strb.w	r2, [r3, #32]

      return HAL_ERROR;
 800303e:	2301      	movs	r3, #1
 8003040:	e0c5      	b.n	80031ce <HAL_CAN_Init+0x1ee>
  while ((hcan->Instance->MSR & CAN_MSR_INAK) == 0U)
 8003042:	687b      	ldr	r3, [r7, #4]
 8003044:	681b      	ldr	r3, [r3, #0]
 8003046:	685b      	ldr	r3, [r3, #4]
 8003048:	f003 0301 	and.w	r3, r3, #1
 800304c:	2b00      	cmp	r3, #0
 800304e:	d0e5      	beq.n	800301c <HAL_CAN_Init+0x3c>
    }
  }

  /* Exit from sleep mode */
  CLEAR_BIT(hcan->Instance->MCR, CAN_MCR_SLEEP);
 8003050:	687b      	ldr	r3, [r7, #4]
 8003052:	681b      	ldr	r3, [r3, #0]
 8003054:	681a      	ldr	r2, [r3, #0]
 8003056:	687b      	ldr	r3, [r7, #4]
 8003058:	681b      	ldr	r3, [r3, #0]
 800305a:	f022 0202 	bic.w	r2, r2, #2
 800305e:	601a      	str	r2, [r3, #0]

  /* Get tick */
  tickstart = HAL_GetTick();
 8003060:	f7ff ff8e 	bl	8002f80 <HAL_GetTick>
 8003064:	60f8      	str	r0, [r7, #12]

  /* Check Sleep mode leave acknowledge */
  while ((hcan->Instance->MSR & CAN_MSR_SLAK) != 0U)
 8003066:	e012      	b.n	800308e <HAL_CAN_Init+0xae>
  {
    if ((HAL_GetTick() - tickstart) > CAN_TIMEOUT_VALUE)
 8003068:	f7ff ff8a 	bl	8002f80 <HAL_GetTick>
 800306c:	4602      	mov	r2, r0
 800306e:	68fb      	ldr	r3, [r7, #12]
 8003070:	1ad3      	subs	r3, r2, r3
 8003072:	2b0a      	cmp	r3, #10
 8003074:	d90b      	bls.n	800308e <HAL_CAN_Init+0xae>
    {
      /* Update error code */
      hcan->ErrorCode |= HAL_CAN_ERROR_TIMEOUT;
 8003076:	687b      	ldr	r3, [r7, #4]
 8003078:	6a5b      	ldr	r3, [r3, #36]	@ 0x24
 800307a:	f443 3200 	orr.w	r2, r3, #131072	@ 0x20000
 800307e:	687b      	ldr	r3, [r7, #4]
 8003080:	625a      	str	r2, [r3, #36]	@ 0x24

      /* Change CAN state */
      hcan->State = HAL_CAN_STATE_ERROR;
 8003082:	687b      	ldr	r3, [r7, #4]
 8003084:	2205      	movs	r2, #5
 8003086:	f883 2020 	strb.w	r2, [r3, #32]

      return HAL_ERROR;
 800308a:	2301      	movs	r3, #1
 800308c:	e09f      	b.n	80031ce <HAL_CAN_Init+0x1ee>
  while ((hcan->Instance->MSR & CAN_MSR_SLAK) != 0U)
 800308e:	687b      	ldr	r3, [r7, #4]
 8003090:	681b      	ldr	r3, [r3, #0]
 8003092:	685b      	ldr	r3, [r3, #4]
 8003094:	f003 0302 	and.w	r3, r3, #2
 8003098:	2b00      	cmp	r3, #0
 800309a:	d1e5      	bne.n	8003068 <HAL_CAN_Init+0x88>
    }
  }

  /* Set the time triggered communication mode */
  if (hcan->Init.TimeTriggeredMode == ENABLE)
 800309c:	687b      	ldr	r3, [r7, #4]
 800309e:	7e1b      	ldrb	r3, [r3, #24]
 80030a0:	2b01      	cmp	r3, #1
 80030a2:	d108      	bne.n	80030b6 <HAL_CAN_Init+0xd6>
  {
    SET_BIT(hcan->Instance->MCR, CAN_MCR_TTCM);
 80030a4:	687b      	ldr	r3, [r7, #4]
 80030a6:	681b      	ldr	r3, [r3, #0]
 80030a8:	681a      	ldr	r2, [r3, #0]
 80030aa:	687b      	ldr	r3, [r7, #4]
 80030ac:	681b      	ldr	r3, [r3, #0]
 80030ae:	f042 0280 	orr.w	r2, r2, #128	@ 0x80
 80030b2:	601a      	str	r2, [r3, #0]
 80030b4:	e007      	b.n	80030c6 <HAL_CAN_Init+0xe6>
  }
  else
  {
    CLEAR_BIT(hcan->Instance->MCR, CAN_MCR_TTCM);
 80030b6:	687b      	ldr	r3, [r7, #4]
 80030b8:	681b      	ldr	r3, [r3, #0]
 80030ba:	681a      	ldr	r2, [r3, #0]
 80030bc:	687b      	ldr	r3, [r7, #4]
 80030be:	681b      	ldr	r3, [r3, #0]
 80030c0:	f022 0280 	bic.w	r2, r2, #128	@ 0x80
 80030c4:	601a      	str	r2, [r3, #0]
  }

  /* Set the automatic bus-off management */
  if (hcan->Init.AutoBusOff == ENABLE)
 80030c6:	687b      	ldr	r3, [r7, #4]
 80030c8:	7e5b      	ldrb	r3, [r3, #25]
 80030ca:	2b01      	cmp	r3, #1
 80030cc:	d108      	bne.n	80030e0 <HAL_CAN_Init+0x100>
  {
    SET_BIT(hcan->Instance->MCR, CAN_MCR_ABOM);
 80030ce:	687b      	ldr	r3, [r7, #4]
 80030d0:	681b      	ldr	r3, [r3, #0]
 80030d2:	681a      	ldr	r2, [r3, #0]
 80030d4:	687b      	ldr	r3, [r7, #4]
 80030d6:	681b      	ldr	r3, [r3, #0]
 80030d8:	f042 0240 	orr.w	r2, r2, #64	@ 0x40
 80030dc:	601a      	str	r2, [r3, #0]
 80030de:	e007      	b.n	80030f0 <HAL_CAN_Init+0x110>
  }
  else
  {
    CLEAR_BIT(hcan->Instance->MCR, CAN_MCR_ABOM);
 80030e0:	687b      	ldr	r3, [r7, #4]
 80030e2:	681b      	ldr	r3, [r3, #0]
 80030e4:	681a      	ldr	r2, [r3, #0]
 80030e6:	687b      	ldr	r3, [r7, #4]
 80030e8:	681b      	ldr	r3, [r3, #0]
 80030ea:	f022 0240 	bic.w	r2, r2, #64	@ 0x40
 80030ee:	601a      	str	r2, [r3, #0]
  }

  /* Set the automatic wake-up mode */
  if (hcan->Init.AutoWakeUp == ENABLE)
 80030f0:	687b      	ldr	r3, [r7, #4]
 80030f2:	7e9b      	ldrb	r3, [r3, #26]
 80030f4:	2b01      	cmp	r3, #1
 80030f6:	d108      	bne.n	800310a <HAL_CAN_Init+0x12a>
  {
    SET_BIT(hcan->Instance->MCR, CAN_MCR_AWUM);
 80030f8:	687b      	ldr	r3, [r7, #4]
 80030fa:	681b      	ldr	r3, [r3, #0]
 80030fc:	681a      	ldr	r2, [r3, #0]
 80030fe:	687b      	ldr	r3, [r7, #4]
 8003100:	681b      	ldr	r3, [r3, #0]
 8003102:	f042 0220 	orr.w	r2, r2, #32
 8003106:	601a      	str	r2, [r3, #0]
 8003108:	e007      	b.n	800311a <HAL_CAN_Init+0x13a>
  }
  else
  {
    CLEAR_BIT(hcan->Instance->MCR, CAN_MCR_AWUM);
 800310a:	687b      	ldr	r3, [r7, #4]
 800310c:	681b      	ldr	r3, [r3, #0]
 800310e:	681a      	ldr	r2, [r3, #0]
 8003110:	687b      	ldr	r3, [r7, #4]
 8003112:	681b      	ldr	r3, [r3, #0]
 8003114:	f022 0220 	bic.w	r2, r2, #32
 8003118:	601a      	str	r2, [r3, #0]
  }

  /* Set the automatic retransmission */
  if (hcan->Init.AutoRetransmission == ENABLE)
 800311a:	687b      	ldr	r3, [r7, #4]
 800311c:	7edb      	ldrb	r3, [r3, #27]
 800311e:	2b01      	cmp	r3, #1
 8003120:	d108      	bne.n	8003134 <HAL_CAN_Init+0x154>
  {
    CLEAR_BIT(hcan->Instance->MCR, CAN_MCR_NART);
 8003122:	687b      	ldr	r3, [r7, #4]
 8003124:	681b      	ldr	r3, [r3, #0]
 8003126:	681a      	ldr	r2, [r3, #0]
 8003128:	687b      	ldr	r3, [r7, #4]
 800312a:	681b      	ldr	r3, [r3, #0]
 800312c:	f022 0210 	bic.w	r2, r2, #16
 8003130:	601a      	str	r2, [r3, #0]
 8003132:	e007      	b.n	8003144 <HAL_CAN_Init+0x164>
  }
  else
  {
    SET_BIT(hcan->Instance->MCR, CAN_MCR_NART);
 8003134:	687b      	ldr	r3, [r7, #4]
 8003136:	681b      	ldr	r3, [r3, #0]
 8003138:	681a      	ldr	r2, [r3, #0]
 800313a:	687b      	ldr	r3, [r7, #4]
 800313c:	681b      	ldr	r3, [r3, #0]
 800313e:	f042 0210 	orr.w	r2, r2, #16
 8003142:	601a      	str	r2, [r3, #0]
  }

  /* Set the receive FIFO locked mode */
  if (hcan->Init.ReceiveFifoLocked == ENABLE)
 8003144:	687b      	ldr	r3, [r7, #4]
 8003146:	7f1b      	ldrb	r3, [r3, #28]
 8003148:	2b01      	cmp	r3, #1
 800314a:	d108      	bne.n	800315e <HAL_CAN_Init+0x17e>
  {
    SET_BIT(hcan->Instance->MCR, CAN_MCR_RFLM);
 800314c:	687b      	ldr	r3, [r7, #4]
 800314e:	681b      	ldr	r3, [r3, #0]
 8003150:	681a      	ldr	r2, [r3, #0]
 8003152:	687b      	ldr	r3, [r7, #4]
 8003154:	681b      	ldr	r3, [r3, #0]
 8003156:	f042 0208 	orr.w	r2, r2, #8
 800315a:	601a      	str	r2, [r3, #0]
 800315c:	e007      	b.n	800316e <HAL_CAN_Init+0x18e>
  }
  else
  {
    CLEAR_BIT(hcan->Instance->MCR, CAN_MCR_RFLM);
 800315e:	687b      	ldr	r3, [r7, #4]
 8003160:	681b      	ldr	r3, [r3, #0]
 8003162:	681a      	ldr	r2, [r3, #0]
 8003164:	687b      	ldr	r3, [r7, #4]
 8003166:	681b      	ldr	r3, [r3, #0]
 8003168:	f022 0208 	bic.w	r2, r2, #8
 800316c:	601a      	str	r2, [r3, #0]
  }

  /* Set the transmit FIFO priority */
  if (hcan->Init.TransmitFifoPriority == ENABLE)
 800316e:	687b      	ldr	r3, [r7, #4]
 8003170:	7f5b      	ldrb	r3, [r3, #29]
 8003172:	2b01      	cmp	r3, #1
 8003174:	d108      	bne.n	8003188 <HAL_CAN_Init+0x1a8>
  {
    SET_BIT(hcan->Instance->MCR, CAN_MCR_TXFP);
 8003176:	687b      	ldr	r3, [r7, #4]
 8003178:	681b      	ldr	r3, [r3, #0]
 800317a:	681a      	ldr	r2, [r3, #0]
 800317c:	687b      	ldr	r3, [r7, #4]
 800317e:	681b      	ldr	r3, [r3, #0]
 8003180:	f042 0204 	orr.w	r2, r2, #4
 8003184:	601a      	str	r2, [r3, #0]
 8003186:	e007      	b.n	8003198 <HAL_CAN_Init+0x1b8>
  }
  else
  {
    CLEAR_BIT(hcan->Instance->MCR, CAN_MCR_TXFP);
 8003188:	687b      	ldr	r3, [r7, #4]
 800318a:	681b      	ldr	r3, [r3, #0]
 800318c:	681a      	ldr	r2, [r3, #0]
 800318e:	687b      	ldr	r3, [r7, #4]
 8003190:	681b      	ldr	r3, [r3, #0]
 8003192:	f022 0204 	bic.w	r2, r2, #4
 8003196:	601a      	str	r2, [r3, #0]
  }

  /* Set the bit timing register */
  WRITE_REG(hcan->Instance->BTR, (uint32_t)(hcan->Init.Mode           |
 8003198:	687b      	ldr	r3, [r7, #4]
 800319a:	689a      	ldr	r2, [r3, #8]
 800319c:	687b      	ldr	r3, [r7, #4]
 800319e:	68db      	ldr	r3, [r3, #12]
 80031a0:	431a      	orrs	r2, r3
 80031a2:	687b      	ldr	r3, [r7, #4]
 80031a4:	691b      	ldr	r3, [r3, #16]
 80031a6:	431a      	orrs	r2, r3
 80031a8:	687b      	ldr	r3, [r7, #4]
 80031aa:	695b      	ldr	r3, [r3, #20]
 80031ac:	ea42 0103 	orr.w	r1, r2, r3
 80031b0:	687b      	ldr	r3, [r7, #4]
 80031b2:	685b      	ldr	r3, [r3, #4]
 80031b4:	1e5a      	subs	r2, r3, #1
 80031b6:	687b      	ldr	r3, [r7, #4]
 80031b8:	681b      	ldr	r3, [r3, #0]
 80031ba:	430a      	orrs	r2, r1
 80031bc:	61da      	str	r2, [r3, #28]
                                            hcan->Init.TimeSeg1       |
                                            hcan->Init.TimeSeg2       |
                                            (hcan->Init.Prescaler - 1U)));

  /* Initialize the error code */
  hcan->ErrorCode = HAL_CAN_ERROR_NONE;
 80031be:	687b      	ldr	r3, [r7, #4]
 80031c0:	2200      	movs	r2, #0
 80031c2:	625a      	str	r2, [r3, #36]	@ 0x24

  /* Initialize the CAN state */
  hcan->State = HAL_CAN_STATE_READY;
 80031c4:	687b      	ldr	r3, [r7, #4]
 80031c6:	2201      	movs	r2, #1
 80031c8:	f883 2020 	strb.w	r2, [r3, #32]

  /* Return function status */
  return HAL_OK;
 80031cc:	2300      	movs	r3, #0
}
 80031ce:	4618      	mov	r0, r3
 80031d0:	3710      	adds	r7, #16
 80031d2:	46bd      	mov	sp, r7
 80031d4:	bd80      	pop	{r7, pc}
	...

080031d8 <__NVIC_SetPriorityGrouping>:
           In case of a conflict between priority grouping and available
           priority bits (__NVIC_PRIO_BITS), the smallest possible priority group is set.
  \param [in]      PriorityGroup  Priority grouping field.
 */
__STATIC_INLINE void __NVIC_SetPriorityGrouping(uint32_t PriorityGroup)
{
 80031d8:	b480      	push	{r7}
 80031da:	b085      	sub	sp, #20
 80031dc:	af00      	add	r7, sp, #0
 80031de:	6078      	str	r0, [r7, #4]
  uint32_t reg_value;
  uint32_t PriorityGroupTmp = (PriorityGroup & (uint32_t)0x07UL);             /* only values 0..7 are used          */
 80031e0:	687b      	ldr	r3, [r7, #4]
 80031e2:	f003 0307 	and.w	r3, r3, #7
 80031e6:	60fb      	str	r3, [r7, #12]

  reg_value  =  SCB->AIRCR;                                                   /* read old register configuration    */
 80031e8:	4b0c      	ldr	r3, [pc, #48]	@ (800321c <__NVIC_SetPriorityGrouping+0x44>)
 80031ea:	68db      	ldr	r3, [r3, #12]
 80031ec:	60bb      	str	r3, [r7, #8]
  reg_value &= ~((uint32_t)(SCB_AIRCR_VECTKEY_Msk | SCB_AIRCR_PRIGROUP_Msk)); /* clear bits to change               */
 80031ee:	68ba      	ldr	r2, [r7, #8]
 80031f0:	f64f 03ff 	movw	r3, #63743	@ 0xf8ff
 80031f4:	4013      	ands	r3, r2
 80031f6:	60bb      	str	r3, [r7, #8]
  reg_value  =  (reg_value                                   |
                ((uint32_t)0x5FAUL << SCB_AIRCR_VECTKEY_Pos) |
                (PriorityGroupTmp << SCB_AIRCR_PRIGROUP_Pos)  );              /* Insert write key and priority group */
 80031f8:	68fb      	ldr	r3, [r7, #12]
 80031fa:	021a      	lsls	r2, r3, #8
                ((uint32_t)0x5FAUL << SCB_AIRCR_VECTKEY_Pos) |
 80031fc:	68bb      	ldr	r3, [r7, #8]
 80031fe:	4313      	orrs	r3, r2
  reg_value  =  (reg_value                                   |
 8003200:	f043 63bf 	orr.w	r3, r3, #100139008	@ 0x5f80000
 8003204:	f443 3300 	orr.w	r3, r3, #131072	@ 0x20000
 8003208:	60bb      	str	r3, [r7, #8]
  SCB->AIRCR =  reg_value;
 800320a:	4a04      	ldr	r2, [pc, #16]	@ (800321c <__NVIC_SetPriorityGrouping+0x44>)
 800320c:	68bb      	ldr	r3, [r7, #8]
 800320e:	60d3      	str	r3, [r2, #12]
}
 8003210:	bf00      	nop
 8003212:	3714      	adds	r7, #20
 8003214:	46bd      	mov	sp, r7
 8003216:	f85d 7b04 	ldr.w	r7, [sp], #4
 800321a:	4770      	bx	lr
 800321c:	e000ed00 	.word	0xe000ed00

08003220 <__NVIC_GetPriorityGrouping>:
  \brief   Get Priority Grouping
  \details Reads the priority grouping field from the NVIC Interrupt Controller.
  \return                Priority grouping field (SCB->AIRCR [10:8] PRIGROUP field).
 */
__STATIC_INLINE uint32_t __NVIC_GetPriorityGrouping(void)
{
 8003220:	b480      	push	{r7}
 8003222:	af00      	add	r7, sp, #0
  return ((uint32_t)((SCB->AIRCR & SCB_AIRCR_PRIGROUP_Msk) >> SCB_AIRCR_PRIGROUP_Pos));
 8003224:	4b04      	ldr	r3, [pc, #16]	@ (8003238 <__NVIC_GetPriorityGrouping+0x18>)
 8003226:	68db      	ldr	r3, [r3, #12]
 8003228:	0a1b      	lsrs	r3, r3, #8
 800322a:	f003 0307 	and.w	r3, r3, #7
}
 800322e:	4618      	mov	r0, r3
 8003230:	46bd      	mov	sp, r7
 8003232:	f85d 7b04 	ldr.w	r7, [sp], #4
 8003236:	4770      	bx	lr
 8003238:	e000ed00 	.word	0xe000ed00

0800323c <__NVIC_EnableIRQ>:
  \details Enables a device specific interrupt in the NVIC interrupt controller.
  \param [in]      IRQn  Device specific interrupt number.
  \note    IRQn must not be negative.
 */
__STATIC_INLINE void __NVIC_EnableIRQ(IRQn_Type IRQn)
{
 800323c:	b480      	push	{r7}
 800323e:	b083      	sub	sp, #12
 8003240:	af00      	add	r7, sp, #0
 8003242:	4603      	mov	r3, r0
 8003244:	71fb      	strb	r3, [r7, #7]
  if ((int32_t)(IRQn) >= 0)
 8003246:	f997 3007 	ldrsb.w	r3, [r7, #7]
 800324a:	2b00      	cmp	r3, #0
 800324c:	db0b      	blt.n	8003266 <__NVIC_EnableIRQ+0x2a>
  {
    __COMPILER_BARRIER();
    NVIC->ISER[(((uint32_t)IRQn) >> 5UL)] = (uint32_t)(1UL << (((uint32_t)IRQn) & 0x1FUL));
 800324e:	79fb      	ldrb	r3, [r7, #7]
 8003250:	f003 021f 	and.w	r2, r3, #31
 8003254:	4907      	ldr	r1, [pc, #28]	@ (8003274 <__NVIC_EnableIRQ+0x38>)
 8003256:	f997 3007 	ldrsb.w	r3, [r7, #7]
 800325a:	095b      	lsrs	r3, r3, #5
 800325c:	2001      	movs	r0, #1
 800325e:	fa00 f202 	lsl.w	r2, r0, r2
 8003262:	f841 2023 	str.w	r2, [r1, r3, lsl #2]
    __COMPILER_BARRIER();
  }
}
 8003266:	bf00      	nop
 8003268:	370c      	adds	r7, #12
 800326a:	46bd      	mov	sp, r7
 800326c:	f85d 7b04 	ldr.w	r7, [sp], #4
 8003270:	4770      	bx	lr
 8003272:	bf00      	nop
 8003274:	e000e100 	.word	0xe000e100

08003278 <__NVIC_SetPriority>:
  \param [in]      IRQn  Interrupt number.
  \param [in]  priority  Priority to set.
  \note    The priority cannot be set for every processor exception.
 */
__STATIC_INLINE void __NVIC_SetPriority(IRQn_Type IRQn, uint32_t priority)
{
 8003278:	b480      	push	{r7}
 800327a:	b083      	sub	sp, #12
 800327c:	af00      	add	r7, sp, #0
 800327e:	4603      	mov	r3, r0
 8003280:	6039      	str	r1, [r7, #0]
 8003282:	71fb      	strb	r3, [r7, #7]
  if ((int32_t)(IRQn) >= 0)
 8003284:	f997 3007 	ldrsb.w	r3, [r7, #7]
 8003288:	2b00      	cmp	r3, #0
 800328a:	db0a      	blt.n	80032a2 <__NVIC_SetPriority+0x2a>
  {
    NVIC->IP[((uint32_t)IRQn)]               = (uint8_t)((priority << (8U - __NVIC_PRIO_BITS)) & (uint32_t)0xFFUL);
 800328c:	683b      	ldr	r3, [r7, #0]
 800328e:	b2da      	uxtb	r2, r3
 8003290:	490c      	ldr	r1, [pc, #48]	@ (80032c4 <__NVIC_SetPriority+0x4c>)
 8003292:	f997 3007 	ldrsb.w	r3, [r7, #7]
 8003296:	0112      	lsls	r2, r2, #4
 8003298:	b2d2      	uxtb	r2, r2
 800329a:	440b      	add	r3, r1
 800329c:	f883 2300 	strb.w	r2, [r3, #768]	@ 0x300
  }
  else
  {
    SCB->SHP[(((uint32_t)IRQn) & 0xFUL)-4UL] = (uint8_t)((priority << (8U - __NVIC_PRIO_BITS)) & (uint32_t)0xFFUL);
  }
}
 80032a0:	e00a      	b.n	80032b8 <__NVIC_SetPriority+0x40>
    SCB->SHP[(((uint32_t)IRQn) & 0xFUL)-4UL] = (uint8_t)((priority << (8U - __NVIC_PRIO_BITS)) & (uint32_t)0xFFUL);
 80032a2:	683b      	ldr	r3, [r7, #0]
 80032a4:	b2da      	uxtb	r2, r3
 80032a6:	4908      	ldr	r1, [pc, #32]	@ (80032c8 <__NVIC_SetPriority+0x50>)
 80032a8:	79fb      	ldrb	r3, [r7, #7]
 80032aa:	f003 030f 	and.w	r3, r3, #15
 80032ae:	3b04      	subs	r3, #4
 80032b0:	0112      	lsls	r2, r2, #4
 80032b2:	b2d2      	uxtb	r2, r2
 80032b4:	440b      	add	r3, r1
 80032b6:	761a      	strb	r2, [r3, #24]
}
 80032b8:	bf00      	nop
 80032ba:	370c      	adds	r7, #12
 80032bc:	46bd      	mov	sp, r7
 80032be:	f85d 7b04 	ldr.w	r7, [sp], #4
 80032c2:	4770      	bx	lr
 80032c4:	e000e100 	.word	0xe000e100
 80032c8:	e000ed00 	.word	0xe000ed00

080032cc <NVIC_EncodePriority>:
  \param [in]   PreemptPriority  Preemptive priority value (starting from 0).
  \param [in]       SubPriority  Subpriority value (starting from 0).
  \return                        Encoded priority. Value can be used in the function \ref NVIC_SetPriority().
 */
__STATIC_INLINE uint32_t NVIC_EncodePriority (uint32_t PriorityGroup, uint32_t PreemptPriority, uint32_t SubPriority)
{
 80032cc:	b480      	push	{r7}
 80032ce:	b089      	sub	sp, #36	@ 0x24
 80032d0:	af00      	add	r7, sp, #0
 80032d2:	60f8      	str	r0, [r7, #12]
 80032d4:	60b9      	str	r1, [r7, #8]
 80032d6:	607a      	str	r2, [r7, #4]
  uint32_t PriorityGroupTmp = (PriorityGroup & (uint32_t)0x07UL);   /* only values 0..7 are used          */
 80032d8:	68fb      	ldr	r3, [r7, #12]
 80032da:	f003 0307 	and.w	r3, r3, #7
 80032de:	61fb      	str	r3, [r7, #28]
  uint32_t PreemptPriorityBits;
  uint32_t SubPriorityBits;

  PreemptPriorityBits = ((7UL - PriorityGroupTmp) > (uint32_t)(__NVIC_PRIO_BITS)) ? (uint32_t)(__NVIC_PRIO_BITS) : (uint32_t)(7UL - PriorityGroupTmp);
 80032e0:	69fb      	ldr	r3, [r7, #28]
 80032e2:	f1c3 0307 	rsb	r3, r3, #7
 80032e6:	2b04      	cmp	r3, #4
 80032e8:	bf28      	it	cs
 80032ea:	2304      	movcs	r3, #4
 80032ec:	61bb      	str	r3, [r7, #24]
  SubPriorityBits     = ((PriorityGroupTmp + (uint32_t)(__NVIC_PRIO_BITS)) < (uint32_t)7UL) ? (uint32_t)0UL : (uint32_t)((PriorityGroupTmp - 7UL) + (uint32_t)(__NVIC_PRIO_BITS));
 80032ee:	69fb      	ldr	r3, [r7, #28]
 80032f0:	3304      	adds	r3, #4
 80032f2:	2b06      	cmp	r3, #6
 80032f4:	d902      	bls.n	80032fc <NVIC_EncodePriority+0x30>
 80032f6:	69fb      	ldr	r3, [r7, #28]
 80032f8:	3b03      	subs	r3, #3
 80032fa:	e000      	b.n	80032fe <NVIC_EncodePriority+0x32>
 80032fc:	2300      	movs	r3, #0
 80032fe:	617b      	str	r3, [r7, #20]

  return (
           ((PreemptPriority & (uint32_t)((1UL << (PreemptPriorityBits)) - 1UL)) << SubPriorityBits) |
 8003300:	f04f 32ff 	mov.w	r2, #4294967295
 8003304:	69bb      	ldr	r3, [r7, #24]
 8003306:	fa02 f303 	lsl.w	r3, r2, r3
 800330a:	43da      	mvns	r2, r3
 800330c:	68bb      	ldr	r3, [r7, #8]
 800330e:	401a      	ands	r2, r3
 8003310:	697b      	ldr	r3, [r7, #20]
 8003312:	409a      	lsls	r2, r3
           ((SubPriority     & (uint32_t)((1UL << (SubPriorityBits    )) - 1UL)))
 8003314:	f04f 31ff 	mov.w	r1, #4294967295
 8003318:	697b      	ldr	r3, [r7, #20]
 800331a:	fa01 f303 	lsl.w	r3, r1, r3
 800331e:	43d9      	mvns	r1, r3
 8003320:	687b      	ldr	r3, [r7, #4]
 8003322:	400b      	ands	r3, r1
           ((PreemptPriority & (uint32_t)((1UL << (PreemptPriorityBits)) - 1UL)) << SubPriorityBits) |
 8003324:	4313      	orrs	r3, r2
         );
}
 8003326:	4618      	mov	r0, r3
 8003328:	3724      	adds	r7, #36	@ 0x24
 800332a:	46bd      	mov	sp, r7
 800332c:	f85d 7b04 	ldr.w	r7, [sp], #4
 8003330:	4770      	bx	lr

08003332 <HAL_NVIC_SetPriorityGrouping>:
  * @note   When the NVIC_PriorityGroup_0 is selected, IRQ preemption is no more possible. 
  *         The pending IRQ priority will be managed only by the subpriority. 
  * @retval None
  */
void HAL_NVIC_SetPriorityGrouping(uint32_t PriorityGroup)
{
 8003332:	b580      	push	{r7, lr}
 8003334:	b082      	sub	sp, #8
 8003336:	af00      	add	r7, sp, #0
 8003338:	6078      	str	r0, [r7, #4]
  /* Check the parameters */
  assert_param(IS_NVIC_PRIORITY_GROUP(PriorityGroup));
  
  /* Set the PRIGROUP[10:8] bits according to the PriorityGroup parameter value */
  NVIC_SetPriorityGrouping(PriorityGroup);
 800333a:	6878      	ldr	r0, [r7, #4]
 800333c:	f7ff ff4c 	bl	80031d8 <__NVIC_SetPriorityGrouping>
}
 8003340:	bf00      	nop
 8003342:	3708      	adds	r7, #8
 8003344:	46bd      	mov	sp, r7
 8003346:	bd80      	pop	{r7, pc}

08003348 <HAL_NVIC_SetPriority>:
  *         This parameter can be a value between 0 and 15
  *         A lower priority value indicates a higher priority.          
  * @retval None
  */
void HAL_NVIC_SetPriority(IRQn_Type IRQn, uint32_t PreemptPriority, uint32_t SubPriority)
{ 
 8003348:	b580      	push	{r7, lr}
 800334a:	b086      	sub	sp, #24
 800334c:	af00      	add	r7, sp, #0
 800334e:	4603      	mov	r3, r0
 8003350:	60b9      	str	r1, [r7, #8]
 8003352:	607a      	str	r2, [r7, #4]
 8003354:	73fb      	strb	r3, [r7, #15]
  uint32_t prioritygroup = 0x00U;
 8003356:	2300      	movs	r3, #0
 8003358:	617b      	str	r3, [r7, #20]
  
  /* Check the parameters */
  assert_param(IS_NVIC_SUB_PRIORITY(SubPriority));
  assert_param(IS_NVIC_PREEMPTION_PRIORITY(PreemptPriority));
  
  prioritygroup = NVIC_GetPriorityGrouping();
 800335a:	f7ff ff61 	bl	8003220 <__NVIC_GetPriorityGrouping>
 800335e:	6178      	str	r0, [r7, #20]
  
  NVIC_SetPriority(IRQn, NVIC_EncodePriority(prioritygroup, PreemptPriority, SubPriority));
 8003360:	687a      	ldr	r2, [r7, #4]
 8003362:	68b9      	ldr	r1, [r7, #8]
 8003364:	6978      	ldr	r0, [r7, #20]
 8003366:	f7ff ffb1 	bl	80032cc <NVIC_EncodePriority>
 800336a:	4602      	mov	r2, r0
 800336c:	f997 300f 	ldrsb.w	r3, [r7, #15]
 8003370:	4611      	mov	r1, r2
 8003372:	4618      	mov	r0, r3
 8003374:	f7ff ff80 	bl	8003278 <__NVIC_SetPriority>
}
 8003378:	bf00      	nop
 800337a:	3718      	adds	r7, #24
 800337c:	46bd      	mov	sp, r7
 800337e:	bd80      	pop	{r7, pc}

08003380 <HAL_NVIC_EnableIRQ>:
  *         This parameter can be an enumerator of IRQn_Type enumeration
  *         (For the complete STM32 Devices IRQ Channels list, please refer to the appropriate CMSIS device file (stm32f4xxxx.h))
  * @retval None
  */
void HAL_NVIC_EnableIRQ(IRQn_Type IRQn)
{
 8003380:	b580      	push	{r7, lr}
 8003382:	b082      	sub	sp, #8
 8003384:	af00      	add	r7, sp, #0
 8003386:	4603      	mov	r3, r0
 8003388:	71fb      	strb	r3, [r7, #7]
  /* Check the parameters */
  assert_param(IS_NVIC_DEVICE_IRQ(IRQn));
  
  /* Enable interrupt */
  NVIC_EnableIRQ(IRQn);
 800338a:	f997 3007 	ldrsb.w	r3, [r7, #7]
 800338e:	4618      	mov	r0, r3
 8003390:	f7ff ff54 	bl	800323c <__NVIC_EnableIRQ>
}
 8003394:	bf00      	nop
 8003396:	3708      	adds	r7, #8
 8003398:	46bd      	mov	sp, r7
 800339a:	bd80      	pop	{r7, pc}

0800339c <HAL_GPIO_Init>:
  * @param  GPIO_Init pointer to a GPIO_InitTypeDef structure that contains
  *         the configuration information for the specified GPIO peripheral.
  * @retval None
  */
void HAL_GPIO_Init(GPIO_TypeDef  *GPIOx, GPIO_InitTypeDef *GPIO_Init)
{
 800339c:	b480      	push	{r7}
 800339e:	b089      	sub	sp, #36	@ 0x24
 80033a0:	af00      	add	r7, sp, #0
 80033a2:	6078      	str	r0, [r7, #4]
 80033a4:	6039      	str	r1, [r7, #0]
  uint32_t position;
  uint32_t ioposition = 0x00U;
 80033a6:	2300      	movs	r3, #0
 80033a8:	617b      	str	r3, [r7, #20]
  uint32_t iocurrent = 0x00U;
 80033aa:	2300      	movs	r3, #0
 80033ac:	613b      	str	r3, [r7, #16]
  uint32_t temp = 0x00U;
 80033ae:	2300      	movs	r3, #0
 80033b0:	61bb      	str	r3, [r7, #24]
  assert_param(IS_GPIO_ALL_INSTANCE(GPIOx));
  assert_param(IS_GPIO_PIN(GPIO_Init->Pin));
  assert_param(IS_GPIO_MODE(GPIO_Init->Mode));

  /* Configure the port pins */
  for(position = 0U; position < GPIO_NUMBER; position++)
 80033b2:	2300      	movs	r3, #0
 80033b4:	61fb      	str	r3, [r7, #28]
 80033b6:	e165      	b.n	8003684 <HAL_GPIO_Init+0x2e8>
  {
    /* Get the IO position */
    ioposition = 0x01U << position;
 80033b8:	2201      	movs	r2, #1
 80033ba:	69fb      	ldr	r3, [r7, #28]
 80033bc:	fa02 f303 	lsl.w	r3, r2, r3
 80033c0:	617b      	str	r3, [r7, #20]
    /* Get the current IO position */
    iocurrent = (uint32_t)(GPIO_Init->Pin) & ioposition;
 80033c2:	683b      	ldr	r3, [r7, #0]
 80033c4:	681b      	ldr	r3, [r3, #0]
 80033c6:	697a      	ldr	r2, [r7, #20]
 80033c8:	4013      	ands	r3, r2
 80033ca:	613b      	str	r3, [r7, #16]

    if(iocurrent == ioposition)
 80033cc:	693a      	ldr	r2, [r7, #16]
 80033ce:	697b      	ldr	r3, [r7, #20]
 80033d0:	429a      	cmp	r2, r3
 80033d2:	f040 8154 	bne.w	800367e <HAL_GPIO_Init+0x2e2>
    {
      /*--------------------- GPIO Mode Configuration ------------------------*/
      /* In case of Output or Alternate function mode selection */
      if(((GPIO_Init->Mode & GPIO_MODE) == MODE_OUTPUT) || \
 80033d6:	683b      	ldr	r3, [r7, #0]
 80033d8:	685b      	ldr	r3, [r3, #4]
 80033da:	f003 0303 	and.w	r3, r3, #3
 80033de:	2b01      	cmp	r3, #1
 80033e0:	d005      	beq.n	80033ee <HAL_GPIO_Init+0x52>
          (GPIO_Init->Mode & GPIO_MODE) == MODE_AF)
 80033e2:	683b      	ldr	r3, [r7, #0]
 80033e4:	685b      	ldr	r3, [r3, #4]
 80033e6:	f003 0303 	and.w	r3, r3, #3
      if(((GPIO_Init->Mode & GPIO_MODE) == MODE_OUTPUT) || \
 80033ea:	2b02      	cmp	r3, #2
 80033ec:	d130      	bne.n	8003450 <HAL_GPIO_Init+0xb4>
      {
        /* Check the Speed parameter */
        assert_param(IS_GPIO_SPEED(GPIO_Init->Speed));
        /* Configure the IO Speed */
        temp = GPIOx->OSPEEDR; 
 80033ee:	687b      	ldr	r3, [r7, #4]
 80033f0:	689b      	ldr	r3, [r3, #8]
 80033f2:	61bb      	str	r3, [r7, #24]
        temp &= ~(GPIO_OSPEEDER_OSPEEDR0 << (position * 2U));
 80033f4:	69fb      	ldr	r3, [r7, #28]
 80033f6:	005b      	lsls	r3, r3, #1
 80033f8:	2203      	movs	r2, #3
 80033fa:	fa02 f303 	lsl.w	r3, r2, r3
 80033fe:	43db      	mvns	r3, r3
 8003400:	69ba      	ldr	r2, [r7, #24]
 8003402:	4013      	ands	r3, r2
 8003404:	61bb      	str	r3, [r7, #24]
        temp |= (GPIO_Init->Speed << (position * 2U));
 8003406:	683b      	ldr	r3, [r7, #0]
 8003408:	68da      	ldr	r2, [r3, #12]
 800340a:	69fb      	ldr	r3, [r7, #28]
 800340c:	005b      	lsls	r3, r3, #1
 800340e:	fa02 f303 	lsl.w	r3, r2, r3
 8003412:	69ba      	ldr	r2, [r7, #24]
 8003414:	4313      	orrs	r3, r2
 8003416:	61bb      	str	r3, [r7, #24]
        GPIOx->OSPEEDR = temp;
 8003418:	687b      	ldr	r3, [r7, #4]
 800341a:	69ba      	ldr	r2, [r7, #24]
 800341c:	609a      	str	r2, [r3, #8]

        /* Configure the IO Output Type */
        temp = GPIOx->OTYPER;
 800341e:	687b      	ldr	r3, [r7, #4]
 8003420:	685b      	ldr	r3, [r3, #4]
 8003422:	61bb      	str	r3, [r7, #24]
        temp &= ~(GPIO_OTYPER_OT_0 << position) ;
 8003424:	2201      	movs	r2, #1
 8003426:	69fb      	ldr	r3, [r7, #28]
 8003428:	fa02 f303 	lsl.w	r3, r2, r3
 800342c:	43db      	mvns	r3, r3
 800342e:	69ba      	ldr	r2, [r7, #24]
 8003430:	4013      	ands	r3, r2
 8003432:	61bb      	str	r3, [r7, #24]
        temp |= (((GPIO_Init->Mode & OUTPUT_TYPE) >> OUTPUT_TYPE_Pos) << position);
 8003434:	683b      	ldr	r3, [r7, #0]
 8003436:	685b      	ldr	r3, [r3, #4]
 8003438:	091b      	lsrs	r3, r3, #4
 800343a:	f003 0201 	and.w	r2, r3, #1
 800343e:	69fb      	ldr	r3, [r7, #28]
 8003440:	fa02 f303 	lsl.w	r3, r2, r3
 8003444:	69ba      	ldr	r2, [r7, #24]
 8003446:	4313      	orrs	r3, r2
 8003448:	61bb      	str	r3, [r7, #24]
        GPIOx->OTYPER = temp;
 800344a:	687b      	ldr	r3, [r7, #4]
 800344c:	69ba      	ldr	r2, [r7, #24]
 800344e:	605a      	str	r2, [r3, #4]
       }

      if((GPIO_Init->Mode & GPIO_MODE) != MODE_ANALOG)
 8003450:	683b      	ldr	r3, [r7, #0]
 8003452:	685b      	ldr	r3, [r3, #4]
 8003454:	f003 0303 	and.w	r3, r3, #3
 8003458:	2b03      	cmp	r3, #3
 800345a:	d017      	beq.n	800348c <HAL_GPIO_Init+0xf0>
      {
        /* Check the parameters */
        assert_param(IS_GPIO_PULL(GPIO_Init->Pull));
        
        /* Activate the Pull-up or Pull down resistor for the current IO */
        temp = GPIOx->PUPDR;
 800345c:	687b      	ldr	r3, [r7, #4]
 800345e:	68db      	ldr	r3, [r3, #12]
 8003460:	61bb      	str	r3, [r7, #24]
        temp &= ~(GPIO_PUPDR_PUPDR0 << (position * 2U));
 8003462:	69fb      	ldr	r3, [r7, #28]
 8003464:	005b      	lsls	r3, r3, #1
 8003466:	2203      	movs	r2, #3
 8003468:	fa02 f303 	lsl.w	r3, r2, r3
 800346c:	43db      	mvns	r3, r3
 800346e:	69ba      	ldr	r2, [r7, #24]
 8003470:	4013      	ands	r3, r2
 8003472:	61bb      	str	r3, [r7, #24]
        temp |= ((GPIO_Init->Pull) << (position * 2U));
 8003474:	683b      	ldr	r3, [r7, #0]
 8003476:	689a      	ldr	r2, [r3, #8]
 8003478:	69fb      	ldr	r3, [r7, #28]
 800347a:	005b      	lsls	r3, r3, #1
 800347c:	fa02 f303 	lsl.w	r3, r2, r3
 8003480:	69ba      	ldr	r2, [r7, #24]
 8003482:	4313      	orrs	r3, r2
 8003484:	61bb      	str	r3, [r7, #24]
        GPIOx->PUPDR = temp;
 8003486:	687b      	ldr	r3, [r7, #4]
 8003488:	69ba      	ldr	r2, [r7, #24]
 800348a:	60da      	str	r2, [r3, #12]
      }

      /* In case of Alternate function mode selection */
      if((GPIO_Init->Mode & GPIO_MODE) == MODE_AF)
 800348c:	683b      	ldr	r3, [r7, #0]
 800348e:	685b      	ldr	r3, [r3, #4]
 8003490:	f003 0303 	and.w	r3, r3, #3
 8003494:	2b02      	cmp	r3, #2
 8003496:	d123      	bne.n	80034e0 <HAL_GPIO_Init+0x144>
      {
        /* Check the Alternate function parameter */
        assert_param(IS_GPIO_AF(GPIO_Init->Alternate));
        /* Configure Alternate function mapped with the current IO */
        temp = GPIOx->AFR[position >> 3U];
 8003498:	69fb      	ldr	r3, [r7, #28]
 800349a:	08da      	lsrs	r2, r3, #3
 800349c:	687b      	ldr	r3, [r7, #4]
 800349e:	3208      	adds	r2, #8
 80034a0:	f853 3022 	ldr.w	r3, [r3, r2, lsl #2]
 80034a4:	61bb      	str	r3, [r7, #24]
        temp &= ~(0xFU << ((uint32_t)(position & 0x07U) * 4U)) ;
 80034a6:	69fb      	ldr	r3, [r7, #28]
 80034a8:	f003 0307 	and.w	r3, r3, #7
 80034ac:	009b      	lsls	r3, r3, #2
 80034ae:	220f      	movs	r2, #15
 80034b0:	fa02 f303 	lsl.w	r3, r2, r3
 80034b4:	43db      	mvns	r3, r3
 80034b6:	69ba      	ldr	r2, [r7, #24]
 80034b8:	4013      	ands	r3, r2
 80034ba:	61bb      	str	r3, [r7, #24]
        temp |= ((uint32_t)(GPIO_Init->Alternate) << (((uint32_t)position & 0x07U) * 4U));
 80034bc:	683b      	ldr	r3, [r7, #0]
 80034be:	691a      	ldr	r2, [r3, #16]
 80034c0:	69fb      	ldr	r3, [r7, #28]
 80034c2:	f003 0307 	and.w	r3, r3, #7
 80034c6:	009b      	lsls	r3, r3, #2
 80034c8:	fa02 f303 	lsl.w	r3, r2, r3
 80034cc:	69ba      	ldr	r2, [r7, #24]
 80034ce:	4313      	orrs	r3, r2
 80034d0:	61bb      	str	r3, [r7, #24]
        GPIOx->AFR[position >> 3U] = temp;
 80034d2:	69fb      	ldr	r3, [r7, #28]
 80034d4:	08da      	lsrs	r2, r3, #3
 80034d6:	687b      	ldr	r3, [r7, #4]
 80034d8:	3208      	adds	r2, #8
 80034da:	69b9      	ldr	r1, [r7, #24]
 80034dc:	f843 1022 	str.w	r1, [r3, r2, lsl #2]
      }

      /* Configure IO Direction mode (Input, Output, Alternate or Analog) */
      temp = GPIOx->MODER;
 80034e0:	687b      	ldr	r3, [r7, #4]
 80034e2:	681b      	ldr	r3, [r3, #0]
 80034e4:	61bb      	str	r3, [r7, #24]
      temp &= ~(GPIO_MODER_MODER0 << (position * 2U));
 80034e6:	69fb      	ldr	r3, [r7, #28]
 80034e8:	005b      	lsls	r3, r3, #1
 80034ea:	2203      	movs	r2, #3
 80034ec:	fa02 f303 	lsl.w	r3, r2, r3
 80034f0:	43db      	mvns	r3, r3
 80034f2:	69ba      	ldr	r2, [r7, #24]
 80034f4:	4013      	ands	r3, r2
 80034f6:	61bb      	str	r3, [r7, #24]
      temp |= ((GPIO_Init->Mode & GPIO_MODE) << (position * 2U));
 80034f8:	683b      	ldr	r3, [r7, #0]
 80034fa:	685b      	ldr	r3, [r3, #4]
 80034fc:	f003 0203 	and.w	r2, r3, #3
 8003500:	69fb      	ldr	r3, [r7, #28]
 8003502:	005b      	lsls	r3, r3, #1
 8003504:	fa02 f303 	lsl.w	r3, r2, r3
 8003508:	69ba      	ldr	r2, [r7, #24]
 800350a:	4313      	orrs	r3, r2
 800350c:	61bb      	str	r3, [r7, #24]
      GPIOx->MODER = temp;
 800350e:	687b      	ldr	r3, [r7, #4]
 8003510:	69ba      	ldr	r2, [r7, #24]
 8003512:	601a      	str	r2, [r3, #0]

      /*--------------------- EXTI Mode Configuration ------------------------*/
      /* Configure the External Interrupt or event for the current IO */
      if((GPIO_Init->Mode & EXTI_MODE) != 0x00U)
 8003514:	683b      	ldr	r3, [r7, #0]
 8003516:	685b      	ldr	r3, [r3, #4]
 8003518:	f403 3340 	and.w	r3, r3, #196608	@ 0x30000
 800351c:	2b00      	cmp	r3, #0
 800351e:	f000 80ae 	beq.w	800367e <HAL_GPIO_Init+0x2e2>
      {
        /* Enable SYSCFG Clock */
        __HAL_RCC_SYSCFG_CLK_ENABLE();
 8003522:	2300      	movs	r3, #0
 8003524:	60fb      	str	r3, [r7, #12]
 8003526:	4b5d      	ldr	r3, [pc, #372]	@ (800369c <HAL_GPIO_Init+0x300>)
 8003528:	6c5b      	ldr	r3, [r3, #68]	@ 0x44
 800352a:	4a5c      	ldr	r2, [pc, #368]	@ (800369c <HAL_GPIO_Init+0x300>)
 800352c:	f443 4380 	orr.w	r3, r3, #16384	@ 0x4000
 8003530:	6453      	str	r3, [r2, #68]	@ 0x44
 8003532:	4b5a      	ldr	r3, [pc, #360]	@ (800369c <HAL_GPIO_Init+0x300>)
 8003534:	6c5b      	ldr	r3, [r3, #68]	@ 0x44
 8003536:	f403 4380 	and.w	r3, r3, #16384	@ 0x4000
 800353a:	60fb      	str	r3, [r7, #12]
 800353c:	68fb      	ldr	r3, [r7, #12]

        temp = SYSCFG->EXTICR[position >> 2U];
 800353e:	4a58      	ldr	r2, [pc, #352]	@ (80036a0 <HAL_GPIO_Init+0x304>)
 8003540:	69fb      	ldr	r3, [r7, #28]
 8003542:	089b      	lsrs	r3, r3, #2
 8003544:	3302      	adds	r3, #2
 8003546:	f852 3023 	ldr.w	r3, [r2, r3, lsl #2]
 800354a:	61bb      	str	r3, [r7, #24]
        temp &= ~(0x0FU << (4U * (position & 0x03U)));
 800354c:	69fb      	ldr	r3, [r7, #28]
 800354e:	f003 0303 	and.w	r3, r3, #3
 8003552:	009b      	lsls	r3, r3, #2
 8003554:	220f      	movs	r2, #15
 8003556:	fa02 f303 	lsl.w	r3, r2, r3
 800355a:	43db      	mvns	r3, r3
 800355c:	69ba      	ldr	r2, [r7, #24]
 800355e:	4013      	ands	r3, r2
 8003560:	61bb      	str	r3, [r7, #24]
        temp |= ((uint32_t)(GPIO_GET_INDEX(GPIOx)) << (4U * (position & 0x03U)));
 8003562:	687b      	ldr	r3, [r7, #4]
 8003564:	4a4f      	ldr	r2, [pc, #316]	@ (80036a4 <HAL_GPIO_Init+0x308>)
 8003566:	4293      	cmp	r3, r2
 8003568:	d025      	beq.n	80035b6 <HAL_GPIO_Init+0x21a>
 800356a:	687b      	ldr	r3, [r7, #4]
 800356c:	4a4e      	ldr	r2, [pc, #312]	@ (80036a8 <HAL_GPIO_Init+0x30c>)
 800356e:	4293      	cmp	r3, r2
 8003570:	d01f      	beq.n	80035b2 <HAL_GPIO_Init+0x216>
 8003572:	687b      	ldr	r3, [r7, #4]
 8003574:	4a4d      	ldr	r2, [pc, #308]	@ (80036ac <HAL_GPIO_Init+0x310>)
 8003576:	4293      	cmp	r3, r2
 8003578:	d019      	beq.n	80035ae <HAL_GPIO_Init+0x212>
 800357a:	687b      	ldr	r3, [r7, #4]
 800357c:	4a4c      	ldr	r2, [pc, #304]	@ (80036b0 <HAL_GPIO_Init+0x314>)
 800357e:	4293      	cmp	r3, r2
 8003580:	d013      	beq.n	80035aa <HAL_GPIO_Init+0x20e>
 8003582:	687b      	ldr	r3, [r7, #4]
 8003584:	4a4b      	ldr	r2, [pc, #300]	@ (80036b4 <HAL_GPIO_Init+0x318>)
 8003586:	4293      	cmp	r3, r2
 8003588:	d00d      	beq.n	80035a6 <HAL_GPIO_Init+0x20a>
 800358a:	687b      	ldr	r3, [r7, #4]
 800358c:	4a4a      	ldr	r2, [pc, #296]	@ (80036b8 <HAL_GPIO_Init+0x31c>)
 800358e:	4293      	cmp	r3, r2
 8003590:	d007      	beq.n	80035a2 <HAL_GPIO_Init+0x206>
 8003592:	687b      	ldr	r3, [r7, #4]
 8003594:	4a49      	ldr	r2, [pc, #292]	@ (80036bc <HAL_GPIO_Init+0x320>)
 8003596:	4293      	cmp	r3, r2
 8003598:	d101      	bne.n	800359e <HAL_GPIO_Init+0x202>
 800359a:	2306      	movs	r3, #6
 800359c:	e00c      	b.n	80035b8 <HAL_GPIO_Init+0x21c>
 800359e:	2307      	movs	r3, #7
 80035a0:	e00a      	b.n	80035b8 <HAL_GPIO_Init+0x21c>
 80035a2:	2305      	movs	r3, #5
 80035a4:	e008      	b.n	80035b8 <HAL_GPIO_Init+0x21c>
 80035a6:	2304      	movs	r3, #4
 80035a8:	e006      	b.n	80035b8 <HAL_GPIO_Init+0x21c>
 80035aa:	2303      	movs	r3, #3
 80035ac:	e004      	b.n	80035b8 <HAL_GPIO_Init+0x21c>
 80035ae:	2302      	movs	r3, #2
 80035b0:	e002      	b.n	80035b8 <HAL_GPIO_Init+0x21c>
 80035b2:	2301      	movs	r3, #1
 80035b4:	e000      	b.n	80035b8 <HAL_GPIO_Init+0x21c>
 80035b6:	2300      	movs	r3, #0
 80035b8:	69fa      	ldr	r2, [r7, #28]
 80035ba:	f002 0203 	and.w	r2, r2, #3
 80035be:	0092      	lsls	r2, r2, #2
 80035c0:	4093      	lsls	r3, r2
 80035c2:	69ba      	ldr	r2, [r7, #24]
 80035c4:	4313      	orrs	r3, r2
 80035c6:	61bb      	str	r3, [r7, #24]
        SYSCFG->EXTICR[position >> 2U] = temp;
 80035c8:	4935      	ldr	r1, [pc, #212]	@ (80036a0 <HAL_GPIO_Init+0x304>)
 80035ca:	69fb      	ldr	r3, [r7, #28]
 80035cc:	089b      	lsrs	r3, r3, #2
 80035ce:	3302      	adds	r3, #2
 80035d0:	69ba      	ldr	r2, [r7, #24]
 80035d2:	f841 2023 	str.w	r2, [r1, r3, lsl #2]

        /* Clear Rising Falling edge configuration */
        temp = EXTI->RTSR;
 80035d6:	4b3a      	ldr	r3, [pc, #232]	@ (80036c0 <HAL_GPIO_Init+0x324>)
 80035d8:	689b      	ldr	r3, [r3, #8]
 80035da:	61bb      	str	r3, [r7, #24]
        temp &= ~((uint32_t)iocurrent);
 80035dc:	693b      	ldr	r3, [r7, #16]
 80035de:	43db      	mvns	r3, r3
 80035e0:	69ba      	ldr	r2, [r7, #24]
 80035e2:	4013      	ands	r3, r2
 80035e4:	61bb      	str	r3, [r7, #24]
        if((GPIO_Init->Mode & TRIGGER_RISING) != 0x00U)
 80035e6:	683b      	ldr	r3, [r7, #0]
 80035e8:	685b      	ldr	r3, [r3, #4]
 80035ea:	f403 1380 	and.w	r3, r3, #1048576	@ 0x100000
 80035ee:	2b00      	cmp	r3, #0
 80035f0:	d003      	beq.n	80035fa <HAL_GPIO_Init+0x25e>
        {
          temp |= iocurrent;
 80035f2:	69ba      	ldr	r2, [r7, #24]
 80035f4:	693b      	ldr	r3, [r7, #16]
 80035f6:	4313      	orrs	r3, r2
 80035f8:	61bb      	str	r3, [r7, #24]
        }
        EXTI->RTSR = temp;
 80035fa:	4a31      	ldr	r2, [pc, #196]	@ (80036c0 <HAL_GPIO_Init+0x324>)
 80035fc:	69bb      	ldr	r3, [r7, #24]
 80035fe:	6093      	str	r3, [r2, #8]

        temp = EXTI->FTSR;
 8003600:	4b2f      	ldr	r3, [pc, #188]	@ (80036c0 <HAL_GPIO_Init+0x324>)
 8003602:	68db      	ldr	r3, [r3, #12]
 8003604:	61bb      	str	r3, [r7, #24]
        temp &= ~((uint32_t)iocurrent);
 8003606:	693b      	ldr	r3, [r7, #16]
 8003608:	43db      	mvns	r3, r3
 800360a:	69ba      	ldr	r2, [r7, #24]
 800360c:	4013      	ands	r3, r2
 800360e:	61bb      	str	r3, [r7, #24]
        if((GPIO_Init->Mode & TRIGGER_FALLING) != 0x00U)
 8003610:	683b      	ldr	r3, [r7, #0]
 8003612:	685b      	ldr	r3, [r3, #4]
 8003614:	f403 1300 	and.w	r3, r3, #2097152	@ 0x200000
 8003618:	2b00      	cmp	r3, #0
 800361a:	d003      	beq.n	8003624 <HAL_GPIO_Init+0x288>
        {
          temp |= iocurrent;
 800361c:	69ba      	ldr	r2, [r7, #24]
 800361e:	693b      	ldr	r3, [r7, #16]
 8003620:	4313      	orrs	r3, r2
 8003622:	61bb      	str	r3, [r7, #24]
        }
        EXTI->FTSR = temp;
 8003624:	4a26      	ldr	r2, [pc, #152]	@ (80036c0 <HAL_GPIO_Init+0x324>)
 8003626:	69bb      	ldr	r3, [r7, #24]
 8003628:	60d3      	str	r3, [r2, #12]

        temp = EXTI->EMR;
 800362a:	4b25      	ldr	r3, [pc, #148]	@ (80036c0 <HAL_GPIO_Init+0x324>)
 800362c:	685b      	ldr	r3, [r3, #4]
 800362e:	61bb      	str	r3, [r7, #24]
        temp &= ~((uint32_t)iocurrent);
 8003630:	693b      	ldr	r3, [r7, #16]
 8003632:	43db      	mvns	r3, r3
 8003634:	69ba      	ldr	r2, [r7, #24]
 8003636:	4013      	ands	r3, r2
 8003638:	61bb      	str	r3, [r7, #24]
        if((GPIO_Init->Mode & EXTI_EVT) != 0x00U)
 800363a:	683b      	ldr	r3, [r7, #0]
 800363c:	685b      	ldr	r3, [r3, #4]
 800363e:	f403 3300 	and.w	r3, r3, #131072	@ 0x20000
 8003642:	2b00      	cmp	r3, #0
 8003644:	d003      	beq.n	800364e <HAL_GPIO_Init+0x2b2>
        {
          temp |= iocurrent;
 8003646:	69ba      	ldr	r2, [r7, #24]
 8003648:	693b      	ldr	r3, [r7, #16]
 800364a:	4313      	orrs	r3, r2
 800364c:	61bb      	str	r3, [r7, #24]
        }
        EXTI->EMR = temp;
 800364e:	4a1c      	ldr	r2, [pc, #112]	@ (80036c0 <HAL_GPIO_Init+0x324>)
 8003650:	69bb      	ldr	r3, [r7, #24]
 8003652:	6053      	str	r3, [r2, #4]

        /* Clear EXTI line configuration */
        temp = EXTI->IMR;
 8003654:	4b1a      	ldr	r3, [pc, #104]	@ (80036c0 <HAL_GPIO_Init+0x324>)
 8003656:	681b      	ldr	r3, [r3, #0]
 8003658:	61bb      	str	r3, [r7, #24]
        temp &= ~((uint32_t)iocurrent);
 800365a:	693b      	ldr	r3, [r7, #16]
 800365c:	43db      	mvns	r3, r3
 800365e:	69ba      	ldr	r2, [r7, #24]
 8003660:	4013      	ands	r3, r2
 8003662:	61bb      	str	r3, [r7, #24]
        if((GPIO_Init->Mode & EXTI_IT) != 0x00U)
 8003664:	683b      	ldr	r3, [r7, #0]
 8003666:	685b      	ldr	r3, [r3, #4]
 8003668:	f403 3380 	and.w	r3, r3, #65536	@ 0x10000
 800366c:	2b00      	cmp	r3, #0
 800366e:	d003      	beq.n	8003678 <HAL_GPIO_Init+0x2dc>
        {
          temp |= iocurrent;
 8003670:	69ba      	ldr	r2, [r7, #24]
 8003672:	693b      	ldr	r3, [r7, #16]
 8003674:	4313      	orrs	r3, r2
 8003676:	61bb      	str	r3, [r7, #24]
        }
        EXTI->IMR = temp;
 8003678:	4a11      	ldr	r2, [pc, #68]	@ (80036c0 <HAL_GPIO_Init+0x324>)
 800367a:	69bb      	ldr	r3, [r7, #24]
 800367c:	6013      	str	r3, [r2, #0]
  for(position = 0U; position < GPIO_NUMBER; position++)
 800367e:	69fb      	ldr	r3, [r7, #28]
 8003680:	3301      	adds	r3, #1
 8003682:	61fb      	str	r3, [r7, #28]
 8003684:	69fb      	ldr	r3, [r7, #28]
 8003686:	2b0f      	cmp	r3, #15
 8003688:	f67f ae96 	bls.w	80033b8 <HAL_GPIO_Init+0x1c>
      }
    }
  }
}
 800368c:	bf00      	nop
 800368e:	bf00      	nop
 8003690:	3724      	adds	r7, #36	@ 0x24
 8003692:	46bd      	mov	sp, r7
 8003694:	f85d 7b04 	ldr.w	r7, [sp], #4
 8003698:	4770      	bx	lr
 800369a:	bf00      	nop
 800369c:	40023800 	.word	0x40023800
 80036a0:	40013800 	.word	0x40013800
 80036a4:	40020000 	.word	0x40020000
 80036a8:	40020400 	.word	0x40020400
 80036ac:	40020800 	.word	0x40020800
 80036b0:	40020c00 	.word	0x40020c00
 80036b4:	40021000 	.word	0x40021000
 80036b8:	40021400 	.word	0x40021400
 80036bc:	40021800 	.word	0x40021800
 80036c0:	40013c00 	.word	0x40013c00

080036c4 <HAL_GPIO_WritePin>:
  *            @arg GPIO_PIN_RESET: to clear the port pin
  *            @arg GPIO_PIN_SET: to set the port pin
  * @retval None
  */
void HAL_GPIO_WritePin(GPIO_TypeDef* GPIOx, uint16_t GPIO_Pin, GPIO_PinState PinState)
{
 80036c4:	b480      	push	{r7}
 80036c6:	b083      	sub	sp, #12
 80036c8:	af00      	add	r7, sp, #0
 80036ca:	6078      	str	r0, [r7, #4]
 80036cc:	460b      	mov	r3, r1
 80036ce:	807b      	strh	r3, [r7, #2]
 80036d0:	4613      	mov	r3, r2
 80036d2:	707b      	strb	r3, [r7, #1]
  /* Check the parameters */
  assert_param(IS_GPIO_PIN(GPIO_Pin));
  assert_param(IS_GPIO_PIN_ACTION(PinState));

  if(PinState != GPIO_PIN_RESET)
 80036d4:	787b      	ldrb	r3, [r7, #1]
 80036d6:	2b00      	cmp	r3, #0
 80036d8:	d003      	beq.n	80036e2 <HAL_GPIO_WritePin+0x1e>
  {
    GPIOx->BSRR = GPIO_Pin;
 80036da:	887a      	ldrh	r2, [r7, #2]
 80036dc:	687b      	ldr	r3, [r7, #4]
 80036de:	619a      	str	r2, [r3, #24]
  }
  else
  {
    GPIOx->BSRR = (uint32_t)GPIO_Pin << 16U;
  }
}
 80036e0:	e003      	b.n	80036ea <HAL_GPIO_WritePin+0x26>
    GPIOx->BSRR = (uint32_t)GPIO_Pin << 16U;
 80036e2:	887b      	ldrh	r3, [r7, #2]
 80036e4:	041a      	lsls	r2, r3, #16
 80036e6:	687b      	ldr	r3, [r7, #4]
 80036e8:	619a      	str	r2, [r3, #24]
}
 80036ea:	bf00      	nop
 80036ec:	370c      	adds	r7, #12
 80036ee:	46bd      	mov	sp, r7
 80036f0:	f85d 7b04 	ldr.w	r7, [sp], #4
 80036f4:	4770      	bx	lr
	...

080036f8 <HAL_I2C_Init>:
  * @param  hi2c Pointer to a I2C_HandleTypeDef structure that contains
  *                the configuration information for the specified I2C.
  * @retval HAL status
  */
HAL_StatusTypeDef HAL_I2C_Init(I2C_HandleTypeDef *hi2c)
{
 80036f8:	b580      	push	{r7, lr}
 80036fa:	b084      	sub	sp, #16
 80036fc:	af00      	add	r7, sp, #0
 80036fe:	6078      	str	r0, [r7, #4]
  uint32_t freqrange;
  uint32_t pclk1;

  /* Check the I2C handle allocation */
  if (hi2c == NULL)
 8003700:	687b      	ldr	r3, [r7, #4]
 8003702:	2b00      	cmp	r3, #0
 8003704:	d101      	bne.n	800370a <HAL_I2C_Init+0x12>
  {
    return HAL_ERROR;
 8003706:	2301      	movs	r3, #1
 8003708:	e12b      	b.n	8003962 <HAL_I2C_Init+0x26a>
  assert_param(IS_I2C_DUAL_ADDRESS(hi2c->Init.DualAddressMode));
  assert_param(IS_I2C_OWN_ADDRESS2(hi2c->Init.OwnAddress2));
  assert_param(IS_I2C_GENERAL_CALL(hi2c->Init.GeneralCallMode));
  assert_param(IS_I2C_NO_STRETCH(hi2c->Init.NoStretchMode));

  if (hi2c->State == HAL_I2C_STATE_RESET)
 800370a:	687b      	ldr	r3, [r7, #4]
 800370c:	f893 303d 	ldrb.w	r3, [r3, #61]	@ 0x3d
 8003710:	b2db      	uxtb	r3, r3
 8003712:	2b00      	cmp	r3, #0
 8003714:	d106      	bne.n	8003724 <HAL_I2C_Init+0x2c>
  {
    /* Allocate lock resource and initialize it */
    hi2c->Lock = HAL_UNLOCKED;
 8003716:	687b      	ldr	r3, [r7, #4]
 8003718:	2200      	movs	r2, #0
 800371a:	f883 203c 	strb.w	r2, [r3, #60]	@ 0x3c

    /* Init the low level hardware : GPIO, CLOCK, NVIC */
    hi2c->MspInitCallback(hi2c);
#else
    /* Init the low level hardware : GPIO, CLOCK, NVIC */
    HAL_I2C_MspInit(hi2c);
 800371e:	6878      	ldr	r0, [r7, #4]
 8003720:	f7ff fa36 	bl	8002b90 <HAL_I2C_MspInit>
#endif /* USE_HAL_I2C_REGISTER_CALLBACKS */
  }

  hi2c->State = HAL_I2C_STATE_BUSY;
 8003724:	687b      	ldr	r3, [r7, #4]
 8003726:	2224      	movs	r2, #36	@ 0x24
 8003728:	f883 203d 	strb.w	r2, [r3, #61]	@ 0x3d

  /* Disable the selected I2C peripheral */
  __HAL_I2C_DISABLE(hi2c);
 800372c:	687b      	ldr	r3, [r7, #4]
 800372e:	681b      	ldr	r3, [r3, #0]
 8003730:	681a      	ldr	r2, [r3, #0]
 8003732:	687b      	ldr	r3, [r7, #4]
 8003734:	681b      	ldr	r3, [r3, #0]
 8003736:	f022 0201 	bic.w	r2, r2, #1
 800373a:	601a      	str	r2, [r3, #0]

  /*Reset I2C*/
  hi2c->Instance->CR1 |= I2C_CR1_SWRST;
 800373c:	687b      	ldr	r3, [r7, #4]
 800373e:	681b      	ldr	r3, [r3, #0]
 8003740:	681a      	ldr	r2, [r3, #0]
 8003742:	687b      	ldr	r3, [r7, #4]
 8003744:	681b      	ldr	r3, [r3, #0]
 8003746:	f442 4200 	orr.w	r2, r2, #32768	@ 0x8000
 800374a:	601a      	str	r2, [r3, #0]
  hi2c->Instance->CR1 &= ~I2C_CR1_SWRST;
 800374c:	687b      	ldr	r3, [r7, #4]
 800374e:	681b      	ldr	r3, [r3, #0]
 8003750:	681a      	ldr	r2, [r3, #0]
 8003752:	687b      	ldr	r3, [r7, #4]
 8003754:	681b      	ldr	r3, [r3, #0]
 8003756:	f422 4200 	bic.w	r2, r2, #32768	@ 0x8000
 800375a:	601a      	str	r2, [r3, #0]

  /* Get PCLK1 frequency */
  pclk1 = HAL_RCC_GetPCLK1Freq();
 800375c:	f000 fa02 	bl	8003b64 <HAL_RCC_GetPCLK1Freq>
 8003760:	60f8      	str	r0, [r7, #12]

  /* Check the minimum allowed PCLK1 frequency */
  if (I2C_MIN_PCLK_FREQ(pclk1, hi2c->Init.ClockSpeed) == 1U)
 8003762:	687b      	ldr	r3, [r7, #4]
 8003764:	685b      	ldr	r3, [r3, #4]
 8003766:	4a81      	ldr	r2, [pc, #516]	@ (800396c <HAL_I2C_Init+0x274>)
 8003768:	4293      	cmp	r3, r2
 800376a:	d807      	bhi.n	800377c <HAL_I2C_Init+0x84>
 800376c:	68fb      	ldr	r3, [r7, #12]
 800376e:	4a80      	ldr	r2, [pc, #512]	@ (8003970 <HAL_I2C_Init+0x278>)
 8003770:	4293      	cmp	r3, r2
 8003772:	bf94      	ite	ls
 8003774:	2301      	movls	r3, #1
 8003776:	2300      	movhi	r3, #0
 8003778:	b2db      	uxtb	r3, r3
 800377a:	e006      	b.n	800378a <HAL_I2C_Init+0x92>
 800377c:	68fb      	ldr	r3, [r7, #12]
 800377e:	4a7d      	ldr	r2, [pc, #500]	@ (8003974 <HAL_I2C_Init+0x27c>)
 8003780:	4293      	cmp	r3, r2
 8003782:	bf94      	ite	ls
 8003784:	2301      	movls	r3, #1
 8003786:	2300      	movhi	r3, #0
 8003788:	b2db      	uxtb	r3, r3
 800378a:	2b00      	cmp	r3, #0
 800378c:	d001      	beq.n	8003792 <HAL_I2C_Init+0x9a>
  {
    return HAL_ERROR;
 800378e:	2301      	movs	r3, #1
 8003790:	e0e7      	b.n	8003962 <HAL_I2C_Init+0x26a>
  }

  /* Calculate frequency range */
  freqrange = I2C_FREQRANGE(pclk1);
 8003792:	68fb      	ldr	r3, [r7, #12]
 8003794:	4a78      	ldr	r2, [pc, #480]	@ (8003978 <HAL_I2C_Init+0x280>)
 8003796:	fba2 2303 	umull	r2, r3, r2, r3
 800379a:	0c9b      	lsrs	r3, r3, #18
 800379c:	60bb      	str	r3, [r7, #8]

  /*---------------------------- I2Cx CR2 Configuration ----------------------*/
  /* Configure I2Cx: Frequency range */
  MODIFY_REG(hi2c->Instance->CR2, I2C_CR2_FREQ, freqrange);
 800379e:	687b      	ldr	r3, [r7, #4]
 80037a0:	681b      	ldr	r3, [r3, #0]
 80037a2:	685b      	ldr	r3, [r3, #4]
 80037a4:	f023 013f 	bic.w	r1, r3, #63	@ 0x3f
 80037a8:	687b      	ldr	r3, [r7, #4]
 80037aa:	681b      	ldr	r3, [r3, #0]
 80037ac:	68ba      	ldr	r2, [r7, #8]
 80037ae:	430a      	orrs	r2, r1
 80037b0:	605a      	str	r2, [r3, #4]

  /*---------------------------- I2Cx TRISE Configuration --------------------*/
  /* Configure I2Cx: Rise Time */
  MODIFY_REG(hi2c->Instance->TRISE, I2C_TRISE_TRISE, I2C_RISE_TIME(freqrange, hi2c->Init.ClockSpeed));
 80037b2:	687b      	ldr	r3, [r7, #4]
 80037b4:	681b      	ldr	r3, [r3, #0]
 80037b6:	6a1b      	ldr	r3, [r3, #32]
 80037b8:	f023 013f 	bic.w	r1, r3, #63	@ 0x3f
 80037bc:	687b      	ldr	r3, [r7, #4]
 80037be:	685b      	ldr	r3, [r3, #4]
 80037c0:	4a6a      	ldr	r2, [pc, #424]	@ (800396c <HAL_I2C_Init+0x274>)
 80037c2:	4293      	cmp	r3, r2
 80037c4:	d802      	bhi.n	80037cc <HAL_I2C_Init+0xd4>
 80037c6:	68bb      	ldr	r3, [r7, #8]
 80037c8:	3301      	adds	r3, #1
 80037ca:	e009      	b.n	80037e0 <HAL_I2C_Init+0xe8>
 80037cc:	68bb      	ldr	r3, [r7, #8]
 80037ce:	f44f 7296 	mov.w	r2, #300	@ 0x12c
 80037d2:	fb02 f303 	mul.w	r3, r2, r3
 80037d6:	4a69      	ldr	r2, [pc, #420]	@ (800397c <HAL_I2C_Init+0x284>)
 80037d8:	fba2 2303 	umull	r2, r3, r2, r3
 80037dc:	099b      	lsrs	r3, r3, #6
 80037de:	3301      	adds	r3, #1
 80037e0:	687a      	ldr	r2, [r7, #4]
 80037e2:	6812      	ldr	r2, [r2, #0]
 80037e4:	430b      	orrs	r3, r1
 80037e6:	6213      	str	r3, [r2, #32]

  /*---------------------------- I2Cx CCR Configuration ----------------------*/
  /* Configure I2Cx: Speed */
  MODIFY_REG(hi2c->Instance->CCR, (I2C_CCR_FS | I2C_CCR_DUTY | I2C_CCR_CCR), I2C_SPEED(pclk1, hi2c->Init.ClockSpeed, hi2c->Init.DutyCycle));
 80037e8:	687b      	ldr	r3, [r7, #4]
 80037ea:	681b      	ldr	r3, [r3, #0]
 80037ec:	69db      	ldr	r3, [r3, #28]
 80037ee:	f423 424f 	bic.w	r2, r3, #52992	@ 0xcf00
 80037f2:	f022 02ff 	bic.w	r2, r2, #255	@ 0xff
 80037f6:	687b      	ldr	r3, [r7, #4]
 80037f8:	685b      	ldr	r3, [r3, #4]
 80037fa:	495c      	ldr	r1, [pc, #368]	@ (800396c <HAL_I2C_Init+0x274>)
 80037fc:	428b      	cmp	r3, r1
 80037fe:	d819      	bhi.n	8003834 <HAL_I2C_Init+0x13c>
 8003800:	68fb      	ldr	r3, [r7, #12]
 8003802:	1e59      	subs	r1, r3, #1
 8003804:	687b      	ldr	r3, [r7, #4]
 8003806:	685b      	ldr	r3, [r3, #4]
 8003808:	005b      	lsls	r3, r3, #1
 800380a:	fbb1 f3f3 	udiv	r3, r1, r3
 800380e:	1c59      	adds	r1, r3, #1
 8003810:	f640 73fc 	movw	r3, #4092	@ 0xffc
 8003814:	400b      	ands	r3, r1
 8003816:	2b00      	cmp	r3, #0
 8003818:	d00a      	beq.n	8003830 <HAL_I2C_Init+0x138>
 800381a:	68fb      	ldr	r3, [r7, #12]
 800381c:	1e59      	subs	r1, r3, #1
 800381e:	687b      	ldr	r3, [r7, #4]
 8003820:	685b      	ldr	r3, [r3, #4]
 8003822:	005b      	lsls	r3, r3, #1
 8003824:	fbb1 f3f3 	udiv	r3, r1, r3
 8003828:	3301      	adds	r3, #1
 800382a:	f3c3 030b 	ubfx	r3, r3, #0, #12
 800382e:	e051      	b.n	80038d4 <HAL_I2C_Init+0x1dc>
 8003830:	2304      	movs	r3, #4
 8003832:	e04f      	b.n	80038d4 <HAL_I2C_Init+0x1dc>
 8003834:	687b      	ldr	r3, [r7, #4]
 8003836:	689b      	ldr	r3, [r3, #8]
 8003838:	2b00      	cmp	r3, #0
 800383a:	d111      	bne.n	8003860 <HAL_I2C_Init+0x168>
 800383c:	68fb      	ldr	r3, [r7, #12]
 800383e:	1e58      	subs	r0, r3, #1
 8003840:	687b      	ldr	r3, [r7, #4]
 8003842:	6859      	ldr	r1, [r3, #4]
 8003844:	460b      	mov	r3, r1
 8003846:	005b      	lsls	r3, r3, #1
 8003848:	440b      	add	r3, r1
 800384a:	fbb0 f3f3 	udiv	r3, r0, r3
 800384e:	3301      	adds	r3, #1
 8003850:	f3c3 030b 	ubfx	r3, r3, #0, #12
 8003854:	2b00      	cmp	r3, #0
 8003856:	bf0c      	ite	eq
 8003858:	2301      	moveq	r3, #1
 800385a:	2300      	movne	r3, #0
 800385c:	b2db      	uxtb	r3, r3
 800385e:	e012      	b.n	8003886 <HAL_I2C_Init+0x18e>
 8003860:	68fb      	ldr	r3, [r7, #12]
 8003862:	1e58      	subs	r0, r3, #1
 8003864:	687b      	ldr	r3, [r7, #4]
 8003866:	6859      	ldr	r1, [r3, #4]
 8003868:	460b      	mov	r3, r1
 800386a:	009b      	lsls	r3, r3, #2
 800386c:	440b      	add	r3, r1
 800386e:	0099      	lsls	r1, r3, #2
 8003870:	440b      	add	r3, r1
 8003872:	fbb0 f3f3 	udiv	r3, r0, r3
 8003876:	3301      	adds	r3, #1
 8003878:	f3c3 030b 	ubfx	r3, r3, #0, #12
 800387c:	2b00      	cmp	r3, #0
 800387e:	bf0c      	ite	eq
 8003880:	2301      	moveq	r3, #1
 8003882:	2300      	movne	r3, #0
 8003884:	b2db      	uxtb	r3, r3
 8003886:	2b00      	cmp	r3, #0
 8003888:	d001      	beq.n	800388e <HAL_I2C_Init+0x196>
 800388a:	2301      	movs	r3, #1
 800388c:	e022      	b.n	80038d4 <HAL_I2C_Init+0x1dc>
 800388e:	687b      	ldr	r3, [r7, #4]
 8003890:	689b      	ldr	r3, [r3, #8]
 8003892:	2b00      	cmp	r3, #0
 8003894:	d10e      	bne.n	80038b4 <HAL_I2C_Init+0x1bc>
 8003896:	68fb      	ldr	r3, [r7, #12]
 8003898:	1e58      	subs	r0, r3, #1
 800389a:	687b      	ldr	r3, [r7, #4]
 800389c:	6859      	ldr	r1, [r3, #4]
 800389e:	460b      	mov	r3, r1
 80038a0:	005b      	lsls	r3, r3, #1
 80038a2:	440b      	add	r3, r1
 80038a4:	fbb0 f3f3 	udiv	r3, r0, r3
 80038a8:	3301      	adds	r3, #1
 80038aa:	f3c3 030b 	ubfx	r3, r3, #0, #12
 80038ae:	f443 4300 	orr.w	r3, r3, #32768	@ 0x8000
 80038b2:	e00f      	b.n	80038d4 <HAL_I2C_Init+0x1dc>
 80038b4:	68fb      	ldr	r3, [r7, #12]
 80038b6:	1e58      	subs	r0, r3, #1
 80038b8:	687b      	ldr	r3, [r7, #4]
 80038ba:	6859      	ldr	r1, [r3, #4]
 80038bc:	460b      	mov	r3, r1
 80038be:	009b      	lsls	r3, r3, #2
 80038c0:	440b      	add	r3, r1
 80038c2:	0099      	lsls	r1, r3, #2
 80038c4:	440b      	add	r3, r1
 80038c6:	fbb0 f3f3 	udiv	r3, r0, r3
 80038ca:	3301      	adds	r3, #1
 80038cc:	f3c3 030b 	ubfx	r3, r3, #0, #12
 80038d0:	f443 4340 	orr.w	r3, r3, #49152	@ 0xc000
 80038d4:	6879      	ldr	r1, [r7, #4]
 80038d6:	6809      	ldr	r1, [r1, #0]
 80038d8:	4313      	orrs	r3, r2
 80038da:	61cb      	str	r3, [r1, #28]

  /*---------------------------- I2Cx CR1 Configuration ----------------------*/
  /* Configure I2Cx: Generalcall and NoStretch mode */
  MODIFY_REG(hi2c->Instance->CR1, (I2C_CR1_ENGC | I2C_CR1_NOSTRETCH), (hi2c->Init.GeneralCallMode | hi2c->Init.NoStretchMode));
 80038dc:	687b      	ldr	r3, [r7, #4]
 80038de:	681b      	ldr	r3, [r3, #0]
 80038e0:	681b      	ldr	r3, [r3, #0]
 80038e2:	f023 01c0 	bic.w	r1, r3, #192	@ 0xc0
 80038e6:	687b      	ldr	r3, [r7, #4]
 80038e8:	69da      	ldr	r2, [r3, #28]
 80038ea:	687b      	ldr	r3, [r7, #4]
 80038ec:	6a1b      	ldr	r3, [r3, #32]
 80038ee:	431a      	orrs	r2, r3
 80038f0:	687b      	ldr	r3, [r7, #4]
 80038f2:	681b      	ldr	r3, [r3, #0]
 80038f4:	430a      	orrs	r2, r1
 80038f6:	601a      	str	r2, [r3, #0]

  /*---------------------------- I2Cx OAR1 Configuration ---------------------*/
  /* Configure I2Cx: Own Address1 and addressing mode */
  MODIFY_REG(hi2c->Instance->OAR1, (I2C_OAR1_ADDMODE | I2C_OAR1_ADD8_9 | I2C_OAR1_ADD1_7 | I2C_OAR1_ADD0), (hi2c->Init.AddressingMode | hi2c->Init.OwnAddress1));
 80038f8:	687b      	ldr	r3, [r7, #4]
 80038fa:	681b      	ldr	r3, [r3, #0]
 80038fc:	689b      	ldr	r3, [r3, #8]
 80038fe:	f423 4303 	bic.w	r3, r3, #33536	@ 0x8300
 8003902:	f023 03ff 	bic.w	r3, r3, #255	@ 0xff
 8003906:	687a      	ldr	r2, [r7, #4]
 8003908:	6911      	ldr	r1, [r2, #16]
 800390a:	687a      	ldr	r2, [r7, #4]
 800390c:	68d2      	ldr	r2, [r2, #12]
 800390e:	4311      	orrs	r1, r2
 8003910:	687a      	ldr	r2, [r7, #4]
 8003912:	6812      	ldr	r2, [r2, #0]
 8003914:	430b      	orrs	r3, r1
 8003916:	6093      	str	r3, [r2, #8]

  /*---------------------------- I2Cx OAR2 Configuration ---------------------*/
  /* Configure I2Cx: Dual mode and Own Address2 */
  MODIFY_REG(hi2c->Instance->OAR2, (I2C_OAR2_ENDUAL | I2C_OAR2_ADD2), (hi2c->Init.DualAddressMode | hi2c->Init.OwnAddress2));
 8003918:	687b      	ldr	r3, [r7, #4]
 800391a:	681b      	ldr	r3, [r3, #0]
 800391c:	68db      	ldr	r3, [r3, #12]
 800391e:	f023 01ff 	bic.w	r1, r3, #255	@ 0xff
 8003922:	687b      	ldr	r3, [r7, #4]
 8003924:	695a      	ldr	r2, [r3, #20]
 8003926:	687b      	ldr	r3, [r7, #4]
 8003928:	699b      	ldr	r3, [r3, #24]
 800392a:	431a      	orrs	r2, r3
 800392c:	687b      	ldr	r3, [r7, #4]
 800392e:	681b      	ldr	r3, [r3, #0]
 8003930:	430a      	orrs	r2, r1
 8003932:	60da      	str	r2, [r3, #12]

  /* Enable the selected I2C peripheral */
  __HAL_I2C_ENABLE(hi2c);
 8003934:	687b      	ldr	r3, [r7, #4]
 8003936:	681b      	ldr	r3, [r3, #0]
 8003938:	681a      	ldr	r2, [r3, #0]
 800393a:	687b      	ldr	r3, [r7, #4]
 800393c:	681b      	ldr	r3, [r3, #0]
 800393e:	f042 0201 	orr.w	r2, r2, #1
 8003942:	601a      	str	r2, [r3, #0]

  hi2c->ErrorCode = HAL_I2C_ERROR_NONE;
 8003944:	687b      	ldr	r3, [r7, #4]
 8003946:	2200      	movs	r2, #0
 8003948:	641a      	str	r2, [r3, #64]	@ 0x40
  hi2c->State = HAL_I2C_STATE_READY;
 800394a:	687b      	ldr	r3, [r7, #4]
 800394c:	2220      	movs	r2, #32
 800394e:	f883 203d 	strb.w	r2, [r3, #61]	@ 0x3d
  hi2c->PreviousState = I2C_STATE_NONE;
 8003952:	687b      	ldr	r3, [r7, #4]
 8003954:	2200      	movs	r2, #0
 8003956:	631a      	str	r2, [r3, #48]	@ 0x30
  hi2c->Mode = HAL_I2C_MODE_NONE;
 8003958:	687b      	ldr	r3, [r7, #4]
 800395a:	2200      	movs	r2, #0
 800395c:	f883 203e 	strb.w	r2, [r3, #62]	@ 0x3e

  return HAL_OK;
 8003960:	2300      	movs	r3, #0
}
 8003962:	4618      	mov	r0, r3
 8003964:	3710      	adds	r7, #16
 8003966:	46bd      	mov	sp, r7
 8003968:	bd80      	pop	{r7, pc}
 800396a:	bf00      	nop
 800396c:	000186a0 	.word	0x000186a0
 8003970:	001e847f 	.word	0x001e847f
 8003974:	003d08ff 	.word	0x003d08ff
 8003978:	431bde83 	.word	0x431bde83
 800397c:	10624dd3 	.word	0x10624dd3

08003980 <HAL_RCC_ClockConfig>:
  *         HPRE[3:0] bits to ensure that HCLK not exceed the maximum allowed frequency
  *         (for more details refer to section above "Initialization/de-initialization functions")
  * @retval None
  */
HAL_StatusTypeDef HAL_RCC_ClockConfig(RCC_ClkInitTypeDef  *RCC_ClkInitStruct, uint32_t FLatency)
{
 8003980:	b580      	push	{r7, lr}
 8003982:	b084      	sub	sp, #16
 8003984:	af00      	add	r7, sp, #0
 8003986:	6078      	str	r0, [r7, #4]
 8003988:	6039      	str	r1, [r7, #0]
  uint32_t tickstart;

  /* Check Null pointer */
  if (RCC_ClkInitStruct == NULL)
 800398a:	687b      	ldr	r3, [r7, #4]
 800398c:	2b00      	cmp	r3, #0
 800398e:	d101      	bne.n	8003994 <HAL_RCC_ClockConfig+0x14>
  {
    return HAL_ERROR;
 8003990:	2301      	movs	r3, #1
 8003992:	e0cc      	b.n	8003b2e <HAL_RCC_ClockConfig+0x1ae>
  /* To correctly read data from FLASH memory, the number of wait states (LATENCY)
    must be correctly programmed according to the frequency of the CPU clock
    (HCLK) and the supply voltage of the device. */

  /* Increasing the number of wait states because of higher CPU frequency */
  if (FLatency > __HAL_FLASH_GET_LATENCY())
 8003994:	4b68      	ldr	r3, [pc, #416]	@ (8003b38 <HAL_RCC_ClockConfig+0x1b8>)
 8003996:	681b      	ldr	r3, [r3, #0]
 8003998:	f003 030f 	and.w	r3, r3, #15
 800399c:	683a      	ldr	r2, [r7, #0]
 800399e:	429a      	cmp	r2, r3
 80039a0:	d90c      	bls.n	80039bc <HAL_RCC_ClockConfig+0x3c>
  {
    /* Program the new number of wait states to the LATENCY bits in the FLASH_ACR register */
    __HAL_FLASH_SET_LATENCY(FLatency);
 80039a2:	4b65      	ldr	r3, [pc, #404]	@ (8003b38 <HAL_RCC_ClockConfig+0x1b8>)
 80039a4:	683a      	ldr	r2, [r7, #0]
 80039a6:	b2d2      	uxtb	r2, r2
 80039a8:	701a      	strb	r2, [r3, #0]

    /* Check that the new number of wait states is taken into account to access the Flash
    memory by reading the FLASH_ACR register */
    if (__HAL_FLASH_GET_LATENCY() != FLatency)
 80039aa:	4b63      	ldr	r3, [pc, #396]	@ (8003b38 <HAL_RCC_ClockConfig+0x1b8>)
 80039ac:	681b      	ldr	r3, [r3, #0]
 80039ae:	f003 030f 	and.w	r3, r3, #15
 80039b2:	683a      	ldr	r2, [r7, #0]
 80039b4:	429a      	cmp	r2, r3
 80039b6:	d001      	beq.n	80039bc <HAL_RCC_ClockConfig+0x3c>
    {
      return HAL_ERROR;
 80039b8:	2301      	movs	r3, #1
 80039ba:	e0b8      	b.n	8003b2e <HAL_RCC_ClockConfig+0x1ae>
    }
  }

  /*-------------------------- HCLK Configuration --------------------------*/
  if (((RCC_ClkInitStruct->ClockType) & RCC_CLOCKTYPE_HCLK) == RCC_CLOCKTYPE_HCLK)
 80039bc:	687b      	ldr	r3, [r7, #4]
 80039be:	681b      	ldr	r3, [r3, #0]
 80039c0:	f003 0302 	and.w	r3, r3, #2
 80039c4:	2b00      	cmp	r3, #0
 80039c6:	d020      	beq.n	8003a0a <HAL_RCC_ClockConfig+0x8a>
  {
    /* Set the highest APBx dividers in order to ensure that we do not go through
       a non-spec phase whatever we decrease or increase HCLK. */
    if (((RCC_ClkInitStruct->ClockType) & RCC_CLOCKTYPE_PCLK1) == RCC_CLOCKTYPE_PCLK1)
 80039c8:	687b      	ldr	r3, [r7, #4]
 80039ca:	681b      	ldr	r3, [r3, #0]
 80039cc:	f003 0304 	and.w	r3, r3, #4
 80039d0:	2b00      	cmp	r3, #0
 80039d2:	d005      	beq.n	80039e0 <HAL_RCC_ClockConfig+0x60>
    {
      MODIFY_REG(RCC->CFGR, RCC_CFGR_PPRE1, RCC_HCLK_DIV16);
 80039d4:	4b59      	ldr	r3, [pc, #356]	@ (8003b3c <HAL_RCC_ClockConfig+0x1bc>)
 80039d6:	689b      	ldr	r3, [r3, #8]
 80039d8:	4a58      	ldr	r2, [pc, #352]	@ (8003b3c <HAL_RCC_ClockConfig+0x1bc>)
 80039da:	f443 53e0 	orr.w	r3, r3, #7168	@ 0x1c00
 80039de:	6093      	str	r3, [r2, #8]
    }

    if (((RCC_ClkInitStruct->ClockType) & RCC_CLOCKTYPE_PCLK2) == RCC_CLOCKTYPE_PCLK2)
 80039e0:	687b      	ldr	r3, [r7, #4]
 80039e2:	681b      	ldr	r3, [r3, #0]
 80039e4:	f003 0308 	and.w	r3, r3, #8
 80039e8:	2b00      	cmp	r3, #0
 80039ea:	d005      	beq.n	80039f8 <HAL_RCC_ClockConfig+0x78>
    {
      MODIFY_REG(RCC->CFGR, RCC_CFGR_PPRE2, (RCC_HCLK_DIV16 << 3));
 80039ec:	4b53      	ldr	r3, [pc, #332]	@ (8003b3c <HAL_RCC_ClockConfig+0x1bc>)
 80039ee:	689b      	ldr	r3, [r3, #8]
 80039f0:	4a52      	ldr	r2, [pc, #328]	@ (8003b3c <HAL_RCC_ClockConfig+0x1bc>)
 80039f2:	f443 4360 	orr.w	r3, r3, #57344	@ 0xe000
 80039f6:	6093      	str	r3, [r2, #8]
    }

    assert_param(IS_RCC_HCLK(RCC_ClkInitStruct->AHBCLKDivider));
    MODIFY_REG(RCC->CFGR, RCC_CFGR_HPRE, RCC_ClkInitStruct->AHBCLKDivider);
 80039f8:	4b50      	ldr	r3, [pc, #320]	@ (8003b3c <HAL_RCC_ClockConfig+0x1bc>)
 80039fa:	689b      	ldr	r3, [r3, #8]
 80039fc:	f023 02f0 	bic.w	r2, r3, #240	@ 0xf0
 8003a00:	687b      	ldr	r3, [r7, #4]
 8003a02:	689b      	ldr	r3, [r3, #8]
 8003a04:	494d      	ldr	r1, [pc, #308]	@ (8003b3c <HAL_RCC_ClockConfig+0x1bc>)
 8003a06:	4313      	orrs	r3, r2
 8003a08:	608b      	str	r3, [r1, #8]
  }

  /*------------------------- SYSCLK Configuration ---------------------------*/
  if (((RCC_ClkInitStruct->ClockType) & RCC_CLOCKTYPE_SYSCLK) == RCC_CLOCKTYPE_SYSCLK)
 8003a0a:	687b      	ldr	r3, [r7, #4]
 8003a0c:	681b      	ldr	r3, [r3, #0]
 8003a0e:	f003 0301 	and.w	r3, r3, #1
 8003a12:	2b00      	cmp	r3, #0
 8003a14:	d044      	beq.n	8003aa0 <HAL_RCC_ClockConfig+0x120>
  {
    assert_param(IS_RCC_SYSCLKSOURCE(RCC_ClkInitStruct->SYSCLKSource));

    /* HSE is selected as System Clock Source */
    if (RCC_ClkInitStruct->SYSCLKSource == RCC_SYSCLKSOURCE_HSE)
 8003a16:	687b      	ldr	r3, [r7, #4]
 8003a18:	685b      	ldr	r3, [r3, #4]
 8003a1a:	2b01      	cmp	r3, #1
 8003a1c:	d107      	bne.n	8003a2e <HAL_RCC_ClockConfig+0xae>
    {
      /* Check the HSE ready flag */
      if (__HAL_RCC_GET_FLAG(RCC_FLAG_HSERDY) == RESET)
 8003a1e:	4b47      	ldr	r3, [pc, #284]	@ (8003b3c <HAL_RCC_ClockConfig+0x1bc>)
 8003a20:	681b      	ldr	r3, [r3, #0]
 8003a22:	f403 3300 	and.w	r3, r3, #131072	@ 0x20000
 8003a26:	2b00      	cmp	r3, #0
 8003a28:	d119      	bne.n	8003a5e <HAL_RCC_ClockConfig+0xde>
      {
        return HAL_ERROR;
 8003a2a:	2301      	movs	r3, #1
 8003a2c:	e07f      	b.n	8003b2e <HAL_RCC_ClockConfig+0x1ae>
      }
    }
    /* PLL is selected as System Clock Source */
    else if ((RCC_ClkInitStruct->SYSCLKSource == RCC_SYSCLKSOURCE_PLLCLK)   ||
 8003a2e:	687b      	ldr	r3, [r7, #4]
 8003a30:	685b      	ldr	r3, [r3, #4]
 8003a32:	2b02      	cmp	r3, #2
 8003a34:	d003      	beq.n	8003a3e <HAL_RCC_ClockConfig+0xbe>
             (RCC_ClkInitStruct->SYSCLKSource == RCC_SYSCLKSOURCE_PLLRCLK))
 8003a36:	687b      	ldr	r3, [r7, #4]
 8003a38:	685b      	ldr	r3, [r3, #4]
    else if ((RCC_ClkInitStruct->SYSCLKSource == RCC_SYSCLKSOURCE_PLLCLK)   ||
 8003a3a:	2b03      	cmp	r3, #3
 8003a3c:	d107      	bne.n	8003a4e <HAL_RCC_ClockConfig+0xce>
    {
      /* Check the PLL ready flag */
      if (__HAL_RCC_GET_FLAG(RCC_FLAG_PLLRDY) == RESET)
 8003a3e:	4b3f      	ldr	r3, [pc, #252]	@ (8003b3c <HAL_RCC_ClockConfig+0x1bc>)
 8003a40:	681b      	ldr	r3, [r3, #0]
 8003a42:	f003 7300 	and.w	r3, r3, #33554432	@ 0x2000000
 8003a46:	2b00      	cmp	r3, #0
 8003a48:	d109      	bne.n	8003a5e <HAL_RCC_ClockConfig+0xde>
      {
        return HAL_ERROR;
 8003a4a:	2301      	movs	r3, #1
 8003a4c:	e06f      	b.n	8003b2e <HAL_RCC_ClockConfig+0x1ae>
    }
    /* HSI is selected as System Clock Source */
    else
    {
      /* Check the HSI ready flag */
      if (__HAL_RCC_GET_FLAG(RCC_FLAG_HSIRDY) == RESET)
 8003a4e:	4b3b      	ldr	r3, [pc, #236]	@ (8003b3c <HAL_RCC_ClockConfig+0x1bc>)
 8003a50:	681b      	ldr	r3, [r3, #0]
 8003a52:	f003 0302 	and.w	r3, r3, #2
 8003a56:	2b00      	cmp	r3, #0
 8003a58:	d101      	bne.n	8003a5e <HAL_RCC_ClockConfig+0xde>
      {
        return HAL_ERROR;
 8003a5a:	2301      	movs	r3, #1
 8003a5c:	e067      	b.n	8003b2e <HAL_RCC_ClockConfig+0x1ae>
      }
    }

    __HAL_RCC_SYSCLK_CONFIG(RCC_ClkInitStruct->SYSCLKSource);
 8003a5e:	4b37      	ldr	r3, [pc, #220]	@ (8003b3c <HAL_RCC_ClockConfig+0x1bc>)
 8003a60:	689b      	ldr	r3, [r3, #8]
 8003a62:	f023 0203 	bic.w	r2, r3, #3
 8003a66:	687b      	ldr	r3, [r7, #4]
 8003a68:	685b      	ldr	r3, [r3, #4]
 8003a6a:	4934      	ldr	r1, [pc, #208]	@ (8003b3c <HAL_RCC_ClockConfig+0x1bc>)
 8003a6c:	4313      	orrs	r3, r2
 8003a6e:	608b      	str	r3, [r1, #8]

    /* Get Start Tick */
    tickstart = HAL_GetTick();
 8003a70:	f7ff fa86 	bl	8002f80 <HAL_GetTick>
 8003a74:	60f8      	str	r0, [r7, #12]

    while (__HAL_RCC_GET_SYSCLK_SOURCE() != (RCC_ClkInitStruct->SYSCLKSource << RCC_CFGR_SWS_Pos))
 8003a76:	e00a      	b.n	8003a8e <HAL_RCC_ClockConfig+0x10e>
    {
      if ((HAL_GetTick() - tickstart) > CLOCKSWITCH_TIMEOUT_VALUE)
 8003a78:	f7ff fa82 	bl	8002f80 <HAL_GetTick>
 8003a7c:	4602      	mov	r2, r0
 8003a7e:	68fb      	ldr	r3, [r7, #12]
 8003a80:	1ad3      	subs	r3, r2, r3
 8003a82:	f241 3288 	movw	r2, #5000	@ 0x1388
 8003a86:	4293      	cmp	r3, r2
 8003a88:	d901      	bls.n	8003a8e <HAL_RCC_ClockConfig+0x10e>
      {
        return HAL_TIMEOUT;
 8003a8a:	2303      	movs	r3, #3
 8003a8c:	e04f      	b.n	8003b2e <HAL_RCC_ClockConfig+0x1ae>
    while (__HAL_RCC_GET_SYSCLK_SOURCE() != (RCC_ClkInitStruct->SYSCLKSource << RCC_CFGR_SWS_Pos))
 8003a8e:	4b2b      	ldr	r3, [pc, #172]	@ (8003b3c <HAL_RCC_ClockConfig+0x1bc>)
 8003a90:	689b      	ldr	r3, [r3, #8]
 8003a92:	f003 020c 	and.w	r2, r3, #12
 8003a96:	687b      	ldr	r3, [r7, #4]
 8003a98:	685b      	ldr	r3, [r3, #4]
 8003a9a:	009b      	lsls	r3, r3, #2
 8003a9c:	429a      	cmp	r2, r3
 8003a9e:	d1eb      	bne.n	8003a78 <HAL_RCC_ClockConfig+0xf8>
      }
    }
  }

  /* Decreasing the number of wait states because of lower CPU frequency */
  if (FLatency < __HAL_FLASH_GET_LATENCY())
 8003aa0:	4b25      	ldr	r3, [pc, #148]	@ (8003b38 <HAL_RCC_ClockConfig+0x1b8>)
 8003aa2:	681b      	ldr	r3, [r3, #0]
 8003aa4:	f003 030f 	and.w	r3, r3, #15
 8003aa8:	683a      	ldr	r2, [r7, #0]
 8003aaa:	429a      	cmp	r2, r3
 8003aac:	d20c      	bcs.n	8003ac8 <HAL_RCC_ClockConfig+0x148>
  {
    /* Program the new number of wait states to the LATENCY bits in the FLASH_ACR register */
    __HAL_FLASH_SET_LATENCY(FLatency);
 8003aae:	4b22      	ldr	r3, [pc, #136]	@ (8003b38 <HAL_RCC_ClockConfig+0x1b8>)
 8003ab0:	683a      	ldr	r2, [r7, #0]
 8003ab2:	b2d2      	uxtb	r2, r2
 8003ab4:	701a      	strb	r2, [r3, #0]

    /* Check that the new number of wait states is taken into account to access the Flash
    memory by reading the FLASH_ACR register */
    if (__HAL_FLASH_GET_LATENCY() != FLatency)
 8003ab6:	4b20      	ldr	r3, [pc, #128]	@ (8003b38 <HAL_RCC_ClockConfig+0x1b8>)
 8003ab8:	681b      	ldr	r3, [r3, #0]
 8003aba:	f003 030f 	and.w	r3, r3, #15
 8003abe:	683a      	ldr	r2, [r7, #0]
 8003ac0:	429a      	cmp	r2, r3
 8003ac2:	d001      	beq.n	8003ac8 <HAL_RCC_ClockConfig+0x148>
    {
      return HAL_ERROR;
 8003ac4:	2301      	movs	r3, #1
 8003ac6:	e032      	b.n	8003b2e <HAL_RCC_ClockConfig+0x1ae>
    }
  }

  /*-------------------------- PCLK1 Configuration ---------------------------*/
  if (((RCC_ClkInitStruct->ClockType) & RCC_CLOCKTYPE_PCLK1) == RCC_CLOCKTYPE_PCLK1)
 8003ac8:	687b      	ldr	r3, [r7, #4]
 8003aca:	681b      	ldr	r3, [r3, #0]
 8003acc:	f003 0304 	and.w	r3, r3, #4
 8003ad0:	2b00      	cmp	r3, #0
 8003ad2:	d008      	beq.n	8003ae6 <HAL_RCC_ClockConfig+0x166>
  {
    assert_param(IS_RCC_PCLK(RCC_ClkInitStruct->APB1CLKDivider));
    MODIFY_REG(RCC->CFGR, RCC_CFGR_PPRE1, RCC_ClkInitStruct->APB1CLKDivider);
 8003ad4:	4b19      	ldr	r3, [pc, #100]	@ (8003b3c <HAL_RCC_ClockConfig+0x1bc>)
 8003ad6:	689b      	ldr	r3, [r3, #8]
 8003ad8:	f423 52e0 	bic.w	r2, r3, #7168	@ 0x1c00
 8003adc:	687b      	ldr	r3, [r7, #4]
 8003ade:	68db      	ldr	r3, [r3, #12]
 8003ae0:	4916      	ldr	r1, [pc, #88]	@ (8003b3c <HAL_RCC_ClockConfig+0x1bc>)
 8003ae2:	4313      	orrs	r3, r2
 8003ae4:	608b      	str	r3, [r1, #8]
  }

  /*-------------------------- PCLK2 Configuration ---------------------------*/
  if (((RCC_ClkInitStruct->ClockType) & RCC_CLOCKTYPE_PCLK2) == RCC_CLOCKTYPE_PCLK2)
 8003ae6:	687b      	ldr	r3, [r7, #4]
 8003ae8:	681b      	ldr	r3, [r3, #0]
 8003aea:	f003 0308 	and.w	r3, r3, #8
 8003aee:	2b00      	cmp	r3, #0
 8003af0:	d009      	beq.n	8003b06 <HAL_RCC_ClockConfig+0x186>
  {
    assert_param(IS_RCC_PCLK(RCC_ClkInitStruct->APB2CLKDivider));
    MODIFY_REG(RCC->CFGR, RCC_CFGR_PPRE2, ((RCC_ClkInitStruct->APB2CLKDivider) << 3U));
 8003af2:	4b12      	ldr	r3, [pc, #72]	@ (8003b3c <HAL_RCC_ClockConfig+0x1bc>)
 8003af4:	689b      	ldr	r3, [r3, #8]
 8003af6:	f423 4260 	bic.w	r2, r3, #57344	@ 0xe000
 8003afa:	687b      	ldr	r3, [r7, #4]
 8003afc:	691b      	ldr	r3, [r3, #16]
 8003afe:	00db      	lsls	r3, r3, #3
 8003b00:	490e      	ldr	r1, [pc, #56]	@ (8003b3c <HAL_RCC_ClockConfig+0x1bc>)
 8003b02:	4313      	orrs	r3, r2
 8003b04:	608b      	str	r3, [r1, #8]
  }

  /* Update the SystemCoreClock global variable */
  SystemCoreClock = HAL_RCC_GetSysClockFreq() >> AHBPrescTable[(RCC->CFGR & RCC_CFGR_HPRE) >> RCC_CFGR_HPRE_Pos];
 8003b06:	f000 f887 	bl	8003c18 <HAL_RCC_GetSysClockFreq>
 8003b0a:	4602      	mov	r2, r0
 8003b0c:	4b0b      	ldr	r3, [pc, #44]	@ (8003b3c <HAL_RCC_ClockConfig+0x1bc>)
 8003b0e:	689b      	ldr	r3, [r3, #8]
 8003b10:	091b      	lsrs	r3, r3, #4
 8003b12:	f003 030f 	and.w	r3, r3, #15
 8003b16:	490a      	ldr	r1, [pc, #40]	@ (8003b40 <HAL_RCC_ClockConfig+0x1c0>)
 8003b18:	5ccb      	ldrb	r3, [r1, r3]
 8003b1a:	fa22 f303 	lsr.w	r3, r2, r3
 8003b1e:	4a09      	ldr	r2, [pc, #36]	@ (8003b44 <HAL_RCC_ClockConfig+0x1c4>)
 8003b20:	6013      	str	r3, [r2, #0]

  /* Configure the source of time base considering new system clocks settings */
  HAL_InitTick(uwTickPrio);
 8003b22:	4b09      	ldr	r3, [pc, #36]	@ (8003b48 <HAL_RCC_ClockConfig+0x1c8>)
 8003b24:	681b      	ldr	r3, [r3, #0]
 8003b26:	4618      	mov	r0, r3
 8003b28:	f7ff f90a 	bl	8002d40 <HAL_InitTick>

  return HAL_OK;
 8003b2c:	2300      	movs	r3, #0
}
 8003b2e:	4618      	mov	r0, r3
 8003b30:	3710      	adds	r7, #16
 8003b32:	46bd      	mov	sp, r7
 8003b34:	bd80      	pop	{r7, pc}
 8003b36:	bf00      	nop
 8003b38:	40023c00 	.word	0x40023c00
 8003b3c:	40023800 	.word	0x40023800
 8003b40:	08009034 	.word	0x08009034
 8003b44:	20000004 	.word	0x20000004
 8003b48:	20000008 	.word	0x20000008

08003b4c <HAL_RCC_GetHCLKFreq>:
  * @note   The SystemCoreClock CMSIS variable is used to store System Clock Frequency
  *         and updated within this function
  * @retval HCLK frequency
  */
uint32_t HAL_RCC_GetHCLKFreq(void)
{
 8003b4c:	b480      	push	{r7}
 8003b4e:	af00      	add	r7, sp, #0
  return SystemCoreClock;
 8003b50:	4b03      	ldr	r3, [pc, #12]	@ (8003b60 <HAL_RCC_GetHCLKFreq+0x14>)
 8003b52:	681b      	ldr	r3, [r3, #0]
}
 8003b54:	4618      	mov	r0, r3
 8003b56:	46bd      	mov	sp, r7
 8003b58:	f85d 7b04 	ldr.w	r7, [sp], #4
 8003b5c:	4770      	bx	lr
 8003b5e:	bf00      	nop
 8003b60:	20000004 	.word	0x20000004

08003b64 <HAL_RCC_GetPCLK1Freq>:
  * @note   Each time PCLK1 changes, this function must be called to update the
  *         right PCLK1 value. Otherwise, any configuration based on this function will be incorrect.
  * @retval PCLK1 frequency
  */
uint32_t HAL_RCC_GetPCLK1Freq(void)
{
 8003b64:	b580      	push	{r7, lr}
 8003b66:	af00      	add	r7, sp, #0
  /* Get HCLK source and Compute PCLK1 frequency ---------------------------*/
  return (HAL_RCC_GetHCLKFreq() >> APBPrescTable[(RCC->CFGR & RCC_CFGR_PPRE1) >> RCC_CFGR_PPRE1_Pos]);
 8003b68:	f7ff fff0 	bl	8003b4c <HAL_RCC_GetHCLKFreq>
 8003b6c:	4602      	mov	r2, r0
 8003b6e:	4b05      	ldr	r3, [pc, #20]	@ (8003b84 <HAL_RCC_GetPCLK1Freq+0x20>)
 8003b70:	689b      	ldr	r3, [r3, #8]
 8003b72:	0a9b      	lsrs	r3, r3, #10
 8003b74:	f003 0307 	and.w	r3, r3, #7
 8003b78:	4903      	ldr	r1, [pc, #12]	@ (8003b88 <HAL_RCC_GetPCLK1Freq+0x24>)
 8003b7a:	5ccb      	ldrb	r3, [r1, r3]
 8003b7c:	fa22 f303 	lsr.w	r3, r2, r3
}
 8003b80:	4618      	mov	r0, r3
 8003b82:	bd80      	pop	{r7, pc}
 8003b84:	40023800 	.word	0x40023800
 8003b88:	08009044 	.word	0x08009044

08003b8c <HAL_RCC_GetPCLK2Freq>:
  * @note   Each time PCLK2 changes, this function must be called to update the
  *         right PCLK2 value. Otherwise, any configuration based on this function will be incorrect.
  * @retval PCLK2 frequency
  */
uint32_t HAL_RCC_GetPCLK2Freq(void)
{
 8003b8c:	b580      	push	{r7, lr}
 8003b8e:	af00      	add	r7, sp, #0
  /* Get HCLK source and Compute PCLK2 frequency ---------------------------*/
  return (HAL_RCC_GetHCLKFreq() >> APBPrescTable[(RCC->CFGR & RCC_CFGR_PPRE2) >> RCC_CFGR_PPRE2_Pos]);
 8003b90:	f7ff ffdc 	bl	8003b4c <HAL_RCC_GetHCLKFreq>
 8003b94:	4602      	mov	r2, r0
 8003b96:	4b05      	ldr	r3, [pc, #20]	@ (8003bac <HAL_RCC_GetPCLK2Freq+0x20>)
 8003b98:	689b      	ldr	r3, [r3, #8]
 8003b9a:	0b5b      	lsrs	r3, r3, #13
 8003b9c:	f003 0307 	and.w	r3, r3, #7
 8003ba0:	4903      	ldr	r1, [pc, #12]	@ (8003bb0 <HAL_RCC_GetPCLK2Freq+0x24>)
 8003ba2:	5ccb      	ldrb	r3, [r1, r3]
 8003ba4:	fa22 f303 	lsr.w	r3, r2, r3
}
 8003ba8:	4618      	mov	r0, r3
 8003baa:	bd80      	pop	{r7, pc}
 8003bac:	40023800 	.word	0x40023800
 8003bb0:	08009044 	.word	0x08009044

08003bb4 <HAL_RCC_GetClockConfig>:
  * will be configured.
  * @param  pFLatency Pointer on the Flash Latency.
  * @retval None
  */
void HAL_RCC_GetClockConfig(RCC_ClkInitTypeDef  *RCC_ClkInitStruct, uint32_t *pFLatency)
{
 8003bb4:	b480      	push	{r7}
 8003bb6:	b083      	sub	sp, #12
 8003bb8:	af00      	add	r7, sp, #0
 8003bba:	6078      	str	r0, [r7, #4]
 8003bbc:	6039      	str	r1, [r7, #0]
  /* Set all possible values for the Clock type parameter --------------------*/
  RCC_ClkInitStruct->ClockType = RCC_CLOCKTYPE_SYSCLK | RCC_CLOCKTYPE_HCLK | RCC_CLOCKTYPE_PCLK1 | RCC_CLOCKTYPE_PCLK2;
 8003bbe:	687b      	ldr	r3, [r7, #4]
 8003bc0:	220f      	movs	r2, #15
 8003bc2:	601a      	str	r2, [r3, #0]

  /* Get the SYSCLK configuration --------------------------------------------*/
  RCC_ClkInitStruct->SYSCLKSource = (uint32_t)(RCC->CFGR & RCC_CFGR_SW);
 8003bc4:	4b12      	ldr	r3, [pc, #72]	@ (8003c10 <HAL_RCC_GetClockConfig+0x5c>)
 8003bc6:	689b      	ldr	r3, [r3, #8]
 8003bc8:	f003 0203 	and.w	r2, r3, #3
 8003bcc:	687b      	ldr	r3, [r7, #4]
 8003bce:	605a      	str	r2, [r3, #4]

  /* Get the HCLK configuration ----------------------------------------------*/
  RCC_ClkInitStruct->AHBCLKDivider = (uint32_t)(RCC->CFGR & RCC_CFGR_HPRE);
 8003bd0:	4b0f      	ldr	r3, [pc, #60]	@ (8003c10 <HAL_RCC_GetClockConfig+0x5c>)
 8003bd2:	689b      	ldr	r3, [r3, #8]
 8003bd4:	f003 02f0 	and.w	r2, r3, #240	@ 0xf0
 8003bd8:	687b      	ldr	r3, [r7, #4]
 8003bda:	609a      	str	r2, [r3, #8]

  /* Get the APB1 configuration ----------------------------------------------*/
  RCC_ClkInitStruct->APB1CLKDivider = (uint32_t)(RCC->CFGR & RCC_CFGR_PPRE1);
 8003bdc:	4b0c      	ldr	r3, [pc, #48]	@ (8003c10 <HAL_RCC_GetClockConfig+0x5c>)
 8003bde:	689b      	ldr	r3, [r3, #8]
 8003be0:	f403 52e0 	and.w	r2, r3, #7168	@ 0x1c00
 8003be4:	687b      	ldr	r3, [r7, #4]
 8003be6:	60da      	str	r2, [r3, #12]

  /* Get the APB2 configuration ----------------------------------------------*/
  RCC_ClkInitStruct->APB2CLKDivider = (uint32_t)((RCC->CFGR & RCC_CFGR_PPRE2) >> 3U);
 8003be8:	4b09      	ldr	r3, [pc, #36]	@ (8003c10 <HAL_RCC_GetClockConfig+0x5c>)
 8003bea:	689b      	ldr	r3, [r3, #8]
 8003bec:	08db      	lsrs	r3, r3, #3
 8003bee:	f403 52e0 	and.w	r2, r3, #7168	@ 0x1c00
 8003bf2:	687b      	ldr	r3, [r7, #4]
 8003bf4:	611a      	str	r2, [r3, #16]

  /* Get the Flash Wait State (Latency) configuration ------------------------*/
  *pFLatency = (uint32_t)(FLASH->ACR & FLASH_ACR_LATENCY);
 8003bf6:	4b07      	ldr	r3, [pc, #28]	@ (8003c14 <HAL_RCC_GetClockConfig+0x60>)
 8003bf8:	681b      	ldr	r3, [r3, #0]
 8003bfa:	f003 020f 	and.w	r2, r3, #15
 8003bfe:	683b      	ldr	r3, [r7, #0]
 8003c00:	601a      	str	r2, [r3, #0]
}
 8003c02:	bf00      	nop
 8003c04:	370c      	adds	r7, #12
 8003c06:	46bd      	mov	sp, r7
 8003c08:	f85d 7b04 	ldr.w	r7, [sp], #4
 8003c0c:	4770      	bx	lr
 8003c0e:	bf00      	nop
 8003c10:	40023800 	.word	0x40023800
 8003c14:	40023c00 	.word	0x40023c00

08003c18 <HAL_RCC_GetSysClockFreq>:
  *
  *
  * @retval SYSCLK frequency
  */
uint32_t HAL_RCC_GetSysClockFreq(void)
{
 8003c18:	e92d 4fb0 	stmdb	sp!, {r4, r5, r7, r8, r9, sl, fp, lr}
 8003c1c:	b0ae      	sub	sp, #184	@ 0xb8
 8003c1e:	af00      	add	r7, sp, #0
  uint32_t pllm = 0U;
 8003c20:	2300      	movs	r3, #0
 8003c22:	f8c7 30ac 	str.w	r3, [r7, #172]	@ 0xac
  uint32_t pllvco = 0U;
 8003c26:	2300      	movs	r3, #0
 8003c28:	f8c7 30b4 	str.w	r3, [r7, #180]	@ 0xb4
  uint32_t pllp = 0U;
 8003c2c:	2300      	movs	r3, #0
 8003c2e:	f8c7 30a8 	str.w	r3, [r7, #168]	@ 0xa8
  uint32_t pllr = 0U;
 8003c32:	2300      	movs	r3, #0
 8003c34:	f8c7 30a4 	str.w	r3, [r7, #164]	@ 0xa4
  uint32_t sysclockfreq = 0U;
 8003c38:	2300      	movs	r3, #0
 8003c3a:	f8c7 30b0 	str.w	r3, [r7, #176]	@ 0xb0

  /* Get SYSCLK source -------------------------------------------------------*/
  switch (RCC->CFGR & RCC_CFGR_SWS)
 8003c3e:	4bcb      	ldr	r3, [pc, #812]	@ (8003f6c <HAL_RCC_GetSysClockFreq+0x354>)
 8003c40:	689b      	ldr	r3, [r3, #8]
 8003c42:	f003 030c 	and.w	r3, r3, #12
 8003c46:	2b0c      	cmp	r3, #12
 8003c48:	f200 8206 	bhi.w	8004058 <HAL_RCC_GetSysClockFreq+0x440>
 8003c4c:	a201      	add	r2, pc, #4	@ (adr r2, 8003c54 <HAL_RCC_GetSysClockFreq+0x3c>)
 8003c4e:	f852 f023 	ldr.w	pc, [r2, r3, lsl #2]
 8003c52:	bf00      	nop
 8003c54:	08003c89 	.word	0x08003c89
 8003c58:	08004059 	.word	0x08004059
 8003c5c:	08004059 	.word	0x08004059
 8003c60:	08004059 	.word	0x08004059
 8003c64:	08003c91 	.word	0x08003c91
 8003c68:	08004059 	.word	0x08004059
 8003c6c:	08004059 	.word	0x08004059
 8003c70:	08004059 	.word	0x08004059
 8003c74:	08003c99 	.word	0x08003c99
 8003c78:	08004059 	.word	0x08004059
 8003c7c:	08004059 	.word	0x08004059
 8003c80:	08004059 	.word	0x08004059
 8003c84:	08003e89 	.word	0x08003e89
  {
    case RCC_CFGR_SWS_HSI:  /* HSI used as system clock source */
    {
      sysclockfreq = HSI_VALUE;
 8003c88:	4bb9      	ldr	r3, [pc, #740]	@ (8003f70 <HAL_RCC_GetSysClockFreq+0x358>)
 8003c8a:	f8c7 30b0 	str.w	r3, [r7, #176]	@ 0xb0
      break;
 8003c8e:	e1e7      	b.n	8004060 <HAL_RCC_GetSysClockFreq+0x448>
    }
    case RCC_CFGR_SWS_HSE:  /* HSE used as system clock  source */
    {
      sysclockfreq = HSE_VALUE;
 8003c90:	4bb8      	ldr	r3, [pc, #736]	@ (8003f74 <HAL_RCC_GetSysClockFreq+0x35c>)
 8003c92:	f8c7 30b0 	str.w	r3, [r7, #176]	@ 0xb0
      break;
 8003c96:	e1e3      	b.n	8004060 <HAL_RCC_GetSysClockFreq+0x448>
    }
    case RCC_CFGR_SWS_PLL:  /* PLL/PLLP used as system clock  source */
    {
      /* PLL_VCO = (HSE_VALUE or HSI_VALUE / PLLM) * PLLN
      SYSCLK = PLL_VCO / PLLP */
      pllm = RCC->PLLCFGR & RCC_PLLCFGR_PLLM;
 8003c98:	4bb4      	ldr	r3, [pc, #720]	@ (8003f6c <HAL_RCC_GetSysClockFreq+0x354>)
 8003c9a:	685b      	ldr	r3, [r3, #4]
 8003c9c:	f003 033f 	and.w	r3, r3, #63	@ 0x3f
 8003ca0:	f8c7 30ac 	str.w	r3, [r7, #172]	@ 0xac
      if (__HAL_RCC_GET_PLL_OSCSOURCE() != RCC_PLLSOURCE_HSI)
 8003ca4:	4bb1      	ldr	r3, [pc, #708]	@ (8003f6c <HAL_RCC_GetSysClockFreq+0x354>)
 8003ca6:	685b      	ldr	r3, [r3, #4]
 8003ca8:	f403 0380 	and.w	r3, r3, #4194304	@ 0x400000
 8003cac:	2b00      	cmp	r3, #0
 8003cae:	d071      	beq.n	8003d94 <HAL_RCC_GetSysClockFreq+0x17c>
      {
        /* HSE used as PLL clock source */
        pllvco = (uint32_t)((((uint64_t) HSE_VALUE * ((uint64_t)((RCC->PLLCFGR & RCC_PLLCFGR_PLLN) >> RCC_PLLCFGR_PLLN_Pos)))) / (uint64_t)pllm);
 8003cb0:	4bae      	ldr	r3, [pc, #696]	@ (8003f6c <HAL_RCC_GetSysClockFreq+0x354>)
 8003cb2:	685b      	ldr	r3, [r3, #4]
 8003cb4:	099b      	lsrs	r3, r3, #6
 8003cb6:	2200      	movs	r2, #0
 8003cb8:	f8c7 3098 	str.w	r3, [r7, #152]	@ 0x98
 8003cbc:	f8c7 209c 	str.w	r2, [r7, #156]	@ 0x9c
 8003cc0:	f8d7 3098 	ldr.w	r3, [r7, #152]	@ 0x98
 8003cc4:	f3c3 0308 	ubfx	r3, r3, #0, #9
 8003cc8:	f8c7 3090 	str.w	r3, [r7, #144]	@ 0x90
 8003ccc:	2300      	movs	r3, #0
 8003cce:	f8c7 3094 	str.w	r3, [r7, #148]	@ 0x94
 8003cd2:	e9d7 4524 	ldrd	r4, r5, [r7, #144]	@ 0x90
 8003cd6:	4622      	mov	r2, r4
 8003cd8:	462b      	mov	r3, r5
 8003cda:	f04f 0000 	mov.w	r0, #0
 8003cde:	f04f 0100 	mov.w	r1, #0
 8003ce2:	0159      	lsls	r1, r3, #5
 8003ce4:	ea41 61d2 	orr.w	r1, r1, r2, lsr #27
 8003ce8:	0150      	lsls	r0, r2, #5
 8003cea:	4602      	mov	r2, r0
 8003cec:	460b      	mov	r3, r1
 8003cee:	4621      	mov	r1, r4
 8003cf0:	1a51      	subs	r1, r2, r1
 8003cf2:	6439      	str	r1, [r7, #64]	@ 0x40
 8003cf4:	4629      	mov	r1, r5
 8003cf6:	eb63 0301 	sbc.w	r3, r3, r1
 8003cfa:	647b      	str	r3, [r7, #68]	@ 0x44
 8003cfc:	f04f 0200 	mov.w	r2, #0
 8003d00:	f04f 0300 	mov.w	r3, #0
 8003d04:	e9d7 8910 	ldrd	r8, r9, [r7, #64]	@ 0x40
 8003d08:	4649      	mov	r1, r9
 8003d0a:	018b      	lsls	r3, r1, #6
 8003d0c:	4641      	mov	r1, r8
 8003d0e:	ea43 6391 	orr.w	r3, r3, r1, lsr #26
 8003d12:	4641      	mov	r1, r8
 8003d14:	018a      	lsls	r2, r1, #6
 8003d16:	4641      	mov	r1, r8
 8003d18:	1a51      	subs	r1, r2, r1
 8003d1a:	63b9      	str	r1, [r7, #56]	@ 0x38
 8003d1c:	4649      	mov	r1, r9
 8003d1e:	eb63 0301 	sbc.w	r3, r3, r1
 8003d22:	63fb      	str	r3, [r7, #60]	@ 0x3c
 8003d24:	f04f 0200 	mov.w	r2, #0
 8003d28:	f04f 0300 	mov.w	r3, #0
 8003d2c:	e9d7 890e 	ldrd	r8, r9, [r7, #56]	@ 0x38
 8003d30:	4649      	mov	r1, r9
 8003d32:	00cb      	lsls	r3, r1, #3
 8003d34:	4641      	mov	r1, r8
 8003d36:	ea43 7351 	orr.w	r3, r3, r1, lsr #29
 8003d3a:	4641      	mov	r1, r8
 8003d3c:	00ca      	lsls	r2, r1, #3
 8003d3e:	4610      	mov	r0, r2
 8003d40:	4619      	mov	r1, r3
 8003d42:	4603      	mov	r3, r0
 8003d44:	4622      	mov	r2, r4
 8003d46:	189b      	adds	r3, r3, r2
 8003d48:	633b      	str	r3, [r7, #48]	@ 0x30
 8003d4a:	462b      	mov	r3, r5
 8003d4c:	460a      	mov	r2, r1
 8003d4e:	eb42 0303 	adc.w	r3, r2, r3
 8003d52:	637b      	str	r3, [r7, #52]	@ 0x34
 8003d54:	f04f 0200 	mov.w	r2, #0
 8003d58:	f04f 0300 	mov.w	r3, #0
 8003d5c:	e9d7 450c 	ldrd	r4, r5, [r7, #48]	@ 0x30
 8003d60:	4629      	mov	r1, r5
 8003d62:	024b      	lsls	r3, r1, #9
 8003d64:	4621      	mov	r1, r4
 8003d66:	ea43 53d1 	orr.w	r3, r3, r1, lsr #23
 8003d6a:	4621      	mov	r1, r4
 8003d6c:	024a      	lsls	r2, r1, #9
 8003d6e:	4610      	mov	r0, r2
 8003d70:	4619      	mov	r1, r3
 8003d72:	f8d7 30ac 	ldr.w	r3, [r7, #172]	@ 0xac
 8003d76:	2200      	movs	r2, #0
 8003d78:	f8c7 3088 	str.w	r3, [r7, #136]	@ 0x88
 8003d7c:	f8c7 208c 	str.w	r2, [r7, #140]	@ 0x8c
 8003d80:	e9d7 2322 	ldrd	r2, r3, [r7, #136]	@ 0x88
 8003d84:	f7fc ff80 	bl	8000c88 <__aeabi_uldivmod>
 8003d88:	4602      	mov	r2, r0
 8003d8a:	460b      	mov	r3, r1
 8003d8c:	4613      	mov	r3, r2
 8003d8e:	f8c7 30b4 	str.w	r3, [r7, #180]	@ 0xb4
 8003d92:	e067      	b.n	8003e64 <HAL_RCC_GetSysClockFreq+0x24c>
      }
      else
      {
        /* HSI used as PLL clock source */
        pllvco = (uint32_t)((((uint64_t) HSI_VALUE * ((uint64_t)((RCC->PLLCFGR & RCC_PLLCFGR_PLLN) >> RCC_PLLCFGR_PLLN_Pos)))) / (uint64_t)pllm);
 8003d94:	4b75      	ldr	r3, [pc, #468]	@ (8003f6c <HAL_RCC_GetSysClockFreq+0x354>)
 8003d96:	685b      	ldr	r3, [r3, #4]
 8003d98:	099b      	lsrs	r3, r3, #6
 8003d9a:	2200      	movs	r2, #0
 8003d9c:	f8c7 3080 	str.w	r3, [r7, #128]	@ 0x80
 8003da0:	f8c7 2084 	str.w	r2, [r7, #132]	@ 0x84
 8003da4:	f8d7 3080 	ldr.w	r3, [r7, #128]	@ 0x80
 8003da8:	f3c3 0308 	ubfx	r3, r3, #0, #9
 8003dac:	67bb      	str	r3, [r7, #120]	@ 0x78
 8003dae:	2300      	movs	r3, #0
 8003db0:	67fb      	str	r3, [r7, #124]	@ 0x7c
 8003db2:	e9d7 451e 	ldrd	r4, r5, [r7, #120]	@ 0x78
 8003db6:	4622      	mov	r2, r4
 8003db8:	462b      	mov	r3, r5
 8003dba:	f04f 0000 	mov.w	r0, #0
 8003dbe:	f04f 0100 	mov.w	r1, #0
 8003dc2:	0159      	lsls	r1, r3, #5
 8003dc4:	ea41 61d2 	orr.w	r1, r1, r2, lsr #27
 8003dc8:	0150      	lsls	r0, r2, #5
 8003dca:	4602      	mov	r2, r0
 8003dcc:	460b      	mov	r3, r1
 8003dce:	4621      	mov	r1, r4
 8003dd0:	1a51      	subs	r1, r2, r1
 8003dd2:	62b9      	str	r1, [r7, #40]	@ 0x28
 8003dd4:	4629      	mov	r1, r5
 8003dd6:	eb63 0301 	sbc.w	r3, r3, r1
 8003dda:	62fb      	str	r3, [r7, #44]	@ 0x2c
 8003ddc:	f04f 0200 	mov.w	r2, #0
 8003de0:	f04f 0300 	mov.w	r3, #0
 8003de4:	e9d7 890a 	ldrd	r8, r9, [r7, #40]	@ 0x28
 8003de8:	4649      	mov	r1, r9
 8003dea:	018b      	lsls	r3, r1, #6
 8003dec:	4641      	mov	r1, r8
 8003dee:	ea43 6391 	orr.w	r3, r3, r1, lsr #26
 8003df2:	4641      	mov	r1, r8
 8003df4:	018a      	lsls	r2, r1, #6
 8003df6:	4641      	mov	r1, r8
 8003df8:	ebb2 0a01 	subs.w	sl, r2, r1
 8003dfc:	4649      	mov	r1, r9
 8003dfe:	eb63 0b01 	sbc.w	fp, r3, r1
 8003e02:	f04f 0200 	mov.w	r2, #0
 8003e06:	f04f 0300 	mov.w	r3, #0
 8003e0a:	ea4f 03cb 	mov.w	r3, fp, lsl #3
 8003e0e:	ea43 735a 	orr.w	r3, r3, sl, lsr #29
 8003e12:	ea4f 02ca 	mov.w	r2, sl, lsl #3
 8003e16:	4692      	mov	sl, r2
 8003e18:	469b      	mov	fp, r3
 8003e1a:	4623      	mov	r3, r4
 8003e1c:	eb1a 0303 	adds.w	r3, sl, r3
 8003e20:	623b      	str	r3, [r7, #32]
 8003e22:	462b      	mov	r3, r5
 8003e24:	eb4b 0303 	adc.w	r3, fp, r3
 8003e28:	627b      	str	r3, [r7, #36]	@ 0x24
 8003e2a:	f04f 0200 	mov.w	r2, #0
 8003e2e:	f04f 0300 	mov.w	r3, #0
 8003e32:	e9d7 4508 	ldrd	r4, r5, [r7, #32]
 8003e36:	4629      	mov	r1, r5
 8003e38:	028b      	lsls	r3, r1, #10
 8003e3a:	4621      	mov	r1, r4
 8003e3c:	ea43 5391 	orr.w	r3, r3, r1, lsr #22
 8003e40:	4621      	mov	r1, r4
 8003e42:	028a      	lsls	r2, r1, #10
 8003e44:	4610      	mov	r0, r2
 8003e46:	4619      	mov	r1, r3
 8003e48:	f8d7 30ac 	ldr.w	r3, [r7, #172]	@ 0xac
 8003e4c:	2200      	movs	r2, #0
 8003e4e:	673b      	str	r3, [r7, #112]	@ 0x70
 8003e50:	677a      	str	r2, [r7, #116]	@ 0x74
 8003e52:	e9d7 231c 	ldrd	r2, r3, [r7, #112]	@ 0x70
 8003e56:	f7fc ff17 	bl	8000c88 <__aeabi_uldivmod>
 8003e5a:	4602      	mov	r2, r0
 8003e5c:	460b      	mov	r3, r1
 8003e5e:	4613      	mov	r3, r2
 8003e60:	f8c7 30b4 	str.w	r3, [r7, #180]	@ 0xb4
      }
      pllp = ((((RCC->PLLCFGR & RCC_PLLCFGR_PLLP) >> RCC_PLLCFGR_PLLP_Pos) + 1U) * 2U);
 8003e64:	4b41      	ldr	r3, [pc, #260]	@ (8003f6c <HAL_RCC_GetSysClockFreq+0x354>)
 8003e66:	685b      	ldr	r3, [r3, #4]
 8003e68:	0c1b      	lsrs	r3, r3, #16
 8003e6a:	f003 0303 	and.w	r3, r3, #3
 8003e6e:	3301      	adds	r3, #1
 8003e70:	005b      	lsls	r3, r3, #1
 8003e72:	f8c7 30a8 	str.w	r3, [r7, #168]	@ 0xa8

      sysclockfreq = pllvco / pllp;
 8003e76:	f8d7 20b4 	ldr.w	r2, [r7, #180]	@ 0xb4
 8003e7a:	f8d7 30a8 	ldr.w	r3, [r7, #168]	@ 0xa8
 8003e7e:	fbb2 f3f3 	udiv	r3, r2, r3
 8003e82:	f8c7 30b0 	str.w	r3, [r7, #176]	@ 0xb0
      break;
 8003e86:	e0eb      	b.n	8004060 <HAL_RCC_GetSysClockFreq+0x448>
    }
    case RCC_CFGR_SWS_PLLR:  /* PLL/PLLR used as system clock  source */
    {
      /* PLL_VCO = (HSE_VALUE or HSI_VALUE / PLLM) * PLLN
      SYSCLK = PLL_VCO / PLLR */
      pllm = RCC->PLLCFGR & RCC_PLLCFGR_PLLM;
 8003e88:	4b38      	ldr	r3, [pc, #224]	@ (8003f6c <HAL_RCC_GetSysClockFreq+0x354>)
 8003e8a:	685b      	ldr	r3, [r3, #4]
 8003e8c:	f003 033f 	and.w	r3, r3, #63	@ 0x3f
 8003e90:	f8c7 30ac 	str.w	r3, [r7, #172]	@ 0xac
      if (__HAL_RCC_GET_PLL_OSCSOURCE() != RCC_PLLSOURCE_HSI)
 8003e94:	4b35      	ldr	r3, [pc, #212]	@ (8003f6c <HAL_RCC_GetSysClockFreq+0x354>)
 8003e96:	685b      	ldr	r3, [r3, #4]
 8003e98:	f403 0380 	and.w	r3, r3, #4194304	@ 0x400000
 8003e9c:	2b00      	cmp	r3, #0
 8003e9e:	d06b      	beq.n	8003f78 <HAL_RCC_GetSysClockFreq+0x360>
      {
        /* HSE used as PLL clock source */
        pllvco = (uint32_t)((((uint64_t) HSE_VALUE * ((uint64_t)((RCC->PLLCFGR & RCC_PLLCFGR_PLLN) >> RCC_PLLCFGR_PLLN_Pos)))) / (uint64_t)pllm);
 8003ea0:	4b32      	ldr	r3, [pc, #200]	@ (8003f6c <HAL_RCC_GetSysClockFreq+0x354>)
 8003ea2:	685b      	ldr	r3, [r3, #4]
 8003ea4:	099b      	lsrs	r3, r3, #6
 8003ea6:	2200      	movs	r2, #0
 8003ea8:	66bb      	str	r3, [r7, #104]	@ 0x68
 8003eaa:	66fa      	str	r2, [r7, #108]	@ 0x6c
 8003eac:	6ebb      	ldr	r3, [r7, #104]	@ 0x68
 8003eae:	f3c3 0308 	ubfx	r3, r3, #0, #9
 8003eb2:	663b      	str	r3, [r7, #96]	@ 0x60
 8003eb4:	2300      	movs	r3, #0
 8003eb6:	667b      	str	r3, [r7, #100]	@ 0x64
 8003eb8:	e9d7 4518 	ldrd	r4, r5, [r7, #96]	@ 0x60
 8003ebc:	4622      	mov	r2, r4
 8003ebe:	462b      	mov	r3, r5
 8003ec0:	f04f 0000 	mov.w	r0, #0
 8003ec4:	f04f 0100 	mov.w	r1, #0
 8003ec8:	0159      	lsls	r1, r3, #5
 8003eca:	ea41 61d2 	orr.w	r1, r1, r2, lsr #27
 8003ece:	0150      	lsls	r0, r2, #5
 8003ed0:	4602      	mov	r2, r0
 8003ed2:	460b      	mov	r3, r1
 8003ed4:	4621      	mov	r1, r4
 8003ed6:	1a51      	subs	r1, r2, r1
 8003ed8:	61b9      	str	r1, [r7, #24]
 8003eda:	4629      	mov	r1, r5
 8003edc:	eb63 0301 	sbc.w	r3, r3, r1
 8003ee0:	61fb      	str	r3, [r7, #28]
 8003ee2:	f04f 0200 	mov.w	r2, #0
 8003ee6:	f04f 0300 	mov.w	r3, #0
 8003eea:	e9d7 ab06 	ldrd	sl, fp, [r7, #24]
 8003eee:	4659      	mov	r1, fp
 8003ef0:	018b      	lsls	r3, r1, #6
 8003ef2:	4651      	mov	r1, sl
 8003ef4:	ea43 6391 	orr.w	r3, r3, r1, lsr #26
 8003ef8:	4651      	mov	r1, sl
 8003efa:	018a      	lsls	r2, r1, #6
 8003efc:	4651      	mov	r1, sl
 8003efe:	ebb2 0801 	subs.w	r8, r2, r1
 8003f02:	4659      	mov	r1, fp
 8003f04:	eb63 0901 	sbc.w	r9, r3, r1
 8003f08:	f04f 0200 	mov.w	r2, #0
 8003f0c:	f04f 0300 	mov.w	r3, #0
 8003f10:	ea4f 03c9 	mov.w	r3, r9, lsl #3
 8003f14:	ea43 7358 	orr.w	r3, r3, r8, lsr #29
 8003f18:	ea4f 02c8 	mov.w	r2, r8, lsl #3
 8003f1c:	4690      	mov	r8, r2
 8003f1e:	4699      	mov	r9, r3
 8003f20:	4623      	mov	r3, r4
 8003f22:	eb18 0303 	adds.w	r3, r8, r3
 8003f26:	613b      	str	r3, [r7, #16]
 8003f28:	462b      	mov	r3, r5
 8003f2a:	eb49 0303 	adc.w	r3, r9, r3
 8003f2e:	617b      	str	r3, [r7, #20]
 8003f30:	f04f 0200 	mov.w	r2, #0
 8003f34:	f04f 0300 	mov.w	r3, #0
 8003f38:	e9d7 4504 	ldrd	r4, r5, [r7, #16]
 8003f3c:	4629      	mov	r1, r5
 8003f3e:	024b      	lsls	r3, r1, #9
 8003f40:	4621      	mov	r1, r4
 8003f42:	ea43 53d1 	orr.w	r3, r3, r1, lsr #23
 8003f46:	4621      	mov	r1, r4
 8003f48:	024a      	lsls	r2, r1, #9
 8003f4a:	4610      	mov	r0, r2
 8003f4c:	4619      	mov	r1, r3
 8003f4e:	f8d7 30ac 	ldr.w	r3, [r7, #172]	@ 0xac
 8003f52:	2200      	movs	r2, #0
 8003f54:	65bb      	str	r3, [r7, #88]	@ 0x58
 8003f56:	65fa      	str	r2, [r7, #92]	@ 0x5c
 8003f58:	e9d7 2316 	ldrd	r2, r3, [r7, #88]	@ 0x58
 8003f5c:	f7fc fe94 	bl	8000c88 <__aeabi_uldivmod>
 8003f60:	4602      	mov	r2, r0
 8003f62:	460b      	mov	r3, r1
 8003f64:	4613      	mov	r3, r2
 8003f66:	f8c7 30b4 	str.w	r3, [r7, #180]	@ 0xb4
 8003f6a:	e065      	b.n	8004038 <HAL_RCC_GetSysClockFreq+0x420>
 8003f6c:	40023800 	.word	0x40023800
 8003f70:	00f42400 	.word	0x00f42400
 8003f74:	007a1200 	.word	0x007a1200
      }
      else
      {
        /* HSI used as PLL clock source */
        pllvco = (uint32_t)((((uint64_t) HSI_VALUE * ((uint64_t)((RCC->PLLCFGR & RCC_PLLCFGR_PLLN) >> RCC_PLLCFGR_PLLN_Pos)))) / (uint64_t)pllm);
 8003f78:	4b3d      	ldr	r3, [pc, #244]	@ (8004070 <HAL_RCC_GetSysClockFreq+0x458>)
 8003f7a:	685b      	ldr	r3, [r3, #4]
 8003f7c:	099b      	lsrs	r3, r3, #6
 8003f7e:	2200      	movs	r2, #0
 8003f80:	4618      	mov	r0, r3
 8003f82:	4611      	mov	r1, r2
 8003f84:	f3c0 0308 	ubfx	r3, r0, #0, #9
 8003f88:	653b      	str	r3, [r7, #80]	@ 0x50
 8003f8a:	2300      	movs	r3, #0
 8003f8c:	657b      	str	r3, [r7, #84]	@ 0x54
 8003f8e:	e9d7 8914 	ldrd	r8, r9, [r7, #80]	@ 0x50
 8003f92:	4642      	mov	r2, r8
 8003f94:	464b      	mov	r3, r9
 8003f96:	f04f 0000 	mov.w	r0, #0
 8003f9a:	f04f 0100 	mov.w	r1, #0
 8003f9e:	0159      	lsls	r1, r3, #5
 8003fa0:	ea41 61d2 	orr.w	r1, r1, r2, lsr #27
 8003fa4:	0150      	lsls	r0, r2, #5
 8003fa6:	4602      	mov	r2, r0
 8003fa8:	460b      	mov	r3, r1
 8003faa:	4641      	mov	r1, r8
 8003fac:	1a51      	subs	r1, r2, r1
 8003fae:	60b9      	str	r1, [r7, #8]
 8003fb0:	4649      	mov	r1, r9
 8003fb2:	eb63 0301 	sbc.w	r3, r3, r1
 8003fb6:	60fb      	str	r3, [r7, #12]
 8003fb8:	f04f 0200 	mov.w	r2, #0
 8003fbc:	f04f 0300 	mov.w	r3, #0
 8003fc0:	e9d7 ab02 	ldrd	sl, fp, [r7, #8]
 8003fc4:	4659      	mov	r1, fp
 8003fc6:	018b      	lsls	r3, r1, #6
 8003fc8:	4651      	mov	r1, sl
 8003fca:	ea43 6391 	orr.w	r3, r3, r1, lsr #26
 8003fce:	4651      	mov	r1, sl
 8003fd0:	018a      	lsls	r2, r1, #6
 8003fd2:	4651      	mov	r1, sl
 8003fd4:	1a54      	subs	r4, r2, r1
 8003fd6:	4659      	mov	r1, fp
 8003fd8:	eb63 0501 	sbc.w	r5, r3, r1
 8003fdc:	f04f 0200 	mov.w	r2, #0
 8003fe0:	f04f 0300 	mov.w	r3, #0
 8003fe4:	00eb      	lsls	r3, r5, #3
 8003fe6:	ea43 7354 	orr.w	r3, r3, r4, lsr #29
 8003fea:	00e2      	lsls	r2, r4, #3
 8003fec:	4614      	mov	r4, r2
 8003fee:	461d      	mov	r5, r3
 8003ff0:	4643      	mov	r3, r8
 8003ff2:	18e3      	adds	r3, r4, r3
 8003ff4:	603b      	str	r3, [r7, #0]
 8003ff6:	464b      	mov	r3, r9
 8003ff8:	eb45 0303 	adc.w	r3, r5, r3
 8003ffc:	607b      	str	r3, [r7, #4]
 8003ffe:	f04f 0200 	mov.w	r2, #0
 8004002:	f04f 0300 	mov.w	r3, #0
 8004006:	e9d7 4500 	ldrd	r4, r5, [r7]
 800400a:	4629      	mov	r1, r5
 800400c:	028b      	lsls	r3, r1, #10
 800400e:	4621      	mov	r1, r4
 8004010:	ea43 5391 	orr.w	r3, r3, r1, lsr #22
 8004014:	4621      	mov	r1, r4
 8004016:	028a      	lsls	r2, r1, #10
 8004018:	4610      	mov	r0, r2
 800401a:	4619      	mov	r1, r3
 800401c:	f8d7 30ac 	ldr.w	r3, [r7, #172]	@ 0xac
 8004020:	2200      	movs	r2, #0
 8004022:	64bb      	str	r3, [r7, #72]	@ 0x48
 8004024:	64fa      	str	r2, [r7, #76]	@ 0x4c
 8004026:	e9d7 2312 	ldrd	r2, r3, [r7, #72]	@ 0x48
 800402a:	f7fc fe2d 	bl	8000c88 <__aeabi_uldivmod>
 800402e:	4602      	mov	r2, r0
 8004030:	460b      	mov	r3, r1
 8004032:	4613      	mov	r3, r2
 8004034:	f8c7 30b4 	str.w	r3, [r7, #180]	@ 0xb4
      }
      pllr = ((RCC->PLLCFGR & RCC_PLLCFGR_PLLR) >> RCC_PLLCFGR_PLLR_Pos);
 8004038:	4b0d      	ldr	r3, [pc, #52]	@ (8004070 <HAL_RCC_GetSysClockFreq+0x458>)
 800403a:	685b      	ldr	r3, [r3, #4]
 800403c:	0f1b      	lsrs	r3, r3, #28
 800403e:	f003 0307 	and.w	r3, r3, #7
 8004042:	f8c7 30a4 	str.w	r3, [r7, #164]	@ 0xa4

      sysclockfreq = pllvco / pllr;
 8004046:	f8d7 20b4 	ldr.w	r2, [r7, #180]	@ 0xb4
 800404a:	f8d7 30a4 	ldr.w	r3, [r7, #164]	@ 0xa4
 800404e:	fbb2 f3f3 	udiv	r3, r2, r3
 8004052:	f8c7 30b0 	str.w	r3, [r7, #176]	@ 0xb0
      break;
 8004056:	e003      	b.n	8004060 <HAL_RCC_GetSysClockFreq+0x448>
    }
    default:
    {
      sysclockfreq = HSI_VALUE;
 8004058:	4b06      	ldr	r3, [pc, #24]	@ (8004074 <HAL_RCC_GetSysClockFreq+0x45c>)
 800405a:	f8c7 30b0 	str.w	r3, [r7, #176]	@ 0xb0
      break;
 800405e:	bf00      	nop
    }
  }
  return sysclockfreq;
 8004060:	f8d7 30b0 	ldr.w	r3, [r7, #176]	@ 0xb0
}
 8004064:	4618      	mov	r0, r3
 8004066:	37b8      	adds	r7, #184	@ 0xb8
 8004068:	46bd      	mov	sp, r7
 800406a:	e8bd 8fb0 	ldmia.w	sp!, {r4, r5, r7, r8, r9, sl, fp, pc}
 800406e:	bf00      	nop
 8004070:	40023800 	.word	0x40023800
 8004074:	00f42400 	.word	0x00f42400

08004078 <HAL_RCC_OscConfig>:
  * @note   This function add the PLL/PLLR factor management during PLL configuration this feature
  *         is only available in STM32F410xx/STM32F446xx/STM32F469xx/STM32F479xx/STM32F412Zx/STM32F412Vx/STM32F412Rx/STM32F412Cx devices
  * @retval HAL status
  */
HAL_StatusTypeDef HAL_RCC_OscConfig(RCC_OscInitTypeDef  *RCC_OscInitStruct)
{
 8004078:	b580      	push	{r7, lr}
 800407a:	b086      	sub	sp, #24
 800407c:	af00      	add	r7, sp, #0
 800407e:	6078      	str	r0, [r7, #4]
  uint32_t tickstart;
  uint32_t pll_config;

  /* Check Null pointer */
  if (RCC_OscInitStruct == NULL)
 8004080:	687b      	ldr	r3, [r7, #4]
 8004082:	2b00      	cmp	r3, #0
 8004084:	d101      	bne.n	800408a <HAL_RCC_OscConfig+0x12>
  {
    return HAL_ERROR;
 8004086:	2301      	movs	r3, #1
 8004088:	e28d      	b.n	80045a6 <HAL_RCC_OscConfig+0x52e>
  }

  /* Check the parameters */
  assert_param(IS_RCC_OSCILLATORTYPE(RCC_OscInitStruct->OscillatorType));
  /*------------------------------- HSE Configuration ------------------------*/
  if (((RCC_OscInitStruct->OscillatorType) & RCC_OSCILLATORTYPE_HSE) == RCC_OSCILLATORTYPE_HSE)
 800408a:	687b      	ldr	r3, [r7, #4]
 800408c:	681b      	ldr	r3, [r3, #0]
 800408e:	f003 0301 	and.w	r3, r3, #1
 8004092:	2b00      	cmp	r3, #0
 8004094:	f000 8083 	beq.w	800419e <HAL_RCC_OscConfig+0x126>
  {
    /* Check the parameters */
    assert_param(IS_RCC_HSE(RCC_OscInitStruct->HSEState));
    /* When the HSE is used as system clock or clock source for PLL in these cases HSE will not disabled */
#if defined(STM32F446xx)
    if ((__HAL_RCC_GET_SYSCLK_SOURCE() == RCC_CFGR_SWS_HSE)
 8004098:	4b94      	ldr	r3, [pc, #592]	@ (80042ec <HAL_RCC_OscConfig+0x274>)
 800409a:	689b      	ldr	r3, [r3, #8]
 800409c:	f003 030c 	and.w	r3, r3, #12
 80040a0:	2b04      	cmp	r3, #4
 80040a2:	d019      	beq.n	80040d8 <HAL_RCC_OscConfig+0x60>
        || \
        ((__HAL_RCC_GET_SYSCLK_SOURCE() == RCC_CFGR_SWS_PLL) && ((RCC->PLLCFGR & RCC_PLLCFGR_PLLSRC) == RCC_PLLCFGR_PLLSRC_HSE)) || \
 80040a4:	4b91      	ldr	r3, [pc, #580]	@ (80042ec <HAL_RCC_OscConfig+0x274>)
 80040a6:	689b      	ldr	r3, [r3, #8]
 80040a8:	f003 030c 	and.w	r3, r3, #12
        || \
 80040ac:	2b08      	cmp	r3, #8
 80040ae:	d106      	bne.n	80040be <HAL_RCC_OscConfig+0x46>
        ((__HAL_RCC_GET_SYSCLK_SOURCE() == RCC_CFGR_SWS_PLL) && ((RCC->PLLCFGR & RCC_PLLCFGR_PLLSRC) == RCC_PLLCFGR_PLLSRC_HSE)) || \
 80040b0:	4b8e      	ldr	r3, [pc, #568]	@ (80042ec <HAL_RCC_OscConfig+0x274>)
 80040b2:	685b      	ldr	r3, [r3, #4]
 80040b4:	f403 0380 	and.w	r3, r3, #4194304	@ 0x400000
 80040b8:	f5b3 0f80 	cmp.w	r3, #4194304	@ 0x400000
 80040bc:	d00c      	beq.n	80040d8 <HAL_RCC_OscConfig+0x60>
        ((__HAL_RCC_GET_SYSCLK_SOURCE() == RCC_CFGR_SWS_PLLR) && ((RCC->PLLCFGR & RCC_PLLCFGR_PLLSRC) == RCC_PLLCFGR_PLLSRC_HSE)))
 80040be:	4b8b      	ldr	r3, [pc, #556]	@ (80042ec <HAL_RCC_OscConfig+0x274>)
 80040c0:	689b      	ldr	r3, [r3, #8]
 80040c2:	f003 030c 	and.w	r3, r3, #12
        ((__HAL_RCC_GET_SYSCLK_SOURCE() == RCC_CFGR_SWS_PLL) && ((RCC->PLLCFGR & RCC_PLLCFGR_PLLSRC) == RCC_PLLCFGR_PLLSRC_HSE)) || \
 80040c6:	2b0c      	cmp	r3, #12
 80040c8:	d112      	bne.n	80040f0 <HAL_RCC_OscConfig+0x78>
        ((__HAL_RCC_GET_SYSCLK_SOURCE() == RCC_CFGR_SWS_PLLR) && ((RCC->PLLCFGR & RCC_PLLCFGR_PLLSRC) == RCC_PLLCFGR_PLLSRC_HSE)))
 80040ca:	4b88      	ldr	r3, [pc, #544]	@ (80042ec <HAL_RCC_OscConfig+0x274>)
 80040cc:	685b      	ldr	r3, [r3, #4]
 80040ce:	f403 0380 	and.w	r3, r3, #4194304	@ 0x400000
 80040d2:	f5b3 0f80 	cmp.w	r3, #4194304	@ 0x400000
 80040d6:	d10b      	bne.n	80040f0 <HAL_RCC_OscConfig+0x78>
    if ((__HAL_RCC_GET_SYSCLK_SOURCE() == RCC_CFGR_SWS_HSE)
        || \
        ((__HAL_RCC_GET_SYSCLK_SOURCE() == RCC_CFGR_SWS_PLL) && ((RCC->PLLCFGR & RCC_PLLCFGR_PLLSRC) == RCC_PLLCFGR_PLLSRC_HSE)))
#endif /* STM32F446xx */
    {
      if ((__HAL_RCC_GET_FLAG(RCC_FLAG_HSERDY) != RESET) && (RCC_OscInitStruct->HSEState == RCC_HSE_OFF))
 80040d8:	4b84      	ldr	r3, [pc, #528]	@ (80042ec <HAL_RCC_OscConfig+0x274>)
 80040da:	681b      	ldr	r3, [r3, #0]
 80040dc:	f403 3300 	and.w	r3, r3, #131072	@ 0x20000
 80040e0:	2b00      	cmp	r3, #0
 80040e2:	d05b      	beq.n	800419c <HAL_RCC_OscConfig+0x124>
 80040e4:	687b      	ldr	r3, [r7, #4]
 80040e6:	685b      	ldr	r3, [r3, #4]
 80040e8:	2b00      	cmp	r3, #0
 80040ea:	d157      	bne.n	800419c <HAL_RCC_OscConfig+0x124>
      {
        return HAL_ERROR;
 80040ec:	2301      	movs	r3, #1
 80040ee:	e25a      	b.n	80045a6 <HAL_RCC_OscConfig+0x52e>
      }
    }
    else
    {
      /* Set the new HSE configuration ---------------------------------------*/
      __HAL_RCC_HSE_CONFIG(RCC_OscInitStruct->HSEState);
 80040f0:	687b      	ldr	r3, [r7, #4]
 80040f2:	685b      	ldr	r3, [r3, #4]
 80040f4:	f5b3 3f80 	cmp.w	r3, #65536	@ 0x10000
 80040f8:	d106      	bne.n	8004108 <HAL_RCC_OscConfig+0x90>
 80040fa:	4b7c      	ldr	r3, [pc, #496]	@ (80042ec <HAL_RCC_OscConfig+0x274>)
 80040fc:	681b      	ldr	r3, [r3, #0]
 80040fe:	4a7b      	ldr	r2, [pc, #492]	@ (80042ec <HAL_RCC_OscConfig+0x274>)
 8004100:	f443 3380 	orr.w	r3, r3, #65536	@ 0x10000
 8004104:	6013      	str	r3, [r2, #0]
 8004106:	e01d      	b.n	8004144 <HAL_RCC_OscConfig+0xcc>
 8004108:	687b      	ldr	r3, [r7, #4]
 800410a:	685b      	ldr	r3, [r3, #4]
 800410c:	f5b3 2fa0 	cmp.w	r3, #327680	@ 0x50000
 8004110:	d10c      	bne.n	800412c <HAL_RCC_OscConfig+0xb4>
 8004112:	4b76      	ldr	r3, [pc, #472]	@ (80042ec <HAL_RCC_OscConfig+0x274>)
 8004114:	681b      	ldr	r3, [r3, #0]
 8004116:	4a75      	ldr	r2, [pc, #468]	@ (80042ec <HAL_RCC_OscConfig+0x274>)
 8004118:	f443 2380 	orr.w	r3, r3, #262144	@ 0x40000
 800411c:	6013      	str	r3, [r2, #0]
 800411e:	4b73      	ldr	r3, [pc, #460]	@ (80042ec <HAL_RCC_OscConfig+0x274>)
 8004120:	681b      	ldr	r3, [r3, #0]
 8004122:	4a72      	ldr	r2, [pc, #456]	@ (80042ec <HAL_RCC_OscConfig+0x274>)
 8004124:	f443 3380 	orr.w	r3, r3, #65536	@ 0x10000
 8004128:	6013      	str	r3, [r2, #0]
 800412a:	e00b      	b.n	8004144 <HAL_RCC_OscConfig+0xcc>
 800412c:	4b6f      	ldr	r3, [pc, #444]	@ (80042ec <HAL_RCC_OscConfig+0x274>)
 800412e:	681b      	ldr	r3, [r3, #0]
 8004130:	4a6e      	ldr	r2, [pc, #440]	@ (80042ec <HAL_RCC_OscConfig+0x274>)
 8004132:	f423 3380 	bic.w	r3, r3, #65536	@ 0x10000
 8004136:	6013      	str	r3, [r2, #0]
 8004138:	4b6c      	ldr	r3, [pc, #432]	@ (80042ec <HAL_RCC_OscConfig+0x274>)
 800413a:	681b      	ldr	r3, [r3, #0]
 800413c:	4a6b      	ldr	r2, [pc, #428]	@ (80042ec <HAL_RCC_OscConfig+0x274>)
 800413e:	f423 2380 	bic.w	r3, r3, #262144	@ 0x40000
 8004142:	6013      	str	r3, [r2, #0]

      /* Check the HSE State */
      if ((RCC_OscInitStruct->HSEState) != RCC_HSE_OFF)
 8004144:	687b      	ldr	r3, [r7, #4]
 8004146:	685b      	ldr	r3, [r3, #4]
 8004148:	2b00      	cmp	r3, #0
 800414a:	d013      	beq.n	8004174 <HAL_RCC_OscConfig+0xfc>
      {
        /* Get Start Tick*/
        tickstart = HAL_GetTick();
 800414c:	f7fe ff18 	bl	8002f80 <HAL_GetTick>
 8004150:	6138      	str	r0, [r7, #16]

        /* Wait till HSE is ready */
        while (__HAL_RCC_GET_FLAG(RCC_FLAG_HSERDY) == RESET)
 8004152:	e008      	b.n	8004166 <HAL_RCC_OscConfig+0xee>
        {
          if ((HAL_GetTick() - tickstart) > HSE_TIMEOUT_VALUE)
 8004154:	f7fe ff14 	bl	8002f80 <HAL_GetTick>
 8004158:	4602      	mov	r2, r0
 800415a:	693b      	ldr	r3, [r7, #16]
 800415c:	1ad3      	subs	r3, r2, r3
 800415e:	2b64      	cmp	r3, #100	@ 0x64
 8004160:	d901      	bls.n	8004166 <HAL_RCC_OscConfig+0xee>
          {
            return HAL_TIMEOUT;
 8004162:	2303      	movs	r3, #3
 8004164:	e21f      	b.n	80045a6 <HAL_RCC_OscConfig+0x52e>
        while (__HAL_RCC_GET_FLAG(RCC_FLAG_HSERDY) == RESET)
 8004166:	4b61      	ldr	r3, [pc, #388]	@ (80042ec <HAL_RCC_OscConfig+0x274>)
 8004168:	681b      	ldr	r3, [r3, #0]
 800416a:	f403 3300 	and.w	r3, r3, #131072	@ 0x20000
 800416e:	2b00      	cmp	r3, #0
 8004170:	d0f0      	beq.n	8004154 <HAL_RCC_OscConfig+0xdc>
 8004172:	e014      	b.n	800419e <HAL_RCC_OscConfig+0x126>
        }
      }
      else
      {
        /* Get Start Tick*/
        tickstart = HAL_GetTick();
 8004174:	f7fe ff04 	bl	8002f80 <HAL_GetTick>
 8004178:	6138      	str	r0, [r7, #16]

        /* Wait till HSE is bypassed or disabled */
        while (__HAL_RCC_GET_FLAG(RCC_FLAG_HSERDY) != RESET)
 800417a:	e008      	b.n	800418e <HAL_RCC_OscConfig+0x116>
        {
          if ((HAL_GetTick() - tickstart) > HSE_TIMEOUT_VALUE)
 800417c:	f7fe ff00 	bl	8002f80 <HAL_GetTick>
 8004180:	4602      	mov	r2, r0
 8004182:	693b      	ldr	r3, [r7, #16]
 8004184:	1ad3      	subs	r3, r2, r3
 8004186:	2b64      	cmp	r3, #100	@ 0x64
 8004188:	d901      	bls.n	800418e <HAL_RCC_OscConfig+0x116>
          {
            return HAL_TIMEOUT;
 800418a:	2303      	movs	r3, #3
 800418c:	e20b      	b.n	80045a6 <HAL_RCC_OscConfig+0x52e>
        while (__HAL_RCC_GET_FLAG(RCC_FLAG_HSERDY) != RESET)
 800418e:	4b57      	ldr	r3, [pc, #348]	@ (80042ec <HAL_RCC_OscConfig+0x274>)
 8004190:	681b      	ldr	r3, [r3, #0]
 8004192:	f403 3300 	and.w	r3, r3, #131072	@ 0x20000
 8004196:	2b00      	cmp	r3, #0
 8004198:	d1f0      	bne.n	800417c <HAL_RCC_OscConfig+0x104>
 800419a:	e000      	b.n	800419e <HAL_RCC_OscConfig+0x126>
      if ((__HAL_RCC_GET_FLAG(RCC_FLAG_HSERDY) != RESET) && (RCC_OscInitStruct->HSEState == RCC_HSE_OFF))
 800419c:	bf00      	nop
        }
      }
    }
  }
  /*----------------------------- HSI Configuration --------------------------*/
  if (((RCC_OscInitStruct->OscillatorType) & RCC_OSCILLATORTYPE_HSI) == RCC_OSCILLATORTYPE_HSI)
 800419e:	687b      	ldr	r3, [r7, #4]
 80041a0:	681b      	ldr	r3, [r3, #0]
 80041a2:	f003 0302 	and.w	r3, r3, #2
 80041a6:	2b00      	cmp	r3, #0
 80041a8:	d06f      	beq.n	800428a <HAL_RCC_OscConfig+0x212>
    assert_param(IS_RCC_HSI(RCC_OscInitStruct->HSIState));
    assert_param(IS_RCC_CALIBRATION_VALUE(RCC_OscInitStruct->HSICalibrationValue));

    /* Check if HSI is used as system clock or as PLL source when PLL is selected as system clock */
#if defined(STM32F446xx)
    if ((__HAL_RCC_GET_SYSCLK_SOURCE() == RCC_CFGR_SWS_HSI)
 80041aa:	4b50      	ldr	r3, [pc, #320]	@ (80042ec <HAL_RCC_OscConfig+0x274>)
 80041ac:	689b      	ldr	r3, [r3, #8]
 80041ae:	f003 030c 	and.w	r3, r3, #12
 80041b2:	2b00      	cmp	r3, #0
 80041b4:	d017      	beq.n	80041e6 <HAL_RCC_OscConfig+0x16e>
        || \
        ((__HAL_RCC_GET_SYSCLK_SOURCE() == RCC_CFGR_SWS_PLL) && ((RCC->PLLCFGR & RCC_PLLCFGR_PLLSRC) == RCC_PLLCFGR_PLLSRC_HSI)) || \
 80041b6:	4b4d      	ldr	r3, [pc, #308]	@ (80042ec <HAL_RCC_OscConfig+0x274>)
 80041b8:	689b      	ldr	r3, [r3, #8]
 80041ba:	f003 030c 	and.w	r3, r3, #12
        || \
 80041be:	2b08      	cmp	r3, #8
 80041c0:	d105      	bne.n	80041ce <HAL_RCC_OscConfig+0x156>
        ((__HAL_RCC_GET_SYSCLK_SOURCE() == RCC_CFGR_SWS_PLL) && ((RCC->PLLCFGR & RCC_PLLCFGR_PLLSRC) == RCC_PLLCFGR_PLLSRC_HSI)) || \
 80041c2:	4b4a      	ldr	r3, [pc, #296]	@ (80042ec <HAL_RCC_OscConfig+0x274>)
 80041c4:	685b      	ldr	r3, [r3, #4]
 80041c6:	f403 0380 	and.w	r3, r3, #4194304	@ 0x400000
 80041ca:	2b00      	cmp	r3, #0
 80041cc:	d00b      	beq.n	80041e6 <HAL_RCC_OscConfig+0x16e>
        ((__HAL_RCC_GET_SYSCLK_SOURCE() == RCC_CFGR_SWS_PLLR) && ((RCC->PLLCFGR & RCC_PLLCFGR_PLLSRC) == RCC_PLLCFGR_PLLSRC_HSI)))
 80041ce:	4b47      	ldr	r3, [pc, #284]	@ (80042ec <HAL_RCC_OscConfig+0x274>)
 80041d0:	689b      	ldr	r3, [r3, #8]
 80041d2:	f003 030c 	and.w	r3, r3, #12
        ((__HAL_RCC_GET_SYSCLK_SOURCE() == RCC_CFGR_SWS_PLL) && ((RCC->PLLCFGR & RCC_PLLCFGR_PLLSRC) == RCC_PLLCFGR_PLLSRC_HSI)) || \
 80041d6:	2b0c      	cmp	r3, #12
 80041d8:	d11c      	bne.n	8004214 <HAL_RCC_OscConfig+0x19c>
        ((__HAL_RCC_GET_SYSCLK_SOURCE() == RCC_CFGR_SWS_PLLR) && ((RCC->PLLCFGR & RCC_PLLCFGR_PLLSRC) == RCC_PLLCFGR_PLLSRC_HSI)))
 80041da:	4b44      	ldr	r3, [pc, #272]	@ (80042ec <HAL_RCC_OscConfig+0x274>)
 80041dc:	685b      	ldr	r3, [r3, #4]
 80041de:	f403 0380 	and.w	r3, r3, #4194304	@ 0x400000
 80041e2:	2b00      	cmp	r3, #0
 80041e4:	d116      	bne.n	8004214 <HAL_RCC_OscConfig+0x19c>
        || \
        ((__HAL_RCC_GET_SYSCLK_SOURCE() == RCC_CFGR_SWS_PLL) && ((RCC->PLLCFGR & RCC_PLLCFGR_PLLSRC) == RCC_PLLCFGR_PLLSRC_HSI)))
#endif /* STM32F446xx */
    {
      /* When HSI is used as system clock it will not disabled */
      if ((__HAL_RCC_GET_FLAG(RCC_FLAG_HSIRDY) != RESET) && (RCC_OscInitStruct->HSIState != RCC_HSI_ON))
 80041e6:	4b41      	ldr	r3, [pc, #260]	@ (80042ec <HAL_RCC_OscConfig+0x274>)
 80041e8:	681b      	ldr	r3, [r3, #0]
 80041ea:	f003 0302 	and.w	r3, r3, #2
 80041ee:	2b00      	cmp	r3, #0
 80041f0:	d005      	beq.n	80041fe <HAL_RCC_OscConfig+0x186>
 80041f2:	687b      	ldr	r3, [r7, #4]
 80041f4:	68db      	ldr	r3, [r3, #12]
 80041f6:	2b01      	cmp	r3, #1
 80041f8:	d001      	beq.n	80041fe <HAL_RCC_OscConfig+0x186>
      {
        return HAL_ERROR;
 80041fa:	2301      	movs	r3, #1
 80041fc:	e1d3      	b.n	80045a6 <HAL_RCC_OscConfig+0x52e>
      }
      /* Otherwise, just the calibration is allowed */
      else
      {
        /* Adjusts the Internal High Speed oscillator (HSI) calibration value.*/
        __HAL_RCC_HSI_CALIBRATIONVALUE_ADJUST(RCC_OscInitStruct->HSICalibrationValue);
 80041fe:	4b3b      	ldr	r3, [pc, #236]	@ (80042ec <HAL_RCC_OscConfig+0x274>)
 8004200:	681b      	ldr	r3, [r3, #0]
 8004202:	f023 02f8 	bic.w	r2, r3, #248	@ 0xf8
 8004206:	687b      	ldr	r3, [r7, #4]
 8004208:	691b      	ldr	r3, [r3, #16]
 800420a:	00db      	lsls	r3, r3, #3
 800420c:	4937      	ldr	r1, [pc, #220]	@ (80042ec <HAL_RCC_OscConfig+0x274>)
 800420e:	4313      	orrs	r3, r2
 8004210:	600b      	str	r3, [r1, #0]
      if ((__HAL_RCC_GET_FLAG(RCC_FLAG_HSIRDY) != RESET) && (RCC_OscInitStruct->HSIState != RCC_HSI_ON))
 8004212:	e03a      	b.n	800428a <HAL_RCC_OscConfig+0x212>
      }
    }
    else
    {
      /* Check the HSI State */
      if ((RCC_OscInitStruct->HSIState) != RCC_HSI_OFF)
 8004214:	687b      	ldr	r3, [r7, #4]
 8004216:	68db      	ldr	r3, [r3, #12]
 8004218:	2b00      	cmp	r3, #0
 800421a:	d020      	beq.n	800425e <HAL_RCC_OscConfig+0x1e6>
      {
        /* Enable the Internal High Speed oscillator (HSI). */
        __HAL_RCC_HSI_ENABLE();
 800421c:	4b34      	ldr	r3, [pc, #208]	@ (80042f0 <HAL_RCC_OscConfig+0x278>)
 800421e:	2201      	movs	r2, #1
 8004220:	601a      	str	r2, [r3, #0]

        /* Get Start Tick*/
        tickstart = HAL_GetTick();
 8004222:	f7fe fead 	bl	8002f80 <HAL_GetTick>
 8004226:	6138      	str	r0, [r7, #16]

        /* Wait till HSI is ready */
        while (__HAL_RCC_GET_FLAG(RCC_FLAG_HSIRDY) == RESET)
 8004228:	e008      	b.n	800423c <HAL_RCC_OscConfig+0x1c4>
        {
          if ((HAL_GetTick() - tickstart) > HSI_TIMEOUT_VALUE)
 800422a:	f7fe fea9 	bl	8002f80 <HAL_GetTick>
 800422e:	4602      	mov	r2, r0
 8004230:	693b      	ldr	r3, [r7, #16]
 8004232:	1ad3      	subs	r3, r2, r3
 8004234:	2b02      	cmp	r3, #2
 8004236:	d901      	bls.n	800423c <HAL_RCC_OscConfig+0x1c4>
          {
            return HAL_TIMEOUT;
 8004238:	2303      	movs	r3, #3
 800423a:	e1b4      	b.n	80045a6 <HAL_RCC_OscConfig+0x52e>
        while (__HAL_RCC_GET_FLAG(RCC_FLAG_HSIRDY) == RESET)
 800423c:	4b2b      	ldr	r3, [pc, #172]	@ (80042ec <HAL_RCC_OscConfig+0x274>)
 800423e:	681b      	ldr	r3, [r3, #0]
 8004240:	f003 0302 	and.w	r3, r3, #2
 8004244:	2b00      	cmp	r3, #0
 8004246:	d0f0      	beq.n	800422a <HAL_RCC_OscConfig+0x1b2>
          }
        }

        /* Adjusts the Internal High Speed oscillator (HSI) calibration value.*/
        __HAL_RCC_HSI_CALIBRATIONVALUE_ADJUST(RCC_OscInitStruct->HSICalibrationValue);
 8004248:	4b28      	ldr	r3, [pc, #160]	@ (80042ec <HAL_RCC_OscConfig+0x274>)
 800424a:	681b      	ldr	r3, [r3, #0]
 800424c:	f023 02f8 	bic.w	r2, r3, #248	@ 0xf8
 8004250:	687b      	ldr	r3, [r7, #4]
 8004252:	691b      	ldr	r3, [r3, #16]
 8004254:	00db      	lsls	r3, r3, #3
 8004256:	4925      	ldr	r1, [pc, #148]	@ (80042ec <HAL_RCC_OscConfig+0x274>)
 8004258:	4313      	orrs	r3, r2
 800425a:	600b      	str	r3, [r1, #0]
 800425c:	e015      	b.n	800428a <HAL_RCC_OscConfig+0x212>
      }
      else
      {
        /* Disable the Internal High Speed oscillator (HSI). */
        __HAL_RCC_HSI_DISABLE();
 800425e:	4b24      	ldr	r3, [pc, #144]	@ (80042f0 <HAL_RCC_OscConfig+0x278>)
 8004260:	2200      	movs	r2, #0
 8004262:	601a      	str	r2, [r3, #0]

        /* Get Start Tick*/
        tickstart = HAL_GetTick();
 8004264:	f7fe fe8c 	bl	8002f80 <HAL_GetTick>
 8004268:	6138      	str	r0, [r7, #16]

        /* Wait till HSI is ready */
        while (__HAL_RCC_GET_FLAG(RCC_FLAG_HSIRDY) != RESET)
 800426a:	e008      	b.n	800427e <HAL_RCC_OscConfig+0x206>
        {
          if ((HAL_GetTick() - tickstart) > HSI_TIMEOUT_VALUE)
 800426c:	f7fe fe88 	bl	8002f80 <HAL_GetTick>
 8004270:	4602      	mov	r2, r0
 8004272:	693b      	ldr	r3, [r7, #16]
 8004274:	1ad3      	subs	r3, r2, r3
 8004276:	2b02      	cmp	r3, #2
 8004278:	d901      	bls.n	800427e <HAL_RCC_OscConfig+0x206>
          {
            return HAL_TIMEOUT;
 800427a:	2303      	movs	r3, #3
 800427c:	e193      	b.n	80045a6 <HAL_RCC_OscConfig+0x52e>
        while (__HAL_RCC_GET_FLAG(RCC_FLAG_HSIRDY) != RESET)
 800427e:	4b1b      	ldr	r3, [pc, #108]	@ (80042ec <HAL_RCC_OscConfig+0x274>)
 8004280:	681b      	ldr	r3, [r3, #0]
 8004282:	f003 0302 	and.w	r3, r3, #2
 8004286:	2b00      	cmp	r3, #0
 8004288:	d1f0      	bne.n	800426c <HAL_RCC_OscConfig+0x1f4>
        }
      }
    }
  }
  /*------------------------------ LSI Configuration -------------------------*/
  if (((RCC_OscInitStruct->OscillatorType) & RCC_OSCILLATORTYPE_LSI) == RCC_OSCILLATORTYPE_LSI)
 800428a:	687b      	ldr	r3, [r7, #4]
 800428c:	681b      	ldr	r3, [r3, #0]
 800428e:	f003 0308 	and.w	r3, r3, #8
 8004292:	2b00      	cmp	r3, #0
 8004294:	d036      	beq.n	8004304 <HAL_RCC_OscConfig+0x28c>
  {
    /* Check the parameters */
    assert_param(IS_RCC_LSI(RCC_OscInitStruct->LSIState));

    /* Check the LSI State */
    if ((RCC_OscInitStruct->LSIState) != RCC_LSI_OFF)
 8004296:	687b      	ldr	r3, [r7, #4]
 8004298:	695b      	ldr	r3, [r3, #20]
 800429a:	2b00      	cmp	r3, #0
 800429c:	d016      	beq.n	80042cc <HAL_RCC_OscConfig+0x254>
    {
      /* Enable the Internal Low Speed oscillator (LSI). */
      __HAL_RCC_LSI_ENABLE();
 800429e:	4b15      	ldr	r3, [pc, #84]	@ (80042f4 <HAL_RCC_OscConfig+0x27c>)
 80042a0:	2201      	movs	r2, #1
 80042a2:	601a      	str	r2, [r3, #0]

      /* Get Start Tick*/
      tickstart = HAL_GetTick();
 80042a4:	f7fe fe6c 	bl	8002f80 <HAL_GetTick>
 80042a8:	6138      	str	r0, [r7, #16]

      /* Wait till LSI is ready */
      while (__HAL_RCC_GET_FLAG(RCC_FLAG_LSIRDY) == RESET)
 80042aa:	e008      	b.n	80042be <HAL_RCC_OscConfig+0x246>
      {
        if ((HAL_GetTick() - tickstart) > LSI_TIMEOUT_VALUE)
 80042ac:	f7fe fe68 	bl	8002f80 <HAL_GetTick>
 80042b0:	4602      	mov	r2, r0
 80042b2:	693b      	ldr	r3, [r7, #16]
 80042b4:	1ad3      	subs	r3, r2, r3
 80042b6:	2b02      	cmp	r3, #2
 80042b8:	d901      	bls.n	80042be <HAL_RCC_OscConfig+0x246>
        {
          return HAL_TIMEOUT;
 80042ba:	2303      	movs	r3, #3
 80042bc:	e173      	b.n	80045a6 <HAL_RCC_OscConfig+0x52e>
      while (__HAL_RCC_GET_FLAG(RCC_FLAG_LSIRDY) == RESET)
 80042be:	4b0b      	ldr	r3, [pc, #44]	@ (80042ec <HAL_RCC_OscConfig+0x274>)
 80042c0:	6f5b      	ldr	r3, [r3, #116]	@ 0x74
 80042c2:	f003 0302 	and.w	r3, r3, #2
 80042c6:	2b00      	cmp	r3, #0
 80042c8:	d0f0      	beq.n	80042ac <HAL_RCC_OscConfig+0x234>
 80042ca:	e01b      	b.n	8004304 <HAL_RCC_OscConfig+0x28c>
      }
    }
    else
    {
      /* Disable the Internal Low Speed oscillator (LSI). */
      __HAL_RCC_LSI_DISABLE();
 80042cc:	4b09      	ldr	r3, [pc, #36]	@ (80042f4 <HAL_RCC_OscConfig+0x27c>)
 80042ce:	2200      	movs	r2, #0
 80042d0:	601a      	str	r2, [r3, #0]

      /* Get Start Tick*/
      tickstart = HAL_GetTick();
 80042d2:	f7fe fe55 	bl	8002f80 <HAL_GetTick>
 80042d6:	6138      	str	r0, [r7, #16]

      /* Wait till LSI is ready */
      while (__HAL_RCC_GET_FLAG(RCC_FLAG_LSIRDY) != RESET)
 80042d8:	e00e      	b.n	80042f8 <HAL_RCC_OscConfig+0x280>
      {
        if ((HAL_GetTick() - tickstart) > LSI_TIMEOUT_VALUE)
 80042da:	f7fe fe51 	bl	8002f80 <HAL_GetTick>
 80042de:	4602      	mov	r2, r0
 80042e0:	693b      	ldr	r3, [r7, #16]
 80042e2:	1ad3      	subs	r3, r2, r3
 80042e4:	2b02      	cmp	r3, #2
 80042e6:	d907      	bls.n	80042f8 <HAL_RCC_OscConfig+0x280>
        {
          return HAL_TIMEOUT;
 80042e8:	2303      	movs	r3, #3
 80042ea:	e15c      	b.n	80045a6 <HAL_RCC_OscConfig+0x52e>
 80042ec:	40023800 	.word	0x40023800
 80042f0:	42470000 	.word	0x42470000
 80042f4:	42470e80 	.word	0x42470e80
      while (__HAL_RCC_GET_FLAG(RCC_FLAG_LSIRDY) != RESET)
 80042f8:	4b8a      	ldr	r3, [pc, #552]	@ (8004524 <HAL_RCC_OscConfig+0x4ac>)
 80042fa:	6f5b      	ldr	r3, [r3, #116]	@ 0x74
 80042fc:	f003 0302 	and.w	r3, r3, #2
 8004300:	2b00      	cmp	r3, #0
 8004302:	d1ea      	bne.n	80042da <HAL_RCC_OscConfig+0x262>
        }
      }
    }
  }
  /*------------------------------ LSE Configuration -------------------------*/
  if (((RCC_OscInitStruct->OscillatorType) & RCC_OSCILLATORTYPE_LSE) == RCC_OSCILLATORTYPE_LSE)
 8004304:	687b      	ldr	r3, [r7, #4]
 8004306:	681b      	ldr	r3, [r3, #0]
 8004308:	f003 0304 	and.w	r3, r3, #4
 800430c:	2b00      	cmp	r3, #0
 800430e:	f000 8097 	beq.w	8004440 <HAL_RCC_OscConfig+0x3c8>
  {
    FlagStatus       pwrclkchanged = RESET;
 8004312:	2300      	movs	r3, #0
 8004314:	75fb      	strb	r3, [r7, #23]
    /* Check the parameters */
    assert_param(IS_RCC_LSE(RCC_OscInitStruct->LSEState));

    /* Update LSE configuration in Backup Domain control register    */
    /* Requires to enable write access to Backup Domain of necessary */
    if (__HAL_RCC_PWR_IS_CLK_DISABLED())
 8004316:	4b83      	ldr	r3, [pc, #524]	@ (8004524 <HAL_RCC_OscConfig+0x4ac>)
 8004318:	6c1b      	ldr	r3, [r3, #64]	@ 0x40
 800431a:	f003 5380 	and.w	r3, r3, #268435456	@ 0x10000000
 800431e:	2b00      	cmp	r3, #0
 8004320:	d10f      	bne.n	8004342 <HAL_RCC_OscConfig+0x2ca>
    {
      __HAL_RCC_PWR_CLK_ENABLE();
 8004322:	2300      	movs	r3, #0
 8004324:	60bb      	str	r3, [r7, #8]
 8004326:	4b7f      	ldr	r3, [pc, #508]	@ (8004524 <HAL_RCC_OscConfig+0x4ac>)
 8004328:	6c1b      	ldr	r3, [r3, #64]	@ 0x40
 800432a:	4a7e      	ldr	r2, [pc, #504]	@ (8004524 <HAL_RCC_OscConfig+0x4ac>)
 800432c:	f043 5380 	orr.w	r3, r3, #268435456	@ 0x10000000
 8004330:	6413      	str	r3, [r2, #64]	@ 0x40
 8004332:	4b7c      	ldr	r3, [pc, #496]	@ (8004524 <HAL_RCC_OscConfig+0x4ac>)
 8004334:	6c1b      	ldr	r3, [r3, #64]	@ 0x40
 8004336:	f003 5380 	and.w	r3, r3, #268435456	@ 0x10000000
 800433a:	60bb      	str	r3, [r7, #8]
 800433c:	68bb      	ldr	r3, [r7, #8]
      pwrclkchanged = SET;
 800433e:	2301      	movs	r3, #1
 8004340:	75fb      	strb	r3, [r7, #23]
    }

    if (HAL_IS_BIT_CLR(PWR->CR, PWR_CR_DBP))
 8004342:	4b79      	ldr	r3, [pc, #484]	@ (8004528 <HAL_RCC_OscConfig+0x4b0>)
 8004344:	681b      	ldr	r3, [r3, #0]
 8004346:	f403 7380 	and.w	r3, r3, #256	@ 0x100
 800434a:	2b00      	cmp	r3, #0
 800434c:	d118      	bne.n	8004380 <HAL_RCC_OscConfig+0x308>
    {
      /* Enable write access to Backup domain */
      SET_BIT(PWR->CR, PWR_CR_DBP);
 800434e:	4b76      	ldr	r3, [pc, #472]	@ (8004528 <HAL_RCC_OscConfig+0x4b0>)
 8004350:	681b      	ldr	r3, [r3, #0]
 8004352:	4a75      	ldr	r2, [pc, #468]	@ (8004528 <HAL_RCC_OscConfig+0x4b0>)
 8004354:	f443 7380 	orr.w	r3, r3, #256	@ 0x100
 8004358:	6013      	str	r3, [r2, #0]

      /* Wait for Backup domain Write protection disable */
      tickstart = HAL_GetTick();
 800435a:	f7fe fe11 	bl	8002f80 <HAL_GetTick>
 800435e:	6138      	str	r0, [r7, #16]

      while (HAL_IS_BIT_CLR(PWR->CR, PWR_CR_DBP))
 8004360:	e008      	b.n	8004374 <HAL_RCC_OscConfig+0x2fc>
      {
        if ((HAL_GetTick() - tickstart) > RCC_DBP_TIMEOUT_VALUE)
 8004362:	f7fe fe0d 	bl	8002f80 <HAL_GetTick>
 8004366:	4602      	mov	r2, r0
 8004368:	693b      	ldr	r3, [r7, #16]
 800436a:	1ad3      	subs	r3, r2, r3
 800436c:	2b02      	cmp	r3, #2
 800436e:	d901      	bls.n	8004374 <HAL_RCC_OscConfig+0x2fc>
        {
          return HAL_TIMEOUT;
 8004370:	2303      	movs	r3, #3
 8004372:	e118      	b.n	80045a6 <HAL_RCC_OscConfig+0x52e>
      while (HAL_IS_BIT_CLR(PWR->CR, PWR_CR_DBP))
 8004374:	4b6c      	ldr	r3, [pc, #432]	@ (8004528 <HAL_RCC_OscConfig+0x4b0>)
 8004376:	681b      	ldr	r3, [r3, #0]
 8004378:	f403 7380 	and.w	r3, r3, #256	@ 0x100
 800437c:	2b00      	cmp	r3, #0
 800437e:	d0f0      	beq.n	8004362 <HAL_RCC_OscConfig+0x2ea>
        }
      }
    }

    /* Set the new LSE configuration -----------------------------------------*/
    __HAL_RCC_LSE_CONFIG(RCC_OscInitStruct->LSEState);
 8004380:	687b      	ldr	r3, [r7, #4]
 8004382:	689b      	ldr	r3, [r3, #8]
 8004384:	2b01      	cmp	r3, #1
 8004386:	d106      	bne.n	8004396 <HAL_RCC_OscConfig+0x31e>
 8004388:	4b66      	ldr	r3, [pc, #408]	@ (8004524 <HAL_RCC_OscConfig+0x4ac>)
 800438a:	6f1b      	ldr	r3, [r3, #112]	@ 0x70
 800438c:	4a65      	ldr	r2, [pc, #404]	@ (8004524 <HAL_RCC_OscConfig+0x4ac>)
 800438e:	f043 0301 	orr.w	r3, r3, #1
 8004392:	6713      	str	r3, [r2, #112]	@ 0x70
 8004394:	e01c      	b.n	80043d0 <HAL_RCC_OscConfig+0x358>
 8004396:	687b      	ldr	r3, [r7, #4]
 8004398:	689b      	ldr	r3, [r3, #8]
 800439a:	2b05      	cmp	r3, #5
 800439c:	d10c      	bne.n	80043b8 <HAL_RCC_OscConfig+0x340>
 800439e:	4b61      	ldr	r3, [pc, #388]	@ (8004524 <HAL_RCC_OscConfig+0x4ac>)
 80043a0:	6f1b      	ldr	r3, [r3, #112]	@ 0x70
 80043a2:	4a60      	ldr	r2, [pc, #384]	@ (8004524 <HAL_RCC_OscConfig+0x4ac>)
 80043a4:	f043 0304 	orr.w	r3, r3, #4
 80043a8:	6713      	str	r3, [r2, #112]	@ 0x70
 80043aa:	4b5e      	ldr	r3, [pc, #376]	@ (8004524 <HAL_RCC_OscConfig+0x4ac>)
 80043ac:	6f1b      	ldr	r3, [r3, #112]	@ 0x70
 80043ae:	4a5d      	ldr	r2, [pc, #372]	@ (8004524 <HAL_RCC_OscConfig+0x4ac>)
 80043b0:	f043 0301 	orr.w	r3, r3, #1
 80043b4:	6713      	str	r3, [r2, #112]	@ 0x70
 80043b6:	e00b      	b.n	80043d0 <HAL_RCC_OscConfig+0x358>
 80043b8:	4b5a      	ldr	r3, [pc, #360]	@ (8004524 <HAL_RCC_OscConfig+0x4ac>)
 80043ba:	6f1b      	ldr	r3, [r3, #112]	@ 0x70
 80043bc:	4a59      	ldr	r2, [pc, #356]	@ (8004524 <HAL_RCC_OscConfig+0x4ac>)
 80043be:	f023 0301 	bic.w	r3, r3, #1
 80043c2:	6713      	str	r3, [r2, #112]	@ 0x70
 80043c4:	4b57      	ldr	r3, [pc, #348]	@ (8004524 <HAL_RCC_OscConfig+0x4ac>)
 80043c6:	6f1b      	ldr	r3, [r3, #112]	@ 0x70
 80043c8:	4a56      	ldr	r2, [pc, #344]	@ (8004524 <HAL_RCC_OscConfig+0x4ac>)
 80043ca:	f023 0304 	bic.w	r3, r3, #4
 80043ce:	6713      	str	r3, [r2, #112]	@ 0x70
    /* Check the LSE State */
    if ((RCC_OscInitStruct->LSEState) != RCC_LSE_OFF)
 80043d0:	687b      	ldr	r3, [r7, #4]
 80043d2:	689b      	ldr	r3, [r3, #8]
 80043d4:	2b00      	cmp	r3, #0
 80043d6:	d015      	beq.n	8004404 <HAL_RCC_OscConfig+0x38c>
    {
      /* Get Start Tick*/
      tickstart = HAL_GetTick();
 80043d8:	f7fe fdd2 	bl	8002f80 <HAL_GetTick>
 80043dc:	6138      	str	r0, [r7, #16]

      /* Wait till LSE is ready */
      while (__HAL_RCC_GET_FLAG(RCC_FLAG_LSERDY) == RESET)
 80043de:	e00a      	b.n	80043f6 <HAL_RCC_OscConfig+0x37e>
      {
        if ((HAL_GetTick() - tickstart) > RCC_LSE_TIMEOUT_VALUE)
 80043e0:	f7fe fdce 	bl	8002f80 <HAL_GetTick>
 80043e4:	4602      	mov	r2, r0
 80043e6:	693b      	ldr	r3, [r7, #16]
 80043e8:	1ad3      	subs	r3, r2, r3
 80043ea:	f241 3288 	movw	r2, #5000	@ 0x1388
 80043ee:	4293      	cmp	r3, r2
 80043f0:	d901      	bls.n	80043f6 <HAL_RCC_OscConfig+0x37e>
        {
          return HAL_TIMEOUT;
 80043f2:	2303      	movs	r3, #3
 80043f4:	e0d7      	b.n	80045a6 <HAL_RCC_OscConfig+0x52e>
      while (__HAL_RCC_GET_FLAG(RCC_FLAG_LSERDY) == RESET)
 80043f6:	4b4b      	ldr	r3, [pc, #300]	@ (8004524 <HAL_RCC_OscConfig+0x4ac>)
 80043f8:	6f1b      	ldr	r3, [r3, #112]	@ 0x70
 80043fa:	f003 0302 	and.w	r3, r3, #2
 80043fe:	2b00      	cmp	r3, #0
 8004400:	d0ee      	beq.n	80043e0 <HAL_RCC_OscConfig+0x368>
 8004402:	e014      	b.n	800442e <HAL_RCC_OscConfig+0x3b6>
      }
    }
    else
    {
      /* Get Start Tick*/
      tickstart = HAL_GetTick();
 8004404:	f7fe fdbc 	bl	8002f80 <HAL_GetTick>
 8004408:	6138      	str	r0, [r7, #16]

      /* Wait till LSE is ready */
      while (__HAL_RCC_GET_FLAG(RCC_FLAG_LSERDY) != RESET)
 800440a:	e00a      	b.n	8004422 <HAL_RCC_OscConfig+0x3aa>
      {
        if ((HAL_GetTick() - tickstart) > RCC_LSE_TIMEOUT_VALUE)
 800440c:	f7fe fdb8 	bl	8002f80 <HAL_GetTick>
 8004410:	4602      	mov	r2, r0
 8004412:	693b      	ldr	r3, [r7, #16]
 8004414:	1ad3      	subs	r3, r2, r3
 8004416:	f241 3288 	movw	r2, #5000	@ 0x1388
 800441a:	4293      	cmp	r3, r2
 800441c:	d901      	bls.n	8004422 <HAL_RCC_OscConfig+0x3aa>
        {
          return HAL_TIMEOUT;
 800441e:	2303      	movs	r3, #3
 8004420:	e0c1      	b.n	80045a6 <HAL_RCC_OscConfig+0x52e>
      while (__HAL_RCC_GET_FLAG(RCC_FLAG_LSERDY) != RESET)
 8004422:	4b40      	ldr	r3, [pc, #256]	@ (8004524 <HAL_RCC_OscConfig+0x4ac>)
 8004424:	6f1b      	ldr	r3, [r3, #112]	@ 0x70
 8004426:	f003 0302 	and.w	r3, r3, #2
 800442a:	2b00      	cmp	r3, #0
 800442c:	d1ee      	bne.n	800440c <HAL_RCC_OscConfig+0x394>
        }
      }
    }

    /* Restore clock configuration if changed */
    if (pwrclkchanged == SET)
 800442e:	7dfb      	ldrb	r3, [r7, #23]
 8004430:	2b01      	cmp	r3, #1
 8004432:	d105      	bne.n	8004440 <HAL_RCC_OscConfig+0x3c8>
    {
      __HAL_RCC_PWR_CLK_DISABLE();
 8004434:	4b3b      	ldr	r3, [pc, #236]	@ (8004524 <HAL_RCC_OscConfig+0x4ac>)
 8004436:	6c1b      	ldr	r3, [r3, #64]	@ 0x40
 8004438:	4a3a      	ldr	r2, [pc, #232]	@ (8004524 <HAL_RCC_OscConfig+0x4ac>)
 800443a:	f023 5380 	bic.w	r3, r3, #268435456	@ 0x10000000
 800443e:	6413      	str	r3, [r2, #64]	@ 0x40
    }
  }
  /*-------------------------------- PLL Configuration -----------------------*/
  /* Check the parameters */
  assert_param(IS_RCC_PLL(RCC_OscInitStruct->PLL.PLLState));
  if ((RCC_OscInitStruct->PLL.PLLState) != RCC_PLL_NONE)
 8004440:	687b      	ldr	r3, [r7, #4]
 8004442:	699b      	ldr	r3, [r3, #24]
 8004444:	2b00      	cmp	r3, #0
 8004446:	f000 80ad 	beq.w	80045a4 <HAL_RCC_OscConfig+0x52c>
  {
    /* Check if the PLL is used as system clock or not */
    if (__HAL_RCC_GET_SYSCLK_SOURCE() != RCC_CFGR_SWS_PLL)
 800444a:	4b36      	ldr	r3, [pc, #216]	@ (8004524 <HAL_RCC_OscConfig+0x4ac>)
 800444c:	689b      	ldr	r3, [r3, #8]
 800444e:	f003 030c 	and.w	r3, r3, #12
 8004452:	2b08      	cmp	r3, #8
 8004454:	d060      	beq.n	8004518 <HAL_RCC_OscConfig+0x4a0>
    {
      if ((RCC_OscInitStruct->PLL.PLLState) == RCC_PLL_ON)
 8004456:	687b      	ldr	r3, [r7, #4]
 8004458:	699b      	ldr	r3, [r3, #24]
 800445a:	2b02      	cmp	r3, #2
 800445c:	d145      	bne.n	80044ea <HAL_RCC_OscConfig+0x472>
        assert_param(IS_RCC_PLLP_VALUE(RCC_OscInitStruct->PLL.PLLP));
        assert_param(IS_RCC_PLLQ_VALUE(RCC_OscInitStruct->PLL.PLLQ));
        assert_param(IS_RCC_PLLR_VALUE(RCC_OscInitStruct->PLL.PLLR));

        /* Disable the main PLL. */
        __HAL_RCC_PLL_DISABLE();
 800445e:	4b33      	ldr	r3, [pc, #204]	@ (800452c <HAL_RCC_OscConfig+0x4b4>)
 8004460:	2200      	movs	r2, #0
 8004462:	601a      	str	r2, [r3, #0]

        /* Get Start Tick*/
        tickstart = HAL_GetTick();
 8004464:	f7fe fd8c 	bl	8002f80 <HAL_GetTick>
 8004468:	6138      	str	r0, [r7, #16]

        /* Wait till PLL is ready */
        while (__HAL_RCC_GET_FLAG(RCC_FLAG_PLLRDY) != RESET)
 800446a:	e008      	b.n	800447e <HAL_RCC_OscConfig+0x406>
        {
          if ((HAL_GetTick() - tickstart) > PLL_TIMEOUT_VALUE)
 800446c:	f7fe fd88 	bl	8002f80 <HAL_GetTick>
 8004470:	4602      	mov	r2, r0
 8004472:	693b      	ldr	r3, [r7, #16]
 8004474:	1ad3      	subs	r3, r2, r3
 8004476:	2b02      	cmp	r3, #2
 8004478:	d901      	bls.n	800447e <HAL_RCC_OscConfig+0x406>
          {
            return HAL_TIMEOUT;
 800447a:	2303      	movs	r3, #3
 800447c:	e093      	b.n	80045a6 <HAL_RCC_OscConfig+0x52e>
        while (__HAL_RCC_GET_FLAG(RCC_FLAG_PLLRDY) != RESET)
 800447e:	4b29      	ldr	r3, [pc, #164]	@ (8004524 <HAL_RCC_OscConfig+0x4ac>)
 8004480:	681b      	ldr	r3, [r3, #0]
 8004482:	f003 7300 	and.w	r3, r3, #33554432	@ 0x2000000
 8004486:	2b00      	cmp	r3, #0
 8004488:	d1f0      	bne.n	800446c <HAL_RCC_OscConfig+0x3f4>
          }
        }

        /* Configure the main PLL clock source, multiplication and division factors. */
        WRITE_REG(RCC->PLLCFGR, (RCC_OscInitStruct->PLL.PLLSource                                            | \
 800448a:	687b      	ldr	r3, [r7, #4]
 800448c:	69da      	ldr	r2, [r3, #28]
 800448e:	687b      	ldr	r3, [r7, #4]
 8004490:	6a1b      	ldr	r3, [r3, #32]
 8004492:	431a      	orrs	r2, r3
 8004494:	687b      	ldr	r3, [r7, #4]
 8004496:	6a5b      	ldr	r3, [r3, #36]	@ 0x24
 8004498:	019b      	lsls	r3, r3, #6
 800449a:	431a      	orrs	r2, r3
 800449c:	687b      	ldr	r3, [r7, #4]
 800449e:	6a9b      	ldr	r3, [r3, #40]	@ 0x28
 80044a0:	085b      	lsrs	r3, r3, #1
 80044a2:	3b01      	subs	r3, #1
 80044a4:	041b      	lsls	r3, r3, #16
 80044a6:	431a      	orrs	r2, r3
 80044a8:	687b      	ldr	r3, [r7, #4]
 80044aa:	6adb      	ldr	r3, [r3, #44]	@ 0x2c
 80044ac:	061b      	lsls	r3, r3, #24
 80044ae:	431a      	orrs	r2, r3
 80044b0:	687b      	ldr	r3, [r7, #4]
 80044b2:	6b1b      	ldr	r3, [r3, #48]	@ 0x30
 80044b4:	071b      	lsls	r3, r3, #28
 80044b6:	491b      	ldr	r1, [pc, #108]	@ (8004524 <HAL_RCC_OscConfig+0x4ac>)
 80044b8:	4313      	orrs	r3, r2
 80044ba:	604b      	str	r3, [r1, #4]
                                 (RCC_OscInitStruct->PLL.PLLN << RCC_PLLCFGR_PLLN_Pos)                       | \
                                 (((RCC_OscInitStruct->PLL.PLLP >> 1U) - 1U) << RCC_PLLCFGR_PLLP_Pos)        | \
                                 (RCC_OscInitStruct->PLL.PLLQ << RCC_PLLCFGR_PLLQ_Pos)                       | \
                                 (RCC_OscInitStruct->PLL.PLLR << RCC_PLLCFGR_PLLR_Pos)));
        /* Enable the main PLL. */
        __HAL_RCC_PLL_ENABLE();
 80044bc:	4b1b      	ldr	r3, [pc, #108]	@ (800452c <HAL_RCC_OscConfig+0x4b4>)
 80044be:	2201      	movs	r2, #1
 80044c0:	601a      	str	r2, [r3, #0]

        /* Get Start Tick*/
        tickstart = HAL_GetTick();
 80044c2:	f7fe fd5d 	bl	8002f80 <HAL_GetTick>
 80044c6:	6138      	str	r0, [r7, #16]

        /* Wait till PLL is ready */
        while (__HAL_RCC_GET_FLAG(RCC_FLAG_PLLRDY) == RESET)
 80044c8:	e008      	b.n	80044dc <HAL_RCC_OscConfig+0x464>
        {
          if ((HAL_GetTick() - tickstart) > PLL_TIMEOUT_VALUE)
 80044ca:	f7fe fd59 	bl	8002f80 <HAL_GetTick>
 80044ce:	4602      	mov	r2, r0
 80044d0:	693b      	ldr	r3, [r7, #16]
 80044d2:	1ad3      	subs	r3, r2, r3
 80044d4:	2b02      	cmp	r3, #2
 80044d6:	d901      	bls.n	80044dc <HAL_RCC_OscConfig+0x464>
          {
            return HAL_TIMEOUT;
 80044d8:	2303      	movs	r3, #3
 80044da:	e064      	b.n	80045a6 <HAL_RCC_OscConfig+0x52e>
        while (__HAL_RCC_GET_FLAG(RCC_FLAG_PLLRDY) == RESET)
 80044dc:	4b11      	ldr	r3, [pc, #68]	@ (8004524 <HAL_RCC_OscConfig+0x4ac>)
 80044de:	681b      	ldr	r3, [r3, #0]
 80044e0:	f003 7300 	and.w	r3, r3, #33554432	@ 0x2000000
 80044e4:	2b00      	cmp	r3, #0
 80044e6:	d0f0      	beq.n	80044ca <HAL_RCC_OscConfig+0x452>
 80044e8:	e05c      	b.n	80045a4 <HAL_RCC_OscConfig+0x52c>
        }
      }
      else
      {
        /* Disable the main PLL. */
        __HAL_RCC_PLL_DISABLE();
 80044ea:	4b10      	ldr	r3, [pc, #64]	@ (800452c <HAL_RCC_OscConfig+0x4b4>)
 80044ec:	2200      	movs	r2, #0
 80044ee:	601a      	str	r2, [r3, #0]

        /* Get Start Tick*/
        tickstart = HAL_GetTick();
 80044f0:	f7fe fd46 	bl	8002f80 <HAL_GetTick>
 80044f4:	6138      	str	r0, [r7, #16]

        /* Wait till PLL is ready */
        while (__HAL_RCC_GET_FLAG(RCC_FLAG_PLLRDY) != RESET)
 80044f6:	e008      	b.n	800450a <HAL_RCC_OscConfig+0x492>
        {
          if ((HAL_GetTick() - tickstart) > PLL_TIMEOUT_VALUE)
 80044f8:	f7fe fd42 	bl	8002f80 <HAL_GetTick>
 80044fc:	4602      	mov	r2, r0
 80044fe:	693b      	ldr	r3, [r7, #16]
 8004500:	1ad3      	subs	r3, r2, r3
 8004502:	2b02      	cmp	r3, #2
 8004504:	d901      	bls.n	800450a <HAL_RCC_OscConfig+0x492>
          {
            return HAL_TIMEOUT;
 8004506:	2303      	movs	r3, #3
 8004508:	e04d      	b.n	80045a6 <HAL_RCC_OscConfig+0x52e>
        while (__HAL_RCC_GET_FLAG(RCC_FLAG_PLLRDY) != RESET)
 800450a:	4b06      	ldr	r3, [pc, #24]	@ (8004524 <HAL_RCC_OscConfig+0x4ac>)
 800450c:	681b      	ldr	r3, [r3, #0]
 800450e:	f003 7300 	and.w	r3, r3, #33554432	@ 0x2000000
 8004512:	2b00      	cmp	r3, #0
 8004514:	d1f0      	bne.n	80044f8 <HAL_RCC_OscConfig+0x480>
 8004516:	e045      	b.n	80045a4 <HAL_RCC_OscConfig+0x52c>
      }
    }
    else
    {
      /* Check if there is a request to disable the PLL used as System clock source */
      if ((RCC_OscInitStruct->PLL.PLLState) == RCC_PLL_OFF)
 8004518:	687b      	ldr	r3, [r7, #4]
 800451a:	699b      	ldr	r3, [r3, #24]
 800451c:	2b01      	cmp	r3, #1
 800451e:	d107      	bne.n	8004530 <HAL_RCC_OscConfig+0x4b8>
      {
        return HAL_ERROR;
 8004520:	2301      	movs	r3, #1
 8004522:	e040      	b.n	80045a6 <HAL_RCC_OscConfig+0x52e>
 8004524:	40023800 	.word	0x40023800
 8004528:	40007000 	.word	0x40007000
 800452c:	42470060 	.word	0x42470060
      }
      else
      {
        /* Do not return HAL_ERROR if request repeats the current configuration */
        pll_config = RCC->PLLCFGR;
 8004530:	4b1f      	ldr	r3, [pc, #124]	@ (80045b0 <HAL_RCC_OscConfig+0x538>)
 8004532:	685b      	ldr	r3, [r3, #4]
 8004534:	60fb      	str	r3, [r7, #12]
#if defined (RCC_PLLCFGR_PLLR)
        if (((RCC_OscInitStruct->PLL.PLLState) == RCC_PLL_OFF) ||
 8004536:	687b      	ldr	r3, [r7, #4]
 8004538:	699b      	ldr	r3, [r3, #24]
 800453a:	2b01      	cmp	r3, #1
 800453c:	d030      	beq.n	80045a0 <HAL_RCC_OscConfig+0x528>
            (READ_BIT(pll_config, RCC_PLLCFGR_PLLSRC) != RCC_OscInitStruct->PLL.PLLSource) ||
 800453e:	68fb      	ldr	r3, [r7, #12]
 8004540:	f403 0280 	and.w	r2, r3, #4194304	@ 0x400000
 8004544:	687b      	ldr	r3, [r7, #4]
 8004546:	69db      	ldr	r3, [r3, #28]
        if (((RCC_OscInitStruct->PLL.PLLState) == RCC_PLL_OFF) ||
 8004548:	429a      	cmp	r2, r3
 800454a:	d129      	bne.n	80045a0 <HAL_RCC_OscConfig+0x528>
            (READ_BIT(pll_config, RCC_PLLCFGR_PLLM) != (RCC_OscInitStruct->PLL.PLLM) << RCC_PLLCFGR_PLLM_Pos) ||
 800454c:	68fb      	ldr	r3, [r7, #12]
 800454e:	f003 023f 	and.w	r2, r3, #63	@ 0x3f
 8004552:	687b      	ldr	r3, [r7, #4]
 8004554:	6a1b      	ldr	r3, [r3, #32]
            (READ_BIT(pll_config, RCC_PLLCFGR_PLLSRC) != RCC_OscInitStruct->PLL.PLLSource) ||
 8004556:	429a      	cmp	r2, r3
 8004558:	d122      	bne.n	80045a0 <HAL_RCC_OscConfig+0x528>
            (READ_BIT(pll_config, RCC_PLLCFGR_PLLN) != (RCC_OscInitStruct->PLL.PLLN) << RCC_PLLCFGR_PLLN_Pos) ||
 800455a:	68fa      	ldr	r2, [r7, #12]
 800455c:	f647 73c0 	movw	r3, #32704	@ 0x7fc0
 8004560:	4013      	ands	r3, r2
 8004562:	687a      	ldr	r2, [r7, #4]
 8004564:	6a52      	ldr	r2, [r2, #36]	@ 0x24
 8004566:	0192      	lsls	r2, r2, #6
            (READ_BIT(pll_config, RCC_PLLCFGR_PLLM) != (RCC_OscInitStruct->PLL.PLLM) << RCC_PLLCFGR_PLLM_Pos) ||
 8004568:	4293      	cmp	r3, r2
 800456a:	d119      	bne.n	80045a0 <HAL_RCC_OscConfig+0x528>
            (READ_BIT(pll_config, RCC_PLLCFGR_PLLP) != (((RCC_OscInitStruct->PLL.PLLP >> 1U) - 1U)) << RCC_PLLCFGR_PLLP_Pos) ||
 800456c:	68fb      	ldr	r3, [r7, #12]
 800456e:	f403 3240 	and.w	r2, r3, #196608	@ 0x30000
 8004572:	687b      	ldr	r3, [r7, #4]
 8004574:	6a9b      	ldr	r3, [r3, #40]	@ 0x28
 8004576:	085b      	lsrs	r3, r3, #1
 8004578:	3b01      	subs	r3, #1
 800457a:	041b      	lsls	r3, r3, #16
            (READ_BIT(pll_config, RCC_PLLCFGR_PLLN) != (RCC_OscInitStruct->PLL.PLLN) << RCC_PLLCFGR_PLLN_Pos) ||
 800457c:	429a      	cmp	r2, r3
 800457e:	d10f      	bne.n	80045a0 <HAL_RCC_OscConfig+0x528>
            (READ_BIT(pll_config, RCC_PLLCFGR_PLLQ) != (RCC_OscInitStruct->PLL.PLLQ << RCC_PLLCFGR_PLLQ_Pos)) ||
 8004580:	68fb      	ldr	r3, [r7, #12]
 8004582:	f003 6270 	and.w	r2, r3, #251658240	@ 0xf000000
 8004586:	687b      	ldr	r3, [r7, #4]
 8004588:	6adb      	ldr	r3, [r3, #44]	@ 0x2c
 800458a:	061b      	lsls	r3, r3, #24
            (READ_BIT(pll_config, RCC_PLLCFGR_PLLP) != (((RCC_OscInitStruct->PLL.PLLP >> 1U) - 1U)) << RCC_PLLCFGR_PLLP_Pos) ||
 800458c:	429a      	cmp	r2, r3
 800458e:	d107      	bne.n	80045a0 <HAL_RCC_OscConfig+0x528>
            (READ_BIT(pll_config, RCC_PLLCFGR_PLLR) != (RCC_OscInitStruct->PLL.PLLR << RCC_PLLCFGR_PLLR_Pos)))
 8004590:	68fb      	ldr	r3, [r7, #12]
 8004592:	f003 42e0 	and.w	r2, r3, #1879048192	@ 0x70000000
 8004596:	687b      	ldr	r3, [r7, #4]
 8004598:	6b1b      	ldr	r3, [r3, #48]	@ 0x30
 800459a:	071b      	lsls	r3, r3, #28
            (READ_BIT(pll_config, RCC_PLLCFGR_PLLQ) != (RCC_OscInitStruct->PLL.PLLQ << RCC_PLLCFGR_PLLQ_Pos)) ||
 800459c:	429a      	cmp	r2, r3
 800459e:	d001      	beq.n	80045a4 <HAL_RCC_OscConfig+0x52c>
            (READ_BIT(pll_config, RCC_PLLCFGR_PLLN) != (RCC_OscInitStruct->PLL.PLLN) << RCC_PLLCFGR_PLLN_Pos) ||
            (READ_BIT(pll_config, RCC_PLLCFGR_PLLP) != (((RCC_OscInitStruct->PLL.PLLP >> 1U) - 1U)) << RCC_PLLCFGR_PLLP_Pos) ||
            (READ_BIT(pll_config, RCC_PLLCFGR_PLLQ) != (RCC_OscInitStruct->PLL.PLLQ << RCC_PLLCFGR_PLLQ_Pos)))
#endif /* RCC_PLLCFGR_PLLR */
        {
          return HAL_ERROR;
 80045a0:	2301      	movs	r3, #1
 80045a2:	e000      	b.n	80045a6 <HAL_RCC_OscConfig+0x52e>
        }
      }
    }
  }
  return HAL_OK;
 80045a4:	2300      	movs	r3, #0
}
 80045a6:	4618      	mov	r0, r3
 80045a8:	3718      	adds	r7, #24
 80045aa:	46bd      	mov	sp, r7
 80045ac:	bd80      	pop	{r7, pc}
 80045ae:	bf00      	nop
 80045b0:	40023800 	.word	0x40023800

080045b4 <HAL_SPI_Init>:
  * @param  hspi pointer to a SPI_HandleTypeDef structure that contains
  *               the configuration information for SPI module.
  * @retval HAL status
  */
HAL_StatusTypeDef HAL_SPI_Init(SPI_HandleTypeDef *hspi)
{
 80045b4:	b580      	push	{r7, lr}
 80045b6:	b082      	sub	sp, #8
 80045b8:	af00      	add	r7, sp, #0
 80045ba:	6078      	str	r0, [r7, #4]
  /* Check the SPI handle allocation */
  if (hspi == NULL)
 80045bc:	687b      	ldr	r3, [r7, #4]
 80045be:	2b00      	cmp	r3, #0
 80045c0:	d101      	bne.n	80045c6 <HAL_SPI_Init+0x12>
  {
    return HAL_ERROR;
 80045c2:	2301      	movs	r3, #1
 80045c4:	e07b      	b.n	80046be <HAL_SPI_Init+0x10a>
  assert_param(IS_SPI_DATASIZE(hspi->Init.DataSize));
  assert_param(IS_SPI_NSS(hspi->Init.NSS));
  assert_param(IS_SPI_BAUDRATE_PRESCALER(hspi->Init.BaudRatePrescaler));
  assert_param(IS_SPI_FIRST_BIT(hspi->Init.FirstBit));
  assert_param(IS_SPI_TIMODE(hspi->Init.TIMode));
  if (hspi->Init.TIMode == SPI_TIMODE_DISABLE)
 80045c6:	687b      	ldr	r3, [r7, #4]
 80045c8:	6a5b      	ldr	r3, [r3, #36]	@ 0x24
 80045ca:	2b00      	cmp	r3, #0
 80045cc:	d108      	bne.n	80045e0 <HAL_SPI_Init+0x2c>
  {
    assert_param(IS_SPI_CPOL(hspi->Init.CLKPolarity));
    assert_param(IS_SPI_CPHA(hspi->Init.CLKPhase));

    if (hspi->Init.Mode == SPI_MODE_MASTER)
 80045ce:	687b      	ldr	r3, [r7, #4]
 80045d0:	685b      	ldr	r3, [r3, #4]
 80045d2:	f5b3 7f82 	cmp.w	r3, #260	@ 0x104
 80045d6:	d009      	beq.n	80045ec <HAL_SPI_Init+0x38>
      assert_param(IS_SPI_BAUDRATE_PRESCALER(hspi->Init.BaudRatePrescaler));
    }
    else
    {
      /* Baudrate prescaler not use in Motoraola Slave mode. force to default value */
      hspi->Init.BaudRatePrescaler = SPI_BAUDRATEPRESCALER_2;
 80045d8:	687b      	ldr	r3, [r7, #4]
 80045da:	2200      	movs	r2, #0
 80045dc:	61da      	str	r2, [r3, #28]
 80045de:	e005      	b.n	80045ec <HAL_SPI_Init+0x38>
  else
  {
    assert_param(IS_SPI_BAUDRATE_PRESCALER(hspi->Init.BaudRatePrescaler));

    /* Force polarity and phase to TI protocaol requirements */
    hspi->Init.CLKPolarity = SPI_POLARITY_LOW;
 80045e0:	687b      	ldr	r3, [r7, #4]
 80045e2:	2200      	movs	r2, #0
 80045e4:	611a      	str	r2, [r3, #16]
    hspi->Init.CLKPhase    = SPI_PHASE_1EDGE;
 80045e6:	687b      	ldr	r3, [r7, #4]
 80045e8:	2200      	movs	r2, #0
 80045ea:	615a      	str	r2, [r3, #20]
  if (hspi->Init.CRCCalculation == SPI_CRCCALCULATION_ENABLE)
  {
    assert_param(IS_SPI_CRC_POLYNOMIAL(hspi->Init.CRCPolynomial));
  }
#else
  hspi->Init.CRCCalculation = SPI_CRCCALCULATION_DISABLE;
 80045ec:	687b      	ldr	r3, [r7, #4]
 80045ee:	2200      	movs	r2, #0
 80045f0:	629a      	str	r2, [r3, #40]	@ 0x28
#endif /* USE_SPI_CRC */

  if (hspi->State == HAL_SPI_STATE_RESET)
 80045f2:	687b      	ldr	r3, [r7, #4]
 80045f4:	f893 3051 	ldrb.w	r3, [r3, #81]	@ 0x51
 80045f8:	b2db      	uxtb	r3, r3
 80045fa:	2b00      	cmp	r3, #0
 80045fc:	d106      	bne.n	800460c <HAL_SPI_Init+0x58>
  {
    /* Allocate lock resource and initialize it */
    hspi->Lock = HAL_UNLOCKED;
 80045fe:	687b      	ldr	r3, [r7, #4]
 8004600:	2200      	movs	r2, #0
 8004602:	f883 2050 	strb.w	r2, [r3, #80]	@ 0x50

    /* Init the low level hardware : GPIO, CLOCK, NVIC... */
    hspi->MspInitCallback(hspi);
#else
    /* Init the low level hardware : GPIO, CLOCK, NVIC... */
    HAL_SPI_MspInit(hspi);
 8004606:	6878      	ldr	r0, [r7, #4]
 8004608:	f7fe fb0a 	bl	8002c20 <HAL_SPI_MspInit>
#endif /* USE_HAL_SPI_REGISTER_CALLBACKS */
  }

  hspi->State = HAL_SPI_STATE_BUSY;
 800460c:	687b      	ldr	r3, [r7, #4]
 800460e:	2202      	movs	r2, #2
 8004610:	f883 2051 	strb.w	r2, [r3, #81]	@ 0x51

  /* Disable the selected SPI peripheral */
  __HAL_SPI_DISABLE(hspi);
 8004614:	687b      	ldr	r3, [r7, #4]
 8004616:	681b      	ldr	r3, [r3, #0]
 8004618:	681a      	ldr	r2, [r3, #0]
 800461a:	687b      	ldr	r3, [r7, #4]
 800461c:	681b      	ldr	r3, [r3, #0]
 800461e:	f022 0240 	bic.w	r2, r2, #64	@ 0x40
 8004622:	601a      	str	r2, [r3, #0]

  /*----------------------- SPIx CR1 & CR2 Configuration ---------------------*/
  /* Configure : SPI Mode, Communication Mode, Data size, Clock polarity and phase, NSS management,
  Communication speed, First bit and CRC calculation state */
  WRITE_REG(hspi->Instance->CR1, ((hspi->Init.Mode & (SPI_CR1_MSTR | SPI_CR1_SSI)) |
 8004624:	687b      	ldr	r3, [r7, #4]
 8004626:	685b      	ldr	r3, [r3, #4]
 8004628:	f403 7282 	and.w	r2, r3, #260	@ 0x104
 800462c:	687b      	ldr	r3, [r7, #4]
 800462e:	689b      	ldr	r3, [r3, #8]
 8004630:	f403 4304 	and.w	r3, r3, #33792	@ 0x8400
 8004634:	431a      	orrs	r2, r3
 8004636:	687b      	ldr	r3, [r7, #4]
 8004638:	68db      	ldr	r3, [r3, #12]
 800463a:	f403 6300 	and.w	r3, r3, #2048	@ 0x800
 800463e:	431a      	orrs	r2, r3
 8004640:	687b      	ldr	r3, [r7, #4]
 8004642:	691b      	ldr	r3, [r3, #16]
 8004644:	f003 0302 	and.w	r3, r3, #2
 8004648:	431a      	orrs	r2, r3
 800464a:	687b      	ldr	r3, [r7, #4]
 800464c:	695b      	ldr	r3, [r3, #20]
 800464e:	f003 0301 	and.w	r3, r3, #1
 8004652:	431a      	orrs	r2, r3
 8004654:	687b      	ldr	r3, [r7, #4]
 8004656:	699b      	ldr	r3, [r3, #24]
 8004658:	f403 7300 	and.w	r3, r3, #512	@ 0x200
 800465c:	431a      	orrs	r2, r3
 800465e:	687b      	ldr	r3, [r7, #4]
 8004660:	69db      	ldr	r3, [r3, #28]
 8004662:	f003 0338 	and.w	r3, r3, #56	@ 0x38
 8004666:	431a      	orrs	r2, r3
 8004668:	687b      	ldr	r3, [r7, #4]
 800466a:	6a1b      	ldr	r3, [r3, #32]
 800466c:	f003 0380 	and.w	r3, r3, #128	@ 0x80
 8004670:	ea42 0103 	orr.w	r1, r2, r3
 8004674:	687b      	ldr	r3, [r7, #4]
 8004676:	6a9b      	ldr	r3, [r3, #40]	@ 0x28
 8004678:	f403 5200 	and.w	r2, r3, #8192	@ 0x2000
 800467c:	687b      	ldr	r3, [r7, #4]
 800467e:	681b      	ldr	r3, [r3, #0]
 8004680:	430a      	orrs	r2, r1
 8004682:	601a      	str	r2, [r3, #0]
                                  (hspi->Init.BaudRatePrescaler & SPI_CR1_BR_Msk) |
                                  (hspi->Init.FirstBit  & SPI_CR1_LSBFIRST) |
                                  (hspi->Init.CRCCalculation & SPI_CR1_CRCEN)));

  /* Configure : NSS management, TI Mode */
  WRITE_REG(hspi->Instance->CR2, (((hspi->Init.NSS >> 16U) & SPI_CR2_SSOE) | (hspi->Init.TIMode & SPI_CR2_FRF)));
 8004684:	687b      	ldr	r3, [r7, #4]
 8004686:	699b      	ldr	r3, [r3, #24]
 8004688:	0c1b      	lsrs	r3, r3, #16
 800468a:	f003 0104 	and.w	r1, r3, #4
 800468e:	687b      	ldr	r3, [r7, #4]
 8004690:	6a5b      	ldr	r3, [r3, #36]	@ 0x24
 8004692:	f003 0210 	and.w	r2, r3, #16
 8004696:	687b      	ldr	r3, [r7, #4]
 8004698:	681b      	ldr	r3, [r3, #0]
 800469a:	430a      	orrs	r2, r1
 800469c:	605a      	str	r2, [r3, #4]
  }
#endif /* USE_SPI_CRC */

#if defined(SPI_I2SCFGR_I2SMOD)
  /* Activate the SPI mode (Make sure that I2SMOD bit in I2SCFGR register is reset) */
  CLEAR_BIT(hspi->Instance->I2SCFGR, SPI_I2SCFGR_I2SMOD);
 800469e:	687b      	ldr	r3, [r7, #4]
 80046a0:	681b      	ldr	r3, [r3, #0]
 80046a2:	69da      	ldr	r2, [r3, #28]
 80046a4:	687b      	ldr	r3, [r7, #4]
 80046a6:	681b      	ldr	r3, [r3, #0]
 80046a8:	f422 6200 	bic.w	r2, r2, #2048	@ 0x800
 80046ac:	61da      	str	r2, [r3, #28]
#endif /* SPI_I2SCFGR_I2SMOD */

  hspi->ErrorCode = HAL_SPI_ERROR_NONE;
 80046ae:	687b      	ldr	r3, [r7, #4]
 80046b0:	2200      	movs	r2, #0
 80046b2:	655a      	str	r2, [r3, #84]	@ 0x54
  hspi->State     = HAL_SPI_STATE_READY;
 80046b4:	687b      	ldr	r3, [r7, #4]
 80046b6:	2201      	movs	r2, #1
 80046b8:	f883 2051 	strb.w	r2, [r3, #81]	@ 0x51

  return HAL_OK;
 80046bc:	2300      	movs	r3, #0
}
 80046be:	4618      	mov	r0, r3
 80046c0:	3708      	adds	r7, #8
 80046c2:	46bd      	mov	sp, r7
 80046c4:	bd80      	pop	{r7, pc}

080046c6 <HAL_SPI_Transmit>:
  * @param  Size amount of data to be sent
  * @param  Timeout Timeout duration
  * @retval HAL status
  */
HAL_StatusTypeDef HAL_SPI_Transmit(SPI_HandleTypeDef *hspi, const uint8_t *pData, uint16_t Size, uint32_t Timeout)
{
 80046c6:	b580      	push	{r7, lr}
 80046c8:	b088      	sub	sp, #32
 80046ca:	af00      	add	r7, sp, #0
 80046cc:	60f8      	str	r0, [r7, #12]
 80046ce:	60b9      	str	r1, [r7, #8]
 80046d0:	603b      	str	r3, [r7, #0]
 80046d2:	4613      	mov	r3, r2
 80046d4:	80fb      	strh	r3, [r7, #6]

  /* Check Direction parameter */
  assert_param(IS_SPI_DIRECTION_2LINES_OR_1LINE(hspi->Init.Direction));

  /* Init tickstart for timeout management*/
  tickstart = HAL_GetTick();
 80046d6:	f7fe fc53 	bl	8002f80 <HAL_GetTick>
 80046da:	61f8      	str	r0, [r7, #28]
  initial_TxXferCount = Size;
 80046dc:	88fb      	ldrh	r3, [r7, #6]
 80046de:	837b      	strh	r3, [r7, #26]

  if (hspi->State != HAL_SPI_STATE_READY)
 80046e0:	68fb      	ldr	r3, [r7, #12]
 80046e2:	f893 3051 	ldrb.w	r3, [r3, #81]	@ 0x51
 80046e6:	b2db      	uxtb	r3, r3
 80046e8:	2b01      	cmp	r3, #1
 80046ea:	d001      	beq.n	80046f0 <HAL_SPI_Transmit+0x2a>
  {
    return HAL_BUSY;
 80046ec:	2302      	movs	r3, #2
 80046ee:	e12a      	b.n	8004946 <HAL_SPI_Transmit+0x280>
  }

  if ((pData == NULL) || (Size == 0U))
 80046f0:	68bb      	ldr	r3, [r7, #8]
 80046f2:	2b00      	cmp	r3, #0
 80046f4:	d002      	beq.n	80046fc <HAL_SPI_Transmit+0x36>
 80046f6:	88fb      	ldrh	r3, [r7, #6]
 80046f8:	2b00      	cmp	r3, #0
 80046fa:	d101      	bne.n	8004700 <HAL_SPI_Transmit+0x3a>
  {
    return HAL_ERROR;
 80046fc:	2301      	movs	r3, #1
 80046fe:	e122      	b.n	8004946 <HAL_SPI_Transmit+0x280>
  }

  /* Process Locked */
  __HAL_LOCK(hspi);
 8004700:	68fb      	ldr	r3, [r7, #12]
 8004702:	f893 3050 	ldrb.w	r3, [r3, #80]	@ 0x50
 8004706:	2b01      	cmp	r3, #1
 8004708:	d101      	bne.n	800470e <HAL_SPI_Transmit+0x48>
 800470a:	2302      	movs	r3, #2
 800470c:	e11b      	b.n	8004946 <HAL_SPI_Transmit+0x280>
 800470e:	68fb      	ldr	r3, [r7, #12]
 8004710:	2201      	movs	r2, #1
 8004712:	f883 2050 	strb.w	r2, [r3, #80]	@ 0x50

  /* Set the transaction information */
  hspi->State       = HAL_SPI_STATE_BUSY_TX;
 8004716:	68fb      	ldr	r3, [r7, #12]
 8004718:	2203      	movs	r2, #3
 800471a:	f883 2051 	strb.w	r2, [r3, #81]	@ 0x51
  hspi->ErrorCode   = HAL_SPI_ERROR_NONE;
 800471e:	68fb      	ldr	r3, [r7, #12]
 8004720:	2200      	movs	r2, #0
 8004722:	655a      	str	r2, [r3, #84]	@ 0x54
  hspi->pTxBuffPtr  = (const uint8_t *)pData;
 8004724:	68fb      	ldr	r3, [r7, #12]
 8004726:	68ba      	ldr	r2, [r7, #8]
 8004728:	631a      	str	r2, [r3, #48]	@ 0x30
  hspi->TxXferSize  = Size;
 800472a:	68fb      	ldr	r3, [r7, #12]
 800472c:	88fa      	ldrh	r2, [r7, #6]
 800472e:	869a      	strh	r2, [r3, #52]	@ 0x34
  hspi->TxXferCount = Size;
 8004730:	68fb      	ldr	r3, [r7, #12]
 8004732:	88fa      	ldrh	r2, [r7, #6]
 8004734:	86da      	strh	r2, [r3, #54]	@ 0x36

  /*Init field not used in handle to zero */
  hspi->pRxBuffPtr  = (uint8_t *)NULL;
 8004736:	68fb      	ldr	r3, [r7, #12]
 8004738:	2200      	movs	r2, #0
 800473a:	639a      	str	r2, [r3, #56]	@ 0x38
  hspi->RxXferSize  = 0U;
 800473c:	68fb      	ldr	r3, [r7, #12]
 800473e:	2200      	movs	r2, #0
 8004740:	879a      	strh	r2, [r3, #60]	@ 0x3c
  hspi->RxXferCount = 0U;
 8004742:	68fb      	ldr	r3, [r7, #12]
 8004744:	2200      	movs	r2, #0
 8004746:	87da      	strh	r2, [r3, #62]	@ 0x3e
  hspi->TxISR       = NULL;
 8004748:	68fb      	ldr	r3, [r7, #12]
 800474a:	2200      	movs	r2, #0
 800474c:	645a      	str	r2, [r3, #68]	@ 0x44
  hspi->RxISR       = NULL;
 800474e:	68fb      	ldr	r3, [r7, #12]
 8004750:	2200      	movs	r2, #0
 8004752:	641a      	str	r2, [r3, #64]	@ 0x40

  /* Configure communication direction : 1Line */
  if (hspi->Init.Direction == SPI_DIRECTION_1LINE)
 8004754:	68fb      	ldr	r3, [r7, #12]
 8004756:	689b      	ldr	r3, [r3, #8]
 8004758:	f5b3 4f00 	cmp.w	r3, #32768	@ 0x8000
 800475c:	d10f      	bne.n	800477e <HAL_SPI_Transmit+0xb8>
  {
    /* Disable SPI Peripheral before set 1Line direction (BIDIOE bit) */
    __HAL_SPI_DISABLE(hspi);
 800475e:	68fb      	ldr	r3, [r7, #12]
 8004760:	681b      	ldr	r3, [r3, #0]
 8004762:	681a      	ldr	r2, [r3, #0]
 8004764:	68fb      	ldr	r3, [r7, #12]
 8004766:	681b      	ldr	r3, [r3, #0]
 8004768:	f022 0240 	bic.w	r2, r2, #64	@ 0x40
 800476c:	601a      	str	r2, [r3, #0]
    SPI_1LINE_TX(hspi);
 800476e:	68fb      	ldr	r3, [r7, #12]
 8004770:	681b      	ldr	r3, [r3, #0]
 8004772:	681a      	ldr	r2, [r3, #0]
 8004774:	68fb      	ldr	r3, [r7, #12]
 8004776:	681b      	ldr	r3, [r3, #0]
 8004778:	f442 4280 	orr.w	r2, r2, #16384	@ 0x4000
 800477c:	601a      	str	r2, [r3, #0]
    SPI_RESET_CRC(hspi);
  }
#endif /* USE_SPI_CRC */

  /* Check if the SPI is already enabled */
  if ((hspi->Instance->CR1 & SPI_CR1_SPE) != SPI_CR1_SPE)
 800477e:	68fb      	ldr	r3, [r7, #12]
 8004780:	681b      	ldr	r3, [r3, #0]
 8004782:	681b      	ldr	r3, [r3, #0]
 8004784:	f003 0340 	and.w	r3, r3, #64	@ 0x40
 8004788:	2b40      	cmp	r3, #64	@ 0x40
 800478a:	d007      	beq.n	800479c <HAL_SPI_Transmit+0xd6>
  {
    /* Enable SPI peripheral */
    __HAL_SPI_ENABLE(hspi);
 800478c:	68fb      	ldr	r3, [r7, #12]
 800478e:	681b      	ldr	r3, [r3, #0]
 8004790:	681a      	ldr	r2, [r3, #0]
 8004792:	68fb      	ldr	r3, [r7, #12]
 8004794:	681b      	ldr	r3, [r3, #0]
 8004796:	f042 0240 	orr.w	r2, r2, #64	@ 0x40
 800479a:	601a      	str	r2, [r3, #0]
  }

  /* Transmit data in 16 Bit mode */
  if (hspi->Init.DataSize == SPI_DATASIZE_16BIT)
 800479c:	68fb      	ldr	r3, [r7, #12]
 800479e:	68db      	ldr	r3, [r3, #12]
 80047a0:	f5b3 6f00 	cmp.w	r3, #2048	@ 0x800
 80047a4:	d152      	bne.n	800484c <HAL_SPI_Transmit+0x186>
  {
    if ((hspi->Init.Mode == SPI_MODE_SLAVE) || (initial_TxXferCount == 0x01U))
 80047a6:	68fb      	ldr	r3, [r7, #12]
 80047a8:	685b      	ldr	r3, [r3, #4]
 80047aa:	2b00      	cmp	r3, #0
 80047ac:	d002      	beq.n	80047b4 <HAL_SPI_Transmit+0xee>
 80047ae:	8b7b      	ldrh	r3, [r7, #26]
 80047b0:	2b01      	cmp	r3, #1
 80047b2:	d145      	bne.n	8004840 <HAL_SPI_Transmit+0x17a>
    {
      hspi->Instance->DR = *((const uint16_t *)hspi->pTxBuffPtr);
 80047b4:	68fb      	ldr	r3, [r7, #12]
 80047b6:	6b1b      	ldr	r3, [r3, #48]	@ 0x30
 80047b8:	881a      	ldrh	r2, [r3, #0]
 80047ba:	68fb      	ldr	r3, [r7, #12]
 80047bc:	681b      	ldr	r3, [r3, #0]
 80047be:	60da      	str	r2, [r3, #12]
      hspi->pTxBuffPtr += sizeof(uint16_t);
 80047c0:	68fb      	ldr	r3, [r7, #12]
 80047c2:	6b1b      	ldr	r3, [r3, #48]	@ 0x30
 80047c4:	1c9a      	adds	r2, r3, #2
 80047c6:	68fb      	ldr	r3, [r7, #12]
 80047c8:	631a      	str	r2, [r3, #48]	@ 0x30
      hspi->TxXferCount--;
 80047ca:	68fb      	ldr	r3, [r7, #12]
 80047cc:	8edb      	ldrh	r3, [r3, #54]	@ 0x36
 80047ce:	b29b      	uxth	r3, r3
 80047d0:	3b01      	subs	r3, #1
 80047d2:	b29a      	uxth	r2, r3
 80047d4:	68fb      	ldr	r3, [r7, #12]
 80047d6:	86da      	strh	r2, [r3, #54]	@ 0x36
    }
    /* Transmit data in 16 Bit mode */
    while (hspi->TxXferCount > 0U)
 80047d8:	e032      	b.n	8004840 <HAL_SPI_Transmit+0x17a>
    {
      /* Wait until TXE flag is set to send data */
      if (__HAL_SPI_GET_FLAG(hspi, SPI_FLAG_TXE))
 80047da:	68fb      	ldr	r3, [r7, #12]
 80047dc:	681b      	ldr	r3, [r3, #0]
 80047de:	689b      	ldr	r3, [r3, #8]
 80047e0:	f003 0302 	and.w	r3, r3, #2
 80047e4:	2b02      	cmp	r3, #2
 80047e6:	d112      	bne.n	800480e <HAL_SPI_Transmit+0x148>
      {
        hspi->Instance->DR = *((const uint16_t *)hspi->pTxBuffPtr);
 80047e8:	68fb      	ldr	r3, [r7, #12]
 80047ea:	6b1b      	ldr	r3, [r3, #48]	@ 0x30
 80047ec:	881a      	ldrh	r2, [r3, #0]
 80047ee:	68fb      	ldr	r3, [r7, #12]
 80047f0:	681b      	ldr	r3, [r3, #0]
 80047f2:	60da      	str	r2, [r3, #12]
        hspi->pTxBuffPtr += sizeof(uint16_t);
 80047f4:	68fb      	ldr	r3, [r7, #12]
 80047f6:	6b1b      	ldr	r3, [r3, #48]	@ 0x30
 80047f8:	1c9a      	adds	r2, r3, #2
 80047fa:	68fb      	ldr	r3, [r7, #12]
 80047fc:	631a      	str	r2, [r3, #48]	@ 0x30
        hspi->TxXferCount--;
 80047fe:	68fb      	ldr	r3, [r7, #12]
 8004800:	8edb      	ldrh	r3, [r3, #54]	@ 0x36
 8004802:	b29b      	uxth	r3, r3
 8004804:	3b01      	subs	r3, #1
 8004806:	b29a      	uxth	r2, r3
 8004808:	68fb      	ldr	r3, [r7, #12]
 800480a:	86da      	strh	r2, [r3, #54]	@ 0x36
 800480c:	e018      	b.n	8004840 <HAL_SPI_Transmit+0x17a>
      }
      else
      {
        /* Timeout management */
        if ((((HAL_GetTick() - tickstart) >=  Timeout) && (Timeout != HAL_MAX_DELAY)) || (Timeout == 0U))
 800480e:	f7fe fbb7 	bl	8002f80 <HAL_GetTick>
 8004812:	4602      	mov	r2, r0
 8004814:	69fb      	ldr	r3, [r7, #28]
 8004816:	1ad3      	subs	r3, r2, r3
 8004818:	683a      	ldr	r2, [r7, #0]
 800481a:	429a      	cmp	r2, r3
 800481c:	d803      	bhi.n	8004826 <HAL_SPI_Transmit+0x160>
 800481e:	683b      	ldr	r3, [r7, #0]
 8004820:	f1b3 3fff 	cmp.w	r3, #4294967295
 8004824:	d102      	bne.n	800482c <HAL_SPI_Transmit+0x166>
 8004826:	683b      	ldr	r3, [r7, #0]
 8004828:	2b00      	cmp	r3, #0
 800482a:	d109      	bne.n	8004840 <HAL_SPI_Transmit+0x17a>
        {
          hspi->State = HAL_SPI_STATE_READY;
 800482c:	68fb      	ldr	r3, [r7, #12]
 800482e:	2201      	movs	r2, #1
 8004830:	f883 2051 	strb.w	r2, [r3, #81]	@ 0x51
          __HAL_UNLOCK(hspi);
 8004834:	68fb      	ldr	r3, [r7, #12]
 8004836:	2200      	movs	r2, #0
 8004838:	f883 2050 	strb.w	r2, [r3, #80]	@ 0x50
          return HAL_TIMEOUT;
 800483c:	2303      	movs	r3, #3
 800483e:	e082      	b.n	8004946 <HAL_SPI_Transmit+0x280>
    while (hspi->TxXferCount > 0U)
 8004840:	68fb      	ldr	r3, [r7, #12]
 8004842:	8edb      	ldrh	r3, [r3, #54]	@ 0x36
 8004844:	b29b      	uxth	r3, r3
 8004846:	2b00      	cmp	r3, #0
 8004848:	d1c7      	bne.n	80047da <HAL_SPI_Transmit+0x114>
 800484a:	e053      	b.n	80048f4 <HAL_SPI_Transmit+0x22e>
    }
  }
  /* Transmit data in 8 Bit mode */
  else
  {
    if ((hspi->Init.Mode == SPI_MODE_SLAVE) || (initial_TxXferCount == 0x01U))
 800484c:	68fb      	ldr	r3, [r7, #12]
 800484e:	685b      	ldr	r3, [r3, #4]
 8004850:	2b00      	cmp	r3, #0
 8004852:	d002      	beq.n	800485a <HAL_SPI_Transmit+0x194>
 8004854:	8b7b      	ldrh	r3, [r7, #26]
 8004856:	2b01      	cmp	r3, #1
 8004858:	d147      	bne.n	80048ea <HAL_SPI_Transmit+0x224>
    {
      *((__IO uint8_t *)&hspi->Instance->DR) = *((const uint8_t *)hspi->pTxBuffPtr);
 800485a:	68fb      	ldr	r3, [r7, #12]
 800485c:	6b1a      	ldr	r2, [r3, #48]	@ 0x30
 800485e:	68fb      	ldr	r3, [r7, #12]
 8004860:	681b      	ldr	r3, [r3, #0]
 8004862:	330c      	adds	r3, #12
 8004864:	7812      	ldrb	r2, [r2, #0]
 8004866:	701a      	strb	r2, [r3, #0]
      hspi->pTxBuffPtr += sizeof(uint8_t);
 8004868:	68fb      	ldr	r3, [r7, #12]
 800486a:	6b1b      	ldr	r3, [r3, #48]	@ 0x30
 800486c:	1c5a      	adds	r2, r3, #1
 800486e:	68fb      	ldr	r3, [r7, #12]
 8004870:	631a      	str	r2, [r3, #48]	@ 0x30
      hspi->TxXferCount--;
 8004872:	68fb      	ldr	r3, [r7, #12]
 8004874:	8edb      	ldrh	r3, [r3, #54]	@ 0x36
 8004876:	b29b      	uxth	r3, r3
 8004878:	3b01      	subs	r3, #1
 800487a:	b29a      	uxth	r2, r3
 800487c:	68fb      	ldr	r3, [r7, #12]
 800487e:	86da      	strh	r2, [r3, #54]	@ 0x36
    }
    while (hspi->TxXferCount > 0U)
 8004880:	e033      	b.n	80048ea <HAL_SPI_Transmit+0x224>
    {
      /* Wait until TXE flag is set to send data */
      if (__HAL_SPI_GET_FLAG(hspi, SPI_FLAG_TXE))
 8004882:	68fb      	ldr	r3, [r7, #12]
 8004884:	681b      	ldr	r3, [r3, #0]
 8004886:	689b      	ldr	r3, [r3, #8]
 8004888:	f003 0302 	and.w	r3, r3, #2
 800488c:	2b02      	cmp	r3, #2
 800488e:	d113      	bne.n	80048b8 <HAL_SPI_Transmit+0x1f2>
      {
        *((__IO uint8_t *)&hspi->Instance->DR) = *((const uint8_t *)hspi->pTxBuffPtr);
 8004890:	68fb      	ldr	r3, [r7, #12]
 8004892:	6b1a      	ldr	r2, [r3, #48]	@ 0x30
 8004894:	68fb      	ldr	r3, [r7, #12]
 8004896:	681b      	ldr	r3, [r3, #0]
 8004898:	330c      	adds	r3, #12
 800489a:	7812      	ldrb	r2, [r2, #0]
 800489c:	701a      	strb	r2, [r3, #0]
        hspi->pTxBuffPtr += sizeof(uint8_t);
 800489e:	68fb      	ldr	r3, [r7, #12]
 80048a0:	6b1b      	ldr	r3, [r3, #48]	@ 0x30
 80048a2:	1c5a      	adds	r2, r3, #1
 80048a4:	68fb      	ldr	r3, [r7, #12]
 80048a6:	631a      	str	r2, [r3, #48]	@ 0x30
        hspi->TxXferCount--;
 80048a8:	68fb      	ldr	r3, [r7, #12]
 80048aa:	8edb      	ldrh	r3, [r3, #54]	@ 0x36
 80048ac:	b29b      	uxth	r3, r3
 80048ae:	3b01      	subs	r3, #1
 80048b0:	b29a      	uxth	r2, r3
 80048b2:	68fb      	ldr	r3, [r7, #12]
 80048b4:	86da      	strh	r2, [r3, #54]	@ 0x36
 80048b6:	e018      	b.n	80048ea <HAL_SPI_Transmit+0x224>
      }
      else
      {
        /* Timeout management */
        if ((((HAL_GetTick() - tickstart) >=  Timeout) && (Timeout != HAL_MAX_DELAY)) || (Timeout == 0U))
 80048b8:	f7fe fb62 	bl	8002f80 <HAL_GetTick>
 80048bc:	4602      	mov	r2, r0
 80048be:	69fb      	ldr	r3, [r7, #28]
 80048c0:	1ad3      	subs	r3, r2, r3
 80048c2:	683a      	ldr	r2, [r7, #0]
 80048c4:	429a      	cmp	r2, r3
 80048c6:	d803      	bhi.n	80048d0 <HAL_SPI_Transmit+0x20a>
 80048c8:	683b      	ldr	r3, [r7, #0]
 80048ca:	f1b3 3fff 	cmp.w	r3, #4294967295
 80048ce:	d102      	bne.n	80048d6 <HAL_SPI_Transmit+0x210>
 80048d0:	683b      	ldr	r3, [r7, #0]
 80048d2:	2b00      	cmp	r3, #0
 80048d4:	d109      	bne.n	80048ea <HAL_SPI_Transmit+0x224>
        {
          hspi->State = HAL_SPI_STATE_READY;
 80048d6:	68fb      	ldr	r3, [r7, #12]
 80048d8:	2201      	movs	r2, #1
 80048da:	f883 2051 	strb.w	r2, [r3, #81]	@ 0x51
          __HAL_UNLOCK(hspi);
 80048de:	68fb      	ldr	r3, [r7, #12]
 80048e0:	2200      	movs	r2, #0
 80048e2:	f883 2050 	strb.w	r2, [r3, #80]	@ 0x50
          return HAL_TIMEOUT;
 80048e6:	2303      	movs	r3, #3
 80048e8:	e02d      	b.n	8004946 <HAL_SPI_Transmit+0x280>
    while (hspi->TxXferCount > 0U)
 80048ea:	68fb      	ldr	r3, [r7, #12]
 80048ec:	8edb      	ldrh	r3, [r3, #54]	@ 0x36
 80048ee:	b29b      	uxth	r3, r3
 80048f0:	2b00      	cmp	r3, #0
 80048f2:	d1c6      	bne.n	8004882 <HAL_SPI_Transmit+0x1bc>
    SET_BIT(hspi->Instance->CR1, SPI_CR1_CRCNEXT);
  }
#endif /* USE_SPI_CRC */

  /* Check the end of the transaction */
  if (SPI_EndRxTxTransaction(hspi, Timeout, tickstart) != HAL_OK)
 80048f4:	69fa      	ldr	r2, [r7, #28]
 80048f6:	6839      	ldr	r1, [r7, #0]
 80048f8:	68f8      	ldr	r0, [r7, #12]
 80048fa:	f000 fbd9 	bl	80050b0 <SPI_EndRxTxTransaction>
 80048fe:	4603      	mov	r3, r0
 8004900:	2b00      	cmp	r3, #0
 8004902:	d002      	beq.n	800490a <HAL_SPI_Transmit+0x244>
  {
    hspi->ErrorCode = HAL_SPI_ERROR_FLAG;
 8004904:	68fb      	ldr	r3, [r7, #12]
 8004906:	2220      	movs	r2, #32
 8004908:	655a      	str	r2, [r3, #84]	@ 0x54
  }

  /* Clear overrun flag in 2 Lines communication mode because received is not read */
  if (hspi->Init.Direction == SPI_DIRECTION_2LINES)
 800490a:	68fb      	ldr	r3, [r7, #12]
 800490c:	689b      	ldr	r3, [r3, #8]
 800490e:	2b00      	cmp	r3, #0
 8004910:	d10a      	bne.n	8004928 <HAL_SPI_Transmit+0x262>
  {
    __HAL_SPI_CLEAR_OVRFLAG(hspi);
 8004912:	2300      	movs	r3, #0
 8004914:	617b      	str	r3, [r7, #20]
 8004916:	68fb      	ldr	r3, [r7, #12]
 8004918:	681b      	ldr	r3, [r3, #0]
 800491a:	68db      	ldr	r3, [r3, #12]
 800491c:	617b      	str	r3, [r7, #20]
 800491e:	68fb      	ldr	r3, [r7, #12]
 8004920:	681b      	ldr	r3, [r3, #0]
 8004922:	689b      	ldr	r3, [r3, #8]
 8004924:	617b      	str	r3, [r7, #20]
 8004926:	697b      	ldr	r3, [r7, #20]
  }

  hspi->State = HAL_SPI_STATE_READY;
 8004928:	68fb      	ldr	r3, [r7, #12]
 800492a:	2201      	movs	r2, #1
 800492c:	f883 2051 	strb.w	r2, [r3, #81]	@ 0x51
  /* Process Unlocked */
  __HAL_UNLOCK(hspi);
 8004930:	68fb      	ldr	r3, [r7, #12]
 8004932:	2200      	movs	r2, #0
 8004934:	f883 2050 	strb.w	r2, [r3, #80]	@ 0x50

  if (hspi->ErrorCode != HAL_SPI_ERROR_NONE)
 8004938:	68fb      	ldr	r3, [r7, #12]
 800493a:	6d5b      	ldr	r3, [r3, #84]	@ 0x54
 800493c:	2b00      	cmp	r3, #0
 800493e:	d001      	beq.n	8004944 <HAL_SPI_Transmit+0x27e>
  {
    return HAL_ERROR;
 8004940:	2301      	movs	r3, #1
 8004942:	e000      	b.n	8004946 <HAL_SPI_Transmit+0x280>
  }
  else
  {
    return HAL_OK;
 8004944:	2300      	movs	r3, #0
  }
}
 8004946:	4618      	mov	r0, r3
 8004948:	3720      	adds	r7, #32
 800494a:	46bd      	mov	sp, r7
 800494c:	bd80      	pop	{r7, pc}

0800494e <HAL_SPI_Receive>:
  * @param  Size amount of data to be received
  * @param  Timeout Timeout duration
  * @retval HAL status
  */
HAL_StatusTypeDef HAL_SPI_Receive(SPI_HandleTypeDef *hspi, uint8_t *pData, uint16_t Size, uint32_t Timeout)
{
 800494e:	b580      	push	{r7, lr}
 8004950:	b088      	sub	sp, #32
 8004952:	af02      	add	r7, sp, #8
 8004954:	60f8      	str	r0, [r7, #12]
 8004956:	60b9      	str	r1, [r7, #8]
 8004958:	603b      	str	r3, [r7, #0]
 800495a:	4613      	mov	r3, r2
 800495c:	80fb      	strh	r3, [r7, #6]
#if (USE_SPI_CRC != 0U)
  __IO uint32_t tmpreg = 0U;
#endif /* USE_SPI_CRC */
  uint32_t tickstart;

  if (hspi->State != HAL_SPI_STATE_READY)
 800495e:	68fb      	ldr	r3, [r7, #12]
 8004960:	f893 3051 	ldrb.w	r3, [r3, #81]	@ 0x51
 8004964:	b2db      	uxtb	r3, r3
 8004966:	2b01      	cmp	r3, #1
 8004968:	d001      	beq.n	800496e <HAL_SPI_Receive+0x20>
  {
    return HAL_BUSY;
 800496a:	2302      	movs	r3, #2
 800496c:	e104      	b.n	8004b78 <HAL_SPI_Receive+0x22a>
  }

  if ((hspi->Init.Mode == SPI_MODE_MASTER) && (hspi->Init.Direction == SPI_DIRECTION_2LINES))
 800496e:	68fb      	ldr	r3, [r7, #12]
 8004970:	685b      	ldr	r3, [r3, #4]
 8004972:	f5b3 7f82 	cmp.w	r3, #260	@ 0x104
 8004976:	d112      	bne.n	800499e <HAL_SPI_Receive+0x50>
 8004978:	68fb      	ldr	r3, [r7, #12]
 800497a:	689b      	ldr	r3, [r3, #8]
 800497c:	2b00      	cmp	r3, #0
 800497e:	d10e      	bne.n	800499e <HAL_SPI_Receive+0x50>
  {
    hspi->State = HAL_SPI_STATE_BUSY_RX;
 8004980:	68fb      	ldr	r3, [r7, #12]
 8004982:	2204      	movs	r2, #4
 8004984:	f883 2051 	strb.w	r2, [r3, #81]	@ 0x51
    /* Call transmit-receive function to send Dummy data on Tx line and generate clock on CLK line */
    return HAL_SPI_TransmitReceive(hspi, pData, pData, Size, Timeout);
 8004988:	88fa      	ldrh	r2, [r7, #6]
 800498a:	683b      	ldr	r3, [r7, #0]
 800498c:	9300      	str	r3, [sp, #0]
 800498e:	4613      	mov	r3, r2
 8004990:	68ba      	ldr	r2, [r7, #8]
 8004992:	68b9      	ldr	r1, [r7, #8]
 8004994:	68f8      	ldr	r0, [r7, #12]
 8004996:	f000 f8f3 	bl	8004b80 <HAL_SPI_TransmitReceive>
 800499a:	4603      	mov	r3, r0
 800499c:	e0ec      	b.n	8004b78 <HAL_SPI_Receive+0x22a>
  }

  /* Init tickstart for timeout management*/
  tickstart = HAL_GetTick();
 800499e:	f7fe faef 	bl	8002f80 <HAL_GetTick>
 80049a2:	6178      	str	r0, [r7, #20]

  if ((pData == NULL) || (Size == 0U))
 80049a4:	68bb      	ldr	r3, [r7, #8]
 80049a6:	2b00      	cmp	r3, #0
 80049a8:	d002      	beq.n	80049b0 <HAL_SPI_Receive+0x62>
 80049aa:	88fb      	ldrh	r3, [r7, #6]
 80049ac:	2b00      	cmp	r3, #0
 80049ae:	d101      	bne.n	80049b4 <HAL_SPI_Receive+0x66>
  {
    return HAL_ERROR;
 80049b0:	2301      	movs	r3, #1
 80049b2:	e0e1      	b.n	8004b78 <HAL_SPI_Receive+0x22a>
  }

  /* Process Locked */
  __HAL_LOCK(hspi);
 80049b4:	68fb      	ldr	r3, [r7, #12]
 80049b6:	f893 3050 	ldrb.w	r3, [r3, #80]	@ 0x50
 80049ba:	2b01      	cmp	r3, #1
 80049bc:	d101      	bne.n	80049c2 <HAL_SPI_Receive+0x74>
 80049be:	2302      	movs	r3, #2
 80049c0:	e0da      	b.n	8004b78 <HAL_SPI_Receive+0x22a>
 80049c2:	68fb      	ldr	r3, [r7, #12]
 80049c4:	2201      	movs	r2, #1
 80049c6:	f883 2050 	strb.w	r2, [r3, #80]	@ 0x50

  /* Set the transaction information */
  hspi->State       = HAL_SPI_STATE_BUSY_RX;
 80049ca:	68fb      	ldr	r3, [r7, #12]
 80049cc:	2204      	movs	r2, #4
 80049ce:	f883 2051 	strb.w	r2, [r3, #81]	@ 0x51
  hspi->ErrorCode   = HAL_SPI_ERROR_NONE;
 80049d2:	68fb      	ldr	r3, [r7, #12]
 80049d4:	2200      	movs	r2, #0
 80049d6:	655a      	str	r2, [r3, #84]	@ 0x54
  hspi->pRxBuffPtr  = (uint8_t *)pData;
 80049d8:	68fb      	ldr	r3, [r7, #12]
 80049da:	68ba      	ldr	r2, [r7, #8]
 80049dc:	639a      	str	r2, [r3, #56]	@ 0x38
  hspi->RxXferSize  = Size;
 80049de:	68fb      	ldr	r3, [r7, #12]
 80049e0:	88fa      	ldrh	r2, [r7, #6]
 80049e2:	879a      	strh	r2, [r3, #60]	@ 0x3c
  hspi->RxXferCount = Size;
 80049e4:	68fb      	ldr	r3, [r7, #12]
 80049e6:	88fa      	ldrh	r2, [r7, #6]
 80049e8:	87da      	strh	r2, [r3, #62]	@ 0x3e

  /*Init field not used in handle to zero */
  hspi->pTxBuffPtr  = (uint8_t *)NULL;
 80049ea:	68fb      	ldr	r3, [r7, #12]
 80049ec:	2200      	movs	r2, #0
 80049ee:	631a      	str	r2, [r3, #48]	@ 0x30
  hspi->TxXferSize  = 0U;
 80049f0:	68fb      	ldr	r3, [r7, #12]
 80049f2:	2200      	movs	r2, #0
 80049f4:	869a      	strh	r2, [r3, #52]	@ 0x34
  hspi->TxXferCount = 0U;
 80049f6:	68fb      	ldr	r3, [r7, #12]
 80049f8:	2200      	movs	r2, #0
 80049fa:	86da      	strh	r2, [r3, #54]	@ 0x36
  hspi->RxISR       = NULL;
 80049fc:	68fb      	ldr	r3, [r7, #12]
 80049fe:	2200      	movs	r2, #0
 8004a00:	641a      	str	r2, [r3, #64]	@ 0x40
  hspi->TxISR       = NULL;
 8004a02:	68fb      	ldr	r3, [r7, #12]
 8004a04:	2200      	movs	r2, #0
 8004a06:	645a      	str	r2, [r3, #68]	@ 0x44
    hspi->RxXferCount--;
  }
#endif /* USE_SPI_CRC */

  /* Configure communication direction: 1Line */
  if (hspi->Init.Direction == SPI_DIRECTION_1LINE)
 8004a08:	68fb      	ldr	r3, [r7, #12]
 8004a0a:	689b      	ldr	r3, [r3, #8]
 8004a0c:	f5b3 4f00 	cmp.w	r3, #32768	@ 0x8000
 8004a10:	d10f      	bne.n	8004a32 <HAL_SPI_Receive+0xe4>
  {
    /* Disable SPI Peripheral before set 1Line direction (BIDIOE bit) */
    __HAL_SPI_DISABLE(hspi);
 8004a12:	68fb      	ldr	r3, [r7, #12]
 8004a14:	681b      	ldr	r3, [r3, #0]
 8004a16:	681a      	ldr	r2, [r3, #0]
 8004a18:	68fb      	ldr	r3, [r7, #12]
 8004a1a:	681b      	ldr	r3, [r3, #0]
 8004a1c:	f022 0240 	bic.w	r2, r2, #64	@ 0x40
 8004a20:	601a      	str	r2, [r3, #0]
    SPI_1LINE_RX(hspi);
 8004a22:	68fb      	ldr	r3, [r7, #12]
 8004a24:	681b      	ldr	r3, [r3, #0]
 8004a26:	681a      	ldr	r2, [r3, #0]
 8004a28:	68fb      	ldr	r3, [r7, #12]
 8004a2a:	681b      	ldr	r3, [r3, #0]
 8004a2c:	f422 4280 	bic.w	r2, r2, #16384	@ 0x4000
 8004a30:	601a      	str	r2, [r3, #0]
  }

  /* Check if the SPI is already enabled */
  if ((hspi->Instance->CR1 & SPI_CR1_SPE) != SPI_CR1_SPE)
 8004a32:	68fb      	ldr	r3, [r7, #12]
 8004a34:	681b      	ldr	r3, [r3, #0]
 8004a36:	681b      	ldr	r3, [r3, #0]
 8004a38:	f003 0340 	and.w	r3, r3, #64	@ 0x40
 8004a3c:	2b40      	cmp	r3, #64	@ 0x40
 8004a3e:	d007      	beq.n	8004a50 <HAL_SPI_Receive+0x102>
  {
    /* Enable SPI peripheral */
    __HAL_SPI_ENABLE(hspi);
 8004a40:	68fb      	ldr	r3, [r7, #12]
 8004a42:	681b      	ldr	r3, [r3, #0]
 8004a44:	681a      	ldr	r2, [r3, #0]
 8004a46:	68fb      	ldr	r3, [r7, #12]
 8004a48:	681b      	ldr	r3, [r3, #0]
 8004a4a:	f042 0240 	orr.w	r2, r2, #64	@ 0x40
 8004a4e:	601a      	str	r2, [r3, #0]
  }

  /* Receive data in 8 Bit mode */
  if (hspi->Init.DataSize == SPI_DATASIZE_8BIT)
 8004a50:	68fb      	ldr	r3, [r7, #12]
 8004a52:	68db      	ldr	r3, [r3, #12]
 8004a54:	2b00      	cmp	r3, #0
 8004a56:	d170      	bne.n	8004b3a <HAL_SPI_Receive+0x1ec>
  {
    /* Transfer loop */
    while (hspi->RxXferCount > 0U)
 8004a58:	e035      	b.n	8004ac6 <HAL_SPI_Receive+0x178>
    {
      /* Check the RXNE flag */
      if (__HAL_SPI_GET_FLAG(hspi, SPI_FLAG_RXNE))
 8004a5a:	68fb      	ldr	r3, [r7, #12]
 8004a5c:	681b      	ldr	r3, [r3, #0]
 8004a5e:	689b      	ldr	r3, [r3, #8]
 8004a60:	f003 0301 	and.w	r3, r3, #1
 8004a64:	2b01      	cmp	r3, #1
 8004a66:	d115      	bne.n	8004a94 <HAL_SPI_Receive+0x146>
      {
        /* read the received data */
        (* (uint8_t *)hspi->pRxBuffPtr) = *(__IO uint8_t *)&hspi->Instance->DR;
 8004a68:	68fb      	ldr	r3, [r7, #12]
 8004a6a:	681b      	ldr	r3, [r3, #0]
 8004a6c:	f103 020c 	add.w	r2, r3, #12
 8004a70:	68fb      	ldr	r3, [r7, #12]
 8004a72:	6b9b      	ldr	r3, [r3, #56]	@ 0x38
 8004a74:	7812      	ldrb	r2, [r2, #0]
 8004a76:	b2d2      	uxtb	r2, r2
 8004a78:	701a      	strb	r2, [r3, #0]
        hspi->pRxBuffPtr += sizeof(uint8_t);
 8004a7a:	68fb      	ldr	r3, [r7, #12]
 8004a7c:	6b9b      	ldr	r3, [r3, #56]	@ 0x38
 8004a7e:	1c5a      	adds	r2, r3, #1
 8004a80:	68fb      	ldr	r3, [r7, #12]
 8004a82:	639a      	str	r2, [r3, #56]	@ 0x38
        hspi->RxXferCount--;
 8004a84:	68fb      	ldr	r3, [r7, #12]
 8004a86:	8fdb      	ldrh	r3, [r3, #62]	@ 0x3e
 8004a88:	b29b      	uxth	r3, r3
 8004a8a:	3b01      	subs	r3, #1
 8004a8c:	b29a      	uxth	r2, r3
 8004a8e:	68fb      	ldr	r3, [r7, #12]
 8004a90:	87da      	strh	r2, [r3, #62]	@ 0x3e
 8004a92:	e018      	b.n	8004ac6 <HAL_SPI_Receive+0x178>
      }
      else
      {
        /* Timeout management */
        if ((((HAL_GetTick() - tickstart) >=  Timeout) && (Timeout != HAL_MAX_DELAY)) || (Timeout == 0U))
 8004a94:	f7fe fa74 	bl	8002f80 <HAL_GetTick>
 8004a98:	4602      	mov	r2, r0
 8004a9a:	697b      	ldr	r3, [r7, #20]
 8004a9c:	1ad3      	subs	r3, r2, r3
 8004a9e:	683a      	ldr	r2, [r7, #0]
 8004aa0:	429a      	cmp	r2, r3
 8004aa2:	d803      	bhi.n	8004aac <HAL_SPI_Receive+0x15e>
 8004aa4:	683b      	ldr	r3, [r7, #0]
 8004aa6:	f1b3 3fff 	cmp.w	r3, #4294967295
 8004aaa:	d102      	bne.n	8004ab2 <HAL_SPI_Receive+0x164>
 8004aac:	683b      	ldr	r3, [r7, #0]
 8004aae:	2b00      	cmp	r3, #0
 8004ab0:	d109      	bne.n	8004ac6 <HAL_SPI_Receive+0x178>
        {
          hspi->State = HAL_SPI_STATE_READY;
 8004ab2:	68fb      	ldr	r3, [r7, #12]
 8004ab4:	2201      	movs	r2, #1
 8004ab6:	f883 2051 	strb.w	r2, [r3, #81]	@ 0x51
          __HAL_UNLOCK(hspi);
 8004aba:	68fb      	ldr	r3, [r7, #12]
 8004abc:	2200      	movs	r2, #0
 8004abe:	f883 2050 	strb.w	r2, [r3, #80]	@ 0x50
          return HAL_TIMEOUT;
 8004ac2:	2303      	movs	r3, #3
 8004ac4:	e058      	b.n	8004b78 <HAL_SPI_Receive+0x22a>
    while (hspi->RxXferCount > 0U)
 8004ac6:	68fb      	ldr	r3, [r7, #12]
 8004ac8:	8fdb      	ldrh	r3, [r3, #62]	@ 0x3e
 8004aca:	b29b      	uxth	r3, r3
 8004acc:	2b00      	cmp	r3, #0
 8004ace:	d1c4      	bne.n	8004a5a <HAL_SPI_Receive+0x10c>
 8004ad0:	e038      	b.n	8004b44 <HAL_SPI_Receive+0x1f6>
  {
    /* Transfer loop */
    while (hspi->RxXferCount > 0U)
    {
      /* Check the RXNE flag */
      if (__HAL_SPI_GET_FLAG(hspi, SPI_FLAG_RXNE))
 8004ad2:	68fb      	ldr	r3, [r7, #12]
 8004ad4:	681b      	ldr	r3, [r3, #0]
 8004ad6:	689b      	ldr	r3, [r3, #8]
 8004ad8:	f003 0301 	and.w	r3, r3, #1
 8004adc:	2b01      	cmp	r3, #1
 8004ade:	d113      	bne.n	8004b08 <HAL_SPI_Receive+0x1ba>
      {
        *((uint16_t *)hspi->pRxBuffPtr) = (uint16_t)hspi->Instance->DR;
 8004ae0:	68fb      	ldr	r3, [r7, #12]
 8004ae2:	681b      	ldr	r3, [r3, #0]
 8004ae4:	68da      	ldr	r2, [r3, #12]
 8004ae6:	68fb      	ldr	r3, [r7, #12]
 8004ae8:	6b9b      	ldr	r3, [r3, #56]	@ 0x38
 8004aea:	b292      	uxth	r2, r2
 8004aec:	801a      	strh	r2, [r3, #0]
        hspi->pRxBuffPtr += sizeof(uint16_t);
 8004aee:	68fb      	ldr	r3, [r7, #12]
 8004af0:	6b9b      	ldr	r3, [r3, #56]	@ 0x38
 8004af2:	1c9a      	adds	r2, r3, #2
 8004af4:	68fb      	ldr	r3, [r7, #12]
 8004af6:	639a      	str	r2, [r3, #56]	@ 0x38
        hspi->RxXferCount--;
 8004af8:	68fb      	ldr	r3, [r7, #12]
 8004afa:	8fdb      	ldrh	r3, [r3, #62]	@ 0x3e
 8004afc:	b29b      	uxth	r3, r3
 8004afe:	3b01      	subs	r3, #1
 8004b00:	b29a      	uxth	r2, r3
 8004b02:	68fb      	ldr	r3, [r7, #12]
 8004b04:	87da      	strh	r2, [r3, #62]	@ 0x3e
 8004b06:	e018      	b.n	8004b3a <HAL_SPI_Receive+0x1ec>
      }
      else
      {
        /* Timeout management */
        if ((((HAL_GetTick() - tickstart) >=  Timeout) && (Timeout != HAL_MAX_DELAY)) || (Timeout == 0U))
 8004b08:	f7fe fa3a 	bl	8002f80 <HAL_GetTick>
 8004b0c:	4602      	mov	r2, r0
 8004b0e:	697b      	ldr	r3, [r7, #20]
 8004b10:	1ad3      	subs	r3, r2, r3
 8004b12:	683a      	ldr	r2, [r7, #0]
 8004b14:	429a      	cmp	r2, r3
 8004b16:	d803      	bhi.n	8004b20 <HAL_SPI_Receive+0x1d2>
 8004b18:	683b      	ldr	r3, [r7, #0]
 8004b1a:	f1b3 3fff 	cmp.w	r3, #4294967295
 8004b1e:	d102      	bne.n	8004b26 <HAL_SPI_Receive+0x1d8>
 8004b20:	683b      	ldr	r3, [r7, #0]
 8004b22:	2b00      	cmp	r3, #0
 8004b24:	d109      	bne.n	8004b3a <HAL_SPI_Receive+0x1ec>
        {
          hspi->State = HAL_SPI_STATE_READY;
 8004b26:	68fb      	ldr	r3, [r7, #12]
 8004b28:	2201      	movs	r2, #1
 8004b2a:	f883 2051 	strb.w	r2, [r3, #81]	@ 0x51
          __HAL_UNLOCK(hspi);
 8004b2e:	68fb      	ldr	r3, [r7, #12]
 8004b30:	2200      	movs	r2, #0
 8004b32:	f883 2050 	strb.w	r2, [r3, #80]	@ 0x50
          return HAL_TIMEOUT;
 8004b36:	2303      	movs	r3, #3
 8004b38:	e01e      	b.n	8004b78 <HAL_SPI_Receive+0x22a>
    while (hspi->RxXferCount > 0U)
 8004b3a:	68fb      	ldr	r3, [r7, #12]
 8004b3c:	8fdb      	ldrh	r3, [r3, #62]	@ 0x3e
 8004b3e:	b29b      	uxth	r3, r3
 8004b40:	2b00      	cmp	r3, #0
 8004b42:	d1c6      	bne.n	8004ad2 <HAL_SPI_Receive+0x184>
    UNUSED(tmpreg);
  }
#endif /* USE_SPI_CRC */

  /* Check the end of the transaction */
  if (SPI_EndRxTransaction(hspi, Timeout, tickstart) != HAL_OK)
 8004b44:	697a      	ldr	r2, [r7, #20]
 8004b46:	6839      	ldr	r1, [r7, #0]
 8004b48:	68f8      	ldr	r0, [r7, #12]
 8004b4a:	f000 fa4b 	bl	8004fe4 <SPI_EndRxTransaction>
 8004b4e:	4603      	mov	r3, r0
 8004b50:	2b00      	cmp	r3, #0
 8004b52:	d002      	beq.n	8004b5a <HAL_SPI_Receive+0x20c>
  {
    hspi->ErrorCode = HAL_SPI_ERROR_FLAG;
 8004b54:	68fb      	ldr	r3, [r7, #12]
 8004b56:	2220      	movs	r2, #32
 8004b58:	655a      	str	r2, [r3, #84]	@ 0x54
    SET_BIT(hspi->ErrorCode, HAL_SPI_ERROR_CRC);
    __HAL_SPI_CLEAR_CRCERRFLAG(hspi);
  }
#endif /* USE_SPI_CRC */

  hspi->State = HAL_SPI_STATE_READY;
 8004b5a:	68fb      	ldr	r3, [r7, #12]
 8004b5c:	2201      	movs	r2, #1
 8004b5e:	f883 2051 	strb.w	r2, [r3, #81]	@ 0x51
  /* Unlock the process */
  __HAL_UNLOCK(hspi);
 8004b62:	68fb      	ldr	r3, [r7, #12]
 8004b64:	2200      	movs	r2, #0
 8004b66:	f883 2050 	strb.w	r2, [r3, #80]	@ 0x50
  if (hspi->ErrorCode != HAL_SPI_ERROR_NONE)
 8004b6a:	68fb      	ldr	r3, [r7, #12]
 8004b6c:	6d5b      	ldr	r3, [r3, #84]	@ 0x54
 8004b6e:	2b00      	cmp	r3, #0
 8004b70:	d001      	beq.n	8004b76 <HAL_SPI_Receive+0x228>
  {
    return HAL_ERROR;
 8004b72:	2301      	movs	r3, #1
 8004b74:	e000      	b.n	8004b78 <HAL_SPI_Receive+0x22a>
  }
  else
  {
    return HAL_OK;
 8004b76:	2300      	movs	r3, #0
  }
}
 8004b78:	4618      	mov	r0, r3
 8004b7a:	3718      	adds	r7, #24
 8004b7c:	46bd      	mov	sp, r7
 8004b7e:	bd80      	pop	{r7, pc}

08004b80 <HAL_SPI_TransmitReceive>:
  * @param  Timeout Timeout duration
  * @retval HAL status
  */
HAL_StatusTypeDef HAL_SPI_TransmitReceive(SPI_HandleTypeDef *hspi, const uint8_t *pTxData, uint8_t *pRxData,
                                          uint16_t Size, uint32_t Timeout)
{
 8004b80:	b580      	push	{r7, lr}
 8004b82:	b08a      	sub	sp, #40	@ 0x28
 8004b84:	af00      	add	r7, sp, #0
 8004b86:	60f8      	str	r0, [r7, #12]
 8004b88:	60b9      	str	r1, [r7, #8]
 8004b8a:	607a      	str	r2, [r7, #4]
 8004b8c:	807b      	strh	r3, [r7, #2]
#if (USE_SPI_CRC != 0U)
  __IO uint32_t tmpreg = 0U;
#endif /* USE_SPI_CRC */

  /* Variable used to alternate Rx and Tx during transfer */
  uint32_t             txallowed = 1U;
 8004b8e:	2301      	movs	r3, #1
 8004b90:	627b      	str	r3, [r7, #36]	@ 0x24

  /* Check Direction parameter */
  assert_param(IS_SPI_DIRECTION_2LINES(hspi->Init.Direction));

  /* Init tickstart for timeout management*/
  tickstart = HAL_GetTick();
 8004b92:	f7fe f9f5 	bl	8002f80 <HAL_GetTick>
 8004b96:	6238      	str	r0, [r7, #32]

  /* Init temporary variables */
  tmp_state           = hspi->State;
 8004b98:	68fb      	ldr	r3, [r7, #12]
 8004b9a:	f893 3051 	ldrb.w	r3, [r3, #81]	@ 0x51
 8004b9e:	77fb      	strb	r3, [r7, #31]
  tmp_mode            = hspi->Init.Mode;
 8004ba0:	68fb      	ldr	r3, [r7, #12]
 8004ba2:	685b      	ldr	r3, [r3, #4]
 8004ba4:	61bb      	str	r3, [r7, #24]
  initial_TxXferCount = Size;
 8004ba6:	887b      	ldrh	r3, [r7, #2]
 8004ba8:	82fb      	strh	r3, [r7, #22]

  if (!((tmp_state == HAL_SPI_STATE_READY) || \
 8004baa:	7ffb      	ldrb	r3, [r7, #31]
 8004bac:	2b01      	cmp	r3, #1
 8004bae:	d00c      	beq.n	8004bca <HAL_SPI_TransmitReceive+0x4a>
 8004bb0:	69bb      	ldr	r3, [r7, #24]
 8004bb2:	f5b3 7f82 	cmp.w	r3, #260	@ 0x104
 8004bb6:	d106      	bne.n	8004bc6 <HAL_SPI_TransmitReceive+0x46>
        ((tmp_mode == SPI_MODE_MASTER) && (hspi->Init.Direction == SPI_DIRECTION_2LINES) && (tmp_state == HAL_SPI_STATE_BUSY_RX))))
 8004bb8:	68fb      	ldr	r3, [r7, #12]
 8004bba:	689b      	ldr	r3, [r3, #8]
 8004bbc:	2b00      	cmp	r3, #0
 8004bbe:	d102      	bne.n	8004bc6 <HAL_SPI_TransmitReceive+0x46>
 8004bc0:	7ffb      	ldrb	r3, [r7, #31]
 8004bc2:	2b04      	cmp	r3, #4
 8004bc4:	d001      	beq.n	8004bca <HAL_SPI_TransmitReceive+0x4a>
  {
    return HAL_BUSY;
 8004bc6:	2302      	movs	r3, #2
 8004bc8:	e17f      	b.n	8004eca <HAL_SPI_TransmitReceive+0x34a>
  }

  if ((pTxData == NULL) || (pRxData == NULL) || (Size == 0U))
 8004bca:	68bb      	ldr	r3, [r7, #8]
 8004bcc:	2b00      	cmp	r3, #0
 8004bce:	d005      	beq.n	8004bdc <HAL_SPI_TransmitReceive+0x5c>
 8004bd0:	687b      	ldr	r3, [r7, #4]
 8004bd2:	2b00      	cmp	r3, #0
 8004bd4:	d002      	beq.n	8004bdc <HAL_SPI_TransmitReceive+0x5c>
 8004bd6:	887b      	ldrh	r3, [r7, #2]
 8004bd8:	2b00      	cmp	r3, #0
 8004bda:	d101      	bne.n	8004be0 <HAL_SPI_TransmitReceive+0x60>
  {
    return HAL_ERROR;
 8004bdc:	2301      	movs	r3, #1
 8004bde:	e174      	b.n	8004eca <HAL_SPI_TransmitReceive+0x34a>
  }

  /* Process Locked */
  __HAL_LOCK(hspi);
 8004be0:	68fb      	ldr	r3, [r7, #12]
 8004be2:	f893 3050 	ldrb.w	r3, [r3, #80]	@ 0x50
 8004be6:	2b01      	cmp	r3, #1
 8004be8:	d101      	bne.n	8004bee <HAL_SPI_TransmitReceive+0x6e>
 8004bea:	2302      	movs	r3, #2
 8004bec:	e16d      	b.n	8004eca <HAL_SPI_TransmitReceive+0x34a>
 8004bee:	68fb      	ldr	r3, [r7, #12]
 8004bf0:	2201      	movs	r2, #1
 8004bf2:	f883 2050 	strb.w	r2, [r3, #80]	@ 0x50

  /* Don't overwrite in case of HAL_SPI_STATE_BUSY_RX */
  if (hspi->State != HAL_SPI_STATE_BUSY_RX)
 8004bf6:	68fb      	ldr	r3, [r7, #12]
 8004bf8:	f893 3051 	ldrb.w	r3, [r3, #81]	@ 0x51
 8004bfc:	b2db      	uxtb	r3, r3
 8004bfe:	2b04      	cmp	r3, #4
 8004c00:	d003      	beq.n	8004c0a <HAL_SPI_TransmitReceive+0x8a>
  {
    hspi->State = HAL_SPI_STATE_BUSY_TX_RX;
 8004c02:	68fb      	ldr	r3, [r7, #12]
 8004c04:	2205      	movs	r2, #5
 8004c06:	f883 2051 	strb.w	r2, [r3, #81]	@ 0x51
  }

  /* Set the transaction information */
  hspi->ErrorCode   = HAL_SPI_ERROR_NONE;
 8004c0a:	68fb      	ldr	r3, [r7, #12]
 8004c0c:	2200      	movs	r2, #0
 8004c0e:	655a      	str	r2, [r3, #84]	@ 0x54
  hspi->pRxBuffPtr  = (uint8_t *)pRxData;
 8004c10:	68fb      	ldr	r3, [r7, #12]
 8004c12:	687a      	ldr	r2, [r7, #4]
 8004c14:	639a      	str	r2, [r3, #56]	@ 0x38
  hspi->RxXferCount = Size;
 8004c16:	68fb      	ldr	r3, [r7, #12]
 8004c18:	887a      	ldrh	r2, [r7, #2]
 8004c1a:	87da      	strh	r2, [r3, #62]	@ 0x3e
  hspi->RxXferSize  = Size;
 8004c1c:	68fb      	ldr	r3, [r7, #12]
 8004c1e:	887a      	ldrh	r2, [r7, #2]
 8004c20:	879a      	strh	r2, [r3, #60]	@ 0x3c
  hspi->pTxBuffPtr  = (const uint8_t *)pTxData;
 8004c22:	68fb      	ldr	r3, [r7, #12]
 8004c24:	68ba      	ldr	r2, [r7, #8]
 8004c26:	631a      	str	r2, [r3, #48]	@ 0x30
  hspi->TxXferCount = Size;
 8004c28:	68fb      	ldr	r3, [r7, #12]
 8004c2a:	887a      	ldrh	r2, [r7, #2]
 8004c2c:	86da      	strh	r2, [r3, #54]	@ 0x36
  hspi->TxXferSize  = Size;
 8004c2e:	68fb      	ldr	r3, [r7, #12]
 8004c30:	887a      	ldrh	r2, [r7, #2]
 8004c32:	869a      	strh	r2, [r3, #52]	@ 0x34

  /*Init field not used in handle to zero */
  hspi->RxISR       = NULL;
 8004c34:	68fb      	ldr	r3, [r7, #12]
 8004c36:	2200      	movs	r2, #0
 8004c38:	641a      	str	r2, [r3, #64]	@ 0x40
  hspi->TxISR       = NULL;
 8004c3a:	68fb      	ldr	r3, [r7, #12]
 8004c3c:	2200      	movs	r2, #0
 8004c3e:	645a      	str	r2, [r3, #68]	@ 0x44
    SPI_RESET_CRC(hspi);
  }
#endif /* USE_SPI_CRC */

  /* Check if the SPI is already enabled */
  if ((hspi->Instance->CR1 & SPI_CR1_SPE) != SPI_CR1_SPE)
 8004c40:	68fb      	ldr	r3, [r7, #12]
 8004c42:	681b      	ldr	r3, [r3, #0]
 8004c44:	681b      	ldr	r3, [r3, #0]
 8004c46:	f003 0340 	and.w	r3, r3, #64	@ 0x40
 8004c4a:	2b40      	cmp	r3, #64	@ 0x40
 8004c4c:	d007      	beq.n	8004c5e <HAL_SPI_TransmitReceive+0xde>
  {
    /* Enable SPI peripheral */
    __HAL_SPI_ENABLE(hspi);
 8004c4e:	68fb      	ldr	r3, [r7, #12]
 8004c50:	681b      	ldr	r3, [r3, #0]
 8004c52:	681a      	ldr	r2, [r3, #0]
 8004c54:	68fb      	ldr	r3, [r7, #12]
 8004c56:	681b      	ldr	r3, [r3, #0]
 8004c58:	f042 0240 	orr.w	r2, r2, #64	@ 0x40
 8004c5c:	601a      	str	r2, [r3, #0]
  }

  /* Transmit and Receive data in 16 Bit mode */
  if (hspi->Init.DataSize == SPI_DATASIZE_16BIT)
 8004c5e:	68fb      	ldr	r3, [r7, #12]
 8004c60:	68db      	ldr	r3, [r3, #12]
 8004c62:	f5b3 6f00 	cmp.w	r3, #2048	@ 0x800
 8004c66:	d17e      	bne.n	8004d66 <HAL_SPI_TransmitReceive+0x1e6>
  {
    if ((hspi->Init.Mode == SPI_MODE_SLAVE) || (initial_TxXferCount == 0x01U))
 8004c68:	68fb      	ldr	r3, [r7, #12]
 8004c6a:	685b      	ldr	r3, [r3, #4]
 8004c6c:	2b00      	cmp	r3, #0
 8004c6e:	d002      	beq.n	8004c76 <HAL_SPI_TransmitReceive+0xf6>
 8004c70:	8afb      	ldrh	r3, [r7, #22]
 8004c72:	2b01      	cmp	r3, #1
 8004c74:	d16c      	bne.n	8004d50 <HAL_SPI_TransmitReceive+0x1d0>
    {
      hspi->Instance->DR = *((const uint16_t *)hspi->pTxBuffPtr);
 8004c76:	68fb      	ldr	r3, [r7, #12]
 8004c78:	6b1b      	ldr	r3, [r3, #48]	@ 0x30
 8004c7a:	881a      	ldrh	r2, [r3, #0]
 8004c7c:	68fb      	ldr	r3, [r7, #12]
 8004c7e:	681b      	ldr	r3, [r3, #0]
 8004c80:	60da      	str	r2, [r3, #12]
      hspi->pTxBuffPtr += sizeof(uint16_t);
 8004c82:	68fb      	ldr	r3, [r7, #12]
 8004c84:	6b1b      	ldr	r3, [r3, #48]	@ 0x30
 8004c86:	1c9a      	adds	r2, r3, #2
 8004c88:	68fb      	ldr	r3, [r7, #12]
 8004c8a:	631a      	str	r2, [r3, #48]	@ 0x30
      hspi->TxXferCount--;
 8004c8c:	68fb      	ldr	r3, [r7, #12]
 8004c8e:	8edb      	ldrh	r3, [r3, #54]	@ 0x36
 8004c90:	b29b      	uxth	r3, r3
 8004c92:	3b01      	subs	r3, #1
 8004c94:	b29a      	uxth	r2, r3
 8004c96:	68fb      	ldr	r3, [r7, #12]
 8004c98:	86da      	strh	r2, [r3, #54]	@ 0x36
        SET_BIT(hspi->Instance->CR1, SPI_CR1_CRCNEXT);
      }
#endif /* USE_SPI_CRC */

    }
    while ((hspi->TxXferCount > 0U) || (hspi->RxXferCount > 0U))
 8004c9a:	e059      	b.n	8004d50 <HAL_SPI_TransmitReceive+0x1d0>
    {
      /* Check TXE flag */
      if ((__HAL_SPI_GET_FLAG(hspi, SPI_FLAG_TXE)) && (hspi->TxXferCount > 0U) && (txallowed == 1U))
 8004c9c:	68fb      	ldr	r3, [r7, #12]
 8004c9e:	681b      	ldr	r3, [r3, #0]
 8004ca0:	689b      	ldr	r3, [r3, #8]
 8004ca2:	f003 0302 	and.w	r3, r3, #2
 8004ca6:	2b02      	cmp	r3, #2
 8004ca8:	d11b      	bne.n	8004ce2 <HAL_SPI_TransmitReceive+0x162>
 8004caa:	68fb      	ldr	r3, [r7, #12]
 8004cac:	8edb      	ldrh	r3, [r3, #54]	@ 0x36
 8004cae:	b29b      	uxth	r3, r3
 8004cb0:	2b00      	cmp	r3, #0
 8004cb2:	d016      	beq.n	8004ce2 <HAL_SPI_TransmitReceive+0x162>
 8004cb4:	6a7b      	ldr	r3, [r7, #36]	@ 0x24
 8004cb6:	2b01      	cmp	r3, #1
 8004cb8:	d113      	bne.n	8004ce2 <HAL_SPI_TransmitReceive+0x162>
      {
        hspi->Instance->DR = *((const uint16_t *)hspi->pTxBuffPtr);
 8004cba:	68fb      	ldr	r3, [r7, #12]
 8004cbc:	6b1b      	ldr	r3, [r3, #48]	@ 0x30
 8004cbe:	881a      	ldrh	r2, [r3, #0]
 8004cc0:	68fb      	ldr	r3, [r7, #12]
 8004cc2:	681b      	ldr	r3, [r3, #0]
 8004cc4:	60da      	str	r2, [r3, #12]
        hspi->pTxBuffPtr += sizeof(uint16_t);
 8004cc6:	68fb      	ldr	r3, [r7, #12]
 8004cc8:	6b1b      	ldr	r3, [r3, #48]	@ 0x30
 8004cca:	1c9a      	adds	r2, r3, #2
 8004ccc:	68fb      	ldr	r3, [r7, #12]
 8004cce:	631a      	str	r2, [r3, #48]	@ 0x30
        hspi->TxXferCount--;
 8004cd0:	68fb      	ldr	r3, [r7, #12]
 8004cd2:	8edb      	ldrh	r3, [r3, #54]	@ 0x36
 8004cd4:	b29b      	uxth	r3, r3
 8004cd6:	3b01      	subs	r3, #1
 8004cd8:	b29a      	uxth	r2, r3
 8004cda:	68fb      	ldr	r3, [r7, #12]
 8004cdc:	86da      	strh	r2, [r3, #54]	@ 0x36
        /* Next Data is a reception (Rx). Tx not allowed */
        txallowed = 0U;
 8004cde:	2300      	movs	r3, #0
 8004ce0:	627b      	str	r3, [r7, #36]	@ 0x24
        }
#endif /* USE_SPI_CRC */
      }

      /* Check RXNE flag */
      if ((__HAL_SPI_GET_FLAG(hspi, SPI_FLAG_RXNE)) && (hspi->RxXferCount > 0U))
 8004ce2:	68fb      	ldr	r3, [r7, #12]
 8004ce4:	681b      	ldr	r3, [r3, #0]
 8004ce6:	689b      	ldr	r3, [r3, #8]
 8004ce8:	f003 0301 	and.w	r3, r3, #1
 8004cec:	2b01      	cmp	r3, #1
 8004cee:	d119      	bne.n	8004d24 <HAL_SPI_TransmitReceive+0x1a4>
 8004cf0:	68fb      	ldr	r3, [r7, #12]
 8004cf2:	8fdb      	ldrh	r3, [r3, #62]	@ 0x3e
 8004cf4:	b29b      	uxth	r3, r3
 8004cf6:	2b00      	cmp	r3, #0
 8004cf8:	d014      	beq.n	8004d24 <HAL_SPI_TransmitReceive+0x1a4>
      {
        *((uint16_t *)hspi->pRxBuffPtr) = (uint16_t)hspi->Instance->DR;
 8004cfa:	68fb      	ldr	r3, [r7, #12]
 8004cfc:	681b      	ldr	r3, [r3, #0]
 8004cfe:	68da      	ldr	r2, [r3, #12]
 8004d00:	68fb      	ldr	r3, [r7, #12]
 8004d02:	6b9b      	ldr	r3, [r3, #56]	@ 0x38
 8004d04:	b292      	uxth	r2, r2
 8004d06:	801a      	strh	r2, [r3, #0]
        hspi->pRxBuffPtr += sizeof(uint16_t);
 8004d08:	68fb      	ldr	r3, [r7, #12]
 8004d0a:	6b9b      	ldr	r3, [r3, #56]	@ 0x38
 8004d0c:	1c9a      	adds	r2, r3, #2
 8004d0e:	68fb      	ldr	r3, [r7, #12]
 8004d10:	639a      	str	r2, [r3, #56]	@ 0x38
        hspi->RxXferCount--;
 8004d12:	68fb      	ldr	r3, [r7, #12]
 8004d14:	8fdb      	ldrh	r3, [r3, #62]	@ 0x3e
 8004d16:	b29b      	uxth	r3, r3
 8004d18:	3b01      	subs	r3, #1
 8004d1a:	b29a      	uxth	r2, r3
 8004d1c:	68fb      	ldr	r3, [r7, #12]
 8004d1e:	87da      	strh	r2, [r3, #62]	@ 0x3e
        /* Next Data is a Transmission (Tx). Tx is allowed */
        txallowed = 1U;
 8004d20:	2301      	movs	r3, #1
 8004d22:	627b      	str	r3, [r7, #36]	@ 0x24
      }
      if (((HAL_GetTick() - tickstart) >=  Timeout) && (Timeout != HAL_MAX_DELAY))
 8004d24:	f7fe f92c 	bl	8002f80 <HAL_GetTick>
 8004d28:	4602      	mov	r2, r0
 8004d2a:	6a3b      	ldr	r3, [r7, #32]
 8004d2c:	1ad3      	subs	r3, r2, r3
 8004d2e:	6b3a      	ldr	r2, [r7, #48]	@ 0x30
 8004d30:	429a      	cmp	r2, r3
 8004d32:	d80d      	bhi.n	8004d50 <HAL_SPI_TransmitReceive+0x1d0>
 8004d34:	6b3b      	ldr	r3, [r7, #48]	@ 0x30
 8004d36:	f1b3 3fff 	cmp.w	r3, #4294967295
 8004d3a:	d009      	beq.n	8004d50 <HAL_SPI_TransmitReceive+0x1d0>
      {
        hspi->State = HAL_SPI_STATE_READY;
 8004d3c:	68fb      	ldr	r3, [r7, #12]
 8004d3e:	2201      	movs	r2, #1
 8004d40:	f883 2051 	strb.w	r2, [r3, #81]	@ 0x51
        __HAL_UNLOCK(hspi);
 8004d44:	68fb      	ldr	r3, [r7, #12]
 8004d46:	2200      	movs	r2, #0
 8004d48:	f883 2050 	strb.w	r2, [r3, #80]	@ 0x50
        return HAL_TIMEOUT;
 8004d4c:	2303      	movs	r3, #3
 8004d4e:	e0bc      	b.n	8004eca <HAL_SPI_TransmitReceive+0x34a>
    while ((hspi->TxXferCount > 0U) || (hspi->RxXferCount > 0U))
 8004d50:	68fb      	ldr	r3, [r7, #12]
 8004d52:	8edb      	ldrh	r3, [r3, #54]	@ 0x36
 8004d54:	b29b      	uxth	r3, r3
 8004d56:	2b00      	cmp	r3, #0
 8004d58:	d1a0      	bne.n	8004c9c <HAL_SPI_TransmitReceive+0x11c>
 8004d5a:	68fb      	ldr	r3, [r7, #12]
 8004d5c:	8fdb      	ldrh	r3, [r3, #62]	@ 0x3e
 8004d5e:	b29b      	uxth	r3, r3
 8004d60:	2b00      	cmp	r3, #0
 8004d62:	d19b      	bne.n	8004c9c <HAL_SPI_TransmitReceive+0x11c>
 8004d64:	e082      	b.n	8004e6c <HAL_SPI_TransmitReceive+0x2ec>
    }
  }
  /* Transmit and Receive data in 8 Bit mode */
  else
  {
    if ((hspi->Init.Mode == SPI_MODE_SLAVE) || (initial_TxXferCount == 0x01U))
 8004d66:	68fb      	ldr	r3, [r7, #12]
 8004d68:	685b      	ldr	r3, [r3, #4]
 8004d6a:	2b00      	cmp	r3, #0
 8004d6c:	d002      	beq.n	8004d74 <HAL_SPI_TransmitReceive+0x1f4>
 8004d6e:	8afb      	ldrh	r3, [r7, #22]
 8004d70:	2b01      	cmp	r3, #1
 8004d72:	d171      	bne.n	8004e58 <HAL_SPI_TransmitReceive+0x2d8>
    {
      *((__IO uint8_t *)&hspi->Instance->DR) = *((const uint8_t *)hspi->pTxBuffPtr);
 8004d74:	68fb      	ldr	r3, [r7, #12]
 8004d76:	6b1a      	ldr	r2, [r3, #48]	@ 0x30
 8004d78:	68fb      	ldr	r3, [r7, #12]
 8004d7a:	681b      	ldr	r3, [r3, #0]
 8004d7c:	330c      	adds	r3, #12
 8004d7e:	7812      	ldrb	r2, [r2, #0]
 8004d80:	701a      	strb	r2, [r3, #0]
      hspi->pTxBuffPtr += sizeof(uint8_t);
 8004d82:	68fb      	ldr	r3, [r7, #12]
 8004d84:	6b1b      	ldr	r3, [r3, #48]	@ 0x30
 8004d86:	1c5a      	adds	r2, r3, #1
 8004d88:	68fb      	ldr	r3, [r7, #12]
 8004d8a:	631a      	str	r2, [r3, #48]	@ 0x30
      hspi->TxXferCount--;
 8004d8c:	68fb      	ldr	r3, [r7, #12]
 8004d8e:	8edb      	ldrh	r3, [r3, #54]	@ 0x36
 8004d90:	b29b      	uxth	r3, r3
 8004d92:	3b01      	subs	r3, #1
 8004d94:	b29a      	uxth	r2, r3
 8004d96:	68fb      	ldr	r3, [r7, #12]
 8004d98:	86da      	strh	r2, [r3, #54]	@ 0x36
      {
        SET_BIT(hspi->Instance->CR1, SPI_CR1_CRCNEXT);
      }
#endif /* USE_SPI_CRC */
    }
    while ((hspi->TxXferCount > 0U) || (hspi->RxXferCount > 0U))
 8004d9a:	e05d      	b.n	8004e58 <HAL_SPI_TransmitReceive+0x2d8>
    {
      /* Check TXE flag */
      if ((__HAL_SPI_GET_FLAG(hspi, SPI_FLAG_TXE)) && (hspi->TxXferCount > 0U) && (txallowed == 1U))
 8004d9c:	68fb      	ldr	r3, [r7, #12]
 8004d9e:	681b      	ldr	r3, [r3, #0]
 8004da0:	689b      	ldr	r3, [r3, #8]
 8004da2:	f003 0302 	and.w	r3, r3, #2
 8004da6:	2b02      	cmp	r3, #2
 8004da8:	d11c      	bne.n	8004de4 <HAL_SPI_TransmitReceive+0x264>
 8004daa:	68fb      	ldr	r3, [r7, #12]
 8004dac:	8edb      	ldrh	r3, [r3, #54]	@ 0x36
 8004dae:	b29b      	uxth	r3, r3
 8004db0:	2b00      	cmp	r3, #0
 8004db2:	d017      	beq.n	8004de4 <HAL_SPI_TransmitReceive+0x264>
 8004db4:	6a7b      	ldr	r3, [r7, #36]	@ 0x24
 8004db6:	2b01      	cmp	r3, #1
 8004db8:	d114      	bne.n	8004de4 <HAL_SPI_TransmitReceive+0x264>
      {
        *(__IO uint8_t *)&hspi->Instance->DR = *((const uint8_t *)hspi->pTxBuffPtr);
 8004dba:	68fb      	ldr	r3, [r7, #12]
 8004dbc:	6b1a      	ldr	r2, [r3, #48]	@ 0x30
 8004dbe:	68fb      	ldr	r3, [r7, #12]
 8004dc0:	681b      	ldr	r3, [r3, #0]
 8004dc2:	330c      	adds	r3, #12
 8004dc4:	7812      	ldrb	r2, [r2, #0]
 8004dc6:	701a      	strb	r2, [r3, #0]
        hspi->pTxBuffPtr++;
 8004dc8:	68fb      	ldr	r3, [r7, #12]
 8004dca:	6b1b      	ldr	r3, [r3, #48]	@ 0x30
 8004dcc:	1c5a      	adds	r2, r3, #1
 8004dce:	68fb      	ldr	r3, [r7, #12]
 8004dd0:	631a      	str	r2, [r3, #48]	@ 0x30
        hspi->TxXferCount--;
 8004dd2:	68fb      	ldr	r3, [r7, #12]
 8004dd4:	8edb      	ldrh	r3, [r3, #54]	@ 0x36
 8004dd6:	b29b      	uxth	r3, r3
 8004dd8:	3b01      	subs	r3, #1
 8004dda:	b29a      	uxth	r2, r3
 8004ddc:	68fb      	ldr	r3, [r7, #12]
 8004dde:	86da      	strh	r2, [r3, #54]	@ 0x36
        /* Next Data is a reception (Rx). Tx not allowed */
        txallowed = 0U;
 8004de0:	2300      	movs	r3, #0
 8004de2:	627b      	str	r3, [r7, #36]	@ 0x24
        }
#endif /* USE_SPI_CRC */
      }

      /* Wait until RXNE flag is reset */
      if ((__HAL_SPI_GET_FLAG(hspi, SPI_FLAG_RXNE)) && (hspi->RxXferCount > 0U))
 8004de4:	68fb      	ldr	r3, [r7, #12]
 8004de6:	681b      	ldr	r3, [r3, #0]
 8004de8:	689b      	ldr	r3, [r3, #8]
 8004dea:	f003 0301 	and.w	r3, r3, #1
 8004dee:	2b01      	cmp	r3, #1
 8004df0:	d119      	bne.n	8004e26 <HAL_SPI_TransmitReceive+0x2a6>
 8004df2:	68fb      	ldr	r3, [r7, #12]
 8004df4:	8fdb      	ldrh	r3, [r3, #62]	@ 0x3e
 8004df6:	b29b      	uxth	r3, r3
 8004df8:	2b00      	cmp	r3, #0
 8004dfa:	d014      	beq.n	8004e26 <HAL_SPI_TransmitReceive+0x2a6>
      {
        (*(uint8_t *)hspi->pRxBuffPtr) = hspi->Instance->DR;
 8004dfc:	68fb      	ldr	r3, [r7, #12]
 8004dfe:	681b      	ldr	r3, [r3, #0]
 8004e00:	68da      	ldr	r2, [r3, #12]
 8004e02:	68fb      	ldr	r3, [r7, #12]
 8004e04:	6b9b      	ldr	r3, [r3, #56]	@ 0x38
 8004e06:	b2d2      	uxtb	r2, r2
 8004e08:	701a      	strb	r2, [r3, #0]
        hspi->pRxBuffPtr++;
 8004e0a:	68fb      	ldr	r3, [r7, #12]
 8004e0c:	6b9b      	ldr	r3, [r3, #56]	@ 0x38
 8004e0e:	1c5a      	adds	r2, r3, #1
 8004e10:	68fb      	ldr	r3, [r7, #12]
 8004e12:	639a      	str	r2, [r3, #56]	@ 0x38
        hspi->RxXferCount--;
 8004e14:	68fb      	ldr	r3, [r7, #12]
 8004e16:	8fdb      	ldrh	r3, [r3, #62]	@ 0x3e
 8004e18:	b29b      	uxth	r3, r3
 8004e1a:	3b01      	subs	r3, #1
 8004e1c:	b29a      	uxth	r2, r3
 8004e1e:	68fb      	ldr	r3, [r7, #12]
 8004e20:	87da      	strh	r2, [r3, #62]	@ 0x3e
        /* Next Data is a Transmission (Tx). Tx is allowed */
        txallowed = 1U;
 8004e22:	2301      	movs	r3, #1
 8004e24:	627b      	str	r3, [r7, #36]	@ 0x24
      }
      if ((((HAL_GetTick() - tickstart) >=  Timeout) && ((Timeout != HAL_MAX_DELAY))) || (Timeout == 0U))
 8004e26:	f7fe f8ab 	bl	8002f80 <HAL_GetTick>
 8004e2a:	4602      	mov	r2, r0
 8004e2c:	6a3b      	ldr	r3, [r7, #32]
 8004e2e:	1ad3      	subs	r3, r2, r3
 8004e30:	6b3a      	ldr	r2, [r7, #48]	@ 0x30
 8004e32:	429a      	cmp	r2, r3
 8004e34:	d803      	bhi.n	8004e3e <HAL_SPI_TransmitReceive+0x2be>
 8004e36:	6b3b      	ldr	r3, [r7, #48]	@ 0x30
 8004e38:	f1b3 3fff 	cmp.w	r3, #4294967295
 8004e3c:	d102      	bne.n	8004e44 <HAL_SPI_TransmitReceive+0x2c4>
 8004e3e:	6b3b      	ldr	r3, [r7, #48]	@ 0x30
 8004e40:	2b00      	cmp	r3, #0
 8004e42:	d109      	bne.n	8004e58 <HAL_SPI_TransmitReceive+0x2d8>
      {
        hspi->State = HAL_SPI_STATE_READY;
 8004e44:	68fb      	ldr	r3, [r7, #12]
 8004e46:	2201      	movs	r2, #1
 8004e48:	f883 2051 	strb.w	r2, [r3, #81]	@ 0x51
        __HAL_UNLOCK(hspi);
 8004e4c:	68fb      	ldr	r3, [r7, #12]
 8004e4e:	2200      	movs	r2, #0
 8004e50:	f883 2050 	strb.w	r2, [r3, #80]	@ 0x50
        return HAL_TIMEOUT;
 8004e54:	2303      	movs	r3, #3
 8004e56:	e038      	b.n	8004eca <HAL_SPI_TransmitReceive+0x34a>
    while ((hspi->TxXferCount > 0U) || (hspi->RxXferCount > 0U))
 8004e58:	68fb      	ldr	r3, [r7, #12]
 8004e5a:	8edb      	ldrh	r3, [r3, #54]	@ 0x36
 8004e5c:	b29b      	uxth	r3, r3
 8004e5e:	2b00      	cmp	r3, #0
 8004e60:	d19c      	bne.n	8004d9c <HAL_SPI_TransmitReceive+0x21c>
 8004e62:	68fb      	ldr	r3, [r7, #12]
 8004e64:	8fdb      	ldrh	r3, [r3, #62]	@ 0x3e
 8004e66:	b29b      	uxth	r3, r3
 8004e68:	2b00      	cmp	r3, #0
 8004e6a:	d197      	bne.n	8004d9c <HAL_SPI_TransmitReceive+0x21c>
    return HAL_ERROR;
  }
#endif /* USE_SPI_CRC */

  /* Check the end of the transaction */
  if (SPI_EndRxTxTransaction(hspi, Timeout, tickstart) != HAL_OK)
 8004e6c:	6a3a      	ldr	r2, [r7, #32]
 8004e6e:	6b39      	ldr	r1, [r7, #48]	@ 0x30
 8004e70:	68f8      	ldr	r0, [r7, #12]
 8004e72:	f000 f91d 	bl	80050b0 <SPI_EndRxTxTransaction>
 8004e76:	4603      	mov	r3, r0
 8004e78:	2b00      	cmp	r3, #0
 8004e7a:	d008      	beq.n	8004e8e <HAL_SPI_TransmitReceive+0x30e>
  {
    hspi->ErrorCode = HAL_SPI_ERROR_FLAG;
 8004e7c:	68fb      	ldr	r3, [r7, #12]
 8004e7e:	2220      	movs	r2, #32
 8004e80:	655a      	str	r2, [r3, #84]	@ 0x54
    __HAL_UNLOCK(hspi);
 8004e82:	68fb      	ldr	r3, [r7, #12]
 8004e84:	2200      	movs	r2, #0
 8004e86:	f883 2050 	strb.w	r2, [r3, #80]	@ 0x50
    return HAL_ERROR;
 8004e8a:	2301      	movs	r3, #1
 8004e8c:	e01d      	b.n	8004eca <HAL_SPI_TransmitReceive+0x34a>
  }

  /* Clear overrun flag in 2 Lines communication mode because received is not read */
  if (hspi->Init.Direction == SPI_DIRECTION_2LINES)
 8004e8e:	68fb      	ldr	r3, [r7, #12]
 8004e90:	689b      	ldr	r3, [r3, #8]
 8004e92:	2b00      	cmp	r3, #0
 8004e94:	d10a      	bne.n	8004eac <HAL_SPI_TransmitReceive+0x32c>
  {
    __HAL_SPI_CLEAR_OVRFLAG(hspi);
 8004e96:	2300      	movs	r3, #0
 8004e98:	613b      	str	r3, [r7, #16]
 8004e9a:	68fb      	ldr	r3, [r7, #12]
 8004e9c:	681b      	ldr	r3, [r3, #0]
 8004e9e:	68db      	ldr	r3, [r3, #12]
 8004ea0:	613b      	str	r3, [r7, #16]
 8004ea2:	68fb      	ldr	r3, [r7, #12]
 8004ea4:	681b      	ldr	r3, [r3, #0]
 8004ea6:	689b      	ldr	r3, [r3, #8]
 8004ea8:	613b      	str	r3, [r7, #16]
 8004eaa:	693b      	ldr	r3, [r7, #16]
  }


  hspi->State = HAL_SPI_STATE_READY;
 8004eac:	68fb      	ldr	r3, [r7, #12]
 8004eae:	2201      	movs	r2, #1
 8004eb0:	f883 2051 	strb.w	r2, [r3, #81]	@ 0x51
  /* Unlock the process */
  __HAL_UNLOCK(hspi);
 8004eb4:	68fb      	ldr	r3, [r7, #12]
 8004eb6:	2200      	movs	r2, #0
 8004eb8:	f883 2050 	strb.w	r2, [r3, #80]	@ 0x50

  if (hspi->ErrorCode != HAL_SPI_ERROR_NONE)
 8004ebc:	68fb      	ldr	r3, [r7, #12]
 8004ebe:	6d5b      	ldr	r3, [r3, #84]	@ 0x54
 8004ec0:	2b00      	cmp	r3, #0
 8004ec2:	d001      	beq.n	8004ec8 <HAL_SPI_TransmitReceive+0x348>
  {
    return HAL_ERROR;
 8004ec4:	2301      	movs	r3, #1
 8004ec6:	e000      	b.n	8004eca <HAL_SPI_TransmitReceive+0x34a>
  }
  else
  {
    return HAL_OK;
 8004ec8:	2300      	movs	r3, #0
  }
}
 8004eca:	4618      	mov	r0, r3
 8004ecc:	3728      	adds	r7, #40	@ 0x28
 8004ece:	46bd      	mov	sp, r7
 8004ed0:	bd80      	pop	{r7, pc}
	...

08004ed4 <SPI_WaitFlagStateUntilTimeout>:
  * @param  Tickstart tick start value
  * @retval HAL status
  */
static HAL_StatusTypeDef SPI_WaitFlagStateUntilTimeout(SPI_HandleTypeDef *hspi, uint32_t Flag, FlagStatus State,
                                                       uint32_t Timeout, uint32_t Tickstart)
{
 8004ed4:	b580      	push	{r7, lr}
 8004ed6:	b088      	sub	sp, #32
 8004ed8:	af00      	add	r7, sp, #0
 8004eda:	60f8      	str	r0, [r7, #12]
 8004edc:	60b9      	str	r1, [r7, #8]
 8004ede:	603b      	str	r3, [r7, #0]
 8004ee0:	4613      	mov	r3, r2
 8004ee2:	71fb      	strb	r3, [r7, #7]
  __IO uint32_t count;
  uint32_t tmp_timeout;
  uint32_t tmp_tickstart;

  /* Adjust Timeout value  in case of end of transfer */
  tmp_timeout   = Timeout - (HAL_GetTick() - Tickstart);
 8004ee4:	f7fe f84c 	bl	8002f80 <HAL_GetTick>
 8004ee8:	4602      	mov	r2, r0
 8004eea:	6abb      	ldr	r3, [r7, #40]	@ 0x28
 8004eec:	1a9b      	subs	r3, r3, r2
 8004eee:	683a      	ldr	r2, [r7, #0]
 8004ef0:	4413      	add	r3, r2
 8004ef2:	61fb      	str	r3, [r7, #28]
  tmp_tickstart = HAL_GetTick();
 8004ef4:	f7fe f844 	bl	8002f80 <HAL_GetTick>
 8004ef8:	61b8      	str	r0, [r7, #24]

  /* Calculate Timeout based on a software loop to avoid blocking issue if Systick is disabled */
  count = tmp_timeout * ((SystemCoreClock * 32U) >> 20U);
 8004efa:	4b39      	ldr	r3, [pc, #228]	@ (8004fe0 <SPI_WaitFlagStateUntilTimeout+0x10c>)
 8004efc:	681b      	ldr	r3, [r3, #0]
 8004efe:	015b      	lsls	r3, r3, #5
 8004f00:	0d1b      	lsrs	r3, r3, #20
 8004f02:	69fa      	ldr	r2, [r7, #28]
 8004f04:	fb02 f303 	mul.w	r3, r2, r3
 8004f08:	617b      	str	r3, [r7, #20]

  while ((__HAL_SPI_GET_FLAG(hspi, Flag) ? SET : RESET) != State)
 8004f0a:	e054      	b.n	8004fb6 <SPI_WaitFlagStateUntilTimeout+0xe2>
  {
    if (Timeout != HAL_MAX_DELAY)
 8004f0c:	683b      	ldr	r3, [r7, #0]
 8004f0e:	f1b3 3fff 	cmp.w	r3, #4294967295
 8004f12:	d050      	beq.n	8004fb6 <SPI_WaitFlagStateUntilTimeout+0xe2>
    {
      if (((HAL_GetTick() - tmp_tickstart) >= tmp_timeout) || (tmp_timeout == 0U))
 8004f14:	f7fe f834 	bl	8002f80 <HAL_GetTick>
 8004f18:	4602      	mov	r2, r0
 8004f1a:	69bb      	ldr	r3, [r7, #24]
 8004f1c:	1ad3      	subs	r3, r2, r3
 8004f1e:	69fa      	ldr	r2, [r7, #28]
 8004f20:	429a      	cmp	r2, r3
 8004f22:	d902      	bls.n	8004f2a <SPI_WaitFlagStateUntilTimeout+0x56>
 8004f24:	69fb      	ldr	r3, [r7, #28]
 8004f26:	2b00      	cmp	r3, #0
 8004f28:	d13d      	bne.n	8004fa6 <SPI_WaitFlagStateUntilTimeout+0xd2>
        /* Disable the SPI and reset the CRC: the CRC value should be cleared
           on both master and slave sides in order to resynchronize the master
           and slave for their respective CRC calculation */

        /* Disable TXE, RXNE and ERR interrupts for the interrupt process */
        __HAL_SPI_DISABLE_IT(hspi, (SPI_IT_TXE | SPI_IT_RXNE | SPI_IT_ERR));
 8004f2a:	68fb      	ldr	r3, [r7, #12]
 8004f2c:	681b      	ldr	r3, [r3, #0]
 8004f2e:	685a      	ldr	r2, [r3, #4]
 8004f30:	68fb      	ldr	r3, [r7, #12]
 8004f32:	681b      	ldr	r3, [r3, #0]
 8004f34:	f022 02e0 	bic.w	r2, r2, #224	@ 0xe0
 8004f38:	605a      	str	r2, [r3, #4]

        if ((hspi->Init.Mode == SPI_MODE_MASTER) && ((hspi->Init.Direction == SPI_DIRECTION_1LINE)
 8004f3a:	68fb      	ldr	r3, [r7, #12]
 8004f3c:	685b      	ldr	r3, [r3, #4]
 8004f3e:	f5b3 7f82 	cmp.w	r3, #260	@ 0x104
 8004f42:	d111      	bne.n	8004f68 <SPI_WaitFlagStateUntilTimeout+0x94>
 8004f44:	68fb      	ldr	r3, [r7, #12]
 8004f46:	689b      	ldr	r3, [r3, #8]
 8004f48:	f5b3 4f00 	cmp.w	r3, #32768	@ 0x8000
 8004f4c:	d004      	beq.n	8004f58 <SPI_WaitFlagStateUntilTimeout+0x84>
                                                     || (hspi->Init.Direction == SPI_DIRECTION_2LINES_RXONLY)))
 8004f4e:	68fb      	ldr	r3, [r7, #12]
 8004f50:	689b      	ldr	r3, [r3, #8]
 8004f52:	f5b3 6f80 	cmp.w	r3, #1024	@ 0x400
 8004f56:	d107      	bne.n	8004f68 <SPI_WaitFlagStateUntilTimeout+0x94>
        {
          /* Disable SPI peripheral */
          __HAL_SPI_DISABLE(hspi);
 8004f58:	68fb      	ldr	r3, [r7, #12]
 8004f5a:	681b      	ldr	r3, [r3, #0]
 8004f5c:	681a      	ldr	r2, [r3, #0]
 8004f5e:	68fb      	ldr	r3, [r7, #12]
 8004f60:	681b      	ldr	r3, [r3, #0]
 8004f62:	f022 0240 	bic.w	r2, r2, #64	@ 0x40
 8004f66:	601a      	str	r2, [r3, #0]
        }

        /* Reset CRC Calculation */
        if (hspi->Init.CRCCalculation == SPI_CRCCALCULATION_ENABLE)
 8004f68:	68fb      	ldr	r3, [r7, #12]
 8004f6a:	6a9b      	ldr	r3, [r3, #40]	@ 0x28
 8004f6c:	f5b3 5f00 	cmp.w	r3, #8192	@ 0x2000
 8004f70:	d10f      	bne.n	8004f92 <SPI_WaitFlagStateUntilTimeout+0xbe>
        {
          SPI_RESET_CRC(hspi);
 8004f72:	68fb      	ldr	r3, [r7, #12]
 8004f74:	681b      	ldr	r3, [r3, #0]
 8004f76:	681a      	ldr	r2, [r3, #0]
 8004f78:	68fb      	ldr	r3, [r7, #12]
 8004f7a:	681b      	ldr	r3, [r3, #0]
 8004f7c:	f422 5200 	bic.w	r2, r2, #8192	@ 0x2000
 8004f80:	601a      	str	r2, [r3, #0]
 8004f82:	68fb      	ldr	r3, [r7, #12]
 8004f84:	681b      	ldr	r3, [r3, #0]
 8004f86:	681a      	ldr	r2, [r3, #0]
 8004f88:	68fb      	ldr	r3, [r7, #12]
 8004f8a:	681b      	ldr	r3, [r3, #0]
 8004f8c:	f442 5200 	orr.w	r2, r2, #8192	@ 0x2000
 8004f90:	601a      	str	r2, [r3, #0]
        }

        hspi->State = HAL_SPI_STATE_READY;
 8004f92:	68fb      	ldr	r3, [r7, #12]
 8004f94:	2201      	movs	r2, #1
 8004f96:	f883 2051 	strb.w	r2, [r3, #81]	@ 0x51

        /* Process Unlocked */
        __HAL_UNLOCK(hspi);
 8004f9a:	68fb      	ldr	r3, [r7, #12]
 8004f9c:	2200      	movs	r2, #0
 8004f9e:	f883 2050 	strb.w	r2, [r3, #80]	@ 0x50

        return HAL_TIMEOUT;
 8004fa2:	2303      	movs	r3, #3
 8004fa4:	e017      	b.n	8004fd6 <SPI_WaitFlagStateUntilTimeout+0x102>
      }
      /* If Systick is disabled or not incremented, deactivate timeout to go in disable loop procedure */
      if (count == 0U)
 8004fa6:	697b      	ldr	r3, [r7, #20]
 8004fa8:	2b00      	cmp	r3, #0
 8004faa:	d101      	bne.n	8004fb0 <SPI_WaitFlagStateUntilTimeout+0xdc>
      {
        tmp_timeout = 0U;
 8004fac:	2300      	movs	r3, #0
 8004fae:	61fb      	str	r3, [r7, #28]
      }
      count--;
 8004fb0:	697b      	ldr	r3, [r7, #20]
 8004fb2:	3b01      	subs	r3, #1
 8004fb4:	617b      	str	r3, [r7, #20]
  while ((__HAL_SPI_GET_FLAG(hspi, Flag) ? SET : RESET) != State)
 8004fb6:	68fb      	ldr	r3, [r7, #12]
 8004fb8:	681b      	ldr	r3, [r3, #0]
 8004fba:	689a      	ldr	r2, [r3, #8]
 8004fbc:	68bb      	ldr	r3, [r7, #8]
 8004fbe:	4013      	ands	r3, r2
 8004fc0:	68ba      	ldr	r2, [r7, #8]
 8004fc2:	429a      	cmp	r2, r3
 8004fc4:	bf0c      	ite	eq
 8004fc6:	2301      	moveq	r3, #1
 8004fc8:	2300      	movne	r3, #0
 8004fca:	b2db      	uxtb	r3, r3
 8004fcc:	461a      	mov	r2, r3
 8004fce:	79fb      	ldrb	r3, [r7, #7]
 8004fd0:	429a      	cmp	r2, r3
 8004fd2:	d19b      	bne.n	8004f0c <SPI_WaitFlagStateUntilTimeout+0x38>
    }
  }

  return HAL_OK;
 8004fd4:	2300      	movs	r3, #0
}
 8004fd6:	4618      	mov	r0, r3
 8004fd8:	3720      	adds	r7, #32
 8004fda:	46bd      	mov	sp, r7
 8004fdc:	bd80      	pop	{r7, pc}
 8004fde:	bf00      	nop
 8004fe0:	20000004 	.word	0x20000004

08004fe4 <SPI_EndRxTransaction>:
  * @param  Timeout Timeout duration
  * @param  Tickstart tick start value
  * @retval HAL status
  */
static HAL_StatusTypeDef SPI_EndRxTransaction(SPI_HandleTypeDef *hspi,  uint32_t Timeout, uint32_t Tickstart)
{
 8004fe4:	b580      	push	{r7, lr}
 8004fe6:	b086      	sub	sp, #24
 8004fe8:	af02      	add	r7, sp, #8
 8004fea:	60f8      	str	r0, [r7, #12]
 8004fec:	60b9      	str	r1, [r7, #8]
 8004fee:	607a      	str	r2, [r7, #4]
  if ((hspi->Init.Mode == SPI_MODE_MASTER) && ((hspi->Init.Direction == SPI_DIRECTION_1LINE)
 8004ff0:	68fb      	ldr	r3, [r7, #12]
 8004ff2:	685b      	ldr	r3, [r3, #4]
 8004ff4:	f5b3 7f82 	cmp.w	r3, #260	@ 0x104
 8004ff8:	d111      	bne.n	800501e <SPI_EndRxTransaction+0x3a>
 8004ffa:	68fb      	ldr	r3, [r7, #12]
 8004ffc:	689b      	ldr	r3, [r3, #8]
 8004ffe:	f5b3 4f00 	cmp.w	r3, #32768	@ 0x8000
 8005002:	d004      	beq.n	800500e <SPI_EndRxTransaction+0x2a>
                                               || (hspi->Init.Direction == SPI_DIRECTION_2LINES_RXONLY)))
 8005004:	68fb      	ldr	r3, [r7, #12]
 8005006:	689b      	ldr	r3, [r3, #8]
 8005008:	f5b3 6f80 	cmp.w	r3, #1024	@ 0x400
 800500c:	d107      	bne.n	800501e <SPI_EndRxTransaction+0x3a>
  {
    /* Disable SPI peripheral */
    __HAL_SPI_DISABLE(hspi);
 800500e:	68fb      	ldr	r3, [r7, #12]
 8005010:	681b      	ldr	r3, [r3, #0]
 8005012:	681a      	ldr	r2, [r3, #0]
 8005014:	68fb      	ldr	r3, [r7, #12]
 8005016:	681b      	ldr	r3, [r3, #0]
 8005018:	f022 0240 	bic.w	r2, r2, #64	@ 0x40
 800501c:	601a      	str	r2, [r3, #0]
  }

  /* Erratasheet: BSY bit may stay high at the end of a data transfer in Slave mode */
  if (hspi->Init.Mode == SPI_MODE_MASTER)
 800501e:	68fb      	ldr	r3, [r7, #12]
 8005020:	685b      	ldr	r3, [r3, #4]
 8005022:	f5b3 7f82 	cmp.w	r3, #260	@ 0x104
 8005026:	d12a      	bne.n	800507e <SPI_EndRxTransaction+0x9a>
  {
    if (hspi->Init.Direction != SPI_DIRECTION_2LINES_RXONLY)
 8005028:	68fb      	ldr	r3, [r7, #12]
 800502a:	689b      	ldr	r3, [r3, #8]
 800502c:	f5b3 6f80 	cmp.w	r3, #1024	@ 0x400
 8005030:	d012      	beq.n	8005058 <SPI_EndRxTransaction+0x74>
    {
      /* Control the BSY flag */
      if (SPI_WaitFlagStateUntilTimeout(hspi, SPI_FLAG_BSY, RESET, Timeout, Tickstart) != HAL_OK)
 8005032:	687b      	ldr	r3, [r7, #4]
 8005034:	9300      	str	r3, [sp, #0]
 8005036:	68bb      	ldr	r3, [r7, #8]
 8005038:	2200      	movs	r2, #0
 800503a:	2180      	movs	r1, #128	@ 0x80
 800503c:	68f8      	ldr	r0, [r7, #12]
 800503e:	f7ff ff49 	bl	8004ed4 <SPI_WaitFlagStateUntilTimeout>
 8005042:	4603      	mov	r3, r0
 8005044:	2b00      	cmp	r3, #0
 8005046:	d02d      	beq.n	80050a4 <SPI_EndRxTransaction+0xc0>
      {
        SET_BIT(hspi->ErrorCode, HAL_SPI_ERROR_FLAG);
 8005048:	68fb      	ldr	r3, [r7, #12]
 800504a:	6d5b      	ldr	r3, [r3, #84]	@ 0x54
 800504c:	f043 0220 	orr.w	r2, r3, #32
 8005050:	68fb      	ldr	r3, [r7, #12]
 8005052:	655a      	str	r2, [r3, #84]	@ 0x54
        return HAL_TIMEOUT;
 8005054:	2303      	movs	r3, #3
 8005056:	e026      	b.n	80050a6 <SPI_EndRxTransaction+0xc2>
      }
    }
    else
    {
      /* Wait the RXNE reset */
      if (SPI_WaitFlagStateUntilTimeout(hspi, SPI_FLAG_RXNE, RESET, Timeout, Tickstart) != HAL_OK)
 8005058:	687b      	ldr	r3, [r7, #4]
 800505a:	9300      	str	r3, [sp, #0]
 800505c:	68bb      	ldr	r3, [r7, #8]
 800505e:	2200      	movs	r2, #0
 8005060:	2101      	movs	r1, #1
 8005062:	68f8      	ldr	r0, [r7, #12]
 8005064:	f7ff ff36 	bl	8004ed4 <SPI_WaitFlagStateUntilTimeout>
 8005068:	4603      	mov	r3, r0
 800506a:	2b00      	cmp	r3, #0
 800506c:	d01a      	beq.n	80050a4 <SPI_EndRxTransaction+0xc0>
      {
        SET_BIT(hspi->ErrorCode, HAL_SPI_ERROR_FLAG);
 800506e:	68fb      	ldr	r3, [r7, #12]
 8005070:	6d5b      	ldr	r3, [r3, #84]	@ 0x54
 8005072:	f043 0220 	orr.w	r2, r3, #32
 8005076:	68fb      	ldr	r3, [r7, #12]
 8005078:	655a      	str	r2, [r3, #84]	@ 0x54
        return HAL_TIMEOUT;
 800507a:	2303      	movs	r3, #3
 800507c:	e013      	b.n	80050a6 <SPI_EndRxTransaction+0xc2>
    }
  }
  else
  {
    /* Wait the RXNE reset */
    if (SPI_WaitFlagStateUntilTimeout(hspi, SPI_FLAG_RXNE, RESET, Timeout, Tickstart) != HAL_OK)
 800507e:	687b      	ldr	r3, [r7, #4]
 8005080:	9300      	str	r3, [sp, #0]
 8005082:	68bb      	ldr	r3, [r7, #8]
 8005084:	2200      	movs	r2, #0
 8005086:	2101      	movs	r1, #1
 8005088:	68f8      	ldr	r0, [r7, #12]
 800508a:	f7ff ff23 	bl	8004ed4 <SPI_WaitFlagStateUntilTimeout>
 800508e:	4603      	mov	r3, r0
 8005090:	2b00      	cmp	r3, #0
 8005092:	d007      	beq.n	80050a4 <SPI_EndRxTransaction+0xc0>
    {
      SET_BIT(hspi->ErrorCode, HAL_SPI_ERROR_FLAG);
 8005094:	68fb      	ldr	r3, [r7, #12]
 8005096:	6d5b      	ldr	r3, [r3, #84]	@ 0x54
 8005098:	f043 0220 	orr.w	r2, r3, #32
 800509c:	68fb      	ldr	r3, [r7, #12]
 800509e:	655a      	str	r2, [r3, #84]	@ 0x54
      return HAL_TIMEOUT;
 80050a0:	2303      	movs	r3, #3
 80050a2:	e000      	b.n	80050a6 <SPI_EndRxTransaction+0xc2>
    }
  }
  return HAL_OK;
 80050a4:	2300      	movs	r3, #0
}
 80050a6:	4618      	mov	r0, r3
 80050a8:	3710      	adds	r7, #16
 80050aa:	46bd      	mov	sp, r7
 80050ac:	bd80      	pop	{r7, pc}
	...

080050b0 <SPI_EndRxTxTransaction>:
  * @param  Timeout Timeout duration
  * @param  Tickstart tick start value
  * @retval HAL status
  */
static HAL_StatusTypeDef SPI_EndRxTxTransaction(SPI_HandleTypeDef *hspi, uint32_t Timeout, uint32_t Tickstart)
{
 80050b0:	b580      	push	{r7, lr}
 80050b2:	b088      	sub	sp, #32
 80050b4:	af02      	add	r7, sp, #8
 80050b6:	60f8      	str	r0, [r7, #12]
 80050b8:	60b9      	str	r1, [r7, #8]
 80050ba:	607a      	str	r2, [r7, #4]
  /* Wait until TXE flag */
  if(SPI_WaitFlagStateUntilTimeout(hspi, SPI_FLAG_TXE, SET, Timeout, Tickstart) != HAL_OK)
 80050bc:	687b      	ldr	r3, [r7, #4]
 80050be:	9300      	str	r3, [sp, #0]
 80050c0:	68bb      	ldr	r3, [r7, #8]
 80050c2:	2201      	movs	r2, #1
 80050c4:	2102      	movs	r1, #2
 80050c6:	68f8      	ldr	r0, [r7, #12]
 80050c8:	f7ff ff04 	bl	8004ed4 <SPI_WaitFlagStateUntilTimeout>
 80050cc:	4603      	mov	r3, r0
 80050ce:	2b00      	cmp	r3, #0
 80050d0:	d007      	beq.n	80050e2 <SPI_EndRxTxTransaction+0x32>
  {
    SET_BIT(hspi->ErrorCode, HAL_SPI_ERROR_FLAG);
 80050d2:	68fb      	ldr	r3, [r7, #12]
 80050d4:	6d5b      	ldr	r3, [r3, #84]	@ 0x54
 80050d6:	f043 0220 	orr.w	r2, r3, #32
 80050da:	68fb      	ldr	r3, [r7, #12]
 80050dc:	655a      	str	r2, [r3, #84]	@ 0x54
    return HAL_TIMEOUT;
 80050de:	2303      	movs	r3, #3
 80050e0:	e032      	b.n	8005148 <SPI_EndRxTxTransaction+0x98>
  }

  /* Timeout in s */
  __IO uint32_t count = SPI_BSY_FLAG_WORKAROUND_TIMEOUT * (SystemCoreClock / 24U / 1000000U);
 80050e2:	4b1b      	ldr	r3, [pc, #108]	@ (8005150 <SPI_EndRxTxTransaction+0xa0>)
 80050e4:	681b      	ldr	r3, [r3, #0]
 80050e6:	4a1b      	ldr	r2, [pc, #108]	@ (8005154 <SPI_EndRxTxTransaction+0xa4>)
 80050e8:	fba2 2303 	umull	r2, r3, r2, r3
 80050ec:	0d5b      	lsrs	r3, r3, #21
 80050ee:	f44f 727a 	mov.w	r2, #1000	@ 0x3e8
 80050f2:	fb02 f303 	mul.w	r3, r2, r3
 80050f6:	617b      	str	r3, [r7, #20]
  /* Erratasheet: BSY bit may stay high at the end of a data transfer in Slave mode */
  if (hspi->Init.Mode == SPI_MODE_MASTER)
 80050f8:	68fb      	ldr	r3, [r7, #12]
 80050fa:	685b      	ldr	r3, [r3, #4]
 80050fc:	f5b3 7f82 	cmp.w	r3, #260	@ 0x104
 8005100:	d112      	bne.n	8005128 <SPI_EndRxTxTransaction+0x78>
  {
    /* Control the BSY flag */
    if (SPI_WaitFlagStateUntilTimeout(hspi, SPI_FLAG_BSY, RESET, Timeout, Tickstart) != HAL_OK)
 8005102:	687b      	ldr	r3, [r7, #4]
 8005104:	9300      	str	r3, [sp, #0]
 8005106:	68bb      	ldr	r3, [r7, #8]
 8005108:	2200      	movs	r2, #0
 800510a:	2180      	movs	r1, #128	@ 0x80
 800510c:	68f8      	ldr	r0, [r7, #12]
 800510e:	f7ff fee1 	bl	8004ed4 <SPI_WaitFlagStateUntilTimeout>
 8005112:	4603      	mov	r3, r0
 8005114:	2b00      	cmp	r3, #0
 8005116:	d016      	beq.n	8005146 <SPI_EndRxTxTransaction+0x96>
    {
      SET_BIT(hspi->ErrorCode, HAL_SPI_ERROR_FLAG);
 8005118:	68fb      	ldr	r3, [r7, #12]
 800511a:	6d5b      	ldr	r3, [r3, #84]	@ 0x54
 800511c:	f043 0220 	orr.w	r2, r3, #32
 8005120:	68fb      	ldr	r3, [r7, #12]
 8005122:	655a      	str	r2, [r3, #84]	@ 0x54
      return HAL_TIMEOUT;
 8005124:	2303      	movs	r3, #3
 8005126:	e00f      	b.n	8005148 <SPI_EndRxTxTransaction+0x98>
    * User have to calculate the timeout value to fit with the time of 1 byte transfer.
    * This time is directly link with the SPI clock from Master device.
    */
    do
    {
      if (count == 0U)
 8005128:	697b      	ldr	r3, [r7, #20]
 800512a:	2b00      	cmp	r3, #0
 800512c:	d00a      	beq.n	8005144 <SPI_EndRxTxTransaction+0x94>
      {
        break;
      }
      count--;
 800512e:	697b      	ldr	r3, [r7, #20]
 8005130:	3b01      	subs	r3, #1
 8005132:	617b      	str	r3, [r7, #20]
    } while (__HAL_SPI_GET_FLAG(hspi, SPI_FLAG_BSY) != RESET);
 8005134:	68fb      	ldr	r3, [r7, #12]
 8005136:	681b      	ldr	r3, [r3, #0]
 8005138:	689b      	ldr	r3, [r3, #8]
 800513a:	f003 0380 	and.w	r3, r3, #128	@ 0x80
 800513e:	2b80      	cmp	r3, #128	@ 0x80
 8005140:	d0f2      	beq.n	8005128 <SPI_EndRxTxTransaction+0x78>
 8005142:	e000      	b.n	8005146 <SPI_EndRxTxTransaction+0x96>
        break;
 8005144:	bf00      	nop
  }

  return HAL_OK;
 8005146:	2300      	movs	r3, #0
}
 8005148:	4618      	mov	r0, r3
 800514a:	3718      	adds	r7, #24
 800514c:	46bd      	mov	sp, r7
 800514e:	bd80      	pop	{r7, pc}
 8005150:	20000004 	.word	0x20000004
 8005154:	165e9f81 	.word	0x165e9f81

08005158 <HAL_TIM_Base_Init>:
  *         Ex: call @ref HAL_TIM_Base_DeInit() before HAL_TIM_Base_Init()
  * @param  htim TIM Base handle
  * @retval HAL status
  */
HAL_StatusTypeDef HAL_TIM_Base_Init(TIM_HandleTypeDef *htim)
{
 8005158:	b580      	push	{r7, lr}
 800515a:	b082      	sub	sp, #8
 800515c:	af00      	add	r7, sp, #0
 800515e:	6078      	str	r0, [r7, #4]
  /* Check the TIM handle allocation */
  if (htim == NULL)
 8005160:	687b      	ldr	r3, [r7, #4]
 8005162:	2b00      	cmp	r3, #0
 8005164:	d101      	bne.n	800516a <HAL_TIM_Base_Init+0x12>
  {
    return HAL_ERROR;
 8005166:	2301      	movs	r3, #1
 8005168:	e041      	b.n	80051ee <HAL_TIM_Base_Init+0x96>
  assert_param(IS_TIM_COUNTER_MODE(htim->Init.CounterMode));
  assert_param(IS_TIM_CLOCKDIVISION_DIV(htim->Init.ClockDivision));
  assert_param(IS_TIM_PERIOD(htim, htim->Init.Period));
  assert_param(IS_TIM_AUTORELOAD_PRELOAD(htim->Init.AutoReloadPreload));

  if (htim->State == HAL_TIM_STATE_RESET)
 800516a:	687b      	ldr	r3, [r7, #4]
 800516c:	f893 303d 	ldrb.w	r3, [r3, #61]	@ 0x3d
 8005170:	b2db      	uxtb	r3, r3
 8005172:	2b00      	cmp	r3, #0
 8005174:	d106      	bne.n	8005184 <HAL_TIM_Base_Init+0x2c>
  {
    /* Allocate lock resource and initialize it */
    htim->Lock = HAL_UNLOCKED;
 8005176:	687b      	ldr	r3, [r7, #4]
 8005178:	2200      	movs	r2, #0
 800517a:	f883 203c 	strb.w	r2, [r3, #60]	@ 0x3c
    }
    /* Init the low level hardware : GPIO, CLOCK, NVIC */
    htim->Base_MspInitCallback(htim);
#else
    /* Init the low level hardware : GPIO, CLOCK, NVIC */
    HAL_TIM_Base_MspInit(htim);
 800517e:	6878      	ldr	r0, [r7, #4]
 8005180:	f000 f839 	bl	80051f6 <HAL_TIM_Base_MspInit>
#endif /* USE_HAL_TIM_REGISTER_CALLBACKS */
  }

  /* Set the TIM state */
  htim->State = HAL_TIM_STATE_BUSY;
 8005184:	687b      	ldr	r3, [r7, #4]
 8005186:	2202      	movs	r2, #2
 8005188:	f883 203d 	strb.w	r2, [r3, #61]	@ 0x3d

  /* Set the Time Base configuration */
  TIM_Base_SetConfig(htim->Instance, &htim->Init);
 800518c:	687b      	ldr	r3, [r7, #4]
 800518e:	681a      	ldr	r2, [r3, #0]
 8005190:	687b      	ldr	r3, [r7, #4]
 8005192:	3304      	adds	r3, #4
 8005194:	4619      	mov	r1, r3
 8005196:	4610      	mov	r0, r2
 8005198:	f000 f9c0 	bl	800551c <TIM_Base_SetConfig>

  /* Initialize the DMA burst operation state */
  htim->DMABurstState = HAL_DMA_BURST_STATE_READY;
 800519c:	687b      	ldr	r3, [r7, #4]
 800519e:	2201      	movs	r2, #1
 80051a0:	f883 2046 	strb.w	r2, [r3, #70]	@ 0x46

  /* Initialize the TIM channels state */
  TIM_CHANNEL_STATE_SET_ALL(htim, HAL_TIM_CHANNEL_STATE_READY);
 80051a4:	687b      	ldr	r3, [r7, #4]
 80051a6:	2201      	movs	r2, #1
 80051a8:	f883 203e 	strb.w	r2, [r3, #62]	@ 0x3e
 80051ac:	687b      	ldr	r3, [r7, #4]
 80051ae:	2201      	movs	r2, #1
 80051b0:	f883 203f 	strb.w	r2, [r3, #63]	@ 0x3f
 80051b4:	687b      	ldr	r3, [r7, #4]
 80051b6:	2201      	movs	r2, #1
 80051b8:	f883 2040 	strb.w	r2, [r3, #64]	@ 0x40
 80051bc:	687b      	ldr	r3, [r7, #4]
 80051be:	2201      	movs	r2, #1
 80051c0:	f883 2041 	strb.w	r2, [r3, #65]	@ 0x41
  TIM_CHANNEL_N_STATE_SET_ALL(htim, HAL_TIM_CHANNEL_STATE_READY);
 80051c4:	687b      	ldr	r3, [r7, #4]
 80051c6:	2201      	movs	r2, #1
 80051c8:	f883 2042 	strb.w	r2, [r3, #66]	@ 0x42
 80051cc:	687b      	ldr	r3, [r7, #4]
 80051ce:	2201      	movs	r2, #1
 80051d0:	f883 2043 	strb.w	r2, [r3, #67]	@ 0x43
 80051d4:	687b      	ldr	r3, [r7, #4]
 80051d6:	2201      	movs	r2, #1
 80051d8:	f883 2044 	strb.w	r2, [r3, #68]	@ 0x44
 80051dc:	687b      	ldr	r3, [r7, #4]
 80051de:	2201      	movs	r2, #1
 80051e0:	f883 2045 	strb.w	r2, [r3, #69]	@ 0x45

  /* Initialize the TIM state*/
  htim->State = HAL_TIM_STATE_READY;
 80051e4:	687b      	ldr	r3, [r7, #4]
 80051e6:	2201      	movs	r2, #1
 80051e8:	f883 203d 	strb.w	r2, [r3, #61]	@ 0x3d

  return HAL_OK;
 80051ec:	2300      	movs	r3, #0
}
 80051ee:	4618      	mov	r0, r3
 80051f0:	3708      	adds	r7, #8
 80051f2:	46bd      	mov	sp, r7
 80051f4:	bd80      	pop	{r7, pc}

080051f6 <HAL_TIM_Base_MspInit>:
  * @brief  Initializes the TIM Base MSP.
  * @param  htim TIM Base handle
  * @retval None
  */
__weak void HAL_TIM_Base_MspInit(TIM_HandleTypeDef *htim)
{
 80051f6:	b480      	push	{r7}
 80051f8:	b083      	sub	sp, #12
 80051fa:	af00      	add	r7, sp, #0
 80051fc:	6078      	str	r0, [r7, #4]
  UNUSED(htim);

  /* NOTE : This function should not be modified, when the callback is needed,
            the HAL_TIM_Base_MspInit could be implemented in the user file
   */
}
 80051fe:	bf00      	nop
 8005200:	370c      	adds	r7, #12
 8005202:	46bd      	mov	sp, r7
 8005204:	f85d 7b04 	ldr.w	r7, [sp], #4
 8005208:	4770      	bx	lr
	...

0800520c <HAL_TIM_Base_Start_IT>:
  * @brief  Starts the TIM Base generation in interrupt mode.
  * @param  htim TIM Base handle
  * @retval HAL status
  */
HAL_StatusTypeDef HAL_TIM_Base_Start_IT(TIM_HandleTypeDef *htim)
{
 800520c:	b480      	push	{r7}
 800520e:	b085      	sub	sp, #20
 8005210:	af00      	add	r7, sp, #0
 8005212:	6078      	str	r0, [r7, #4]

  /* Check the parameters */
  assert_param(IS_TIM_INSTANCE(htim->Instance));

  /* Check the TIM state */
  if (htim->State != HAL_TIM_STATE_READY)
 8005214:	687b      	ldr	r3, [r7, #4]
 8005216:	f893 303d 	ldrb.w	r3, [r3, #61]	@ 0x3d
 800521a:	b2db      	uxtb	r3, r3
 800521c:	2b01      	cmp	r3, #1
 800521e:	d001      	beq.n	8005224 <HAL_TIM_Base_Start_IT+0x18>
  {
    return HAL_ERROR;
 8005220:	2301      	movs	r3, #1
 8005222:	e04e      	b.n	80052c2 <HAL_TIM_Base_Start_IT+0xb6>
  }

  /* Set the TIM state */
  htim->State = HAL_TIM_STATE_BUSY;
 8005224:	687b      	ldr	r3, [r7, #4]
 8005226:	2202      	movs	r2, #2
 8005228:	f883 203d 	strb.w	r2, [r3, #61]	@ 0x3d

  /* Enable the TIM Update interrupt */
  __HAL_TIM_ENABLE_IT(htim, TIM_IT_UPDATE);
 800522c:	687b      	ldr	r3, [r7, #4]
 800522e:	681b      	ldr	r3, [r3, #0]
 8005230:	68da      	ldr	r2, [r3, #12]
 8005232:	687b      	ldr	r3, [r7, #4]
 8005234:	681b      	ldr	r3, [r3, #0]
 8005236:	f042 0201 	orr.w	r2, r2, #1
 800523a:	60da      	str	r2, [r3, #12]

  /* Enable the Peripheral, except in trigger mode where enable is automatically done with trigger */
  if (IS_TIM_SLAVE_INSTANCE(htim->Instance))
 800523c:	687b      	ldr	r3, [r7, #4]
 800523e:	681b      	ldr	r3, [r3, #0]
 8005240:	4a23      	ldr	r2, [pc, #140]	@ (80052d0 <HAL_TIM_Base_Start_IT+0xc4>)
 8005242:	4293      	cmp	r3, r2
 8005244:	d022      	beq.n	800528c <HAL_TIM_Base_Start_IT+0x80>
 8005246:	687b      	ldr	r3, [r7, #4]
 8005248:	681b      	ldr	r3, [r3, #0]
 800524a:	f1b3 4f80 	cmp.w	r3, #1073741824	@ 0x40000000
 800524e:	d01d      	beq.n	800528c <HAL_TIM_Base_Start_IT+0x80>
 8005250:	687b      	ldr	r3, [r7, #4]
 8005252:	681b      	ldr	r3, [r3, #0]
 8005254:	4a1f      	ldr	r2, [pc, #124]	@ (80052d4 <HAL_TIM_Base_Start_IT+0xc8>)
 8005256:	4293      	cmp	r3, r2
 8005258:	d018      	beq.n	800528c <HAL_TIM_Base_Start_IT+0x80>
 800525a:	687b      	ldr	r3, [r7, #4]
 800525c:	681b      	ldr	r3, [r3, #0]
 800525e:	4a1e      	ldr	r2, [pc, #120]	@ (80052d8 <HAL_TIM_Base_Start_IT+0xcc>)
 8005260:	4293      	cmp	r3, r2
 8005262:	d013      	beq.n	800528c <HAL_TIM_Base_Start_IT+0x80>
 8005264:	687b      	ldr	r3, [r7, #4]
 8005266:	681b      	ldr	r3, [r3, #0]
 8005268:	4a1c      	ldr	r2, [pc, #112]	@ (80052dc <HAL_TIM_Base_Start_IT+0xd0>)
 800526a:	4293      	cmp	r3, r2
 800526c:	d00e      	beq.n	800528c <HAL_TIM_Base_Start_IT+0x80>
 800526e:	687b      	ldr	r3, [r7, #4]
 8005270:	681b      	ldr	r3, [r3, #0]
 8005272:	4a1b      	ldr	r2, [pc, #108]	@ (80052e0 <HAL_TIM_Base_Start_IT+0xd4>)
 8005274:	4293      	cmp	r3, r2
 8005276:	d009      	beq.n	800528c <HAL_TIM_Base_Start_IT+0x80>
 8005278:	687b      	ldr	r3, [r7, #4]
 800527a:	681b      	ldr	r3, [r3, #0]
 800527c:	4a19      	ldr	r2, [pc, #100]	@ (80052e4 <HAL_TIM_Base_Start_IT+0xd8>)
 800527e:	4293      	cmp	r3, r2
 8005280:	d004      	beq.n	800528c <HAL_TIM_Base_Start_IT+0x80>
 8005282:	687b      	ldr	r3, [r7, #4]
 8005284:	681b      	ldr	r3, [r3, #0]
 8005286:	4a18      	ldr	r2, [pc, #96]	@ (80052e8 <HAL_TIM_Base_Start_IT+0xdc>)
 8005288:	4293      	cmp	r3, r2
 800528a:	d111      	bne.n	80052b0 <HAL_TIM_Base_Start_IT+0xa4>
  {
    tmpsmcr = htim->Instance->SMCR & TIM_SMCR_SMS;
 800528c:	687b      	ldr	r3, [r7, #4]
 800528e:	681b      	ldr	r3, [r3, #0]
 8005290:	689b      	ldr	r3, [r3, #8]
 8005292:	f003 0307 	and.w	r3, r3, #7
 8005296:	60fb      	str	r3, [r7, #12]
    if (!IS_TIM_SLAVEMODE_TRIGGER_ENABLED(tmpsmcr))
 8005298:	68fb      	ldr	r3, [r7, #12]
 800529a:	2b06      	cmp	r3, #6
 800529c:	d010      	beq.n	80052c0 <HAL_TIM_Base_Start_IT+0xb4>
    {
      __HAL_TIM_ENABLE(htim);
 800529e:	687b      	ldr	r3, [r7, #4]
 80052a0:	681b      	ldr	r3, [r3, #0]
 80052a2:	681a      	ldr	r2, [r3, #0]
 80052a4:	687b      	ldr	r3, [r7, #4]
 80052a6:	681b      	ldr	r3, [r3, #0]
 80052a8:	f042 0201 	orr.w	r2, r2, #1
 80052ac:	601a      	str	r2, [r3, #0]
    if (!IS_TIM_SLAVEMODE_TRIGGER_ENABLED(tmpsmcr))
 80052ae:	e007      	b.n	80052c0 <HAL_TIM_Base_Start_IT+0xb4>
    }
  }
  else
  {
    __HAL_TIM_ENABLE(htim);
 80052b0:	687b      	ldr	r3, [r7, #4]
 80052b2:	681b      	ldr	r3, [r3, #0]
 80052b4:	681a      	ldr	r2, [r3, #0]
 80052b6:	687b      	ldr	r3, [r7, #4]
 80052b8:	681b      	ldr	r3, [r3, #0]
 80052ba:	f042 0201 	orr.w	r2, r2, #1
 80052be:	601a      	str	r2, [r3, #0]
  }

  /* Return function status */
  return HAL_OK;
 80052c0:	2300      	movs	r3, #0
}
 80052c2:	4618      	mov	r0, r3
 80052c4:	3714      	adds	r7, #20
 80052c6:	46bd      	mov	sp, r7
 80052c8:	f85d 7b04 	ldr.w	r7, [sp], #4
 80052cc:	4770      	bx	lr
 80052ce:	bf00      	nop
 80052d0:	40010000 	.word	0x40010000
 80052d4:	40000400 	.word	0x40000400
 80052d8:	40000800 	.word	0x40000800
 80052dc:	40000c00 	.word	0x40000c00
 80052e0:	40010400 	.word	0x40010400
 80052e4:	40014000 	.word	0x40014000
 80052e8:	40001800 	.word	0x40001800

080052ec <HAL_TIM_IRQHandler>:
  * @brief  This function handles TIM interrupts requests.
  * @param  htim TIM  handle
  * @retval None
  */
void HAL_TIM_IRQHandler(TIM_HandleTypeDef *htim)
{
 80052ec:	b580      	push	{r7, lr}
 80052ee:	b084      	sub	sp, #16
 80052f0:	af00      	add	r7, sp, #0
 80052f2:	6078      	str	r0, [r7, #4]
  uint32_t itsource = htim->Instance->DIER;
 80052f4:	687b      	ldr	r3, [r7, #4]
 80052f6:	681b      	ldr	r3, [r3, #0]
 80052f8:	68db      	ldr	r3, [r3, #12]
 80052fa:	60fb      	str	r3, [r7, #12]
  uint32_t itflag   = htim->Instance->SR;
 80052fc:	687b      	ldr	r3, [r7, #4]
 80052fe:	681b      	ldr	r3, [r3, #0]
 8005300:	691b      	ldr	r3, [r3, #16]
 8005302:	60bb      	str	r3, [r7, #8]

  /* Capture compare 1 event */
  if ((itflag & (TIM_FLAG_CC1)) == (TIM_FLAG_CC1))
 8005304:	68bb      	ldr	r3, [r7, #8]
 8005306:	f003 0302 	and.w	r3, r3, #2
 800530a:	2b00      	cmp	r3, #0
 800530c:	d020      	beq.n	8005350 <HAL_TIM_IRQHandler+0x64>
  {
    if ((itsource & (TIM_IT_CC1)) == (TIM_IT_CC1))
 800530e:	68fb      	ldr	r3, [r7, #12]
 8005310:	f003 0302 	and.w	r3, r3, #2
 8005314:	2b00      	cmp	r3, #0
 8005316:	d01b      	beq.n	8005350 <HAL_TIM_IRQHandler+0x64>
    {
      {
        __HAL_TIM_CLEAR_FLAG(htim, TIM_FLAG_CC1);
 8005318:	687b      	ldr	r3, [r7, #4]
 800531a:	681b      	ldr	r3, [r3, #0]
 800531c:	f06f 0202 	mvn.w	r2, #2
 8005320:	611a      	str	r2, [r3, #16]
        htim->Channel = HAL_TIM_ACTIVE_CHANNEL_1;
 8005322:	687b      	ldr	r3, [r7, #4]
 8005324:	2201      	movs	r2, #1
 8005326:	771a      	strb	r2, [r3, #28]

        /* Input capture event */
        if ((htim->Instance->CCMR1 & TIM_CCMR1_CC1S) != 0x00U)
 8005328:	687b      	ldr	r3, [r7, #4]
 800532a:	681b      	ldr	r3, [r3, #0]
 800532c:	699b      	ldr	r3, [r3, #24]
 800532e:	f003 0303 	and.w	r3, r3, #3
 8005332:	2b00      	cmp	r3, #0
 8005334:	d003      	beq.n	800533e <HAL_TIM_IRQHandler+0x52>
        {
#if (USE_HAL_TIM_REGISTER_CALLBACKS == 1)
          htim->IC_CaptureCallback(htim);
#else
          HAL_TIM_IC_CaptureCallback(htim);
 8005336:	6878      	ldr	r0, [r7, #4]
 8005338:	f000 f8d2 	bl	80054e0 <HAL_TIM_IC_CaptureCallback>
 800533c:	e005      	b.n	800534a <HAL_TIM_IRQHandler+0x5e>
        {
#if (USE_HAL_TIM_REGISTER_CALLBACKS == 1)
          htim->OC_DelayElapsedCallback(htim);
          htim->PWM_PulseFinishedCallback(htim);
#else
          HAL_TIM_OC_DelayElapsedCallback(htim);
 800533e:	6878      	ldr	r0, [r7, #4]
 8005340:	f000 f8c4 	bl	80054cc <HAL_TIM_OC_DelayElapsedCallback>
          HAL_TIM_PWM_PulseFinishedCallback(htim);
 8005344:	6878      	ldr	r0, [r7, #4]
 8005346:	f000 f8d5 	bl	80054f4 <HAL_TIM_PWM_PulseFinishedCallback>
#endif /* USE_HAL_TIM_REGISTER_CALLBACKS */
        }
        htim->Channel = HAL_TIM_ACTIVE_CHANNEL_CLEARED;
 800534a:	687b      	ldr	r3, [r7, #4]
 800534c:	2200      	movs	r2, #0
 800534e:	771a      	strb	r2, [r3, #28]
      }
    }
  }
  /* Capture compare 2 event */
  if ((itflag & (TIM_FLAG_CC2)) == (TIM_FLAG_CC2))
 8005350:	68bb      	ldr	r3, [r7, #8]
 8005352:	f003 0304 	and.w	r3, r3, #4
 8005356:	2b00      	cmp	r3, #0
 8005358:	d020      	beq.n	800539c <HAL_TIM_IRQHandler+0xb0>
  {
    if ((itsource & (TIM_IT_CC2)) == (TIM_IT_CC2))
 800535a:	68fb      	ldr	r3, [r7, #12]
 800535c:	f003 0304 	and.w	r3, r3, #4
 8005360:	2b00      	cmp	r3, #0
 8005362:	d01b      	beq.n	800539c <HAL_TIM_IRQHandler+0xb0>
    {
      __HAL_TIM_CLEAR_FLAG(htim, TIM_FLAG_CC2);
 8005364:	687b      	ldr	r3, [r7, #4]
 8005366:	681b      	ldr	r3, [r3, #0]
 8005368:	f06f 0204 	mvn.w	r2, #4
 800536c:	611a      	str	r2, [r3, #16]
      htim->Channel = HAL_TIM_ACTIVE_CHANNEL_2;
 800536e:	687b      	ldr	r3, [r7, #4]
 8005370:	2202      	movs	r2, #2
 8005372:	771a      	strb	r2, [r3, #28]
      /* Input capture event */
      if ((htim->Instance->CCMR1 & TIM_CCMR1_CC2S) != 0x00U)
 8005374:	687b      	ldr	r3, [r7, #4]
 8005376:	681b      	ldr	r3, [r3, #0]
 8005378:	699b      	ldr	r3, [r3, #24]
 800537a:	f403 7340 	and.w	r3, r3, #768	@ 0x300
 800537e:	2b00      	cmp	r3, #0
 8005380:	d003      	beq.n	800538a <HAL_TIM_IRQHandler+0x9e>
      {
#if (USE_HAL_TIM_REGISTER_CALLBACKS == 1)
        htim->IC_CaptureCallback(htim);
#else
        HAL_TIM_IC_CaptureCallback(htim);
 8005382:	6878      	ldr	r0, [r7, #4]
 8005384:	f000 f8ac 	bl	80054e0 <HAL_TIM_IC_CaptureCallback>
 8005388:	e005      	b.n	8005396 <HAL_TIM_IRQHandler+0xaa>
      {
#if (USE_HAL_TIM_REGISTER_CALLBACKS == 1)
        htim->OC_DelayElapsedCallback(htim);
        htim->PWM_PulseFinishedCallback(htim);
#else
        HAL_TIM_OC_DelayElapsedCallback(htim);
 800538a:	6878      	ldr	r0, [r7, #4]
 800538c:	f000 f89e 	bl	80054cc <HAL_TIM_OC_DelayElapsedCallback>
        HAL_TIM_PWM_PulseFinishedCallback(htim);
 8005390:	6878      	ldr	r0, [r7, #4]
 8005392:	f000 f8af 	bl	80054f4 <HAL_TIM_PWM_PulseFinishedCallback>
#endif /* USE_HAL_TIM_REGISTER_CALLBACKS */
      }
      htim->Channel = HAL_TIM_ACTIVE_CHANNEL_CLEARED;
 8005396:	687b      	ldr	r3, [r7, #4]
 8005398:	2200      	movs	r2, #0
 800539a:	771a      	strb	r2, [r3, #28]
    }
  }
  /* Capture compare 3 event */
  if ((itflag & (TIM_FLAG_CC3)) == (TIM_FLAG_CC3))
 800539c:	68bb      	ldr	r3, [r7, #8]
 800539e:	f003 0308 	and.w	r3, r3, #8
 80053a2:	2b00      	cmp	r3, #0
 80053a4:	d020      	beq.n	80053e8 <HAL_TIM_IRQHandler+0xfc>
  {
    if ((itsource & (TIM_IT_CC3)) == (TIM_IT_CC3))
 80053a6:	68fb      	ldr	r3, [r7, #12]
 80053a8:	f003 0308 	and.w	r3, r3, #8
 80053ac:	2b00      	cmp	r3, #0
 80053ae:	d01b      	beq.n	80053e8 <HAL_TIM_IRQHandler+0xfc>
    {
      __HAL_TIM_CLEAR_FLAG(htim, TIM_FLAG_CC3);
 80053b0:	687b      	ldr	r3, [r7, #4]
 80053b2:	681b      	ldr	r3, [r3, #0]
 80053b4:	f06f 0208 	mvn.w	r2, #8
 80053b8:	611a      	str	r2, [r3, #16]
      htim->Channel = HAL_TIM_ACTIVE_CHANNEL_3;
 80053ba:	687b      	ldr	r3, [r7, #4]
 80053bc:	2204      	movs	r2, #4
 80053be:	771a      	strb	r2, [r3, #28]
      /* Input capture event */
      if ((htim->Instance->CCMR2 & TIM_CCMR2_CC3S) != 0x00U)
 80053c0:	687b      	ldr	r3, [r7, #4]
 80053c2:	681b      	ldr	r3, [r3, #0]
 80053c4:	69db      	ldr	r3, [r3, #28]
 80053c6:	f003 0303 	and.w	r3, r3, #3
 80053ca:	2b00      	cmp	r3, #0
 80053cc:	d003      	beq.n	80053d6 <HAL_TIM_IRQHandler+0xea>
      {
#if (USE_HAL_TIM_REGISTER_CALLBACKS == 1)
        htim->IC_CaptureCallback(htim);
#else
        HAL_TIM_IC_CaptureCallback(htim);
 80053ce:	6878      	ldr	r0, [r7, #4]
 80053d0:	f000 f886 	bl	80054e0 <HAL_TIM_IC_CaptureCallback>
 80053d4:	e005      	b.n	80053e2 <HAL_TIM_IRQHandler+0xf6>
      {
#if (USE_HAL_TIM_REGISTER_CALLBACKS == 1)
        htim->OC_DelayElapsedCallback(htim);
        htim->PWM_PulseFinishedCallback(htim);
#else
        HAL_TIM_OC_DelayElapsedCallback(htim);
 80053d6:	6878      	ldr	r0, [r7, #4]
 80053d8:	f000 f878 	bl	80054cc <HAL_TIM_OC_DelayElapsedCallback>
        HAL_TIM_PWM_PulseFinishedCallback(htim);
 80053dc:	6878      	ldr	r0, [r7, #4]
 80053de:	f000 f889 	bl	80054f4 <HAL_TIM_PWM_PulseFinishedCallback>
#endif /* USE_HAL_TIM_REGISTER_CALLBACKS */
      }
      htim->Channel = HAL_TIM_ACTIVE_CHANNEL_CLEARED;
 80053e2:	687b      	ldr	r3, [r7, #4]
 80053e4:	2200      	movs	r2, #0
 80053e6:	771a      	strb	r2, [r3, #28]
    }
  }
  /* Capture compare 4 event */
  if ((itflag & (TIM_FLAG_CC4)) == (TIM_FLAG_CC4))
 80053e8:	68bb      	ldr	r3, [r7, #8]
 80053ea:	f003 0310 	and.w	r3, r3, #16
 80053ee:	2b00      	cmp	r3, #0
 80053f0:	d020      	beq.n	8005434 <HAL_TIM_IRQHandler+0x148>
  {
    if ((itsource & (TIM_IT_CC4)) == (TIM_IT_CC4))
 80053f2:	68fb      	ldr	r3, [r7, #12]
 80053f4:	f003 0310 	and.w	r3, r3, #16
 80053f8:	2b00      	cmp	r3, #0
 80053fa:	d01b      	beq.n	8005434 <HAL_TIM_IRQHandler+0x148>
    {
      __HAL_TIM_CLEAR_FLAG(htim, TIM_FLAG_CC4);
 80053fc:	687b      	ldr	r3, [r7, #4]
 80053fe:	681b      	ldr	r3, [r3, #0]
 8005400:	f06f 0210 	mvn.w	r2, #16
 8005404:	611a      	str	r2, [r3, #16]
      htim->Channel = HAL_TIM_ACTIVE_CHANNEL_4;
 8005406:	687b      	ldr	r3, [r7, #4]
 8005408:	2208      	movs	r2, #8
 800540a:	771a      	strb	r2, [r3, #28]
      /* Input capture event */
      if ((htim->Instance->CCMR2 & TIM_CCMR2_CC4S) != 0x00U)
 800540c:	687b      	ldr	r3, [r7, #4]
 800540e:	681b      	ldr	r3, [r3, #0]
 8005410:	69db      	ldr	r3, [r3, #28]
 8005412:	f403 7340 	and.w	r3, r3, #768	@ 0x300
 8005416:	2b00      	cmp	r3, #0
 8005418:	d003      	beq.n	8005422 <HAL_TIM_IRQHandler+0x136>
      {
#if (USE_HAL_TIM_REGISTER_CALLBACKS == 1)
        htim->IC_CaptureCallback(htim);
#else
        HAL_TIM_IC_CaptureCallback(htim);
 800541a:	6878      	ldr	r0, [r7, #4]
 800541c:	f000 f860 	bl	80054e0 <HAL_TIM_IC_CaptureCallback>
 8005420:	e005      	b.n	800542e <HAL_TIM_IRQHandler+0x142>
      {
#if (USE_HAL_TIM_REGISTER_CALLBACKS == 1)
        htim->OC_DelayElapsedCallback(htim);
        htim->PWM_PulseFinishedCallback(htim);
#else
        HAL_TIM_OC_DelayElapsedCallback(htim);
 8005422:	6878      	ldr	r0, [r7, #4]
 8005424:	f000 f852 	bl	80054cc <HAL_TIM_OC_DelayElapsedCallback>
        HAL_TIM_PWM_PulseFinishedCallback(htim);
 8005428:	6878      	ldr	r0, [r7, #4]
 800542a:	f000 f863 	bl	80054f4 <HAL_TIM_PWM_PulseFinishedCallback>
#endif /* USE_HAL_TIM_REGISTER_CALLBACKS */
      }
      htim->Channel = HAL_TIM_ACTIVE_CHANNEL_CLEARED;
 800542e:	687b      	ldr	r3, [r7, #4]
 8005430:	2200      	movs	r2, #0
 8005432:	771a      	strb	r2, [r3, #28]
    }
  }
  /* TIM Update event */
  if ((itflag & (TIM_FLAG_UPDATE)) == (TIM_FLAG_UPDATE))
 8005434:	68bb      	ldr	r3, [r7, #8]
 8005436:	f003 0301 	and.w	r3, r3, #1
 800543a:	2b00      	cmp	r3, #0
 800543c:	d00c      	beq.n	8005458 <HAL_TIM_IRQHandler+0x16c>
  {
    if ((itsource & (TIM_IT_UPDATE)) == (TIM_IT_UPDATE))
 800543e:	68fb      	ldr	r3, [r7, #12]
 8005440:	f003 0301 	and.w	r3, r3, #1
 8005444:	2b00      	cmp	r3, #0
 8005446:	d007      	beq.n	8005458 <HAL_TIM_IRQHandler+0x16c>
    {
      __HAL_TIM_CLEAR_FLAG(htim, TIM_FLAG_UPDATE);
 8005448:	687b      	ldr	r3, [r7, #4]
 800544a:	681b      	ldr	r3, [r3, #0]
 800544c:	f06f 0201 	mvn.w	r2, #1
 8005450:	611a      	str	r2, [r3, #16]
#if (USE_HAL_TIM_REGISTER_CALLBACKS == 1)
      htim->PeriodElapsedCallback(htim);
#else
      HAL_TIM_PeriodElapsedCallback(htim);
 8005452:	6878      	ldr	r0, [r7, #4]
 8005454:	f7fd fb14 	bl	8002a80 <HAL_TIM_PeriodElapsedCallback>
#endif /* USE_HAL_TIM_REGISTER_CALLBACKS */
    }
  }
  /* TIM Break input event */
  if ((itflag & (TIM_FLAG_BREAK)) == (TIM_FLAG_BREAK))
 8005458:	68bb      	ldr	r3, [r7, #8]
 800545a:	f003 0380 	and.w	r3, r3, #128	@ 0x80
 800545e:	2b00      	cmp	r3, #0
 8005460:	d00c      	beq.n	800547c <HAL_TIM_IRQHandler+0x190>
  {
    if ((itsource & (TIM_IT_BREAK)) == (TIM_IT_BREAK))
 8005462:	68fb      	ldr	r3, [r7, #12]
 8005464:	f003 0380 	and.w	r3, r3, #128	@ 0x80
 8005468:	2b00      	cmp	r3, #0
 800546a:	d007      	beq.n	800547c <HAL_TIM_IRQHandler+0x190>
    {
      __HAL_TIM_CLEAR_FLAG(htim, TIM_FLAG_BREAK);
 800546c:	687b      	ldr	r3, [r7, #4]
 800546e:	681b      	ldr	r3, [r3, #0]
 8005470:	f06f 0280 	mvn.w	r2, #128	@ 0x80
 8005474:	611a      	str	r2, [r3, #16]
#if (USE_HAL_TIM_REGISTER_CALLBACKS == 1)
      htim->BreakCallback(htim);
#else
      HAL_TIMEx_BreakCallback(htim);
 8005476:	6878      	ldr	r0, [r7, #4]
 8005478:	f000 f906 	bl	8005688 <HAL_TIMEx_BreakCallback>
#endif /* USE_HAL_TIM_REGISTER_CALLBACKS */
    }
  }
  /* TIM Trigger detection event */
  if ((itflag & (TIM_FLAG_TRIGGER)) == (TIM_FLAG_TRIGGER))
 800547c:	68bb      	ldr	r3, [r7, #8]
 800547e:	f003 0340 	and.w	r3, r3, #64	@ 0x40
 8005482:	2b00      	cmp	r3, #0
 8005484:	d00c      	beq.n	80054a0 <HAL_TIM_IRQHandler+0x1b4>
  {
    if ((itsource & (TIM_IT_TRIGGER)) == (TIM_IT_TRIGGER))
 8005486:	68fb      	ldr	r3, [r7, #12]
 8005488:	f003 0340 	and.w	r3, r3, #64	@ 0x40
 800548c:	2b00      	cmp	r3, #0
 800548e:	d007      	beq.n	80054a0 <HAL_TIM_IRQHandler+0x1b4>
    {
      __HAL_TIM_CLEAR_FLAG(htim, TIM_FLAG_TRIGGER);
 8005490:	687b      	ldr	r3, [r7, #4]
 8005492:	681b      	ldr	r3, [r3, #0]
 8005494:	f06f 0240 	mvn.w	r2, #64	@ 0x40
 8005498:	611a      	str	r2, [r3, #16]
#if (USE_HAL_TIM_REGISTER_CALLBACKS == 1)
      htim->TriggerCallback(htim);
#else
      HAL_TIM_TriggerCallback(htim);
 800549a:	6878      	ldr	r0, [r7, #4]
 800549c:	f000 f834 	bl	8005508 <HAL_TIM_TriggerCallback>
#endif /* USE_HAL_TIM_REGISTER_CALLBACKS */
    }
  }
  /* TIM commutation event */
  if ((itflag & (TIM_FLAG_COM)) == (TIM_FLAG_COM))
 80054a0:	68bb      	ldr	r3, [r7, #8]
 80054a2:	f003 0320 	and.w	r3, r3, #32
 80054a6:	2b00      	cmp	r3, #0
 80054a8:	d00c      	beq.n	80054c4 <HAL_TIM_IRQHandler+0x1d8>
  {
    if ((itsource & (TIM_IT_COM)) == (TIM_IT_COM))
 80054aa:	68fb      	ldr	r3, [r7, #12]
 80054ac:	f003 0320 	and.w	r3, r3, #32
 80054b0:	2b00      	cmp	r3, #0
 80054b2:	d007      	beq.n	80054c4 <HAL_TIM_IRQHandler+0x1d8>
    {
      __HAL_TIM_CLEAR_FLAG(htim, TIM_FLAG_COM);
 80054b4:	687b      	ldr	r3, [r7, #4]
 80054b6:	681b      	ldr	r3, [r3, #0]
 80054b8:	f06f 0220 	mvn.w	r2, #32
 80054bc:	611a      	str	r2, [r3, #16]
#if (USE_HAL_TIM_REGISTER_CALLBACKS == 1)
      htim->CommutationCallback(htim);
#else
      HAL_TIMEx_CommutCallback(htim);
 80054be:	6878      	ldr	r0, [r7, #4]
 80054c0:	f000 f8d8 	bl	8005674 <HAL_TIMEx_CommutCallback>
#endif /* USE_HAL_TIM_REGISTER_CALLBACKS */
    }
  }
}
 80054c4:	bf00      	nop
 80054c6:	3710      	adds	r7, #16
 80054c8:	46bd      	mov	sp, r7
 80054ca:	bd80      	pop	{r7, pc}

080054cc <HAL_TIM_OC_DelayElapsedCallback>:
  * @brief  Output Compare callback in non-blocking mode
  * @param  htim TIM OC handle
  * @retval None
  */
__weak void HAL_TIM_OC_DelayElapsedCallback(TIM_HandleTypeDef *htim)
{
 80054cc:	b480      	push	{r7}
 80054ce:	b083      	sub	sp, #12
 80054d0:	af00      	add	r7, sp, #0
 80054d2:	6078      	str	r0, [r7, #4]
  UNUSED(htim);

  /* NOTE : This function should not be modified, when the callback is needed,
            the HAL_TIM_OC_DelayElapsedCallback could be implemented in the user file
   */
}
 80054d4:	bf00      	nop
 80054d6:	370c      	adds	r7, #12
 80054d8:	46bd      	mov	sp, r7
 80054da:	f85d 7b04 	ldr.w	r7, [sp], #4
 80054de:	4770      	bx	lr

080054e0 <HAL_TIM_IC_CaptureCallback>:
  * @brief  Input Capture callback in non-blocking mode
  * @param  htim TIM IC handle
  * @retval None
  */
__weak void HAL_TIM_IC_CaptureCallback(TIM_HandleTypeDef *htim)
{
 80054e0:	b480      	push	{r7}
 80054e2:	b083      	sub	sp, #12
 80054e4:	af00      	add	r7, sp, #0
 80054e6:	6078      	str	r0, [r7, #4]
  UNUSED(htim);

  /* NOTE : This function should not be modified, when the callback is needed,
            the HAL_TIM_IC_CaptureCallback could be implemented in the user file
   */
}
 80054e8:	bf00      	nop
 80054ea:	370c      	adds	r7, #12
 80054ec:	46bd      	mov	sp, r7
 80054ee:	f85d 7b04 	ldr.w	r7, [sp], #4
 80054f2:	4770      	bx	lr

080054f4 <HAL_TIM_PWM_PulseFinishedCallback>:
  * @brief  PWM Pulse finished callback in non-blocking mode
  * @param  htim TIM handle
  * @retval None
  */
__weak void HAL_TIM_PWM_PulseFinishedCallback(TIM_HandleTypeDef *htim)
{
 80054f4:	b480      	push	{r7}
 80054f6:	b083      	sub	sp, #12
 80054f8:	af00      	add	r7, sp, #0
 80054fa:	6078      	str	r0, [r7, #4]
  UNUSED(htim);

  /* NOTE : This function should not be modified, when the callback is needed,
            the HAL_TIM_PWM_PulseFinishedCallback could be implemented in the user file
   */
}
 80054fc:	bf00      	nop
 80054fe:	370c      	adds	r7, #12
 8005500:	46bd      	mov	sp, r7
 8005502:	f85d 7b04 	ldr.w	r7, [sp], #4
 8005506:	4770      	bx	lr

08005508 <HAL_TIM_TriggerCallback>:
  * @brief  Hall Trigger detection callback in non-blocking mode
  * @param  htim TIM handle
  * @retval None
  */
__weak void HAL_TIM_TriggerCallback(TIM_HandleTypeDef *htim)
{
 8005508:	b480      	push	{r7}
 800550a:	b083      	sub	sp, #12
 800550c:	af00      	add	r7, sp, #0
 800550e:	6078      	str	r0, [r7, #4]
  UNUSED(htim);

  /* NOTE : This function should not be modified, when the callback is needed,
            the HAL_TIM_TriggerCallback could be implemented in the user file
   */
}
 8005510:	bf00      	nop
 8005512:	370c      	adds	r7, #12
 8005514:	46bd      	mov	sp, r7
 8005516:	f85d 7b04 	ldr.w	r7, [sp], #4
 800551a:	4770      	bx	lr

0800551c <TIM_Base_SetConfig>:
  * @param  TIMx TIM peripheral
  * @param  Structure TIM Base configuration structure
  * @retval None
  */
void TIM_Base_SetConfig(TIM_TypeDef *TIMx, const TIM_Base_InitTypeDef *Structure)
{
 800551c:	b480      	push	{r7}
 800551e:	b085      	sub	sp, #20
 8005520:	af00      	add	r7, sp, #0
 8005522:	6078      	str	r0, [r7, #4]
 8005524:	6039      	str	r1, [r7, #0]
  uint32_t tmpcr1;
  tmpcr1 = TIMx->CR1;
 8005526:	687b      	ldr	r3, [r7, #4]
 8005528:	681b      	ldr	r3, [r3, #0]
 800552a:	60fb      	str	r3, [r7, #12]

  /* Set TIM Time Base Unit parameters ---------------------------------------*/
  if (IS_TIM_COUNTER_MODE_SELECT_INSTANCE(TIMx))
 800552c:	687b      	ldr	r3, [r7, #4]
 800552e:	4a46      	ldr	r2, [pc, #280]	@ (8005648 <TIM_Base_SetConfig+0x12c>)
 8005530:	4293      	cmp	r3, r2
 8005532:	d013      	beq.n	800555c <TIM_Base_SetConfig+0x40>
 8005534:	687b      	ldr	r3, [r7, #4]
 8005536:	f1b3 4f80 	cmp.w	r3, #1073741824	@ 0x40000000
 800553a:	d00f      	beq.n	800555c <TIM_Base_SetConfig+0x40>
 800553c:	687b      	ldr	r3, [r7, #4]
 800553e:	4a43      	ldr	r2, [pc, #268]	@ (800564c <TIM_Base_SetConfig+0x130>)
 8005540:	4293      	cmp	r3, r2
 8005542:	d00b      	beq.n	800555c <TIM_Base_SetConfig+0x40>
 8005544:	687b      	ldr	r3, [r7, #4]
 8005546:	4a42      	ldr	r2, [pc, #264]	@ (8005650 <TIM_Base_SetConfig+0x134>)
 8005548:	4293      	cmp	r3, r2
 800554a:	d007      	beq.n	800555c <TIM_Base_SetConfig+0x40>
 800554c:	687b      	ldr	r3, [r7, #4]
 800554e:	4a41      	ldr	r2, [pc, #260]	@ (8005654 <TIM_Base_SetConfig+0x138>)
 8005550:	4293      	cmp	r3, r2
 8005552:	d003      	beq.n	800555c <TIM_Base_SetConfig+0x40>
 8005554:	687b      	ldr	r3, [r7, #4]
 8005556:	4a40      	ldr	r2, [pc, #256]	@ (8005658 <TIM_Base_SetConfig+0x13c>)
 8005558:	4293      	cmp	r3, r2
 800555a:	d108      	bne.n	800556e <TIM_Base_SetConfig+0x52>
  {
    /* Select the Counter Mode */
    tmpcr1 &= ~(TIM_CR1_DIR | TIM_CR1_CMS);
 800555c:	68fb      	ldr	r3, [r7, #12]
 800555e:	f023 0370 	bic.w	r3, r3, #112	@ 0x70
 8005562:	60fb      	str	r3, [r7, #12]
    tmpcr1 |= Structure->CounterMode;
 8005564:	683b      	ldr	r3, [r7, #0]
 8005566:	685b      	ldr	r3, [r3, #4]
 8005568:	68fa      	ldr	r2, [r7, #12]
 800556a:	4313      	orrs	r3, r2
 800556c:	60fb      	str	r3, [r7, #12]
  }

  if (IS_TIM_CLOCK_DIVISION_INSTANCE(TIMx))
 800556e:	687b      	ldr	r3, [r7, #4]
 8005570:	4a35      	ldr	r2, [pc, #212]	@ (8005648 <TIM_Base_SetConfig+0x12c>)
 8005572:	4293      	cmp	r3, r2
 8005574:	d02b      	beq.n	80055ce <TIM_Base_SetConfig+0xb2>
 8005576:	687b      	ldr	r3, [r7, #4]
 8005578:	f1b3 4f80 	cmp.w	r3, #1073741824	@ 0x40000000
 800557c:	d027      	beq.n	80055ce <TIM_Base_SetConfig+0xb2>
 800557e:	687b      	ldr	r3, [r7, #4]
 8005580:	4a32      	ldr	r2, [pc, #200]	@ (800564c <TIM_Base_SetConfig+0x130>)
 8005582:	4293      	cmp	r3, r2
 8005584:	d023      	beq.n	80055ce <TIM_Base_SetConfig+0xb2>
 8005586:	687b      	ldr	r3, [r7, #4]
 8005588:	4a31      	ldr	r2, [pc, #196]	@ (8005650 <TIM_Base_SetConfig+0x134>)
 800558a:	4293      	cmp	r3, r2
 800558c:	d01f      	beq.n	80055ce <TIM_Base_SetConfig+0xb2>
 800558e:	687b      	ldr	r3, [r7, #4]
 8005590:	4a30      	ldr	r2, [pc, #192]	@ (8005654 <TIM_Base_SetConfig+0x138>)
 8005592:	4293      	cmp	r3, r2
 8005594:	d01b      	beq.n	80055ce <TIM_Base_SetConfig+0xb2>
 8005596:	687b      	ldr	r3, [r7, #4]
 8005598:	4a2f      	ldr	r2, [pc, #188]	@ (8005658 <TIM_Base_SetConfig+0x13c>)
 800559a:	4293      	cmp	r3, r2
 800559c:	d017      	beq.n	80055ce <TIM_Base_SetConfig+0xb2>
 800559e:	687b      	ldr	r3, [r7, #4]
 80055a0:	4a2e      	ldr	r2, [pc, #184]	@ (800565c <TIM_Base_SetConfig+0x140>)
 80055a2:	4293      	cmp	r3, r2
 80055a4:	d013      	beq.n	80055ce <TIM_Base_SetConfig+0xb2>
 80055a6:	687b      	ldr	r3, [r7, #4]
 80055a8:	4a2d      	ldr	r2, [pc, #180]	@ (8005660 <TIM_Base_SetConfig+0x144>)
 80055aa:	4293      	cmp	r3, r2
 80055ac:	d00f      	beq.n	80055ce <TIM_Base_SetConfig+0xb2>
 80055ae:	687b      	ldr	r3, [r7, #4]
 80055b0:	4a2c      	ldr	r2, [pc, #176]	@ (8005664 <TIM_Base_SetConfig+0x148>)
 80055b2:	4293      	cmp	r3, r2
 80055b4:	d00b      	beq.n	80055ce <TIM_Base_SetConfig+0xb2>
 80055b6:	687b      	ldr	r3, [r7, #4]
 80055b8:	4a2b      	ldr	r2, [pc, #172]	@ (8005668 <TIM_Base_SetConfig+0x14c>)
 80055ba:	4293      	cmp	r3, r2
 80055bc:	d007      	beq.n	80055ce <TIM_Base_SetConfig+0xb2>
 80055be:	687b      	ldr	r3, [r7, #4]
 80055c0:	4a2a      	ldr	r2, [pc, #168]	@ (800566c <TIM_Base_SetConfig+0x150>)
 80055c2:	4293      	cmp	r3, r2
 80055c4:	d003      	beq.n	80055ce <TIM_Base_SetConfig+0xb2>
 80055c6:	687b      	ldr	r3, [r7, #4]
 80055c8:	4a29      	ldr	r2, [pc, #164]	@ (8005670 <TIM_Base_SetConfig+0x154>)
 80055ca:	4293      	cmp	r3, r2
 80055cc:	d108      	bne.n	80055e0 <TIM_Base_SetConfig+0xc4>
  {
    /* Set the clock division */
    tmpcr1 &= ~TIM_CR1_CKD;
 80055ce:	68fb      	ldr	r3, [r7, #12]
 80055d0:	f423 7340 	bic.w	r3, r3, #768	@ 0x300
 80055d4:	60fb      	str	r3, [r7, #12]
    tmpcr1 |= (uint32_t)Structure->ClockDivision;
 80055d6:	683b      	ldr	r3, [r7, #0]
 80055d8:	68db      	ldr	r3, [r3, #12]
 80055da:	68fa      	ldr	r2, [r7, #12]
 80055dc:	4313      	orrs	r3, r2
 80055de:	60fb      	str	r3, [r7, #12]
  }

  /* Set the auto-reload preload */
  MODIFY_REG(tmpcr1, TIM_CR1_ARPE, Structure->AutoReloadPreload);
 80055e0:	68fb      	ldr	r3, [r7, #12]
 80055e2:	f023 0280 	bic.w	r2, r3, #128	@ 0x80
 80055e6:	683b      	ldr	r3, [r7, #0]
 80055e8:	695b      	ldr	r3, [r3, #20]
 80055ea:	4313      	orrs	r3, r2
 80055ec:	60fb      	str	r3, [r7, #12]

  TIMx->CR1 = tmpcr1;
 80055ee:	687b      	ldr	r3, [r7, #4]
 80055f0:	68fa      	ldr	r2, [r7, #12]
 80055f2:	601a      	str	r2, [r3, #0]

  /* Set the Autoreload value */
  TIMx->ARR = (uint32_t)Structure->Period ;
 80055f4:	683b      	ldr	r3, [r7, #0]
 80055f6:	689a      	ldr	r2, [r3, #8]
 80055f8:	687b      	ldr	r3, [r7, #4]
 80055fa:	62da      	str	r2, [r3, #44]	@ 0x2c

  /* Set the Prescaler value */
  TIMx->PSC = Structure->Prescaler;
 80055fc:	683b      	ldr	r3, [r7, #0]
 80055fe:	681a      	ldr	r2, [r3, #0]
 8005600:	687b      	ldr	r3, [r7, #4]
 8005602:	629a      	str	r2, [r3, #40]	@ 0x28

  if (IS_TIM_REPETITION_COUNTER_INSTANCE(TIMx))
 8005604:	687b      	ldr	r3, [r7, #4]
 8005606:	4a10      	ldr	r2, [pc, #64]	@ (8005648 <TIM_Base_SetConfig+0x12c>)
 8005608:	4293      	cmp	r3, r2
 800560a:	d003      	beq.n	8005614 <TIM_Base_SetConfig+0xf8>
 800560c:	687b      	ldr	r3, [r7, #4]
 800560e:	4a12      	ldr	r2, [pc, #72]	@ (8005658 <TIM_Base_SetConfig+0x13c>)
 8005610:	4293      	cmp	r3, r2
 8005612:	d103      	bne.n	800561c <TIM_Base_SetConfig+0x100>
  {
    /* Set the Repetition Counter value */
    TIMx->RCR = Structure->RepetitionCounter;
 8005614:	683b      	ldr	r3, [r7, #0]
 8005616:	691a      	ldr	r2, [r3, #16]
 8005618:	687b      	ldr	r3, [r7, #4]
 800561a:	631a      	str	r2, [r3, #48]	@ 0x30
  }

  /* Generate an update event to reload the Prescaler
     and the repetition counter (only for advanced timer) value immediately */
  TIMx->EGR = TIM_EGR_UG;
 800561c:	687b      	ldr	r3, [r7, #4]
 800561e:	2201      	movs	r2, #1
 8005620:	615a      	str	r2, [r3, #20]

  /* Check if the update flag is set after the Update Generation, if so clear the UIF flag */
  if (HAL_IS_BIT_SET(TIMx->SR, TIM_FLAG_UPDATE))
 8005622:	687b      	ldr	r3, [r7, #4]
 8005624:	691b      	ldr	r3, [r3, #16]
 8005626:	f003 0301 	and.w	r3, r3, #1
 800562a:	2b01      	cmp	r3, #1
 800562c:	d105      	bne.n	800563a <TIM_Base_SetConfig+0x11e>
  {
    /* Clear the update flag */
    CLEAR_BIT(TIMx->SR, TIM_FLAG_UPDATE);
 800562e:	687b      	ldr	r3, [r7, #4]
 8005630:	691b      	ldr	r3, [r3, #16]
 8005632:	f023 0201 	bic.w	r2, r3, #1
 8005636:	687b      	ldr	r3, [r7, #4]
 8005638:	611a      	str	r2, [r3, #16]
  }
}
 800563a:	bf00      	nop
 800563c:	3714      	adds	r7, #20
 800563e:	46bd      	mov	sp, r7
 8005640:	f85d 7b04 	ldr.w	r7, [sp], #4
 8005644:	4770      	bx	lr
 8005646:	bf00      	nop
 8005648:	40010000 	.word	0x40010000
 800564c:	40000400 	.word	0x40000400
 8005650:	40000800 	.word	0x40000800
 8005654:	40000c00 	.word	0x40000c00
 8005658:	40010400 	.word	0x40010400
 800565c:	40014000 	.word	0x40014000
 8005660:	40014400 	.word	0x40014400
 8005664:	40014800 	.word	0x40014800
 8005668:	40001800 	.word	0x40001800
 800566c:	40001c00 	.word	0x40001c00
 8005670:	40002000 	.word	0x40002000

08005674 <HAL_TIMEx_CommutCallback>:
  * @brief  Commutation callback in non-blocking mode
  * @param  htim TIM handle
  * @retval None
  */
__weak void HAL_TIMEx_CommutCallback(TIM_HandleTypeDef *htim)
{
 8005674:	b480      	push	{r7}
 8005676:	b083      	sub	sp, #12
 8005678:	af00      	add	r7, sp, #0
 800567a:	6078      	str	r0, [r7, #4]
  UNUSED(htim);

  /* NOTE : This function should not be modified, when the callback is needed,
            the HAL_TIMEx_CommutCallback could be implemented in the user file
   */
}
 800567c:	bf00      	nop
 800567e:	370c      	adds	r7, #12
 8005680:	46bd      	mov	sp, r7
 8005682:	f85d 7b04 	ldr.w	r7, [sp], #4
 8005686:	4770      	bx	lr

08005688 <HAL_TIMEx_BreakCallback>:
  * @brief  Break detection callback in non-blocking mode
  * @param  htim TIM handle
  * @retval None
  */
__weak void HAL_TIMEx_BreakCallback(TIM_HandleTypeDef *htim)
{
 8005688:	b480      	push	{r7}
 800568a:	b083      	sub	sp, #12
 800568c:	af00      	add	r7, sp, #0
 800568e:	6078      	str	r0, [r7, #4]
  UNUSED(htim);

  /* NOTE : This function should not be modified, when the callback is needed,
            the HAL_TIMEx_BreakCallback could be implemented in the user file
   */
}
 8005690:	bf00      	nop
 8005692:	370c      	adds	r7, #12
 8005694:	46bd      	mov	sp, r7
 8005696:	f85d 7b04 	ldr.w	r7, [sp], #4
 800569a:	4770      	bx	lr

0800569c <HAL_UART_Init>:
  * @param  huart  Pointer to a UART_HandleTypeDef structure that contains
  *                the configuration information for the specified UART module.
  * @retval HAL status
  */
HAL_StatusTypeDef HAL_UART_Init(UART_HandleTypeDef *huart)
{
 800569c:	b580      	push	{r7, lr}
 800569e:	b082      	sub	sp, #8
 80056a0:	af00      	add	r7, sp, #0
 80056a2:	6078      	str	r0, [r7, #4]
  /* Check the UART handle allocation */
  if (huart == NULL)
 80056a4:	687b      	ldr	r3, [r7, #4]
 80056a6:	2b00      	cmp	r3, #0
 80056a8:	d101      	bne.n	80056ae <HAL_UART_Init+0x12>
  {
    return HAL_ERROR;
 80056aa:	2301      	movs	r3, #1
 80056ac:	e042      	b.n	8005734 <HAL_UART_Init+0x98>
    assert_param(IS_UART_INSTANCE(huart->Instance));
  }
  assert_param(IS_UART_WORD_LENGTH(huart->Init.WordLength));
  assert_param(IS_UART_OVERSAMPLING(huart->Init.OverSampling));

  if (huart->gState == HAL_UART_STATE_RESET)
 80056ae:	687b      	ldr	r3, [r7, #4]
 80056b0:	f893 3041 	ldrb.w	r3, [r3, #65]	@ 0x41
 80056b4:	b2db      	uxtb	r3, r3
 80056b6:	2b00      	cmp	r3, #0
 80056b8:	d106      	bne.n	80056c8 <HAL_UART_Init+0x2c>
  {
    /* Allocate lock resource and initialize it */
    huart->Lock = HAL_UNLOCKED;
 80056ba:	687b      	ldr	r3, [r7, #4]
 80056bc:	2200      	movs	r2, #0
 80056be:	f883 2040 	strb.w	r2, [r3, #64]	@ 0x40

    /* Init the low level hardware */
    huart->MspInitCallback(huart);
#else
    /* Init the low level hardware : GPIO, CLOCK */
    HAL_UART_MspInit(huart);
 80056c2:	6878      	ldr	r0, [r7, #4]
 80056c4:	f7fd faf4 	bl	8002cb0 <HAL_UART_MspInit>
#endif /* (USE_HAL_UART_REGISTER_CALLBACKS) */
  }

  huart->gState = HAL_UART_STATE_BUSY;
 80056c8:	687b      	ldr	r3, [r7, #4]
 80056ca:	2224      	movs	r2, #36	@ 0x24
 80056cc:	f883 2041 	strb.w	r2, [r3, #65]	@ 0x41

  /* Disable the peripheral */
  __HAL_UART_DISABLE(huart);
 80056d0:	687b      	ldr	r3, [r7, #4]
 80056d2:	681b      	ldr	r3, [r3, #0]
 80056d4:	68da      	ldr	r2, [r3, #12]
 80056d6:	687b      	ldr	r3, [r7, #4]
 80056d8:	681b      	ldr	r3, [r3, #0]
 80056da:	f422 5200 	bic.w	r2, r2, #8192	@ 0x2000
 80056de:	60da      	str	r2, [r3, #12]

  /* Set the UART Communication parameters */
  UART_SetConfig(huart);
 80056e0:	6878      	ldr	r0, [r7, #4]
 80056e2:	f000 f973 	bl	80059cc <UART_SetConfig>

  /* In asynchronous mode, the following bits must be kept cleared:
     - LINEN and CLKEN bits in the USART_CR2 register,
     - SCEN, HDSEL and IREN  bits in the USART_CR3 register.*/
  CLEAR_BIT(huart->Instance->CR2, (USART_CR2_LINEN | USART_CR2_CLKEN));
 80056e6:	687b      	ldr	r3, [r7, #4]
 80056e8:	681b      	ldr	r3, [r3, #0]
 80056ea:	691a      	ldr	r2, [r3, #16]
 80056ec:	687b      	ldr	r3, [r7, #4]
 80056ee:	681b      	ldr	r3, [r3, #0]
 80056f0:	f422 4290 	bic.w	r2, r2, #18432	@ 0x4800
 80056f4:	611a      	str	r2, [r3, #16]
  CLEAR_BIT(huart->Instance->CR3, (USART_CR3_SCEN | USART_CR3_HDSEL | USART_CR3_IREN));
 80056f6:	687b      	ldr	r3, [r7, #4]
 80056f8:	681b      	ldr	r3, [r3, #0]
 80056fa:	695a      	ldr	r2, [r3, #20]
 80056fc:	687b      	ldr	r3, [r7, #4]
 80056fe:	681b      	ldr	r3, [r3, #0]
 8005700:	f022 022a 	bic.w	r2, r2, #42	@ 0x2a
 8005704:	615a      	str	r2, [r3, #20]

  /* Enable the peripheral */
  __HAL_UART_ENABLE(huart);
 8005706:	687b      	ldr	r3, [r7, #4]
 8005708:	681b      	ldr	r3, [r3, #0]
 800570a:	68da      	ldr	r2, [r3, #12]
 800570c:	687b      	ldr	r3, [r7, #4]
 800570e:	681b      	ldr	r3, [r3, #0]
 8005710:	f442 5200 	orr.w	r2, r2, #8192	@ 0x2000
 8005714:	60da      	str	r2, [r3, #12]

  /* Initialize the UART state */
  huart->ErrorCode = HAL_UART_ERROR_NONE;
 8005716:	687b      	ldr	r3, [r7, #4]
 8005718:	2200      	movs	r2, #0
 800571a:	645a      	str	r2, [r3, #68]	@ 0x44
  huart->gState = HAL_UART_STATE_READY;
 800571c:	687b      	ldr	r3, [r7, #4]
 800571e:	2220      	movs	r2, #32
 8005720:	f883 2041 	strb.w	r2, [r3, #65]	@ 0x41
  huart->RxState = HAL_UART_STATE_READY;
 8005724:	687b      	ldr	r3, [r7, #4]
 8005726:	2220      	movs	r2, #32
 8005728:	f883 2042 	strb.w	r2, [r3, #66]	@ 0x42
  huart->RxEventType = HAL_UART_RXEVENT_TC;
 800572c:	687b      	ldr	r3, [r7, #4]
 800572e:	2200      	movs	r2, #0
 8005730:	635a      	str	r2, [r3, #52]	@ 0x34

  return HAL_OK;
 8005732:	2300      	movs	r3, #0
}
 8005734:	4618      	mov	r0, r3
 8005736:	3708      	adds	r7, #8
 8005738:	46bd      	mov	sp, r7
 800573a:	bd80      	pop	{r7, pc}

0800573c <HAL_UART_Transmit>:
  * @param  Size  Amount of data elements (u8 or u16) to be sent
  * @param  Timeout Timeout duration
  * @retval HAL status
  */
HAL_StatusTypeDef HAL_UART_Transmit(UART_HandleTypeDef *huart, const uint8_t *pData, uint16_t Size, uint32_t Timeout)
{
 800573c:	b580      	push	{r7, lr}
 800573e:	b08a      	sub	sp, #40	@ 0x28
 8005740:	af02      	add	r7, sp, #8
 8005742:	60f8      	str	r0, [r7, #12]
 8005744:	60b9      	str	r1, [r7, #8]
 8005746:	603b      	str	r3, [r7, #0]
 8005748:	4613      	mov	r3, r2
 800574a:	80fb      	strh	r3, [r7, #6]
  const uint8_t  *pdata8bits;
  const uint16_t *pdata16bits;
  uint32_t tickstart = 0U;
 800574c:	2300      	movs	r3, #0
 800574e:	617b      	str	r3, [r7, #20]

  /* Check that a Tx process is not already ongoing */
  if (huart->gState == HAL_UART_STATE_READY)
 8005750:	68fb      	ldr	r3, [r7, #12]
 8005752:	f893 3041 	ldrb.w	r3, [r3, #65]	@ 0x41
 8005756:	b2db      	uxtb	r3, r3
 8005758:	2b20      	cmp	r3, #32
 800575a:	d175      	bne.n	8005848 <HAL_UART_Transmit+0x10c>
  {
    if ((pData == NULL) || (Size == 0U))
 800575c:	68bb      	ldr	r3, [r7, #8]
 800575e:	2b00      	cmp	r3, #0
 8005760:	d002      	beq.n	8005768 <HAL_UART_Transmit+0x2c>
 8005762:	88fb      	ldrh	r3, [r7, #6]
 8005764:	2b00      	cmp	r3, #0
 8005766:	d101      	bne.n	800576c <HAL_UART_Transmit+0x30>
    {
      return  HAL_ERROR;
 8005768:	2301      	movs	r3, #1
 800576a:	e06e      	b.n	800584a <HAL_UART_Transmit+0x10e>
    }

    huart->ErrorCode = HAL_UART_ERROR_NONE;
 800576c:	68fb      	ldr	r3, [r7, #12]
 800576e:	2200      	movs	r2, #0
 8005770:	645a      	str	r2, [r3, #68]	@ 0x44
    huart->gState = HAL_UART_STATE_BUSY_TX;
 8005772:	68fb      	ldr	r3, [r7, #12]
 8005774:	2221      	movs	r2, #33	@ 0x21
 8005776:	f883 2041 	strb.w	r2, [r3, #65]	@ 0x41

    /* Init tickstart for timeout management */
    tickstart = HAL_GetTick();
 800577a:	f7fd fc01 	bl	8002f80 <HAL_GetTick>
 800577e:	6178      	str	r0, [r7, #20]

    huart->TxXferSize = Size;
 8005780:	68fb      	ldr	r3, [r7, #12]
 8005782:	88fa      	ldrh	r2, [r7, #6]
 8005784:	849a      	strh	r2, [r3, #36]	@ 0x24
    huart->TxXferCount = Size;
 8005786:	68fb      	ldr	r3, [r7, #12]
 8005788:	88fa      	ldrh	r2, [r7, #6]
 800578a:	84da      	strh	r2, [r3, #38]	@ 0x26

    /* In case of 9bits/No Parity transfer, pData needs to be handled as a uint16_t pointer */
    if ((huart->Init.WordLength == UART_WORDLENGTH_9B) && (huart->Init.Parity == UART_PARITY_NONE))
 800578c:	68fb      	ldr	r3, [r7, #12]
 800578e:	689b      	ldr	r3, [r3, #8]
 8005790:	f5b3 5f80 	cmp.w	r3, #4096	@ 0x1000
 8005794:	d108      	bne.n	80057a8 <HAL_UART_Transmit+0x6c>
 8005796:	68fb      	ldr	r3, [r7, #12]
 8005798:	691b      	ldr	r3, [r3, #16]
 800579a:	2b00      	cmp	r3, #0
 800579c:	d104      	bne.n	80057a8 <HAL_UART_Transmit+0x6c>
    {
      pdata8bits  = NULL;
 800579e:	2300      	movs	r3, #0
 80057a0:	61fb      	str	r3, [r7, #28]
      pdata16bits = (const uint16_t *) pData;
 80057a2:	68bb      	ldr	r3, [r7, #8]
 80057a4:	61bb      	str	r3, [r7, #24]
 80057a6:	e003      	b.n	80057b0 <HAL_UART_Transmit+0x74>
    }
    else
    {
      pdata8bits  = pData;
 80057a8:	68bb      	ldr	r3, [r7, #8]
 80057aa:	61fb      	str	r3, [r7, #28]
      pdata16bits = NULL;
 80057ac:	2300      	movs	r3, #0
 80057ae:	61bb      	str	r3, [r7, #24]
    }

    while (huart->TxXferCount > 0U)
 80057b0:	e02e      	b.n	8005810 <HAL_UART_Transmit+0xd4>
    {
      if (UART_WaitOnFlagUntilTimeout(huart, UART_FLAG_TXE, RESET, tickstart, Timeout) != HAL_OK)
 80057b2:	683b      	ldr	r3, [r7, #0]
 80057b4:	9300      	str	r3, [sp, #0]
 80057b6:	697b      	ldr	r3, [r7, #20]
 80057b8:	2200      	movs	r2, #0
 80057ba:	2180      	movs	r1, #128	@ 0x80
 80057bc:	68f8      	ldr	r0, [r7, #12]
 80057be:	f000 f848 	bl	8005852 <UART_WaitOnFlagUntilTimeout>
 80057c2:	4603      	mov	r3, r0
 80057c4:	2b00      	cmp	r3, #0
 80057c6:	d005      	beq.n	80057d4 <HAL_UART_Transmit+0x98>
      {
        huart->gState = HAL_UART_STATE_READY;
 80057c8:	68fb      	ldr	r3, [r7, #12]
 80057ca:	2220      	movs	r2, #32
 80057cc:	f883 2041 	strb.w	r2, [r3, #65]	@ 0x41

        return HAL_TIMEOUT;
 80057d0:	2303      	movs	r3, #3
 80057d2:	e03a      	b.n	800584a <HAL_UART_Transmit+0x10e>
      }
      if (pdata8bits == NULL)
 80057d4:	69fb      	ldr	r3, [r7, #28]
 80057d6:	2b00      	cmp	r3, #0
 80057d8:	d10b      	bne.n	80057f2 <HAL_UART_Transmit+0xb6>
      {
        huart->Instance->DR = (uint16_t)(*pdata16bits & 0x01FFU);
 80057da:	69bb      	ldr	r3, [r7, #24]
 80057dc:	881b      	ldrh	r3, [r3, #0]
 80057de:	461a      	mov	r2, r3
 80057e0:	68fb      	ldr	r3, [r7, #12]
 80057e2:	681b      	ldr	r3, [r3, #0]
 80057e4:	f3c2 0208 	ubfx	r2, r2, #0, #9
 80057e8:	605a      	str	r2, [r3, #4]
        pdata16bits++;
 80057ea:	69bb      	ldr	r3, [r7, #24]
 80057ec:	3302      	adds	r3, #2
 80057ee:	61bb      	str	r3, [r7, #24]
 80057f0:	e007      	b.n	8005802 <HAL_UART_Transmit+0xc6>
      }
      else
      {
        huart->Instance->DR = (uint8_t)(*pdata8bits & 0xFFU);
 80057f2:	69fb      	ldr	r3, [r7, #28]
 80057f4:	781a      	ldrb	r2, [r3, #0]
 80057f6:	68fb      	ldr	r3, [r7, #12]
 80057f8:	681b      	ldr	r3, [r3, #0]
 80057fa:	605a      	str	r2, [r3, #4]
        pdata8bits++;
 80057fc:	69fb      	ldr	r3, [r7, #28]
 80057fe:	3301      	adds	r3, #1
 8005800:	61fb      	str	r3, [r7, #28]
      }
      huart->TxXferCount--;
 8005802:	68fb      	ldr	r3, [r7, #12]
 8005804:	8cdb      	ldrh	r3, [r3, #38]	@ 0x26
 8005806:	b29b      	uxth	r3, r3
 8005808:	3b01      	subs	r3, #1
 800580a:	b29a      	uxth	r2, r3
 800580c:	68fb      	ldr	r3, [r7, #12]
 800580e:	84da      	strh	r2, [r3, #38]	@ 0x26
    while (huart->TxXferCount > 0U)
 8005810:	68fb      	ldr	r3, [r7, #12]
 8005812:	8cdb      	ldrh	r3, [r3, #38]	@ 0x26
 8005814:	b29b      	uxth	r3, r3
 8005816:	2b00      	cmp	r3, #0
 8005818:	d1cb      	bne.n	80057b2 <HAL_UART_Transmit+0x76>
    }

    if (UART_WaitOnFlagUntilTimeout(huart, UART_FLAG_TC, RESET, tickstart, Timeout) != HAL_OK)
 800581a:	683b      	ldr	r3, [r7, #0]
 800581c:	9300      	str	r3, [sp, #0]
 800581e:	697b      	ldr	r3, [r7, #20]
 8005820:	2200      	movs	r2, #0
 8005822:	2140      	movs	r1, #64	@ 0x40
 8005824:	68f8      	ldr	r0, [r7, #12]
 8005826:	f000 f814 	bl	8005852 <UART_WaitOnFlagUntilTimeout>
 800582a:	4603      	mov	r3, r0
 800582c:	2b00      	cmp	r3, #0
 800582e:	d005      	beq.n	800583c <HAL_UART_Transmit+0x100>
    {
      huart->gState = HAL_UART_STATE_READY;
 8005830:	68fb      	ldr	r3, [r7, #12]
 8005832:	2220      	movs	r2, #32
 8005834:	f883 2041 	strb.w	r2, [r3, #65]	@ 0x41

      return HAL_TIMEOUT;
 8005838:	2303      	movs	r3, #3
 800583a:	e006      	b.n	800584a <HAL_UART_Transmit+0x10e>
    }

    /* At end of Tx process, restore huart->gState to Ready */
    huart->gState = HAL_UART_STATE_READY;
 800583c:	68fb      	ldr	r3, [r7, #12]
 800583e:	2220      	movs	r2, #32
 8005840:	f883 2041 	strb.w	r2, [r3, #65]	@ 0x41

    return HAL_OK;
 8005844:	2300      	movs	r3, #0
 8005846:	e000      	b.n	800584a <HAL_UART_Transmit+0x10e>
  }
  else
  {
    return HAL_BUSY;
 8005848:	2302      	movs	r3, #2
  }
}
 800584a:	4618      	mov	r0, r3
 800584c:	3720      	adds	r7, #32
 800584e:	46bd      	mov	sp, r7
 8005850:	bd80      	pop	{r7, pc}

08005852 <UART_WaitOnFlagUntilTimeout>:
  * @param  Timeout Timeout duration
  * @retval HAL status
  */
static HAL_StatusTypeDef UART_WaitOnFlagUntilTimeout(UART_HandleTypeDef *huart, uint32_t Flag, FlagStatus Status,
                                                     uint32_t Tickstart, uint32_t Timeout)
{
 8005852:	b580      	push	{r7, lr}
 8005854:	b086      	sub	sp, #24
 8005856:	af00      	add	r7, sp, #0
 8005858:	60f8      	str	r0, [r7, #12]
 800585a:	60b9      	str	r1, [r7, #8]
 800585c:	603b      	str	r3, [r7, #0]
 800585e:	4613      	mov	r3, r2
 8005860:	71fb      	strb	r3, [r7, #7]
  /* Wait until flag is set */
  while ((__HAL_UART_GET_FLAG(huart, Flag) ? SET : RESET) == Status)
 8005862:	e03b      	b.n	80058dc <UART_WaitOnFlagUntilTimeout+0x8a>
  {
    /* Check for the Timeout */
    if (Timeout != HAL_MAX_DELAY)
 8005864:	6a3b      	ldr	r3, [r7, #32]
 8005866:	f1b3 3fff 	cmp.w	r3, #4294967295
 800586a:	d037      	beq.n	80058dc <UART_WaitOnFlagUntilTimeout+0x8a>
    {
      if (((HAL_GetTick() - Tickstart) > Timeout) || (Timeout == 0U))
 800586c:	f7fd fb88 	bl	8002f80 <HAL_GetTick>
 8005870:	4602      	mov	r2, r0
 8005872:	683b      	ldr	r3, [r7, #0]
 8005874:	1ad3      	subs	r3, r2, r3
 8005876:	6a3a      	ldr	r2, [r7, #32]
 8005878:	429a      	cmp	r2, r3
 800587a:	d302      	bcc.n	8005882 <UART_WaitOnFlagUntilTimeout+0x30>
 800587c:	6a3b      	ldr	r3, [r7, #32]
 800587e:	2b00      	cmp	r3, #0
 8005880:	d101      	bne.n	8005886 <UART_WaitOnFlagUntilTimeout+0x34>
      {

        return HAL_TIMEOUT;
 8005882:	2303      	movs	r3, #3
 8005884:	e03a      	b.n	80058fc <UART_WaitOnFlagUntilTimeout+0xaa>
      }

      if ((READ_BIT(huart->Instance->CR1, USART_CR1_RE) != 0U) && (Flag != UART_FLAG_TXE) && (Flag != UART_FLAG_TC))
 8005886:	68fb      	ldr	r3, [r7, #12]
 8005888:	681b      	ldr	r3, [r3, #0]
 800588a:	68db      	ldr	r3, [r3, #12]
 800588c:	f003 0304 	and.w	r3, r3, #4
 8005890:	2b00      	cmp	r3, #0
 8005892:	d023      	beq.n	80058dc <UART_WaitOnFlagUntilTimeout+0x8a>
 8005894:	68bb      	ldr	r3, [r7, #8]
 8005896:	2b80      	cmp	r3, #128	@ 0x80
 8005898:	d020      	beq.n	80058dc <UART_WaitOnFlagUntilTimeout+0x8a>
 800589a:	68bb      	ldr	r3, [r7, #8]
 800589c:	2b40      	cmp	r3, #64	@ 0x40
 800589e:	d01d      	beq.n	80058dc <UART_WaitOnFlagUntilTimeout+0x8a>
      {
        if (__HAL_UART_GET_FLAG(huart, UART_FLAG_ORE) == SET)
 80058a0:	68fb      	ldr	r3, [r7, #12]
 80058a2:	681b      	ldr	r3, [r3, #0]
 80058a4:	681b      	ldr	r3, [r3, #0]
 80058a6:	f003 0308 	and.w	r3, r3, #8
 80058aa:	2b08      	cmp	r3, #8
 80058ac:	d116      	bne.n	80058dc <UART_WaitOnFlagUntilTimeout+0x8a>
        {
          /* Clear Overrun Error flag*/
          __HAL_UART_CLEAR_OREFLAG(huart);
 80058ae:	2300      	movs	r3, #0
 80058b0:	617b      	str	r3, [r7, #20]
 80058b2:	68fb      	ldr	r3, [r7, #12]
 80058b4:	681b      	ldr	r3, [r3, #0]
 80058b6:	681b      	ldr	r3, [r3, #0]
 80058b8:	617b      	str	r3, [r7, #20]
 80058ba:	68fb      	ldr	r3, [r7, #12]
 80058bc:	681b      	ldr	r3, [r3, #0]
 80058be:	685b      	ldr	r3, [r3, #4]
 80058c0:	617b      	str	r3, [r7, #20]
 80058c2:	697b      	ldr	r3, [r7, #20]

          /* Blocking error : transfer is aborted
          Set the UART state ready to be able to start again the process,
          Disable Rx Interrupts if ongoing */
          UART_EndRxTransfer(huart);
 80058c4:	68f8      	ldr	r0, [r7, #12]
 80058c6:	f000 f81d 	bl	8005904 <UART_EndRxTransfer>

          huart->ErrorCode = HAL_UART_ERROR_ORE;
 80058ca:	68fb      	ldr	r3, [r7, #12]
 80058cc:	2208      	movs	r2, #8
 80058ce:	645a      	str	r2, [r3, #68]	@ 0x44

          /* Process Unlocked */
          __HAL_UNLOCK(huart);
 80058d0:	68fb      	ldr	r3, [r7, #12]
 80058d2:	2200      	movs	r2, #0
 80058d4:	f883 2040 	strb.w	r2, [r3, #64]	@ 0x40

          return HAL_ERROR;
 80058d8:	2301      	movs	r3, #1
 80058da:	e00f      	b.n	80058fc <UART_WaitOnFlagUntilTimeout+0xaa>
  while ((__HAL_UART_GET_FLAG(huart, Flag) ? SET : RESET) == Status)
 80058dc:	68fb      	ldr	r3, [r7, #12]
 80058de:	681b      	ldr	r3, [r3, #0]
 80058e0:	681a      	ldr	r2, [r3, #0]
 80058e2:	68bb      	ldr	r3, [r7, #8]
 80058e4:	4013      	ands	r3, r2
 80058e6:	68ba      	ldr	r2, [r7, #8]
 80058e8:	429a      	cmp	r2, r3
 80058ea:	bf0c      	ite	eq
 80058ec:	2301      	moveq	r3, #1
 80058ee:	2300      	movne	r3, #0
 80058f0:	b2db      	uxtb	r3, r3
 80058f2:	461a      	mov	r2, r3
 80058f4:	79fb      	ldrb	r3, [r7, #7]
 80058f6:	429a      	cmp	r2, r3
 80058f8:	d0b4      	beq.n	8005864 <UART_WaitOnFlagUntilTimeout+0x12>
        }
      }
    }
  }
  return HAL_OK;
 80058fa:	2300      	movs	r3, #0
}
 80058fc:	4618      	mov	r0, r3
 80058fe:	3718      	adds	r7, #24
 8005900:	46bd      	mov	sp, r7
 8005902:	bd80      	pop	{r7, pc}

08005904 <UART_EndRxTransfer>:
  * @brief  End ongoing Rx transfer on UART peripheral (following error detection or Reception completion).
  * @param  huart UART handle.
  * @retval None
  */
static void UART_EndRxTransfer(UART_HandleTypeDef *huart)
{
 8005904:	b480      	push	{r7}
 8005906:	b095      	sub	sp, #84	@ 0x54
 8005908:	af00      	add	r7, sp, #0
 800590a:	6078      	str	r0, [r7, #4]
  /* Disable RXNE, PE and ERR (Frame error, noise error, overrun error) interrupts */
  ATOMIC_CLEAR_BIT(huart->Instance->CR1, (USART_CR1_RXNEIE | USART_CR1_PEIE));
 800590c:	687b      	ldr	r3, [r7, #4]
 800590e:	681b      	ldr	r3, [r3, #0]
 8005910:	330c      	adds	r3, #12
 8005912:	637b      	str	r3, [r7, #52]	@ 0x34
   __ASM volatile ("ldrex %0, %1" : "=r" (result) : "Q" (*addr) );
 8005914:	6b7b      	ldr	r3, [r7, #52]	@ 0x34
 8005916:	e853 3f00 	ldrex	r3, [r3]
 800591a:	633b      	str	r3, [r7, #48]	@ 0x30
   return(result);
 800591c:	6b3b      	ldr	r3, [r7, #48]	@ 0x30
 800591e:	f423 7390 	bic.w	r3, r3, #288	@ 0x120
 8005922:	64fb      	str	r3, [r7, #76]	@ 0x4c
 8005924:	687b      	ldr	r3, [r7, #4]
 8005926:	681b      	ldr	r3, [r3, #0]
 8005928:	330c      	adds	r3, #12
 800592a:	6cfa      	ldr	r2, [r7, #76]	@ 0x4c
 800592c:	643a      	str	r2, [r7, #64]	@ 0x40
 800592e:	63fb      	str	r3, [r7, #60]	@ 0x3c
   __ASM volatile ("strex %0, %2, %1" : "=&r" (result), "=Q" (*addr) : "r" (value) );
 8005930:	6bf9      	ldr	r1, [r7, #60]	@ 0x3c
 8005932:	6c3a      	ldr	r2, [r7, #64]	@ 0x40
 8005934:	e841 2300 	strex	r3, r2, [r1]
 8005938:	63bb      	str	r3, [r7, #56]	@ 0x38
   return(result);
 800593a:	6bbb      	ldr	r3, [r7, #56]	@ 0x38
 800593c:	2b00      	cmp	r3, #0
 800593e:	d1e5      	bne.n	800590c <UART_EndRxTransfer+0x8>
  ATOMIC_CLEAR_BIT(huart->Instance->CR3, USART_CR3_EIE);
 8005940:	687b      	ldr	r3, [r7, #4]
 8005942:	681b      	ldr	r3, [r3, #0]
 8005944:	3314      	adds	r3, #20
 8005946:	623b      	str	r3, [r7, #32]
   __ASM volatile ("ldrex %0, %1" : "=r" (result) : "Q" (*addr) );
 8005948:	6a3b      	ldr	r3, [r7, #32]
 800594a:	e853 3f00 	ldrex	r3, [r3]
 800594e:	61fb      	str	r3, [r7, #28]
   return(result);
 8005950:	69fb      	ldr	r3, [r7, #28]
 8005952:	f023 0301 	bic.w	r3, r3, #1
 8005956:	64bb      	str	r3, [r7, #72]	@ 0x48
 8005958:	687b      	ldr	r3, [r7, #4]
 800595a:	681b      	ldr	r3, [r3, #0]
 800595c:	3314      	adds	r3, #20
 800595e:	6cba      	ldr	r2, [r7, #72]	@ 0x48
 8005960:	62fa      	str	r2, [r7, #44]	@ 0x2c
 8005962:	62bb      	str	r3, [r7, #40]	@ 0x28
   __ASM volatile ("strex %0, %2, %1" : "=&r" (result), "=Q" (*addr) : "r" (value) );
 8005964:	6ab9      	ldr	r1, [r7, #40]	@ 0x28
 8005966:	6afa      	ldr	r2, [r7, #44]	@ 0x2c
 8005968:	e841 2300 	strex	r3, r2, [r1]
 800596c:	627b      	str	r3, [r7, #36]	@ 0x24
   return(result);
 800596e:	6a7b      	ldr	r3, [r7, #36]	@ 0x24
 8005970:	2b00      	cmp	r3, #0
 8005972:	d1e5      	bne.n	8005940 <UART_EndRxTransfer+0x3c>

  /* In case of reception waiting for IDLE event, disable also the IDLE IE interrupt source */
  if (huart->ReceptionType == HAL_UART_RECEPTION_TOIDLE)
 8005974:	687b      	ldr	r3, [r7, #4]
 8005976:	6b1b      	ldr	r3, [r3, #48]	@ 0x30
 8005978:	2b01      	cmp	r3, #1
 800597a:	d119      	bne.n	80059b0 <UART_EndRxTransfer+0xac>
  {
    ATOMIC_CLEAR_BIT(huart->Instance->CR1, USART_CR1_IDLEIE);
 800597c:	687b      	ldr	r3, [r7, #4]
 800597e:	681b      	ldr	r3, [r3, #0]
 8005980:	330c      	adds	r3, #12
 8005982:	60fb      	str	r3, [r7, #12]
   __ASM volatile ("ldrex %0, %1" : "=r" (result) : "Q" (*addr) );
 8005984:	68fb      	ldr	r3, [r7, #12]
 8005986:	e853 3f00 	ldrex	r3, [r3]
 800598a:	60bb      	str	r3, [r7, #8]
   return(result);
 800598c:	68bb      	ldr	r3, [r7, #8]
 800598e:	f023 0310 	bic.w	r3, r3, #16
 8005992:	647b      	str	r3, [r7, #68]	@ 0x44
 8005994:	687b      	ldr	r3, [r7, #4]
 8005996:	681b      	ldr	r3, [r3, #0]
 8005998:	330c      	adds	r3, #12
 800599a:	6c7a      	ldr	r2, [r7, #68]	@ 0x44
 800599c:	61ba      	str	r2, [r7, #24]
 800599e:	617b      	str	r3, [r7, #20]
   __ASM volatile ("strex %0, %2, %1" : "=&r" (result), "=Q" (*addr) : "r" (value) );
 80059a0:	6979      	ldr	r1, [r7, #20]
 80059a2:	69ba      	ldr	r2, [r7, #24]
 80059a4:	e841 2300 	strex	r3, r2, [r1]
 80059a8:	613b      	str	r3, [r7, #16]
   return(result);
 80059aa:	693b      	ldr	r3, [r7, #16]
 80059ac:	2b00      	cmp	r3, #0
 80059ae:	d1e5      	bne.n	800597c <UART_EndRxTransfer+0x78>
  }

  /* At end of Rx process, restore huart->RxState to Ready */
  huart->RxState = HAL_UART_STATE_READY;
 80059b0:	687b      	ldr	r3, [r7, #4]
 80059b2:	2220      	movs	r2, #32
 80059b4:	f883 2042 	strb.w	r2, [r3, #66]	@ 0x42
  huart->ReceptionType = HAL_UART_RECEPTION_STANDARD;
 80059b8:	687b      	ldr	r3, [r7, #4]
 80059ba:	2200      	movs	r2, #0
 80059bc:	631a      	str	r2, [r3, #48]	@ 0x30
}
 80059be:	bf00      	nop
 80059c0:	3754      	adds	r7, #84	@ 0x54
 80059c2:	46bd      	mov	sp, r7
 80059c4:	f85d 7b04 	ldr.w	r7, [sp], #4
 80059c8:	4770      	bx	lr
	...

080059cc <UART_SetConfig>:
  * @param  huart  Pointer to a UART_HandleTypeDef structure that contains
  *                the configuration information for the specified UART module.
  * @retval None
  */
static void UART_SetConfig(UART_HandleTypeDef *huart)
{
 80059cc:	e92d 4fb0 	stmdb	sp!, {r4, r5, r7, r8, r9, sl, fp, lr}
 80059d0:	b0c0      	sub	sp, #256	@ 0x100
 80059d2:	af00      	add	r7, sp, #0
 80059d4:	f8c7 00f4 	str.w	r0, [r7, #244]	@ 0xf4
  assert_param(IS_UART_MODE(huart->Init.Mode));

  /*-------------------------- USART CR2 Configuration -----------------------*/
  /* Configure the UART Stop Bits: Set STOP[13:12] bits
     according to huart->Init.StopBits value */
  MODIFY_REG(huart->Instance->CR2, USART_CR2_STOP, huart->Init.StopBits);
 80059d8:	f8d7 30f4 	ldr.w	r3, [r7, #244]	@ 0xf4
 80059dc:	681b      	ldr	r3, [r3, #0]
 80059de:	691b      	ldr	r3, [r3, #16]
 80059e0:	f423 5040 	bic.w	r0, r3, #12288	@ 0x3000
 80059e4:	f8d7 30f4 	ldr.w	r3, [r7, #244]	@ 0xf4
 80059e8:	68d9      	ldr	r1, [r3, #12]
 80059ea:	f8d7 30f4 	ldr.w	r3, [r7, #244]	@ 0xf4
 80059ee:	681a      	ldr	r2, [r3, #0]
 80059f0:	ea40 0301 	orr.w	r3, r0, r1
 80059f4:	6113      	str	r3, [r2, #16]
     Set the M bits according to huart->Init.WordLength value
     Set PCE and PS bits according to huart->Init.Parity value
     Set TE and RE bits according to huart->Init.Mode value
     Set OVER8 bit according to huart->Init.OverSampling value */

  tmpreg = (uint32_t)huart->Init.WordLength | huart->Init.Parity | huart->Init.Mode | huart->Init.OverSampling;
 80059f6:	f8d7 30f4 	ldr.w	r3, [r7, #244]	@ 0xf4
 80059fa:	689a      	ldr	r2, [r3, #8]
 80059fc:	f8d7 30f4 	ldr.w	r3, [r7, #244]	@ 0xf4
 8005a00:	691b      	ldr	r3, [r3, #16]
 8005a02:	431a      	orrs	r2, r3
 8005a04:	f8d7 30f4 	ldr.w	r3, [r7, #244]	@ 0xf4
 8005a08:	695b      	ldr	r3, [r3, #20]
 8005a0a:	431a      	orrs	r2, r3
 8005a0c:	f8d7 30f4 	ldr.w	r3, [r7, #244]	@ 0xf4
 8005a10:	69db      	ldr	r3, [r3, #28]
 8005a12:	4313      	orrs	r3, r2
 8005a14:	f8c7 30f8 	str.w	r3, [r7, #248]	@ 0xf8
  MODIFY_REG(huart->Instance->CR1,
 8005a18:	f8d7 30f4 	ldr.w	r3, [r7, #244]	@ 0xf4
 8005a1c:	681b      	ldr	r3, [r3, #0]
 8005a1e:	68db      	ldr	r3, [r3, #12]
 8005a20:	f423 4116 	bic.w	r1, r3, #38400	@ 0x9600
 8005a24:	f021 010c 	bic.w	r1, r1, #12
 8005a28:	f8d7 30f4 	ldr.w	r3, [r7, #244]	@ 0xf4
 8005a2c:	681a      	ldr	r2, [r3, #0]
 8005a2e:	f8d7 30f8 	ldr.w	r3, [r7, #248]	@ 0xf8
 8005a32:	430b      	orrs	r3, r1
 8005a34:	60d3      	str	r3, [r2, #12]
             (uint32_t)(USART_CR1_M | USART_CR1_PCE | USART_CR1_PS | USART_CR1_TE | USART_CR1_RE | USART_CR1_OVER8),
             tmpreg);

  /*-------------------------- USART CR3 Configuration -----------------------*/
  /* Configure the UART HFC: Set CTSE and RTSE bits according to huart->Init.HwFlowCtl value */
  MODIFY_REG(huart->Instance->CR3, (USART_CR3_RTSE | USART_CR3_CTSE), huart->Init.HwFlowCtl);
 8005a36:	f8d7 30f4 	ldr.w	r3, [r7, #244]	@ 0xf4
 8005a3a:	681b      	ldr	r3, [r3, #0]
 8005a3c:	695b      	ldr	r3, [r3, #20]
 8005a3e:	f423 7040 	bic.w	r0, r3, #768	@ 0x300
 8005a42:	f8d7 30f4 	ldr.w	r3, [r7, #244]	@ 0xf4
 8005a46:	6999      	ldr	r1, [r3, #24]
 8005a48:	f8d7 30f4 	ldr.w	r3, [r7, #244]	@ 0xf4
 8005a4c:	681a      	ldr	r2, [r3, #0]
 8005a4e:	ea40 0301 	orr.w	r3, r0, r1
 8005a52:	6153      	str	r3, [r2, #20]
    if ((huart->Instance == USART1) || (huart->Instance == USART6) || (huart->Instance == UART9) || (huart->Instance == UART10))
    {
      pclk = HAL_RCC_GetPCLK2Freq();
    }
#elif defined(USART6)
    if ((huart->Instance == USART1) || (huart->Instance == USART6))
 8005a54:	f8d7 30f4 	ldr.w	r3, [r7, #244]	@ 0xf4
 8005a58:	681a      	ldr	r2, [r3, #0]
 8005a5a:	4b8f      	ldr	r3, [pc, #572]	@ (8005c98 <UART_SetConfig+0x2cc>)
 8005a5c:	429a      	cmp	r2, r3
 8005a5e:	d005      	beq.n	8005a6c <UART_SetConfig+0xa0>
 8005a60:	f8d7 30f4 	ldr.w	r3, [r7, #244]	@ 0xf4
 8005a64:	681a      	ldr	r2, [r3, #0]
 8005a66:	4b8d      	ldr	r3, [pc, #564]	@ (8005c9c <UART_SetConfig+0x2d0>)
 8005a68:	429a      	cmp	r2, r3
 8005a6a:	d104      	bne.n	8005a76 <UART_SetConfig+0xaa>
    {
      pclk = HAL_RCC_GetPCLK2Freq();
 8005a6c:	f7fe f88e 	bl	8003b8c <HAL_RCC_GetPCLK2Freq>
 8005a70:	f8c7 00fc 	str.w	r0, [r7, #252]	@ 0xfc
 8005a74:	e003      	b.n	8005a7e <UART_SetConfig+0xb2>
      pclk = HAL_RCC_GetPCLK2Freq();
    }
#endif /* USART6 */
    else
    {
      pclk = HAL_RCC_GetPCLK1Freq();
 8005a76:	f7fe f875 	bl	8003b64 <HAL_RCC_GetPCLK1Freq>
 8005a7a:	f8c7 00fc 	str.w	r0, [r7, #252]	@ 0xfc
    }
  /*-------------------------- USART BRR Configuration ---------------------*/
  if (huart->Init.OverSampling == UART_OVERSAMPLING_8)
 8005a7e:	f8d7 30f4 	ldr.w	r3, [r7, #244]	@ 0xf4
 8005a82:	69db      	ldr	r3, [r3, #28]
 8005a84:	f5b3 4f00 	cmp.w	r3, #32768	@ 0x8000
 8005a88:	f040 810c 	bne.w	8005ca4 <UART_SetConfig+0x2d8>
  {
    huart->Instance->BRR = UART_BRR_SAMPLING8(pclk, huart->Init.BaudRate);
 8005a8c:	f8d7 30fc 	ldr.w	r3, [r7, #252]	@ 0xfc
 8005a90:	2200      	movs	r2, #0
 8005a92:	f8c7 30e8 	str.w	r3, [r7, #232]	@ 0xe8
 8005a96:	f8c7 20ec 	str.w	r2, [r7, #236]	@ 0xec
 8005a9a:	e9d7 453a 	ldrd	r4, r5, [r7, #232]	@ 0xe8
 8005a9e:	4622      	mov	r2, r4
 8005aa0:	462b      	mov	r3, r5
 8005aa2:	1891      	adds	r1, r2, r2
 8005aa4:	65b9      	str	r1, [r7, #88]	@ 0x58
 8005aa6:	415b      	adcs	r3, r3
 8005aa8:	65fb      	str	r3, [r7, #92]	@ 0x5c
 8005aaa:	e9d7 2316 	ldrd	r2, r3, [r7, #88]	@ 0x58
 8005aae:	4621      	mov	r1, r4
 8005ab0:	eb12 0801 	adds.w	r8, r2, r1
 8005ab4:	4629      	mov	r1, r5
 8005ab6:	eb43 0901 	adc.w	r9, r3, r1
 8005aba:	f04f 0200 	mov.w	r2, #0
 8005abe:	f04f 0300 	mov.w	r3, #0
 8005ac2:	ea4f 03c9 	mov.w	r3, r9, lsl #3
 8005ac6:	ea43 7358 	orr.w	r3, r3, r8, lsr #29
 8005aca:	ea4f 02c8 	mov.w	r2, r8, lsl #3
 8005ace:	4690      	mov	r8, r2
 8005ad0:	4699      	mov	r9, r3
 8005ad2:	4623      	mov	r3, r4
 8005ad4:	eb18 0303 	adds.w	r3, r8, r3
 8005ad8:	f8c7 30e0 	str.w	r3, [r7, #224]	@ 0xe0
 8005adc:	462b      	mov	r3, r5
 8005ade:	eb49 0303 	adc.w	r3, r9, r3
 8005ae2:	f8c7 30e4 	str.w	r3, [r7, #228]	@ 0xe4
 8005ae6:	f8d7 30f4 	ldr.w	r3, [r7, #244]	@ 0xf4
 8005aea:	685b      	ldr	r3, [r3, #4]
 8005aec:	2200      	movs	r2, #0
 8005aee:	f8c7 30d8 	str.w	r3, [r7, #216]	@ 0xd8
 8005af2:	f8c7 20dc 	str.w	r2, [r7, #220]	@ 0xdc
 8005af6:	e9d7 1236 	ldrd	r1, r2, [r7, #216]	@ 0xd8
 8005afa:	460b      	mov	r3, r1
 8005afc:	18db      	adds	r3, r3, r3
 8005afe:	653b      	str	r3, [r7, #80]	@ 0x50
 8005b00:	4613      	mov	r3, r2
 8005b02:	eb42 0303 	adc.w	r3, r2, r3
 8005b06:	657b      	str	r3, [r7, #84]	@ 0x54
 8005b08:	e9d7 2314 	ldrd	r2, r3, [r7, #80]	@ 0x50
 8005b0c:	e9d7 0138 	ldrd	r0, r1, [r7, #224]	@ 0xe0
 8005b10:	f7fb f8ba 	bl	8000c88 <__aeabi_uldivmod>
 8005b14:	4602      	mov	r2, r0
 8005b16:	460b      	mov	r3, r1
 8005b18:	4b61      	ldr	r3, [pc, #388]	@ (8005ca0 <UART_SetConfig+0x2d4>)
 8005b1a:	fba3 2302 	umull	r2, r3, r3, r2
 8005b1e:	095b      	lsrs	r3, r3, #5
 8005b20:	011c      	lsls	r4, r3, #4
 8005b22:	f8d7 30fc 	ldr.w	r3, [r7, #252]	@ 0xfc
 8005b26:	2200      	movs	r2, #0
 8005b28:	f8c7 30d0 	str.w	r3, [r7, #208]	@ 0xd0
 8005b2c:	f8c7 20d4 	str.w	r2, [r7, #212]	@ 0xd4
 8005b30:	e9d7 8934 	ldrd	r8, r9, [r7, #208]	@ 0xd0
 8005b34:	4642      	mov	r2, r8
 8005b36:	464b      	mov	r3, r9
 8005b38:	1891      	adds	r1, r2, r2
 8005b3a:	64b9      	str	r1, [r7, #72]	@ 0x48
 8005b3c:	415b      	adcs	r3, r3
 8005b3e:	64fb      	str	r3, [r7, #76]	@ 0x4c
 8005b40:	e9d7 2312 	ldrd	r2, r3, [r7, #72]	@ 0x48
 8005b44:	4641      	mov	r1, r8
 8005b46:	eb12 0a01 	adds.w	sl, r2, r1
 8005b4a:	4649      	mov	r1, r9
 8005b4c:	eb43 0b01 	adc.w	fp, r3, r1
 8005b50:	f04f 0200 	mov.w	r2, #0
 8005b54:	f04f 0300 	mov.w	r3, #0
 8005b58:	ea4f 03cb 	mov.w	r3, fp, lsl #3
 8005b5c:	ea43 735a 	orr.w	r3, r3, sl, lsr #29
 8005b60:	ea4f 02ca 	mov.w	r2, sl, lsl #3
 8005b64:	4692      	mov	sl, r2
 8005b66:	469b      	mov	fp, r3
 8005b68:	4643      	mov	r3, r8
 8005b6a:	eb1a 0303 	adds.w	r3, sl, r3
 8005b6e:	f8c7 30c8 	str.w	r3, [r7, #200]	@ 0xc8
 8005b72:	464b      	mov	r3, r9
 8005b74:	eb4b 0303 	adc.w	r3, fp, r3
 8005b78:	f8c7 30cc 	str.w	r3, [r7, #204]	@ 0xcc
 8005b7c:	f8d7 30f4 	ldr.w	r3, [r7, #244]	@ 0xf4
 8005b80:	685b      	ldr	r3, [r3, #4]
 8005b82:	2200      	movs	r2, #0
 8005b84:	f8c7 30c0 	str.w	r3, [r7, #192]	@ 0xc0
 8005b88:	f8c7 20c4 	str.w	r2, [r7, #196]	@ 0xc4
 8005b8c:	e9d7 1230 	ldrd	r1, r2, [r7, #192]	@ 0xc0
 8005b90:	460b      	mov	r3, r1
 8005b92:	18db      	adds	r3, r3, r3
 8005b94:	643b      	str	r3, [r7, #64]	@ 0x40
 8005b96:	4613      	mov	r3, r2
 8005b98:	eb42 0303 	adc.w	r3, r2, r3
 8005b9c:	647b      	str	r3, [r7, #68]	@ 0x44
 8005b9e:	e9d7 2310 	ldrd	r2, r3, [r7, #64]	@ 0x40
 8005ba2:	e9d7 0132 	ldrd	r0, r1, [r7, #200]	@ 0xc8
 8005ba6:	f7fb f86f 	bl	8000c88 <__aeabi_uldivmod>
 8005baa:	4602      	mov	r2, r0
 8005bac:	460b      	mov	r3, r1
 8005bae:	4611      	mov	r1, r2
 8005bb0:	4b3b      	ldr	r3, [pc, #236]	@ (8005ca0 <UART_SetConfig+0x2d4>)
 8005bb2:	fba3 2301 	umull	r2, r3, r3, r1
 8005bb6:	095b      	lsrs	r3, r3, #5
 8005bb8:	2264      	movs	r2, #100	@ 0x64
 8005bba:	fb02 f303 	mul.w	r3, r2, r3
 8005bbe:	1acb      	subs	r3, r1, r3
 8005bc0:	00db      	lsls	r3, r3, #3
 8005bc2:	f103 0232 	add.w	r2, r3, #50	@ 0x32
 8005bc6:	4b36      	ldr	r3, [pc, #216]	@ (8005ca0 <UART_SetConfig+0x2d4>)
 8005bc8:	fba3 2302 	umull	r2, r3, r3, r2
 8005bcc:	095b      	lsrs	r3, r3, #5
 8005bce:	005b      	lsls	r3, r3, #1
 8005bd0:	f403 73f8 	and.w	r3, r3, #496	@ 0x1f0
 8005bd4:	441c      	add	r4, r3
 8005bd6:	f8d7 30fc 	ldr.w	r3, [r7, #252]	@ 0xfc
 8005bda:	2200      	movs	r2, #0
 8005bdc:	f8c7 30b8 	str.w	r3, [r7, #184]	@ 0xb8
 8005be0:	f8c7 20bc 	str.w	r2, [r7, #188]	@ 0xbc
 8005be4:	e9d7 892e 	ldrd	r8, r9, [r7, #184]	@ 0xb8
 8005be8:	4642      	mov	r2, r8
 8005bea:	464b      	mov	r3, r9
 8005bec:	1891      	adds	r1, r2, r2
 8005bee:	63b9      	str	r1, [r7, #56]	@ 0x38
 8005bf0:	415b      	adcs	r3, r3
 8005bf2:	63fb      	str	r3, [r7, #60]	@ 0x3c
 8005bf4:	e9d7 230e 	ldrd	r2, r3, [r7, #56]	@ 0x38
 8005bf8:	4641      	mov	r1, r8
 8005bfa:	1851      	adds	r1, r2, r1
 8005bfc:	6339      	str	r1, [r7, #48]	@ 0x30
 8005bfe:	4649      	mov	r1, r9
 8005c00:	414b      	adcs	r3, r1
 8005c02:	637b      	str	r3, [r7, #52]	@ 0x34
 8005c04:	f04f 0200 	mov.w	r2, #0
 8005c08:	f04f 0300 	mov.w	r3, #0
 8005c0c:	e9d7 ab0c 	ldrd	sl, fp, [r7, #48]	@ 0x30
 8005c10:	4659      	mov	r1, fp
 8005c12:	00cb      	lsls	r3, r1, #3
 8005c14:	4651      	mov	r1, sl
 8005c16:	ea43 7351 	orr.w	r3, r3, r1, lsr #29
 8005c1a:	4651      	mov	r1, sl
 8005c1c:	00ca      	lsls	r2, r1, #3
 8005c1e:	4610      	mov	r0, r2
 8005c20:	4619      	mov	r1, r3
 8005c22:	4603      	mov	r3, r0
 8005c24:	4642      	mov	r2, r8
 8005c26:	189b      	adds	r3, r3, r2
 8005c28:	f8c7 30b0 	str.w	r3, [r7, #176]	@ 0xb0
 8005c2c:	464b      	mov	r3, r9
 8005c2e:	460a      	mov	r2, r1
 8005c30:	eb42 0303 	adc.w	r3, r2, r3
 8005c34:	f8c7 30b4 	str.w	r3, [r7, #180]	@ 0xb4
 8005c38:	f8d7 30f4 	ldr.w	r3, [r7, #244]	@ 0xf4
 8005c3c:	685b      	ldr	r3, [r3, #4]
 8005c3e:	2200      	movs	r2, #0
 8005c40:	f8c7 30a8 	str.w	r3, [r7, #168]	@ 0xa8
 8005c44:	f8c7 20ac 	str.w	r2, [r7, #172]	@ 0xac
 8005c48:	e9d7 122a 	ldrd	r1, r2, [r7, #168]	@ 0xa8
 8005c4c:	460b      	mov	r3, r1
 8005c4e:	18db      	adds	r3, r3, r3
 8005c50:	62bb      	str	r3, [r7, #40]	@ 0x28
 8005c52:	4613      	mov	r3, r2
 8005c54:	eb42 0303 	adc.w	r3, r2, r3
 8005c58:	62fb      	str	r3, [r7, #44]	@ 0x2c
 8005c5a:	e9d7 230a 	ldrd	r2, r3, [r7, #40]	@ 0x28
 8005c5e:	e9d7 012c 	ldrd	r0, r1, [r7, #176]	@ 0xb0
 8005c62:	f7fb f811 	bl	8000c88 <__aeabi_uldivmod>
 8005c66:	4602      	mov	r2, r0
 8005c68:	460b      	mov	r3, r1
 8005c6a:	4b0d      	ldr	r3, [pc, #52]	@ (8005ca0 <UART_SetConfig+0x2d4>)
 8005c6c:	fba3 1302 	umull	r1, r3, r3, r2
 8005c70:	095b      	lsrs	r3, r3, #5
 8005c72:	2164      	movs	r1, #100	@ 0x64
 8005c74:	fb01 f303 	mul.w	r3, r1, r3
 8005c78:	1ad3      	subs	r3, r2, r3
 8005c7a:	00db      	lsls	r3, r3, #3
 8005c7c:	3332      	adds	r3, #50	@ 0x32
 8005c7e:	4a08      	ldr	r2, [pc, #32]	@ (8005ca0 <UART_SetConfig+0x2d4>)
 8005c80:	fba2 2303 	umull	r2, r3, r2, r3
 8005c84:	095b      	lsrs	r3, r3, #5
 8005c86:	f003 0207 	and.w	r2, r3, #7
 8005c8a:	f8d7 30f4 	ldr.w	r3, [r7, #244]	@ 0xf4
 8005c8e:	681b      	ldr	r3, [r3, #0]
 8005c90:	4422      	add	r2, r4
 8005c92:	609a      	str	r2, [r3, #8]
  }
  else
  {
    huart->Instance->BRR = UART_BRR_SAMPLING16(pclk, huart->Init.BaudRate);
  }
}
 8005c94:	e106      	b.n	8005ea4 <UART_SetConfig+0x4d8>
 8005c96:	bf00      	nop
 8005c98:	40011000 	.word	0x40011000
 8005c9c:	40011400 	.word	0x40011400
 8005ca0:	51eb851f 	.word	0x51eb851f
    huart->Instance->BRR = UART_BRR_SAMPLING16(pclk, huart->Init.BaudRate);
 8005ca4:	f8d7 30fc 	ldr.w	r3, [r7, #252]	@ 0xfc
 8005ca8:	2200      	movs	r2, #0
 8005caa:	f8c7 30a0 	str.w	r3, [r7, #160]	@ 0xa0
 8005cae:	f8c7 20a4 	str.w	r2, [r7, #164]	@ 0xa4
 8005cb2:	e9d7 8928 	ldrd	r8, r9, [r7, #160]	@ 0xa0
 8005cb6:	4642      	mov	r2, r8
 8005cb8:	464b      	mov	r3, r9
 8005cba:	1891      	adds	r1, r2, r2
 8005cbc:	6239      	str	r1, [r7, #32]
 8005cbe:	415b      	adcs	r3, r3
 8005cc0:	627b      	str	r3, [r7, #36]	@ 0x24
 8005cc2:	e9d7 2308 	ldrd	r2, r3, [r7, #32]
 8005cc6:	4641      	mov	r1, r8
 8005cc8:	1854      	adds	r4, r2, r1
 8005cca:	4649      	mov	r1, r9
 8005ccc:	eb43 0501 	adc.w	r5, r3, r1
 8005cd0:	f04f 0200 	mov.w	r2, #0
 8005cd4:	f04f 0300 	mov.w	r3, #0
 8005cd8:	00eb      	lsls	r3, r5, #3
 8005cda:	ea43 7354 	orr.w	r3, r3, r4, lsr #29
 8005cde:	00e2      	lsls	r2, r4, #3
 8005ce0:	4614      	mov	r4, r2
 8005ce2:	461d      	mov	r5, r3
 8005ce4:	4643      	mov	r3, r8
 8005ce6:	18e3      	adds	r3, r4, r3
 8005ce8:	f8c7 3098 	str.w	r3, [r7, #152]	@ 0x98
 8005cec:	464b      	mov	r3, r9
 8005cee:	eb45 0303 	adc.w	r3, r5, r3
 8005cf2:	f8c7 309c 	str.w	r3, [r7, #156]	@ 0x9c
 8005cf6:	f8d7 30f4 	ldr.w	r3, [r7, #244]	@ 0xf4
 8005cfa:	685b      	ldr	r3, [r3, #4]
 8005cfc:	2200      	movs	r2, #0
 8005cfe:	f8c7 3090 	str.w	r3, [r7, #144]	@ 0x90
 8005d02:	f8c7 2094 	str.w	r2, [r7, #148]	@ 0x94
 8005d06:	f04f 0200 	mov.w	r2, #0
 8005d0a:	f04f 0300 	mov.w	r3, #0
 8005d0e:	e9d7 4524 	ldrd	r4, r5, [r7, #144]	@ 0x90
 8005d12:	4629      	mov	r1, r5
 8005d14:	008b      	lsls	r3, r1, #2
 8005d16:	4621      	mov	r1, r4
 8005d18:	ea43 7391 	orr.w	r3, r3, r1, lsr #30
 8005d1c:	4621      	mov	r1, r4
 8005d1e:	008a      	lsls	r2, r1, #2
 8005d20:	e9d7 0126 	ldrd	r0, r1, [r7, #152]	@ 0x98
 8005d24:	f7fa ffb0 	bl	8000c88 <__aeabi_uldivmod>
 8005d28:	4602      	mov	r2, r0
 8005d2a:	460b      	mov	r3, r1
 8005d2c:	4b60      	ldr	r3, [pc, #384]	@ (8005eb0 <UART_SetConfig+0x4e4>)
 8005d2e:	fba3 2302 	umull	r2, r3, r3, r2
 8005d32:	095b      	lsrs	r3, r3, #5
 8005d34:	011c      	lsls	r4, r3, #4
 8005d36:	f8d7 30fc 	ldr.w	r3, [r7, #252]	@ 0xfc
 8005d3a:	2200      	movs	r2, #0
 8005d3c:	f8c7 3088 	str.w	r3, [r7, #136]	@ 0x88
 8005d40:	f8c7 208c 	str.w	r2, [r7, #140]	@ 0x8c
 8005d44:	e9d7 8922 	ldrd	r8, r9, [r7, #136]	@ 0x88
 8005d48:	4642      	mov	r2, r8
 8005d4a:	464b      	mov	r3, r9
 8005d4c:	1891      	adds	r1, r2, r2
 8005d4e:	61b9      	str	r1, [r7, #24]
 8005d50:	415b      	adcs	r3, r3
 8005d52:	61fb      	str	r3, [r7, #28]
 8005d54:	e9d7 2306 	ldrd	r2, r3, [r7, #24]
 8005d58:	4641      	mov	r1, r8
 8005d5a:	1851      	adds	r1, r2, r1
 8005d5c:	6139      	str	r1, [r7, #16]
 8005d5e:	4649      	mov	r1, r9
 8005d60:	414b      	adcs	r3, r1
 8005d62:	617b      	str	r3, [r7, #20]
 8005d64:	f04f 0200 	mov.w	r2, #0
 8005d68:	f04f 0300 	mov.w	r3, #0
 8005d6c:	e9d7 ab04 	ldrd	sl, fp, [r7, #16]
 8005d70:	4659      	mov	r1, fp
 8005d72:	00cb      	lsls	r3, r1, #3
 8005d74:	4651      	mov	r1, sl
 8005d76:	ea43 7351 	orr.w	r3, r3, r1, lsr #29
 8005d7a:	4651      	mov	r1, sl
 8005d7c:	00ca      	lsls	r2, r1, #3
 8005d7e:	4610      	mov	r0, r2
 8005d80:	4619      	mov	r1, r3
 8005d82:	4603      	mov	r3, r0
 8005d84:	4642      	mov	r2, r8
 8005d86:	189b      	adds	r3, r3, r2
 8005d88:	f8c7 3080 	str.w	r3, [r7, #128]	@ 0x80
 8005d8c:	464b      	mov	r3, r9
 8005d8e:	460a      	mov	r2, r1
 8005d90:	eb42 0303 	adc.w	r3, r2, r3
 8005d94:	f8c7 3084 	str.w	r3, [r7, #132]	@ 0x84
 8005d98:	f8d7 30f4 	ldr.w	r3, [r7, #244]	@ 0xf4
 8005d9c:	685b      	ldr	r3, [r3, #4]
 8005d9e:	2200      	movs	r2, #0
 8005da0:	67bb      	str	r3, [r7, #120]	@ 0x78
 8005da2:	67fa      	str	r2, [r7, #124]	@ 0x7c
 8005da4:	f04f 0200 	mov.w	r2, #0
 8005da8:	f04f 0300 	mov.w	r3, #0
 8005dac:	e9d7 891e 	ldrd	r8, r9, [r7, #120]	@ 0x78
 8005db0:	4649      	mov	r1, r9
 8005db2:	008b      	lsls	r3, r1, #2
 8005db4:	4641      	mov	r1, r8
 8005db6:	ea43 7391 	orr.w	r3, r3, r1, lsr #30
 8005dba:	4641      	mov	r1, r8
 8005dbc:	008a      	lsls	r2, r1, #2
 8005dbe:	e9d7 0120 	ldrd	r0, r1, [r7, #128]	@ 0x80
 8005dc2:	f7fa ff61 	bl	8000c88 <__aeabi_uldivmod>
 8005dc6:	4602      	mov	r2, r0
 8005dc8:	460b      	mov	r3, r1
 8005dca:	4611      	mov	r1, r2
 8005dcc:	4b38      	ldr	r3, [pc, #224]	@ (8005eb0 <UART_SetConfig+0x4e4>)
 8005dce:	fba3 2301 	umull	r2, r3, r3, r1
 8005dd2:	095b      	lsrs	r3, r3, #5
 8005dd4:	2264      	movs	r2, #100	@ 0x64
 8005dd6:	fb02 f303 	mul.w	r3, r2, r3
 8005dda:	1acb      	subs	r3, r1, r3
 8005ddc:	011b      	lsls	r3, r3, #4
 8005dde:	3332      	adds	r3, #50	@ 0x32
 8005de0:	4a33      	ldr	r2, [pc, #204]	@ (8005eb0 <UART_SetConfig+0x4e4>)
 8005de2:	fba2 2303 	umull	r2, r3, r2, r3
 8005de6:	095b      	lsrs	r3, r3, #5
 8005de8:	f003 03f0 	and.w	r3, r3, #240	@ 0xf0
 8005dec:	441c      	add	r4, r3
 8005dee:	f8d7 30fc 	ldr.w	r3, [r7, #252]	@ 0xfc
 8005df2:	2200      	movs	r2, #0
 8005df4:	673b      	str	r3, [r7, #112]	@ 0x70
 8005df6:	677a      	str	r2, [r7, #116]	@ 0x74
 8005df8:	e9d7 891c 	ldrd	r8, r9, [r7, #112]	@ 0x70
 8005dfc:	4642      	mov	r2, r8
 8005dfe:	464b      	mov	r3, r9
 8005e00:	1891      	adds	r1, r2, r2
 8005e02:	60b9      	str	r1, [r7, #8]
 8005e04:	415b      	adcs	r3, r3
 8005e06:	60fb      	str	r3, [r7, #12]
 8005e08:	e9d7 2302 	ldrd	r2, r3, [r7, #8]
 8005e0c:	4641      	mov	r1, r8
 8005e0e:	1851      	adds	r1, r2, r1
 8005e10:	6039      	str	r1, [r7, #0]
 8005e12:	4649      	mov	r1, r9
 8005e14:	414b      	adcs	r3, r1
 8005e16:	607b      	str	r3, [r7, #4]
 8005e18:	f04f 0200 	mov.w	r2, #0
 8005e1c:	f04f 0300 	mov.w	r3, #0
 8005e20:	e9d7 ab00 	ldrd	sl, fp, [r7]
 8005e24:	4659      	mov	r1, fp
 8005e26:	00cb      	lsls	r3, r1, #3
 8005e28:	4651      	mov	r1, sl
 8005e2a:	ea43 7351 	orr.w	r3, r3, r1, lsr #29
 8005e2e:	4651      	mov	r1, sl
 8005e30:	00ca      	lsls	r2, r1, #3
 8005e32:	4610      	mov	r0, r2
 8005e34:	4619      	mov	r1, r3
 8005e36:	4603      	mov	r3, r0
 8005e38:	4642      	mov	r2, r8
 8005e3a:	189b      	adds	r3, r3, r2
 8005e3c:	66bb      	str	r3, [r7, #104]	@ 0x68
 8005e3e:	464b      	mov	r3, r9
 8005e40:	460a      	mov	r2, r1
 8005e42:	eb42 0303 	adc.w	r3, r2, r3
 8005e46:	66fb      	str	r3, [r7, #108]	@ 0x6c
 8005e48:	f8d7 30f4 	ldr.w	r3, [r7, #244]	@ 0xf4
 8005e4c:	685b      	ldr	r3, [r3, #4]
 8005e4e:	2200      	movs	r2, #0
 8005e50:	663b      	str	r3, [r7, #96]	@ 0x60
 8005e52:	667a      	str	r2, [r7, #100]	@ 0x64
 8005e54:	f04f 0200 	mov.w	r2, #0
 8005e58:	f04f 0300 	mov.w	r3, #0
 8005e5c:	e9d7 8918 	ldrd	r8, r9, [r7, #96]	@ 0x60
 8005e60:	4649      	mov	r1, r9
 8005e62:	008b      	lsls	r3, r1, #2
 8005e64:	4641      	mov	r1, r8
 8005e66:	ea43 7391 	orr.w	r3, r3, r1, lsr #30
 8005e6a:	4641      	mov	r1, r8
 8005e6c:	008a      	lsls	r2, r1, #2
 8005e6e:	e9d7 011a 	ldrd	r0, r1, [r7, #104]	@ 0x68
 8005e72:	f7fa ff09 	bl	8000c88 <__aeabi_uldivmod>
 8005e76:	4602      	mov	r2, r0
 8005e78:	460b      	mov	r3, r1
 8005e7a:	4b0d      	ldr	r3, [pc, #52]	@ (8005eb0 <UART_SetConfig+0x4e4>)
 8005e7c:	fba3 1302 	umull	r1, r3, r3, r2
 8005e80:	095b      	lsrs	r3, r3, #5
 8005e82:	2164      	movs	r1, #100	@ 0x64
 8005e84:	fb01 f303 	mul.w	r3, r1, r3
 8005e88:	1ad3      	subs	r3, r2, r3
 8005e8a:	011b      	lsls	r3, r3, #4
 8005e8c:	3332      	adds	r3, #50	@ 0x32
 8005e8e:	4a08      	ldr	r2, [pc, #32]	@ (8005eb0 <UART_SetConfig+0x4e4>)
 8005e90:	fba2 2303 	umull	r2, r3, r2, r3
 8005e94:	095b      	lsrs	r3, r3, #5
 8005e96:	f003 020f 	and.w	r2, r3, #15
 8005e9a:	f8d7 30f4 	ldr.w	r3, [r7, #244]	@ 0xf4
 8005e9e:	681b      	ldr	r3, [r3, #0]
 8005ea0:	4422      	add	r2, r4
 8005ea2:	609a      	str	r2, [r3, #8]
}
 8005ea4:	bf00      	nop
 8005ea6:	f507 7780 	add.w	r7, r7, #256	@ 0x100
 8005eaa:	46bd      	mov	sp, r7
 8005eac:	e8bd 8fb0 	ldmia.w	sp!, {r4, r5, r7, r8, r9, sl, fp, pc}
 8005eb0:	51eb851f 	.word	0x51eb851f

08005eb4 <calloc>:
 8005eb4:	4b02      	ldr	r3, [pc, #8]	@ (8005ec0 <calloc+0xc>)
 8005eb6:	460a      	mov	r2, r1
 8005eb8:	4601      	mov	r1, r0
 8005eba:	6818      	ldr	r0, [r3, #0]
 8005ebc:	f000 b802 	b.w	8005ec4 <_calloc_r>
 8005ec0:	2000001c 	.word	0x2000001c

08005ec4 <_calloc_r>:
 8005ec4:	b570      	push	{r4, r5, r6, lr}
 8005ec6:	fba1 5402 	umull	r5, r4, r1, r2
 8005eca:	b93c      	cbnz	r4, 8005edc <_calloc_r+0x18>
 8005ecc:	4629      	mov	r1, r5
 8005ece:	f000 f83f 	bl	8005f50 <_malloc_r>
 8005ed2:	4606      	mov	r6, r0
 8005ed4:	b928      	cbnz	r0, 8005ee2 <_calloc_r+0x1e>
 8005ed6:	2600      	movs	r6, #0
 8005ed8:	4630      	mov	r0, r6
 8005eda:	bd70      	pop	{r4, r5, r6, pc}
 8005edc:	220c      	movs	r2, #12
 8005ede:	6002      	str	r2, [r0, #0]
 8005ee0:	e7f9      	b.n	8005ed6 <_calloc_r+0x12>
 8005ee2:	462a      	mov	r2, r5
 8005ee4:	4621      	mov	r1, r4
 8005ee6:	f000 fe3c 	bl	8006b62 <memset>
 8005eea:	e7f5      	b.n	8005ed8 <_calloc_r+0x14>

08005eec <malloc>:
 8005eec:	4b02      	ldr	r3, [pc, #8]	@ (8005ef8 <malloc+0xc>)
 8005eee:	4601      	mov	r1, r0
 8005ef0:	6818      	ldr	r0, [r3, #0]
 8005ef2:	f000 b82d 	b.w	8005f50 <_malloc_r>
 8005ef6:	bf00      	nop
 8005ef8:	2000001c 	.word	0x2000001c

08005efc <free>:
 8005efc:	4b02      	ldr	r3, [pc, #8]	@ (8005f08 <free+0xc>)
 8005efe:	4601      	mov	r1, r0
 8005f00:	6818      	ldr	r0, [r3, #0]
 8005f02:	f001 bd15 	b.w	8007930 <_free_r>
 8005f06:	bf00      	nop
 8005f08:	2000001c 	.word	0x2000001c

08005f0c <sbrk_aligned>:
 8005f0c:	b570      	push	{r4, r5, r6, lr}
 8005f0e:	4e0f      	ldr	r6, [pc, #60]	@ (8005f4c <sbrk_aligned+0x40>)
 8005f10:	460c      	mov	r4, r1
 8005f12:	6831      	ldr	r1, [r6, #0]
 8005f14:	4605      	mov	r5, r0
 8005f16:	b911      	cbnz	r1, 8005f1e <sbrk_aligned+0x12>
 8005f18:	f000 fe64 	bl	8006be4 <_sbrk_r>
 8005f1c:	6030      	str	r0, [r6, #0]
 8005f1e:	4621      	mov	r1, r4
 8005f20:	4628      	mov	r0, r5
 8005f22:	f000 fe5f 	bl	8006be4 <_sbrk_r>
 8005f26:	1c43      	adds	r3, r0, #1
 8005f28:	d103      	bne.n	8005f32 <sbrk_aligned+0x26>
 8005f2a:	f04f 34ff 	mov.w	r4, #4294967295
 8005f2e:	4620      	mov	r0, r4
 8005f30:	bd70      	pop	{r4, r5, r6, pc}
 8005f32:	1cc4      	adds	r4, r0, #3
 8005f34:	f024 0403 	bic.w	r4, r4, #3
 8005f38:	42a0      	cmp	r0, r4
 8005f3a:	d0f8      	beq.n	8005f2e <sbrk_aligned+0x22>
 8005f3c:	1a21      	subs	r1, r4, r0
 8005f3e:	4628      	mov	r0, r5
 8005f40:	f000 fe50 	bl	8006be4 <_sbrk_r>
 8005f44:	3001      	adds	r0, #1
 8005f46:	d1f2      	bne.n	8005f2e <sbrk_aligned+0x22>
 8005f48:	e7ef      	b.n	8005f2a <sbrk_aligned+0x1e>
 8005f4a:	bf00      	nop
 8005f4c:	2000056c 	.word	0x2000056c

08005f50 <_malloc_r>:
 8005f50:	e92d 43f8 	stmdb	sp!, {r3, r4, r5, r6, r7, r8, r9, lr}
 8005f54:	1ccd      	adds	r5, r1, #3
 8005f56:	f025 0503 	bic.w	r5, r5, #3
 8005f5a:	3508      	adds	r5, #8
 8005f5c:	2d0c      	cmp	r5, #12
 8005f5e:	bf38      	it	cc
 8005f60:	250c      	movcc	r5, #12
 8005f62:	2d00      	cmp	r5, #0
 8005f64:	4606      	mov	r6, r0
 8005f66:	db01      	blt.n	8005f6c <_malloc_r+0x1c>
 8005f68:	42a9      	cmp	r1, r5
 8005f6a:	d904      	bls.n	8005f76 <_malloc_r+0x26>
 8005f6c:	230c      	movs	r3, #12
 8005f6e:	6033      	str	r3, [r6, #0]
 8005f70:	2000      	movs	r0, #0
 8005f72:	e8bd 83f8 	ldmia.w	sp!, {r3, r4, r5, r6, r7, r8, r9, pc}
 8005f76:	f8df 80d4 	ldr.w	r8, [pc, #212]	@ 800604c <_malloc_r+0xfc>
 8005f7a:	f000 f869 	bl	8006050 <__malloc_lock>
 8005f7e:	f8d8 3000 	ldr.w	r3, [r8]
 8005f82:	461c      	mov	r4, r3
 8005f84:	bb44      	cbnz	r4, 8005fd8 <_malloc_r+0x88>
 8005f86:	4629      	mov	r1, r5
 8005f88:	4630      	mov	r0, r6
 8005f8a:	f7ff ffbf 	bl	8005f0c <sbrk_aligned>
 8005f8e:	1c43      	adds	r3, r0, #1
 8005f90:	4604      	mov	r4, r0
 8005f92:	d158      	bne.n	8006046 <_malloc_r+0xf6>
 8005f94:	f8d8 4000 	ldr.w	r4, [r8]
 8005f98:	4627      	mov	r7, r4
 8005f9a:	2f00      	cmp	r7, #0
 8005f9c:	d143      	bne.n	8006026 <_malloc_r+0xd6>
 8005f9e:	2c00      	cmp	r4, #0
 8005fa0:	d04b      	beq.n	800603a <_malloc_r+0xea>
 8005fa2:	6823      	ldr	r3, [r4, #0]
 8005fa4:	4639      	mov	r1, r7
 8005fa6:	4630      	mov	r0, r6
 8005fa8:	eb04 0903 	add.w	r9, r4, r3
 8005fac:	f000 fe1a 	bl	8006be4 <_sbrk_r>
 8005fb0:	4581      	cmp	r9, r0
 8005fb2:	d142      	bne.n	800603a <_malloc_r+0xea>
 8005fb4:	6821      	ldr	r1, [r4, #0]
 8005fb6:	1a6d      	subs	r5, r5, r1
 8005fb8:	4629      	mov	r1, r5
 8005fba:	4630      	mov	r0, r6
 8005fbc:	f7ff ffa6 	bl	8005f0c <sbrk_aligned>
 8005fc0:	3001      	adds	r0, #1
 8005fc2:	d03a      	beq.n	800603a <_malloc_r+0xea>
 8005fc4:	6823      	ldr	r3, [r4, #0]
 8005fc6:	442b      	add	r3, r5
 8005fc8:	6023      	str	r3, [r4, #0]
 8005fca:	f8d8 3000 	ldr.w	r3, [r8]
 8005fce:	685a      	ldr	r2, [r3, #4]
 8005fd0:	bb62      	cbnz	r2, 800602c <_malloc_r+0xdc>
 8005fd2:	f8c8 7000 	str.w	r7, [r8]
 8005fd6:	e00f      	b.n	8005ff8 <_malloc_r+0xa8>
 8005fd8:	6822      	ldr	r2, [r4, #0]
 8005fda:	1b52      	subs	r2, r2, r5
 8005fdc:	d420      	bmi.n	8006020 <_malloc_r+0xd0>
 8005fde:	2a0b      	cmp	r2, #11
 8005fe0:	d917      	bls.n	8006012 <_malloc_r+0xc2>
 8005fe2:	1961      	adds	r1, r4, r5
 8005fe4:	42a3      	cmp	r3, r4
 8005fe6:	6025      	str	r5, [r4, #0]
 8005fe8:	bf18      	it	ne
 8005fea:	6059      	strne	r1, [r3, #4]
 8005fec:	6863      	ldr	r3, [r4, #4]
 8005fee:	bf08      	it	eq
 8005ff0:	f8c8 1000 	streq.w	r1, [r8]
 8005ff4:	5162      	str	r2, [r4, r5]
 8005ff6:	604b      	str	r3, [r1, #4]
 8005ff8:	4630      	mov	r0, r6
 8005ffa:	f000 f82f 	bl	800605c <__malloc_unlock>
 8005ffe:	f104 000b 	add.w	r0, r4, #11
 8006002:	1d23      	adds	r3, r4, #4
 8006004:	f020 0007 	bic.w	r0, r0, #7
 8006008:	1ac2      	subs	r2, r0, r3
 800600a:	bf1c      	itt	ne
 800600c:	1a1b      	subne	r3, r3, r0
 800600e:	50a3      	strne	r3, [r4, r2]
 8006010:	e7af      	b.n	8005f72 <_malloc_r+0x22>
 8006012:	6862      	ldr	r2, [r4, #4]
 8006014:	42a3      	cmp	r3, r4
 8006016:	bf0c      	ite	eq
 8006018:	f8c8 2000 	streq.w	r2, [r8]
 800601c:	605a      	strne	r2, [r3, #4]
 800601e:	e7eb      	b.n	8005ff8 <_malloc_r+0xa8>
 8006020:	4623      	mov	r3, r4
 8006022:	6864      	ldr	r4, [r4, #4]
 8006024:	e7ae      	b.n	8005f84 <_malloc_r+0x34>
 8006026:	463c      	mov	r4, r7
 8006028:	687f      	ldr	r7, [r7, #4]
 800602a:	e7b6      	b.n	8005f9a <_malloc_r+0x4a>
 800602c:	461a      	mov	r2, r3
 800602e:	685b      	ldr	r3, [r3, #4]
 8006030:	42a3      	cmp	r3, r4
 8006032:	d1fb      	bne.n	800602c <_malloc_r+0xdc>
 8006034:	2300      	movs	r3, #0
 8006036:	6053      	str	r3, [r2, #4]
 8006038:	e7de      	b.n	8005ff8 <_malloc_r+0xa8>
 800603a:	230c      	movs	r3, #12
 800603c:	6033      	str	r3, [r6, #0]
 800603e:	4630      	mov	r0, r6
 8006040:	f000 f80c 	bl	800605c <__malloc_unlock>
 8006044:	e794      	b.n	8005f70 <_malloc_r+0x20>
 8006046:	6005      	str	r5, [r0, #0]
 8006048:	e7d6      	b.n	8005ff8 <_malloc_r+0xa8>
 800604a:	bf00      	nop
 800604c:	20000570 	.word	0x20000570

08006050 <__malloc_lock>:
 8006050:	4801      	ldr	r0, [pc, #4]	@ (8006058 <__malloc_lock+0x8>)
 8006052:	f000 be0e 	b.w	8006c72 <__retarget_lock_acquire_recursive>
 8006056:	bf00      	nop
 8006058:	200006b4 	.word	0x200006b4

0800605c <__malloc_unlock>:
 800605c:	4801      	ldr	r0, [pc, #4]	@ (8006064 <__malloc_unlock+0x8>)
 800605e:	f000 be09 	b.w	8006c74 <__retarget_lock_release_recursive>
 8006062:	bf00      	nop
 8006064:	200006b4 	.word	0x200006b4

08006068 <__cvt>:
 8006068:	e92d 47ff 	stmdb	sp!, {r0, r1, r2, r3, r4, r5, r6, r7, r8, r9, sl, lr}
 800606c:	ec57 6b10 	vmov	r6, r7, d0
 8006070:	2f00      	cmp	r7, #0
 8006072:	460c      	mov	r4, r1
 8006074:	4619      	mov	r1, r3
 8006076:	463b      	mov	r3, r7
 8006078:	bfbb      	ittet	lt
 800607a:	f107 4300 	addlt.w	r3, r7, #2147483648	@ 0x80000000
 800607e:	461f      	movlt	r7, r3
 8006080:	2300      	movge	r3, #0
 8006082:	232d      	movlt	r3, #45	@ 0x2d
 8006084:	700b      	strb	r3, [r1, #0]
 8006086:	9b0d      	ldr	r3, [sp, #52]	@ 0x34
 8006088:	f8dd a030 	ldr.w	sl, [sp, #48]	@ 0x30
 800608c:	4691      	mov	r9, r2
 800608e:	f023 0820 	bic.w	r8, r3, #32
 8006092:	bfbc      	itt	lt
 8006094:	4632      	movlt	r2, r6
 8006096:	4616      	movlt	r6, r2
 8006098:	f1b8 0f46 	cmp.w	r8, #70	@ 0x46
 800609c:	d005      	beq.n	80060aa <__cvt+0x42>
 800609e:	f1b8 0f45 	cmp.w	r8, #69	@ 0x45
 80060a2:	d100      	bne.n	80060a6 <__cvt+0x3e>
 80060a4:	3401      	adds	r4, #1
 80060a6:	2102      	movs	r1, #2
 80060a8:	e000      	b.n	80060ac <__cvt+0x44>
 80060aa:	2103      	movs	r1, #3
 80060ac:	ab03      	add	r3, sp, #12
 80060ae:	9301      	str	r3, [sp, #4]
 80060b0:	ab02      	add	r3, sp, #8
 80060b2:	9300      	str	r3, [sp, #0]
 80060b4:	ec47 6b10 	vmov	d0, r6, r7
 80060b8:	4653      	mov	r3, sl
 80060ba:	4622      	mov	r2, r4
 80060bc:	f000 fe74 	bl	8006da8 <_dtoa_r>
 80060c0:	f1b8 0f47 	cmp.w	r8, #71	@ 0x47
 80060c4:	4605      	mov	r5, r0
 80060c6:	d119      	bne.n	80060fc <__cvt+0x94>
 80060c8:	f019 0f01 	tst.w	r9, #1
 80060cc:	d00e      	beq.n	80060ec <__cvt+0x84>
 80060ce:	eb00 0904 	add.w	r9, r0, r4
 80060d2:	2200      	movs	r2, #0
 80060d4:	2300      	movs	r3, #0
 80060d6:	4630      	mov	r0, r6
 80060d8:	4639      	mov	r1, r7
 80060da:	f7fa fd15 	bl	8000b08 <__aeabi_dcmpeq>
 80060de:	b108      	cbz	r0, 80060e4 <__cvt+0x7c>
 80060e0:	f8cd 900c 	str.w	r9, [sp, #12]
 80060e4:	2230      	movs	r2, #48	@ 0x30
 80060e6:	9b03      	ldr	r3, [sp, #12]
 80060e8:	454b      	cmp	r3, r9
 80060ea:	d31e      	bcc.n	800612a <__cvt+0xc2>
 80060ec:	9b03      	ldr	r3, [sp, #12]
 80060ee:	9a0e      	ldr	r2, [sp, #56]	@ 0x38
 80060f0:	1b5b      	subs	r3, r3, r5
 80060f2:	4628      	mov	r0, r5
 80060f4:	6013      	str	r3, [r2, #0]
 80060f6:	b004      	add	sp, #16
 80060f8:	e8bd 87f0 	ldmia.w	sp!, {r4, r5, r6, r7, r8, r9, sl, pc}
 80060fc:	f1b8 0f46 	cmp.w	r8, #70	@ 0x46
 8006100:	eb00 0904 	add.w	r9, r0, r4
 8006104:	d1e5      	bne.n	80060d2 <__cvt+0x6a>
 8006106:	7803      	ldrb	r3, [r0, #0]
 8006108:	2b30      	cmp	r3, #48	@ 0x30
 800610a:	d10a      	bne.n	8006122 <__cvt+0xba>
 800610c:	2200      	movs	r2, #0
 800610e:	2300      	movs	r3, #0
 8006110:	4630      	mov	r0, r6
 8006112:	4639      	mov	r1, r7
 8006114:	f7fa fcf8 	bl	8000b08 <__aeabi_dcmpeq>
 8006118:	b918      	cbnz	r0, 8006122 <__cvt+0xba>
 800611a:	f1c4 0401 	rsb	r4, r4, #1
 800611e:	f8ca 4000 	str.w	r4, [sl]
 8006122:	f8da 3000 	ldr.w	r3, [sl]
 8006126:	4499      	add	r9, r3
 8006128:	e7d3      	b.n	80060d2 <__cvt+0x6a>
 800612a:	1c59      	adds	r1, r3, #1
 800612c:	9103      	str	r1, [sp, #12]
 800612e:	701a      	strb	r2, [r3, #0]
 8006130:	e7d9      	b.n	80060e6 <__cvt+0x7e>

08006132 <__exponent>:
 8006132:	b5f7      	push	{r0, r1, r2, r4, r5, r6, r7, lr}
 8006134:	2900      	cmp	r1, #0
 8006136:	bfba      	itte	lt
 8006138:	4249      	neglt	r1, r1
 800613a:	232d      	movlt	r3, #45	@ 0x2d
 800613c:	232b      	movge	r3, #43	@ 0x2b
 800613e:	2909      	cmp	r1, #9
 8006140:	7002      	strb	r2, [r0, #0]
 8006142:	7043      	strb	r3, [r0, #1]
 8006144:	dd29      	ble.n	800619a <__exponent+0x68>
 8006146:	f10d 0307 	add.w	r3, sp, #7
 800614a:	461d      	mov	r5, r3
 800614c:	270a      	movs	r7, #10
 800614e:	461a      	mov	r2, r3
 8006150:	fbb1 f6f7 	udiv	r6, r1, r7
 8006154:	fb07 1416 	mls	r4, r7, r6, r1
 8006158:	3430      	adds	r4, #48	@ 0x30
 800615a:	f802 4c01 	strb.w	r4, [r2, #-1]
 800615e:	460c      	mov	r4, r1
 8006160:	2c63      	cmp	r4, #99	@ 0x63
 8006162:	f103 33ff 	add.w	r3, r3, #4294967295
 8006166:	4631      	mov	r1, r6
 8006168:	dcf1      	bgt.n	800614e <__exponent+0x1c>
 800616a:	3130      	adds	r1, #48	@ 0x30
 800616c:	1e94      	subs	r4, r2, #2
 800616e:	f803 1c01 	strb.w	r1, [r3, #-1]
 8006172:	1c41      	adds	r1, r0, #1
 8006174:	4623      	mov	r3, r4
 8006176:	42ab      	cmp	r3, r5
 8006178:	d30a      	bcc.n	8006190 <__exponent+0x5e>
 800617a:	f10d 0309 	add.w	r3, sp, #9
 800617e:	1a9b      	subs	r3, r3, r2
 8006180:	42ac      	cmp	r4, r5
 8006182:	bf88      	it	hi
 8006184:	2300      	movhi	r3, #0
 8006186:	3302      	adds	r3, #2
 8006188:	4403      	add	r3, r0
 800618a:	1a18      	subs	r0, r3, r0
 800618c:	b003      	add	sp, #12
 800618e:	bdf0      	pop	{r4, r5, r6, r7, pc}
 8006190:	f813 6b01 	ldrb.w	r6, [r3], #1
 8006194:	f801 6f01 	strb.w	r6, [r1, #1]!
 8006198:	e7ed      	b.n	8006176 <__exponent+0x44>
 800619a:	2330      	movs	r3, #48	@ 0x30
 800619c:	3130      	adds	r1, #48	@ 0x30
 800619e:	7083      	strb	r3, [r0, #2]
 80061a0:	70c1      	strb	r1, [r0, #3]
 80061a2:	1d03      	adds	r3, r0, #4
 80061a4:	e7f1      	b.n	800618a <__exponent+0x58>
	...

080061a8 <_printf_float>:
 80061a8:	e92d 4ff0 	stmdb	sp!, {r4, r5, r6, r7, r8, r9, sl, fp, lr}
 80061ac:	b08d      	sub	sp, #52	@ 0x34
 80061ae:	460c      	mov	r4, r1
 80061b0:	f8dd 8058 	ldr.w	r8, [sp, #88]	@ 0x58
 80061b4:	4616      	mov	r6, r2
 80061b6:	461f      	mov	r7, r3
 80061b8:	4605      	mov	r5, r0
 80061ba:	f000 fcdb 	bl	8006b74 <_localeconv_r>
 80061be:	6803      	ldr	r3, [r0, #0]
 80061c0:	9304      	str	r3, [sp, #16]
 80061c2:	4618      	mov	r0, r3
 80061c4:	f7fa f874 	bl	80002b0 <strlen>
 80061c8:	2300      	movs	r3, #0
 80061ca:	930a      	str	r3, [sp, #40]	@ 0x28
 80061cc:	f8d8 3000 	ldr.w	r3, [r8]
 80061d0:	9005      	str	r0, [sp, #20]
 80061d2:	3307      	adds	r3, #7
 80061d4:	f023 0307 	bic.w	r3, r3, #7
 80061d8:	f103 0208 	add.w	r2, r3, #8
 80061dc:	f894 a018 	ldrb.w	sl, [r4, #24]
 80061e0:	f8d4 b000 	ldr.w	fp, [r4]
 80061e4:	f8c8 2000 	str.w	r2, [r8]
 80061e8:	e9d3 8900 	ldrd	r8, r9, [r3]
 80061ec:	f029 4300 	bic.w	r3, r9, #2147483648	@ 0x80000000
 80061f0:	9307      	str	r3, [sp, #28]
 80061f2:	f8cd 8018 	str.w	r8, [sp, #24]
 80061f6:	e9c4 8912 	strd	r8, r9, [r4, #72]	@ 0x48
 80061fa:	e9dd 0106 	ldrd	r0, r1, [sp, #24]
 80061fe:	4b9c      	ldr	r3, [pc, #624]	@ (8006470 <_printf_float+0x2c8>)
 8006200:	f04f 32ff 	mov.w	r2, #4294967295
 8006204:	f7fa fcb2 	bl	8000b6c <__aeabi_dcmpun>
 8006208:	bb70      	cbnz	r0, 8006268 <_printf_float+0xc0>
 800620a:	e9dd 0106 	ldrd	r0, r1, [sp, #24]
 800620e:	4b98      	ldr	r3, [pc, #608]	@ (8006470 <_printf_float+0x2c8>)
 8006210:	f04f 32ff 	mov.w	r2, #4294967295
 8006214:	f7fa fc8c 	bl	8000b30 <__aeabi_dcmple>
 8006218:	bb30      	cbnz	r0, 8006268 <_printf_float+0xc0>
 800621a:	2200      	movs	r2, #0
 800621c:	2300      	movs	r3, #0
 800621e:	4640      	mov	r0, r8
 8006220:	4649      	mov	r1, r9
 8006222:	f7fa fc7b 	bl	8000b1c <__aeabi_dcmplt>
 8006226:	b110      	cbz	r0, 800622e <_printf_float+0x86>
 8006228:	232d      	movs	r3, #45	@ 0x2d
 800622a:	f884 3043 	strb.w	r3, [r4, #67]	@ 0x43
 800622e:	4a91      	ldr	r2, [pc, #580]	@ (8006474 <_printf_float+0x2cc>)
 8006230:	4b91      	ldr	r3, [pc, #580]	@ (8006478 <_printf_float+0x2d0>)
 8006232:	f1ba 0f47 	cmp.w	sl, #71	@ 0x47
 8006236:	bf94      	ite	ls
 8006238:	4690      	movls	r8, r2
 800623a:	4698      	movhi	r8, r3
 800623c:	2303      	movs	r3, #3
 800623e:	6123      	str	r3, [r4, #16]
 8006240:	f02b 0304 	bic.w	r3, fp, #4
 8006244:	6023      	str	r3, [r4, #0]
 8006246:	f04f 0900 	mov.w	r9, #0
 800624a:	9700      	str	r7, [sp, #0]
 800624c:	4633      	mov	r3, r6
 800624e:	aa0b      	add	r2, sp, #44	@ 0x2c
 8006250:	4621      	mov	r1, r4
 8006252:	4628      	mov	r0, r5
 8006254:	f000 f9d2 	bl	80065fc <_printf_common>
 8006258:	3001      	adds	r0, #1
 800625a:	f040 808d 	bne.w	8006378 <_printf_float+0x1d0>
 800625e:	f04f 30ff 	mov.w	r0, #4294967295
 8006262:	b00d      	add	sp, #52	@ 0x34
 8006264:	e8bd 8ff0 	ldmia.w	sp!, {r4, r5, r6, r7, r8, r9, sl, fp, pc}
 8006268:	4642      	mov	r2, r8
 800626a:	464b      	mov	r3, r9
 800626c:	4640      	mov	r0, r8
 800626e:	4649      	mov	r1, r9
 8006270:	f7fa fc7c 	bl	8000b6c <__aeabi_dcmpun>
 8006274:	b140      	cbz	r0, 8006288 <_printf_float+0xe0>
 8006276:	464b      	mov	r3, r9
 8006278:	2b00      	cmp	r3, #0
 800627a:	bfbc      	itt	lt
 800627c:	232d      	movlt	r3, #45	@ 0x2d
 800627e:	f884 3043 	strblt.w	r3, [r4, #67]	@ 0x43
 8006282:	4a7e      	ldr	r2, [pc, #504]	@ (800647c <_printf_float+0x2d4>)
 8006284:	4b7e      	ldr	r3, [pc, #504]	@ (8006480 <_printf_float+0x2d8>)
 8006286:	e7d4      	b.n	8006232 <_printf_float+0x8a>
 8006288:	6863      	ldr	r3, [r4, #4]
 800628a:	f00a 02df 	and.w	r2, sl, #223	@ 0xdf
 800628e:	9206      	str	r2, [sp, #24]
 8006290:	1c5a      	adds	r2, r3, #1
 8006292:	d13b      	bne.n	800630c <_printf_float+0x164>
 8006294:	2306      	movs	r3, #6
 8006296:	6063      	str	r3, [r4, #4]
 8006298:	f44b 6280 	orr.w	r2, fp, #1024	@ 0x400
 800629c:	2300      	movs	r3, #0
 800629e:	6022      	str	r2, [r4, #0]
 80062a0:	9303      	str	r3, [sp, #12]
 80062a2:	ab0a      	add	r3, sp, #40	@ 0x28
 80062a4:	e9cd a301 	strd	sl, r3, [sp, #4]
 80062a8:	ab09      	add	r3, sp, #36	@ 0x24
 80062aa:	9300      	str	r3, [sp, #0]
 80062ac:	6861      	ldr	r1, [r4, #4]
 80062ae:	ec49 8b10 	vmov	d0, r8, r9
 80062b2:	f10d 0323 	add.w	r3, sp, #35	@ 0x23
 80062b6:	4628      	mov	r0, r5
 80062b8:	f7ff fed6 	bl	8006068 <__cvt>
 80062bc:	9b06      	ldr	r3, [sp, #24]
 80062be:	9909      	ldr	r1, [sp, #36]	@ 0x24
 80062c0:	2b47      	cmp	r3, #71	@ 0x47
 80062c2:	4680      	mov	r8, r0
 80062c4:	d129      	bne.n	800631a <_printf_float+0x172>
 80062c6:	1cc8      	adds	r0, r1, #3
 80062c8:	db02      	blt.n	80062d0 <_printf_float+0x128>
 80062ca:	6863      	ldr	r3, [r4, #4]
 80062cc:	4299      	cmp	r1, r3
 80062ce:	dd41      	ble.n	8006354 <_printf_float+0x1ac>
 80062d0:	f1aa 0a02 	sub.w	sl, sl, #2
 80062d4:	fa5f fa8a 	uxtb.w	sl, sl
 80062d8:	3901      	subs	r1, #1
 80062da:	4652      	mov	r2, sl
 80062dc:	f104 0050 	add.w	r0, r4, #80	@ 0x50
 80062e0:	9109      	str	r1, [sp, #36]	@ 0x24
 80062e2:	f7ff ff26 	bl	8006132 <__exponent>
 80062e6:	9a0a      	ldr	r2, [sp, #40]	@ 0x28
 80062e8:	1813      	adds	r3, r2, r0
 80062ea:	2a01      	cmp	r2, #1
 80062ec:	4681      	mov	r9, r0
 80062ee:	6123      	str	r3, [r4, #16]
 80062f0:	dc02      	bgt.n	80062f8 <_printf_float+0x150>
 80062f2:	6822      	ldr	r2, [r4, #0]
 80062f4:	07d2      	lsls	r2, r2, #31
 80062f6:	d501      	bpl.n	80062fc <_printf_float+0x154>
 80062f8:	3301      	adds	r3, #1
 80062fa:	6123      	str	r3, [r4, #16]
 80062fc:	f89d 3023 	ldrb.w	r3, [sp, #35]	@ 0x23
 8006300:	2b00      	cmp	r3, #0
 8006302:	d0a2      	beq.n	800624a <_printf_float+0xa2>
 8006304:	232d      	movs	r3, #45	@ 0x2d
 8006306:	f884 3043 	strb.w	r3, [r4, #67]	@ 0x43
 800630a:	e79e      	b.n	800624a <_printf_float+0xa2>
 800630c:	9a06      	ldr	r2, [sp, #24]
 800630e:	2a47      	cmp	r2, #71	@ 0x47
 8006310:	d1c2      	bne.n	8006298 <_printf_float+0xf0>
 8006312:	2b00      	cmp	r3, #0
 8006314:	d1c0      	bne.n	8006298 <_printf_float+0xf0>
 8006316:	2301      	movs	r3, #1
 8006318:	e7bd      	b.n	8006296 <_printf_float+0xee>
 800631a:	f1ba 0f65 	cmp.w	sl, #101	@ 0x65
 800631e:	d9db      	bls.n	80062d8 <_printf_float+0x130>
 8006320:	f1ba 0f66 	cmp.w	sl, #102	@ 0x66
 8006324:	d118      	bne.n	8006358 <_printf_float+0x1b0>
 8006326:	2900      	cmp	r1, #0
 8006328:	6863      	ldr	r3, [r4, #4]
 800632a:	dd0b      	ble.n	8006344 <_printf_float+0x19c>
 800632c:	6121      	str	r1, [r4, #16]
 800632e:	b913      	cbnz	r3, 8006336 <_printf_float+0x18e>
 8006330:	6822      	ldr	r2, [r4, #0]
 8006332:	07d0      	lsls	r0, r2, #31
 8006334:	d502      	bpl.n	800633c <_printf_float+0x194>
 8006336:	3301      	adds	r3, #1
 8006338:	440b      	add	r3, r1
 800633a:	6123      	str	r3, [r4, #16]
 800633c:	65a1      	str	r1, [r4, #88]	@ 0x58
 800633e:	f04f 0900 	mov.w	r9, #0
 8006342:	e7db      	b.n	80062fc <_printf_float+0x154>
 8006344:	b913      	cbnz	r3, 800634c <_printf_float+0x1a4>
 8006346:	6822      	ldr	r2, [r4, #0]
 8006348:	07d2      	lsls	r2, r2, #31
 800634a:	d501      	bpl.n	8006350 <_printf_float+0x1a8>
 800634c:	3302      	adds	r3, #2
 800634e:	e7f4      	b.n	800633a <_printf_float+0x192>
 8006350:	2301      	movs	r3, #1
 8006352:	e7f2      	b.n	800633a <_printf_float+0x192>
 8006354:	f04f 0a67 	mov.w	sl, #103	@ 0x67
 8006358:	9b0a      	ldr	r3, [sp, #40]	@ 0x28
 800635a:	4299      	cmp	r1, r3
 800635c:	db05      	blt.n	800636a <_printf_float+0x1c2>
 800635e:	6823      	ldr	r3, [r4, #0]
 8006360:	6121      	str	r1, [r4, #16]
 8006362:	07d8      	lsls	r0, r3, #31
 8006364:	d5ea      	bpl.n	800633c <_printf_float+0x194>
 8006366:	1c4b      	adds	r3, r1, #1
 8006368:	e7e7      	b.n	800633a <_printf_float+0x192>
 800636a:	2900      	cmp	r1, #0
 800636c:	bfd4      	ite	le
 800636e:	f1c1 0202 	rsble	r2, r1, #2
 8006372:	2201      	movgt	r2, #1
 8006374:	4413      	add	r3, r2
 8006376:	e7e0      	b.n	800633a <_printf_float+0x192>
 8006378:	6823      	ldr	r3, [r4, #0]
 800637a:	055a      	lsls	r2, r3, #21
 800637c:	d407      	bmi.n	800638e <_printf_float+0x1e6>
 800637e:	6923      	ldr	r3, [r4, #16]
 8006380:	4642      	mov	r2, r8
 8006382:	4631      	mov	r1, r6
 8006384:	4628      	mov	r0, r5
 8006386:	47b8      	blx	r7
 8006388:	3001      	adds	r0, #1
 800638a:	d12b      	bne.n	80063e4 <_printf_float+0x23c>
 800638c:	e767      	b.n	800625e <_printf_float+0xb6>
 800638e:	f1ba 0f65 	cmp.w	sl, #101	@ 0x65
 8006392:	f240 80dd 	bls.w	8006550 <_printf_float+0x3a8>
 8006396:	e9d4 0112 	ldrd	r0, r1, [r4, #72]	@ 0x48
 800639a:	2200      	movs	r2, #0
 800639c:	2300      	movs	r3, #0
 800639e:	f7fa fbb3 	bl	8000b08 <__aeabi_dcmpeq>
 80063a2:	2800      	cmp	r0, #0
 80063a4:	d033      	beq.n	800640e <_printf_float+0x266>
 80063a6:	4a37      	ldr	r2, [pc, #220]	@ (8006484 <_printf_float+0x2dc>)
 80063a8:	2301      	movs	r3, #1
 80063aa:	4631      	mov	r1, r6
 80063ac:	4628      	mov	r0, r5
 80063ae:	47b8      	blx	r7
 80063b0:	3001      	adds	r0, #1
 80063b2:	f43f af54 	beq.w	800625e <_printf_float+0xb6>
 80063b6:	e9dd 3809 	ldrd	r3, r8, [sp, #36]	@ 0x24
 80063ba:	4543      	cmp	r3, r8
 80063bc:	db02      	blt.n	80063c4 <_printf_float+0x21c>
 80063be:	6823      	ldr	r3, [r4, #0]
 80063c0:	07d8      	lsls	r0, r3, #31
 80063c2:	d50f      	bpl.n	80063e4 <_printf_float+0x23c>
 80063c4:	e9dd 2304 	ldrd	r2, r3, [sp, #16]
 80063c8:	4631      	mov	r1, r6
 80063ca:	4628      	mov	r0, r5
 80063cc:	47b8      	blx	r7
 80063ce:	3001      	adds	r0, #1
 80063d0:	f43f af45 	beq.w	800625e <_printf_float+0xb6>
 80063d4:	f04f 0900 	mov.w	r9, #0
 80063d8:	f108 38ff 	add.w	r8, r8, #4294967295
 80063dc:	f104 0a1a 	add.w	sl, r4, #26
 80063e0:	45c8      	cmp	r8, r9
 80063e2:	dc09      	bgt.n	80063f8 <_printf_float+0x250>
 80063e4:	6823      	ldr	r3, [r4, #0]
 80063e6:	079b      	lsls	r3, r3, #30
 80063e8:	f100 8103 	bmi.w	80065f2 <_printf_float+0x44a>
 80063ec:	68e0      	ldr	r0, [r4, #12]
 80063ee:	9b0b      	ldr	r3, [sp, #44]	@ 0x2c
 80063f0:	4298      	cmp	r0, r3
 80063f2:	bfb8      	it	lt
 80063f4:	4618      	movlt	r0, r3
 80063f6:	e734      	b.n	8006262 <_printf_float+0xba>
 80063f8:	2301      	movs	r3, #1
 80063fa:	4652      	mov	r2, sl
 80063fc:	4631      	mov	r1, r6
 80063fe:	4628      	mov	r0, r5
 8006400:	47b8      	blx	r7
 8006402:	3001      	adds	r0, #1
 8006404:	f43f af2b 	beq.w	800625e <_printf_float+0xb6>
 8006408:	f109 0901 	add.w	r9, r9, #1
 800640c:	e7e8      	b.n	80063e0 <_printf_float+0x238>
 800640e:	9b09      	ldr	r3, [sp, #36]	@ 0x24
 8006410:	2b00      	cmp	r3, #0
 8006412:	dc39      	bgt.n	8006488 <_printf_float+0x2e0>
 8006414:	4a1b      	ldr	r2, [pc, #108]	@ (8006484 <_printf_float+0x2dc>)
 8006416:	2301      	movs	r3, #1
 8006418:	4631      	mov	r1, r6
 800641a:	4628      	mov	r0, r5
 800641c:	47b8      	blx	r7
 800641e:	3001      	adds	r0, #1
 8006420:	f43f af1d 	beq.w	800625e <_printf_float+0xb6>
 8006424:	e9dd 3909 	ldrd	r3, r9, [sp, #36]	@ 0x24
 8006428:	ea59 0303 	orrs.w	r3, r9, r3
 800642c:	d102      	bne.n	8006434 <_printf_float+0x28c>
 800642e:	6823      	ldr	r3, [r4, #0]
 8006430:	07d9      	lsls	r1, r3, #31
 8006432:	d5d7      	bpl.n	80063e4 <_printf_float+0x23c>
 8006434:	e9dd 2304 	ldrd	r2, r3, [sp, #16]
 8006438:	4631      	mov	r1, r6
 800643a:	4628      	mov	r0, r5
 800643c:	47b8      	blx	r7
 800643e:	3001      	adds	r0, #1
 8006440:	f43f af0d 	beq.w	800625e <_printf_float+0xb6>
 8006444:	f04f 0a00 	mov.w	sl, #0
 8006448:	f104 0b1a 	add.w	fp, r4, #26
 800644c:	9b09      	ldr	r3, [sp, #36]	@ 0x24
 800644e:	425b      	negs	r3, r3
 8006450:	4553      	cmp	r3, sl
 8006452:	dc01      	bgt.n	8006458 <_printf_float+0x2b0>
 8006454:	464b      	mov	r3, r9
 8006456:	e793      	b.n	8006380 <_printf_float+0x1d8>
 8006458:	2301      	movs	r3, #1
 800645a:	465a      	mov	r2, fp
 800645c:	4631      	mov	r1, r6
 800645e:	4628      	mov	r0, r5
 8006460:	47b8      	blx	r7
 8006462:	3001      	adds	r0, #1
 8006464:	f43f aefb 	beq.w	800625e <_printf_float+0xb6>
 8006468:	f10a 0a01 	add.w	sl, sl, #1
 800646c:	e7ee      	b.n	800644c <_printf_float+0x2a4>
 800646e:	bf00      	nop
 8006470:	7fefffff 	.word	0x7fefffff
 8006474:	0800904c 	.word	0x0800904c
 8006478:	08009050 	.word	0x08009050
 800647c:	08009054 	.word	0x08009054
 8006480:	08009058 	.word	0x08009058
 8006484:	0800905c 	.word	0x0800905c
 8006488:	6da3      	ldr	r3, [r4, #88]	@ 0x58
 800648a:	f8dd a028 	ldr.w	sl, [sp, #40]	@ 0x28
 800648e:	4553      	cmp	r3, sl
 8006490:	bfa8      	it	ge
 8006492:	4653      	movge	r3, sl
 8006494:	2b00      	cmp	r3, #0
 8006496:	4699      	mov	r9, r3
 8006498:	dc36      	bgt.n	8006508 <_printf_float+0x360>
 800649a:	f04f 0b00 	mov.w	fp, #0
 800649e:	ea29 79e9 	bic.w	r9, r9, r9, asr #31
 80064a2:	f104 021a 	add.w	r2, r4, #26
 80064a6:	6da3      	ldr	r3, [r4, #88]	@ 0x58
 80064a8:	9306      	str	r3, [sp, #24]
 80064aa:	eba3 0309 	sub.w	r3, r3, r9
 80064ae:	455b      	cmp	r3, fp
 80064b0:	dc31      	bgt.n	8006516 <_printf_float+0x36e>
 80064b2:	9b09      	ldr	r3, [sp, #36]	@ 0x24
 80064b4:	459a      	cmp	sl, r3
 80064b6:	dc3a      	bgt.n	800652e <_printf_float+0x386>
 80064b8:	6823      	ldr	r3, [r4, #0]
 80064ba:	07da      	lsls	r2, r3, #31
 80064bc:	d437      	bmi.n	800652e <_printf_float+0x386>
 80064be:	9b09      	ldr	r3, [sp, #36]	@ 0x24
 80064c0:	ebaa 0903 	sub.w	r9, sl, r3
 80064c4:	9b06      	ldr	r3, [sp, #24]
 80064c6:	ebaa 0303 	sub.w	r3, sl, r3
 80064ca:	4599      	cmp	r9, r3
 80064cc:	bfa8      	it	ge
 80064ce:	4699      	movge	r9, r3
 80064d0:	f1b9 0f00 	cmp.w	r9, #0
 80064d4:	dc33      	bgt.n	800653e <_printf_float+0x396>
 80064d6:	f04f 0800 	mov.w	r8, #0
 80064da:	ea29 79e9 	bic.w	r9, r9, r9, asr #31
 80064de:	f104 0b1a 	add.w	fp, r4, #26
 80064e2:	9b09      	ldr	r3, [sp, #36]	@ 0x24
 80064e4:	ebaa 0303 	sub.w	r3, sl, r3
 80064e8:	eba3 0309 	sub.w	r3, r3, r9
 80064ec:	4543      	cmp	r3, r8
 80064ee:	f77f af79 	ble.w	80063e4 <_printf_float+0x23c>
 80064f2:	2301      	movs	r3, #1
 80064f4:	465a      	mov	r2, fp
 80064f6:	4631      	mov	r1, r6
 80064f8:	4628      	mov	r0, r5
 80064fa:	47b8      	blx	r7
 80064fc:	3001      	adds	r0, #1
 80064fe:	f43f aeae 	beq.w	800625e <_printf_float+0xb6>
 8006502:	f108 0801 	add.w	r8, r8, #1
 8006506:	e7ec      	b.n	80064e2 <_printf_float+0x33a>
 8006508:	4642      	mov	r2, r8
 800650a:	4631      	mov	r1, r6
 800650c:	4628      	mov	r0, r5
 800650e:	47b8      	blx	r7
 8006510:	3001      	adds	r0, #1
 8006512:	d1c2      	bne.n	800649a <_printf_float+0x2f2>
 8006514:	e6a3      	b.n	800625e <_printf_float+0xb6>
 8006516:	2301      	movs	r3, #1
 8006518:	4631      	mov	r1, r6
 800651a:	4628      	mov	r0, r5
 800651c:	9206      	str	r2, [sp, #24]
 800651e:	47b8      	blx	r7
 8006520:	3001      	adds	r0, #1
 8006522:	f43f ae9c 	beq.w	800625e <_printf_float+0xb6>
 8006526:	9a06      	ldr	r2, [sp, #24]
 8006528:	f10b 0b01 	add.w	fp, fp, #1
 800652c:	e7bb      	b.n	80064a6 <_printf_float+0x2fe>
 800652e:	e9dd 2304 	ldrd	r2, r3, [sp, #16]
 8006532:	4631      	mov	r1, r6
 8006534:	4628      	mov	r0, r5
 8006536:	47b8      	blx	r7
 8006538:	3001      	adds	r0, #1
 800653a:	d1c0      	bne.n	80064be <_printf_float+0x316>
 800653c:	e68f      	b.n	800625e <_printf_float+0xb6>
 800653e:	9a06      	ldr	r2, [sp, #24]
 8006540:	464b      	mov	r3, r9
 8006542:	4442      	add	r2, r8
 8006544:	4631      	mov	r1, r6
 8006546:	4628      	mov	r0, r5
 8006548:	47b8      	blx	r7
 800654a:	3001      	adds	r0, #1
 800654c:	d1c3      	bne.n	80064d6 <_printf_float+0x32e>
 800654e:	e686      	b.n	800625e <_printf_float+0xb6>
 8006550:	f8dd a028 	ldr.w	sl, [sp, #40]	@ 0x28
 8006554:	f1ba 0f01 	cmp.w	sl, #1
 8006558:	dc01      	bgt.n	800655e <_printf_float+0x3b6>
 800655a:	07db      	lsls	r3, r3, #31
 800655c:	d536      	bpl.n	80065cc <_printf_float+0x424>
 800655e:	2301      	movs	r3, #1
 8006560:	4642      	mov	r2, r8
 8006562:	4631      	mov	r1, r6
 8006564:	4628      	mov	r0, r5
 8006566:	47b8      	blx	r7
 8006568:	3001      	adds	r0, #1
 800656a:	f43f ae78 	beq.w	800625e <_printf_float+0xb6>
 800656e:	e9dd 2304 	ldrd	r2, r3, [sp, #16]
 8006572:	4631      	mov	r1, r6
 8006574:	4628      	mov	r0, r5
 8006576:	47b8      	blx	r7
 8006578:	3001      	adds	r0, #1
 800657a:	f43f ae70 	beq.w	800625e <_printf_float+0xb6>
 800657e:	e9d4 0112 	ldrd	r0, r1, [r4, #72]	@ 0x48
 8006582:	2200      	movs	r2, #0
 8006584:	2300      	movs	r3, #0
 8006586:	f10a 3aff 	add.w	sl, sl, #4294967295
 800658a:	f7fa fabd 	bl	8000b08 <__aeabi_dcmpeq>
 800658e:	b9c0      	cbnz	r0, 80065c2 <_printf_float+0x41a>
 8006590:	4653      	mov	r3, sl
 8006592:	f108 0201 	add.w	r2, r8, #1
 8006596:	4631      	mov	r1, r6
 8006598:	4628      	mov	r0, r5
 800659a:	47b8      	blx	r7
 800659c:	3001      	adds	r0, #1
 800659e:	d10c      	bne.n	80065ba <_printf_float+0x412>
 80065a0:	e65d      	b.n	800625e <_printf_float+0xb6>
 80065a2:	2301      	movs	r3, #1
 80065a4:	465a      	mov	r2, fp
 80065a6:	4631      	mov	r1, r6
 80065a8:	4628      	mov	r0, r5
 80065aa:	47b8      	blx	r7
 80065ac:	3001      	adds	r0, #1
 80065ae:	f43f ae56 	beq.w	800625e <_printf_float+0xb6>
 80065b2:	f108 0801 	add.w	r8, r8, #1
 80065b6:	45d0      	cmp	r8, sl
 80065b8:	dbf3      	blt.n	80065a2 <_printf_float+0x3fa>
 80065ba:	464b      	mov	r3, r9
 80065bc:	f104 0250 	add.w	r2, r4, #80	@ 0x50
 80065c0:	e6df      	b.n	8006382 <_printf_float+0x1da>
 80065c2:	f04f 0800 	mov.w	r8, #0
 80065c6:	f104 0b1a 	add.w	fp, r4, #26
 80065ca:	e7f4      	b.n	80065b6 <_printf_float+0x40e>
 80065cc:	2301      	movs	r3, #1
 80065ce:	4642      	mov	r2, r8
 80065d0:	e7e1      	b.n	8006596 <_printf_float+0x3ee>
 80065d2:	2301      	movs	r3, #1
 80065d4:	464a      	mov	r2, r9
 80065d6:	4631      	mov	r1, r6
 80065d8:	4628      	mov	r0, r5
 80065da:	47b8      	blx	r7
 80065dc:	3001      	adds	r0, #1
 80065de:	f43f ae3e 	beq.w	800625e <_printf_float+0xb6>
 80065e2:	f108 0801 	add.w	r8, r8, #1
 80065e6:	68e3      	ldr	r3, [r4, #12]
 80065e8:	990b      	ldr	r1, [sp, #44]	@ 0x2c
 80065ea:	1a5b      	subs	r3, r3, r1
 80065ec:	4543      	cmp	r3, r8
 80065ee:	dcf0      	bgt.n	80065d2 <_printf_float+0x42a>
 80065f0:	e6fc      	b.n	80063ec <_printf_float+0x244>
 80065f2:	f04f 0800 	mov.w	r8, #0
 80065f6:	f104 0919 	add.w	r9, r4, #25
 80065fa:	e7f4      	b.n	80065e6 <_printf_float+0x43e>

080065fc <_printf_common>:
 80065fc:	e92d 47f0 	stmdb	sp!, {r4, r5, r6, r7, r8, r9, sl, lr}
 8006600:	4616      	mov	r6, r2
 8006602:	4698      	mov	r8, r3
 8006604:	688a      	ldr	r2, [r1, #8]
 8006606:	690b      	ldr	r3, [r1, #16]
 8006608:	f8dd 9020 	ldr.w	r9, [sp, #32]
 800660c:	4293      	cmp	r3, r2
 800660e:	bfb8      	it	lt
 8006610:	4613      	movlt	r3, r2
 8006612:	6033      	str	r3, [r6, #0]
 8006614:	f891 2043 	ldrb.w	r2, [r1, #67]	@ 0x43
 8006618:	4607      	mov	r7, r0
 800661a:	460c      	mov	r4, r1
 800661c:	b10a      	cbz	r2, 8006622 <_printf_common+0x26>
 800661e:	3301      	adds	r3, #1
 8006620:	6033      	str	r3, [r6, #0]
 8006622:	6823      	ldr	r3, [r4, #0]
 8006624:	0699      	lsls	r1, r3, #26
 8006626:	bf42      	ittt	mi
 8006628:	6833      	ldrmi	r3, [r6, #0]
 800662a:	3302      	addmi	r3, #2
 800662c:	6033      	strmi	r3, [r6, #0]
 800662e:	6825      	ldr	r5, [r4, #0]
 8006630:	f015 0506 	ands.w	r5, r5, #6
 8006634:	d106      	bne.n	8006644 <_printf_common+0x48>
 8006636:	f104 0a19 	add.w	sl, r4, #25
 800663a:	68e3      	ldr	r3, [r4, #12]
 800663c:	6832      	ldr	r2, [r6, #0]
 800663e:	1a9b      	subs	r3, r3, r2
 8006640:	42ab      	cmp	r3, r5
 8006642:	dc26      	bgt.n	8006692 <_printf_common+0x96>
 8006644:	f894 3043 	ldrb.w	r3, [r4, #67]	@ 0x43
 8006648:	6822      	ldr	r2, [r4, #0]
 800664a:	3b00      	subs	r3, #0
 800664c:	bf18      	it	ne
 800664e:	2301      	movne	r3, #1
 8006650:	0692      	lsls	r2, r2, #26
 8006652:	d42b      	bmi.n	80066ac <_printf_common+0xb0>
 8006654:	f104 0243 	add.w	r2, r4, #67	@ 0x43
 8006658:	4641      	mov	r1, r8
 800665a:	4638      	mov	r0, r7
 800665c:	47c8      	blx	r9
 800665e:	3001      	adds	r0, #1
 8006660:	d01e      	beq.n	80066a0 <_printf_common+0xa4>
 8006662:	6823      	ldr	r3, [r4, #0]
 8006664:	6922      	ldr	r2, [r4, #16]
 8006666:	f003 0306 	and.w	r3, r3, #6
 800666a:	2b04      	cmp	r3, #4
 800666c:	bf02      	ittt	eq
 800666e:	68e5      	ldreq	r5, [r4, #12]
 8006670:	6833      	ldreq	r3, [r6, #0]
 8006672:	1aed      	subeq	r5, r5, r3
 8006674:	68a3      	ldr	r3, [r4, #8]
 8006676:	bf0c      	ite	eq
 8006678:	ea25 75e5 	biceq.w	r5, r5, r5, asr #31
 800667c:	2500      	movne	r5, #0
 800667e:	4293      	cmp	r3, r2
 8006680:	bfc4      	itt	gt
 8006682:	1a9b      	subgt	r3, r3, r2
 8006684:	18ed      	addgt	r5, r5, r3
 8006686:	2600      	movs	r6, #0
 8006688:	341a      	adds	r4, #26
 800668a:	42b5      	cmp	r5, r6
 800668c:	d11a      	bne.n	80066c4 <_printf_common+0xc8>
 800668e:	2000      	movs	r0, #0
 8006690:	e008      	b.n	80066a4 <_printf_common+0xa8>
 8006692:	2301      	movs	r3, #1
 8006694:	4652      	mov	r2, sl
 8006696:	4641      	mov	r1, r8
 8006698:	4638      	mov	r0, r7
 800669a:	47c8      	blx	r9
 800669c:	3001      	adds	r0, #1
 800669e:	d103      	bne.n	80066a8 <_printf_common+0xac>
 80066a0:	f04f 30ff 	mov.w	r0, #4294967295
 80066a4:	e8bd 87f0 	ldmia.w	sp!, {r4, r5, r6, r7, r8, r9, sl, pc}
 80066a8:	3501      	adds	r5, #1
 80066aa:	e7c6      	b.n	800663a <_printf_common+0x3e>
 80066ac:	18e1      	adds	r1, r4, r3
 80066ae:	1c5a      	adds	r2, r3, #1
 80066b0:	2030      	movs	r0, #48	@ 0x30
 80066b2:	f881 0043 	strb.w	r0, [r1, #67]	@ 0x43
 80066b6:	4422      	add	r2, r4
 80066b8:	f894 1045 	ldrb.w	r1, [r4, #69]	@ 0x45
 80066bc:	f882 1043 	strb.w	r1, [r2, #67]	@ 0x43
 80066c0:	3302      	adds	r3, #2
 80066c2:	e7c7      	b.n	8006654 <_printf_common+0x58>
 80066c4:	2301      	movs	r3, #1
 80066c6:	4622      	mov	r2, r4
 80066c8:	4641      	mov	r1, r8
 80066ca:	4638      	mov	r0, r7
 80066cc:	47c8      	blx	r9
 80066ce:	3001      	adds	r0, #1
 80066d0:	d0e6      	beq.n	80066a0 <_printf_common+0xa4>
 80066d2:	3601      	adds	r6, #1
 80066d4:	e7d9      	b.n	800668a <_printf_common+0x8e>
	...

080066d8 <_printf_i>:
 80066d8:	e92d 47ff 	stmdb	sp!, {r0, r1, r2, r3, r4, r5, r6, r7, r8, r9, sl, lr}
 80066dc:	7e0f      	ldrb	r7, [r1, #24]
 80066de:	9e0c      	ldr	r6, [sp, #48]	@ 0x30
 80066e0:	2f78      	cmp	r7, #120	@ 0x78
 80066e2:	4691      	mov	r9, r2
 80066e4:	4680      	mov	r8, r0
 80066e6:	460c      	mov	r4, r1
 80066e8:	469a      	mov	sl, r3
 80066ea:	f101 0243 	add.w	r2, r1, #67	@ 0x43
 80066ee:	d807      	bhi.n	8006700 <_printf_i+0x28>
 80066f0:	2f62      	cmp	r7, #98	@ 0x62
 80066f2:	d80a      	bhi.n	800670a <_printf_i+0x32>
 80066f4:	2f00      	cmp	r7, #0
 80066f6:	f000 80d2 	beq.w	800689e <_printf_i+0x1c6>
 80066fa:	2f58      	cmp	r7, #88	@ 0x58
 80066fc:	f000 80b9 	beq.w	8006872 <_printf_i+0x19a>
 8006700:	f104 0642 	add.w	r6, r4, #66	@ 0x42
 8006704:	f884 7042 	strb.w	r7, [r4, #66]	@ 0x42
 8006708:	e03a      	b.n	8006780 <_printf_i+0xa8>
 800670a:	f1a7 0363 	sub.w	r3, r7, #99	@ 0x63
 800670e:	2b15      	cmp	r3, #21
 8006710:	d8f6      	bhi.n	8006700 <_printf_i+0x28>
 8006712:	a101      	add	r1, pc, #4	@ (adr r1, 8006718 <_printf_i+0x40>)
 8006714:	f851 f023 	ldr.w	pc, [r1, r3, lsl #2]
 8006718:	08006771 	.word	0x08006771
 800671c:	08006785 	.word	0x08006785
 8006720:	08006701 	.word	0x08006701
 8006724:	08006701 	.word	0x08006701
 8006728:	08006701 	.word	0x08006701
 800672c:	08006701 	.word	0x08006701
 8006730:	08006785 	.word	0x08006785
 8006734:	08006701 	.word	0x08006701
 8006738:	08006701 	.word	0x08006701
 800673c:	08006701 	.word	0x08006701
 8006740:	08006701 	.word	0x08006701
 8006744:	08006885 	.word	0x08006885
 8006748:	080067af 	.word	0x080067af
 800674c:	0800683f 	.word	0x0800683f
 8006750:	08006701 	.word	0x08006701
 8006754:	08006701 	.word	0x08006701
 8006758:	080068a7 	.word	0x080068a7
 800675c:	08006701 	.word	0x08006701
 8006760:	080067af 	.word	0x080067af
 8006764:	08006701 	.word	0x08006701
 8006768:	08006701 	.word	0x08006701
 800676c:	08006847 	.word	0x08006847
 8006770:	6833      	ldr	r3, [r6, #0]
 8006772:	1d1a      	adds	r2, r3, #4
 8006774:	681b      	ldr	r3, [r3, #0]
 8006776:	6032      	str	r2, [r6, #0]
 8006778:	f104 0642 	add.w	r6, r4, #66	@ 0x42
 800677c:	f884 3042 	strb.w	r3, [r4, #66]	@ 0x42
 8006780:	2301      	movs	r3, #1
 8006782:	e09d      	b.n	80068c0 <_printf_i+0x1e8>
 8006784:	6833      	ldr	r3, [r6, #0]
 8006786:	6820      	ldr	r0, [r4, #0]
 8006788:	1d19      	adds	r1, r3, #4
 800678a:	6031      	str	r1, [r6, #0]
 800678c:	0606      	lsls	r6, r0, #24
 800678e:	d501      	bpl.n	8006794 <_printf_i+0xbc>
 8006790:	681d      	ldr	r5, [r3, #0]
 8006792:	e003      	b.n	800679c <_printf_i+0xc4>
 8006794:	0645      	lsls	r5, r0, #25
 8006796:	d5fb      	bpl.n	8006790 <_printf_i+0xb8>
 8006798:	f9b3 5000 	ldrsh.w	r5, [r3]
 800679c:	2d00      	cmp	r5, #0
 800679e:	da03      	bge.n	80067a8 <_printf_i+0xd0>
 80067a0:	232d      	movs	r3, #45	@ 0x2d
 80067a2:	426d      	negs	r5, r5
 80067a4:	f884 3043 	strb.w	r3, [r4, #67]	@ 0x43
 80067a8:	4859      	ldr	r0, [pc, #356]	@ (8006910 <_printf_i+0x238>)
 80067aa:	230a      	movs	r3, #10
 80067ac:	e011      	b.n	80067d2 <_printf_i+0xfa>
 80067ae:	6821      	ldr	r1, [r4, #0]
 80067b0:	6833      	ldr	r3, [r6, #0]
 80067b2:	0608      	lsls	r0, r1, #24
 80067b4:	f853 5b04 	ldr.w	r5, [r3], #4
 80067b8:	d402      	bmi.n	80067c0 <_printf_i+0xe8>
 80067ba:	0649      	lsls	r1, r1, #25
 80067bc:	bf48      	it	mi
 80067be:	b2ad      	uxthmi	r5, r5
 80067c0:	2f6f      	cmp	r7, #111	@ 0x6f
 80067c2:	4853      	ldr	r0, [pc, #332]	@ (8006910 <_printf_i+0x238>)
 80067c4:	6033      	str	r3, [r6, #0]
 80067c6:	bf14      	ite	ne
 80067c8:	230a      	movne	r3, #10
 80067ca:	2308      	moveq	r3, #8
 80067cc:	2100      	movs	r1, #0
 80067ce:	f884 1043 	strb.w	r1, [r4, #67]	@ 0x43
 80067d2:	6866      	ldr	r6, [r4, #4]
 80067d4:	60a6      	str	r6, [r4, #8]
 80067d6:	2e00      	cmp	r6, #0
 80067d8:	bfa2      	ittt	ge
 80067da:	6821      	ldrge	r1, [r4, #0]
 80067dc:	f021 0104 	bicge.w	r1, r1, #4
 80067e0:	6021      	strge	r1, [r4, #0]
 80067e2:	b90d      	cbnz	r5, 80067e8 <_printf_i+0x110>
 80067e4:	2e00      	cmp	r6, #0
 80067e6:	d04b      	beq.n	8006880 <_printf_i+0x1a8>
 80067e8:	4616      	mov	r6, r2
 80067ea:	fbb5 f1f3 	udiv	r1, r5, r3
 80067ee:	fb03 5711 	mls	r7, r3, r1, r5
 80067f2:	5dc7      	ldrb	r7, [r0, r7]
 80067f4:	f806 7d01 	strb.w	r7, [r6, #-1]!
 80067f8:	462f      	mov	r7, r5
 80067fa:	42bb      	cmp	r3, r7
 80067fc:	460d      	mov	r5, r1
 80067fe:	d9f4      	bls.n	80067ea <_printf_i+0x112>
 8006800:	2b08      	cmp	r3, #8
 8006802:	d10b      	bne.n	800681c <_printf_i+0x144>
 8006804:	6823      	ldr	r3, [r4, #0]
 8006806:	07df      	lsls	r7, r3, #31
 8006808:	d508      	bpl.n	800681c <_printf_i+0x144>
 800680a:	6923      	ldr	r3, [r4, #16]
 800680c:	6861      	ldr	r1, [r4, #4]
 800680e:	4299      	cmp	r1, r3
 8006810:	bfde      	ittt	le
 8006812:	2330      	movle	r3, #48	@ 0x30
 8006814:	f806 3c01 	strble.w	r3, [r6, #-1]
 8006818:	f106 36ff 	addle.w	r6, r6, #4294967295
 800681c:	1b92      	subs	r2, r2, r6
 800681e:	6122      	str	r2, [r4, #16]
 8006820:	f8cd a000 	str.w	sl, [sp]
 8006824:	464b      	mov	r3, r9
 8006826:	aa03      	add	r2, sp, #12
 8006828:	4621      	mov	r1, r4
 800682a:	4640      	mov	r0, r8
 800682c:	f7ff fee6 	bl	80065fc <_printf_common>
 8006830:	3001      	adds	r0, #1
 8006832:	d14a      	bne.n	80068ca <_printf_i+0x1f2>
 8006834:	f04f 30ff 	mov.w	r0, #4294967295
 8006838:	b004      	add	sp, #16
 800683a:	e8bd 87f0 	ldmia.w	sp!, {r4, r5, r6, r7, r8, r9, sl, pc}
 800683e:	6823      	ldr	r3, [r4, #0]
 8006840:	f043 0320 	orr.w	r3, r3, #32
 8006844:	6023      	str	r3, [r4, #0]
 8006846:	4833      	ldr	r0, [pc, #204]	@ (8006914 <_printf_i+0x23c>)
 8006848:	2778      	movs	r7, #120	@ 0x78
 800684a:	f884 7045 	strb.w	r7, [r4, #69]	@ 0x45
 800684e:	6823      	ldr	r3, [r4, #0]
 8006850:	6831      	ldr	r1, [r6, #0]
 8006852:	061f      	lsls	r7, r3, #24
 8006854:	f851 5b04 	ldr.w	r5, [r1], #4
 8006858:	d402      	bmi.n	8006860 <_printf_i+0x188>
 800685a:	065f      	lsls	r7, r3, #25
 800685c:	bf48      	it	mi
 800685e:	b2ad      	uxthmi	r5, r5
 8006860:	6031      	str	r1, [r6, #0]
 8006862:	07d9      	lsls	r1, r3, #31
 8006864:	bf44      	itt	mi
 8006866:	f043 0320 	orrmi.w	r3, r3, #32
 800686a:	6023      	strmi	r3, [r4, #0]
 800686c:	b11d      	cbz	r5, 8006876 <_printf_i+0x19e>
 800686e:	2310      	movs	r3, #16
 8006870:	e7ac      	b.n	80067cc <_printf_i+0xf4>
 8006872:	4827      	ldr	r0, [pc, #156]	@ (8006910 <_printf_i+0x238>)
 8006874:	e7e9      	b.n	800684a <_printf_i+0x172>
 8006876:	6823      	ldr	r3, [r4, #0]
 8006878:	f023 0320 	bic.w	r3, r3, #32
 800687c:	6023      	str	r3, [r4, #0]
 800687e:	e7f6      	b.n	800686e <_printf_i+0x196>
 8006880:	4616      	mov	r6, r2
 8006882:	e7bd      	b.n	8006800 <_printf_i+0x128>
 8006884:	6833      	ldr	r3, [r6, #0]
 8006886:	6825      	ldr	r5, [r4, #0]
 8006888:	6961      	ldr	r1, [r4, #20]
 800688a:	1d18      	adds	r0, r3, #4
 800688c:	6030      	str	r0, [r6, #0]
 800688e:	062e      	lsls	r6, r5, #24
 8006890:	681b      	ldr	r3, [r3, #0]
 8006892:	d501      	bpl.n	8006898 <_printf_i+0x1c0>
 8006894:	6019      	str	r1, [r3, #0]
 8006896:	e002      	b.n	800689e <_printf_i+0x1c6>
 8006898:	0668      	lsls	r0, r5, #25
 800689a:	d5fb      	bpl.n	8006894 <_printf_i+0x1bc>
 800689c:	8019      	strh	r1, [r3, #0]
 800689e:	2300      	movs	r3, #0
 80068a0:	6123      	str	r3, [r4, #16]
 80068a2:	4616      	mov	r6, r2
 80068a4:	e7bc      	b.n	8006820 <_printf_i+0x148>
 80068a6:	6833      	ldr	r3, [r6, #0]
 80068a8:	1d1a      	adds	r2, r3, #4
 80068aa:	6032      	str	r2, [r6, #0]
 80068ac:	681e      	ldr	r6, [r3, #0]
 80068ae:	6862      	ldr	r2, [r4, #4]
 80068b0:	2100      	movs	r1, #0
 80068b2:	4630      	mov	r0, r6
 80068b4:	f7f9 fcac 	bl	8000210 <memchr>
 80068b8:	b108      	cbz	r0, 80068be <_printf_i+0x1e6>
 80068ba:	1b80      	subs	r0, r0, r6
 80068bc:	6060      	str	r0, [r4, #4]
 80068be:	6863      	ldr	r3, [r4, #4]
 80068c0:	6123      	str	r3, [r4, #16]
 80068c2:	2300      	movs	r3, #0
 80068c4:	f884 3043 	strb.w	r3, [r4, #67]	@ 0x43
 80068c8:	e7aa      	b.n	8006820 <_printf_i+0x148>
 80068ca:	6923      	ldr	r3, [r4, #16]
 80068cc:	4632      	mov	r2, r6
 80068ce:	4649      	mov	r1, r9
 80068d0:	4640      	mov	r0, r8
 80068d2:	47d0      	blx	sl
 80068d4:	3001      	adds	r0, #1
 80068d6:	d0ad      	beq.n	8006834 <_printf_i+0x15c>
 80068d8:	6823      	ldr	r3, [r4, #0]
 80068da:	079b      	lsls	r3, r3, #30
 80068dc:	d413      	bmi.n	8006906 <_printf_i+0x22e>
 80068de:	68e0      	ldr	r0, [r4, #12]
 80068e0:	9b03      	ldr	r3, [sp, #12]
 80068e2:	4298      	cmp	r0, r3
 80068e4:	bfb8      	it	lt
 80068e6:	4618      	movlt	r0, r3
 80068e8:	e7a6      	b.n	8006838 <_printf_i+0x160>
 80068ea:	2301      	movs	r3, #1
 80068ec:	4632      	mov	r2, r6
 80068ee:	4649      	mov	r1, r9
 80068f0:	4640      	mov	r0, r8
 80068f2:	47d0      	blx	sl
 80068f4:	3001      	adds	r0, #1
 80068f6:	d09d      	beq.n	8006834 <_printf_i+0x15c>
 80068f8:	3501      	adds	r5, #1
 80068fa:	68e3      	ldr	r3, [r4, #12]
 80068fc:	9903      	ldr	r1, [sp, #12]
 80068fe:	1a5b      	subs	r3, r3, r1
 8006900:	42ab      	cmp	r3, r5
 8006902:	dcf2      	bgt.n	80068ea <_printf_i+0x212>
 8006904:	e7eb      	b.n	80068de <_printf_i+0x206>
 8006906:	2500      	movs	r5, #0
 8006908:	f104 0619 	add.w	r6, r4, #25
 800690c:	e7f5      	b.n	80068fa <_printf_i+0x222>
 800690e:	bf00      	nop
 8006910:	0800905e 	.word	0x0800905e
 8006914:	0800906f 	.word	0x0800906f

08006918 <std>:
 8006918:	2300      	movs	r3, #0
 800691a:	b510      	push	{r4, lr}
 800691c:	4604      	mov	r4, r0
 800691e:	e9c0 3300 	strd	r3, r3, [r0]
 8006922:	e9c0 3304 	strd	r3, r3, [r0, #16]
 8006926:	6083      	str	r3, [r0, #8]
 8006928:	8181      	strh	r1, [r0, #12]
 800692a:	6643      	str	r3, [r0, #100]	@ 0x64
 800692c:	81c2      	strh	r2, [r0, #14]
 800692e:	6183      	str	r3, [r0, #24]
 8006930:	4619      	mov	r1, r3
 8006932:	2208      	movs	r2, #8
 8006934:	305c      	adds	r0, #92	@ 0x5c
 8006936:	f000 f914 	bl	8006b62 <memset>
 800693a:	4b0d      	ldr	r3, [pc, #52]	@ (8006970 <std+0x58>)
 800693c:	6263      	str	r3, [r4, #36]	@ 0x24
 800693e:	4b0d      	ldr	r3, [pc, #52]	@ (8006974 <std+0x5c>)
 8006940:	62a3      	str	r3, [r4, #40]	@ 0x28
 8006942:	4b0d      	ldr	r3, [pc, #52]	@ (8006978 <std+0x60>)
 8006944:	62e3      	str	r3, [r4, #44]	@ 0x2c
 8006946:	4b0d      	ldr	r3, [pc, #52]	@ (800697c <std+0x64>)
 8006948:	6323      	str	r3, [r4, #48]	@ 0x30
 800694a:	4b0d      	ldr	r3, [pc, #52]	@ (8006980 <std+0x68>)
 800694c:	6224      	str	r4, [r4, #32]
 800694e:	429c      	cmp	r4, r3
 8006950:	d006      	beq.n	8006960 <std+0x48>
 8006952:	f103 0268 	add.w	r2, r3, #104	@ 0x68
 8006956:	4294      	cmp	r4, r2
 8006958:	d002      	beq.n	8006960 <std+0x48>
 800695a:	33d0      	adds	r3, #208	@ 0xd0
 800695c:	429c      	cmp	r4, r3
 800695e:	d105      	bne.n	800696c <std+0x54>
 8006960:	f104 0058 	add.w	r0, r4, #88	@ 0x58
 8006964:	e8bd 4010 	ldmia.w	sp!, {r4, lr}
 8006968:	f000 b982 	b.w	8006c70 <__retarget_lock_init_recursive>
 800696c:	bd10      	pop	{r4, pc}
 800696e:	bf00      	nop
 8006970:	08006add 	.word	0x08006add
 8006974:	08006aff 	.word	0x08006aff
 8006978:	08006b37 	.word	0x08006b37
 800697c:	08006b5b 	.word	0x08006b5b
 8006980:	20000574 	.word	0x20000574

08006984 <stdio_exit_handler>:
 8006984:	4a02      	ldr	r2, [pc, #8]	@ (8006990 <stdio_exit_handler+0xc>)
 8006986:	4903      	ldr	r1, [pc, #12]	@ (8006994 <stdio_exit_handler+0x10>)
 8006988:	4803      	ldr	r0, [pc, #12]	@ (8006998 <stdio_exit_handler+0x14>)
 800698a:	f000 b869 	b.w	8006a60 <_fwalk_sglue>
 800698e:	bf00      	nop
 8006990:	20000010 	.word	0x20000010
 8006994:	08008481 	.word	0x08008481
 8006998:	20000020 	.word	0x20000020

0800699c <cleanup_stdio>:
 800699c:	6841      	ldr	r1, [r0, #4]
 800699e:	4b0c      	ldr	r3, [pc, #48]	@ (80069d0 <cleanup_stdio+0x34>)
 80069a0:	4299      	cmp	r1, r3
 80069a2:	b510      	push	{r4, lr}
 80069a4:	4604      	mov	r4, r0
 80069a6:	d001      	beq.n	80069ac <cleanup_stdio+0x10>
 80069a8:	f001 fd6a 	bl	8008480 <_fflush_r>
 80069ac:	68a1      	ldr	r1, [r4, #8]
 80069ae:	4b09      	ldr	r3, [pc, #36]	@ (80069d4 <cleanup_stdio+0x38>)
 80069b0:	4299      	cmp	r1, r3
 80069b2:	d002      	beq.n	80069ba <cleanup_stdio+0x1e>
 80069b4:	4620      	mov	r0, r4
 80069b6:	f001 fd63 	bl	8008480 <_fflush_r>
 80069ba:	68e1      	ldr	r1, [r4, #12]
 80069bc:	4b06      	ldr	r3, [pc, #24]	@ (80069d8 <cleanup_stdio+0x3c>)
 80069be:	4299      	cmp	r1, r3
 80069c0:	d004      	beq.n	80069cc <cleanup_stdio+0x30>
 80069c2:	4620      	mov	r0, r4
 80069c4:	e8bd 4010 	ldmia.w	sp!, {r4, lr}
 80069c8:	f001 bd5a 	b.w	8008480 <_fflush_r>
 80069cc:	bd10      	pop	{r4, pc}
 80069ce:	bf00      	nop
 80069d0:	20000574 	.word	0x20000574
 80069d4:	200005dc 	.word	0x200005dc
 80069d8:	20000644 	.word	0x20000644

080069dc <global_stdio_init.part.0>:
 80069dc:	b510      	push	{r4, lr}
 80069de:	4b0b      	ldr	r3, [pc, #44]	@ (8006a0c <global_stdio_init.part.0+0x30>)
 80069e0:	4c0b      	ldr	r4, [pc, #44]	@ (8006a10 <global_stdio_init.part.0+0x34>)
 80069e2:	4a0c      	ldr	r2, [pc, #48]	@ (8006a14 <global_stdio_init.part.0+0x38>)
 80069e4:	601a      	str	r2, [r3, #0]
 80069e6:	4620      	mov	r0, r4
 80069e8:	2200      	movs	r2, #0
 80069ea:	2104      	movs	r1, #4
 80069ec:	f7ff ff94 	bl	8006918 <std>
 80069f0:	f104 0068 	add.w	r0, r4, #104	@ 0x68
 80069f4:	2201      	movs	r2, #1
 80069f6:	2109      	movs	r1, #9
 80069f8:	f7ff ff8e 	bl	8006918 <std>
 80069fc:	f104 00d0 	add.w	r0, r4, #208	@ 0xd0
 8006a00:	2202      	movs	r2, #2
 8006a02:	e8bd 4010 	ldmia.w	sp!, {r4, lr}
 8006a06:	2112      	movs	r1, #18
 8006a08:	f7ff bf86 	b.w	8006918 <std>
 8006a0c:	200006ac 	.word	0x200006ac
 8006a10:	20000574 	.word	0x20000574
 8006a14:	08006985 	.word	0x08006985

08006a18 <__sfp_lock_acquire>:
 8006a18:	4801      	ldr	r0, [pc, #4]	@ (8006a20 <__sfp_lock_acquire+0x8>)
 8006a1a:	f000 b92a 	b.w	8006c72 <__retarget_lock_acquire_recursive>
 8006a1e:	bf00      	nop
 8006a20:	200006b5 	.word	0x200006b5

08006a24 <__sfp_lock_release>:
 8006a24:	4801      	ldr	r0, [pc, #4]	@ (8006a2c <__sfp_lock_release+0x8>)
 8006a26:	f000 b925 	b.w	8006c74 <__retarget_lock_release_recursive>
 8006a2a:	bf00      	nop
 8006a2c:	200006b5 	.word	0x200006b5

08006a30 <__sinit>:
 8006a30:	b510      	push	{r4, lr}
 8006a32:	4604      	mov	r4, r0
 8006a34:	f7ff fff0 	bl	8006a18 <__sfp_lock_acquire>
 8006a38:	6a23      	ldr	r3, [r4, #32]
 8006a3a:	b11b      	cbz	r3, 8006a44 <__sinit+0x14>
 8006a3c:	e8bd 4010 	ldmia.w	sp!, {r4, lr}
 8006a40:	f7ff bff0 	b.w	8006a24 <__sfp_lock_release>
 8006a44:	4b04      	ldr	r3, [pc, #16]	@ (8006a58 <__sinit+0x28>)
 8006a46:	6223      	str	r3, [r4, #32]
 8006a48:	4b04      	ldr	r3, [pc, #16]	@ (8006a5c <__sinit+0x2c>)
 8006a4a:	681b      	ldr	r3, [r3, #0]
 8006a4c:	2b00      	cmp	r3, #0
 8006a4e:	d1f5      	bne.n	8006a3c <__sinit+0xc>
 8006a50:	f7ff ffc4 	bl	80069dc <global_stdio_init.part.0>
 8006a54:	e7f2      	b.n	8006a3c <__sinit+0xc>
 8006a56:	bf00      	nop
 8006a58:	0800699d 	.word	0x0800699d
 8006a5c:	200006ac 	.word	0x200006ac

08006a60 <_fwalk_sglue>:
 8006a60:	e92d 43f8 	stmdb	sp!, {r3, r4, r5, r6, r7, r8, r9, lr}
 8006a64:	4607      	mov	r7, r0
 8006a66:	4688      	mov	r8, r1
 8006a68:	4614      	mov	r4, r2
 8006a6a:	2600      	movs	r6, #0
 8006a6c:	e9d4 9501 	ldrd	r9, r5, [r4, #4]
 8006a70:	f1b9 0901 	subs.w	r9, r9, #1
 8006a74:	d505      	bpl.n	8006a82 <_fwalk_sglue+0x22>
 8006a76:	6824      	ldr	r4, [r4, #0]
 8006a78:	2c00      	cmp	r4, #0
 8006a7a:	d1f7      	bne.n	8006a6c <_fwalk_sglue+0xc>
 8006a7c:	4630      	mov	r0, r6
 8006a7e:	e8bd 83f8 	ldmia.w	sp!, {r3, r4, r5, r6, r7, r8, r9, pc}
 8006a82:	89ab      	ldrh	r3, [r5, #12]
 8006a84:	2b01      	cmp	r3, #1
 8006a86:	d907      	bls.n	8006a98 <_fwalk_sglue+0x38>
 8006a88:	f9b5 300e 	ldrsh.w	r3, [r5, #14]
 8006a8c:	3301      	adds	r3, #1
 8006a8e:	d003      	beq.n	8006a98 <_fwalk_sglue+0x38>
 8006a90:	4629      	mov	r1, r5
 8006a92:	4638      	mov	r0, r7
 8006a94:	47c0      	blx	r8
 8006a96:	4306      	orrs	r6, r0
 8006a98:	3568      	adds	r5, #104	@ 0x68
 8006a9a:	e7e9      	b.n	8006a70 <_fwalk_sglue+0x10>

08006a9c <siprintf>:
 8006a9c:	b40e      	push	{r1, r2, r3}
 8006a9e:	b500      	push	{lr}
 8006aa0:	b09c      	sub	sp, #112	@ 0x70
 8006aa2:	ab1d      	add	r3, sp, #116	@ 0x74
 8006aa4:	9002      	str	r0, [sp, #8]
 8006aa6:	9006      	str	r0, [sp, #24]
 8006aa8:	f06f 4100 	mvn.w	r1, #2147483648	@ 0x80000000
 8006aac:	4809      	ldr	r0, [pc, #36]	@ (8006ad4 <siprintf+0x38>)
 8006aae:	9107      	str	r1, [sp, #28]
 8006ab0:	9104      	str	r1, [sp, #16]
 8006ab2:	4909      	ldr	r1, [pc, #36]	@ (8006ad8 <siprintf+0x3c>)
 8006ab4:	f853 2b04 	ldr.w	r2, [r3], #4
 8006ab8:	9105      	str	r1, [sp, #20]
 8006aba:	6800      	ldr	r0, [r0, #0]
 8006abc:	9301      	str	r3, [sp, #4]
 8006abe:	a902      	add	r1, sp, #8
 8006ac0:	f001 fb5e 	bl	8008180 <_svfiprintf_r>
 8006ac4:	9b02      	ldr	r3, [sp, #8]
 8006ac6:	2200      	movs	r2, #0
 8006ac8:	701a      	strb	r2, [r3, #0]
 8006aca:	b01c      	add	sp, #112	@ 0x70
 8006acc:	f85d eb04 	ldr.w	lr, [sp], #4
 8006ad0:	b003      	add	sp, #12
 8006ad2:	4770      	bx	lr
 8006ad4:	2000001c 	.word	0x2000001c
 8006ad8:	ffff0208 	.word	0xffff0208

08006adc <__sread>:
 8006adc:	b510      	push	{r4, lr}
 8006ade:	460c      	mov	r4, r1
 8006ae0:	f9b1 100e 	ldrsh.w	r1, [r1, #14]
 8006ae4:	f000 f86c 	bl	8006bc0 <_read_r>
 8006ae8:	2800      	cmp	r0, #0
 8006aea:	bfab      	itete	ge
 8006aec:	6d63      	ldrge	r3, [r4, #84]	@ 0x54
 8006aee:	89a3      	ldrhlt	r3, [r4, #12]
 8006af0:	181b      	addge	r3, r3, r0
 8006af2:	f423 5380 	biclt.w	r3, r3, #4096	@ 0x1000
 8006af6:	bfac      	ite	ge
 8006af8:	6563      	strge	r3, [r4, #84]	@ 0x54
 8006afa:	81a3      	strhlt	r3, [r4, #12]
 8006afc:	bd10      	pop	{r4, pc}

08006afe <__swrite>:
 8006afe:	e92d 41f0 	stmdb	sp!, {r4, r5, r6, r7, r8, lr}
 8006b02:	461f      	mov	r7, r3
 8006b04:	898b      	ldrh	r3, [r1, #12]
 8006b06:	05db      	lsls	r3, r3, #23
 8006b08:	4605      	mov	r5, r0
 8006b0a:	460c      	mov	r4, r1
 8006b0c:	4616      	mov	r6, r2
 8006b0e:	d505      	bpl.n	8006b1c <__swrite+0x1e>
 8006b10:	f9b1 100e 	ldrsh.w	r1, [r1, #14]
 8006b14:	2302      	movs	r3, #2
 8006b16:	2200      	movs	r2, #0
 8006b18:	f000 f840 	bl	8006b9c <_lseek_r>
 8006b1c:	89a3      	ldrh	r3, [r4, #12]
 8006b1e:	f9b4 100e 	ldrsh.w	r1, [r4, #14]
 8006b22:	f423 5380 	bic.w	r3, r3, #4096	@ 0x1000
 8006b26:	81a3      	strh	r3, [r4, #12]
 8006b28:	4632      	mov	r2, r6
 8006b2a:	463b      	mov	r3, r7
 8006b2c:	4628      	mov	r0, r5
 8006b2e:	e8bd 41f0 	ldmia.w	sp!, {r4, r5, r6, r7, r8, lr}
 8006b32:	f000 b867 	b.w	8006c04 <_write_r>

08006b36 <__sseek>:
 8006b36:	b510      	push	{r4, lr}
 8006b38:	460c      	mov	r4, r1
 8006b3a:	f9b1 100e 	ldrsh.w	r1, [r1, #14]
 8006b3e:	f000 f82d 	bl	8006b9c <_lseek_r>
 8006b42:	1c43      	adds	r3, r0, #1
 8006b44:	89a3      	ldrh	r3, [r4, #12]
 8006b46:	bf15      	itete	ne
 8006b48:	6560      	strne	r0, [r4, #84]	@ 0x54
 8006b4a:	f423 5380 	biceq.w	r3, r3, #4096	@ 0x1000
 8006b4e:	f443 5380 	orrne.w	r3, r3, #4096	@ 0x1000
 8006b52:	81a3      	strheq	r3, [r4, #12]
 8006b54:	bf18      	it	ne
 8006b56:	81a3      	strhne	r3, [r4, #12]
 8006b58:	bd10      	pop	{r4, pc}

08006b5a <__sclose>:
 8006b5a:	f9b1 100e 	ldrsh.w	r1, [r1, #14]
 8006b5e:	f000 b80d 	b.w	8006b7c <_close_r>

08006b62 <memset>:
 8006b62:	4402      	add	r2, r0
 8006b64:	4603      	mov	r3, r0
 8006b66:	4293      	cmp	r3, r2
 8006b68:	d100      	bne.n	8006b6c <memset+0xa>
 8006b6a:	4770      	bx	lr
 8006b6c:	f803 1b01 	strb.w	r1, [r3], #1
 8006b70:	e7f9      	b.n	8006b66 <memset+0x4>
	...

08006b74 <_localeconv_r>:
 8006b74:	4800      	ldr	r0, [pc, #0]	@ (8006b78 <_localeconv_r+0x4>)
 8006b76:	4770      	bx	lr
 8006b78:	2000015c 	.word	0x2000015c

08006b7c <_close_r>:
 8006b7c:	b538      	push	{r3, r4, r5, lr}
 8006b7e:	4d06      	ldr	r5, [pc, #24]	@ (8006b98 <_close_r+0x1c>)
 8006b80:	2300      	movs	r3, #0
 8006b82:	4604      	mov	r4, r0
 8006b84:	4608      	mov	r0, r1
 8006b86:	602b      	str	r3, [r5, #0]
 8006b88:	f001 ffe6 	bl	8008b58 <_close>
 8006b8c:	1c43      	adds	r3, r0, #1
 8006b8e:	d102      	bne.n	8006b96 <_close_r+0x1a>
 8006b90:	682b      	ldr	r3, [r5, #0]
 8006b92:	b103      	cbz	r3, 8006b96 <_close_r+0x1a>
 8006b94:	6023      	str	r3, [r4, #0]
 8006b96:	bd38      	pop	{r3, r4, r5, pc}
 8006b98:	200006b0 	.word	0x200006b0

08006b9c <_lseek_r>:
 8006b9c:	b538      	push	{r3, r4, r5, lr}
 8006b9e:	4d07      	ldr	r5, [pc, #28]	@ (8006bbc <_lseek_r+0x20>)
 8006ba0:	4604      	mov	r4, r0
 8006ba2:	4608      	mov	r0, r1
 8006ba4:	4611      	mov	r1, r2
 8006ba6:	2200      	movs	r2, #0
 8006ba8:	602a      	str	r2, [r5, #0]
 8006baa:	461a      	mov	r2, r3
 8006bac:	f001 fffc 	bl	8008ba8 <_lseek>
 8006bb0:	1c43      	adds	r3, r0, #1
 8006bb2:	d102      	bne.n	8006bba <_lseek_r+0x1e>
 8006bb4:	682b      	ldr	r3, [r5, #0]
 8006bb6:	b103      	cbz	r3, 8006bba <_lseek_r+0x1e>
 8006bb8:	6023      	str	r3, [r4, #0]
 8006bba:	bd38      	pop	{r3, r4, r5, pc}
 8006bbc:	200006b0 	.word	0x200006b0

08006bc0 <_read_r>:
 8006bc0:	b538      	push	{r3, r4, r5, lr}
 8006bc2:	4d07      	ldr	r5, [pc, #28]	@ (8006be0 <_read_r+0x20>)
 8006bc4:	4604      	mov	r4, r0
 8006bc6:	4608      	mov	r0, r1
 8006bc8:	4611      	mov	r1, r2
 8006bca:	2200      	movs	r2, #0
 8006bcc:	602a      	str	r2, [r5, #0]
 8006bce:	461a      	mov	r2, r3
 8006bd0:	f001 fff2 	bl	8008bb8 <_read>
 8006bd4:	1c43      	adds	r3, r0, #1
 8006bd6:	d102      	bne.n	8006bde <_read_r+0x1e>
 8006bd8:	682b      	ldr	r3, [r5, #0]
 8006bda:	b103      	cbz	r3, 8006bde <_read_r+0x1e>
 8006bdc:	6023      	str	r3, [r4, #0]
 8006bde:	bd38      	pop	{r3, r4, r5, pc}
 8006be0:	200006b0 	.word	0x200006b0

08006be4 <_sbrk_r>:
 8006be4:	b538      	push	{r3, r4, r5, lr}
 8006be6:	4d06      	ldr	r5, [pc, #24]	@ (8006c00 <_sbrk_r+0x1c>)
 8006be8:	2300      	movs	r3, #0
 8006bea:	4604      	mov	r4, r0
 8006bec:	4608      	mov	r0, r1
 8006bee:	602b      	str	r3, [r5, #0]
 8006bf0:	f001 ffea 	bl	8008bc8 <_sbrk>
 8006bf4:	1c43      	adds	r3, r0, #1
 8006bf6:	d102      	bne.n	8006bfe <_sbrk_r+0x1a>
 8006bf8:	682b      	ldr	r3, [r5, #0]
 8006bfa:	b103      	cbz	r3, 8006bfe <_sbrk_r+0x1a>
 8006bfc:	6023      	str	r3, [r4, #0]
 8006bfe:	bd38      	pop	{r3, r4, r5, pc}
 8006c00:	200006b0 	.word	0x200006b0

08006c04 <_write_r>:
 8006c04:	b538      	push	{r3, r4, r5, lr}
 8006c06:	4d07      	ldr	r5, [pc, #28]	@ (8006c24 <_write_r+0x20>)
 8006c08:	4604      	mov	r4, r0
 8006c0a:	4608      	mov	r0, r1
 8006c0c:	4611      	mov	r1, r2
 8006c0e:	2200      	movs	r2, #0
 8006c10:	602a      	str	r2, [r5, #0]
 8006c12:	461a      	mov	r2, r3
 8006c14:	f001 ffe6 	bl	8008be4 <_write>
 8006c18:	1c43      	adds	r3, r0, #1
 8006c1a:	d102      	bne.n	8006c22 <_write_r+0x1e>
 8006c1c:	682b      	ldr	r3, [r5, #0]
 8006c1e:	b103      	cbz	r3, 8006c22 <_write_r+0x1e>
 8006c20:	6023      	str	r3, [r4, #0]
 8006c22:	bd38      	pop	{r3, r4, r5, pc}
 8006c24:	200006b0 	.word	0x200006b0

08006c28 <__libc_init_array>:
 8006c28:	b570      	push	{r4, r5, r6, lr}
 8006c2a:	4d0d      	ldr	r5, [pc, #52]	@ (8006c60 <__libc_init_array+0x38>)
 8006c2c:	4c0d      	ldr	r4, [pc, #52]	@ (8006c64 <__libc_init_array+0x3c>)
 8006c2e:	1b64      	subs	r4, r4, r5
 8006c30:	10a4      	asrs	r4, r4, #2
 8006c32:	2600      	movs	r6, #0
 8006c34:	42a6      	cmp	r6, r4
 8006c36:	d109      	bne.n	8006c4c <__libc_init_array+0x24>
 8006c38:	4d0b      	ldr	r5, [pc, #44]	@ (8006c68 <__libc_init_array+0x40>)
 8006c3a:	4c0c      	ldr	r4, [pc, #48]	@ (8006c6c <__libc_init_array+0x44>)
 8006c3c:	f001 ffdc 	bl	8008bf8 <_init>
 8006c40:	1b64      	subs	r4, r4, r5
 8006c42:	10a4      	asrs	r4, r4, #2
 8006c44:	2600      	movs	r6, #0
 8006c46:	42a6      	cmp	r6, r4
 8006c48:	d105      	bne.n	8006c56 <__libc_init_array+0x2e>
 8006c4a:	bd70      	pop	{r4, r5, r6, pc}
 8006c4c:	f855 3b04 	ldr.w	r3, [r5], #4
 8006c50:	4798      	blx	r3
 8006c52:	3601      	adds	r6, #1
 8006c54:	e7ee      	b.n	8006c34 <__libc_init_array+0xc>
 8006c56:	f855 3b04 	ldr.w	r3, [r5], #4
 8006c5a:	4798      	blx	r3
 8006c5c:	3601      	adds	r6, #1
 8006c5e:	e7f2      	b.n	8006c46 <__libc_init_array+0x1e>
 8006c60:	080093c8 	.word	0x080093c8
 8006c64:	080093c8 	.word	0x080093c8
 8006c68:	080093c8 	.word	0x080093c8
 8006c6c:	080093cc 	.word	0x080093cc

08006c70 <__retarget_lock_init_recursive>:
 8006c70:	4770      	bx	lr

08006c72 <__retarget_lock_acquire_recursive>:
 8006c72:	4770      	bx	lr

08006c74 <__retarget_lock_release_recursive>:
 8006c74:	4770      	bx	lr

08006c76 <memcpy>:
 8006c76:	440a      	add	r2, r1
 8006c78:	4291      	cmp	r1, r2
 8006c7a:	f100 33ff 	add.w	r3, r0, #4294967295
 8006c7e:	d100      	bne.n	8006c82 <memcpy+0xc>
 8006c80:	4770      	bx	lr
 8006c82:	b510      	push	{r4, lr}
 8006c84:	f811 4b01 	ldrb.w	r4, [r1], #1
 8006c88:	f803 4f01 	strb.w	r4, [r3, #1]!
 8006c8c:	4291      	cmp	r1, r2
 8006c8e:	d1f9      	bne.n	8006c84 <memcpy+0xe>
 8006c90:	bd10      	pop	{r4, pc}

08006c92 <quorem>:
 8006c92:	e92d 4ff7 	stmdb	sp!, {r0, r1, r2, r4, r5, r6, r7, r8, r9, sl, fp, lr}
 8006c96:	6903      	ldr	r3, [r0, #16]
 8006c98:	690c      	ldr	r4, [r1, #16]
 8006c9a:	42a3      	cmp	r3, r4
 8006c9c:	4607      	mov	r7, r0
 8006c9e:	db7e      	blt.n	8006d9e <quorem+0x10c>
 8006ca0:	3c01      	subs	r4, #1
 8006ca2:	f101 0814 	add.w	r8, r1, #20
 8006ca6:	00a3      	lsls	r3, r4, #2
 8006ca8:	f100 0514 	add.w	r5, r0, #20
 8006cac:	9300      	str	r3, [sp, #0]
 8006cae:	eb05 0384 	add.w	r3, r5, r4, lsl #2
 8006cb2:	9301      	str	r3, [sp, #4]
 8006cb4:	f858 3024 	ldr.w	r3, [r8, r4, lsl #2]
 8006cb8:	f855 2024 	ldr.w	r2, [r5, r4, lsl #2]
 8006cbc:	3301      	adds	r3, #1
 8006cbe:	429a      	cmp	r2, r3
 8006cc0:	eb08 0984 	add.w	r9, r8, r4, lsl #2
 8006cc4:	fbb2 f6f3 	udiv	r6, r2, r3
 8006cc8:	d32e      	bcc.n	8006d28 <quorem+0x96>
 8006cca:	f04f 0a00 	mov.w	sl, #0
 8006cce:	46c4      	mov	ip, r8
 8006cd0:	46ae      	mov	lr, r5
 8006cd2:	46d3      	mov	fp, sl
 8006cd4:	f85c 3b04 	ldr.w	r3, [ip], #4
 8006cd8:	b298      	uxth	r0, r3
 8006cda:	fb06 a000 	mla	r0, r6, r0, sl
 8006cde:	0c02      	lsrs	r2, r0, #16
 8006ce0:	0c1b      	lsrs	r3, r3, #16
 8006ce2:	fb06 2303 	mla	r3, r6, r3, r2
 8006ce6:	f8de 2000 	ldr.w	r2, [lr]
 8006cea:	b280      	uxth	r0, r0
 8006cec:	b292      	uxth	r2, r2
 8006cee:	1a12      	subs	r2, r2, r0
 8006cf0:	445a      	add	r2, fp
 8006cf2:	f8de 0000 	ldr.w	r0, [lr]
 8006cf6:	ea4f 4a13 	mov.w	sl, r3, lsr #16
 8006cfa:	b29b      	uxth	r3, r3
 8006cfc:	ebc3 4322 	rsb	r3, r3, r2, asr #16
 8006d00:	eb03 4310 	add.w	r3, r3, r0, lsr #16
 8006d04:	b292      	uxth	r2, r2
 8006d06:	ea42 4203 	orr.w	r2, r2, r3, lsl #16
 8006d0a:	45e1      	cmp	r9, ip
 8006d0c:	f84e 2b04 	str.w	r2, [lr], #4
 8006d10:	ea4f 4b23 	mov.w	fp, r3, asr #16
 8006d14:	d2de      	bcs.n	8006cd4 <quorem+0x42>
 8006d16:	9b00      	ldr	r3, [sp, #0]
 8006d18:	58eb      	ldr	r3, [r5, r3]
 8006d1a:	b92b      	cbnz	r3, 8006d28 <quorem+0x96>
 8006d1c:	9b01      	ldr	r3, [sp, #4]
 8006d1e:	3b04      	subs	r3, #4
 8006d20:	429d      	cmp	r5, r3
 8006d22:	461a      	mov	r2, r3
 8006d24:	d32f      	bcc.n	8006d86 <quorem+0xf4>
 8006d26:	613c      	str	r4, [r7, #16]
 8006d28:	4638      	mov	r0, r7
 8006d2a:	f001 f8c5 	bl	8007eb8 <__mcmp>
 8006d2e:	2800      	cmp	r0, #0
 8006d30:	db25      	blt.n	8006d7e <quorem+0xec>
 8006d32:	4629      	mov	r1, r5
 8006d34:	2000      	movs	r0, #0
 8006d36:	f858 2b04 	ldr.w	r2, [r8], #4
 8006d3a:	f8d1 c000 	ldr.w	ip, [r1]
 8006d3e:	fa1f fe82 	uxth.w	lr, r2
 8006d42:	fa1f f38c 	uxth.w	r3, ip
 8006d46:	eba3 030e 	sub.w	r3, r3, lr
 8006d4a:	4403      	add	r3, r0
 8006d4c:	0c12      	lsrs	r2, r2, #16
 8006d4e:	ebc2 4223 	rsb	r2, r2, r3, asr #16
 8006d52:	eb02 421c 	add.w	r2, r2, ip, lsr #16
 8006d56:	b29b      	uxth	r3, r3
 8006d58:	ea43 4302 	orr.w	r3, r3, r2, lsl #16
 8006d5c:	45c1      	cmp	r9, r8
 8006d5e:	f841 3b04 	str.w	r3, [r1], #4
 8006d62:	ea4f 4022 	mov.w	r0, r2, asr #16
 8006d66:	d2e6      	bcs.n	8006d36 <quorem+0xa4>
 8006d68:	f855 2024 	ldr.w	r2, [r5, r4, lsl #2]
 8006d6c:	eb05 0384 	add.w	r3, r5, r4, lsl #2
 8006d70:	b922      	cbnz	r2, 8006d7c <quorem+0xea>
 8006d72:	3b04      	subs	r3, #4
 8006d74:	429d      	cmp	r5, r3
 8006d76:	461a      	mov	r2, r3
 8006d78:	d30b      	bcc.n	8006d92 <quorem+0x100>
 8006d7a:	613c      	str	r4, [r7, #16]
 8006d7c:	3601      	adds	r6, #1
 8006d7e:	4630      	mov	r0, r6
 8006d80:	b003      	add	sp, #12
 8006d82:	e8bd 8ff0 	ldmia.w	sp!, {r4, r5, r6, r7, r8, r9, sl, fp, pc}
 8006d86:	6812      	ldr	r2, [r2, #0]
 8006d88:	3b04      	subs	r3, #4
 8006d8a:	2a00      	cmp	r2, #0
 8006d8c:	d1cb      	bne.n	8006d26 <quorem+0x94>
 8006d8e:	3c01      	subs	r4, #1
 8006d90:	e7c6      	b.n	8006d20 <quorem+0x8e>
 8006d92:	6812      	ldr	r2, [r2, #0]
 8006d94:	3b04      	subs	r3, #4
 8006d96:	2a00      	cmp	r2, #0
 8006d98:	d1ef      	bne.n	8006d7a <quorem+0xe8>
 8006d9a:	3c01      	subs	r4, #1
 8006d9c:	e7ea      	b.n	8006d74 <quorem+0xe2>
 8006d9e:	2000      	movs	r0, #0
 8006da0:	e7ee      	b.n	8006d80 <quorem+0xee>
 8006da2:	0000      	movs	r0, r0
 8006da4:	0000      	movs	r0, r0
	...

08006da8 <_dtoa_r>:
 8006da8:	e92d 4ff0 	stmdb	sp!, {r4, r5, r6, r7, r8, r9, sl, fp, lr}
 8006dac:	69c7      	ldr	r7, [r0, #28]
 8006dae:	b099      	sub	sp, #100	@ 0x64
 8006db0:	ed8d 0b02 	vstr	d0, [sp, #8]
 8006db4:	ec55 4b10 	vmov	r4, r5, d0
 8006db8:	9e22      	ldr	r6, [sp, #136]	@ 0x88
 8006dba:	9109      	str	r1, [sp, #36]	@ 0x24
 8006dbc:	4683      	mov	fp, r0
 8006dbe:	920e      	str	r2, [sp, #56]	@ 0x38
 8006dc0:	9313      	str	r3, [sp, #76]	@ 0x4c
 8006dc2:	b97f      	cbnz	r7, 8006de4 <_dtoa_r+0x3c>
 8006dc4:	2010      	movs	r0, #16
 8006dc6:	f7ff f891 	bl	8005eec <malloc>
 8006dca:	4602      	mov	r2, r0
 8006dcc:	f8cb 001c 	str.w	r0, [fp, #28]
 8006dd0:	b920      	cbnz	r0, 8006ddc <_dtoa_r+0x34>
 8006dd2:	4ba7      	ldr	r3, [pc, #668]	@ (8007070 <_dtoa_r+0x2c8>)
 8006dd4:	21ef      	movs	r1, #239	@ 0xef
 8006dd6:	48a7      	ldr	r0, [pc, #668]	@ (8007074 <_dtoa_r+0x2cc>)
 8006dd8:	f001 fb94 	bl	8008504 <__assert_func>
 8006ddc:	e9c0 7701 	strd	r7, r7, [r0, #4]
 8006de0:	6007      	str	r7, [r0, #0]
 8006de2:	60c7      	str	r7, [r0, #12]
 8006de4:	f8db 301c 	ldr.w	r3, [fp, #28]
 8006de8:	6819      	ldr	r1, [r3, #0]
 8006dea:	b159      	cbz	r1, 8006e04 <_dtoa_r+0x5c>
 8006dec:	685a      	ldr	r2, [r3, #4]
 8006dee:	604a      	str	r2, [r1, #4]
 8006df0:	2301      	movs	r3, #1
 8006df2:	4093      	lsls	r3, r2
 8006df4:	608b      	str	r3, [r1, #8]
 8006df6:	4658      	mov	r0, fp
 8006df8:	f000 fe24 	bl	8007a44 <_Bfree>
 8006dfc:	f8db 301c 	ldr.w	r3, [fp, #28]
 8006e00:	2200      	movs	r2, #0
 8006e02:	601a      	str	r2, [r3, #0]
 8006e04:	1e2b      	subs	r3, r5, #0
 8006e06:	bfb9      	ittee	lt
 8006e08:	f023 4300 	biclt.w	r3, r3, #2147483648	@ 0x80000000
 8006e0c:	9303      	strlt	r3, [sp, #12]
 8006e0e:	2300      	movge	r3, #0
 8006e10:	6033      	strge	r3, [r6, #0]
 8006e12:	9f03      	ldr	r7, [sp, #12]
 8006e14:	4b98      	ldr	r3, [pc, #608]	@ (8007078 <_dtoa_r+0x2d0>)
 8006e16:	bfbc      	itt	lt
 8006e18:	2201      	movlt	r2, #1
 8006e1a:	6032      	strlt	r2, [r6, #0]
 8006e1c:	43bb      	bics	r3, r7
 8006e1e:	d112      	bne.n	8006e46 <_dtoa_r+0x9e>
 8006e20:	9a13      	ldr	r2, [sp, #76]	@ 0x4c
 8006e22:	f242 730f 	movw	r3, #9999	@ 0x270f
 8006e26:	6013      	str	r3, [r2, #0]
 8006e28:	f3c7 0313 	ubfx	r3, r7, #0, #20
 8006e2c:	4323      	orrs	r3, r4
 8006e2e:	f000 854d 	beq.w	80078cc <_dtoa_r+0xb24>
 8006e32:	9b23      	ldr	r3, [sp, #140]	@ 0x8c
 8006e34:	f8df a254 	ldr.w	sl, [pc, #596]	@ 800708c <_dtoa_r+0x2e4>
 8006e38:	2b00      	cmp	r3, #0
 8006e3a:	f000 854f 	beq.w	80078dc <_dtoa_r+0xb34>
 8006e3e:	f10a 0303 	add.w	r3, sl, #3
 8006e42:	f000 bd49 	b.w	80078d8 <_dtoa_r+0xb30>
 8006e46:	ed9d 7b02 	vldr	d7, [sp, #8]
 8006e4a:	2200      	movs	r2, #0
 8006e4c:	ec51 0b17 	vmov	r0, r1, d7
 8006e50:	2300      	movs	r3, #0
 8006e52:	ed8d 7b0c 	vstr	d7, [sp, #48]	@ 0x30
 8006e56:	f7f9 fe57 	bl	8000b08 <__aeabi_dcmpeq>
 8006e5a:	4680      	mov	r8, r0
 8006e5c:	b158      	cbz	r0, 8006e76 <_dtoa_r+0xce>
 8006e5e:	9a13      	ldr	r2, [sp, #76]	@ 0x4c
 8006e60:	2301      	movs	r3, #1
 8006e62:	6013      	str	r3, [r2, #0]
 8006e64:	9b23      	ldr	r3, [sp, #140]	@ 0x8c
 8006e66:	b113      	cbz	r3, 8006e6e <_dtoa_r+0xc6>
 8006e68:	9a23      	ldr	r2, [sp, #140]	@ 0x8c
 8006e6a:	4b84      	ldr	r3, [pc, #528]	@ (800707c <_dtoa_r+0x2d4>)
 8006e6c:	6013      	str	r3, [r2, #0]
 8006e6e:	f8df a220 	ldr.w	sl, [pc, #544]	@ 8007090 <_dtoa_r+0x2e8>
 8006e72:	f000 bd33 	b.w	80078dc <_dtoa_r+0xb34>
 8006e76:	ed9d 0b0c 	vldr	d0, [sp, #48]	@ 0x30
 8006e7a:	aa16      	add	r2, sp, #88	@ 0x58
 8006e7c:	a917      	add	r1, sp, #92	@ 0x5c
 8006e7e:	4658      	mov	r0, fp
 8006e80:	f001 f8ca 	bl	8008018 <__d2b>
 8006e84:	f3c7 560a 	ubfx	r6, r7, #20, #11
 8006e88:	4681      	mov	r9, r0
 8006e8a:	2e00      	cmp	r6, #0
 8006e8c:	d077      	beq.n	8006f7e <_dtoa_r+0x1d6>
 8006e8e:	9b0d      	ldr	r3, [sp, #52]	@ 0x34
 8006e90:	f8cd 8050 	str.w	r8, [sp, #80]	@ 0x50
 8006e94:	f3c3 0313 	ubfx	r3, r3, #0, #20
 8006e98:	e9dd 010c 	ldrd	r0, r1, [sp, #48]	@ 0x30
 8006e9c:	f043 537f 	orr.w	r3, r3, #1069547520	@ 0x3fc00000
 8006ea0:	f443 1340 	orr.w	r3, r3, #3145728	@ 0x300000
 8006ea4:	f2a6 36ff 	subw	r6, r6, #1023	@ 0x3ff
 8006ea8:	4619      	mov	r1, r3
 8006eaa:	2200      	movs	r2, #0
 8006eac:	4b74      	ldr	r3, [pc, #464]	@ (8007080 <_dtoa_r+0x2d8>)
 8006eae:	f7f9 fa0b 	bl	80002c8 <__aeabi_dsub>
 8006eb2:	a369      	add	r3, pc, #420	@ (adr r3, 8007058 <_dtoa_r+0x2b0>)
 8006eb4:	e9d3 2300 	ldrd	r2, r3, [r3]
 8006eb8:	f7f9 fbbe 	bl	8000638 <__aeabi_dmul>
 8006ebc:	a368      	add	r3, pc, #416	@ (adr r3, 8007060 <_dtoa_r+0x2b8>)
 8006ebe:	e9d3 2300 	ldrd	r2, r3, [r3]
 8006ec2:	f7f9 fa03 	bl	80002cc <__adddf3>
 8006ec6:	4604      	mov	r4, r0
 8006ec8:	4630      	mov	r0, r6
 8006eca:	460d      	mov	r5, r1
 8006ecc:	f7f9 fb4a 	bl	8000564 <__aeabi_i2d>
 8006ed0:	a365      	add	r3, pc, #404	@ (adr r3, 8007068 <_dtoa_r+0x2c0>)
 8006ed2:	e9d3 2300 	ldrd	r2, r3, [r3]
 8006ed6:	f7f9 fbaf 	bl	8000638 <__aeabi_dmul>
 8006eda:	4602      	mov	r2, r0
 8006edc:	460b      	mov	r3, r1
 8006ede:	4620      	mov	r0, r4
 8006ee0:	4629      	mov	r1, r5
 8006ee2:	f7f9 f9f3 	bl	80002cc <__adddf3>
 8006ee6:	4604      	mov	r4, r0
 8006ee8:	460d      	mov	r5, r1
 8006eea:	f7f9 fe55 	bl	8000b98 <__aeabi_d2iz>
 8006eee:	2200      	movs	r2, #0
 8006ef0:	4607      	mov	r7, r0
 8006ef2:	2300      	movs	r3, #0
 8006ef4:	4620      	mov	r0, r4
 8006ef6:	4629      	mov	r1, r5
 8006ef8:	f7f9 fe10 	bl	8000b1c <__aeabi_dcmplt>
 8006efc:	b140      	cbz	r0, 8006f10 <_dtoa_r+0x168>
 8006efe:	4638      	mov	r0, r7
 8006f00:	f7f9 fb30 	bl	8000564 <__aeabi_i2d>
 8006f04:	4622      	mov	r2, r4
 8006f06:	462b      	mov	r3, r5
 8006f08:	f7f9 fdfe 	bl	8000b08 <__aeabi_dcmpeq>
 8006f0c:	b900      	cbnz	r0, 8006f10 <_dtoa_r+0x168>
 8006f0e:	3f01      	subs	r7, #1
 8006f10:	2f16      	cmp	r7, #22
 8006f12:	d851      	bhi.n	8006fb8 <_dtoa_r+0x210>
 8006f14:	4b5b      	ldr	r3, [pc, #364]	@ (8007084 <_dtoa_r+0x2dc>)
 8006f16:	eb03 03c7 	add.w	r3, r3, r7, lsl #3
 8006f1a:	e9d3 2300 	ldrd	r2, r3, [r3]
 8006f1e:	e9dd 010c 	ldrd	r0, r1, [sp, #48]	@ 0x30
 8006f22:	f7f9 fdfb 	bl	8000b1c <__aeabi_dcmplt>
 8006f26:	2800      	cmp	r0, #0
 8006f28:	d048      	beq.n	8006fbc <_dtoa_r+0x214>
 8006f2a:	3f01      	subs	r7, #1
 8006f2c:	2300      	movs	r3, #0
 8006f2e:	9312      	str	r3, [sp, #72]	@ 0x48
 8006f30:	9b16      	ldr	r3, [sp, #88]	@ 0x58
 8006f32:	1b9b      	subs	r3, r3, r6
 8006f34:	1e5a      	subs	r2, r3, #1
 8006f36:	bf44      	itt	mi
 8006f38:	f1c3 0801 	rsbmi	r8, r3, #1
 8006f3c:	2300      	movmi	r3, #0
 8006f3e:	9208      	str	r2, [sp, #32]
 8006f40:	bf54      	ite	pl
 8006f42:	f04f 0800 	movpl.w	r8, #0
 8006f46:	9308      	strmi	r3, [sp, #32]
 8006f48:	2f00      	cmp	r7, #0
 8006f4a:	db39      	blt.n	8006fc0 <_dtoa_r+0x218>
 8006f4c:	9b08      	ldr	r3, [sp, #32]
 8006f4e:	970f      	str	r7, [sp, #60]	@ 0x3c
 8006f50:	443b      	add	r3, r7
 8006f52:	9308      	str	r3, [sp, #32]
 8006f54:	2300      	movs	r3, #0
 8006f56:	930a      	str	r3, [sp, #40]	@ 0x28
 8006f58:	9b09      	ldr	r3, [sp, #36]	@ 0x24
 8006f5a:	2b09      	cmp	r3, #9
 8006f5c:	d864      	bhi.n	8007028 <_dtoa_r+0x280>
 8006f5e:	2b05      	cmp	r3, #5
 8006f60:	bfc4      	itt	gt
 8006f62:	3b04      	subgt	r3, #4
 8006f64:	9309      	strgt	r3, [sp, #36]	@ 0x24
 8006f66:	9b09      	ldr	r3, [sp, #36]	@ 0x24
 8006f68:	f1a3 0302 	sub.w	r3, r3, #2
 8006f6c:	bfcc      	ite	gt
 8006f6e:	2400      	movgt	r4, #0
 8006f70:	2401      	movle	r4, #1
 8006f72:	2b03      	cmp	r3, #3
 8006f74:	d863      	bhi.n	800703e <_dtoa_r+0x296>
 8006f76:	e8df f003 	tbb	[pc, r3]
 8006f7a:	372a      	.short	0x372a
 8006f7c:	5535      	.short	0x5535
 8006f7e:	e9dd 6316 	ldrd	r6, r3, [sp, #88]	@ 0x58
 8006f82:	441e      	add	r6, r3
 8006f84:	f206 4332 	addw	r3, r6, #1074	@ 0x432
 8006f88:	2b20      	cmp	r3, #32
 8006f8a:	bfc1      	itttt	gt
 8006f8c:	f1c3 0340 	rsbgt	r3, r3, #64	@ 0x40
 8006f90:	409f      	lslgt	r7, r3
 8006f92:	f206 4312 	addwgt	r3, r6, #1042	@ 0x412
 8006f96:	fa24 f303 	lsrgt.w	r3, r4, r3
 8006f9a:	bfd6      	itet	le
 8006f9c:	f1c3 0320 	rsble	r3, r3, #32
 8006fa0:	ea47 0003 	orrgt.w	r0, r7, r3
 8006fa4:	fa04 f003 	lslle.w	r0, r4, r3
 8006fa8:	f7f9 facc 	bl	8000544 <__aeabi_ui2d>
 8006fac:	2201      	movs	r2, #1
 8006fae:	f1a1 73f8 	sub.w	r3, r1, #32505856	@ 0x1f00000
 8006fb2:	3e01      	subs	r6, #1
 8006fb4:	9214      	str	r2, [sp, #80]	@ 0x50
 8006fb6:	e777      	b.n	8006ea8 <_dtoa_r+0x100>
 8006fb8:	2301      	movs	r3, #1
 8006fba:	e7b8      	b.n	8006f2e <_dtoa_r+0x186>
 8006fbc:	9012      	str	r0, [sp, #72]	@ 0x48
 8006fbe:	e7b7      	b.n	8006f30 <_dtoa_r+0x188>
 8006fc0:	427b      	negs	r3, r7
 8006fc2:	930a      	str	r3, [sp, #40]	@ 0x28
 8006fc4:	2300      	movs	r3, #0
 8006fc6:	eba8 0807 	sub.w	r8, r8, r7
 8006fca:	930f      	str	r3, [sp, #60]	@ 0x3c
 8006fcc:	e7c4      	b.n	8006f58 <_dtoa_r+0x1b0>
 8006fce:	2300      	movs	r3, #0
 8006fd0:	930b      	str	r3, [sp, #44]	@ 0x2c
 8006fd2:	9b0e      	ldr	r3, [sp, #56]	@ 0x38
 8006fd4:	2b00      	cmp	r3, #0
 8006fd6:	dc35      	bgt.n	8007044 <_dtoa_r+0x29c>
 8006fd8:	2301      	movs	r3, #1
 8006fda:	9300      	str	r3, [sp, #0]
 8006fdc:	9307      	str	r3, [sp, #28]
 8006fde:	461a      	mov	r2, r3
 8006fe0:	920e      	str	r2, [sp, #56]	@ 0x38
 8006fe2:	e00b      	b.n	8006ffc <_dtoa_r+0x254>
 8006fe4:	2301      	movs	r3, #1
 8006fe6:	e7f3      	b.n	8006fd0 <_dtoa_r+0x228>
 8006fe8:	2300      	movs	r3, #0
 8006fea:	930b      	str	r3, [sp, #44]	@ 0x2c
 8006fec:	9b0e      	ldr	r3, [sp, #56]	@ 0x38
 8006fee:	18fb      	adds	r3, r7, r3
 8006ff0:	9300      	str	r3, [sp, #0]
 8006ff2:	3301      	adds	r3, #1
 8006ff4:	2b01      	cmp	r3, #1
 8006ff6:	9307      	str	r3, [sp, #28]
 8006ff8:	bfb8      	it	lt
 8006ffa:	2301      	movlt	r3, #1
 8006ffc:	f8db 001c 	ldr.w	r0, [fp, #28]
 8007000:	2100      	movs	r1, #0
 8007002:	2204      	movs	r2, #4
 8007004:	f102 0514 	add.w	r5, r2, #20
 8007008:	429d      	cmp	r5, r3
 800700a:	d91f      	bls.n	800704c <_dtoa_r+0x2a4>
 800700c:	6041      	str	r1, [r0, #4]
 800700e:	4658      	mov	r0, fp
 8007010:	f000 fcd8 	bl	80079c4 <_Balloc>
 8007014:	4682      	mov	sl, r0
 8007016:	2800      	cmp	r0, #0
 8007018:	d13c      	bne.n	8007094 <_dtoa_r+0x2ec>
 800701a:	4b1b      	ldr	r3, [pc, #108]	@ (8007088 <_dtoa_r+0x2e0>)
 800701c:	4602      	mov	r2, r0
 800701e:	f240 11af 	movw	r1, #431	@ 0x1af
 8007022:	e6d8      	b.n	8006dd6 <_dtoa_r+0x2e>
 8007024:	2301      	movs	r3, #1
 8007026:	e7e0      	b.n	8006fea <_dtoa_r+0x242>
 8007028:	2401      	movs	r4, #1
 800702a:	2300      	movs	r3, #0
 800702c:	9309      	str	r3, [sp, #36]	@ 0x24
 800702e:	940b      	str	r4, [sp, #44]	@ 0x2c
 8007030:	f04f 33ff 	mov.w	r3, #4294967295
 8007034:	9300      	str	r3, [sp, #0]
 8007036:	9307      	str	r3, [sp, #28]
 8007038:	2200      	movs	r2, #0
 800703a:	2312      	movs	r3, #18
 800703c:	e7d0      	b.n	8006fe0 <_dtoa_r+0x238>
 800703e:	2301      	movs	r3, #1
 8007040:	930b      	str	r3, [sp, #44]	@ 0x2c
 8007042:	e7f5      	b.n	8007030 <_dtoa_r+0x288>
 8007044:	9b0e      	ldr	r3, [sp, #56]	@ 0x38
 8007046:	9300      	str	r3, [sp, #0]
 8007048:	9307      	str	r3, [sp, #28]
 800704a:	e7d7      	b.n	8006ffc <_dtoa_r+0x254>
 800704c:	3101      	adds	r1, #1
 800704e:	0052      	lsls	r2, r2, #1
 8007050:	e7d8      	b.n	8007004 <_dtoa_r+0x25c>
 8007052:	bf00      	nop
 8007054:	f3af 8000 	nop.w
 8007058:	636f4361 	.word	0x636f4361
 800705c:	3fd287a7 	.word	0x3fd287a7
 8007060:	8b60c8b3 	.word	0x8b60c8b3
 8007064:	3fc68a28 	.word	0x3fc68a28
 8007068:	509f79fb 	.word	0x509f79fb
 800706c:	3fd34413 	.word	0x3fd34413
 8007070:	0800908d 	.word	0x0800908d
 8007074:	080090a4 	.word	0x080090a4
 8007078:	7ff00000 	.word	0x7ff00000
 800707c:	0800905d 	.word	0x0800905d
 8007080:	3ff80000 	.word	0x3ff80000
 8007084:	080091a0 	.word	0x080091a0
 8007088:	080090fc 	.word	0x080090fc
 800708c:	08009089 	.word	0x08009089
 8007090:	0800905c 	.word	0x0800905c
 8007094:	f8db 301c 	ldr.w	r3, [fp, #28]
 8007098:	6018      	str	r0, [r3, #0]
 800709a:	9b07      	ldr	r3, [sp, #28]
 800709c:	2b0e      	cmp	r3, #14
 800709e:	f200 80a4 	bhi.w	80071ea <_dtoa_r+0x442>
 80070a2:	2c00      	cmp	r4, #0
 80070a4:	f000 80a1 	beq.w	80071ea <_dtoa_r+0x442>
 80070a8:	2f00      	cmp	r7, #0
 80070aa:	dd33      	ble.n	8007114 <_dtoa_r+0x36c>
 80070ac:	4bad      	ldr	r3, [pc, #692]	@ (8007364 <_dtoa_r+0x5bc>)
 80070ae:	f007 020f 	and.w	r2, r7, #15
 80070b2:	eb03 03c2 	add.w	r3, r3, r2, lsl #3
 80070b6:	ed93 7b00 	vldr	d7, [r3]
 80070ba:	05f8      	lsls	r0, r7, #23
 80070bc:	ed8d 7b04 	vstr	d7, [sp, #16]
 80070c0:	ea4f 1427 	mov.w	r4, r7, asr #4
 80070c4:	d516      	bpl.n	80070f4 <_dtoa_r+0x34c>
 80070c6:	4ba8      	ldr	r3, [pc, #672]	@ (8007368 <_dtoa_r+0x5c0>)
 80070c8:	e9dd 010c 	ldrd	r0, r1, [sp, #48]	@ 0x30
 80070cc:	e9d3 2308 	ldrd	r2, r3, [r3, #32]
 80070d0:	f7f9 fbdc 	bl	800088c <__aeabi_ddiv>
 80070d4:	e9cd 0102 	strd	r0, r1, [sp, #8]
 80070d8:	f004 040f 	and.w	r4, r4, #15
 80070dc:	2603      	movs	r6, #3
 80070de:	4da2      	ldr	r5, [pc, #648]	@ (8007368 <_dtoa_r+0x5c0>)
 80070e0:	b954      	cbnz	r4, 80070f8 <_dtoa_r+0x350>
 80070e2:	e9dd 2304 	ldrd	r2, r3, [sp, #16]
 80070e6:	e9dd 0102 	ldrd	r0, r1, [sp, #8]
 80070ea:	f7f9 fbcf 	bl	800088c <__aeabi_ddiv>
 80070ee:	e9cd 0102 	strd	r0, r1, [sp, #8]
 80070f2:	e028      	b.n	8007146 <_dtoa_r+0x39e>
 80070f4:	2602      	movs	r6, #2
 80070f6:	e7f2      	b.n	80070de <_dtoa_r+0x336>
 80070f8:	07e1      	lsls	r1, r4, #31
 80070fa:	d508      	bpl.n	800710e <_dtoa_r+0x366>
 80070fc:	e9dd 0104 	ldrd	r0, r1, [sp, #16]
 8007100:	e9d5 2300 	ldrd	r2, r3, [r5]
 8007104:	f7f9 fa98 	bl	8000638 <__aeabi_dmul>
 8007108:	e9cd 0104 	strd	r0, r1, [sp, #16]
 800710c:	3601      	adds	r6, #1
 800710e:	1064      	asrs	r4, r4, #1
 8007110:	3508      	adds	r5, #8
 8007112:	e7e5      	b.n	80070e0 <_dtoa_r+0x338>
 8007114:	f000 80d2 	beq.w	80072bc <_dtoa_r+0x514>
 8007118:	427c      	negs	r4, r7
 800711a:	4b92      	ldr	r3, [pc, #584]	@ (8007364 <_dtoa_r+0x5bc>)
 800711c:	4d92      	ldr	r5, [pc, #584]	@ (8007368 <_dtoa_r+0x5c0>)
 800711e:	f004 020f 	and.w	r2, r4, #15
 8007122:	eb03 03c2 	add.w	r3, r3, r2, lsl #3
 8007126:	e9d3 2300 	ldrd	r2, r3, [r3]
 800712a:	e9dd 010c 	ldrd	r0, r1, [sp, #48]	@ 0x30
 800712e:	f7f9 fa83 	bl	8000638 <__aeabi_dmul>
 8007132:	e9cd 0102 	strd	r0, r1, [sp, #8]
 8007136:	1124      	asrs	r4, r4, #4
 8007138:	2300      	movs	r3, #0
 800713a:	2602      	movs	r6, #2
 800713c:	2c00      	cmp	r4, #0
 800713e:	f040 80b2 	bne.w	80072a6 <_dtoa_r+0x4fe>
 8007142:	2b00      	cmp	r3, #0
 8007144:	d1d3      	bne.n	80070ee <_dtoa_r+0x346>
 8007146:	9b12      	ldr	r3, [sp, #72]	@ 0x48
 8007148:	e9dd 4502 	ldrd	r4, r5, [sp, #8]
 800714c:	2b00      	cmp	r3, #0
 800714e:	f000 80b7 	beq.w	80072c0 <_dtoa_r+0x518>
 8007152:	4b86      	ldr	r3, [pc, #536]	@ (800736c <_dtoa_r+0x5c4>)
 8007154:	2200      	movs	r2, #0
 8007156:	4620      	mov	r0, r4
 8007158:	4629      	mov	r1, r5
 800715a:	f7f9 fcdf 	bl	8000b1c <__aeabi_dcmplt>
 800715e:	2800      	cmp	r0, #0
 8007160:	f000 80ae 	beq.w	80072c0 <_dtoa_r+0x518>
 8007164:	9b07      	ldr	r3, [sp, #28]
 8007166:	2b00      	cmp	r3, #0
 8007168:	f000 80aa 	beq.w	80072c0 <_dtoa_r+0x518>
 800716c:	9b00      	ldr	r3, [sp, #0]
 800716e:	2b00      	cmp	r3, #0
 8007170:	dd37      	ble.n	80071e2 <_dtoa_r+0x43a>
 8007172:	1e7b      	subs	r3, r7, #1
 8007174:	9304      	str	r3, [sp, #16]
 8007176:	4620      	mov	r0, r4
 8007178:	4b7d      	ldr	r3, [pc, #500]	@ (8007370 <_dtoa_r+0x5c8>)
 800717a:	2200      	movs	r2, #0
 800717c:	4629      	mov	r1, r5
 800717e:	f7f9 fa5b 	bl	8000638 <__aeabi_dmul>
 8007182:	e9cd 0102 	strd	r0, r1, [sp, #8]
 8007186:	9c00      	ldr	r4, [sp, #0]
 8007188:	3601      	adds	r6, #1
 800718a:	4630      	mov	r0, r6
 800718c:	f7f9 f9ea 	bl	8000564 <__aeabi_i2d>
 8007190:	e9dd 2302 	ldrd	r2, r3, [sp, #8]
 8007194:	f7f9 fa50 	bl	8000638 <__aeabi_dmul>
 8007198:	4b76      	ldr	r3, [pc, #472]	@ (8007374 <_dtoa_r+0x5cc>)
 800719a:	2200      	movs	r2, #0
 800719c:	f7f9 f896 	bl	80002cc <__adddf3>
 80071a0:	4605      	mov	r5, r0
 80071a2:	f1a1 7650 	sub.w	r6, r1, #54525952	@ 0x3400000
 80071a6:	2c00      	cmp	r4, #0
 80071a8:	f040 808d 	bne.w	80072c6 <_dtoa_r+0x51e>
 80071ac:	e9dd 0102 	ldrd	r0, r1, [sp, #8]
 80071b0:	4b71      	ldr	r3, [pc, #452]	@ (8007378 <_dtoa_r+0x5d0>)
 80071b2:	2200      	movs	r2, #0
 80071b4:	f7f9 f888 	bl	80002c8 <__aeabi_dsub>
 80071b8:	4602      	mov	r2, r0
 80071ba:	460b      	mov	r3, r1
 80071bc:	e9cd 2302 	strd	r2, r3, [sp, #8]
 80071c0:	462a      	mov	r2, r5
 80071c2:	4633      	mov	r3, r6
 80071c4:	f7f9 fcc8 	bl	8000b58 <__aeabi_dcmpgt>
 80071c8:	2800      	cmp	r0, #0
 80071ca:	f040 828b 	bne.w	80076e4 <_dtoa_r+0x93c>
 80071ce:	e9dd 0102 	ldrd	r0, r1, [sp, #8]
 80071d2:	462a      	mov	r2, r5
 80071d4:	f106 4300 	add.w	r3, r6, #2147483648	@ 0x80000000
 80071d8:	f7f9 fca0 	bl	8000b1c <__aeabi_dcmplt>
 80071dc:	2800      	cmp	r0, #0
 80071de:	f040 8128 	bne.w	8007432 <_dtoa_r+0x68a>
 80071e2:	e9dd 340c 	ldrd	r3, r4, [sp, #48]	@ 0x30
 80071e6:	e9cd 3402 	strd	r3, r4, [sp, #8]
 80071ea:	9b17      	ldr	r3, [sp, #92]	@ 0x5c
 80071ec:	2b00      	cmp	r3, #0
 80071ee:	f2c0 815a 	blt.w	80074a6 <_dtoa_r+0x6fe>
 80071f2:	2f0e      	cmp	r7, #14
 80071f4:	f300 8157 	bgt.w	80074a6 <_dtoa_r+0x6fe>
 80071f8:	4b5a      	ldr	r3, [pc, #360]	@ (8007364 <_dtoa_r+0x5bc>)
 80071fa:	eb03 03c7 	add.w	r3, r3, r7, lsl #3
 80071fe:	ed93 7b00 	vldr	d7, [r3]
 8007202:	9b0e      	ldr	r3, [sp, #56]	@ 0x38
 8007204:	2b00      	cmp	r3, #0
 8007206:	ed8d 7b00 	vstr	d7, [sp]
 800720a:	da03      	bge.n	8007214 <_dtoa_r+0x46c>
 800720c:	9b07      	ldr	r3, [sp, #28]
 800720e:	2b00      	cmp	r3, #0
 8007210:	f340 8101 	ble.w	8007416 <_dtoa_r+0x66e>
 8007214:	e9dd 4502 	ldrd	r4, r5, [sp, #8]
 8007218:	4656      	mov	r6, sl
 800721a:	e9dd 2300 	ldrd	r2, r3, [sp]
 800721e:	4620      	mov	r0, r4
 8007220:	4629      	mov	r1, r5
 8007222:	f7f9 fb33 	bl	800088c <__aeabi_ddiv>
 8007226:	f7f9 fcb7 	bl	8000b98 <__aeabi_d2iz>
 800722a:	4680      	mov	r8, r0
 800722c:	f7f9 f99a 	bl	8000564 <__aeabi_i2d>
 8007230:	e9dd 2300 	ldrd	r2, r3, [sp]
 8007234:	f7f9 fa00 	bl	8000638 <__aeabi_dmul>
 8007238:	4602      	mov	r2, r0
 800723a:	460b      	mov	r3, r1
 800723c:	4620      	mov	r0, r4
 800723e:	4629      	mov	r1, r5
 8007240:	f108 0430 	add.w	r4, r8, #48	@ 0x30
 8007244:	f7f9 f840 	bl	80002c8 <__aeabi_dsub>
 8007248:	f806 4b01 	strb.w	r4, [r6], #1
 800724c:	9d07      	ldr	r5, [sp, #28]
 800724e:	eba6 040a 	sub.w	r4, r6, sl
 8007252:	42a5      	cmp	r5, r4
 8007254:	4602      	mov	r2, r0
 8007256:	460b      	mov	r3, r1
 8007258:	f040 8117 	bne.w	800748a <_dtoa_r+0x6e2>
 800725c:	f7f9 f836 	bl	80002cc <__adddf3>
 8007260:	e9dd 2300 	ldrd	r2, r3, [sp]
 8007264:	4604      	mov	r4, r0
 8007266:	460d      	mov	r5, r1
 8007268:	f7f9 fc76 	bl	8000b58 <__aeabi_dcmpgt>
 800726c:	2800      	cmp	r0, #0
 800726e:	f040 80f9 	bne.w	8007464 <_dtoa_r+0x6bc>
 8007272:	e9dd 2300 	ldrd	r2, r3, [sp]
 8007276:	4620      	mov	r0, r4
 8007278:	4629      	mov	r1, r5
 800727a:	f7f9 fc45 	bl	8000b08 <__aeabi_dcmpeq>
 800727e:	b118      	cbz	r0, 8007288 <_dtoa_r+0x4e0>
 8007280:	f018 0f01 	tst.w	r8, #1
 8007284:	f040 80ee 	bne.w	8007464 <_dtoa_r+0x6bc>
 8007288:	4649      	mov	r1, r9
 800728a:	4658      	mov	r0, fp
 800728c:	f000 fbda 	bl	8007a44 <_Bfree>
 8007290:	2300      	movs	r3, #0
 8007292:	7033      	strb	r3, [r6, #0]
 8007294:	9b13      	ldr	r3, [sp, #76]	@ 0x4c
 8007296:	3701      	adds	r7, #1
 8007298:	601f      	str	r7, [r3, #0]
 800729a:	9b23      	ldr	r3, [sp, #140]	@ 0x8c
 800729c:	2b00      	cmp	r3, #0
 800729e:	f000 831d 	beq.w	80078dc <_dtoa_r+0xb34>
 80072a2:	601e      	str	r6, [r3, #0]
 80072a4:	e31a      	b.n	80078dc <_dtoa_r+0xb34>
 80072a6:	07e2      	lsls	r2, r4, #31
 80072a8:	d505      	bpl.n	80072b6 <_dtoa_r+0x50e>
 80072aa:	e9d5 2300 	ldrd	r2, r3, [r5]
 80072ae:	f7f9 f9c3 	bl	8000638 <__aeabi_dmul>
 80072b2:	3601      	adds	r6, #1
 80072b4:	2301      	movs	r3, #1
 80072b6:	1064      	asrs	r4, r4, #1
 80072b8:	3508      	adds	r5, #8
 80072ba:	e73f      	b.n	800713c <_dtoa_r+0x394>
 80072bc:	2602      	movs	r6, #2
 80072be:	e742      	b.n	8007146 <_dtoa_r+0x39e>
 80072c0:	9c07      	ldr	r4, [sp, #28]
 80072c2:	9704      	str	r7, [sp, #16]
 80072c4:	e761      	b.n	800718a <_dtoa_r+0x3e2>
 80072c6:	4b27      	ldr	r3, [pc, #156]	@ (8007364 <_dtoa_r+0x5bc>)
 80072c8:	990b      	ldr	r1, [sp, #44]	@ 0x2c
 80072ca:	eb03 03c4 	add.w	r3, r3, r4, lsl #3
 80072ce:	e953 2302 	ldrd	r2, r3, [r3, #-8]
 80072d2:	4454      	add	r4, sl
 80072d4:	2900      	cmp	r1, #0
 80072d6:	d053      	beq.n	8007380 <_dtoa_r+0x5d8>
 80072d8:	4928      	ldr	r1, [pc, #160]	@ (800737c <_dtoa_r+0x5d4>)
 80072da:	2000      	movs	r0, #0
 80072dc:	f7f9 fad6 	bl	800088c <__aeabi_ddiv>
 80072e0:	4633      	mov	r3, r6
 80072e2:	462a      	mov	r2, r5
 80072e4:	f7f8 fff0 	bl	80002c8 <__aeabi_dsub>
 80072e8:	e9cd 0110 	strd	r0, r1, [sp, #64]	@ 0x40
 80072ec:	4656      	mov	r6, sl
 80072ee:	e9dd 0102 	ldrd	r0, r1, [sp, #8]
 80072f2:	f7f9 fc51 	bl	8000b98 <__aeabi_d2iz>
 80072f6:	4605      	mov	r5, r0
 80072f8:	f7f9 f934 	bl	8000564 <__aeabi_i2d>
 80072fc:	4602      	mov	r2, r0
 80072fe:	460b      	mov	r3, r1
 8007300:	e9dd 0102 	ldrd	r0, r1, [sp, #8]
 8007304:	f7f8 ffe0 	bl	80002c8 <__aeabi_dsub>
 8007308:	3530      	adds	r5, #48	@ 0x30
 800730a:	4602      	mov	r2, r0
 800730c:	460b      	mov	r3, r1
 800730e:	e9cd 2302 	strd	r2, r3, [sp, #8]
 8007312:	f806 5b01 	strb.w	r5, [r6], #1
 8007316:	e9dd 2310 	ldrd	r2, r3, [sp, #64]	@ 0x40
 800731a:	f7f9 fbff 	bl	8000b1c <__aeabi_dcmplt>
 800731e:	2800      	cmp	r0, #0
 8007320:	d171      	bne.n	8007406 <_dtoa_r+0x65e>
 8007322:	e9dd 2302 	ldrd	r2, r3, [sp, #8]
 8007326:	4911      	ldr	r1, [pc, #68]	@ (800736c <_dtoa_r+0x5c4>)
 8007328:	2000      	movs	r0, #0
 800732a:	f7f8 ffcd 	bl	80002c8 <__aeabi_dsub>
 800732e:	e9dd 2310 	ldrd	r2, r3, [sp, #64]	@ 0x40
 8007332:	f7f9 fbf3 	bl	8000b1c <__aeabi_dcmplt>
 8007336:	2800      	cmp	r0, #0
 8007338:	f040 8095 	bne.w	8007466 <_dtoa_r+0x6be>
 800733c:	42a6      	cmp	r6, r4
 800733e:	f43f af50 	beq.w	80071e2 <_dtoa_r+0x43a>
 8007342:	e9dd 0110 	ldrd	r0, r1, [sp, #64]	@ 0x40
 8007346:	4b0a      	ldr	r3, [pc, #40]	@ (8007370 <_dtoa_r+0x5c8>)
 8007348:	2200      	movs	r2, #0
 800734a:	f7f9 f975 	bl	8000638 <__aeabi_dmul>
 800734e:	4b08      	ldr	r3, [pc, #32]	@ (8007370 <_dtoa_r+0x5c8>)
 8007350:	e9cd 0110 	strd	r0, r1, [sp, #64]	@ 0x40
 8007354:	2200      	movs	r2, #0
 8007356:	e9dd 0102 	ldrd	r0, r1, [sp, #8]
 800735a:	f7f9 f96d 	bl	8000638 <__aeabi_dmul>
 800735e:	e9cd 0102 	strd	r0, r1, [sp, #8]
 8007362:	e7c4      	b.n	80072ee <_dtoa_r+0x546>
 8007364:	080091a0 	.word	0x080091a0
 8007368:	08009178 	.word	0x08009178
 800736c:	3ff00000 	.word	0x3ff00000
 8007370:	40240000 	.word	0x40240000
 8007374:	401c0000 	.word	0x401c0000
 8007378:	40140000 	.word	0x40140000
 800737c:	3fe00000 	.word	0x3fe00000
 8007380:	4631      	mov	r1, r6
 8007382:	4628      	mov	r0, r5
 8007384:	f7f9 f958 	bl	8000638 <__aeabi_dmul>
 8007388:	e9cd 0110 	strd	r0, r1, [sp, #64]	@ 0x40
 800738c:	9415      	str	r4, [sp, #84]	@ 0x54
 800738e:	4656      	mov	r6, sl
 8007390:	e9dd 0102 	ldrd	r0, r1, [sp, #8]
 8007394:	f7f9 fc00 	bl	8000b98 <__aeabi_d2iz>
 8007398:	4605      	mov	r5, r0
 800739a:	f7f9 f8e3 	bl	8000564 <__aeabi_i2d>
 800739e:	4602      	mov	r2, r0
 80073a0:	460b      	mov	r3, r1
 80073a2:	e9dd 0102 	ldrd	r0, r1, [sp, #8]
 80073a6:	f7f8 ff8f 	bl	80002c8 <__aeabi_dsub>
 80073aa:	3530      	adds	r5, #48	@ 0x30
 80073ac:	f806 5b01 	strb.w	r5, [r6], #1
 80073b0:	4602      	mov	r2, r0
 80073b2:	460b      	mov	r3, r1
 80073b4:	42a6      	cmp	r6, r4
 80073b6:	e9cd 2302 	strd	r2, r3, [sp, #8]
 80073ba:	f04f 0200 	mov.w	r2, #0
 80073be:	d124      	bne.n	800740a <_dtoa_r+0x662>
 80073c0:	4bac      	ldr	r3, [pc, #688]	@ (8007674 <_dtoa_r+0x8cc>)
 80073c2:	e9dd 0110 	ldrd	r0, r1, [sp, #64]	@ 0x40
 80073c6:	f7f8 ff81 	bl	80002cc <__adddf3>
 80073ca:	4602      	mov	r2, r0
 80073cc:	460b      	mov	r3, r1
 80073ce:	e9dd 0102 	ldrd	r0, r1, [sp, #8]
 80073d2:	f7f9 fbc1 	bl	8000b58 <__aeabi_dcmpgt>
 80073d6:	2800      	cmp	r0, #0
 80073d8:	d145      	bne.n	8007466 <_dtoa_r+0x6be>
 80073da:	e9dd 2310 	ldrd	r2, r3, [sp, #64]	@ 0x40
 80073de:	49a5      	ldr	r1, [pc, #660]	@ (8007674 <_dtoa_r+0x8cc>)
 80073e0:	2000      	movs	r0, #0
 80073e2:	f7f8 ff71 	bl	80002c8 <__aeabi_dsub>
 80073e6:	4602      	mov	r2, r0
 80073e8:	460b      	mov	r3, r1
 80073ea:	e9dd 0102 	ldrd	r0, r1, [sp, #8]
 80073ee:	f7f9 fb95 	bl	8000b1c <__aeabi_dcmplt>
 80073f2:	2800      	cmp	r0, #0
 80073f4:	f43f aef5 	beq.w	80071e2 <_dtoa_r+0x43a>
 80073f8:	9e15      	ldr	r6, [sp, #84]	@ 0x54
 80073fa:	1e73      	subs	r3, r6, #1
 80073fc:	9315      	str	r3, [sp, #84]	@ 0x54
 80073fe:	f816 3c01 	ldrb.w	r3, [r6, #-1]
 8007402:	2b30      	cmp	r3, #48	@ 0x30
 8007404:	d0f8      	beq.n	80073f8 <_dtoa_r+0x650>
 8007406:	9f04      	ldr	r7, [sp, #16]
 8007408:	e73e      	b.n	8007288 <_dtoa_r+0x4e0>
 800740a:	4b9b      	ldr	r3, [pc, #620]	@ (8007678 <_dtoa_r+0x8d0>)
 800740c:	f7f9 f914 	bl	8000638 <__aeabi_dmul>
 8007410:	e9cd 0102 	strd	r0, r1, [sp, #8]
 8007414:	e7bc      	b.n	8007390 <_dtoa_r+0x5e8>
 8007416:	d10c      	bne.n	8007432 <_dtoa_r+0x68a>
 8007418:	4b98      	ldr	r3, [pc, #608]	@ (800767c <_dtoa_r+0x8d4>)
 800741a:	2200      	movs	r2, #0
 800741c:	e9dd 0100 	ldrd	r0, r1, [sp]
 8007420:	f7f9 f90a 	bl	8000638 <__aeabi_dmul>
 8007424:	e9dd 2302 	ldrd	r2, r3, [sp, #8]
 8007428:	f7f9 fb8c 	bl	8000b44 <__aeabi_dcmpge>
 800742c:	2800      	cmp	r0, #0
 800742e:	f000 8157 	beq.w	80076e0 <_dtoa_r+0x938>
 8007432:	2400      	movs	r4, #0
 8007434:	4625      	mov	r5, r4
 8007436:	9b0e      	ldr	r3, [sp, #56]	@ 0x38
 8007438:	43db      	mvns	r3, r3
 800743a:	9304      	str	r3, [sp, #16]
 800743c:	4656      	mov	r6, sl
 800743e:	2700      	movs	r7, #0
 8007440:	4621      	mov	r1, r4
 8007442:	4658      	mov	r0, fp
 8007444:	f000 fafe 	bl	8007a44 <_Bfree>
 8007448:	2d00      	cmp	r5, #0
 800744a:	d0dc      	beq.n	8007406 <_dtoa_r+0x65e>
 800744c:	b12f      	cbz	r7, 800745a <_dtoa_r+0x6b2>
 800744e:	42af      	cmp	r7, r5
 8007450:	d003      	beq.n	800745a <_dtoa_r+0x6b2>
 8007452:	4639      	mov	r1, r7
 8007454:	4658      	mov	r0, fp
 8007456:	f000 faf5 	bl	8007a44 <_Bfree>
 800745a:	4629      	mov	r1, r5
 800745c:	4658      	mov	r0, fp
 800745e:	f000 faf1 	bl	8007a44 <_Bfree>
 8007462:	e7d0      	b.n	8007406 <_dtoa_r+0x65e>
 8007464:	9704      	str	r7, [sp, #16]
 8007466:	4633      	mov	r3, r6
 8007468:	461e      	mov	r6, r3
 800746a:	f813 2d01 	ldrb.w	r2, [r3, #-1]!
 800746e:	2a39      	cmp	r2, #57	@ 0x39
 8007470:	d107      	bne.n	8007482 <_dtoa_r+0x6da>
 8007472:	459a      	cmp	sl, r3
 8007474:	d1f8      	bne.n	8007468 <_dtoa_r+0x6c0>
 8007476:	9a04      	ldr	r2, [sp, #16]
 8007478:	3201      	adds	r2, #1
 800747a:	9204      	str	r2, [sp, #16]
 800747c:	2230      	movs	r2, #48	@ 0x30
 800747e:	f88a 2000 	strb.w	r2, [sl]
 8007482:	781a      	ldrb	r2, [r3, #0]
 8007484:	3201      	adds	r2, #1
 8007486:	701a      	strb	r2, [r3, #0]
 8007488:	e7bd      	b.n	8007406 <_dtoa_r+0x65e>
 800748a:	4b7b      	ldr	r3, [pc, #492]	@ (8007678 <_dtoa_r+0x8d0>)
 800748c:	2200      	movs	r2, #0
 800748e:	f7f9 f8d3 	bl	8000638 <__aeabi_dmul>
 8007492:	2200      	movs	r2, #0
 8007494:	2300      	movs	r3, #0
 8007496:	4604      	mov	r4, r0
 8007498:	460d      	mov	r5, r1
 800749a:	f7f9 fb35 	bl	8000b08 <__aeabi_dcmpeq>
 800749e:	2800      	cmp	r0, #0
 80074a0:	f43f aebb 	beq.w	800721a <_dtoa_r+0x472>
 80074a4:	e6f0      	b.n	8007288 <_dtoa_r+0x4e0>
 80074a6:	9a0b      	ldr	r2, [sp, #44]	@ 0x2c
 80074a8:	2a00      	cmp	r2, #0
 80074aa:	f000 80db 	beq.w	8007664 <_dtoa_r+0x8bc>
 80074ae:	9a09      	ldr	r2, [sp, #36]	@ 0x24
 80074b0:	2a01      	cmp	r2, #1
 80074b2:	f300 80bf 	bgt.w	8007634 <_dtoa_r+0x88c>
 80074b6:	9a14      	ldr	r2, [sp, #80]	@ 0x50
 80074b8:	2a00      	cmp	r2, #0
 80074ba:	f000 80b7 	beq.w	800762c <_dtoa_r+0x884>
 80074be:	f203 4333 	addw	r3, r3, #1075	@ 0x433
 80074c2:	9c0a      	ldr	r4, [sp, #40]	@ 0x28
 80074c4:	4646      	mov	r6, r8
 80074c6:	9a08      	ldr	r2, [sp, #32]
 80074c8:	2101      	movs	r1, #1
 80074ca:	441a      	add	r2, r3
 80074cc:	4658      	mov	r0, fp
 80074ce:	4498      	add	r8, r3
 80074d0:	9208      	str	r2, [sp, #32]
 80074d2:	f000 fb6b 	bl	8007bac <__i2b>
 80074d6:	4605      	mov	r5, r0
 80074d8:	b15e      	cbz	r6, 80074f2 <_dtoa_r+0x74a>
 80074da:	9b08      	ldr	r3, [sp, #32]
 80074dc:	2b00      	cmp	r3, #0
 80074de:	dd08      	ble.n	80074f2 <_dtoa_r+0x74a>
 80074e0:	42b3      	cmp	r3, r6
 80074e2:	9a08      	ldr	r2, [sp, #32]
 80074e4:	bfa8      	it	ge
 80074e6:	4633      	movge	r3, r6
 80074e8:	eba8 0803 	sub.w	r8, r8, r3
 80074ec:	1af6      	subs	r6, r6, r3
 80074ee:	1ad3      	subs	r3, r2, r3
 80074f0:	9308      	str	r3, [sp, #32]
 80074f2:	9b0a      	ldr	r3, [sp, #40]	@ 0x28
 80074f4:	b1f3      	cbz	r3, 8007534 <_dtoa_r+0x78c>
 80074f6:	9b0b      	ldr	r3, [sp, #44]	@ 0x2c
 80074f8:	2b00      	cmp	r3, #0
 80074fa:	f000 80b7 	beq.w	800766c <_dtoa_r+0x8c4>
 80074fe:	b18c      	cbz	r4, 8007524 <_dtoa_r+0x77c>
 8007500:	4629      	mov	r1, r5
 8007502:	4622      	mov	r2, r4
 8007504:	4658      	mov	r0, fp
 8007506:	f000 fc11 	bl	8007d2c <__pow5mult>
 800750a:	464a      	mov	r2, r9
 800750c:	4601      	mov	r1, r0
 800750e:	4605      	mov	r5, r0
 8007510:	4658      	mov	r0, fp
 8007512:	f000 fb61 	bl	8007bd8 <__multiply>
 8007516:	4649      	mov	r1, r9
 8007518:	9004      	str	r0, [sp, #16]
 800751a:	4658      	mov	r0, fp
 800751c:	f000 fa92 	bl	8007a44 <_Bfree>
 8007520:	9b04      	ldr	r3, [sp, #16]
 8007522:	4699      	mov	r9, r3
 8007524:	9b0a      	ldr	r3, [sp, #40]	@ 0x28
 8007526:	1b1a      	subs	r2, r3, r4
 8007528:	d004      	beq.n	8007534 <_dtoa_r+0x78c>
 800752a:	4649      	mov	r1, r9
 800752c:	4658      	mov	r0, fp
 800752e:	f000 fbfd 	bl	8007d2c <__pow5mult>
 8007532:	4681      	mov	r9, r0
 8007534:	2101      	movs	r1, #1
 8007536:	4658      	mov	r0, fp
 8007538:	f000 fb38 	bl	8007bac <__i2b>
 800753c:	9b0f      	ldr	r3, [sp, #60]	@ 0x3c
 800753e:	4604      	mov	r4, r0
 8007540:	2b00      	cmp	r3, #0
 8007542:	f000 81cf 	beq.w	80078e4 <_dtoa_r+0xb3c>
 8007546:	461a      	mov	r2, r3
 8007548:	4601      	mov	r1, r0
 800754a:	4658      	mov	r0, fp
 800754c:	f000 fbee 	bl	8007d2c <__pow5mult>
 8007550:	9b09      	ldr	r3, [sp, #36]	@ 0x24
 8007552:	2b01      	cmp	r3, #1
 8007554:	4604      	mov	r4, r0
 8007556:	f300 8095 	bgt.w	8007684 <_dtoa_r+0x8dc>
 800755a:	9b02      	ldr	r3, [sp, #8]
 800755c:	2b00      	cmp	r3, #0
 800755e:	f040 8087 	bne.w	8007670 <_dtoa_r+0x8c8>
 8007562:	9b03      	ldr	r3, [sp, #12]
 8007564:	f3c3 0313 	ubfx	r3, r3, #0, #20
 8007568:	2b00      	cmp	r3, #0
 800756a:	f040 8089 	bne.w	8007680 <_dtoa_r+0x8d8>
 800756e:	9b03      	ldr	r3, [sp, #12]
 8007570:	f023 4300 	bic.w	r3, r3, #2147483648	@ 0x80000000
 8007574:	0d1b      	lsrs	r3, r3, #20
 8007576:	051b      	lsls	r3, r3, #20
 8007578:	b12b      	cbz	r3, 8007586 <_dtoa_r+0x7de>
 800757a:	9b08      	ldr	r3, [sp, #32]
 800757c:	3301      	adds	r3, #1
 800757e:	9308      	str	r3, [sp, #32]
 8007580:	f108 0801 	add.w	r8, r8, #1
 8007584:	2301      	movs	r3, #1
 8007586:	930a      	str	r3, [sp, #40]	@ 0x28
 8007588:	9b0f      	ldr	r3, [sp, #60]	@ 0x3c
 800758a:	2b00      	cmp	r3, #0
 800758c:	f000 81b0 	beq.w	80078f0 <_dtoa_r+0xb48>
 8007590:	6923      	ldr	r3, [r4, #16]
 8007592:	eb04 0383 	add.w	r3, r4, r3, lsl #2
 8007596:	6918      	ldr	r0, [r3, #16]
 8007598:	f000 fabc 	bl	8007b14 <__hi0bits>
 800759c:	f1c0 0020 	rsb	r0, r0, #32
 80075a0:	9b08      	ldr	r3, [sp, #32]
 80075a2:	4418      	add	r0, r3
 80075a4:	f010 001f 	ands.w	r0, r0, #31
 80075a8:	d077      	beq.n	800769a <_dtoa_r+0x8f2>
 80075aa:	f1c0 0320 	rsb	r3, r0, #32
 80075ae:	2b04      	cmp	r3, #4
 80075b0:	dd6b      	ble.n	800768a <_dtoa_r+0x8e2>
 80075b2:	9b08      	ldr	r3, [sp, #32]
 80075b4:	f1c0 001c 	rsb	r0, r0, #28
 80075b8:	4403      	add	r3, r0
 80075ba:	4480      	add	r8, r0
 80075bc:	4406      	add	r6, r0
 80075be:	9308      	str	r3, [sp, #32]
 80075c0:	f1b8 0f00 	cmp.w	r8, #0
 80075c4:	dd05      	ble.n	80075d2 <_dtoa_r+0x82a>
 80075c6:	4649      	mov	r1, r9
 80075c8:	4642      	mov	r2, r8
 80075ca:	4658      	mov	r0, fp
 80075cc:	f000 fc08 	bl	8007de0 <__lshift>
 80075d0:	4681      	mov	r9, r0
 80075d2:	9b08      	ldr	r3, [sp, #32]
 80075d4:	2b00      	cmp	r3, #0
 80075d6:	dd05      	ble.n	80075e4 <_dtoa_r+0x83c>
 80075d8:	4621      	mov	r1, r4
 80075da:	461a      	mov	r2, r3
 80075dc:	4658      	mov	r0, fp
 80075de:	f000 fbff 	bl	8007de0 <__lshift>
 80075e2:	4604      	mov	r4, r0
 80075e4:	9b12      	ldr	r3, [sp, #72]	@ 0x48
 80075e6:	2b00      	cmp	r3, #0
 80075e8:	d059      	beq.n	800769e <_dtoa_r+0x8f6>
 80075ea:	4621      	mov	r1, r4
 80075ec:	4648      	mov	r0, r9
 80075ee:	f000 fc63 	bl	8007eb8 <__mcmp>
 80075f2:	2800      	cmp	r0, #0
 80075f4:	da53      	bge.n	800769e <_dtoa_r+0x8f6>
 80075f6:	1e7b      	subs	r3, r7, #1
 80075f8:	9304      	str	r3, [sp, #16]
 80075fa:	4649      	mov	r1, r9
 80075fc:	2300      	movs	r3, #0
 80075fe:	220a      	movs	r2, #10
 8007600:	4658      	mov	r0, fp
 8007602:	f000 fa41 	bl	8007a88 <__multadd>
 8007606:	9b0b      	ldr	r3, [sp, #44]	@ 0x2c
 8007608:	4681      	mov	r9, r0
 800760a:	2b00      	cmp	r3, #0
 800760c:	f000 8172 	beq.w	80078f4 <_dtoa_r+0xb4c>
 8007610:	2300      	movs	r3, #0
 8007612:	4629      	mov	r1, r5
 8007614:	220a      	movs	r2, #10
 8007616:	4658      	mov	r0, fp
 8007618:	f000 fa36 	bl	8007a88 <__multadd>
 800761c:	9b00      	ldr	r3, [sp, #0]
 800761e:	2b00      	cmp	r3, #0
 8007620:	4605      	mov	r5, r0
 8007622:	dc67      	bgt.n	80076f4 <_dtoa_r+0x94c>
 8007624:	9b09      	ldr	r3, [sp, #36]	@ 0x24
 8007626:	2b02      	cmp	r3, #2
 8007628:	dc41      	bgt.n	80076ae <_dtoa_r+0x906>
 800762a:	e063      	b.n	80076f4 <_dtoa_r+0x94c>
 800762c:	9b16      	ldr	r3, [sp, #88]	@ 0x58
 800762e:	f1c3 0336 	rsb	r3, r3, #54	@ 0x36
 8007632:	e746      	b.n	80074c2 <_dtoa_r+0x71a>
 8007634:	9b07      	ldr	r3, [sp, #28]
 8007636:	1e5c      	subs	r4, r3, #1
 8007638:	9b0a      	ldr	r3, [sp, #40]	@ 0x28
 800763a:	42a3      	cmp	r3, r4
 800763c:	bfbf      	itttt	lt
 800763e:	9b0a      	ldrlt	r3, [sp, #40]	@ 0x28
 8007640:	9a0f      	ldrlt	r2, [sp, #60]	@ 0x3c
 8007642:	940a      	strlt	r4, [sp, #40]	@ 0x28
 8007644:	1ae3      	sublt	r3, r4, r3
 8007646:	bfb4      	ite	lt
 8007648:	18d2      	addlt	r2, r2, r3
 800764a:	1b1c      	subge	r4, r3, r4
 800764c:	9b07      	ldr	r3, [sp, #28]
 800764e:	bfbc      	itt	lt
 8007650:	920f      	strlt	r2, [sp, #60]	@ 0x3c
 8007652:	2400      	movlt	r4, #0
 8007654:	2b00      	cmp	r3, #0
 8007656:	bfb5      	itete	lt
 8007658:	eba8 0603 	sublt.w	r6, r8, r3
 800765c:	9b07      	ldrge	r3, [sp, #28]
 800765e:	2300      	movlt	r3, #0
 8007660:	4646      	movge	r6, r8
 8007662:	e730      	b.n	80074c6 <_dtoa_r+0x71e>
 8007664:	9c0a      	ldr	r4, [sp, #40]	@ 0x28
 8007666:	9d0b      	ldr	r5, [sp, #44]	@ 0x2c
 8007668:	4646      	mov	r6, r8
 800766a:	e735      	b.n	80074d8 <_dtoa_r+0x730>
 800766c:	9a0a      	ldr	r2, [sp, #40]	@ 0x28
 800766e:	e75c      	b.n	800752a <_dtoa_r+0x782>
 8007670:	2300      	movs	r3, #0
 8007672:	e788      	b.n	8007586 <_dtoa_r+0x7de>
 8007674:	3fe00000 	.word	0x3fe00000
 8007678:	40240000 	.word	0x40240000
 800767c:	40140000 	.word	0x40140000
 8007680:	9b02      	ldr	r3, [sp, #8]
 8007682:	e780      	b.n	8007586 <_dtoa_r+0x7de>
 8007684:	2300      	movs	r3, #0
 8007686:	930a      	str	r3, [sp, #40]	@ 0x28
 8007688:	e782      	b.n	8007590 <_dtoa_r+0x7e8>
 800768a:	d099      	beq.n	80075c0 <_dtoa_r+0x818>
 800768c:	9a08      	ldr	r2, [sp, #32]
 800768e:	331c      	adds	r3, #28
 8007690:	441a      	add	r2, r3
 8007692:	4498      	add	r8, r3
 8007694:	441e      	add	r6, r3
 8007696:	9208      	str	r2, [sp, #32]
 8007698:	e792      	b.n	80075c0 <_dtoa_r+0x818>
 800769a:	4603      	mov	r3, r0
 800769c:	e7f6      	b.n	800768c <_dtoa_r+0x8e4>
 800769e:	9b07      	ldr	r3, [sp, #28]
 80076a0:	9704      	str	r7, [sp, #16]
 80076a2:	2b00      	cmp	r3, #0
 80076a4:	dc20      	bgt.n	80076e8 <_dtoa_r+0x940>
 80076a6:	9300      	str	r3, [sp, #0]
 80076a8:	9b09      	ldr	r3, [sp, #36]	@ 0x24
 80076aa:	2b02      	cmp	r3, #2
 80076ac:	dd1e      	ble.n	80076ec <_dtoa_r+0x944>
 80076ae:	9b00      	ldr	r3, [sp, #0]
 80076b0:	2b00      	cmp	r3, #0
 80076b2:	f47f aec0 	bne.w	8007436 <_dtoa_r+0x68e>
 80076b6:	4621      	mov	r1, r4
 80076b8:	2205      	movs	r2, #5
 80076ba:	4658      	mov	r0, fp
 80076bc:	f000 f9e4 	bl	8007a88 <__multadd>
 80076c0:	4601      	mov	r1, r0
 80076c2:	4604      	mov	r4, r0
 80076c4:	4648      	mov	r0, r9
 80076c6:	f000 fbf7 	bl	8007eb8 <__mcmp>
 80076ca:	2800      	cmp	r0, #0
 80076cc:	f77f aeb3 	ble.w	8007436 <_dtoa_r+0x68e>
 80076d0:	4656      	mov	r6, sl
 80076d2:	2331      	movs	r3, #49	@ 0x31
 80076d4:	f806 3b01 	strb.w	r3, [r6], #1
 80076d8:	9b04      	ldr	r3, [sp, #16]
 80076da:	3301      	adds	r3, #1
 80076dc:	9304      	str	r3, [sp, #16]
 80076de:	e6ae      	b.n	800743e <_dtoa_r+0x696>
 80076e0:	9c07      	ldr	r4, [sp, #28]
 80076e2:	9704      	str	r7, [sp, #16]
 80076e4:	4625      	mov	r5, r4
 80076e6:	e7f3      	b.n	80076d0 <_dtoa_r+0x928>
 80076e8:	9b07      	ldr	r3, [sp, #28]
 80076ea:	9300      	str	r3, [sp, #0]
 80076ec:	9b0b      	ldr	r3, [sp, #44]	@ 0x2c
 80076ee:	2b00      	cmp	r3, #0
 80076f0:	f000 8104 	beq.w	80078fc <_dtoa_r+0xb54>
 80076f4:	2e00      	cmp	r6, #0
 80076f6:	dd05      	ble.n	8007704 <_dtoa_r+0x95c>
 80076f8:	4629      	mov	r1, r5
 80076fa:	4632      	mov	r2, r6
 80076fc:	4658      	mov	r0, fp
 80076fe:	f000 fb6f 	bl	8007de0 <__lshift>
 8007702:	4605      	mov	r5, r0
 8007704:	9b0a      	ldr	r3, [sp, #40]	@ 0x28
 8007706:	2b00      	cmp	r3, #0
 8007708:	d05a      	beq.n	80077c0 <_dtoa_r+0xa18>
 800770a:	6869      	ldr	r1, [r5, #4]
 800770c:	4658      	mov	r0, fp
 800770e:	f000 f959 	bl	80079c4 <_Balloc>
 8007712:	4606      	mov	r6, r0
 8007714:	b928      	cbnz	r0, 8007722 <_dtoa_r+0x97a>
 8007716:	4b84      	ldr	r3, [pc, #528]	@ (8007928 <_dtoa_r+0xb80>)
 8007718:	4602      	mov	r2, r0
 800771a:	f240 21ef 	movw	r1, #751	@ 0x2ef
 800771e:	f7ff bb5a 	b.w	8006dd6 <_dtoa_r+0x2e>
 8007722:	692a      	ldr	r2, [r5, #16]
 8007724:	3202      	adds	r2, #2
 8007726:	0092      	lsls	r2, r2, #2
 8007728:	f105 010c 	add.w	r1, r5, #12
 800772c:	300c      	adds	r0, #12
 800772e:	f7ff faa2 	bl	8006c76 <memcpy>
 8007732:	2201      	movs	r2, #1
 8007734:	4631      	mov	r1, r6
 8007736:	4658      	mov	r0, fp
 8007738:	f000 fb52 	bl	8007de0 <__lshift>
 800773c:	f10a 0301 	add.w	r3, sl, #1
 8007740:	9307      	str	r3, [sp, #28]
 8007742:	9b00      	ldr	r3, [sp, #0]
 8007744:	4453      	add	r3, sl
 8007746:	930b      	str	r3, [sp, #44]	@ 0x2c
 8007748:	9b02      	ldr	r3, [sp, #8]
 800774a:	f003 0301 	and.w	r3, r3, #1
 800774e:	462f      	mov	r7, r5
 8007750:	930a      	str	r3, [sp, #40]	@ 0x28
 8007752:	4605      	mov	r5, r0
 8007754:	9b07      	ldr	r3, [sp, #28]
 8007756:	4621      	mov	r1, r4
 8007758:	3b01      	subs	r3, #1
 800775a:	4648      	mov	r0, r9
 800775c:	9300      	str	r3, [sp, #0]
 800775e:	f7ff fa98 	bl	8006c92 <quorem>
 8007762:	4639      	mov	r1, r7
 8007764:	9002      	str	r0, [sp, #8]
 8007766:	f100 0830 	add.w	r8, r0, #48	@ 0x30
 800776a:	4648      	mov	r0, r9
 800776c:	f000 fba4 	bl	8007eb8 <__mcmp>
 8007770:	462a      	mov	r2, r5
 8007772:	9008      	str	r0, [sp, #32]
 8007774:	4621      	mov	r1, r4
 8007776:	4658      	mov	r0, fp
 8007778:	f000 fbba 	bl	8007ef0 <__mdiff>
 800777c:	68c2      	ldr	r2, [r0, #12]
 800777e:	4606      	mov	r6, r0
 8007780:	bb02      	cbnz	r2, 80077c4 <_dtoa_r+0xa1c>
 8007782:	4601      	mov	r1, r0
 8007784:	4648      	mov	r0, r9
 8007786:	f000 fb97 	bl	8007eb8 <__mcmp>
 800778a:	4602      	mov	r2, r0
 800778c:	4631      	mov	r1, r6
 800778e:	4658      	mov	r0, fp
 8007790:	920e      	str	r2, [sp, #56]	@ 0x38
 8007792:	f000 f957 	bl	8007a44 <_Bfree>
 8007796:	9b09      	ldr	r3, [sp, #36]	@ 0x24
 8007798:	9a0e      	ldr	r2, [sp, #56]	@ 0x38
 800779a:	9e07      	ldr	r6, [sp, #28]
 800779c:	ea43 0102 	orr.w	r1, r3, r2
 80077a0:	9b0a      	ldr	r3, [sp, #40]	@ 0x28
 80077a2:	4319      	orrs	r1, r3
 80077a4:	d110      	bne.n	80077c8 <_dtoa_r+0xa20>
 80077a6:	f1b8 0f39 	cmp.w	r8, #57	@ 0x39
 80077aa:	d029      	beq.n	8007800 <_dtoa_r+0xa58>
 80077ac:	9b08      	ldr	r3, [sp, #32]
 80077ae:	2b00      	cmp	r3, #0
 80077b0:	dd02      	ble.n	80077b8 <_dtoa_r+0xa10>
 80077b2:	9b02      	ldr	r3, [sp, #8]
 80077b4:	f103 0831 	add.w	r8, r3, #49	@ 0x31
 80077b8:	9b00      	ldr	r3, [sp, #0]
 80077ba:	f883 8000 	strb.w	r8, [r3]
 80077be:	e63f      	b.n	8007440 <_dtoa_r+0x698>
 80077c0:	4628      	mov	r0, r5
 80077c2:	e7bb      	b.n	800773c <_dtoa_r+0x994>
 80077c4:	2201      	movs	r2, #1
 80077c6:	e7e1      	b.n	800778c <_dtoa_r+0x9e4>
 80077c8:	9b08      	ldr	r3, [sp, #32]
 80077ca:	2b00      	cmp	r3, #0
 80077cc:	db04      	blt.n	80077d8 <_dtoa_r+0xa30>
 80077ce:	9909      	ldr	r1, [sp, #36]	@ 0x24
 80077d0:	430b      	orrs	r3, r1
 80077d2:	990a      	ldr	r1, [sp, #40]	@ 0x28
 80077d4:	430b      	orrs	r3, r1
 80077d6:	d120      	bne.n	800781a <_dtoa_r+0xa72>
 80077d8:	2a00      	cmp	r2, #0
 80077da:	dded      	ble.n	80077b8 <_dtoa_r+0xa10>
 80077dc:	4649      	mov	r1, r9
 80077de:	2201      	movs	r2, #1
 80077e0:	4658      	mov	r0, fp
 80077e2:	f000 fafd 	bl	8007de0 <__lshift>
 80077e6:	4621      	mov	r1, r4
 80077e8:	4681      	mov	r9, r0
 80077ea:	f000 fb65 	bl	8007eb8 <__mcmp>
 80077ee:	2800      	cmp	r0, #0
 80077f0:	dc03      	bgt.n	80077fa <_dtoa_r+0xa52>
 80077f2:	d1e1      	bne.n	80077b8 <_dtoa_r+0xa10>
 80077f4:	f018 0f01 	tst.w	r8, #1
 80077f8:	d0de      	beq.n	80077b8 <_dtoa_r+0xa10>
 80077fa:	f1b8 0f39 	cmp.w	r8, #57	@ 0x39
 80077fe:	d1d8      	bne.n	80077b2 <_dtoa_r+0xa0a>
 8007800:	9a00      	ldr	r2, [sp, #0]
 8007802:	2339      	movs	r3, #57	@ 0x39
 8007804:	7013      	strb	r3, [r2, #0]
 8007806:	4633      	mov	r3, r6
 8007808:	461e      	mov	r6, r3
 800780a:	3b01      	subs	r3, #1
 800780c:	f816 2c01 	ldrb.w	r2, [r6, #-1]
 8007810:	2a39      	cmp	r2, #57	@ 0x39
 8007812:	d052      	beq.n	80078ba <_dtoa_r+0xb12>
 8007814:	3201      	adds	r2, #1
 8007816:	701a      	strb	r2, [r3, #0]
 8007818:	e612      	b.n	8007440 <_dtoa_r+0x698>
 800781a:	2a00      	cmp	r2, #0
 800781c:	dd07      	ble.n	800782e <_dtoa_r+0xa86>
 800781e:	f1b8 0f39 	cmp.w	r8, #57	@ 0x39
 8007822:	d0ed      	beq.n	8007800 <_dtoa_r+0xa58>
 8007824:	9a00      	ldr	r2, [sp, #0]
 8007826:	f108 0301 	add.w	r3, r8, #1
 800782a:	7013      	strb	r3, [r2, #0]
 800782c:	e608      	b.n	8007440 <_dtoa_r+0x698>
 800782e:	9b07      	ldr	r3, [sp, #28]
 8007830:	9a07      	ldr	r2, [sp, #28]
 8007832:	f803 8c01 	strb.w	r8, [r3, #-1]
 8007836:	9b0b      	ldr	r3, [sp, #44]	@ 0x2c
 8007838:	4293      	cmp	r3, r2
 800783a:	d028      	beq.n	800788e <_dtoa_r+0xae6>
 800783c:	4649      	mov	r1, r9
 800783e:	2300      	movs	r3, #0
 8007840:	220a      	movs	r2, #10
 8007842:	4658      	mov	r0, fp
 8007844:	f000 f920 	bl	8007a88 <__multadd>
 8007848:	42af      	cmp	r7, r5
 800784a:	4681      	mov	r9, r0
 800784c:	f04f 0300 	mov.w	r3, #0
 8007850:	f04f 020a 	mov.w	r2, #10
 8007854:	4639      	mov	r1, r7
 8007856:	4658      	mov	r0, fp
 8007858:	d107      	bne.n	800786a <_dtoa_r+0xac2>
 800785a:	f000 f915 	bl	8007a88 <__multadd>
 800785e:	4607      	mov	r7, r0
 8007860:	4605      	mov	r5, r0
 8007862:	9b07      	ldr	r3, [sp, #28]
 8007864:	3301      	adds	r3, #1
 8007866:	9307      	str	r3, [sp, #28]
 8007868:	e774      	b.n	8007754 <_dtoa_r+0x9ac>
 800786a:	f000 f90d 	bl	8007a88 <__multadd>
 800786e:	4629      	mov	r1, r5
 8007870:	4607      	mov	r7, r0
 8007872:	2300      	movs	r3, #0
 8007874:	220a      	movs	r2, #10
 8007876:	4658      	mov	r0, fp
 8007878:	f000 f906 	bl	8007a88 <__multadd>
 800787c:	4605      	mov	r5, r0
 800787e:	e7f0      	b.n	8007862 <_dtoa_r+0xaba>
 8007880:	9b00      	ldr	r3, [sp, #0]
 8007882:	2b00      	cmp	r3, #0
 8007884:	bfcc      	ite	gt
 8007886:	461e      	movgt	r6, r3
 8007888:	2601      	movle	r6, #1
 800788a:	4456      	add	r6, sl
 800788c:	2700      	movs	r7, #0
 800788e:	4649      	mov	r1, r9
 8007890:	2201      	movs	r2, #1
 8007892:	4658      	mov	r0, fp
 8007894:	f000 faa4 	bl	8007de0 <__lshift>
 8007898:	4621      	mov	r1, r4
 800789a:	4681      	mov	r9, r0
 800789c:	f000 fb0c 	bl	8007eb8 <__mcmp>
 80078a0:	2800      	cmp	r0, #0
 80078a2:	dcb0      	bgt.n	8007806 <_dtoa_r+0xa5e>
 80078a4:	d102      	bne.n	80078ac <_dtoa_r+0xb04>
 80078a6:	f018 0f01 	tst.w	r8, #1
 80078aa:	d1ac      	bne.n	8007806 <_dtoa_r+0xa5e>
 80078ac:	4633      	mov	r3, r6
 80078ae:	461e      	mov	r6, r3
 80078b0:	f813 2d01 	ldrb.w	r2, [r3, #-1]!
 80078b4:	2a30      	cmp	r2, #48	@ 0x30
 80078b6:	d0fa      	beq.n	80078ae <_dtoa_r+0xb06>
 80078b8:	e5c2      	b.n	8007440 <_dtoa_r+0x698>
 80078ba:	459a      	cmp	sl, r3
 80078bc:	d1a4      	bne.n	8007808 <_dtoa_r+0xa60>
 80078be:	9b04      	ldr	r3, [sp, #16]
 80078c0:	3301      	adds	r3, #1
 80078c2:	9304      	str	r3, [sp, #16]
 80078c4:	2331      	movs	r3, #49	@ 0x31
 80078c6:	f88a 3000 	strb.w	r3, [sl]
 80078ca:	e5b9      	b.n	8007440 <_dtoa_r+0x698>
 80078cc:	9b23      	ldr	r3, [sp, #140]	@ 0x8c
 80078ce:	f8df a05c 	ldr.w	sl, [pc, #92]	@ 800792c <_dtoa_r+0xb84>
 80078d2:	b11b      	cbz	r3, 80078dc <_dtoa_r+0xb34>
 80078d4:	f10a 0308 	add.w	r3, sl, #8
 80078d8:	9a23      	ldr	r2, [sp, #140]	@ 0x8c
 80078da:	6013      	str	r3, [r2, #0]
 80078dc:	4650      	mov	r0, sl
 80078de:	b019      	add	sp, #100	@ 0x64
 80078e0:	e8bd 8ff0 	ldmia.w	sp!, {r4, r5, r6, r7, r8, r9, sl, fp, pc}
 80078e4:	9b09      	ldr	r3, [sp, #36]	@ 0x24
 80078e6:	2b01      	cmp	r3, #1
 80078e8:	f77f ae37 	ble.w	800755a <_dtoa_r+0x7b2>
 80078ec:	9b0f      	ldr	r3, [sp, #60]	@ 0x3c
 80078ee:	930a      	str	r3, [sp, #40]	@ 0x28
 80078f0:	2001      	movs	r0, #1
 80078f2:	e655      	b.n	80075a0 <_dtoa_r+0x7f8>
 80078f4:	9b00      	ldr	r3, [sp, #0]
 80078f6:	2b00      	cmp	r3, #0
 80078f8:	f77f aed6 	ble.w	80076a8 <_dtoa_r+0x900>
 80078fc:	4656      	mov	r6, sl
 80078fe:	4621      	mov	r1, r4
 8007900:	4648      	mov	r0, r9
 8007902:	f7ff f9c6 	bl	8006c92 <quorem>
 8007906:	f100 0830 	add.w	r8, r0, #48	@ 0x30
 800790a:	f806 8b01 	strb.w	r8, [r6], #1
 800790e:	9b00      	ldr	r3, [sp, #0]
 8007910:	eba6 020a 	sub.w	r2, r6, sl
 8007914:	4293      	cmp	r3, r2
 8007916:	ddb3      	ble.n	8007880 <_dtoa_r+0xad8>
 8007918:	4649      	mov	r1, r9
 800791a:	2300      	movs	r3, #0
 800791c:	220a      	movs	r2, #10
 800791e:	4658      	mov	r0, fp
 8007920:	f000 f8b2 	bl	8007a88 <__multadd>
 8007924:	4681      	mov	r9, r0
 8007926:	e7ea      	b.n	80078fe <_dtoa_r+0xb56>
 8007928:	080090fc 	.word	0x080090fc
 800792c:	08009080 	.word	0x08009080

08007930 <_free_r>:
 8007930:	b538      	push	{r3, r4, r5, lr}
 8007932:	4605      	mov	r5, r0
 8007934:	2900      	cmp	r1, #0
 8007936:	d041      	beq.n	80079bc <_free_r+0x8c>
 8007938:	f851 3c04 	ldr.w	r3, [r1, #-4]
 800793c:	1f0c      	subs	r4, r1, #4
 800793e:	2b00      	cmp	r3, #0
 8007940:	bfb8      	it	lt
 8007942:	18e4      	addlt	r4, r4, r3
 8007944:	f7fe fb84 	bl	8006050 <__malloc_lock>
 8007948:	4a1d      	ldr	r2, [pc, #116]	@ (80079c0 <_free_r+0x90>)
 800794a:	6813      	ldr	r3, [r2, #0]
 800794c:	b933      	cbnz	r3, 800795c <_free_r+0x2c>
 800794e:	6063      	str	r3, [r4, #4]
 8007950:	6014      	str	r4, [r2, #0]
 8007952:	4628      	mov	r0, r5
 8007954:	e8bd 4038 	ldmia.w	sp!, {r3, r4, r5, lr}
 8007958:	f7fe bb80 	b.w	800605c <__malloc_unlock>
 800795c:	42a3      	cmp	r3, r4
 800795e:	d908      	bls.n	8007972 <_free_r+0x42>
 8007960:	6820      	ldr	r0, [r4, #0]
 8007962:	1821      	adds	r1, r4, r0
 8007964:	428b      	cmp	r3, r1
 8007966:	bf01      	itttt	eq
 8007968:	6819      	ldreq	r1, [r3, #0]
 800796a:	685b      	ldreq	r3, [r3, #4]
 800796c:	1809      	addeq	r1, r1, r0
 800796e:	6021      	streq	r1, [r4, #0]
 8007970:	e7ed      	b.n	800794e <_free_r+0x1e>
 8007972:	461a      	mov	r2, r3
 8007974:	685b      	ldr	r3, [r3, #4]
 8007976:	b10b      	cbz	r3, 800797c <_free_r+0x4c>
 8007978:	42a3      	cmp	r3, r4
 800797a:	d9fa      	bls.n	8007972 <_free_r+0x42>
 800797c:	6811      	ldr	r1, [r2, #0]
 800797e:	1850      	adds	r0, r2, r1
 8007980:	42a0      	cmp	r0, r4
 8007982:	d10b      	bne.n	800799c <_free_r+0x6c>
 8007984:	6820      	ldr	r0, [r4, #0]
 8007986:	4401      	add	r1, r0
 8007988:	1850      	adds	r0, r2, r1
 800798a:	4283      	cmp	r3, r0
 800798c:	6011      	str	r1, [r2, #0]
 800798e:	d1e0      	bne.n	8007952 <_free_r+0x22>
 8007990:	6818      	ldr	r0, [r3, #0]
 8007992:	685b      	ldr	r3, [r3, #4]
 8007994:	6053      	str	r3, [r2, #4]
 8007996:	4408      	add	r0, r1
 8007998:	6010      	str	r0, [r2, #0]
 800799a:	e7da      	b.n	8007952 <_free_r+0x22>
 800799c:	d902      	bls.n	80079a4 <_free_r+0x74>
 800799e:	230c      	movs	r3, #12
 80079a0:	602b      	str	r3, [r5, #0]
 80079a2:	e7d6      	b.n	8007952 <_free_r+0x22>
 80079a4:	6820      	ldr	r0, [r4, #0]
 80079a6:	1821      	adds	r1, r4, r0
 80079a8:	428b      	cmp	r3, r1
 80079aa:	bf04      	itt	eq
 80079ac:	6819      	ldreq	r1, [r3, #0]
 80079ae:	685b      	ldreq	r3, [r3, #4]
 80079b0:	6063      	str	r3, [r4, #4]
 80079b2:	bf04      	itt	eq
 80079b4:	1809      	addeq	r1, r1, r0
 80079b6:	6021      	streq	r1, [r4, #0]
 80079b8:	6054      	str	r4, [r2, #4]
 80079ba:	e7ca      	b.n	8007952 <_free_r+0x22>
 80079bc:	bd38      	pop	{r3, r4, r5, pc}
 80079be:	bf00      	nop
 80079c0:	20000570 	.word	0x20000570

080079c4 <_Balloc>:
 80079c4:	b570      	push	{r4, r5, r6, lr}
 80079c6:	69c6      	ldr	r6, [r0, #28]
 80079c8:	4604      	mov	r4, r0
 80079ca:	460d      	mov	r5, r1
 80079cc:	b976      	cbnz	r6, 80079ec <_Balloc+0x28>
 80079ce:	2010      	movs	r0, #16
 80079d0:	f7fe fa8c 	bl	8005eec <malloc>
 80079d4:	4602      	mov	r2, r0
 80079d6:	61e0      	str	r0, [r4, #28]
 80079d8:	b920      	cbnz	r0, 80079e4 <_Balloc+0x20>
 80079da:	4b18      	ldr	r3, [pc, #96]	@ (8007a3c <_Balloc+0x78>)
 80079dc:	4818      	ldr	r0, [pc, #96]	@ (8007a40 <_Balloc+0x7c>)
 80079de:	216b      	movs	r1, #107	@ 0x6b
 80079e0:	f000 fd90 	bl	8008504 <__assert_func>
 80079e4:	e9c0 6601 	strd	r6, r6, [r0, #4]
 80079e8:	6006      	str	r6, [r0, #0]
 80079ea:	60c6      	str	r6, [r0, #12]
 80079ec:	69e6      	ldr	r6, [r4, #28]
 80079ee:	68f3      	ldr	r3, [r6, #12]
 80079f0:	b183      	cbz	r3, 8007a14 <_Balloc+0x50>
 80079f2:	69e3      	ldr	r3, [r4, #28]
 80079f4:	68db      	ldr	r3, [r3, #12]
 80079f6:	f853 0025 	ldr.w	r0, [r3, r5, lsl #2]
 80079fa:	b9b8      	cbnz	r0, 8007a2c <_Balloc+0x68>
 80079fc:	2101      	movs	r1, #1
 80079fe:	fa01 f605 	lsl.w	r6, r1, r5
 8007a02:	1d72      	adds	r2, r6, #5
 8007a04:	0092      	lsls	r2, r2, #2
 8007a06:	4620      	mov	r0, r4
 8007a08:	f7fe fa5c 	bl	8005ec4 <_calloc_r>
 8007a0c:	b160      	cbz	r0, 8007a28 <_Balloc+0x64>
 8007a0e:	e9c0 5601 	strd	r5, r6, [r0, #4]
 8007a12:	e00e      	b.n	8007a32 <_Balloc+0x6e>
 8007a14:	2221      	movs	r2, #33	@ 0x21
 8007a16:	2104      	movs	r1, #4
 8007a18:	4620      	mov	r0, r4
 8007a1a:	f7fe fa53 	bl	8005ec4 <_calloc_r>
 8007a1e:	69e3      	ldr	r3, [r4, #28]
 8007a20:	60f0      	str	r0, [r6, #12]
 8007a22:	68db      	ldr	r3, [r3, #12]
 8007a24:	2b00      	cmp	r3, #0
 8007a26:	d1e4      	bne.n	80079f2 <_Balloc+0x2e>
 8007a28:	2000      	movs	r0, #0
 8007a2a:	bd70      	pop	{r4, r5, r6, pc}
 8007a2c:	6802      	ldr	r2, [r0, #0]
 8007a2e:	f843 2025 	str.w	r2, [r3, r5, lsl #2]
 8007a32:	2300      	movs	r3, #0
 8007a34:	e9c0 3303 	strd	r3, r3, [r0, #12]
 8007a38:	e7f7      	b.n	8007a2a <_Balloc+0x66>
 8007a3a:	bf00      	nop
 8007a3c:	0800908d 	.word	0x0800908d
 8007a40:	0800910d 	.word	0x0800910d

08007a44 <_Bfree>:
 8007a44:	b570      	push	{r4, r5, r6, lr}
 8007a46:	69c6      	ldr	r6, [r0, #28]
 8007a48:	4605      	mov	r5, r0
 8007a4a:	460c      	mov	r4, r1
 8007a4c:	b976      	cbnz	r6, 8007a6c <_Bfree+0x28>
 8007a4e:	2010      	movs	r0, #16
 8007a50:	f7fe fa4c 	bl	8005eec <malloc>
 8007a54:	4602      	mov	r2, r0
 8007a56:	61e8      	str	r0, [r5, #28]
 8007a58:	b920      	cbnz	r0, 8007a64 <_Bfree+0x20>
 8007a5a:	4b09      	ldr	r3, [pc, #36]	@ (8007a80 <_Bfree+0x3c>)
 8007a5c:	4809      	ldr	r0, [pc, #36]	@ (8007a84 <_Bfree+0x40>)
 8007a5e:	218f      	movs	r1, #143	@ 0x8f
 8007a60:	f000 fd50 	bl	8008504 <__assert_func>
 8007a64:	e9c0 6601 	strd	r6, r6, [r0, #4]
 8007a68:	6006      	str	r6, [r0, #0]
 8007a6a:	60c6      	str	r6, [r0, #12]
 8007a6c:	b13c      	cbz	r4, 8007a7e <_Bfree+0x3a>
 8007a6e:	69eb      	ldr	r3, [r5, #28]
 8007a70:	6862      	ldr	r2, [r4, #4]
 8007a72:	68db      	ldr	r3, [r3, #12]
 8007a74:	f853 1022 	ldr.w	r1, [r3, r2, lsl #2]
 8007a78:	6021      	str	r1, [r4, #0]
 8007a7a:	f843 4022 	str.w	r4, [r3, r2, lsl #2]
 8007a7e:	bd70      	pop	{r4, r5, r6, pc}
 8007a80:	0800908d 	.word	0x0800908d
 8007a84:	0800910d 	.word	0x0800910d

08007a88 <__multadd>:
 8007a88:	e92d 41f0 	stmdb	sp!, {r4, r5, r6, r7, r8, lr}
 8007a8c:	690d      	ldr	r5, [r1, #16]
 8007a8e:	4607      	mov	r7, r0
 8007a90:	460c      	mov	r4, r1
 8007a92:	461e      	mov	r6, r3
 8007a94:	f101 0c14 	add.w	ip, r1, #20
 8007a98:	2000      	movs	r0, #0
 8007a9a:	f8dc 3000 	ldr.w	r3, [ip]
 8007a9e:	b299      	uxth	r1, r3
 8007aa0:	fb02 6101 	mla	r1, r2, r1, r6
 8007aa4:	0c1e      	lsrs	r6, r3, #16
 8007aa6:	0c0b      	lsrs	r3, r1, #16
 8007aa8:	fb02 3306 	mla	r3, r2, r6, r3
 8007aac:	b289      	uxth	r1, r1
 8007aae:	3001      	adds	r0, #1
 8007ab0:	eb01 4103 	add.w	r1, r1, r3, lsl #16
 8007ab4:	4285      	cmp	r5, r0
 8007ab6:	f84c 1b04 	str.w	r1, [ip], #4
 8007aba:	ea4f 4613 	mov.w	r6, r3, lsr #16
 8007abe:	dcec      	bgt.n	8007a9a <__multadd+0x12>
 8007ac0:	b30e      	cbz	r6, 8007b06 <__multadd+0x7e>
 8007ac2:	68a3      	ldr	r3, [r4, #8]
 8007ac4:	42ab      	cmp	r3, r5
 8007ac6:	dc19      	bgt.n	8007afc <__multadd+0x74>
 8007ac8:	6861      	ldr	r1, [r4, #4]
 8007aca:	4638      	mov	r0, r7
 8007acc:	3101      	adds	r1, #1
 8007ace:	f7ff ff79 	bl	80079c4 <_Balloc>
 8007ad2:	4680      	mov	r8, r0
 8007ad4:	b928      	cbnz	r0, 8007ae2 <__multadd+0x5a>
 8007ad6:	4602      	mov	r2, r0
 8007ad8:	4b0c      	ldr	r3, [pc, #48]	@ (8007b0c <__multadd+0x84>)
 8007ada:	480d      	ldr	r0, [pc, #52]	@ (8007b10 <__multadd+0x88>)
 8007adc:	21ba      	movs	r1, #186	@ 0xba
 8007ade:	f000 fd11 	bl	8008504 <__assert_func>
 8007ae2:	6922      	ldr	r2, [r4, #16]
 8007ae4:	3202      	adds	r2, #2
 8007ae6:	f104 010c 	add.w	r1, r4, #12
 8007aea:	0092      	lsls	r2, r2, #2
 8007aec:	300c      	adds	r0, #12
 8007aee:	f7ff f8c2 	bl	8006c76 <memcpy>
 8007af2:	4621      	mov	r1, r4
 8007af4:	4638      	mov	r0, r7
 8007af6:	f7ff ffa5 	bl	8007a44 <_Bfree>
 8007afa:	4644      	mov	r4, r8
 8007afc:	eb04 0385 	add.w	r3, r4, r5, lsl #2
 8007b00:	3501      	adds	r5, #1
 8007b02:	615e      	str	r6, [r3, #20]
 8007b04:	6125      	str	r5, [r4, #16]
 8007b06:	4620      	mov	r0, r4
 8007b08:	e8bd 81f0 	ldmia.w	sp!, {r4, r5, r6, r7, r8, pc}
 8007b0c:	080090fc 	.word	0x080090fc
 8007b10:	0800910d 	.word	0x0800910d

08007b14 <__hi0bits>:
 8007b14:	f5b0 3f80 	cmp.w	r0, #65536	@ 0x10000
 8007b18:	4603      	mov	r3, r0
 8007b1a:	bf36      	itet	cc
 8007b1c:	0403      	lslcc	r3, r0, #16
 8007b1e:	2000      	movcs	r0, #0
 8007b20:	2010      	movcc	r0, #16
 8007b22:	f1b3 7f80 	cmp.w	r3, #16777216	@ 0x1000000
 8007b26:	bf3c      	itt	cc
 8007b28:	021b      	lslcc	r3, r3, #8
 8007b2a:	3008      	addcc	r0, #8
 8007b2c:	f1b3 5f80 	cmp.w	r3, #268435456	@ 0x10000000
 8007b30:	bf3c      	itt	cc
 8007b32:	011b      	lslcc	r3, r3, #4
 8007b34:	3004      	addcc	r0, #4
 8007b36:	f1b3 4f80 	cmp.w	r3, #1073741824	@ 0x40000000
 8007b3a:	bf3c      	itt	cc
 8007b3c:	009b      	lslcc	r3, r3, #2
 8007b3e:	3002      	addcc	r0, #2
 8007b40:	2b00      	cmp	r3, #0
 8007b42:	db05      	blt.n	8007b50 <__hi0bits+0x3c>
 8007b44:	f013 4f80 	tst.w	r3, #1073741824	@ 0x40000000
 8007b48:	f100 0001 	add.w	r0, r0, #1
 8007b4c:	bf08      	it	eq
 8007b4e:	2020      	moveq	r0, #32
 8007b50:	4770      	bx	lr

08007b52 <__lo0bits>:
 8007b52:	6803      	ldr	r3, [r0, #0]
 8007b54:	4602      	mov	r2, r0
 8007b56:	f013 0007 	ands.w	r0, r3, #7
 8007b5a:	d00b      	beq.n	8007b74 <__lo0bits+0x22>
 8007b5c:	07d9      	lsls	r1, r3, #31
 8007b5e:	d421      	bmi.n	8007ba4 <__lo0bits+0x52>
 8007b60:	0798      	lsls	r0, r3, #30
 8007b62:	bf49      	itett	mi
 8007b64:	085b      	lsrmi	r3, r3, #1
 8007b66:	089b      	lsrpl	r3, r3, #2
 8007b68:	2001      	movmi	r0, #1
 8007b6a:	6013      	strmi	r3, [r2, #0]
 8007b6c:	bf5c      	itt	pl
 8007b6e:	6013      	strpl	r3, [r2, #0]
 8007b70:	2002      	movpl	r0, #2
 8007b72:	4770      	bx	lr
 8007b74:	b299      	uxth	r1, r3
 8007b76:	b909      	cbnz	r1, 8007b7c <__lo0bits+0x2a>
 8007b78:	0c1b      	lsrs	r3, r3, #16
 8007b7a:	2010      	movs	r0, #16
 8007b7c:	b2d9      	uxtb	r1, r3
 8007b7e:	b909      	cbnz	r1, 8007b84 <__lo0bits+0x32>
 8007b80:	3008      	adds	r0, #8
 8007b82:	0a1b      	lsrs	r3, r3, #8
 8007b84:	0719      	lsls	r1, r3, #28
 8007b86:	bf04      	itt	eq
 8007b88:	091b      	lsreq	r3, r3, #4
 8007b8a:	3004      	addeq	r0, #4
 8007b8c:	0799      	lsls	r1, r3, #30
 8007b8e:	bf04      	itt	eq
 8007b90:	089b      	lsreq	r3, r3, #2
 8007b92:	3002      	addeq	r0, #2
 8007b94:	07d9      	lsls	r1, r3, #31
 8007b96:	d403      	bmi.n	8007ba0 <__lo0bits+0x4e>
 8007b98:	085b      	lsrs	r3, r3, #1
 8007b9a:	f100 0001 	add.w	r0, r0, #1
 8007b9e:	d003      	beq.n	8007ba8 <__lo0bits+0x56>
 8007ba0:	6013      	str	r3, [r2, #0]
 8007ba2:	4770      	bx	lr
 8007ba4:	2000      	movs	r0, #0
 8007ba6:	4770      	bx	lr
 8007ba8:	2020      	movs	r0, #32
 8007baa:	4770      	bx	lr

08007bac <__i2b>:
 8007bac:	b510      	push	{r4, lr}
 8007bae:	460c      	mov	r4, r1
 8007bb0:	2101      	movs	r1, #1
 8007bb2:	f7ff ff07 	bl	80079c4 <_Balloc>
 8007bb6:	4602      	mov	r2, r0
 8007bb8:	b928      	cbnz	r0, 8007bc6 <__i2b+0x1a>
 8007bba:	4b05      	ldr	r3, [pc, #20]	@ (8007bd0 <__i2b+0x24>)
 8007bbc:	4805      	ldr	r0, [pc, #20]	@ (8007bd4 <__i2b+0x28>)
 8007bbe:	f240 1145 	movw	r1, #325	@ 0x145
 8007bc2:	f000 fc9f 	bl	8008504 <__assert_func>
 8007bc6:	2301      	movs	r3, #1
 8007bc8:	6144      	str	r4, [r0, #20]
 8007bca:	6103      	str	r3, [r0, #16]
 8007bcc:	bd10      	pop	{r4, pc}
 8007bce:	bf00      	nop
 8007bd0:	080090fc 	.word	0x080090fc
 8007bd4:	0800910d 	.word	0x0800910d

08007bd8 <__multiply>:
 8007bd8:	e92d 4ff0 	stmdb	sp!, {r4, r5, r6, r7, r8, r9, sl, fp, lr}
 8007bdc:	4614      	mov	r4, r2
 8007bde:	690a      	ldr	r2, [r1, #16]
 8007be0:	6923      	ldr	r3, [r4, #16]
 8007be2:	429a      	cmp	r2, r3
 8007be4:	bfa8      	it	ge
 8007be6:	4623      	movge	r3, r4
 8007be8:	460f      	mov	r7, r1
 8007bea:	bfa4      	itt	ge
 8007bec:	460c      	movge	r4, r1
 8007bee:	461f      	movge	r7, r3
 8007bf0:	f8d4 a010 	ldr.w	sl, [r4, #16]
 8007bf4:	f8d7 9010 	ldr.w	r9, [r7, #16]
 8007bf8:	68a3      	ldr	r3, [r4, #8]
 8007bfa:	6861      	ldr	r1, [r4, #4]
 8007bfc:	eb0a 0609 	add.w	r6, sl, r9
 8007c00:	42b3      	cmp	r3, r6
 8007c02:	b085      	sub	sp, #20
 8007c04:	bfb8      	it	lt
 8007c06:	3101      	addlt	r1, #1
 8007c08:	f7ff fedc 	bl	80079c4 <_Balloc>
 8007c0c:	b930      	cbnz	r0, 8007c1c <__multiply+0x44>
 8007c0e:	4602      	mov	r2, r0
 8007c10:	4b44      	ldr	r3, [pc, #272]	@ (8007d24 <__multiply+0x14c>)
 8007c12:	4845      	ldr	r0, [pc, #276]	@ (8007d28 <__multiply+0x150>)
 8007c14:	f44f 71b1 	mov.w	r1, #354	@ 0x162
 8007c18:	f000 fc74 	bl	8008504 <__assert_func>
 8007c1c:	f100 0514 	add.w	r5, r0, #20
 8007c20:	eb05 0886 	add.w	r8, r5, r6, lsl #2
 8007c24:	462b      	mov	r3, r5
 8007c26:	2200      	movs	r2, #0
 8007c28:	4543      	cmp	r3, r8
 8007c2a:	d321      	bcc.n	8007c70 <__multiply+0x98>
 8007c2c:	f107 0114 	add.w	r1, r7, #20
 8007c30:	f104 0214 	add.w	r2, r4, #20
 8007c34:	eb02 028a 	add.w	r2, r2, sl, lsl #2
 8007c38:	eb01 0389 	add.w	r3, r1, r9, lsl #2
 8007c3c:	9302      	str	r3, [sp, #8]
 8007c3e:	1b13      	subs	r3, r2, r4
 8007c40:	3b15      	subs	r3, #21
 8007c42:	f023 0303 	bic.w	r3, r3, #3
 8007c46:	3304      	adds	r3, #4
 8007c48:	f104 0715 	add.w	r7, r4, #21
 8007c4c:	42ba      	cmp	r2, r7
 8007c4e:	bf38      	it	cc
 8007c50:	2304      	movcc	r3, #4
 8007c52:	9301      	str	r3, [sp, #4]
 8007c54:	9b02      	ldr	r3, [sp, #8]
 8007c56:	9103      	str	r1, [sp, #12]
 8007c58:	428b      	cmp	r3, r1
 8007c5a:	d80c      	bhi.n	8007c76 <__multiply+0x9e>
 8007c5c:	2e00      	cmp	r6, #0
 8007c5e:	dd03      	ble.n	8007c68 <__multiply+0x90>
 8007c60:	f858 3d04 	ldr.w	r3, [r8, #-4]!
 8007c64:	2b00      	cmp	r3, #0
 8007c66:	d05b      	beq.n	8007d20 <__multiply+0x148>
 8007c68:	6106      	str	r6, [r0, #16]
 8007c6a:	b005      	add	sp, #20
 8007c6c:	e8bd 8ff0 	ldmia.w	sp!, {r4, r5, r6, r7, r8, r9, sl, fp, pc}
 8007c70:	f843 2b04 	str.w	r2, [r3], #4
 8007c74:	e7d8      	b.n	8007c28 <__multiply+0x50>
 8007c76:	f8b1 a000 	ldrh.w	sl, [r1]
 8007c7a:	f1ba 0f00 	cmp.w	sl, #0
 8007c7e:	d024      	beq.n	8007cca <__multiply+0xf2>
 8007c80:	f104 0e14 	add.w	lr, r4, #20
 8007c84:	46a9      	mov	r9, r5
 8007c86:	f04f 0c00 	mov.w	ip, #0
 8007c8a:	f85e 7b04 	ldr.w	r7, [lr], #4
 8007c8e:	f8d9 3000 	ldr.w	r3, [r9]
 8007c92:	fa1f fb87 	uxth.w	fp, r7
 8007c96:	b29b      	uxth	r3, r3
 8007c98:	fb0a 330b 	mla	r3, sl, fp, r3
 8007c9c:	ea4f 4b17 	mov.w	fp, r7, lsr #16
 8007ca0:	f8d9 7000 	ldr.w	r7, [r9]
 8007ca4:	4463      	add	r3, ip
 8007ca6:	ea4f 4c17 	mov.w	ip, r7, lsr #16
 8007caa:	fb0a c70b 	mla	r7, sl, fp, ip
 8007cae:	eb07 4713 	add.w	r7, r7, r3, lsr #16
 8007cb2:	b29b      	uxth	r3, r3
 8007cb4:	ea43 4307 	orr.w	r3, r3, r7, lsl #16
 8007cb8:	4572      	cmp	r2, lr
 8007cba:	f849 3b04 	str.w	r3, [r9], #4
 8007cbe:	ea4f 4c17 	mov.w	ip, r7, lsr #16
 8007cc2:	d8e2      	bhi.n	8007c8a <__multiply+0xb2>
 8007cc4:	9b01      	ldr	r3, [sp, #4]
 8007cc6:	f845 c003 	str.w	ip, [r5, r3]
 8007cca:	9b03      	ldr	r3, [sp, #12]
 8007ccc:	f8b3 9002 	ldrh.w	r9, [r3, #2]
 8007cd0:	3104      	adds	r1, #4
 8007cd2:	f1b9 0f00 	cmp.w	r9, #0
 8007cd6:	d021      	beq.n	8007d1c <__multiply+0x144>
 8007cd8:	682b      	ldr	r3, [r5, #0]
 8007cda:	f104 0c14 	add.w	ip, r4, #20
 8007cde:	46ae      	mov	lr, r5
 8007ce0:	f04f 0a00 	mov.w	sl, #0
 8007ce4:	f8bc b000 	ldrh.w	fp, [ip]
 8007ce8:	f8be 7002 	ldrh.w	r7, [lr, #2]
 8007cec:	fb09 770b 	mla	r7, r9, fp, r7
 8007cf0:	4457      	add	r7, sl
 8007cf2:	b29b      	uxth	r3, r3
 8007cf4:	ea43 4307 	orr.w	r3, r3, r7, lsl #16
 8007cf8:	f84e 3b04 	str.w	r3, [lr], #4
 8007cfc:	f85c 3b04 	ldr.w	r3, [ip], #4
 8007d00:	ea4f 4a13 	mov.w	sl, r3, lsr #16
 8007d04:	f8be 3000 	ldrh.w	r3, [lr]
 8007d08:	fb09 330a 	mla	r3, r9, sl, r3
 8007d0c:	eb03 4317 	add.w	r3, r3, r7, lsr #16
 8007d10:	4562      	cmp	r2, ip
 8007d12:	ea4f 4a13 	mov.w	sl, r3, lsr #16
 8007d16:	d8e5      	bhi.n	8007ce4 <__multiply+0x10c>
 8007d18:	9f01      	ldr	r7, [sp, #4]
 8007d1a:	51eb      	str	r3, [r5, r7]
 8007d1c:	3504      	adds	r5, #4
 8007d1e:	e799      	b.n	8007c54 <__multiply+0x7c>
 8007d20:	3e01      	subs	r6, #1
 8007d22:	e79b      	b.n	8007c5c <__multiply+0x84>
 8007d24:	080090fc 	.word	0x080090fc
 8007d28:	0800910d 	.word	0x0800910d

08007d2c <__pow5mult>:
 8007d2c:	e92d 43f8 	stmdb	sp!, {r3, r4, r5, r6, r7, r8, r9, lr}
 8007d30:	4615      	mov	r5, r2
 8007d32:	f012 0203 	ands.w	r2, r2, #3
 8007d36:	4607      	mov	r7, r0
 8007d38:	460e      	mov	r6, r1
 8007d3a:	d007      	beq.n	8007d4c <__pow5mult+0x20>
 8007d3c:	4c25      	ldr	r4, [pc, #148]	@ (8007dd4 <__pow5mult+0xa8>)
 8007d3e:	3a01      	subs	r2, #1
 8007d40:	2300      	movs	r3, #0
 8007d42:	f854 2022 	ldr.w	r2, [r4, r2, lsl #2]
 8007d46:	f7ff fe9f 	bl	8007a88 <__multadd>
 8007d4a:	4606      	mov	r6, r0
 8007d4c:	10ad      	asrs	r5, r5, #2
 8007d4e:	d03d      	beq.n	8007dcc <__pow5mult+0xa0>
 8007d50:	69fc      	ldr	r4, [r7, #28]
 8007d52:	b97c      	cbnz	r4, 8007d74 <__pow5mult+0x48>
 8007d54:	2010      	movs	r0, #16
 8007d56:	f7fe f8c9 	bl	8005eec <malloc>
 8007d5a:	4602      	mov	r2, r0
 8007d5c:	61f8      	str	r0, [r7, #28]
 8007d5e:	b928      	cbnz	r0, 8007d6c <__pow5mult+0x40>
 8007d60:	4b1d      	ldr	r3, [pc, #116]	@ (8007dd8 <__pow5mult+0xac>)
 8007d62:	481e      	ldr	r0, [pc, #120]	@ (8007ddc <__pow5mult+0xb0>)
 8007d64:	f240 11b3 	movw	r1, #435	@ 0x1b3
 8007d68:	f000 fbcc 	bl	8008504 <__assert_func>
 8007d6c:	e9c0 4401 	strd	r4, r4, [r0, #4]
 8007d70:	6004      	str	r4, [r0, #0]
 8007d72:	60c4      	str	r4, [r0, #12]
 8007d74:	f8d7 801c 	ldr.w	r8, [r7, #28]
 8007d78:	f8d8 4008 	ldr.w	r4, [r8, #8]
 8007d7c:	b94c      	cbnz	r4, 8007d92 <__pow5mult+0x66>
 8007d7e:	f240 2171 	movw	r1, #625	@ 0x271
 8007d82:	4638      	mov	r0, r7
 8007d84:	f7ff ff12 	bl	8007bac <__i2b>
 8007d88:	2300      	movs	r3, #0
 8007d8a:	f8c8 0008 	str.w	r0, [r8, #8]
 8007d8e:	4604      	mov	r4, r0
 8007d90:	6003      	str	r3, [r0, #0]
 8007d92:	f04f 0900 	mov.w	r9, #0
 8007d96:	07eb      	lsls	r3, r5, #31
 8007d98:	d50a      	bpl.n	8007db0 <__pow5mult+0x84>
 8007d9a:	4631      	mov	r1, r6
 8007d9c:	4622      	mov	r2, r4
 8007d9e:	4638      	mov	r0, r7
 8007da0:	f7ff ff1a 	bl	8007bd8 <__multiply>
 8007da4:	4631      	mov	r1, r6
 8007da6:	4680      	mov	r8, r0
 8007da8:	4638      	mov	r0, r7
 8007daa:	f7ff fe4b 	bl	8007a44 <_Bfree>
 8007dae:	4646      	mov	r6, r8
 8007db0:	106d      	asrs	r5, r5, #1
 8007db2:	d00b      	beq.n	8007dcc <__pow5mult+0xa0>
 8007db4:	6820      	ldr	r0, [r4, #0]
 8007db6:	b938      	cbnz	r0, 8007dc8 <__pow5mult+0x9c>
 8007db8:	4622      	mov	r2, r4
 8007dba:	4621      	mov	r1, r4
 8007dbc:	4638      	mov	r0, r7
 8007dbe:	f7ff ff0b 	bl	8007bd8 <__multiply>
 8007dc2:	6020      	str	r0, [r4, #0]
 8007dc4:	f8c0 9000 	str.w	r9, [r0]
 8007dc8:	4604      	mov	r4, r0
 8007dca:	e7e4      	b.n	8007d96 <__pow5mult+0x6a>
 8007dcc:	4630      	mov	r0, r6
 8007dce:	e8bd 83f8 	ldmia.w	sp!, {r3, r4, r5, r6, r7, r8, r9, pc}
 8007dd2:	bf00      	nop
 8007dd4:	08009168 	.word	0x08009168
 8007dd8:	0800908d 	.word	0x0800908d
 8007ddc:	0800910d 	.word	0x0800910d

08007de0 <__lshift>:
 8007de0:	e92d 47f0 	stmdb	sp!, {r4, r5, r6, r7, r8, r9, sl, lr}
 8007de4:	460c      	mov	r4, r1
 8007de6:	6849      	ldr	r1, [r1, #4]
 8007de8:	6923      	ldr	r3, [r4, #16]
 8007dea:	eb03 1862 	add.w	r8, r3, r2, asr #5
 8007dee:	68a3      	ldr	r3, [r4, #8]
 8007df0:	4607      	mov	r7, r0
 8007df2:	4691      	mov	r9, r2
 8007df4:	ea4f 1a62 	mov.w	sl, r2, asr #5
 8007df8:	f108 0601 	add.w	r6, r8, #1
 8007dfc:	42b3      	cmp	r3, r6
 8007dfe:	db0b      	blt.n	8007e18 <__lshift+0x38>
 8007e00:	4638      	mov	r0, r7
 8007e02:	f7ff fddf 	bl	80079c4 <_Balloc>
 8007e06:	4605      	mov	r5, r0
 8007e08:	b948      	cbnz	r0, 8007e1e <__lshift+0x3e>
 8007e0a:	4602      	mov	r2, r0
 8007e0c:	4b28      	ldr	r3, [pc, #160]	@ (8007eb0 <__lshift+0xd0>)
 8007e0e:	4829      	ldr	r0, [pc, #164]	@ (8007eb4 <__lshift+0xd4>)
 8007e10:	f44f 71ef 	mov.w	r1, #478	@ 0x1de
 8007e14:	f000 fb76 	bl	8008504 <__assert_func>
 8007e18:	3101      	adds	r1, #1
 8007e1a:	005b      	lsls	r3, r3, #1
 8007e1c:	e7ee      	b.n	8007dfc <__lshift+0x1c>
 8007e1e:	2300      	movs	r3, #0
 8007e20:	f100 0114 	add.w	r1, r0, #20
 8007e24:	f100 0210 	add.w	r2, r0, #16
 8007e28:	4618      	mov	r0, r3
 8007e2a:	4553      	cmp	r3, sl
 8007e2c:	db33      	blt.n	8007e96 <__lshift+0xb6>
 8007e2e:	6920      	ldr	r0, [r4, #16]
 8007e30:	ea2a 7aea 	bic.w	sl, sl, sl, asr #31
 8007e34:	f104 0314 	add.w	r3, r4, #20
 8007e38:	f019 091f 	ands.w	r9, r9, #31
 8007e3c:	eb01 018a 	add.w	r1, r1, sl, lsl #2
 8007e40:	eb03 0c80 	add.w	ip, r3, r0, lsl #2
 8007e44:	d02b      	beq.n	8007e9e <__lshift+0xbe>
 8007e46:	f1c9 0e20 	rsb	lr, r9, #32
 8007e4a:	468a      	mov	sl, r1
 8007e4c:	2200      	movs	r2, #0
 8007e4e:	6818      	ldr	r0, [r3, #0]
 8007e50:	fa00 f009 	lsl.w	r0, r0, r9
 8007e54:	4310      	orrs	r0, r2
 8007e56:	f84a 0b04 	str.w	r0, [sl], #4
 8007e5a:	f853 2b04 	ldr.w	r2, [r3], #4
 8007e5e:	459c      	cmp	ip, r3
 8007e60:	fa22 f20e 	lsr.w	r2, r2, lr
 8007e64:	d8f3      	bhi.n	8007e4e <__lshift+0x6e>
 8007e66:	ebac 0304 	sub.w	r3, ip, r4
 8007e6a:	3b15      	subs	r3, #21
 8007e6c:	f023 0303 	bic.w	r3, r3, #3
 8007e70:	3304      	adds	r3, #4
 8007e72:	f104 0015 	add.w	r0, r4, #21
 8007e76:	4584      	cmp	ip, r0
 8007e78:	bf38      	it	cc
 8007e7a:	2304      	movcc	r3, #4
 8007e7c:	50ca      	str	r2, [r1, r3]
 8007e7e:	b10a      	cbz	r2, 8007e84 <__lshift+0xa4>
 8007e80:	f108 0602 	add.w	r6, r8, #2
 8007e84:	3e01      	subs	r6, #1
 8007e86:	4638      	mov	r0, r7
 8007e88:	612e      	str	r6, [r5, #16]
 8007e8a:	4621      	mov	r1, r4
 8007e8c:	f7ff fdda 	bl	8007a44 <_Bfree>
 8007e90:	4628      	mov	r0, r5
 8007e92:	e8bd 87f0 	ldmia.w	sp!, {r4, r5, r6, r7, r8, r9, sl, pc}
 8007e96:	f842 0f04 	str.w	r0, [r2, #4]!
 8007e9a:	3301      	adds	r3, #1
 8007e9c:	e7c5      	b.n	8007e2a <__lshift+0x4a>
 8007e9e:	3904      	subs	r1, #4
 8007ea0:	f853 2b04 	ldr.w	r2, [r3], #4
 8007ea4:	f841 2f04 	str.w	r2, [r1, #4]!
 8007ea8:	459c      	cmp	ip, r3
 8007eaa:	d8f9      	bhi.n	8007ea0 <__lshift+0xc0>
 8007eac:	e7ea      	b.n	8007e84 <__lshift+0xa4>
 8007eae:	bf00      	nop
 8007eb0:	080090fc 	.word	0x080090fc
 8007eb4:	0800910d 	.word	0x0800910d

08007eb8 <__mcmp>:
 8007eb8:	690a      	ldr	r2, [r1, #16]
 8007eba:	4603      	mov	r3, r0
 8007ebc:	6900      	ldr	r0, [r0, #16]
 8007ebe:	1a80      	subs	r0, r0, r2
 8007ec0:	b530      	push	{r4, r5, lr}
 8007ec2:	d10e      	bne.n	8007ee2 <__mcmp+0x2a>
 8007ec4:	3314      	adds	r3, #20
 8007ec6:	3114      	adds	r1, #20
 8007ec8:	eb03 0482 	add.w	r4, r3, r2, lsl #2
 8007ecc:	eb01 0182 	add.w	r1, r1, r2, lsl #2
 8007ed0:	f854 5d04 	ldr.w	r5, [r4, #-4]!
 8007ed4:	f851 2d04 	ldr.w	r2, [r1, #-4]!
 8007ed8:	4295      	cmp	r5, r2
 8007eda:	d003      	beq.n	8007ee4 <__mcmp+0x2c>
 8007edc:	d205      	bcs.n	8007eea <__mcmp+0x32>
 8007ede:	f04f 30ff 	mov.w	r0, #4294967295
 8007ee2:	bd30      	pop	{r4, r5, pc}
 8007ee4:	42a3      	cmp	r3, r4
 8007ee6:	d3f3      	bcc.n	8007ed0 <__mcmp+0x18>
 8007ee8:	e7fb      	b.n	8007ee2 <__mcmp+0x2a>
 8007eea:	2001      	movs	r0, #1
 8007eec:	e7f9      	b.n	8007ee2 <__mcmp+0x2a>
	...

08007ef0 <__mdiff>:
 8007ef0:	e92d 4ff7 	stmdb	sp!, {r0, r1, r2, r4, r5, r6, r7, r8, r9, sl, fp, lr}
 8007ef4:	4689      	mov	r9, r1
 8007ef6:	4606      	mov	r6, r0
 8007ef8:	4611      	mov	r1, r2
 8007efa:	4648      	mov	r0, r9
 8007efc:	4614      	mov	r4, r2
 8007efe:	f7ff ffdb 	bl	8007eb8 <__mcmp>
 8007f02:	1e05      	subs	r5, r0, #0
 8007f04:	d112      	bne.n	8007f2c <__mdiff+0x3c>
 8007f06:	4629      	mov	r1, r5
 8007f08:	4630      	mov	r0, r6
 8007f0a:	f7ff fd5b 	bl	80079c4 <_Balloc>
 8007f0e:	4602      	mov	r2, r0
 8007f10:	b928      	cbnz	r0, 8007f1e <__mdiff+0x2e>
 8007f12:	4b3f      	ldr	r3, [pc, #252]	@ (8008010 <__mdiff+0x120>)
 8007f14:	f240 2137 	movw	r1, #567	@ 0x237
 8007f18:	483e      	ldr	r0, [pc, #248]	@ (8008014 <__mdiff+0x124>)
 8007f1a:	f000 faf3 	bl	8008504 <__assert_func>
 8007f1e:	2301      	movs	r3, #1
 8007f20:	e9c0 3504 	strd	r3, r5, [r0, #16]
 8007f24:	4610      	mov	r0, r2
 8007f26:	b003      	add	sp, #12
 8007f28:	e8bd 8ff0 	ldmia.w	sp!, {r4, r5, r6, r7, r8, r9, sl, fp, pc}
 8007f2c:	bfbc      	itt	lt
 8007f2e:	464b      	movlt	r3, r9
 8007f30:	46a1      	movlt	r9, r4
 8007f32:	4630      	mov	r0, r6
 8007f34:	f8d9 1004 	ldr.w	r1, [r9, #4]
 8007f38:	bfba      	itte	lt
 8007f3a:	461c      	movlt	r4, r3
 8007f3c:	2501      	movlt	r5, #1
 8007f3e:	2500      	movge	r5, #0
 8007f40:	f7ff fd40 	bl	80079c4 <_Balloc>
 8007f44:	4602      	mov	r2, r0
 8007f46:	b918      	cbnz	r0, 8007f50 <__mdiff+0x60>
 8007f48:	4b31      	ldr	r3, [pc, #196]	@ (8008010 <__mdiff+0x120>)
 8007f4a:	f240 2145 	movw	r1, #581	@ 0x245
 8007f4e:	e7e3      	b.n	8007f18 <__mdiff+0x28>
 8007f50:	f8d9 7010 	ldr.w	r7, [r9, #16]
 8007f54:	6926      	ldr	r6, [r4, #16]
 8007f56:	60c5      	str	r5, [r0, #12]
 8007f58:	f109 0310 	add.w	r3, r9, #16
 8007f5c:	f109 0514 	add.w	r5, r9, #20
 8007f60:	f104 0e14 	add.w	lr, r4, #20
 8007f64:	f100 0b14 	add.w	fp, r0, #20
 8007f68:	eb05 0887 	add.w	r8, r5, r7, lsl #2
 8007f6c:	eb0e 0686 	add.w	r6, lr, r6, lsl #2
 8007f70:	9301      	str	r3, [sp, #4]
 8007f72:	46d9      	mov	r9, fp
 8007f74:	f04f 0c00 	mov.w	ip, #0
 8007f78:	9b01      	ldr	r3, [sp, #4]
 8007f7a:	f85e 0b04 	ldr.w	r0, [lr], #4
 8007f7e:	f853 af04 	ldr.w	sl, [r3, #4]!
 8007f82:	9301      	str	r3, [sp, #4]
 8007f84:	fa1f f38a 	uxth.w	r3, sl
 8007f88:	4619      	mov	r1, r3
 8007f8a:	b283      	uxth	r3, r0
 8007f8c:	1acb      	subs	r3, r1, r3
 8007f8e:	0c00      	lsrs	r0, r0, #16
 8007f90:	4463      	add	r3, ip
 8007f92:	ebc0 401a 	rsb	r0, r0, sl, lsr #16
 8007f96:	eb00 4023 	add.w	r0, r0, r3, asr #16
 8007f9a:	b29b      	uxth	r3, r3
 8007f9c:	ea43 4300 	orr.w	r3, r3, r0, lsl #16
 8007fa0:	4576      	cmp	r6, lr
 8007fa2:	f849 3b04 	str.w	r3, [r9], #4
 8007fa6:	ea4f 4c20 	mov.w	ip, r0, asr #16
 8007faa:	d8e5      	bhi.n	8007f78 <__mdiff+0x88>
 8007fac:	1b33      	subs	r3, r6, r4
 8007fae:	3b15      	subs	r3, #21
 8007fb0:	f023 0303 	bic.w	r3, r3, #3
 8007fb4:	3415      	adds	r4, #21
 8007fb6:	3304      	adds	r3, #4
 8007fb8:	42a6      	cmp	r6, r4
 8007fba:	bf38      	it	cc
 8007fbc:	2304      	movcc	r3, #4
 8007fbe:	441d      	add	r5, r3
 8007fc0:	445b      	add	r3, fp
 8007fc2:	461e      	mov	r6, r3
 8007fc4:	462c      	mov	r4, r5
 8007fc6:	4544      	cmp	r4, r8
 8007fc8:	d30e      	bcc.n	8007fe8 <__mdiff+0xf8>
 8007fca:	f108 0103 	add.w	r1, r8, #3
 8007fce:	1b49      	subs	r1, r1, r5
 8007fd0:	f021 0103 	bic.w	r1, r1, #3
 8007fd4:	3d03      	subs	r5, #3
 8007fd6:	45a8      	cmp	r8, r5
 8007fd8:	bf38      	it	cc
 8007fda:	2100      	movcc	r1, #0
 8007fdc:	440b      	add	r3, r1
 8007fde:	f853 1d04 	ldr.w	r1, [r3, #-4]!
 8007fe2:	b191      	cbz	r1, 800800a <__mdiff+0x11a>
 8007fe4:	6117      	str	r7, [r2, #16]
 8007fe6:	e79d      	b.n	8007f24 <__mdiff+0x34>
 8007fe8:	f854 1b04 	ldr.w	r1, [r4], #4
 8007fec:	46e6      	mov	lr, ip
 8007fee:	0c08      	lsrs	r0, r1, #16
 8007ff0:	fa1c fc81 	uxtah	ip, ip, r1
 8007ff4:	4471      	add	r1, lr
 8007ff6:	eb00 402c 	add.w	r0, r0, ip, asr #16
 8007ffa:	b289      	uxth	r1, r1
 8007ffc:	ea41 4100 	orr.w	r1, r1, r0, lsl #16
 8008000:	f846 1b04 	str.w	r1, [r6], #4
 8008004:	ea4f 4c20 	mov.w	ip, r0, asr #16
 8008008:	e7dd      	b.n	8007fc6 <__mdiff+0xd6>
 800800a:	3f01      	subs	r7, #1
 800800c:	e7e7      	b.n	8007fde <__mdiff+0xee>
 800800e:	bf00      	nop
 8008010:	080090fc 	.word	0x080090fc
 8008014:	0800910d 	.word	0x0800910d

08008018 <__d2b>:
 8008018:	e92d 43f7 	stmdb	sp!, {r0, r1, r2, r4, r5, r6, r7, r8, r9, lr}
 800801c:	460f      	mov	r7, r1
 800801e:	2101      	movs	r1, #1
 8008020:	ec59 8b10 	vmov	r8, r9, d0
 8008024:	4616      	mov	r6, r2
 8008026:	f7ff fccd 	bl	80079c4 <_Balloc>
 800802a:	4604      	mov	r4, r0
 800802c:	b930      	cbnz	r0, 800803c <__d2b+0x24>
 800802e:	4602      	mov	r2, r0
 8008030:	4b23      	ldr	r3, [pc, #140]	@ (80080c0 <__d2b+0xa8>)
 8008032:	4824      	ldr	r0, [pc, #144]	@ (80080c4 <__d2b+0xac>)
 8008034:	f240 310f 	movw	r1, #783	@ 0x30f
 8008038:	f000 fa64 	bl	8008504 <__assert_func>
 800803c:	f3c9 550a 	ubfx	r5, r9, #20, #11
 8008040:	f3c9 0313 	ubfx	r3, r9, #0, #20
 8008044:	b10d      	cbz	r5, 800804a <__d2b+0x32>
 8008046:	f443 1380 	orr.w	r3, r3, #1048576	@ 0x100000
 800804a:	9301      	str	r3, [sp, #4]
 800804c:	f1b8 0300 	subs.w	r3, r8, #0
 8008050:	d023      	beq.n	800809a <__d2b+0x82>
 8008052:	4668      	mov	r0, sp
 8008054:	9300      	str	r3, [sp, #0]
 8008056:	f7ff fd7c 	bl	8007b52 <__lo0bits>
 800805a:	e9dd 1200 	ldrd	r1, r2, [sp]
 800805e:	b1d0      	cbz	r0, 8008096 <__d2b+0x7e>
 8008060:	f1c0 0320 	rsb	r3, r0, #32
 8008064:	fa02 f303 	lsl.w	r3, r2, r3
 8008068:	430b      	orrs	r3, r1
 800806a:	40c2      	lsrs	r2, r0
 800806c:	6163      	str	r3, [r4, #20]
 800806e:	9201      	str	r2, [sp, #4]
 8008070:	9b01      	ldr	r3, [sp, #4]
 8008072:	61a3      	str	r3, [r4, #24]
 8008074:	2b00      	cmp	r3, #0
 8008076:	bf0c      	ite	eq
 8008078:	2201      	moveq	r2, #1
 800807a:	2202      	movne	r2, #2
 800807c:	6122      	str	r2, [r4, #16]
 800807e:	b1a5      	cbz	r5, 80080aa <__d2b+0x92>
 8008080:	f2a5 4533 	subw	r5, r5, #1075	@ 0x433
 8008084:	4405      	add	r5, r0
 8008086:	603d      	str	r5, [r7, #0]
 8008088:	f1c0 0035 	rsb	r0, r0, #53	@ 0x35
 800808c:	6030      	str	r0, [r6, #0]
 800808e:	4620      	mov	r0, r4
 8008090:	b003      	add	sp, #12
 8008092:	e8bd 83f0 	ldmia.w	sp!, {r4, r5, r6, r7, r8, r9, pc}
 8008096:	6161      	str	r1, [r4, #20]
 8008098:	e7ea      	b.n	8008070 <__d2b+0x58>
 800809a:	a801      	add	r0, sp, #4
 800809c:	f7ff fd59 	bl	8007b52 <__lo0bits>
 80080a0:	9b01      	ldr	r3, [sp, #4]
 80080a2:	6163      	str	r3, [r4, #20]
 80080a4:	3020      	adds	r0, #32
 80080a6:	2201      	movs	r2, #1
 80080a8:	e7e8      	b.n	800807c <__d2b+0x64>
 80080aa:	eb04 0382 	add.w	r3, r4, r2, lsl #2
 80080ae:	f2a0 4032 	subw	r0, r0, #1074	@ 0x432
 80080b2:	6038      	str	r0, [r7, #0]
 80080b4:	6918      	ldr	r0, [r3, #16]
 80080b6:	f7ff fd2d 	bl	8007b14 <__hi0bits>
 80080ba:	ebc0 1042 	rsb	r0, r0, r2, lsl #5
 80080be:	e7e5      	b.n	800808c <__d2b+0x74>
 80080c0:	080090fc 	.word	0x080090fc
 80080c4:	0800910d 	.word	0x0800910d

080080c8 <__ssputs_r>:
 80080c8:	e92d 47f0 	stmdb	sp!, {r4, r5, r6, r7, r8, r9, sl, lr}
 80080cc:	688e      	ldr	r6, [r1, #8]
 80080ce:	461f      	mov	r7, r3
 80080d0:	42be      	cmp	r6, r7
 80080d2:	680b      	ldr	r3, [r1, #0]
 80080d4:	4682      	mov	sl, r0
 80080d6:	460c      	mov	r4, r1
 80080d8:	4690      	mov	r8, r2
 80080da:	d82d      	bhi.n	8008138 <__ssputs_r+0x70>
 80080dc:	f9b1 200c 	ldrsh.w	r2, [r1, #12]
 80080e0:	f412 6f90 	tst.w	r2, #1152	@ 0x480
 80080e4:	d026      	beq.n	8008134 <__ssputs_r+0x6c>
 80080e6:	6965      	ldr	r5, [r4, #20]
 80080e8:	6909      	ldr	r1, [r1, #16]
 80080ea:	eb05 0545 	add.w	r5, r5, r5, lsl #1
 80080ee:	eba3 0901 	sub.w	r9, r3, r1
 80080f2:	eb05 75d5 	add.w	r5, r5, r5, lsr #31
 80080f6:	1c7b      	adds	r3, r7, #1
 80080f8:	444b      	add	r3, r9
 80080fa:	106d      	asrs	r5, r5, #1
 80080fc:	429d      	cmp	r5, r3
 80080fe:	bf38      	it	cc
 8008100:	461d      	movcc	r5, r3
 8008102:	0553      	lsls	r3, r2, #21
 8008104:	d527      	bpl.n	8008156 <__ssputs_r+0x8e>
 8008106:	4629      	mov	r1, r5
 8008108:	f7fd ff22 	bl	8005f50 <_malloc_r>
 800810c:	4606      	mov	r6, r0
 800810e:	b360      	cbz	r0, 800816a <__ssputs_r+0xa2>
 8008110:	6921      	ldr	r1, [r4, #16]
 8008112:	464a      	mov	r2, r9
 8008114:	f7fe fdaf 	bl	8006c76 <memcpy>
 8008118:	89a3      	ldrh	r3, [r4, #12]
 800811a:	f423 6390 	bic.w	r3, r3, #1152	@ 0x480
 800811e:	f043 0380 	orr.w	r3, r3, #128	@ 0x80
 8008122:	81a3      	strh	r3, [r4, #12]
 8008124:	6126      	str	r6, [r4, #16]
 8008126:	6165      	str	r5, [r4, #20]
 8008128:	444e      	add	r6, r9
 800812a:	eba5 0509 	sub.w	r5, r5, r9
 800812e:	6026      	str	r6, [r4, #0]
 8008130:	60a5      	str	r5, [r4, #8]
 8008132:	463e      	mov	r6, r7
 8008134:	42be      	cmp	r6, r7
 8008136:	d900      	bls.n	800813a <__ssputs_r+0x72>
 8008138:	463e      	mov	r6, r7
 800813a:	6820      	ldr	r0, [r4, #0]
 800813c:	4632      	mov	r2, r6
 800813e:	4641      	mov	r1, r8
 8008140:	f000 f9c6 	bl	80084d0 <memmove>
 8008144:	68a3      	ldr	r3, [r4, #8]
 8008146:	1b9b      	subs	r3, r3, r6
 8008148:	60a3      	str	r3, [r4, #8]
 800814a:	6823      	ldr	r3, [r4, #0]
 800814c:	4433      	add	r3, r6
 800814e:	6023      	str	r3, [r4, #0]
 8008150:	2000      	movs	r0, #0
 8008152:	e8bd 87f0 	ldmia.w	sp!, {r4, r5, r6, r7, r8, r9, sl, pc}
 8008156:	462a      	mov	r2, r5
 8008158:	f000 fa04 	bl	8008564 <_realloc_r>
 800815c:	4606      	mov	r6, r0
 800815e:	2800      	cmp	r0, #0
 8008160:	d1e0      	bne.n	8008124 <__ssputs_r+0x5c>
 8008162:	6921      	ldr	r1, [r4, #16]
 8008164:	4650      	mov	r0, sl
 8008166:	f7ff fbe3 	bl	8007930 <_free_r>
 800816a:	230c      	movs	r3, #12
 800816c:	f8ca 3000 	str.w	r3, [sl]
 8008170:	89a3      	ldrh	r3, [r4, #12]
 8008172:	f043 0340 	orr.w	r3, r3, #64	@ 0x40
 8008176:	81a3      	strh	r3, [r4, #12]
 8008178:	f04f 30ff 	mov.w	r0, #4294967295
 800817c:	e7e9      	b.n	8008152 <__ssputs_r+0x8a>
	...

08008180 <_svfiprintf_r>:
 8008180:	e92d 4ff0 	stmdb	sp!, {r4, r5, r6, r7, r8, r9, sl, fp, lr}
 8008184:	4698      	mov	r8, r3
 8008186:	898b      	ldrh	r3, [r1, #12]
 8008188:	061b      	lsls	r3, r3, #24
 800818a:	b09d      	sub	sp, #116	@ 0x74
 800818c:	4607      	mov	r7, r0
 800818e:	460d      	mov	r5, r1
 8008190:	4614      	mov	r4, r2
 8008192:	d510      	bpl.n	80081b6 <_svfiprintf_r+0x36>
 8008194:	690b      	ldr	r3, [r1, #16]
 8008196:	b973      	cbnz	r3, 80081b6 <_svfiprintf_r+0x36>
 8008198:	2140      	movs	r1, #64	@ 0x40
 800819a:	f7fd fed9 	bl	8005f50 <_malloc_r>
 800819e:	6028      	str	r0, [r5, #0]
 80081a0:	6128      	str	r0, [r5, #16]
 80081a2:	b930      	cbnz	r0, 80081b2 <_svfiprintf_r+0x32>
 80081a4:	230c      	movs	r3, #12
 80081a6:	603b      	str	r3, [r7, #0]
 80081a8:	f04f 30ff 	mov.w	r0, #4294967295
 80081ac:	b01d      	add	sp, #116	@ 0x74
 80081ae:	e8bd 8ff0 	ldmia.w	sp!, {r4, r5, r6, r7, r8, r9, sl, fp, pc}
 80081b2:	2340      	movs	r3, #64	@ 0x40
 80081b4:	616b      	str	r3, [r5, #20]
 80081b6:	2300      	movs	r3, #0
 80081b8:	9309      	str	r3, [sp, #36]	@ 0x24
 80081ba:	2320      	movs	r3, #32
 80081bc:	f88d 3029 	strb.w	r3, [sp, #41]	@ 0x29
 80081c0:	f8cd 800c 	str.w	r8, [sp, #12]
 80081c4:	2330      	movs	r3, #48	@ 0x30
 80081c6:	f8df 819c 	ldr.w	r8, [pc, #412]	@ 8008364 <_svfiprintf_r+0x1e4>
 80081ca:	f88d 302a 	strb.w	r3, [sp, #42]	@ 0x2a
 80081ce:	f04f 0901 	mov.w	r9, #1
 80081d2:	4623      	mov	r3, r4
 80081d4:	469a      	mov	sl, r3
 80081d6:	f813 2b01 	ldrb.w	r2, [r3], #1
 80081da:	b10a      	cbz	r2, 80081e0 <_svfiprintf_r+0x60>
 80081dc:	2a25      	cmp	r2, #37	@ 0x25
 80081de:	d1f9      	bne.n	80081d4 <_svfiprintf_r+0x54>
 80081e0:	ebba 0b04 	subs.w	fp, sl, r4
 80081e4:	d00b      	beq.n	80081fe <_svfiprintf_r+0x7e>
 80081e6:	465b      	mov	r3, fp
 80081e8:	4622      	mov	r2, r4
 80081ea:	4629      	mov	r1, r5
 80081ec:	4638      	mov	r0, r7
 80081ee:	f7ff ff6b 	bl	80080c8 <__ssputs_r>
 80081f2:	3001      	adds	r0, #1
 80081f4:	f000 80a7 	beq.w	8008346 <_svfiprintf_r+0x1c6>
 80081f8:	9a09      	ldr	r2, [sp, #36]	@ 0x24
 80081fa:	445a      	add	r2, fp
 80081fc:	9209      	str	r2, [sp, #36]	@ 0x24
 80081fe:	f89a 3000 	ldrb.w	r3, [sl]
 8008202:	2b00      	cmp	r3, #0
 8008204:	f000 809f 	beq.w	8008346 <_svfiprintf_r+0x1c6>
 8008208:	2300      	movs	r3, #0
 800820a:	f04f 32ff 	mov.w	r2, #4294967295
 800820e:	e9cd 2305 	strd	r2, r3, [sp, #20]
 8008212:	f10a 0a01 	add.w	sl, sl, #1
 8008216:	9304      	str	r3, [sp, #16]
 8008218:	9307      	str	r3, [sp, #28]
 800821a:	f88d 3053 	strb.w	r3, [sp, #83]	@ 0x53
 800821e:	931a      	str	r3, [sp, #104]	@ 0x68
 8008220:	4654      	mov	r4, sl
 8008222:	2205      	movs	r2, #5
 8008224:	f814 1b01 	ldrb.w	r1, [r4], #1
 8008228:	484e      	ldr	r0, [pc, #312]	@ (8008364 <_svfiprintf_r+0x1e4>)
 800822a:	f7f7 fff1 	bl	8000210 <memchr>
 800822e:	9a04      	ldr	r2, [sp, #16]
 8008230:	b9d8      	cbnz	r0, 800826a <_svfiprintf_r+0xea>
 8008232:	06d0      	lsls	r0, r2, #27
 8008234:	bf44      	itt	mi
 8008236:	2320      	movmi	r3, #32
 8008238:	f88d 3053 	strbmi.w	r3, [sp, #83]	@ 0x53
 800823c:	0711      	lsls	r1, r2, #28
 800823e:	bf44      	itt	mi
 8008240:	232b      	movmi	r3, #43	@ 0x2b
 8008242:	f88d 3053 	strbmi.w	r3, [sp, #83]	@ 0x53
 8008246:	f89a 3000 	ldrb.w	r3, [sl]
 800824a:	2b2a      	cmp	r3, #42	@ 0x2a
 800824c:	d015      	beq.n	800827a <_svfiprintf_r+0xfa>
 800824e:	9a07      	ldr	r2, [sp, #28]
 8008250:	4654      	mov	r4, sl
 8008252:	2000      	movs	r0, #0
 8008254:	f04f 0c0a 	mov.w	ip, #10
 8008258:	4621      	mov	r1, r4
 800825a:	f811 3b01 	ldrb.w	r3, [r1], #1
 800825e:	3b30      	subs	r3, #48	@ 0x30
 8008260:	2b09      	cmp	r3, #9
 8008262:	d94b      	bls.n	80082fc <_svfiprintf_r+0x17c>
 8008264:	b1b0      	cbz	r0, 8008294 <_svfiprintf_r+0x114>
 8008266:	9207      	str	r2, [sp, #28]
 8008268:	e014      	b.n	8008294 <_svfiprintf_r+0x114>
 800826a:	eba0 0308 	sub.w	r3, r0, r8
 800826e:	fa09 f303 	lsl.w	r3, r9, r3
 8008272:	4313      	orrs	r3, r2
 8008274:	9304      	str	r3, [sp, #16]
 8008276:	46a2      	mov	sl, r4
 8008278:	e7d2      	b.n	8008220 <_svfiprintf_r+0xa0>
 800827a:	9b03      	ldr	r3, [sp, #12]
 800827c:	1d19      	adds	r1, r3, #4
 800827e:	681b      	ldr	r3, [r3, #0]
 8008280:	9103      	str	r1, [sp, #12]
 8008282:	2b00      	cmp	r3, #0
 8008284:	bfbb      	ittet	lt
 8008286:	425b      	neglt	r3, r3
 8008288:	f042 0202 	orrlt.w	r2, r2, #2
 800828c:	9307      	strge	r3, [sp, #28]
 800828e:	9307      	strlt	r3, [sp, #28]
 8008290:	bfb8      	it	lt
 8008292:	9204      	strlt	r2, [sp, #16]
 8008294:	7823      	ldrb	r3, [r4, #0]
 8008296:	2b2e      	cmp	r3, #46	@ 0x2e
 8008298:	d10a      	bne.n	80082b0 <_svfiprintf_r+0x130>
 800829a:	7863      	ldrb	r3, [r4, #1]
 800829c:	2b2a      	cmp	r3, #42	@ 0x2a
 800829e:	d132      	bne.n	8008306 <_svfiprintf_r+0x186>
 80082a0:	9b03      	ldr	r3, [sp, #12]
 80082a2:	1d1a      	adds	r2, r3, #4
 80082a4:	681b      	ldr	r3, [r3, #0]
 80082a6:	9203      	str	r2, [sp, #12]
 80082a8:	ea43 73e3 	orr.w	r3, r3, r3, asr #31
 80082ac:	3402      	adds	r4, #2
 80082ae:	9305      	str	r3, [sp, #20]
 80082b0:	f8df a0c0 	ldr.w	sl, [pc, #192]	@ 8008374 <_svfiprintf_r+0x1f4>
 80082b4:	7821      	ldrb	r1, [r4, #0]
 80082b6:	2203      	movs	r2, #3
 80082b8:	4650      	mov	r0, sl
 80082ba:	f7f7 ffa9 	bl	8000210 <memchr>
 80082be:	b138      	cbz	r0, 80082d0 <_svfiprintf_r+0x150>
 80082c0:	9b04      	ldr	r3, [sp, #16]
 80082c2:	eba0 000a 	sub.w	r0, r0, sl
 80082c6:	2240      	movs	r2, #64	@ 0x40
 80082c8:	4082      	lsls	r2, r0
 80082ca:	4313      	orrs	r3, r2
 80082cc:	3401      	adds	r4, #1
 80082ce:	9304      	str	r3, [sp, #16]
 80082d0:	f814 1b01 	ldrb.w	r1, [r4], #1
 80082d4:	4824      	ldr	r0, [pc, #144]	@ (8008368 <_svfiprintf_r+0x1e8>)
 80082d6:	f88d 1028 	strb.w	r1, [sp, #40]	@ 0x28
 80082da:	2206      	movs	r2, #6
 80082dc:	f7f7 ff98 	bl	8000210 <memchr>
 80082e0:	2800      	cmp	r0, #0
 80082e2:	d036      	beq.n	8008352 <_svfiprintf_r+0x1d2>
 80082e4:	4b21      	ldr	r3, [pc, #132]	@ (800836c <_svfiprintf_r+0x1ec>)
 80082e6:	bb1b      	cbnz	r3, 8008330 <_svfiprintf_r+0x1b0>
 80082e8:	9b03      	ldr	r3, [sp, #12]
 80082ea:	3307      	adds	r3, #7
 80082ec:	f023 0307 	bic.w	r3, r3, #7
 80082f0:	3308      	adds	r3, #8
 80082f2:	9303      	str	r3, [sp, #12]
 80082f4:	9b09      	ldr	r3, [sp, #36]	@ 0x24
 80082f6:	4433      	add	r3, r6
 80082f8:	9309      	str	r3, [sp, #36]	@ 0x24
 80082fa:	e76a      	b.n	80081d2 <_svfiprintf_r+0x52>
 80082fc:	fb0c 3202 	mla	r2, ip, r2, r3
 8008300:	460c      	mov	r4, r1
 8008302:	2001      	movs	r0, #1
 8008304:	e7a8      	b.n	8008258 <_svfiprintf_r+0xd8>
 8008306:	2300      	movs	r3, #0
 8008308:	3401      	adds	r4, #1
 800830a:	9305      	str	r3, [sp, #20]
 800830c:	4619      	mov	r1, r3
 800830e:	f04f 0c0a 	mov.w	ip, #10
 8008312:	4620      	mov	r0, r4
 8008314:	f810 2b01 	ldrb.w	r2, [r0], #1
 8008318:	3a30      	subs	r2, #48	@ 0x30
 800831a:	2a09      	cmp	r2, #9
 800831c:	d903      	bls.n	8008326 <_svfiprintf_r+0x1a6>
 800831e:	2b00      	cmp	r3, #0
 8008320:	d0c6      	beq.n	80082b0 <_svfiprintf_r+0x130>
 8008322:	9105      	str	r1, [sp, #20]
 8008324:	e7c4      	b.n	80082b0 <_svfiprintf_r+0x130>
 8008326:	fb0c 2101 	mla	r1, ip, r1, r2
 800832a:	4604      	mov	r4, r0
 800832c:	2301      	movs	r3, #1
 800832e:	e7f0      	b.n	8008312 <_svfiprintf_r+0x192>
 8008330:	ab03      	add	r3, sp, #12
 8008332:	9300      	str	r3, [sp, #0]
 8008334:	462a      	mov	r2, r5
 8008336:	4b0e      	ldr	r3, [pc, #56]	@ (8008370 <_svfiprintf_r+0x1f0>)
 8008338:	a904      	add	r1, sp, #16
 800833a:	4638      	mov	r0, r7
 800833c:	f7fd ff34 	bl	80061a8 <_printf_float>
 8008340:	1c42      	adds	r2, r0, #1
 8008342:	4606      	mov	r6, r0
 8008344:	d1d6      	bne.n	80082f4 <_svfiprintf_r+0x174>
 8008346:	89ab      	ldrh	r3, [r5, #12]
 8008348:	065b      	lsls	r3, r3, #25
 800834a:	f53f af2d 	bmi.w	80081a8 <_svfiprintf_r+0x28>
 800834e:	9809      	ldr	r0, [sp, #36]	@ 0x24
 8008350:	e72c      	b.n	80081ac <_svfiprintf_r+0x2c>
 8008352:	ab03      	add	r3, sp, #12
 8008354:	9300      	str	r3, [sp, #0]
 8008356:	462a      	mov	r2, r5
 8008358:	4b05      	ldr	r3, [pc, #20]	@ (8008370 <_svfiprintf_r+0x1f0>)
 800835a:	a904      	add	r1, sp, #16
 800835c:	4638      	mov	r0, r7
 800835e:	f7fe f9bb 	bl	80066d8 <_printf_i>
 8008362:	e7ed      	b.n	8008340 <_svfiprintf_r+0x1c0>
 8008364:	08009268 	.word	0x08009268
 8008368:	08009272 	.word	0x08009272
 800836c:	080061a9 	.word	0x080061a9
 8008370:	080080c9 	.word	0x080080c9
 8008374:	0800926e 	.word	0x0800926e

08008378 <__sflush_r>:
 8008378:	f9b1 200c 	ldrsh.w	r2, [r1, #12]
 800837c:	e92d 41f0 	stmdb	sp!, {r4, r5, r6, r7, r8, lr}
 8008380:	0716      	lsls	r6, r2, #28
 8008382:	4605      	mov	r5, r0
 8008384:	460c      	mov	r4, r1
 8008386:	d454      	bmi.n	8008432 <__sflush_r+0xba>
 8008388:	684b      	ldr	r3, [r1, #4]
 800838a:	2b00      	cmp	r3, #0
 800838c:	dc02      	bgt.n	8008394 <__sflush_r+0x1c>
 800838e:	6c0b      	ldr	r3, [r1, #64]	@ 0x40
 8008390:	2b00      	cmp	r3, #0
 8008392:	dd48      	ble.n	8008426 <__sflush_r+0xae>
 8008394:	6ae6      	ldr	r6, [r4, #44]	@ 0x2c
 8008396:	2e00      	cmp	r6, #0
 8008398:	d045      	beq.n	8008426 <__sflush_r+0xae>
 800839a:	2300      	movs	r3, #0
 800839c:	f412 5280 	ands.w	r2, r2, #4096	@ 0x1000
 80083a0:	682f      	ldr	r7, [r5, #0]
 80083a2:	6a21      	ldr	r1, [r4, #32]
 80083a4:	602b      	str	r3, [r5, #0]
 80083a6:	d030      	beq.n	800840a <__sflush_r+0x92>
 80083a8:	6d62      	ldr	r2, [r4, #84]	@ 0x54
 80083aa:	89a3      	ldrh	r3, [r4, #12]
 80083ac:	0759      	lsls	r1, r3, #29
 80083ae:	d505      	bpl.n	80083bc <__sflush_r+0x44>
 80083b0:	6863      	ldr	r3, [r4, #4]
 80083b2:	1ad2      	subs	r2, r2, r3
 80083b4:	6b63      	ldr	r3, [r4, #52]	@ 0x34
 80083b6:	b10b      	cbz	r3, 80083bc <__sflush_r+0x44>
 80083b8:	6c23      	ldr	r3, [r4, #64]	@ 0x40
 80083ba:	1ad2      	subs	r2, r2, r3
 80083bc:	2300      	movs	r3, #0
 80083be:	6ae6      	ldr	r6, [r4, #44]	@ 0x2c
 80083c0:	6a21      	ldr	r1, [r4, #32]
 80083c2:	4628      	mov	r0, r5
 80083c4:	47b0      	blx	r6
 80083c6:	1c43      	adds	r3, r0, #1
 80083c8:	89a3      	ldrh	r3, [r4, #12]
 80083ca:	d106      	bne.n	80083da <__sflush_r+0x62>
 80083cc:	6829      	ldr	r1, [r5, #0]
 80083ce:	291d      	cmp	r1, #29
 80083d0:	d82b      	bhi.n	800842a <__sflush_r+0xb2>
 80083d2:	4a2a      	ldr	r2, [pc, #168]	@ (800847c <__sflush_r+0x104>)
 80083d4:	410a      	asrs	r2, r1
 80083d6:	07d6      	lsls	r6, r2, #31
 80083d8:	d427      	bmi.n	800842a <__sflush_r+0xb2>
 80083da:	2200      	movs	r2, #0
 80083dc:	6062      	str	r2, [r4, #4]
 80083de:	04d9      	lsls	r1, r3, #19
 80083e0:	6922      	ldr	r2, [r4, #16]
 80083e2:	6022      	str	r2, [r4, #0]
 80083e4:	d504      	bpl.n	80083f0 <__sflush_r+0x78>
 80083e6:	1c42      	adds	r2, r0, #1
 80083e8:	d101      	bne.n	80083ee <__sflush_r+0x76>
 80083ea:	682b      	ldr	r3, [r5, #0]
 80083ec:	b903      	cbnz	r3, 80083f0 <__sflush_r+0x78>
 80083ee:	6560      	str	r0, [r4, #84]	@ 0x54
 80083f0:	6b61      	ldr	r1, [r4, #52]	@ 0x34
 80083f2:	602f      	str	r7, [r5, #0]
 80083f4:	b1b9      	cbz	r1, 8008426 <__sflush_r+0xae>
 80083f6:	f104 0344 	add.w	r3, r4, #68	@ 0x44
 80083fa:	4299      	cmp	r1, r3
 80083fc:	d002      	beq.n	8008404 <__sflush_r+0x8c>
 80083fe:	4628      	mov	r0, r5
 8008400:	f7ff fa96 	bl	8007930 <_free_r>
 8008404:	2300      	movs	r3, #0
 8008406:	6363      	str	r3, [r4, #52]	@ 0x34
 8008408:	e00d      	b.n	8008426 <__sflush_r+0xae>
 800840a:	2301      	movs	r3, #1
 800840c:	4628      	mov	r0, r5
 800840e:	47b0      	blx	r6
 8008410:	4602      	mov	r2, r0
 8008412:	1c50      	adds	r0, r2, #1
 8008414:	d1c9      	bne.n	80083aa <__sflush_r+0x32>
 8008416:	682b      	ldr	r3, [r5, #0]
 8008418:	2b00      	cmp	r3, #0
 800841a:	d0c6      	beq.n	80083aa <__sflush_r+0x32>
 800841c:	2b1d      	cmp	r3, #29
 800841e:	d001      	beq.n	8008424 <__sflush_r+0xac>
 8008420:	2b16      	cmp	r3, #22
 8008422:	d11e      	bne.n	8008462 <__sflush_r+0xea>
 8008424:	602f      	str	r7, [r5, #0]
 8008426:	2000      	movs	r0, #0
 8008428:	e022      	b.n	8008470 <__sflush_r+0xf8>
 800842a:	f043 0340 	orr.w	r3, r3, #64	@ 0x40
 800842e:	b21b      	sxth	r3, r3
 8008430:	e01b      	b.n	800846a <__sflush_r+0xf2>
 8008432:	690f      	ldr	r7, [r1, #16]
 8008434:	2f00      	cmp	r7, #0
 8008436:	d0f6      	beq.n	8008426 <__sflush_r+0xae>
 8008438:	0793      	lsls	r3, r2, #30
 800843a:	680e      	ldr	r6, [r1, #0]
 800843c:	bf08      	it	eq
 800843e:	694b      	ldreq	r3, [r1, #20]
 8008440:	600f      	str	r7, [r1, #0]
 8008442:	bf18      	it	ne
 8008444:	2300      	movne	r3, #0
 8008446:	eba6 0807 	sub.w	r8, r6, r7
 800844a:	608b      	str	r3, [r1, #8]
 800844c:	f1b8 0f00 	cmp.w	r8, #0
 8008450:	dde9      	ble.n	8008426 <__sflush_r+0xae>
 8008452:	6a21      	ldr	r1, [r4, #32]
 8008454:	6aa6      	ldr	r6, [r4, #40]	@ 0x28
 8008456:	4643      	mov	r3, r8
 8008458:	463a      	mov	r2, r7
 800845a:	4628      	mov	r0, r5
 800845c:	47b0      	blx	r6
 800845e:	2800      	cmp	r0, #0
 8008460:	dc08      	bgt.n	8008474 <__sflush_r+0xfc>
 8008462:	f9b4 300c 	ldrsh.w	r3, [r4, #12]
 8008466:	f043 0340 	orr.w	r3, r3, #64	@ 0x40
 800846a:	81a3      	strh	r3, [r4, #12]
 800846c:	f04f 30ff 	mov.w	r0, #4294967295
 8008470:	e8bd 81f0 	ldmia.w	sp!, {r4, r5, r6, r7, r8, pc}
 8008474:	4407      	add	r7, r0
 8008476:	eba8 0800 	sub.w	r8, r8, r0
 800847a:	e7e7      	b.n	800844c <__sflush_r+0xd4>
 800847c:	dfbffffe 	.word	0xdfbffffe

08008480 <_fflush_r>:
 8008480:	b538      	push	{r3, r4, r5, lr}
 8008482:	690b      	ldr	r3, [r1, #16]
 8008484:	4605      	mov	r5, r0
 8008486:	460c      	mov	r4, r1
 8008488:	b913      	cbnz	r3, 8008490 <_fflush_r+0x10>
 800848a:	2500      	movs	r5, #0
 800848c:	4628      	mov	r0, r5
 800848e:	bd38      	pop	{r3, r4, r5, pc}
 8008490:	b118      	cbz	r0, 800849a <_fflush_r+0x1a>
 8008492:	6a03      	ldr	r3, [r0, #32]
 8008494:	b90b      	cbnz	r3, 800849a <_fflush_r+0x1a>
 8008496:	f7fe facb 	bl	8006a30 <__sinit>
 800849a:	f9b4 300c 	ldrsh.w	r3, [r4, #12]
 800849e:	2b00      	cmp	r3, #0
 80084a0:	d0f3      	beq.n	800848a <_fflush_r+0xa>
 80084a2:	6e62      	ldr	r2, [r4, #100]	@ 0x64
 80084a4:	07d0      	lsls	r0, r2, #31
 80084a6:	d404      	bmi.n	80084b2 <_fflush_r+0x32>
 80084a8:	0599      	lsls	r1, r3, #22
 80084aa:	d402      	bmi.n	80084b2 <_fflush_r+0x32>
 80084ac:	6da0      	ldr	r0, [r4, #88]	@ 0x58
 80084ae:	f7fe fbe0 	bl	8006c72 <__retarget_lock_acquire_recursive>
 80084b2:	4628      	mov	r0, r5
 80084b4:	4621      	mov	r1, r4
 80084b6:	f7ff ff5f 	bl	8008378 <__sflush_r>
 80084ba:	6e63      	ldr	r3, [r4, #100]	@ 0x64
 80084bc:	07da      	lsls	r2, r3, #31
 80084be:	4605      	mov	r5, r0
 80084c0:	d4e4      	bmi.n	800848c <_fflush_r+0xc>
 80084c2:	89a3      	ldrh	r3, [r4, #12]
 80084c4:	059b      	lsls	r3, r3, #22
 80084c6:	d4e1      	bmi.n	800848c <_fflush_r+0xc>
 80084c8:	6da0      	ldr	r0, [r4, #88]	@ 0x58
 80084ca:	f7fe fbd3 	bl	8006c74 <__retarget_lock_release_recursive>
 80084ce:	e7dd      	b.n	800848c <_fflush_r+0xc>

080084d0 <memmove>:
 80084d0:	4288      	cmp	r0, r1
 80084d2:	b510      	push	{r4, lr}
 80084d4:	eb01 0402 	add.w	r4, r1, r2
 80084d8:	d902      	bls.n	80084e0 <memmove+0x10>
 80084da:	4284      	cmp	r4, r0
 80084dc:	4623      	mov	r3, r4
 80084de:	d807      	bhi.n	80084f0 <memmove+0x20>
 80084e0:	1e43      	subs	r3, r0, #1
 80084e2:	42a1      	cmp	r1, r4
 80084e4:	d008      	beq.n	80084f8 <memmove+0x28>
 80084e6:	f811 2b01 	ldrb.w	r2, [r1], #1
 80084ea:	f803 2f01 	strb.w	r2, [r3, #1]!
 80084ee:	e7f8      	b.n	80084e2 <memmove+0x12>
 80084f0:	4402      	add	r2, r0
 80084f2:	4601      	mov	r1, r0
 80084f4:	428a      	cmp	r2, r1
 80084f6:	d100      	bne.n	80084fa <memmove+0x2a>
 80084f8:	bd10      	pop	{r4, pc}
 80084fa:	f813 4d01 	ldrb.w	r4, [r3, #-1]!
 80084fe:	f802 4d01 	strb.w	r4, [r2, #-1]!
 8008502:	e7f7      	b.n	80084f4 <memmove+0x24>

08008504 <__assert_func>:
 8008504:	b51f      	push	{r0, r1, r2, r3, r4, lr}
 8008506:	4614      	mov	r4, r2
 8008508:	461a      	mov	r2, r3
 800850a:	4b09      	ldr	r3, [pc, #36]	@ (8008530 <__assert_func+0x2c>)
 800850c:	681b      	ldr	r3, [r3, #0]
 800850e:	4605      	mov	r5, r0
 8008510:	68d8      	ldr	r0, [r3, #12]
 8008512:	b954      	cbnz	r4, 800852a <__assert_func+0x26>
 8008514:	4b07      	ldr	r3, [pc, #28]	@ (8008534 <__assert_func+0x30>)
 8008516:	461c      	mov	r4, r3
 8008518:	e9cd 3401 	strd	r3, r4, [sp, #4]
 800851c:	9100      	str	r1, [sp, #0]
 800851e:	462b      	mov	r3, r5
 8008520:	4905      	ldr	r1, [pc, #20]	@ (8008538 <__assert_func+0x34>)
 8008522:	f000 f85b 	bl	80085dc <fiprintf>
 8008526:	f000 f86b 	bl	8008600 <abort>
 800852a:	4b04      	ldr	r3, [pc, #16]	@ (800853c <__assert_func+0x38>)
 800852c:	e7f4      	b.n	8008518 <__assert_func+0x14>
 800852e:	bf00      	nop
 8008530:	2000001c 	.word	0x2000001c
 8008534:	080092be 	.word	0x080092be
 8008538:	08009290 	.word	0x08009290
 800853c:	08009283 	.word	0x08009283

08008540 <__ascii_mbtowc>:
 8008540:	b082      	sub	sp, #8
 8008542:	b901      	cbnz	r1, 8008546 <__ascii_mbtowc+0x6>
 8008544:	a901      	add	r1, sp, #4
 8008546:	b142      	cbz	r2, 800855a <__ascii_mbtowc+0x1a>
 8008548:	b14b      	cbz	r3, 800855e <__ascii_mbtowc+0x1e>
 800854a:	7813      	ldrb	r3, [r2, #0]
 800854c:	600b      	str	r3, [r1, #0]
 800854e:	7812      	ldrb	r2, [r2, #0]
 8008550:	1e10      	subs	r0, r2, #0
 8008552:	bf18      	it	ne
 8008554:	2001      	movne	r0, #1
 8008556:	b002      	add	sp, #8
 8008558:	4770      	bx	lr
 800855a:	4610      	mov	r0, r2
 800855c:	e7fb      	b.n	8008556 <__ascii_mbtowc+0x16>
 800855e:	f06f 0001 	mvn.w	r0, #1
 8008562:	e7f8      	b.n	8008556 <__ascii_mbtowc+0x16>

08008564 <_realloc_r>:
 8008564:	e92d 41f0 	stmdb	sp!, {r4, r5, r6, r7, r8, lr}
 8008568:	4680      	mov	r8, r0
 800856a:	4615      	mov	r5, r2
 800856c:	460c      	mov	r4, r1
 800856e:	b921      	cbnz	r1, 800857a <_realloc_r+0x16>
 8008570:	e8bd 41f0 	ldmia.w	sp!, {r4, r5, r6, r7, r8, lr}
 8008574:	4611      	mov	r1, r2
 8008576:	f7fd bceb 	b.w	8005f50 <_malloc_r>
 800857a:	b92a      	cbnz	r2, 8008588 <_realloc_r+0x24>
 800857c:	f7ff f9d8 	bl	8007930 <_free_r>
 8008580:	2400      	movs	r4, #0
 8008582:	4620      	mov	r0, r4
 8008584:	e8bd 81f0 	ldmia.w	sp!, {r4, r5, r6, r7, r8, pc}
 8008588:	f000 f841 	bl	800860e <_malloc_usable_size_r>
 800858c:	4285      	cmp	r5, r0
 800858e:	4606      	mov	r6, r0
 8008590:	d802      	bhi.n	8008598 <_realloc_r+0x34>
 8008592:	ebb5 0f50 	cmp.w	r5, r0, lsr #1
 8008596:	d8f4      	bhi.n	8008582 <_realloc_r+0x1e>
 8008598:	4629      	mov	r1, r5
 800859a:	4640      	mov	r0, r8
 800859c:	f7fd fcd8 	bl	8005f50 <_malloc_r>
 80085a0:	4607      	mov	r7, r0
 80085a2:	2800      	cmp	r0, #0
 80085a4:	d0ec      	beq.n	8008580 <_realloc_r+0x1c>
 80085a6:	42b5      	cmp	r5, r6
 80085a8:	462a      	mov	r2, r5
 80085aa:	4621      	mov	r1, r4
 80085ac:	bf28      	it	cs
 80085ae:	4632      	movcs	r2, r6
 80085b0:	f7fe fb61 	bl	8006c76 <memcpy>
 80085b4:	4621      	mov	r1, r4
 80085b6:	4640      	mov	r0, r8
 80085b8:	f7ff f9ba 	bl	8007930 <_free_r>
 80085bc:	463c      	mov	r4, r7
 80085be:	e7e0      	b.n	8008582 <_realloc_r+0x1e>

080085c0 <__ascii_wctomb>:
 80085c0:	4603      	mov	r3, r0
 80085c2:	4608      	mov	r0, r1
 80085c4:	b141      	cbz	r1, 80085d8 <__ascii_wctomb+0x18>
 80085c6:	2aff      	cmp	r2, #255	@ 0xff
 80085c8:	d904      	bls.n	80085d4 <__ascii_wctomb+0x14>
 80085ca:	228a      	movs	r2, #138	@ 0x8a
 80085cc:	601a      	str	r2, [r3, #0]
 80085ce:	f04f 30ff 	mov.w	r0, #4294967295
 80085d2:	4770      	bx	lr
 80085d4:	700a      	strb	r2, [r1, #0]
 80085d6:	2001      	movs	r0, #1
 80085d8:	4770      	bx	lr
	...

080085dc <fiprintf>:
 80085dc:	b40e      	push	{r1, r2, r3}
 80085de:	b503      	push	{r0, r1, lr}
 80085e0:	4601      	mov	r1, r0
 80085e2:	ab03      	add	r3, sp, #12
 80085e4:	4805      	ldr	r0, [pc, #20]	@ (80085fc <fiprintf+0x20>)
 80085e6:	f853 2b04 	ldr.w	r2, [r3], #4
 80085ea:	6800      	ldr	r0, [r0, #0]
 80085ec:	9301      	str	r3, [sp, #4]
 80085ee:	f000 f83f 	bl	8008670 <_vfiprintf_r>
 80085f2:	b002      	add	sp, #8
 80085f4:	f85d eb04 	ldr.w	lr, [sp], #4
 80085f8:	b003      	add	sp, #12
 80085fa:	4770      	bx	lr
 80085fc:	2000001c 	.word	0x2000001c

08008600 <abort>:
 8008600:	b508      	push	{r3, lr}
 8008602:	2006      	movs	r0, #6
 8008604:	f000 fa08 	bl	8008a18 <raise>
 8008608:	2001      	movs	r0, #1
 800860a:	f000 faf3 	bl	8008bf4 <_exit>

0800860e <_malloc_usable_size_r>:
 800860e:	f851 3c04 	ldr.w	r3, [r1, #-4]
 8008612:	1f18      	subs	r0, r3, #4
 8008614:	2b00      	cmp	r3, #0
 8008616:	bfbc      	itt	lt
 8008618:	580b      	ldrlt	r3, [r1, r0]
 800861a:	18c0      	addlt	r0, r0, r3
 800861c:	4770      	bx	lr

0800861e <__sfputc_r>:
 800861e:	6893      	ldr	r3, [r2, #8]
 8008620:	3b01      	subs	r3, #1
 8008622:	2b00      	cmp	r3, #0
 8008624:	b410      	push	{r4}
 8008626:	6093      	str	r3, [r2, #8]
 8008628:	da08      	bge.n	800863c <__sfputc_r+0x1e>
 800862a:	6994      	ldr	r4, [r2, #24]
 800862c:	42a3      	cmp	r3, r4
 800862e:	db01      	blt.n	8008634 <__sfputc_r+0x16>
 8008630:	290a      	cmp	r1, #10
 8008632:	d103      	bne.n	800863c <__sfputc_r+0x1e>
 8008634:	f85d 4b04 	ldr.w	r4, [sp], #4
 8008638:	f000 b932 	b.w	80088a0 <__swbuf_r>
 800863c:	6813      	ldr	r3, [r2, #0]
 800863e:	1c58      	adds	r0, r3, #1
 8008640:	6010      	str	r0, [r2, #0]
 8008642:	7019      	strb	r1, [r3, #0]
 8008644:	4608      	mov	r0, r1
 8008646:	f85d 4b04 	ldr.w	r4, [sp], #4
 800864a:	4770      	bx	lr

0800864c <__sfputs_r>:
 800864c:	b5f8      	push	{r3, r4, r5, r6, r7, lr}
 800864e:	4606      	mov	r6, r0
 8008650:	460f      	mov	r7, r1
 8008652:	4614      	mov	r4, r2
 8008654:	18d5      	adds	r5, r2, r3
 8008656:	42ac      	cmp	r4, r5
 8008658:	d101      	bne.n	800865e <__sfputs_r+0x12>
 800865a:	2000      	movs	r0, #0
 800865c:	e007      	b.n	800866e <__sfputs_r+0x22>
 800865e:	f814 1b01 	ldrb.w	r1, [r4], #1
 8008662:	463a      	mov	r2, r7
 8008664:	4630      	mov	r0, r6
 8008666:	f7ff ffda 	bl	800861e <__sfputc_r>
 800866a:	1c43      	adds	r3, r0, #1
 800866c:	d1f3      	bne.n	8008656 <__sfputs_r+0xa>
 800866e:	bdf8      	pop	{r3, r4, r5, r6, r7, pc}

08008670 <_vfiprintf_r>:
 8008670:	e92d 4ff0 	stmdb	sp!, {r4, r5, r6, r7, r8, r9, sl, fp, lr}
 8008674:	460d      	mov	r5, r1
 8008676:	b09d      	sub	sp, #116	@ 0x74
 8008678:	4614      	mov	r4, r2
 800867a:	4698      	mov	r8, r3
 800867c:	4606      	mov	r6, r0
 800867e:	b118      	cbz	r0, 8008688 <_vfiprintf_r+0x18>
 8008680:	6a03      	ldr	r3, [r0, #32]
 8008682:	b90b      	cbnz	r3, 8008688 <_vfiprintf_r+0x18>
 8008684:	f7fe f9d4 	bl	8006a30 <__sinit>
 8008688:	6e6b      	ldr	r3, [r5, #100]	@ 0x64
 800868a:	07d9      	lsls	r1, r3, #31
 800868c:	d405      	bmi.n	800869a <_vfiprintf_r+0x2a>
 800868e:	89ab      	ldrh	r3, [r5, #12]
 8008690:	059a      	lsls	r2, r3, #22
 8008692:	d402      	bmi.n	800869a <_vfiprintf_r+0x2a>
 8008694:	6da8      	ldr	r0, [r5, #88]	@ 0x58
 8008696:	f7fe faec 	bl	8006c72 <__retarget_lock_acquire_recursive>
 800869a:	89ab      	ldrh	r3, [r5, #12]
 800869c:	071b      	lsls	r3, r3, #28
 800869e:	d501      	bpl.n	80086a4 <_vfiprintf_r+0x34>
 80086a0:	692b      	ldr	r3, [r5, #16]
 80086a2:	b99b      	cbnz	r3, 80086cc <_vfiprintf_r+0x5c>
 80086a4:	4629      	mov	r1, r5
 80086a6:	4630      	mov	r0, r6
 80086a8:	f000 f938 	bl	800891c <__swsetup_r>
 80086ac:	b170      	cbz	r0, 80086cc <_vfiprintf_r+0x5c>
 80086ae:	6e6b      	ldr	r3, [r5, #100]	@ 0x64
 80086b0:	07dc      	lsls	r4, r3, #31
 80086b2:	d504      	bpl.n	80086be <_vfiprintf_r+0x4e>
 80086b4:	f04f 30ff 	mov.w	r0, #4294967295
 80086b8:	b01d      	add	sp, #116	@ 0x74
 80086ba:	e8bd 8ff0 	ldmia.w	sp!, {r4, r5, r6, r7, r8, r9, sl, fp, pc}
 80086be:	89ab      	ldrh	r3, [r5, #12]
 80086c0:	0598      	lsls	r0, r3, #22
 80086c2:	d4f7      	bmi.n	80086b4 <_vfiprintf_r+0x44>
 80086c4:	6da8      	ldr	r0, [r5, #88]	@ 0x58
 80086c6:	f7fe fad5 	bl	8006c74 <__retarget_lock_release_recursive>
 80086ca:	e7f3      	b.n	80086b4 <_vfiprintf_r+0x44>
 80086cc:	2300      	movs	r3, #0
 80086ce:	9309      	str	r3, [sp, #36]	@ 0x24
 80086d0:	2320      	movs	r3, #32
 80086d2:	f88d 3029 	strb.w	r3, [sp, #41]	@ 0x29
 80086d6:	f8cd 800c 	str.w	r8, [sp, #12]
 80086da:	2330      	movs	r3, #48	@ 0x30
 80086dc:	f8df 81ac 	ldr.w	r8, [pc, #428]	@ 800888c <_vfiprintf_r+0x21c>
 80086e0:	f88d 302a 	strb.w	r3, [sp, #42]	@ 0x2a
 80086e4:	f04f 0901 	mov.w	r9, #1
 80086e8:	4623      	mov	r3, r4
 80086ea:	469a      	mov	sl, r3
 80086ec:	f813 2b01 	ldrb.w	r2, [r3], #1
 80086f0:	b10a      	cbz	r2, 80086f6 <_vfiprintf_r+0x86>
 80086f2:	2a25      	cmp	r2, #37	@ 0x25
 80086f4:	d1f9      	bne.n	80086ea <_vfiprintf_r+0x7a>
 80086f6:	ebba 0b04 	subs.w	fp, sl, r4
 80086fa:	d00b      	beq.n	8008714 <_vfiprintf_r+0xa4>
 80086fc:	465b      	mov	r3, fp
 80086fe:	4622      	mov	r2, r4
 8008700:	4629      	mov	r1, r5
 8008702:	4630      	mov	r0, r6
 8008704:	f7ff ffa2 	bl	800864c <__sfputs_r>
 8008708:	3001      	adds	r0, #1
 800870a:	f000 80a7 	beq.w	800885c <_vfiprintf_r+0x1ec>
 800870e:	9a09      	ldr	r2, [sp, #36]	@ 0x24
 8008710:	445a      	add	r2, fp
 8008712:	9209      	str	r2, [sp, #36]	@ 0x24
 8008714:	f89a 3000 	ldrb.w	r3, [sl]
 8008718:	2b00      	cmp	r3, #0
 800871a:	f000 809f 	beq.w	800885c <_vfiprintf_r+0x1ec>
 800871e:	2300      	movs	r3, #0
 8008720:	f04f 32ff 	mov.w	r2, #4294967295
 8008724:	e9cd 2305 	strd	r2, r3, [sp, #20]
 8008728:	f10a 0a01 	add.w	sl, sl, #1
 800872c:	9304      	str	r3, [sp, #16]
 800872e:	9307      	str	r3, [sp, #28]
 8008730:	f88d 3053 	strb.w	r3, [sp, #83]	@ 0x53
 8008734:	931a      	str	r3, [sp, #104]	@ 0x68
 8008736:	4654      	mov	r4, sl
 8008738:	2205      	movs	r2, #5
 800873a:	f814 1b01 	ldrb.w	r1, [r4], #1
 800873e:	4853      	ldr	r0, [pc, #332]	@ (800888c <_vfiprintf_r+0x21c>)
 8008740:	f7f7 fd66 	bl	8000210 <memchr>
 8008744:	9a04      	ldr	r2, [sp, #16]
 8008746:	b9d8      	cbnz	r0, 8008780 <_vfiprintf_r+0x110>
 8008748:	06d1      	lsls	r1, r2, #27
 800874a:	bf44      	itt	mi
 800874c:	2320      	movmi	r3, #32
 800874e:	f88d 3053 	strbmi.w	r3, [sp, #83]	@ 0x53
 8008752:	0713      	lsls	r3, r2, #28
 8008754:	bf44      	itt	mi
 8008756:	232b      	movmi	r3, #43	@ 0x2b
 8008758:	f88d 3053 	strbmi.w	r3, [sp, #83]	@ 0x53
 800875c:	f89a 3000 	ldrb.w	r3, [sl]
 8008760:	2b2a      	cmp	r3, #42	@ 0x2a
 8008762:	d015      	beq.n	8008790 <_vfiprintf_r+0x120>
 8008764:	9a07      	ldr	r2, [sp, #28]
 8008766:	4654      	mov	r4, sl
 8008768:	2000      	movs	r0, #0
 800876a:	f04f 0c0a 	mov.w	ip, #10
 800876e:	4621      	mov	r1, r4
 8008770:	f811 3b01 	ldrb.w	r3, [r1], #1
 8008774:	3b30      	subs	r3, #48	@ 0x30
 8008776:	2b09      	cmp	r3, #9
 8008778:	d94b      	bls.n	8008812 <_vfiprintf_r+0x1a2>
 800877a:	b1b0      	cbz	r0, 80087aa <_vfiprintf_r+0x13a>
 800877c:	9207      	str	r2, [sp, #28]
 800877e:	e014      	b.n	80087aa <_vfiprintf_r+0x13a>
 8008780:	eba0 0308 	sub.w	r3, r0, r8
 8008784:	fa09 f303 	lsl.w	r3, r9, r3
 8008788:	4313      	orrs	r3, r2
 800878a:	9304      	str	r3, [sp, #16]
 800878c:	46a2      	mov	sl, r4
 800878e:	e7d2      	b.n	8008736 <_vfiprintf_r+0xc6>
 8008790:	9b03      	ldr	r3, [sp, #12]
 8008792:	1d19      	adds	r1, r3, #4
 8008794:	681b      	ldr	r3, [r3, #0]
 8008796:	9103      	str	r1, [sp, #12]
 8008798:	2b00      	cmp	r3, #0
 800879a:	bfbb      	ittet	lt
 800879c:	425b      	neglt	r3, r3
 800879e:	f042 0202 	orrlt.w	r2, r2, #2
 80087a2:	9307      	strge	r3, [sp, #28]
 80087a4:	9307      	strlt	r3, [sp, #28]
 80087a6:	bfb8      	it	lt
 80087a8:	9204      	strlt	r2, [sp, #16]
 80087aa:	7823      	ldrb	r3, [r4, #0]
 80087ac:	2b2e      	cmp	r3, #46	@ 0x2e
 80087ae:	d10a      	bne.n	80087c6 <_vfiprintf_r+0x156>
 80087b0:	7863      	ldrb	r3, [r4, #1]
 80087b2:	2b2a      	cmp	r3, #42	@ 0x2a
 80087b4:	d132      	bne.n	800881c <_vfiprintf_r+0x1ac>
 80087b6:	9b03      	ldr	r3, [sp, #12]
 80087b8:	1d1a      	adds	r2, r3, #4
 80087ba:	681b      	ldr	r3, [r3, #0]
 80087bc:	9203      	str	r2, [sp, #12]
 80087be:	ea43 73e3 	orr.w	r3, r3, r3, asr #31
 80087c2:	3402      	adds	r4, #2
 80087c4:	9305      	str	r3, [sp, #20]
 80087c6:	f8df a0d4 	ldr.w	sl, [pc, #212]	@ 800889c <_vfiprintf_r+0x22c>
 80087ca:	7821      	ldrb	r1, [r4, #0]
 80087cc:	2203      	movs	r2, #3
 80087ce:	4650      	mov	r0, sl
 80087d0:	f7f7 fd1e 	bl	8000210 <memchr>
 80087d4:	b138      	cbz	r0, 80087e6 <_vfiprintf_r+0x176>
 80087d6:	9b04      	ldr	r3, [sp, #16]
 80087d8:	eba0 000a 	sub.w	r0, r0, sl
 80087dc:	2240      	movs	r2, #64	@ 0x40
 80087de:	4082      	lsls	r2, r0
 80087e0:	4313      	orrs	r3, r2
 80087e2:	3401      	adds	r4, #1
 80087e4:	9304      	str	r3, [sp, #16]
 80087e6:	f814 1b01 	ldrb.w	r1, [r4], #1
 80087ea:	4829      	ldr	r0, [pc, #164]	@ (8008890 <_vfiprintf_r+0x220>)
 80087ec:	f88d 1028 	strb.w	r1, [sp, #40]	@ 0x28
 80087f0:	2206      	movs	r2, #6
 80087f2:	f7f7 fd0d 	bl	8000210 <memchr>
 80087f6:	2800      	cmp	r0, #0
 80087f8:	d03f      	beq.n	800887a <_vfiprintf_r+0x20a>
 80087fa:	4b26      	ldr	r3, [pc, #152]	@ (8008894 <_vfiprintf_r+0x224>)
 80087fc:	bb1b      	cbnz	r3, 8008846 <_vfiprintf_r+0x1d6>
 80087fe:	9b03      	ldr	r3, [sp, #12]
 8008800:	3307      	adds	r3, #7
 8008802:	f023 0307 	bic.w	r3, r3, #7
 8008806:	3308      	adds	r3, #8
 8008808:	9303      	str	r3, [sp, #12]
 800880a:	9b09      	ldr	r3, [sp, #36]	@ 0x24
 800880c:	443b      	add	r3, r7
 800880e:	9309      	str	r3, [sp, #36]	@ 0x24
 8008810:	e76a      	b.n	80086e8 <_vfiprintf_r+0x78>
 8008812:	fb0c 3202 	mla	r2, ip, r2, r3
 8008816:	460c      	mov	r4, r1
 8008818:	2001      	movs	r0, #1
 800881a:	e7a8      	b.n	800876e <_vfiprintf_r+0xfe>
 800881c:	2300      	movs	r3, #0
 800881e:	3401      	adds	r4, #1
 8008820:	9305      	str	r3, [sp, #20]
 8008822:	4619      	mov	r1, r3
 8008824:	f04f 0c0a 	mov.w	ip, #10
 8008828:	4620      	mov	r0, r4
 800882a:	f810 2b01 	ldrb.w	r2, [r0], #1
 800882e:	3a30      	subs	r2, #48	@ 0x30
 8008830:	2a09      	cmp	r2, #9
 8008832:	d903      	bls.n	800883c <_vfiprintf_r+0x1cc>
 8008834:	2b00      	cmp	r3, #0
 8008836:	d0c6      	beq.n	80087c6 <_vfiprintf_r+0x156>
 8008838:	9105      	str	r1, [sp, #20]
 800883a:	e7c4      	b.n	80087c6 <_vfiprintf_r+0x156>
 800883c:	fb0c 2101 	mla	r1, ip, r1, r2
 8008840:	4604      	mov	r4, r0
 8008842:	2301      	movs	r3, #1
 8008844:	e7f0      	b.n	8008828 <_vfiprintf_r+0x1b8>
 8008846:	ab03      	add	r3, sp, #12
 8008848:	9300      	str	r3, [sp, #0]
 800884a:	462a      	mov	r2, r5
 800884c:	4b12      	ldr	r3, [pc, #72]	@ (8008898 <_vfiprintf_r+0x228>)
 800884e:	a904      	add	r1, sp, #16
 8008850:	4630      	mov	r0, r6
 8008852:	f7fd fca9 	bl	80061a8 <_printf_float>
 8008856:	4607      	mov	r7, r0
 8008858:	1c78      	adds	r0, r7, #1
 800885a:	d1d6      	bne.n	800880a <_vfiprintf_r+0x19a>
 800885c:	6e6b      	ldr	r3, [r5, #100]	@ 0x64
 800885e:	07d9      	lsls	r1, r3, #31
 8008860:	d405      	bmi.n	800886e <_vfiprintf_r+0x1fe>
 8008862:	89ab      	ldrh	r3, [r5, #12]
 8008864:	059a      	lsls	r2, r3, #22
 8008866:	d402      	bmi.n	800886e <_vfiprintf_r+0x1fe>
 8008868:	6da8      	ldr	r0, [r5, #88]	@ 0x58
 800886a:	f7fe fa03 	bl	8006c74 <__retarget_lock_release_recursive>
 800886e:	89ab      	ldrh	r3, [r5, #12]
 8008870:	065b      	lsls	r3, r3, #25
 8008872:	f53f af1f 	bmi.w	80086b4 <_vfiprintf_r+0x44>
 8008876:	9809      	ldr	r0, [sp, #36]	@ 0x24
 8008878:	e71e      	b.n	80086b8 <_vfiprintf_r+0x48>
 800887a:	ab03      	add	r3, sp, #12
 800887c:	9300      	str	r3, [sp, #0]
 800887e:	462a      	mov	r2, r5
 8008880:	4b05      	ldr	r3, [pc, #20]	@ (8008898 <_vfiprintf_r+0x228>)
 8008882:	a904      	add	r1, sp, #16
 8008884:	4630      	mov	r0, r6
 8008886:	f7fd ff27 	bl	80066d8 <_printf_i>
 800888a:	e7e4      	b.n	8008856 <_vfiprintf_r+0x1e6>
 800888c:	08009268 	.word	0x08009268
 8008890:	08009272 	.word	0x08009272
 8008894:	080061a9 	.word	0x080061a9
 8008898:	0800864d 	.word	0x0800864d
 800889c:	0800926e 	.word	0x0800926e

080088a0 <__swbuf_r>:
 80088a0:	b5f8      	push	{r3, r4, r5, r6, r7, lr}
 80088a2:	460e      	mov	r6, r1
 80088a4:	4614      	mov	r4, r2
 80088a6:	4605      	mov	r5, r0
 80088a8:	b118      	cbz	r0, 80088b2 <__swbuf_r+0x12>
 80088aa:	6a03      	ldr	r3, [r0, #32]
 80088ac:	b90b      	cbnz	r3, 80088b2 <__swbuf_r+0x12>
 80088ae:	f7fe f8bf 	bl	8006a30 <__sinit>
 80088b2:	69a3      	ldr	r3, [r4, #24]
 80088b4:	60a3      	str	r3, [r4, #8]
 80088b6:	89a3      	ldrh	r3, [r4, #12]
 80088b8:	071a      	lsls	r2, r3, #28
 80088ba:	d501      	bpl.n	80088c0 <__swbuf_r+0x20>
 80088bc:	6923      	ldr	r3, [r4, #16]
 80088be:	b943      	cbnz	r3, 80088d2 <__swbuf_r+0x32>
 80088c0:	4621      	mov	r1, r4
 80088c2:	4628      	mov	r0, r5
 80088c4:	f000 f82a 	bl	800891c <__swsetup_r>
 80088c8:	b118      	cbz	r0, 80088d2 <__swbuf_r+0x32>
 80088ca:	f04f 37ff 	mov.w	r7, #4294967295
 80088ce:	4638      	mov	r0, r7
 80088d0:	bdf8      	pop	{r3, r4, r5, r6, r7, pc}
 80088d2:	6823      	ldr	r3, [r4, #0]
 80088d4:	6922      	ldr	r2, [r4, #16]
 80088d6:	1a98      	subs	r0, r3, r2
 80088d8:	6963      	ldr	r3, [r4, #20]
 80088da:	b2f6      	uxtb	r6, r6
 80088dc:	4283      	cmp	r3, r0
 80088de:	4637      	mov	r7, r6
 80088e0:	dc05      	bgt.n	80088ee <__swbuf_r+0x4e>
 80088e2:	4621      	mov	r1, r4
 80088e4:	4628      	mov	r0, r5
 80088e6:	f7ff fdcb 	bl	8008480 <_fflush_r>
 80088ea:	2800      	cmp	r0, #0
 80088ec:	d1ed      	bne.n	80088ca <__swbuf_r+0x2a>
 80088ee:	68a3      	ldr	r3, [r4, #8]
 80088f0:	3b01      	subs	r3, #1
 80088f2:	60a3      	str	r3, [r4, #8]
 80088f4:	6823      	ldr	r3, [r4, #0]
 80088f6:	1c5a      	adds	r2, r3, #1
 80088f8:	6022      	str	r2, [r4, #0]
 80088fa:	701e      	strb	r6, [r3, #0]
 80088fc:	6962      	ldr	r2, [r4, #20]
 80088fe:	1c43      	adds	r3, r0, #1
 8008900:	429a      	cmp	r2, r3
 8008902:	d004      	beq.n	800890e <__swbuf_r+0x6e>
 8008904:	89a3      	ldrh	r3, [r4, #12]
 8008906:	07db      	lsls	r3, r3, #31
 8008908:	d5e1      	bpl.n	80088ce <__swbuf_r+0x2e>
 800890a:	2e0a      	cmp	r6, #10
 800890c:	d1df      	bne.n	80088ce <__swbuf_r+0x2e>
 800890e:	4621      	mov	r1, r4
 8008910:	4628      	mov	r0, r5
 8008912:	f7ff fdb5 	bl	8008480 <_fflush_r>
 8008916:	2800      	cmp	r0, #0
 8008918:	d0d9      	beq.n	80088ce <__swbuf_r+0x2e>
 800891a:	e7d6      	b.n	80088ca <__swbuf_r+0x2a>

0800891c <__swsetup_r>:
 800891c:	b538      	push	{r3, r4, r5, lr}
 800891e:	4b29      	ldr	r3, [pc, #164]	@ (80089c4 <__swsetup_r+0xa8>)
 8008920:	4605      	mov	r5, r0
 8008922:	6818      	ldr	r0, [r3, #0]
 8008924:	460c      	mov	r4, r1
 8008926:	b118      	cbz	r0, 8008930 <__swsetup_r+0x14>
 8008928:	6a03      	ldr	r3, [r0, #32]
 800892a:	b90b      	cbnz	r3, 8008930 <__swsetup_r+0x14>
 800892c:	f7fe f880 	bl	8006a30 <__sinit>
 8008930:	f9b4 300c 	ldrsh.w	r3, [r4, #12]
 8008934:	0719      	lsls	r1, r3, #28
 8008936:	d422      	bmi.n	800897e <__swsetup_r+0x62>
 8008938:	06da      	lsls	r2, r3, #27
 800893a:	d407      	bmi.n	800894c <__swsetup_r+0x30>
 800893c:	2209      	movs	r2, #9
 800893e:	602a      	str	r2, [r5, #0]
 8008940:	f043 0340 	orr.w	r3, r3, #64	@ 0x40
 8008944:	81a3      	strh	r3, [r4, #12]
 8008946:	f04f 30ff 	mov.w	r0, #4294967295
 800894a:	e033      	b.n	80089b4 <__swsetup_r+0x98>
 800894c:	0758      	lsls	r0, r3, #29
 800894e:	d512      	bpl.n	8008976 <__swsetup_r+0x5a>
 8008950:	6b61      	ldr	r1, [r4, #52]	@ 0x34
 8008952:	b141      	cbz	r1, 8008966 <__swsetup_r+0x4a>
 8008954:	f104 0344 	add.w	r3, r4, #68	@ 0x44
 8008958:	4299      	cmp	r1, r3
 800895a:	d002      	beq.n	8008962 <__swsetup_r+0x46>
 800895c:	4628      	mov	r0, r5
 800895e:	f7fe ffe7 	bl	8007930 <_free_r>
 8008962:	2300      	movs	r3, #0
 8008964:	6363      	str	r3, [r4, #52]	@ 0x34
 8008966:	89a3      	ldrh	r3, [r4, #12]
 8008968:	f023 0324 	bic.w	r3, r3, #36	@ 0x24
 800896c:	81a3      	strh	r3, [r4, #12]
 800896e:	2300      	movs	r3, #0
 8008970:	6063      	str	r3, [r4, #4]
 8008972:	6923      	ldr	r3, [r4, #16]
 8008974:	6023      	str	r3, [r4, #0]
 8008976:	89a3      	ldrh	r3, [r4, #12]
 8008978:	f043 0308 	orr.w	r3, r3, #8
 800897c:	81a3      	strh	r3, [r4, #12]
 800897e:	6923      	ldr	r3, [r4, #16]
 8008980:	b94b      	cbnz	r3, 8008996 <__swsetup_r+0x7a>
 8008982:	89a3      	ldrh	r3, [r4, #12]
 8008984:	f403 7320 	and.w	r3, r3, #640	@ 0x280
 8008988:	f5b3 7f00 	cmp.w	r3, #512	@ 0x200
 800898c:	d003      	beq.n	8008996 <__swsetup_r+0x7a>
 800898e:	4621      	mov	r1, r4
 8008990:	4628      	mov	r0, r5
 8008992:	f000 f883 	bl	8008a9c <__smakebuf_r>
 8008996:	f9b4 300c 	ldrsh.w	r3, [r4, #12]
 800899a:	f013 0201 	ands.w	r2, r3, #1
 800899e:	d00a      	beq.n	80089b6 <__swsetup_r+0x9a>
 80089a0:	2200      	movs	r2, #0
 80089a2:	60a2      	str	r2, [r4, #8]
 80089a4:	6962      	ldr	r2, [r4, #20]
 80089a6:	4252      	negs	r2, r2
 80089a8:	61a2      	str	r2, [r4, #24]
 80089aa:	6922      	ldr	r2, [r4, #16]
 80089ac:	b942      	cbnz	r2, 80089c0 <__swsetup_r+0xa4>
 80089ae:	f013 0080 	ands.w	r0, r3, #128	@ 0x80
 80089b2:	d1c5      	bne.n	8008940 <__swsetup_r+0x24>
 80089b4:	bd38      	pop	{r3, r4, r5, pc}
 80089b6:	0799      	lsls	r1, r3, #30
 80089b8:	bf58      	it	pl
 80089ba:	6962      	ldrpl	r2, [r4, #20]
 80089bc:	60a2      	str	r2, [r4, #8]
 80089be:	e7f4      	b.n	80089aa <__swsetup_r+0x8e>
 80089c0:	2000      	movs	r0, #0
 80089c2:	e7f7      	b.n	80089b4 <__swsetup_r+0x98>
 80089c4:	2000001c 	.word	0x2000001c

080089c8 <_raise_r>:
 80089c8:	291f      	cmp	r1, #31
 80089ca:	b538      	push	{r3, r4, r5, lr}
 80089cc:	4605      	mov	r5, r0
 80089ce:	460c      	mov	r4, r1
 80089d0:	d904      	bls.n	80089dc <_raise_r+0x14>
 80089d2:	2316      	movs	r3, #22
 80089d4:	6003      	str	r3, [r0, #0]
 80089d6:	f04f 30ff 	mov.w	r0, #4294967295
 80089da:	bd38      	pop	{r3, r4, r5, pc}
 80089dc:	6bc2      	ldr	r2, [r0, #60]	@ 0x3c
 80089de:	b112      	cbz	r2, 80089e6 <_raise_r+0x1e>
 80089e0:	f852 3021 	ldr.w	r3, [r2, r1, lsl #2]
 80089e4:	b94b      	cbnz	r3, 80089fa <_raise_r+0x32>
 80089e6:	4628      	mov	r0, r5
 80089e8:	f000 f830 	bl	8008a4c <_getpid_r>
 80089ec:	4622      	mov	r2, r4
 80089ee:	4601      	mov	r1, r0
 80089f0:	4628      	mov	r0, r5
 80089f2:	e8bd 4038 	ldmia.w	sp!, {r3, r4, r5, lr}
 80089f6:	f000 b817 	b.w	8008a28 <_kill_r>
 80089fa:	2b01      	cmp	r3, #1
 80089fc:	d00a      	beq.n	8008a14 <_raise_r+0x4c>
 80089fe:	1c59      	adds	r1, r3, #1
 8008a00:	d103      	bne.n	8008a0a <_raise_r+0x42>
 8008a02:	2316      	movs	r3, #22
 8008a04:	6003      	str	r3, [r0, #0]
 8008a06:	2001      	movs	r0, #1
 8008a08:	e7e7      	b.n	80089da <_raise_r+0x12>
 8008a0a:	2100      	movs	r1, #0
 8008a0c:	f842 1024 	str.w	r1, [r2, r4, lsl #2]
 8008a10:	4620      	mov	r0, r4
 8008a12:	4798      	blx	r3
 8008a14:	2000      	movs	r0, #0
 8008a16:	e7e0      	b.n	80089da <_raise_r+0x12>

08008a18 <raise>:
 8008a18:	4b02      	ldr	r3, [pc, #8]	@ (8008a24 <raise+0xc>)
 8008a1a:	4601      	mov	r1, r0
 8008a1c:	6818      	ldr	r0, [r3, #0]
 8008a1e:	f7ff bfd3 	b.w	80089c8 <_raise_r>
 8008a22:	bf00      	nop
 8008a24:	2000001c 	.word	0x2000001c

08008a28 <_kill_r>:
 8008a28:	b538      	push	{r3, r4, r5, lr}
 8008a2a:	4d07      	ldr	r5, [pc, #28]	@ (8008a48 <_kill_r+0x20>)
 8008a2c:	2300      	movs	r3, #0
 8008a2e:	4604      	mov	r4, r0
 8008a30:	4608      	mov	r0, r1
 8008a32:	4611      	mov	r1, r2
 8008a34:	602b      	str	r3, [r5, #0]
 8008a36:	f000 f8af 	bl	8008b98 <_kill>
 8008a3a:	1c43      	adds	r3, r0, #1
 8008a3c:	d102      	bne.n	8008a44 <_kill_r+0x1c>
 8008a3e:	682b      	ldr	r3, [r5, #0]
 8008a40:	b103      	cbz	r3, 8008a44 <_kill_r+0x1c>
 8008a42:	6023      	str	r3, [r4, #0]
 8008a44:	bd38      	pop	{r3, r4, r5, pc}
 8008a46:	bf00      	nop
 8008a48:	200006b0 	.word	0x200006b0

08008a4c <_getpid_r>:
 8008a4c:	f000 b894 	b.w	8008b78 <_getpid>

08008a50 <__swhatbuf_r>:
 8008a50:	b570      	push	{r4, r5, r6, lr}
 8008a52:	460c      	mov	r4, r1
 8008a54:	f9b1 100e 	ldrsh.w	r1, [r1, #14]
 8008a58:	2900      	cmp	r1, #0
 8008a5a:	b096      	sub	sp, #88	@ 0x58
 8008a5c:	4615      	mov	r5, r2
 8008a5e:	461e      	mov	r6, r3
 8008a60:	da0d      	bge.n	8008a7e <__swhatbuf_r+0x2e>
 8008a62:	89a3      	ldrh	r3, [r4, #12]
 8008a64:	f013 0f80 	tst.w	r3, #128	@ 0x80
 8008a68:	f04f 0100 	mov.w	r1, #0
 8008a6c:	bf14      	ite	ne
 8008a6e:	2340      	movne	r3, #64	@ 0x40
 8008a70:	f44f 6380 	moveq.w	r3, #1024	@ 0x400
 8008a74:	2000      	movs	r0, #0
 8008a76:	6031      	str	r1, [r6, #0]
 8008a78:	602b      	str	r3, [r5, #0]
 8008a7a:	b016      	add	sp, #88	@ 0x58
 8008a7c:	bd70      	pop	{r4, r5, r6, pc}
 8008a7e:	466a      	mov	r2, sp
 8008a80:	f000 f848 	bl	8008b14 <_fstat_r>
 8008a84:	2800      	cmp	r0, #0
 8008a86:	dbec      	blt.n	8008a62 <__swhatbuf_r+0x12>
 8008a88:	9901      	ldr	r1, [sp, #4]
 8008a8a:	f401 4170 	and.w	r1, r1, #61440	@ 0xf000
 8008a8e:	f5a1 5300 	sub.w	r3, r1, #8192	@ 0x2000
 8008a92:	4259      	negs	r1, r3
 8008a94:	4159      	adcs	r1, r3
 8008a96:	f44f 6380 	mov.w	r3, #1024	@ 0x400
 8008a9a:	e7eb      	b.n	8008a74 <__swhatbuf_r+0x24>

08008a9c <__smakebuf_r>:
 8008a9c:	898b      	ldrh	r3, [r1, #12]
 8008a9e:	b5f7      	push	{r0, r1, r2, r4, r5, r6, r7, lr}
 8008aa0:	079d      	lsls	r5, r3, #30
 8008aa2:	4606      	mov	r6, r0
 8008aa4:	460c      	mov	r4, r1
 8008aa6:	d507      	bpl.n	8008ab8 <__smakebuf_r+0x1c>
 8008aa8:	f104 0347 	add.w	r3, r4, #71	@ 0x47
 8008aac:	6023      	str	r3, [r4, #0]
 8008aae:	6123      	str	r3, [r4, #16]
 8008ab0:	2301      	movs	r3, #1
 8008ab2:	6163      	str	r3, [r4, #20]
 8008ab4:	b003      	add	sp, #12
 8008ab6:	bdf0      	pop	{r4, r5, r6, r7, pc}
 8008ab8:	ab01      	add	r3, sp, #4
 8008aba:	466a      	mov	r2, sp
 8008abc:	f7ff ffc8 	bl	8008a50 <__swhatbuf_r>
 8008ac0:	9f00      	ldr	r7, [sp, #0]
 8008ac2:	4605      	mov	r5, r0
 8008ac4:	4639      	mov	r1, r7
 8008ac6:	4630      	mov	r0, r6
 8008ac8:	f7fd fa42 	bl	8005f50 <_malloc_r>
 8008acc:	b948      	cbnz	r0, 8008ae2 <__smakebuf_r+0x46>
 8008ace:	f9b4 300c 	ldrsh.w	r3, [r4, #12]
 8008ad2:	059a      	lsls	r2, r3, #22
 8008ad4:	d4ee      	bmi.n	8008ab4 <__smakebuf_r+0x18>
 8008ad6:	f023 0303 	bic.w	r3, r3, #3
 8008ada:	f043 0302 	orr.w	r3, r3, #2
 8008ade:	81a3      	strh	r3, [r4, #12]
 8008ae0:	e7e2      	b.n	8008aa8 <__smakebuf_r+0xc>
 8008ae2:	89a3      	ldrh	r3, [r4, #12]
 8008ae4:	6020      	str	r0, [r4, #0]
 8008ae6:	f043 0380 	orr.w	r3, r3, #128	@ 0x80
 8008aea:	81a3      	strh	r3, [r4, #12]
 8008aec:	9b01      	ldr	r3, [sp, #4]
 8008aee:	e9c4 0704 	strd	r0, r7, [r4, #16]
 8008af2:	b15b      	cbz	r3, 8008b0c <__smakebuf_r+0x70>
 8008af4:	f9b4 100e 	ldrsh.w	r1, [r4, #14]
 8008af8:	4630      	mov	r0, r6
 8008afa:	f000 f81d 	bl	8008b38 <_isatty_r>
 8008afe:	b128      	cbz	r0, 8008b0c <__smakebuf_r+0x70>
 8008b00:	89a3      	ldrh	r3, [r4, #12]
 8008b02:	f023 0303 	bic.w	r3, r3, #3
 8008b06:	f043 0301 	orr.w	r3, r3, #1
 8008b0a:	81a3      	strh	r3, [r4, #12]
 8008b0c:	89a3      	ldrh	r3, [r4, #12]
 8008b0e:	431d      	orrs	r5, r3
 8008b10:	81a5      	strh	r5, [r4, #12]
 8008b12:	e7cf      	b.n	8008ab4 <__smakebuf_r+0x18>

08008b14 <_fstat_r>:
 8008b14:	b538      	push	{r3, r4, r5, lr}
 8008b16:	4d07      	ldr	r5, [pc, #28]	@ (8008b34 <_fstat_r+0x20>)
 8008b18:	2300      	movs	r3, #0
 8008b1a:	4604      	mov	r4, r0
 8008b1c:	4608      	mov	r0, r1
 8008b1e:	4611      	mov	r1, r2
 8008b20:	602b      	str	r3, [r5, #0]
 8008b22:	f000 f821 	bl	8008b68 <_fstat>
 8008b26:	1c43      	adds	r3, r0, #1
 8008b28:	d102      	bne.n	8008b30 <_fstat_r+0x1c>
 8008b2a:	682b      	ldr	r3, [r5, #0]
 8008b2c:	b103      	cbz	r3, 8008b30 <_fstat_r+0x1c>
 8008b2e:	6023      	str	r3, [r4, #0]
 8008b30:	bd38      	pop	{r3, r4, r5, pc}
 8008b32:	bf00      	nop
 8008b34:	200006b0 	.word	0x200006b0

08008b38 <_isatty_r>:
 8008b38:	b538      	push	{r3, r4, r5, lr}
 8008b3a:	4d06      	ldr	r5, [pc, #24]	@ (8008b54 <_isatty_r+0x1c>)
 8008b3c:	2300      	movs	r3, #0
 8008b3e:	4604      	mov	r4, r0
 8008b40:	4608      	mov	r0, r1
 8008b42:	602b      	str	r3, [r5, #0]
 8008b44:	f000 f820 	bl	8008b88 <_isatty>
 8008b48:	1c43      	adds	r3, r0, #1
 8008b4a:	d102      	bne.n	8008b52 <_isatty_r+0x1a>
 8008b4c:	682b      	ldr	r3, [r5, #0]
 8008b4e:	b103      	cbz	r3, 8008b52 <_isatty_r+0x1a>
 8008b50:	6023      	str	r3, [r4, #0]
 8008b52:	bd38      	pop	{r3, r4, r5, pc}
 8008b54:	200006b0 	.word	0x200006b0

08008b58 <_close>:
 8008b58:	4b02      	ldr	r3, [pc, #8]	@ (8008b64 <_close+0xc>)
 8008b5a:	2258      	movs	r2, #88	@ 0x58
 8008b5c:	601a      	str	r2, [r3, #0]
 8008b5e:	f04f 30ff 	mov.w	r0, #4294967295
 8008b62:	4770      	bx	lr
 8008b64:	200006b0 	.word	0x200006b0

08008b68 <_fstat>:
 8008b68:	4b02      	ldr	r3, [pc, #8]	@ (8008b74 <_fstat+0xc>)
 8008b6a:	2258      	movs	r2, #88	@ 0x58
 8008b6c:	601a      	str	r2, [r3, #0]
 8008b6e:	f04f 30ff 	mov.w	r0, #4294967295
 8008b72:	4770      	bx	lr
 8008b74:	200006b0 	.word	0x200006b0

08008b78 <_getpid>:
 8008b78:	4b02      	ldr	r3, [pc, #8]	@ (8008b84 <_getpid+0xc>)
 8008b7a:	2258      	movs	r2, #88	@ 0x58
 8008b7c:	601a      	str	r2, [r3, #0]
 8008b7e:	f04f 30ff 	mov.w	r0, #4294967295
 8008b82:	4770      	bx	lr
 8008b84:	200006b0 	.word	0x200006b0

08008b88 <_isatty>:
 8008b88:	4b02      	ldr	r3, [pc, #8]	@ (8008b94 <_isatty+0xc>)
 8008b8a:	2258      	movs	r2, #88	@ 0x58
 8008b8c:	601a      	str	r2, [r3, #0]
 8008b8e:	2000      	movs	r0, #0
 8008b90:	4770      	bx	lr
 8008b92:	bf00      	nop
 8008b94:	200006b0 	.word	0x200006b0

08008b98 <_kill>:
 8008b98:	4b02      	ldr	r3, [pc, #8]	@ (8008ba4 <_kill+0xc>)
 8008b9a:	2258      	movs	r2, #88	@ 0x58
 8008b9c:	601a      	str	r2, [r3, #0]
 8008b9e:	f04f 30ff 	mov.w	r0, #4294967295
 8008ba2:	4770      	bx	lr
 8008ba4:	200006b0 	.word	0x200006b0

08008ba8 <_lseek>:
 8008ba8:	4b02      	ldr	r3, [pc, #8]	@ (8008bb4 <_lseek+0xc>)
 8008baa:	2258      	movs	r2, #88	@ 0x58
 8008bac:	601a      	str	r2, [r3, #0]
 8008bae:	f04f 30ff 	mov.w	r0, #4294967295
 8008bb2:	4770      	bx	lr
 8008bb4:	200006b0 	.word	0x200006b0

08008bb8 <_read>:
 8008bb8:	4b02      	ldr	r3, [pc, #8]	@ (8008bc4 <_read+0xc>)
 8008bba:	2258      	movs	r2, #88	@ 0x58
 8008bbc:	601a      	str	r2, [r3, #0]
 8008bbe:	f04f 30ff 	mov.w	r0, #4294967295
 8008bc2:	4770      	bx	lr
 8008bc4:	200006b0 	.word	0x200006b0

08008bc8 <_sbrk>:
 8008bc8:	4a04      	ldr	r2, [pc, #16]	@ (8008bdc <_sbrk+0x14>)
 8008bca:	6811      	ldr	r1, [r2, #0]
 8008bcc:	4603      	mov	r3, r0
 8008bce:	b909      	cbnz	r1, 8008bd4 <_sbrk+0xc>
 8008bd0:	4903      	ldr	r1, [pc, #12]	@ (8008be0 <_sbrk+0x18>)
 8008bd2:	6011      	str	r1, [r2, #0]
 8008bd4:	6810      	ldr	r0, [r2, #0]
 8008bd6:	4403      	add	r3, r0
 8008bd8:	6013      	str	r3, [r2, #0]
 8008bda:	4770      	bx	lr
 8008bdc:	200006b8 	.word	0x200006b8
 8008be0:	200006c0 	.word	0x200006c0

08008be4 <_write>:
 8008be4:	4b02      	ldr	r3, [pc, #8]	@ (8008bf0 <_write+0xc>)
 8008be6:	2258      	movs	r2, #88	@ 0x58
 8008be8:	601a      	str	r2, [r3, #0]
 8008bea:	f04f 30ff 	mov.w	r0, #4294967295
 8008bee:	4770      	bx	lr
 8008bf0:	200006b0 	.word	0x200006b0

08008bf4 <_exit>:
 8008bf4:	e7fe      	b.n	8008bf4 <_exit>
	...

08008bf8 <_init>:
 8008bf8:	b5f8      	push	{r3, r4, r5, r6, r7, lr}
 8008bfa:	bf00      	nop
 8008bfc:	bcf8      	pop	{r3, r4, r5, r6, r7}
 8008bfe:	bc08      	pop	{r3}
 8008c00:	469e      	mov	lr, r3
 8008c02:	4770      	bx	lr

08008c04 <_fini>:
 8008c04:	b5f8      	push	{r3, r4, r5, r6, r7, lr}
 8008c06:	bf00      	nop
 8008c08:	bcf8      	pop	{r3, r4, r5, r6, r7}
 8008c0a:	bc08      	pop	{r3}
 8008c0c:	469e      	mov	lr, r3
 8008c0e:	4770      	bx	lr
