
BMS_REDO.elf:     file format elf32-littlearm

Sections:
Idx Name          Size      VMA       LMA       File off  Algn
  0 .isr_vector   000001c4  08000000  08000000  00001000  2**0
                  CONTENTS, ALLOC, LOAD, READONLY, DATA
  1 .text         00007cb4  080001d0  080001d0  000011d0  2**4
                  CONTENTS, ALLOC, LOAD, READONLY, CODE
  2 .rodata       000006e0  08007e88  08007e88  00008e88  2**3
                  CONTENTS, ALLOC, LOAD, READONLY, DATA
  3 .ARM.extab    00000000  08008568  08008568  0000a1d8  2**0
                  CONTENTS
  4 .ARM          00000008  08008568  08008568  00009568  2**2
                  CONTENTS, ALLOC, LOAD, READONLY, DATA
  5 .preinit_array 00000000  08008570  08008570  0000a1d8  2**0
                  CONTENTS, ALLOC, LOAD, DATA
  6 .init_array   00000004  08008570  08008570  00009570  2**2
                  CONTENTS, ALLOC, LOAD, READONLY, DATA
  7 .fini_array   00000004  08008574  08008574  00009574  2**2
                  CONTENTS, ALLOC, LOAD, READONLY, DATA
  8 .data         000001d8  20000000  08008578  0000a000  2**2
                  CONTENTS, ALLOC, LOAD, DATA
  9 .bss          000006e8  200001d8  08008750  0000a1d8  2**2
                  ALLOC
 10 ._user_heap_stack 00000600  200008c0  08008750  0000a8c0  2**0
                  ALLOC
 11 .ARM.attributes 00000030  00000000  00000000  0000a1d8  2**0
                  CONTENTS, READONLY
 12 .comment      00000043  00000000  00000000  0000a208  2**0
                  CONTENTS, READONLY
 13 .debug_frame  00001750  00000000  00000000  0000a24c  2**2
                  CONTENTS, READONLY, DEBUGGING, OCTETS

Disassembly of section .text:

080001d0 <__do_global_dtors_aux>:
 80001d0:	b510      	push	{r4, lr}
 80001d2:	4c05      	ldr	r4, [pc, #20]	@ (80001e8 <__do_global_dtors_aux+0x18>)
 80001d4:	7823      	ldrb	r3, [r4, #0]
 80001d6:	b933      	cbnz	r3, 80001e6 <__do_global_dtors_aux+0x16>
 80001d8:	4b04      	ldr	r3, [pc, #16]	@ (80001ec <__do_global_dtors_aux+0x1c>)
 80001da:	b113      	cbz	r3, 80001e2 <__do_global_dtors_aux+0x12>
 80001dc:	4804      	ldr	r0, [pc, #16]	@ (80001f0 <__do_global_dtors_aux+0x20>)
 80001de:	f3af 8000 	nop.w
 80001e2:	2301      	movs	r3, #1
 80001e4:	7023      	strb	r3, [r4, #0]
 80001e6:	bd10      	pop	{r4, pc}
 80001e8:	200001d8 	.word	0x200001d8
 80001ec:	00000000 	.word	0x00000000
 80001f0:	08007e6c 	.word	0x08007e6c

080001f4 <frame_dummy>:
 80001f4:	b508      	push	{r3, lr}
 80001f6:	4b03      	ldr	r3, [pc, #12]	@ (8000204 <frame_dummy+0x10>)
 80001f8:	b11b      	cbz	r3, 8000202 <frame_dummy+0xe>
 80001fa:	4903      	ldr	r1, [pc, #12]	@ (8000208 <frame_dummy+0x14>)
 80001fc:	4803      	ldr	r0, [pc, #12]	@ (800020c <frame_dummy+0x18>)
 80001fe:	f3af 8000 	nop.w
 8000202:	bd08      	pop	{r3, pc}
 8000204:	00000000 	.word	0x00000000
 8000208:	200001dc 	.word	0x200001dc
 800020c:	08007e6c 	.word	0x08007e6c

08000210 <memchr>:
 8000210:	f001 01ff 	and.w	r1, r1, #255	@ 0xff
 8000214:	2a10      	cmp	r2, #16
 8000216:	db2b      	blt.n	8000270 <memchr+0x60>
 8000218:	f010 0f07 	tst.w	r0, #7
 800021c:	d008      	beq.n	8000230 <memchr+0x20>
 800021e:	f810 3b01 	ldrb.w	r3, [r0], #1
 8000222:	3a01      	subs	r2, #1
 8000224:	428b      	cmp	r3, r1
 8000226:	d02d      	beq.n	8000284 <memchr+0x74>
 8000228:	f010 0f07 	tst.w	r0, #7
 800022c:	b342      	cbz	r2, 8000280 <memchr+0x70>
 800022e:	d1f6      	bne.n	800021e <memchr+0xe>
 8000230:	b4f0      	push	{r4, r5, r6, r7}
 8000232:	ea41 2101 	orr.w	r1, r1, r1, lsl #8
 8000236:	ea41 4101 	orr.w	r1, r1, r1, lsl #16
 800023a:	f022 0407 	bic.w	r4, r2, #7
 800023e:	f07f 0700 	mvns.w	r7, #0
 8000242:	2300      	movs	r3, #0
 8000244:	e8f0 5602 	ldrd	r5, r6, [r0], #8
 8000248:	3c08      	subs	r4, #8
 800024a:	ea85 0501 	eor.w	r5, r5, r1
 800024e:	ea86 0601 	eor.w	r6, r6, r1
 8000252:	fa85 f547 	uadd8	r5, r5, r7
 8000256:	faa3 f587 	sel	r5, r3, r7
 800025a:	fa86 f647 	uadd8	r6, r6, r7
 800025e:	faa5 f687 	sel	r6, r5, r7
 8000262:	b98e      	cbnz	r6, 8000288 <memchr+0x78>
 8000264:	d1ee      	bne.n	8000244 <memchr+0x34>
 8000266:	bcf0      	pop	{r4, r5, r6, r7}
 8000268:	f001 01ff 	and.w	r1, r1, #255	@ 0xff
 800026c:	f002 0207 	and.w	r2, r2, #7
 8000270:	b132      	cbz	r2, 8000280 <memchr+0x70>
 8000272:	f810 3b01 	ldrb.w	r3, [r0], #1
 8000276:	3a01      	subs	r2, #1
 8000278:	ea83 0301 	eor.w	r3, r3, r1
 800027c:	b113      	cbz	r3, 8000284 <memchr+0x74>
 800027e:	d1f8      	bne.n	8000272 <memchr+0x62>
 8000280:	2000      	movs	r0, #0
 8000282:	4770      	bx	lr
 8000284:	3801      	subs	r0, #1
 8000286:	4770      	bx	lr
 8000288:	2d00      	cmp	r5, #0
 800028a:	bf06      	itte	eq
 800028c:	4635      	moveq	r5, r6
 800028e:	3803      	subeq	r0, #3
 8000290:	3807      	subne	r0, #7
 8000292:	f015 0f01 	tst.w	r5, #1
 8000296:	d107      	bne.n	80002a8 <memchr+0x98>
 8000298:	3001      	adds	r0, #1
 800029a:	f415 7f80 	tst.w	r5, #256	@ 0x100
 800029e:	bf02      	ittt	eq
 80002a0:	3001      	addeq	r0, #1
 80002a2:	f415 3fc0 	tsteq.w	r5, #98304	@ 0x18000
 80002a6:	3001      	addeq	r0, #1
 80002a8:	bcf0      	pop	{r4, r5, r6, r7}
 80002aa:	3801      	subs	r0, #1
 80002ac:	4770      	bx	lr
 80002ae:	bf00      	nop

080002b0 <strlen>:
 80002b0:	4603      	mov	r3, r0
 80002b2:	f813 2b01 	ldrb.w	r2, [r3], #1
 80002b6:	2a00      	cmp	r2, #0
 80002b8:	d1fb      	bne.n	80002b2 <strlen+0x2>
 80002ba:	1a18      	subs	r0, r3, r0
 80002bc:	3801      	subs	r0, #1
 80002be:	4770      	bx	lr

080002c0 <__aeabi_drsub>:
 80002c0:	f081 4100 	eor.w	r1, r1, #2147483648	@ 0x80000000
 80002c4:	e002      	b.n	80002cc <__adddf3>
 80002c6:	bf00      	nop

080002c8 <__aeabi_dsub>:
 80002c8:	f083 4300 	eor.w	r3, r3, #2147483648	@ 0x80000000

080002cc <__adddf3>:
 80002cc:	b530      	push	{r4, r5, lr}
 80002ce:	ea4f 0441 	mov.w	r4, r1, lsl #1
 80002d2:	ea4f 0543 	mov.w	r5, r3, lsl #1
 80002d6:	ea94 0f05 	teq	r4, r5
 80002da:	bf08      	it	eq
 80002dc:	ea90 0f02 	teqeq	r0, r2
 80002e0:	bf1f      	itttt	ne
 80002e2:	ea54 0c00 	orrsne.w	ip, r4, r0
 80002e6:	ea55 0c02 	orrsne.w	ip, r5, r2
 80002ea:	ea7f 5c64 	mvnsne.w	ip, r4, asr #21
 80002ee:	ea7f 5c65 	mvnsne.w	ip, r5, asr #21
 80002f2:	f000 80e2 	beq.w	80004ba <__adddf3+0x1ee>
 80002f6:	ea4f 5454 	mov.w	r4, r4, lsr #21
 80002fa:	ebd4 5555 	rsbs	r5, r4, r5, lsr #21
 80002fe:	bfb8      	it	lt
 8000300:	426d      	neglt	r5, r5
 8000302:	dd0c      	ble.n	800031e <__adddf3+0x52>
 8000304:	442c      	add	r4, r5
 8000306:	ea80 0202 	eor.w	r2, r0, r2
 800030a:	ea81 0303 	eor.w	r3, r1, r3
 800030e:	ea82 0000 	eor.w	r0, r2, r0
 8000312:	ea83 0101 	eor.w	r1, r3, r1
 8000316:	ea80 0202 	eor.w	r2, r0, r2
 800031a:	ea81 0303 	eor.w	r3, r1, r3
 800031e:	2d36      	cmp	r5, #54	@ 0x36
 8000320:	bf88      	it	hi
 8000322:	bd30      	pophi	{r4, r5, pc}
 8000324:	f011 4f00 	tst.w	r1, #2147483648	@ 0x80000000
 8000328:	ea4f 3101 	mov.w	r1, r1, lsl #12
 800032c:	f44f 1c80 	mov.w	ip, #1048576	@ 0x100000
 8000330:	ea4c 3111 	orr.w	r1, ip, r1, lsr #12
 8000334:	d002      	beq.n	800033c <__adddf3+0x70>
 8000336:	4240      	negs	r0, r0
 8000338:	eb61 0141 	sbc.w	r1, r1, r1, lsl #1
 800033c:	f013 4f00 	tst.w	r3, #2147483648	@ 0x80000000
 8000340:	ea4f 3303 	mov.w	r3, r3, lsl #12
 8000344:	ea4c 3313 	orr.w	r3, ip, r3, lsr #12
 8000348:	d002      	beq.n	8000350 <__adddf3+0x84>
 800034a:	4252      	negs	r2, r2
 800034c:	eb63 0343 	sbc.w	r3, r3, r3, lsl #1
 8000350:	ea94 0f05 	teq	r4, r5
 8000354:	f000 80a7 	beq.w	80004a6 <__adddf3+0x1da>
 8000358:	f1a4 0401 	sub.w	r4, r4, #1
 800035c:	f1d5 0e20 	rsbs	lr, r5, #32
 8000360:	db0d      	blt.n	800037e <__adddf3+0xb2>
 8000362:	fa02 fc0e 	lsl.w	ip, r2, lr
 8000366:	fa22 f205 	lsr.w	r2, r2, r5
 800036a:	1880      	adds	r0, r0, r2
 800036c:	f141 0100 	adc.w	r1, r1, #0
 8000370:	fa03 f20e 	lsl.w	r2, r3, lr
 8000374:	1880      	adds	r0, r0, r2
 8000376:	fa43 f305 	asr.w	r3, r3, r5
 800037a:	4159      	adcs	r1, r3
 800037c:	e00e      	b.n	800039c <__adddf3+0xd0>
 800037e:	f1a5 0520 	sub.w	r5, r5, #32
 8000382:	f10e 0e20 	add.w	lr, lr, #32
 8000386:	2a01      	cmp	r2, #1
 8000388:	fa03 fc0e 	lsl.w	ip, r3, lr
 800038c:	bf28      	it	cs
 800038e:	f04c 0c02 	orrcs.w	ip, ip, #2
 8000392:	fa43 f305 	asr.w	r3, r3, r5
 8000396:	18c0      	adds	r0, r0, r3
 8000398:	eb51 71e3 	adcs.w	r1, r1, r3, asr #31
 800039c:	f001 4500 	and.w	r5, r1, #2147483648	@ 0x80000000
 80003a0:	d507      	bpl.n	80003b2 <__adddf3+0xe6>
 80003a2:	f04f 0e00 	mov.w	lr, #0
 80003a6:	f1dc 0c00 	rsbs	ip, ip, #0
 80003aa:	eb7e 0000 	sbcs.w	r0, lr, r0
 80003ae:	eb6e 0101 	sbc.w	r1, lr, r1
 80003b2:	f5b1 1f80 	cmp.w	r1, #1048576	@ 0x100000
 80003b6:	d31b      	bcc.n	80003f0 <__adddf3+0x124>
 80003b8:	f5b1 1f00 	cmp.w	r1, #2097152	@ 0x200000
 80003bc:	d30c      	bcc.n	80003d8 <__adddf3+0x10c>
 80003be:	0849      	lsrs	r1, r1, #1
 80003c0:	ea5f 0030 	movs.w	r0, r0, rrx
 80003c4:	ea4f 0c3c 	mov.w	ip, ip, rrx
 80003c8:	f104 0401 	add.w	r4, r4, #1
 80003cc:	ea4f 5244 	mov.w	r2, r4, lsl #21
 80003d0:	f512 0f80 	cmn.w	r2, #4194304	@ 0x400000
 80003d4:	f080 809a 	bcs.w	800050c <__adddf3+0x240>
 80003d8:	f1bc 4f00 	cmp.w	ip, #2147483648	@ 0x80000000
 80003dc:	bf08      	it	eq
 80003de:	ea5f 0c50 	movseq.w	ip, r0, lsr #1
 80003e2:	f150 0000 	adcs.w	r0, r0, #0
 80003e6:	eb41 5104 	adc.w	r1, r1, r4, lsl #20
 80003ea:	ea41 0105 	orr.w	r1, r1, r5
 80003ee:	bd30      	pop	{r4, r5, pc}
 80003f0:	ea5f 0c4c 	movs.w	ip, ip, lsl #1
 80003f4:	4140      	adcs	r0, r0
 80003f6:	eb41 0101 	adc.w	r1, r1, r1
 80003fa:	3c01      	subs	r4, #1
 80003fc:	bf28      	it	cs
 80003fe:	f5b1 1f80 	cmpcs.w	r1, #1048576	@ 0x100000
 8000402:	d2e9      	bcs.n	80003d8 <__adddf3+0x10c>
 8000404:	f091 0f00 	teq	r1, #0
 8000408:	bf04      	itt	eq
 800040a:	4601      	moveq	r1, r0
 800040c:	2000      	moveq	r0, #0
 800040e:	fab1 f381 	clz	r3, r1
 8000412:	bf08      	it	eq
 8000414:	3320      	addeq	r3, #32
 8000416:	f1a3 030b 	sub.w	r3, r3, #11
 800041a:	f1b3 0220 	subs.w	r2, r3, #32
 800041e:	da0c      	bge.n	800043a <__adddf3+0x16e>
 8000420:	320c      	adds	r2, #12
 8000422:	dd08      	ble.n	8000436 <__adddf3+0x16a>
 8000424:	f102 0c14 	add.w	ip, r2, #20
 8000428:	f1c2 020c 	rsb	r2, r2, #12
 800042c:	fa01 f00c 	lsl.w	r0, r1, ip
 8000430:	fa21 f102 	lsr.w	r1, r1, r2
 8000434:	e00c      	b.n	8000450 <__adddf3+0x184>
 8000436:	f102 0214 	add.w	r2, r2, #20
 800043a:	bfd8      	it	le
 800043c:	f1c2 0c20 	rsble	ip, r2, #32
 8000440:	fa01 f102 	lsl.w	r1, r1, r2
 8000444:	fa20 fc0c 	lsr.w	ip, r0, ip
 8000448:	bfdc      	itt	le
 800044a:	ea41 010c 	orrle.w	r1, r1, ip
 800044e:	4090      	lslle	r0, r2
 8000450:	1ae4      	subs	r4, r4, r3
 8000452:	bfa2      	ittt	ge
 8000454:	eb01 5104 	addge.w	r1, r1, r4, lsl #20
 8000458:	4329      	orrge	r1, r5
 800045a:	bd30      	popge	{r4, r5, pc}
 800045c:	ea6f 0404 	mvn.w	r4, r4
 8000460:	3c1f      	subs	r4, #31
 8000462:	da1c      	bge.n	800049e <__adddf3+0x1d2>
 8000464:	340c      	adds	r4, #12
 8000466:	dc0e      	bgt.n	8000486 <__adddf3+0x1ba>
 8000468:	f104 0414 	add.w	r4, r4, #20
 800046c:	f1c4 0220 	rsb	r2, r4, #32
 8000470:	fa20 f004 	lsr.w	r0, r0, r4
 8000474:	fa01 f302 	lsl.w	r3, r1, r2
 8000478:	ea40 0003 	orr.w	r0, r0, r3
 800047c:	fa21 f304 	lsr.w	r3, r1, r4
 8000480:	ea45 0103 	orr.w	r1, r5, r3
 8000484:	bd30      	pop	{r4, r5, pc}
 8000486:	f1c4 040c 	rsb	r4, r4, #12
 800048a:	f1c4 0220 	rsb	r2, r4, #32
 800048e:	fa20 f002 	lsr.w	r0, r0, r2
 8000492:	fa01 f304 	lsl.w	r3, r1, r4
 8000496:	ea40 0003 	orr.w	r0, r0, r3
 800049a:	4629      	mov	r1, r5
 800049c:	bd30      	pop	{r4, r5, pc}
 800049e:	fa21 f004 	lsr.w	r0, r1, r4
 80004a2:	4629      	mov	r1, r5
 80004a4:	bd30      	pop	{r4, r5, pc}
 80004a6:	f094 0f00 	teq	r4, #0
 80004aa:	f483 1380 	eor.w	r3, r3, #1048576	@ 0x100000
 80004ae:	bf06      	itte	eq
 80004b0:	f481 1180 	eoreq.w	r1, r1, #1048576	@ 0x100000
 80004b4:	3401      	addeq	r4, #1
 80004b6:	3d01      	subne	r5, #1
 80004b8:	e74e      	b.n	8000358 <__adddf3+0x8c>
 80004ba:	ea7f 5c64 	mvns.w	ip, r4, asr #21
 80004be:	bf18      	it	ne
 80004c0:	ea7f 5c65 	mvnsne.w	ip, r5, asr #21
 80004c4:	d029      	beq.n	800051a <__adddf3+0x24e>
 80004c6:	ea94 0f05 	teq	r4, r5
 80004ca:	bf08      	it	eq
 80004cc:	ea90 0f02 	teqeq	r0, r2
 80004d0:	d005      	beq.n	80004de <__adddf3+0x212>
 80004d2:	ea54 0c00 	orrs.w	ip, r4, r0
 80004d6:	bf04      	itt	eq
 80004d8:	4619      	moveq	r1, r3
 80004da:	4610      	moveq	r0, r2
 80004dc:	bd30      	pop	{r4, r5, pc}
 80004de:	ea91 0f03 	teq	r1, r3
 80004e2:	bf1e      	ittt	ne
 80004e4:	2100      	movne	r1, #0
 80004e6:	2000      	movne	r0, #0
 80004e8:	bd30      	popne	{r4, r5, pc}
 80004ea:	ea5f 5c54 	movs.w	ip, r4, lsr #21
 80004ee:	d105      	bne.n	80004fc <__adddf3+0x230>
 80004f0:	0040      	lsls	r0, r0, #1
 80004f2:	4149      	adcs	r1, r1
 80004f4:	bf28      	it	cs
 80004f6:	f041 4100 	orrcs.w	r1, r1, #2147483648	@ 0x80000000
 80004fa:	bd30      	pop	{r4, r5, pc}
 80004fc:	f514 0480 	adds.w	r4, r4, #4194304	@ 0x400000
 8000500:	bf3c      	itt	cc
 8000502:	f501 1180 	addcc.w	r1, r1, #1048576	@ 0x100000
 8000506:	bd30      	popcc	{r4, r5, pc}
 8000508:	f001 4500 	and.w	r5, r1, #2147483648	@ 0x80000000
 800050c:	f045 41fe 	orr.w	r1, r5, #2130706432	@ 0x7f000000
 8000510:	f441 0170 	orr.w	r1, r1, #15728640	@ 0xf00000
 8000514:	f04f 0000 	mov.w	r0, #0
 8000518:	bd30      	pop	{r4, r5, pc}
 800051a:	ea7f 5c64 	mvns.w	ip, r4, asr #21
 800051e:	bf1a      	itte	ne
 8000520:	4619      	movne	r1, r3
 8000522:	4610      	movne	r0, r2
 8000524:	ea7f 5c65 	mvnseq.w	ip, r5, asr #21
 8000528:	bf1c      	itt	ne
 800052a:	460b      	movne	r3, r1
 800052c:	4602      	movne	r2, r0
 800052e:	ea50 3401 	orrs.w	r4, r0, r1, lsl #12
 8000532:	bf06      	itte	eq
 8000534:	ea52 3503 	orrseq.w	r5, r2, r3, lsl #12
 8000538:	ea91 0f03 	teqeq	r1, r3
 800053c:	f441 2100 	orrne.w	r1, r1, #524288	@ 0x80000
 8000540:	bd30      	pop	{r4, r5, pc}
 8000542:	bf00      	nop

08000544 <__aeabi_ui2d>:
 8000544:	f090 0f00 	teq	r0, #0
 8000548:	bf04      	itt	eq
 800054a:	2100      	moveq	r1, #0
 800054c:	4770      	bxeq	lr
 800054e:	b530      	push	{r4, r5, lr}
 8000550:	f44f 6480 	mov.w	r4, #1024	@ 0x400
 8000554:	f104 0432 	add.w	r4, r4, #50	@ 0x32
 8000558:	f04f 0500 	mov.w	r5, #0
 800055c:	f04f 0100 	mov.w	r1, #0
 8000560:	e750      	b.n	8000404 <__adddf3+0x138>
 8000562:	bf00      	nop

08000564 <__aeabi_i2d>:
 8000564:	f090 0f00 	teq	r0, #0
 8000568:	bf04      	itt	eq
 800056a:	2100      	moveq	r1, #0
 800056c:	4770      	bxeq	lr
 800056e:	b530      	push	{r4, r5, lr}
 8000570:	f44f 6480 	mov.w	r4, #1024	@ 0x400
 8000574:	f104 0432 	add.w	r4, r4, #50	@ 0x32
 8000578:	f010 4500 	ands.w	r5, r0, #2147483648	@ 0x80000000
 800057c:	bf48      	it	mi
 800057e:	4240      	negmi	r0, r0
 8000580:	f04f 0100 	mov.w	r1, #0
 8000584:	e73e      	b.n	8000404 <__adddf3+0x138>
 8000586:	bf00      	nop

08000588 <__aeabi_f2d>:
 8000588:	0042      	lsls	r2, r0, #1
 800058a:	ea4f 01e2 	mov.w	r1, r2, asr #3
 800058e:	ea4f 0131 	mov.w	r1, r1, rrx
 8000592:	ea4f 7002 	mov.w	r0, r2, lsl #28
 8000596:	bf1f      	itttt	ne
 8000598:	f012 437f 	andsne.w	r3, r2, #4278190080	@ 0xff000000
 800059c:	f093 4f7f 	teqne	r3, #4278190080	@ 0xff000000
 80005a0:	f081 5160 	eorne.w	r1, r1, #939524096	@ 0x38000000
 80005a4:	4770      	bxne	lr
 80005a6:	f032 427f 	bics.w	r2, r2, #4278190080	@ 0xff000000
 80005aa:	bf08      	it	eq
 80005ac:	4770      	bxeq	lr
 80005ae:	f093 4f7f 	teq	r3, #4278190080	@ 0xff000000
 80005b2:	bf04      	itt	eq
 80005b4:	f441 2100 	orreq.w	r1, r1, #524288	@ 0x80000
 80005b8:	4770      	bxeq	lr
 80005ba:	b530      	push	{r4, r5, lr}
 80005bc:	f44f 7460 	mov.w	r4, #896	@ 0x380
 80005c0:	f001 4500 	and.w	r5, r1, #2147483648	@ 0x80000000
 80005c4:	f021 4100 	bic.w	r1, r1, #2147483648	@ 0x80000000
 80005c8:	e71c      	b.n	8000404 <__adddf3+0x138>
 80005ca:	bf00      	nop

080005cc <__aeabi_ul2d>:
 80005cc:	ea50 0201 	orrs.w	r2, r0, r1
 80005d0:	bf08      	it	eq
 80005d2:	4770      	bxeq	lr
 80005d4:	b530      	push	{r4, r5, lr}
 80005d6:	f04f 0500 	mov.w	r5, #0
 80005da:	e00a      	b.n	80005f2 <__aeabi_l2d+0x16>

080005dc <__aeabi_l2d>:
 80005dc:	ea50 0201 	orrs.w	r2, r0, r1
 80005e0:	bf08      	it	eq
 80005e2:	4770      	bxeq	lr
 80005e4:	b530      	push	{r4, r5, lr}
 80005e6:	f011 4500 	ands.w	r5, r1, #2147483648	@ 0x80000000
 80005ea:	d502      	bpl.n	80005f2 <__aeabi_l2d+0x16>
 80005ec:	4240      	negs	r0, r0
 80005ee:	eb61 0141 	sbc.w	r1, r1, r1, lsl #1
 80005f2:	f44f 6480 	mov.w	r4, #1024	@ 0x400
 80005f6:	f104 0432 	add.w	r4, r4, #50	@ 0x32
 80005fa:	ea5f 5c91 	movs.w	ip, r1, lsr #22
 80005fe:	f43f aed8 	beq.w	80003b2 <__adddf3+0xe6>
 8000602:	f04f 0203 	mov.w	r2, #3
 8000606:	ea5f 0cdc 	movs.w	ip, ip, lsr #3
 800060a:	bf18      	it	ne
 800060c:	3203      	addne	r2, #3
 800060e:	ea5f 0cdc 	movs.w	ip, ip, lsr #3
 8000612:	bf18      	it	ne
 8000614:	3203      	addne	r2, #3
 8000616:	eb02 02dc 	add.w	r2, r2, ip, lsr #3
 800061a:	f1c2 0320 	rsb	r3, r2, #32
 800061e:	fa00 fc03 	lsl.w	ip, r0, r3
 8000622:	fa20 f002 	lsr.w	r0, r0, r2
 8000626:	fa01 fe03 	lsl.w	lr, r1, r3
 800062a:	ea40 000e 	orr.w	r0, r0, lr
 800062e:	fa21 f102 	lsr.w	r1, r1, r2
 8000632:	4414      	add	r4, r2
 8000634:	e6bd      	b.n	80003b2 <__adddf3+0xe6>
 8000636:	bf00      	nop

08000638 <__aeabi_dmul>:
 8000638:	b570      	push	{r4, r5, r6, lr}
 800063a:	f04f 0cff 	mov.w	ip, #255	@ 0xff
 800063e:	f44c 6ce0 	orr.w	ip, ip, #1792	@ 0x700
 8000642:	ea1c 5411 	ands.w	r4, ip, r1, lsr #20
 8000646:	bf1d      	ittte	ne
 8000648:	ea1c 5513 	andsne.w	r5, ip, r3, lsr #20
 800064c:	ea94 0f0c 	teqne	r4, ip
 8000650:	ea95 0f0c 	teqne	r5, ip
 8000654:	f000 f8de 	bleq	8000814 <__aeabi_dmul+0x1dc>
 8000658:	442c      	add	r4, r5
 800065a:	ea81 0603 	eor.w	r6, r1, r3
 800065e:	ea21 514c 	bic.w	r1, r1, ip, lsl #21
 8000662:	ea23 534c 	bic.w	r3, r3, ip, lsl #21
 8000666:	ea50 3501 	orrs.w	r5, r0, r1, lsl #12
 800066a:	bf18      	it	ne
 800066c:	ea52 3503 	orrsne.w	r5, r2, r3, lsl #12
 8000670:	f441 1180 	orr.w	r1, r1, #1048576	@ 0x100000
 8000674:	f443 1380 	orr.w	r3, r3, #1048576	@ 0x100000
 8000678:	d038      	beq.n	80006ec <__aeabi_dmul+0xb4>
 800067a:	fba0 ce02 	umull	ip, lr, r0, r2
 800067e:	f04f 0500 	mov.w	r5, #0
 8000682:	fbe1 e502 	umlal	lr, r5, r1, r2
 8000686:	f006 4200 	and.w	r2, r6, #2147483648	@ 0x80000000
 800068a:	fbe0 e503 	umlal	lr, r5, r0, r3
 800068e:	f04f 0600 	mov.w	r6, #0
 8000692:	fbe1 5603 	umlal	r5, r6, r1, r3
 8000696:	f09c 0f00 	teq	ip, #0
 800069a:	bf18      	it	ne
 800069c:	f04e 0e01 	orrne.w	lr, lr, #1
 80006a0:	f1a4 04ff 	sub.w	r4, r4, #255	@ 0xff
 80006a4:	f5b6 7f00 	cmp.w	r6, #512	@ 0x200
 80006a8:	f564 7440 	sbc.w	r4, r4, #768	@ 0x300
 80006ac:	d204      	bcs.n	80006b8 <__aeabi_dmul+0x80>
 80006ae:	ea5f 0e4e 	movs.w	lr, lr, lsl #1
 80006b2:	416d      	adcs	r5, r5
 80006b4:	eb46 0606 	adc.w	r6, r6, r6
 80006b8:	ea42 21c6 	orr.w	r1, r2, r6, lsl #11
 80006bc:	ea41 5155 	orr.w	r1, r1, r5, lsr #21
 80006c0:	ea4f 20c5 	mov.w	r0, r5, lsl #11
 80006c4:	ea40 505e 	orr.w	r0, r0, lr, lsr #21
 80006c8:	ea4f 2ece 	mov.w	lr, lr, lsl #11
 80006cc:	f1b4 0cfd 	subs.w	ip, r4, #253	@ 0xfd
 80006d0:	bf88      	it	hi
 80006d2:	f5bc 6fe0 	cmphi.w	ip, #1792	@ 0x700
 80006d6:	d81e      	bhi.n	8000716 <__aeabi_dmul+0xde>
 80006d8:	f1be 4f00 	cmp.w	lr, #2147483648	@ 0x80000000
 80006dc:	bf08      	it	eq
 80006de:	ea5f 0e50 	movseq.w	lr, r0, lsr #1
 80006e2:	f150 0000 	adcs.w	r0, r0, #0
 80006e6:	eb41 5104 	adc.w	r1, r1, r4, lsl #20
 80006ea:	bd70      	pop	{r4, r5, r6, pc}
 80006ec:	f006 4600 	and.w	r6, r6, #2147483648	@ 0x80000000
 80006f0:	ea46 0101 	orr.w	r1, r6, r1
 80006f4:	ea40 0002 	orr.w	r0, r0, r2
 80006f8:	ea81 0103 	eor.w	r1, r1, r3
 80006fc:	ebb4 045c 	subs.w	r4, r4, ip, lsr #1
 8000700:	bfc2      	ittt	gt
 8000702:	ebd4 050c 	rsbsgt	r5, r4, ip
 8000706:	ea41 5104 	orrgt.w	r1, r1, r4, lsl #20
 800070a:	bd70      	popgt	{r4, r5, r6, pc}
 800070c:	f441 1180 	orr.w	r1, r1, #1048576	@ 0x100000
 8000710:	f04f 0e00 	mov.w	lr, #0
 8000714:	3c01      	subs	r4, #1
 8000716:	f300 80ab 	bgt.w	8000870 <__aeabi_dmul+0x238>
 800071a:	f114 0f36 	cmn.w	r4, #54	@ 0x36
 800071e:	bfde      	ittt	le
 8000720:	2000      	movle	r0, #0
 8000722:	f001 4100 	andle.w	r1, r1, #2147483648	@ 0x80000000
 8000726:	bd70      	pople	{r4, r5, r6, pc}
 8000728:	f1c4 0400 	rsb	r4, r4, #0
 800072c:	3c20      	subs	r4, #32
 800072e:	da35      	bge.n	800079c <__aeabi_dmul+0x164>
 8000730:	340c      	adds	r4, #12
 8000732:	dc1b      	bgt.n	800076c <__aeabi_dmul+0x134>
 8000734:	f104 0414 	add.w	r4, r4, #20
 8000738:	f1c4 0520 	rsb	r5, r4, #32
 800073c:	fa00 f305 	lsl.w	r3, r0, r5
 8000740:	fa20 f004 	lsr.w	r0, r0, r4
 8000744:	fa01 f205 	lsl.w	r2, r1, r5
 8000748:	ea40 0002 	orr.w	r0, r0, r2
 800074c:	f001 4200 	and.w	r2, r1, #2147483648	@ 0x80000000
 8000750:	f021 4100 	bic.w	r1, r1, #2147483648	@ 0x80000000
 8000754:	eb10 70d3 	adds.w	r0, r0, r3, lsr #31
 8000758:	fa21 f604 	lsr.w	r6, r1, r4
 800075c:	eb42 0106 	adc.w	r1, r2, r6
 8000760:	ea5e 0e43 	orrs.w	lr, lr, r3, lsl #1
 8000764:	bf08      	it	eq
 8000766:	ea20 70d3 	biceq.w	r0, r0, r3, lsr #31
 800076a:	bd70      	pop	{r4, r5, r6, pc}
 800076c:	f1c4 040c 	rsb	r4, r4, #12
 8000770:	f1c4 0520 	rsb	r5, r4, #32
 8000774:	fa00 f304 	lsl.w	r3, r0, r4
 8000778:	fa20 f005 	lsr.w	r0, r0, r5
 800077c:	fa01 f204 	lsl.w	r2, r1, r4
 8000780:	ea40 0002 	orr.w	r0, r0, r2
 8000784:	f001 4100 	and.w	r1, r1, #2147483648	@ 0x80000000
 8000788:	eb10 70d3 	adds.w	r0, r0, r3, lsr #31
 800078c:	f141 0100 	adc.w	r1, r1, #0
 8000790:	ea5e 0e43 	orrs.w	lr, lr, r3, lsl #1
 8000794:	bf08      	it	eq
 8000796:	ea20 70d3 	biceq.w	r0, r0, r3, lsr #31
 800079a:	bd70      	pop	{r4, r5, r6, pc}
 800079c:	f1c4 0520 	rsb	r5, r4, #32
 80007a0:	fa00 f205 	lsl.w	r2, r0, r5
 80007a4:	ea4e 0e02 	orr.w	lr, lr, r2
 80007a8:	fa20 f304 	lsr.w	r3, r0, r4
 80007ac:	fa01 f205 	lsl.w	r2, r1, r5
 80007b0:	ea43 0302 	orr.w	r3, r3, r2
 80007b4:	fa21 f004 	lsr.w	r0, r1, r4
 80007b8:	f001 4100 	and.w	r1, r1, #2147483648	@ 0x80000000
 80007bc:	fa21 f204 	lsr.w	r2, r1, r4
 80007c0:	ea20 0002 	bic.w	r0, r0, r2
 80007c4:	eb00 70d3 	add.w	r0, r0, r3, lsr #31
 80007c8:	ea5e 0e43 	orrs.w	lr, lr, r3, lsl #1
 80007cc:	bf08      	it	eq
 80007ce:	ea20 70d3 	biceq.w	r0, r0, r3, lsr #31
 80007d2:	bd70      	pop	{r4, r5, r6, pc}
 80007d4:	f094 0f00 	teq	r4, #0
 80007d8:	d10f      	bne.n	80007fa <__aeabi_dmul+0x1c2>
 80007da:	f001 4600 	and.w	r6, r1, #2147483648	@ 0x80000000
 80007de:	0040      	lsls	r0, r0, #1
 80007e0:	eb41 0101 	adc.w	r1, r1, r1
 80007e4:	f411 1f80 	tst.w	r1, #1048576	@ 0x100000
 80007e8:	bf08      	it	eq
 80007ea:	3c01      	subeq	r4, #1
 80007ec:	d0f7      	beq.n	80007de <__aeabi_dmul+0x1a6>
 80007ee:	ea41 0106 	orr.w	r1, r1, r6
 80007f2:	f095 0f00 	teq	r5, #0
 80007f6:	bf18      	it	ne
 80007f8:	4770      	bxne	lr
 80007fa:	f003 4600 	and.w	r6, r3, #2147483648	@ 0x80000000
 80007fe:	0052      	lsls	r2, r2, #1
 8000800:	eb43 0303 	adc.w	r3, r3, r3
 8000804:	f413 1f80 	tst.w	r3, #1048576	@ 0x100000
 8000808:	bf08      	it	eq
 800080a:	3d01      	subeq	r5, #1
 800080c:	d0f7      	beq.n	80007fe <__aeabi_dmul+0x1c6>
 800080e:	ea43 0306 	orr.w	r3, r3, r6
 8000812:	4770      	bx	lr
 8000814:	ea94 0f0c 	teq	r4, ip
 8000818:	ea0c 5513 	and.w	r5, ip, r3, lsr #20
 800081c:	bf18      	it	ne
 800081e:	ea95 0f0c 	teqne	r5, ip
 8000822:	d00c      	beq.n	800083e <__aeabi_dmul+0x206>
 8000824:	ea50 0641 	orrs.w	r6, r0, r1, lsl #1
 8000828:	bf18      	it	ne
 800082a:	ea52 0643 	orrsne.w	r6, r2, r3, lsl #1
 800082e:	d1d1      	bne.n	80007d4 <__aeabi_dmul+0x19c>
 8000830:	ea81 0103 	eor.w	r1, r1, r3
 8000834:	f001 4100 	and.w	r1, r1, #2147483648	@ 0x80000000
 8000838:	f04f 0000 	mov.w	r0, #0
 800083c:	bd70      	pop	{r4, r5, r6, pc}
 800083e:	ea50 0641 	orrs.w	r6, r0, r1, lsl #1
 8000842:	bf06      	itte	eq
 8000844:	4610      	moveq	r0, r2
 8000846:	4619      	moveq	r1, r3
 8000848:	ea52 0643 	orrsne.w	r6, r2, r3, lsl #1
 800084c:	d019      	beq.n	8000882 <__aeabi_dmul+0x24a>
 800084e:	ea94 0f0c 	teq	r4, ip
 8000852:	d102      	bne.n	800085a <__aeabi_dmul+0x222>
 8000854:	ea50 3601 	orrs.w	r6, r0, r1, lsl #12
 8000858:	d113      	bne.n	8000882 <__aeabi_dmul+0x24a>
 800085a:	ea95 0f0c 	teq	r5, ip
 800085e:	d105      	bne.n	800086c <__aeabi_dmul+0x234>
 8000860:	ea52 3603 	orrs.w	r6, r2, r3, lsl #12
 8000864:	bf1c      	itt	ne
 8000866:	4610      	movne	r0, r2
 8000868:	4619      	movne	r1, r3
 800086a:	d10a      	bne.n	8000882 <__aeabi_dmul+0x24a>
 800086c:	ea81 0103 	eor.w	r1, r1, r3
 8000870:	f001 4100 	and.w	r1, r1, #2147483648	@ 0x80000000
 8000874:	f041 41fe 	orr.w	r1, r1, #2130706432	@ 0x7f000000
 8000878:	f441 0170 	orr.w	r1, r1, #15728640	@ 0xf00000
 800087c:	f04f 0000 	mov.w	r0, #0
 8000880:	bd70      	pop	{r4, r5, r6, pc}
 8000882:	f041 41fe 	orr.w	r1, r1, #2130706432	@ 0x7f000000
 8000886:	f441 0178 	orr.w	r1, r1, #16252928	@ 0xf80000
 800088a:	bd70      	pop	{r4, r5, r6, pc}

0800088c <__aeabi_ddiv>:
 800088c:	b570      	push	{r4, r5, r6, lr}
 800088e:	f04f 0cff 	mov.w	ip, #255	@ 0xff
 8000892:	f44c 6ce0 	orr.w	ip, ip, #1792	@ 0x700
 8000896:	ea1c 5411 	ands.w	r4, ip, r1, lsr #20
 800089a:	bf1d      	ittte	ne
 800089c:	ea1c 5513 	andsne.w	r5, ip, r3, lsr #20
 80008a0:	ea94 0f0c 	teqne	r4, ip
 80008a4:	ea95 0f0c 	teqne	r5, ip
 80008a8:	f000 f8a7 	bleq	80009fa <__aeabi_ddiv+0x16e>
 80008ac:	eba4 0405 	sub.w	r4, r4, r5
 80008b0:	ea81 0e03 	eor.w	lr, r1, r3
 80008b4:	ea52 3503 	orrs.w	r5, r2, r3, lsl #12
 80008b8:	ea4f 3101 	mov.w	r1, r1, lsl #12
 80008bc:	f000 8088 	beq.w	80009d0 <__aeabi_ddiv+0x144>
 80008c0:	ea4f 3303 	mov.w	r3, r3, lsl #12
 80008c4:	f04f 5580 	mov.w	r5, #268435456	@ 0x10000000
 80008c8:	ea45 1313 	orr.w	r3, r5, r3, lsr #4
 80008cc:	ea43 6312 	orr.w	r3, r3, r2, lsr #24
 80008d0:	ea4f 2202 	mov.w	r2, r2, lsl #8
 80008d4:	ea45 1511 	orr.w	r5, r5, r1, lsr #4
 80008d8:	ea45 6510 	orr.w	r5, r5, r0, lsr #24
 80008dc:	ea4f 2600 	mov.w	r6, r0, lsl #8
 80008e0:	f00e 4100 	and.w	r1, lr, #2147483648	@ 0x80000000
 80008e4:	429d      	cmp	r5, r3
 80008e6:	bf08      	it	eq
 80008e8:	4296      	cmpeq	r6, r2
 80008ea:	f144 04fd 	adc.w	r4, r4, #253	@ 0xfd
 80008ee:	f504 7440 	add.w	r4, r4, #768	@ 0x300
 80008f2:	d202      	bcs.n	80008fa <__aeabi_ddiv+0x6e>
 80008f4:	085b      	lsrs	r3, r3, #1
 80008f6:	ea4f 0232 	mov.w	r2, r2, rrx
 80008fa:	1ab6      	subs	r6, r6, r2
 80008fc:	eb65 0503 	sbc.w	r5, r5, r3
 8000900:	085b      	lsrs	r3, r3, #1
 8000902:	ea4f 0232 	mov.w	r2, r2, rrx
 8000906:	f44f 1080 	mov.w	r0, #1048576	@ 0x100000
 800090a:	f44f 2c00 	mov.w	ip, #524288	@ 0x80000
 800090e:	ebb6 0e02 	subs.w	lr, r6, r2
 8000912:	eb75 0e03 	sbcs.w	lr, r5, r3
 8000916:	bf22      	ittt	cs
 8000918:	1ab6      	subcs	r6, r6, r2
 800091a:	4675      	movcs	r5, lr
 800091c:	ea40 000c 	orrcs.w	r0, r0, ip
 8000920:	085b      	lsrs	r3, r3, #1
 8000922:	ea4f 0232 	mov.w	r2, r2, rrx
 8000926:	ebb6 0e02 	subs.w	lr, r6, r2
 800092a:	eb75 0e03 	sbcs.w	lr, r5, r3
 800092e:	bf22      	ittt	cs
 8000930:	1ab6      	subcs	r6, r6, r2
 8000932:	4675      	movcs	r5, lr
 8000934:	ea40 005c 	orrcs.w	r0, r0, ip, lsr #1
 8000938:	085b      	lsrs	r3, r3, #1
 800093a:	ea4f 0232 	mov.w	r2, r2, rrx
 800093e:	ebb6 0e02 	subs.w	lr, r6, r2
 8000942:	eb75 0e03 	sbcs.w	lr, r5, r3
 8000946:	bf22      	ittt	cs
 8000948:	1ab6      	subcs	r6, r6, r2
 800094a:	4675      	movcs	r5, lr
 800094c:	ea40 009c 	orrcs.w	r0, r0, ip, lsr #2
 8000950:	085b      	lsrs	r3, r3, #1
 8000952:	ea4f 0232 	mov.w	r2, r2, rrx
 8000956:	ebb6 0e02 	subs.w	lr, r6, r2
 800095a:	eb75 0e03 	sbcs.w	lr, r5, r3
 800095e:	bf22      	ittt	cs
 8000960:	1ab6      	subcs	r6, r6, r2
 8000962:	4675      	movcs	r5, lr
 8000964:	ea40 00dc 	orrcs.w	r0, r0, ip, lsr #3
 8000968:	ea55 0e06 	orrs.w	lr, r5, r6
 800096c:	d018      	beq.n	80009a0 <__aeabi_ddiv+0x114>
 800096e:	ea4f 1505 	mov.w	r5, r5, lsl #4
 8000972:	ea45 7516 	orr.w	r5, r5, r6, lsr #28
 8000976:	ea4f 1606 	mov.w	r6, r6, lsl #4
 800097a:	ea4f 03c3 	mov.w	r3, r3, lsl #3
 800097e:	ea43 7352 	orr.w	r3, r3, r2, lsr #29
 8000982:	ea4f 02c2 	mov.w	r2, r2, lsl #3
 8000986:	ea5f 1c1c 	movs.w	ip, ip, lsr #4
 800098a:	d1c0      	bne.n	800090e <__aeabi_ddiv+0x82>
 800098c:	f411 1f80 	tst.w	r1, #1048576	@ 0x100000
 8000990:	d10b      	bne.n	80009aa <__aeabi_ddiv+0x11e>
 8000992:	ea41 0100 	orr.w	r1, r1, r0
 8000996:	f04f 0000 	mov.w	r0, #0
 800099a:	f04f 4c00 	mov.w	ip, #2147483648	@ 0x80000000
 800099e:	e7b6      	b.n	800090e <__aeabi_ddiv+0x82>
 80009a0:	f411 1f80 	tst.w	r1, #1048576	@ 0x100000
 80009a4:	bf04      	itt	eq
 80009a6:	4301      	orreq	r1, r0
 80009a8:	2000      	moveq	r0, #0
 80009aa:	f1b4 0cfd 	subs.w	ip, r4, #253	@ 0xfd
 80009ae:	bf88      	it	hi
 80009b0:	f5bc 6fe0 	cmphi.w	ip, #1792	@ 0x700
 80009b4:	f63f aeaf 	bhi.w	8000716 <__aeabi_dmul+0xde>
 80009b8:	ebb5 0c03 	subs.w	ip, r5, r3
 80009bc:	bf04      	itt	eq
 80009be:	ebb6 0c02 	subseq.w	ip, r6, r2
 80009c2:	ea5f 0c50 	movseq.w	ip, r0, lsr #1
 80009c6:	f150 0000 	adcs.w	r0, r0, #0
 80009ca:	eb41 5104 	adc.w	r1, r1, r4, lsl #20
 80009ce:	bd70      	pop	{r4, r5, r6, pc}
 80009d0:	f00e 4e00 	and.w	lr, lr, #2147483648	@ 0x80000000
 80009d4:	ea4e 3111 	orr.w	r1, lr, r1, lsr #12
 80009d8:	eb14 045c 	adds.w	r4, r4, ip, lsr #1
 80009dc:	bfc2      	ittt	gt
 80009de:	ebd4 050c 	rsbsgt	r5, r4, ip
 80009e2:	ea41 5104 	orrgt.w	r1, r1, r4, lsl #20
 80009e6:	bd70      	popgt	{r4, r5, r6, pc}
 80009e8:	f441 1180 	orr.w	r1, r1, #1048576	@ 0x100000
 80009ec:	f04f 0e00 	mov.w	lr, #0
 80009f0:	3c01      	subs	r4, #1
 80009f2:	e690      	b.n	8000716 <__aeabi_dmul+0xde>
 80009f4:	ea45 0e06 	orr.w	lr, r5, r6
 80009f8:	e68d      	b.n	8000716 <__aeabi_dmul+0xde>
 80009fa:	ea0c 5513 	and.w	r5, ip, r3, lsr #20
 80009fe:	ea94 0f0c 	teq	r4, ip
 8000a02:	bf08      	it	eq
 8000a04:	ea95 0f0c 	teqeq	r5, ip
 8000a08:	f43f af3b 	beq.w	8000882 <__aeabi_dmul+0x24a>
 8000a0c:	ea94 0f0c 	teq	r4, ip
 8000a10:	d10a      	bne.n	8000a28 <__aeabi_ddiv+0x19c>
 8000a12:	ea50 3401 	orrs.w	r4, r0, r1, lsl #12
 8000a16:	f47f af34 	bne.w	8000882 <__aeabi_dmul+0x24a>
 8000a1a:	ea95 0f0c 	teq	r5, ip
 8000a1e:	f47f af25 	bne.w	800086c <__aeabi_dmul+0x234>
 8000a22:	4610      	mov	r0, r2
 8000a24:	4619      	mov	r1, r3
 8000a26:	e72c      	b.n	8000882 <__aeabi_dmul+0x24a>
 8000a28:	ea95 0f0c 	teq	r5, ip
 8000a2c:	d106      	bne.n	8000a3c <__aeabi_ddiv+0x1b0>
 8000a2e:	ea52 3503 	orrs.w	r5, r2, r3, lsl #12
 8000a32:	f43f aefd 	beq.w	8000830 <__aeabi_dmul+0x1f8>
 8000a36:	4610      	mov	r0, r2
 8000a38:	4619      	mov	r1, r3
 8000a3a:	e722      	b.n	8000882 <__aeabi_dmul+0x24a>
 8000a3c:	ea50 0641 	orrs.w	r6, r0, r1, lsl #1
 8000a40:	bf18      	it	ne
 8000a42:	ea52 0643 	orrsne.w	r6, r2, r3, lsl #1
 8000a46:	f47f aec5 	bne.w	80007d4 <__aeabi_dmul+0x19c>
 8000a4a:	ea50 0441 	orrs.w	r4, r0, r1, lsl #1
 8000a4e:	f47f af0d 	bne.w	800086c <__aeabi_dmul+0x234>
 8000a52:	ea52 0543 	orrs.w	r5, r2, r3, lsl #1
 8000a56:	f47f aeeb 	bne.w	8000830 <__aeabi_dmul+0x1f8>
 8000a5a:	e712      	b.n	8000882 <__aeabi_dmul+0x24a>

08000a5c <__gedf2>:
 8000a5c:	f04f 3cff 	mov.w	ip, #4294967295
 8000a60:	e006      	b.n	8000a70 <__cmpdf2+0x4>
 8000a62:	bf00      	nop

08000a64 <__ledf2>:
 8000a64:	f04f 0c01 	mov.w	ip, #1
 8000a68:	e002      	b.n	8000a70 <__cmpdf2+0x4>
 8000a6a:	bf00      	nop

08000a6c <__cmpdf2>:
 8000a6c:	f04f 0c01 	mov.w	ip, #1
 8000a70:	f84d cd04 	str.w	ip, [sp, #-4]!
 8000a74:	ea4f 0c41 	mov.w	ip, r1, lsl #1
 8000a78:	ea7f 5c6c 	mvns.w	ip, ip, asr #21
 8000a7c:	ea4f 0c43 	mov.w	ip, r3, lsl #1
 8000a80:	bf18      	it	ne
 8000a82:	ea7f 5c6c 	mvnsne.w	ip, ip, asr #21
 8000a86:	d01b      	beq.n	8000ac0 <__cmpdf2+0x54>
 8000a88:	b001      	add	sp, #4
 8000a8a:	ea50 0c41 	orrs.w	ip, r0, r1, lsl #1
 8000a8e:	bf0c      	ite	eq
 8000a90:	ea52 0c43 	orrseq.w	ip, r2, r3, lsl #1
 8000a94:	ea91 0f03 	teqne	r1, r3
 8000a98:	bf02      	ittt	eq
 8000a9a:	ea90 0f02 	teqeq	r0, r2
 8000a9e:	2000      	moveq	r0, #0
 8000aa0:	4770      	bxeq	lr
 8000aa2:	f110 0f00 	cmn.w	r0, #0
 8000aa6:	ea91 0f03 	teq	r1, r3
 8000aaa:	bf58      	it	pl
 8000aac:	4299      	cmppl	r1, r3
 8000aae:	bf08      	it	eq
 8000ab0:	4290      	cmpeq	r0, r2
 8000ab2:	bf2c      	ite	cs
 8000ab4:	17d8      	asrcs	r0, r3, #31
 8000ab6:	ea6f 70e3 	mvncc.w	r0, r3, asr #31
 8000aba:	f040 0001 	orr.w	r0, r0, #1
 8000abe:	4770      	bx	lr
 8000ac0:	ea4f 0c41 	mov.w	ip, r1, lsl #1
 8000ac4:	ea7f 5c6c 	mvns.w	ip, ip, asr #21
 8000ac8:	d102      	bne.n	8000ad0 <__cmpdf2+0x64>
 8000aca:	ea50 3c01 	orrs.w	ip, r0, r1, lsl #12
 8000ace:	d107      	bne.n	8000ae0 <__cmpdf2+0x74>
 8000ad0:	ea4f 0c43 	mov.w	ip, r3, lsl #1
 8000ad4:	ea7f 5c6c 	mvns.w	ip, ip, asr #21
 8000ad8:	d1d6      	bne.n	8000a88 <__cmpdf2+0x1c>
 8000ada:	ea52 3c03 	orrs.w	ip, r2, r3, lsl #12
 8000ade:	d0d3      	beq.n	8000a88 <__cmpdf2+0x1c>
 8000ae0:	f85d 0b04 	ldr.w	r0, [sp], #4
 8000ae4:	4770      	bx	lr
 8000ae6:	bf00      	nop

08000ae8 <__aeabi_cdrcmple>:
 8000ae8:	4684      	mov	ip, r0
 8000aea:	4610      	mov	r0, r2
 8000aec:	4662      	mov	r2, ip
 8000aee:	468c      	mov	ip, r1
 8000af0:	4619      	mov	r1, r3
 8000af2:	4663      	mov	r3, ip
 8000af4:	e000      	b.n	8000af8 <__aeabi_cdcmpeq>
 8000af6:	bf00      	nop

08000af8 <__aeabi_cdcmpeq>:
 8000af8:	b501      	push	{r0, lr}
 8000afa:	f7ff ffb7 	bl	8000a6c <__cmpdf2>
 8000afe:	2800      	cmp	r0, #0
 8000b00:	bf48      	it	mi
 8000b02:	f110 0f00 	cmnmi.w	r0, #0
 8000b06:	bd01      	pop	{r0, pc}

08000b08 <__aeabi_dcmpeq>:
 8000b08:	f84d ed08 	str.w	lr, [sp, #-8]!
 8000b0c:	f7ff fff4 	bl	8000af8 <__aeabi_cdcmpeq>
 8000b10:	bf0c      	ite	eq
 8000b12:	2001      	moveq	r0, #1
 8000b14:	2000      	movne	r0, #0
 8000b16:	f85d fb08 	ldr.w	pc, [sp], #8
 8000b1a:	bf00      	nop

08000b1c <__aeabi_dcmplt>:
 8000b1c:	f84d ed08 	str.w	lr, [sp, #-8]!
 8000b20:	f7ff ffea 	bl	8000af8 <__aeabi_cdcmpeq>
 8000b24:	bf34      	ite	cc
 8000b26:	2001      	movcc	r0, #1
 8000b28:	2000      	movcs	r0, #0
 8000b2a:	f85d fb08 	ldr.w	pc, [sp], #8
 8000b2e:	bf00      	nop

08000b30 <__aeabi_dcmple>:
 8000b30:	f84d ed08 	str.w	lr, [sp, #-8]!
 8000b34:	f7ff ffe0 	bl	8000af8 <__aeabi_cdcmpeq>
 8000b38:	bf94      	ite	ls
 8000b3a:	2001      	movls	r0, #1
 8000b3c:	2000      	movhi	r0, #0
 8000b3e:	f85d fb08 	ldr.w	pc, [sp], #8
 8000b42:	bf00      	nop

08000b44 <__aeabi_dcmpge>:
 8000b44:	f84d ed08 	str.w	lr, [sp, #-8]!
 8000b48:	f7ff ffce 	bl	8000ae8 <__aeabi_cdrcmple>
 8000b4c:	bf94      	ite	ls
 8000b4e:	2001      	movls	r0, #1
 8000b50:	2000      	movhi	r0, #0
 8000b52:	f85d fb08 	ldr.w	pc, [sp], #8
 8000b56:	bf00      	nop

08000b58 <__aeabi_dcmpgt>:
 8000b58:	f84d ed08 	str.w	lr, [sp, #-8]!
 8000b5c:	f7ff ffc4 	bl	8000ae8 <__aeabi_cdrcmple>
 8000b60:	bf34      	ite	cc
 8000b62:	2001      	movcc	r0, #1
 8000b64:	2000      	movcs	r0, #0
 8000b66:	f85d fb08 	ldr.w	pc, [sp], #8
 8000b6a:	bf00      	nop

08000b6c <__aeabi_dcmpun>:
 8000b6c:	ea4f 0c41 	mov.w	ip, r1, lsl #1
 8000b70:	ea7f 5c6c 	mvns.w	ip, ip, asr #21
 8000b74:	d102      	bne.n	8000b7c <__aeabi_dcmpun+0x10>
 8000b76:	ea50 3c01 	orrs.w	ip, r0, r1, lsl #12
 8000b7a:	d10a      	bne.n	8000b92 <__aeabi_dcmpun+0x26>
 8000b7c:	ea4f 0c43 	mov.w	ip, r3, lsl #1
 8000b80:	ea7f 5c6c 	mvns.w	ip, ip, asr #21
 8000b84:	d102      	bne.n	8000b8c <__aeabi_dcmpun+0x20>
 8000b86:	ea52 3c03 	orrs.w	ip, r2, r3, lsl #12
 8000b8a:	d102      	bne.n	8000b92 <__aeabi_dcmpun+0x26>
 8000b8c:	f04f 0000 	mov.w	r0, #0
 8000b90:	4770      	bx	lr
 8000b92:	f04f 0001 	mov.w	r0, #1
 8000b96:	4770      	bx	lr

08000b98 <__aeabi_d2iz>:
 8000b98:	ea4f 0241 	mov.w	r2, r1, lsl #1
 8000b9c:	f512 1200 	adds.w	r2, r2, #2097152	@ 0x200000
 8000ba0:	d215      	bcs.n	8000bce <__aeabi_d2iz+0x36>
 8000ba2:	d511      	bpl.n	8000bc8 <__aeabi_d2iz+0x30>
 8000ba4:	f46f 7378 	mvn.w	r3, #992	@ 0x3e0
 8000ba8:	ebb3 5262 	subs.w	r2, r3, r2, asr #21
 8000bac:	d912      	bls.n	8000bd4 <__aeabi_d2iz+0x3c>
 8000bae:	ea4f 23c1 	mov.w	r3, r1, lsl #11
 8000bb2:	f043 4300 	orr.w	r3, r3, #2147483648	@ 0x80000000
 8000bb6:	ea43 5350 	orr.w	r3, r3, r0, lsr #21
 8000bba:	f011 4f00 	tst.w	r1, #2147483648	@ 0x80000000
 8000bbe:	fa23 f002 	lsr.w	r0, r3, r2
 8000bc2:	bf18      	it	ne
 8000bc4:	4240      	negne	r0, r0
 8000bc6:	4770      	bx	lr
 8000bc8:	f04f 0000 	mov.w	r0, #0
 8000bcc:	4770      	bx	lr
 8000bce:	ea50 3001 	orrs.w	r0, r0, r1, lsl #12
 8000bd2:	d105      	bne.n	8000be0 <__aeabi_d2iz+0x48>
 8000bd4:	f011 4000 	ands.w	r0, r1, #2147483648	@ 0x80000000
 8000bd8:	bf08      	it	eq
 8000bda:	f06f 4000 	mvneq.w	r0, #2147483648	@ 0x80000000
 8000bde:	4770      	bx	lr
 8000be0:	f04f 0000 	mov.w	r0, #0
 8000be4:	4770      	bx	lr
 8000be6:	bf00      	nop

08000be8 <__aeabi_d2uiz>:
 8000be8:	004a      	lsls	r2, r1, #1
 8000bea:	d211      	bcs.n	8000c10 <__aeabi_d2uiz+0x28>
 8000bec:	f512 1200 	adds.w	r2, r2, #2097152	@ 0x200000
 8000bf0:	d211      	bcs.n	8000c16 <__aeabi_d2uiz+0x2e>
 8000bf2:	d50d      	bpl.n	8000c10 <__aeabi_d2uiz+0x28>
 8000bf4:	f46f 7378 	mvn.w	r3, #992	@ 0x3e0
 8000bf8:	ebb3 5262 	subs.w	r2, r3, r2, asr #21
 8000bfc:	d40e      	bmi.n	8000c1c <__aeabi_d2uiz+0x34>
 8000bfe:	ea4f 23c1 	mov.w	r3, r1, lsl #11
 8000c02:	f043 4300 	orr.w	r3, r3, #2147483648	@ 0x80000000
 8000c06:	ea43 5350 	orr.w	r3, r3, r0, lsr #21
 8000c0a:	fa23 f002 	lsr.w	r0, r3, r2
 8000c0e:	4770      	bx	lr
 8000c10:	f04f 0000 	mov.w	r0, #0
 8000c14:	4770      	bx	lr
 8000c16:	ea50 3001 	orrs.w	r0, r0, r1, lsl #12
 8000c1a:	d102      	bne.n	8000c22 <__aeabi_d2uiz+0x3a>
 8000c1c:	f04f 30ff 	mov.w	r0, #4294967295
 8000c20:	4770      	bx	lr
 8000c22:	f04f 0000 	mov.w	r0, #0
 8000c26:	4770      	bx	lr

08000c28 <__aeabi_d2f>:
 8000c28:	ea4f 0241 	mov.w	r2, r1, lsl #1
 8000c2c:	f1b2 43e0 	subs.w	r3, r2, #1879048192	@ 0x70000000
 8000c30:	bf24      	itt	cs
 8000c32:	f5b3 1c00 	subscs.w	ip, r3, #2097152	@ 0x200000
 8000c36:	f1dc 5cfe 	rsbscs	ip, ip, #532676608	@ 0x1fc00000
 8000c3a:	d90d      	bls.n	8000c58 <__aeabi_d2f+0x30>
 8000c3c:	f001 4c00 	and.w	ip, r1, #2147483648	@ 0x80000000
 8000c40:	ea4f 02c0 	mov.w	r2, r0, lsl #3
 8000c44:	ea4c 7050 	orr.w	r0, ip, r0, lsr #29
 8000c48:	f1b2 4f00 	cmp.w	r2, #2147483648	@ 0x80000000
 8000c4c:	eb40 0083 	adc.w	r0, r0, r3, lsl #2
 8000c50:	bf08      	it	eq
 8000c52:	f020 0001 	biceq.w	r0, r0, #1
 8000c56:	4770      	bx	lr
 8000c58:	f011 4f80 	tst.w	r1, #1073741824	@ 0x40000000
 8000c5c:	d121      	bne.n	8000ca2 <__aeabi_d2f+0x7a>
 8000c5e:	f113 7238 	adds.w	r2, r3, #48234496	@ 0x2e00000
 8000c62:	bfbc      	itt	lt
 8000c64:	f001 4000 	andlt.w	r0, r1, #2147483648	@ 0x80000000
 8000c68:	4770      	bxlt	lr
 8000c6a:	f441 1180 	orr.w	r1, r1, #1048576	@ 0x100000
 8000c6e:	ea4f 5252 	mov.w	r2, r2, lsr #21
 8000c72:	f1c2 0218 	rsb	r2, r2, #24
 8000c76:	f1c2 0c20 	rsb	ip, r2, #32
 8000c7a:	fa10 f30c 	lsls.w	r3, r0, ip
 8000c7e:	fa20 f002 	lsr.w	r0, r0, r2
 8000c82:	bf18      	it	ne
 8000c84:	f040 0001 	orrne.w	r0, r0, #1
 8000c88:	ea4f 23c1 	mov.w	r3, r1, lsl #11
 8000c8c:	ea4f 23d3 	mov.w	r3, r3, lsr #11
 8000c90:	fa03 fc0c 	lsl.w	ip, r3, ip
 8000c94:	ea40 000c 	orr.w	r0, r0, ip
 8000c98:	fa23 f302 	lsr.w	r3, r3, r2
 8000c9c:	ea4f 0343 	mov.w	r3, r3, lsl #1
 8000ca0:	e7cc      	b.n	8000c3c <__aeabi_d2f+0x14>
 8000ca2:	ea7f 5362 	mvns.w	r3, r2, asr #21
 8000ca6:	d107      	bne.n	8000cb8 <__aeabi_d2f+0x90>
 8000ca8:	ea50 3301 	orrs.w	r3, r0, r1, lsl #12
 8000cac:	bf1e      	ittt	ne
 8000cae:	f04f 40fe 	movne.w	r0, #2130706432	@ 0x7f000000
 8000cb2:	f440 0040 	orrne.w	r0, r0, #12582912	@ 0xc00000
 8000cb6:	4770      	bxne	lr
 8000cb8:	f001 4000 	and.w	r0, r1, #2147483648	@ 0x80000000
 8000cbc:	f040 40fe 	orr.w	r0, r0, #2130706432	@ 0x7f000000
 8000cc0:	f440 0000 	orr.w	r0, r0, #8388608	@ 0x800000
 8000cc4:	4770      	bx	lr
 8000cc6:	bf00      	nop

08000cc8 <__aeabi_uldivmod>:
 8000cc8:	b953      	cbnz	r3, 8000ce0 <__aeabi_uldivmod+0x18>
 8000cca:	b94a      	cbnz	r2, 8000ce0 <__aeabi_uldivmod+0x18>
 8000ccc:	2900      	cmp	r1, #0
 8000cce:	bf08      	it	eq
 8000cd0:	2800      	cmpeq	r0, #0
 8000cd2:	bf1c      	itt	ne
 8000cd4:	f04f 31ff 	movne.w	r1, #4294967295
 8000cd8:	f04f 30ff 	movne.w	r0, #4294967295
 8000cdc:	f000 b9a0 	b.w	8001020 <__aeabi_idiv0>
 8000ce0:	f1ad 0c08 	sub.w	ip, sp, #8
 8000ce4:	e96d ce04 	strd	ip, lr, [sp, #-16]!
 8000ce8:	f000 f83c 	bl	8000d64 <__udivmoddi4>
 8000cec:	f8dd e004 	ldr.w	lr, [sp, #4]
 8000cf0:	e9dd 2302 	ldrd	r2, r3, [sp, #8]
 8000cf4:	b004      	add	sp, #16
 8000cf6:	4770      	bx	lr

08000cf8 <__aeabi_d2lz>:
 8000cf8:	b538      	push	{r3, r4, r5, lr}
 8000cfa:	2200      	movs	r2, #0
 8000cfc:	2300      	movs	r3, #0
 8000cfe:	4604      	mov	r4, r0
 8000d00:	460d      	mov	r5, r1
 8000d02:	f7ff ff0b 	bl	8000b1c <__aeabi_dcmplt>
 8000d06:	b928      	cbnz	r0, 8000d14 <__aeabi_d2lz+0x1c>
 8000d08:	4620      	mov	r0, r4
 8000d0a:	4629      	mov	r1, r5
 8000d0c:	e8bd 4038 	ldmia.w	sp!, {r3, r4, r5, lr}
 8000d10:	f000 b80a 	b.w	8000d28 <__aeabi_d2ulz>
 8000d14:	4620      	mov	r0, r4
 8000d16:	f105 4100 	add.w	r1, r5, #2147483648	@ 0x80000000
 8000d1a:	f000 f805 	bl	8000d28 <__aeabi_d2ulz>
 8000d1e:	4240      	negs	r0, r0
 8000d20:	eb61 0141 	sbc.w	r1, r1, r1, lsl #1
 8000d24:	bd38      	pop	{r3, r4, r5, pc}
 8000d26:	bf00      	nop

08000d28 <__aeabi_d2ulz>:
 8000d28:	b5d0      	push	{r4, r6, r7, lr}
 8000d2a:	4b0c      	ldr	r3, [pc, #48]	@ (8000d5c <__aeabi_d2ulz+0x34>)
 8000d2c:	2200      	movs	r2, #0
 8000d2e:	4606      	mov	r6, r0
 8000d30:	460f      	mov	r7, r1
 8000d32:	f7ff fc81 	bl	8000638 <__aeabi_dmul>
 8000d36:	f7ff ff57 	bl	8000be8 <__aeabi_d2uiz>
 8000d3a:	4604      	mov	r4, r0
 8000d3c:	f7ff fc02 	bl	8000544 <__aeabi_ui2d>
 8000d40:	4b07      	ldr	r3, [pc, #28]	@ (8000d60 <__aeabi_d2ulz+0x38>)
 8000d42:	2200      	movs	r2, #0
 8000d44:	f7ff fc78 	bl	8000638 <__aeabi_dmul>
 8000d48:	4602      	mov	r2, r0
 8000d4a:	460b      	mov	r3, r1
 8000d4c:	4630      	mov	r0, r6
 8000d4e:	4639      	mov	r1, r7
 8000d50:	f7ff faba 	bl	80002c8 <__aeabi_dsub>
 8000d54:	f7ff ff48 	bl	8000be8 <__aeabi_d2uiz>
 8000d58:	4621      	mov	r1, r4
 8000d5a:	bdd0      	pop	{r4, r6, r7, pc}
 8000d5c:	3df00000 	.word	0x3df00000
 8000d60:	41f00000 	.word	0x41f00000

08000d64 <__udivmoddi4>:
 8000d64:	e92d 47f0 	stmdb	sp!, {r4, r5, r6, r7, r8, r9, sl, lr}
 8000d68:	9d08      	ldr	r5, [sp, #32]
 8000d6a:	460c      	mov	r4, r1
 8000d6c:	2b00      	cmp	r3, #0
 8000d6e:	d14e      	bne.n	8000e0e <__udivmoddi4+0xaa>
 8000d70:	4694      	mov	ip, r2
 8000d72:	458c      	cmp	ip, r1
 8000d74:	4686      	mov	lr, r0
 8000d76:	fab2 f282 	clz	r2, r2
 8000d7a:	d962      	bls.n	8000e42 <__udivmoddi4+0xde>
 8000d7c:	b14a      	cbz	r2, 8000d92 <__udivmoddi4+0x2e>
 8000d7e:	f1c2 0320 	rsb	r3, r2, #32
 8000d82:	4091      	lsls	r1, r2
 8000d84:	fa20 f303 	lsr.w	r3, r0, r3
 8000d88:	fa0c fc02 	lsl.w	ip, ip, r2
 8000d8c:	4319      	orrs	r1, r3
 8000d8e:	fa00 fe02 	lsl.w	lr, r0, r2
 8000d92:	ea4f 471c 	mov.w	r7, ip, lsr #16
 8000d96:	fa1f f68c 	uxth.w	r6, ip
 8000d9a:	fbb1 f4f7 	udiv	r4, r1, r7
 8000d9e:	ea4f 431e 	mov.w	r3, lr, lsr #16
 8000da2:	fb07 1114 	mls	r1, r7, r4, r1
 8000da6:	ea43 4301 	orr.w	r3, r3, r1, lsl #16
 8000daa:	fb04 f106 	mul.w	r1, r4, r6
 8000dae:	4299      	cmp	r1, r3
 8000db0:	d90a      	bls.n	8000dc8 <__udivmoddi4+0x64>
 8000db2:	eb1c 0303 	adds.w	r3, ip, r3
 8000db6:	f104 30ff 	add.w	r0, r4, #4294967295
 8000dba:	f080 8112 	bcs.w	8000fe2 <__udivmoddi4+0x27e>
 8000dbe:	4299      	cmp	r1, r3
 8000dc0:	f240 810f 	bls.w	8000fe2 <__udivmoddi4+0x27e>
 8000dc4:	3c02      	subs	r4, #2
 8000dc6:	4463      	add	r3, ip
 8000dc8:	1a59      	subs	r1, r3, r1
 8000dca:	fa1f f38e 	uxth.w	r3, lr
 8000dce:	fbb1 f0f7 	udiv	r0, r1, r7
 8000dd2:	fb07 1110 	mls	r1, r7, r0, r1
 8000dd6:	ea43 4301 	orr.w	r3, r3, r1, lsl #16
 8000dda:	fb00 f606 	mul.w	r6, r0, r6
 8000dde:	429e      	cmp	r6, r3
 8000de0:	d90a      	bls.n	8000df8 <__udivmoddi4+0x94>
 8000de2:	eb1c 0303 	adds.w	r3, ip, r3
 8000de6:	f100 31ff 	add.w	r1, r0, #4294967295
 8000dea:	f080 80fc 	bcs.w	8000fe6 <__udivmoddi4+0x282>
 8000dee:	429e      	cmp	r6, r3
 8000df0:	f240 80f9 	bls.w	8000fe6 <__udivmoddi4+0x282>
 8000df4:	4463      	add	r3, ip
 8000df6:	3802      	subs	r0, #2
 8000df8:	1b9b      	subs	r3, r3, r6
 8000dfa:	ea40 4004 	orr.w	r0, r0, r4, lsl #16
 8000dfe:	2100      	movs	r1, #0
 8000e00:	b11d      	cbz	r5, 8000e0a <__udivmoddi4+0xa6>
 8000e02:	40d3      	lsrs	r3, r2
 8000e04:	2200      	movs	r2, #0
 8000e06:	e9c5 3200 	strd	r3, r2, [r5]
 8000e0a:	e8bd 87f0 	ldmia.w	sp!, {r4, r5, r6, r7, r8, r9, sl, pc}
 8000e0e:	428b      	cmp	r3, r1
 8000e10:	d905      	bls.n	8000e1e <__udivmoddi4+0xba>
 8000e12:	b10d      	cbz	r5, 8000e18 <__udivmoddi4+0xb4>
 8000e14:	e9c5 0100 	strd	r0, r1, [r5]
 8000e18:	2100      	movs	r1, #0
 8000e1a:	4608      	mov	r0, r1
 8000e1c:	e7f5      	b.n	8000e0a <__udivmoddi4+0xa6>
 8000e1e:	fab3 f183 	clz	r1, r3
 8000e22:	2900      	cmp	r1, #0
 8000e24:	d146      	bne.n	8000eb4 <__udivmoddi4+0x150>
 8000e26:	42a3      	cmp	r3, r4
 8000e28:	d302      	bcc.n	8000e30 <__udivmoddi4+0xcc>
 8000e2a:	4290      	cmp	r0, r2
 8000e2c:	f0c0 80f0 	bcc.w	8001010 <__udivmoddi4+0x2ac>
 8000e30:	1a86      	subs	r6, r0, r2
 8000e32:	eb64 0303 	sbc.w	r3, r4, r3
 8000e36:	2001      	movs	r0, #1
 8000e38:	2d00      	cmp	r5, #0
 8000e3a:	d0e6      	beq.n	8000e0a <__udivmoddi4+0xa6>
 8000e3c:	e9c5 6300 	strd	r6, r3, [r5]
 8000e40:	e7e3      	b.n	8000e0a <__udivmoddi4+0xa6>
 8000e42:	2a00      	cmp	r2, #0
 8000e44:	f040 8090 	bne.w	8000f68 <__udivmoddi4+0x204>
 8000e48:	eba1 040c 	sub.w	r4, r1, ip
 8000e4c:	ea4f 481c 	mov.w	r8, ip, lsr #16
 8000e50:	fa1f f78c 	uxth.w	r7, ip
 8000e54:	2101      	movs	r1, #1
 8000e56:	fbb4 f6f8 	udiv	r6, r4, r8
 8000e5a:	ea4f 431e 	mov.w	r3, lr, lsr #16
 8000e5e:	fb08 4416 	mls	r4, r8, r6, r4
 8000e62:	ea43 4304 	orr.w	r3, r3, r4, lsl #16
 8000e66:	fb07 f006 	mul.w	r0, r7, r6
 8000e6a:	4298      	cmp	r0, r3
 8000e6c:	d908      	bls.n	8000e80 <__udivmoddi4+0x11c>
 8000e6e:	eb1c 0303 	adds.w	r3, ip, r3
 8000e72:	f106 34ff 	add.w	r4, r6, #4294967295
 8000e76:	d202      	bcs.n	8000e7e <__udivmoddi4+0x11a>
 8000e78:	4298      	cmp	r0, r3
 8000e7a:	f200 80cd 	bhi.w	8001018 <__udivmoddi4+0x2b4>
 8000e7e:	4626      	mov	r6, r4
 8000e80:	1a1c      	subs	r4, r3, r0
 8000e82:	fa1f f38e 	uxth.w	r3, lr
 8000e86:	fbb4 f0f8 	udiv	r0, r4, r8
 8000e8a:	fb08 4410 	mls	r4, r8, r0, r4
 8000e8e:	ea43 4304 	orr.w	r3, r3, r4, lsl #16
 8000e92:	fb00 f707 	mul.w	r7, r0, r7
 8000e96:	429f      	cmp	r7, r3
 8000e98:	d908      	bls.n	8000eac <__udivmoddi4+0x148>
 8000e9a:	eb1c 0303 	adds.w	r3, ip, r3
 8000e9e:	f100 34ff 	add.w	r4, r0, #4294967295
 8000ea2:	d202      	bcs.n	8000eaa <__udivmoddi4+0x146>
 8000ea4:	429f      	cmp	r7, r3
 8000ea6:	f200 80b0 	bhi.w	800100a <__udivmoddi4+0x2a6>
 8000eaa:	4620      	mov	r0, r4
 8000eac:	1bdb      	subs	r3, r3, r7
 8000eae:	ea40 4006 	orr.w	r0, r0, r6, lsl #16
 8000eb2:	e7a5      	b.n	8000e00 <__udivmoddi4+0x9c>
 8000eb4:	f1c1 0620 	rsb	r6, r1, #32
 8000eb8:	408b      	lsls	r3, r1
 8000eba:	fa22 f706 	lsr.w	r7, r2, r6
 8000ebe:	431f      	orrs	r7, r3
 8000ec0:	fa20 fc06 	lsr.w	ip, r0, r6
 8000ec4:	fa04 f301 	lsl.w	r3, r4, r1
 8000ec8:	ea43 030c 	orr.w	r3, r3, ip
 8000ecc:	40f4      	lsrs	r4, r6
 8000ece:	fa00 f801 	lsl.w	r8, r0, r1
 8000ed2:	0c38      	lsrs	r0, r7, #16
 8000ed4:	ea4f 4913 	mov.w	r9, r3, lsr #16
 8000ed8:	fbb4 fef0 	udiv	lr, r4, r0
 8000edc:	fa1f fc87 	uxth.w	ip, r7
 8000ee0:	fb00 441e 	mls	r4, r0, lr, r4
 8000ee4:	ea49 4404 	orr.w	r4, r9, r4, lsl #16
 8000ee8:	fb0e f90c 	mul.w	r9, lr, ip
 8000eec:	45a1      	cmp	r9, r4
 8000eee:	fa02 f201 	lsl.w	r2, r2, r1
 8000ef2:	d90a      	bls.n	8000f0a <__udivmoddi4+0x1a6>
 8000ef4:	193c      	adds	r4, r7, r4
 8000ef6:	f10e 3aff 	add.w	sl, lr, #4294967295
 8000efa:	f080 8084 	bcs.w	8001006 <__udivmoddi4+0x2a2>
 8000efe:	45a1      	cmp	r9, r4
 8000f00:	f240 8081 	bls.w	8001006 <__udivmoddi4+0x2a2>
 8000f04:	f1ae 0e02 	sub.w	lr, lr, #2
 8000f08:	443c      	add	r4, r7
 8000f0a:	eba4 0409 	sub.w	r4, r4, r9
 8000f0e:	fa1f f983 	uxth.w	r9, r3
 8000f12:	fbb4 f3f0 	udiv	r3, r4, r0
 8000f16:	fb00 4413 	mls	r4, r0, r3, r4
 8000f1a:	ea49 4404 	orr.w	r4, r9, r4, lsl #16
 8000f1e:	fb03 fc0c 	mul.w	ip, r3, ip
 8000f22:	45a4      	cmp	ip, r4
 8000f24:	d907      	bls.n	8000f36 <__udivmoddi4+0x1d2>
 8000f26:	193c      	adds	r4, r7, r4
 8000f28:	f103 30ff 	add.w	r0, r3, #4294967295
 8000f2c:	d267      	bcs.n	8000ffe <__udivmoddi4+0x29a>
 8000f2e:	45a4      	cmp	ip, r4
 8000f30:	d965      	bls.n	8000ffe <__udivmoddi4+0x29a>
 8000f32:	3b02      	subs	r3, #2
 8000f34:	443c      	add	r4, r7
 8000f36:	ea43 400e 	orr.w	r0, r3, lr, lsl #16
 8000f3a:	fba0 9302 	umull	r9, r3, r0, r2
 8000f3e:	eba4 040c 	sub.w	r4, r4, ip
 8000f42:	429c      	cmp	r4, r3
 8000f44:	46ce      	mov	lr, r9
 8000f46:	469c      	mov	ip, r3
 8000f48:	d351      	bcc.n	8000fee <__udivmoddi4+0x28a>
 8000f4a:	d04e      	beq.n	8000fea <__udivmoddi4+0x286>
 8000f4c:	b155      	cbz	r5, 8000f64 <__udivmoddi4+0x200>
 8000f4e:	ebb8 030e 	subs.w	r3, r8, lr
 8000f52:	eb64 040c 	sbc.w	r4, r4, ip
 8000f56:	fa04 f606 	lsl.w	r6, r4, r6
 8000f5a:	40cb      	lsrs	r3, r1
 8000f5c:	431e      	orrs	r6, r3
 8000f5e:	40cc      	lsrs	r4, r1
 8000f60:	e9c5 6400 	strd	r6, r4, [r5]
 8000f64:	2100      	movs	r1, #0
 8000f66:	e750      	b.n	8000e0a <__udivmoddi4+0xa6>
 8000f68:	f1c2 0320 	rsb	r3, r2, #32
 8000f6c:	fa20 f103 	lsr.w	r1, r0, r3
 8000f70:	fa0c fc02 	lsl.w	ip, ip, r2
 8000f74:	fa24 f303 	lsr.w	r3, r4, r3
 8000f78:	4094      	lsls	r4, r2
 8000f7a:	430c      	orrs	r4, r1
 8000f7c:	ea4f 481c 	mov.w	r8, ip, lsr #16
 8000f80:	fa00 fe02 	lsl.w	lr, r0, r2
 8000f84:	fa1f f78c 	uxth.w	r7, ip
 8000f88:	fbb3 f0f8 	udiv	r0, r3, r8
 8000f8c:	fb08 3110 	mls	r1, r8, r0, r3
 8000f90:	0c23      	lsrs	r3, r4, #16
 8000f92:	ea43 4301 	orr.w	r3, r3, r1, lsl #16
 8000f96:	fb00 f107 	mul.w	r1, r0, r7
 8000f9a:	4299      	cmp	r1, r3
 8000f9c:	d908      	bls.n	8000fb0 <__udivmoddi4+0x24c>
 8000f9e:	eb1c 0303 	adds.w	r3, ip, r3
 8000fa2:	f100 36ff 	add.w	r6, r0, #4294967295
 8000fa6:	d22c      	bcs.n	8001002 <__udivmoddi4+0x29e>
 8000fa8:	4299      	cmp	r1, r3
 8000faa:	d92a      	bls.n	8001002 <__udivmoddi4+0x29e>
 8000fac:	3802      	subs	r0, #2
 8000fae:	4463      	add	r3, ip
 8000fb0:	1a5b      	subs	r3, r3, r1
 8000fb2:	b2a4      	uxth	r4, r4
 8000fb4:	fbb3 f1f8 	udiv	r1, r3, r8
 8000fb8:	fb08 3311 	mls	r3, r8, r1, r3
 8000fbc:	ea44 4403 	orr.w	r4, r4, r3, lsl #16
 8000fc0:	fb01 f307 	mul.w	r3, r1, r7
 8000fc4:	42a3      	cmp	r3, r4
 8000fc6:	d908      	bls.n	8000fda <__udivmoddi4+0x276>
 8000fc8:	eb1c 0404 	adds.w	r4, ip, r4
 8000fcc:	f101 36ff 	add.w	r6, r1, #4294967295
 8000fd0:	d213      	bcs.n	8000ffa <__udivmoddi4+0x296>
 8000fd2:	42a3      	cmp	r3, r4
 8000fd4:	d911      	bls.n	8000ffa <__udivmoddi4+0x296>
 8000fd6:	3902      	subs	r1, #2
 8000fd8:	4464      	add	r4, ip
 8000fda:	1ae4      	subs	r4, r4, r3
 8000fdc:	ea41 4100 	orr.w	r1, r1, r0, lsl #16
 8000fe0:	e739      	b.n	8000e56 <__udivmoddi4+0xf2>
 8000fe2:	4604      	mov	r4, r0
 8000fe4:	e6f0      	b.n	8000dc8 <__udivmoddi4+0x64>
 8000fe6:	4608      	mov	r0, r1
 8000fe8:	e706      	b.n	8000df8 <__udivmoddi4+0x94>
 8000fea:	45c8      	cmp	r8, r9
 8000fec:	d2ae      	bcs.n	8000f4c <__udivmoddi4+0x1e8>
 8000fee:	ebb9 0e02 	subs.w	lr, r9, r2
 8000ff2:	eb63 0c07 	sbc.w	ip, r3, r7
 8000ff6:	3801      	subs	r0, #1
 8000ff8:	e7a8      	b.n	8000f4c <__udivmoddi4+0x1e8>
 8000ffa:	4631      	mov	r1, r6
 8000ffc:	e7ed      	b.n	8000fda <__udivmoddi4+0x276>
 8000ffe:	4603      	mov	r3, r0
 8001000:	e799      	b.n	8000f36 <__udivmoddi4+0x1d2>
 8001002:	4630      	mov	r0, r6
 8001004:	e7d4      	b.n	8000fb0 <__udivmoddi4+0x24c>
 8001006:	46d6      	mov	lr, sl
 8001008:	e77f      	b.n	8000f0a <__udivmoddi4+0x1a6>
 800100a:	4463      	add	r3, ip
 800100c:	3802      	subs	r0, #2
 800100e:	e74d      	b.n	8000eac <__udivmoddi4+0x148>
 8001010:	4606      	mov	r6, r0
 8001012:	4623      	mov	r3, r4
 8001014:	4608      	mov	r0, r1
 8001016:	e70f      	b.n	8000e38 <__udivmoddi4+0xd4>
 8001018:	3e02      	subs	r6, #2
 800101a:	4463      	add	r3, ip
 800101c:	e730      	b.n	8000e80 <__udivmoddi4+0x11c>
 800101e:	bf00      	nop

08001020 <__aeabi_idiv0>:
 8001020:	4770      	bx	lr
 8001022:	bf00      	nop

08001024 <pec15_calc>:
 8001024:	b510      	push	{r4, lr}
 8001026:	4c09      	ldr	r4, [pc, #36]	@ (800104c <pec15_calc+0x28>)
 8001028:	4408      	add	r0, r1
 800102a:	2310      	movs	r3, #16
 800102c:	4281      	cmp	r1, r0
 800102e:	d102      	bne.n	8001036 <pec15_calc+0x12>
 8001030:	0058      	lsls	r0, r3, #1
 8001032:	b280      	uxth	r0, r0
 8001034:	bd10      	pop	{r4, pc}
 8001036:	f811 2b01 	ldrb.w	r2, [r1], #1
 800103a:	ea82 12d3 	eor.w	r2, r2, r3, lsr #7
 800103e:	b2d2      	uxtb	r2, r2
 8001040:	021b      	lsls	r3, r3, #8
 8001042:	f834 2012 	ldrh.w	r2, [r4, r2, lsl #1]
 8001046:	b29b      	uxth	r3, r3
 8001048:	4053      	eors	r3, r2
 800104a:	e7ef      	b.n	800102c <pec15_calc+0x8>
 800104c:	08007e88 	.word	0x08007e88

08001050 <Pec10_calc>:
 8001050:	b5f0      	push	{r4, r5, r6, r7, lr}
 8001052:	2310      	movs	r3, #16
 8001054:	4615      	mov	r5, r2
 8001056:	1856      	adds	r6, r2, r1
 8001058:	42b5      	cmp	r5, r6
 800105a:	d114      	bne.n	8001086 <Pec10_calc+0x36>
 800105c:	b120      	cbz	r0, 8001068 <Pec10_calc+0x18>
 800105e:	5c52      	ldrb	r2, [r2, r1]
 8001060:	0092      	lsls	r2, r2, #2
 8001062:	f402 727c 	and.w	r2, r2, #1008	@ 0x3f0
 8001066:	4053      	eors	r3, r2
 8001068:	2206      	movs	r2, #6
 800106a:	f403 7100 	and.w	r1, r3, #512	@ 0x200
 800106e:	005b      	lsls	r3, r3, #1
 8001070:	b29b      	uxth	r3, r3
 8001072:	b109      	cbz	r1, 8001078 <Pec10_calc+0x28>
 8001074:	f083 038f 	eor.w	r3, r3, #143	@ 0x8f
 8001078:	3a01      	subs	r2, #1
 800107a:	f012 02ff 	ands.w	r2, r2, #255	@ 0xff
 800107e:	d1f4      	bne.n	800106a <Pec10_calc+0x1a>
 8001080:	f3c3 0009 	ubfx	r0, r3, #0, #10
 8001084:	bdf0      	pop	{r4, r5, r6, r7, pc}
 8001086:	f815 4b01 	ldrb.w	r4, [r5], #1
 800108a:	ea83 0384 	eor.w	r3, r3, r4, lsl #2
 800108e:	2408      	movs	r4, #8
 8001090:	f403 7700 	and.w	r7, r3, #512	@ 0x200
 8001094:	005b      	lsls	r3, r3, #1
 8001096:	b29b      	uxth	r3, r3
 8001098:	b10f      	cbz	r7, 800109e <Pec10_calc+0x4e>
 800109a:	f083 038f 	eor.w	r3, r3, #143	@ 0x8f
 800109e:	3c01      	subs	r4, #1
 80010a0:	f014 04ff 	ands.w	r4, r4, #255	@ 0xff
 80010a4:	d1f4      	bne.n	8001090 <Pec10_calc+0x40>
 80010a6:	e7d7      	b.n	8001058 <Pec10_calc+0x8>

080010a8 <pec10_calc>:
 80010a8:	b570      	push	{r4, r5, r6, lr}
 80010aa:	2310      	movs	r3, #16
 80010ac:	460c      	mov	r4, r1
 80010ae:	180d      	adds	r5, r1, r0
 80010b0:	42ac      	cmp	r4, r5
 80010b2:	d114      	bne.n	80010de <pec10_calc+0x36>
 80010b4:	5c0a      	ldrb	r2, [r1, r0]
 80010b6:	0092      	lsls	r2, r2, #2
 80010b8:	f402 727c 	and.w	r2, r2, #1008	@ 0x3f0
 80010bc:	ea83 0002 	eor.w	r0, r3, r2
 80010c0:	2306      	movs	r3, #6
 80010c2:	f400 7200 	and.w	r2, r0, #512	@ 0x200
 80010c6:	0040      	lsls	r0, r0, #1
 80010c8:	b280      	uxth	r0, r0
 80010ca:	b10a      	cbz	r2, 80010d0 <pec10_calc+0x28>
 80010cc:	f080 008f 	eor.w	r0, r0, #143	@ 0x8f
 80010d0:	3b01      	subs	r3, #1
 80010d2:	f013 03ff 	ands.w	r3, r3, #255	@ 0xff
 80010d6:	d1f4      	bne.n	80010c2 <pec10_calc+0x1a>
 80010d8:	f3c0 0009 	ubfx	r0, r0, #0, #10
 80010dc:	bd70      	pop	{r4, r5, r6, pc}
 80010de:	f814 2b01 	ldrb.w	r2, [r4], #1
 80010e2:	ea83 0382 	eor.w	r3, r3, r2, lsl #2
 80010e6:	2208      	movs	r2, #8
 80010e8:	f403 7600 	and.w	r6, r3, #512	@ 0x200
 80010ec:	005b      	lsls	r3, r3, #1
 80010ee:	b29b      	uxth	r3, r3
 80010f0:	b10e      	cbz	r6, 80010f6 <pec10_calc+0x4e>
 80010f2:	f083 038f 	eor.w	r3, r3, #143	@ 0x8f
 80010f6:	3a01      	subs	r2, #1
 80010f8:	f012 02ff 	ands.w	r2, r2, #255	@ 0xff
 80010fc:	d1f4      	bne.n	80010e8 <pec10_calc+0x40>
 80010fe:	e7d7      	b.n	80010b0 <pec10_calc+0x8>

08001100 <cmd_68>:
 8001100:	b507      	push	{r0, r1, r2, lr}
 8001102:	7803      	ldrb	r3, [r0, #0]
 8001104:	f88d 3004 	strb.w	r3, [sp, #4]
 8001108:	a901      	add	r1, sp, #4
 800110a:	7843      	ldrb	r3, [r0, #1]
 800110c:	f88d 3005 	strb.w	r3, [sp, #5]
 8001110:	2002      	movs	r0, #2
 8001112:	f7ff ff87 	bl	8001024 <pec15_calc>
 8001116:	ba40      	rev16	r0, r0
 8001118:	f8ad 0006 	strh.w	r0, [sp, #6]
 800111c:	f000 fb80 	bl	8001820 <FEB_cs_low>
 8001120:	a901      	add	r1, sp, #4
 8001122:	2004      	movs	r0, #4
 8001124:	f000 fb8c 	bl	8001840 <FEB_spi_write_array>
 8001128:	f000 fb82 	bl	8001830 <FEB_cs_high>
 800112c:	b003      	add	sp, #12
 800112e:	f85d fb04 	ldr.w	pc, [sp], #4

08001132 <cmd_68_r>:
 8001132:	b537      	push	{r0, r1, r2, r4, r5, lr}
 8001134:	7803      	ldrb	r3, [r0, #0]
 8001136:	f88d 3004 	strb.w	r3, [sp, #4]
 800113a:	460c      	mov	r4, r1
 800113c:	7843      	ldrb	r3, [r0, #1]
 800113e:	f88d 3005 	strb.w	r3, [sp, #5]
 8001142:	a901      	add	r1, sp, #4
 8001144:	2002      	movs	r0, #2
 8001146:	4615      	mov	r5, r2
 8001148:	f7ff ff6c 	bl	8001024 <pec15_calc>
 800114c:	ba40      	rev16	r0, r0
 800114e:	f8ad 0006 	strh.w	r0, [sp, #6]
 8001152:	f000 fb65 	bl	8001820 <FEB_cs_low>
 8001156:	2104      	movs	r1, #4
 8001158:	462b      	mov	r3, r5
 800115a:	4622      	mov	r2, r4
 800115c:	eb0d 0001 	add.w	r0, sp, r1
 8001160:	f000 fb76 	bl	8001850 <FEB_spi_write_read>
 8001164:	f000 fb64 	bl	8001830 <FEB_cs_high>
 8001168:	b003      	add	sp, #12
 800116a:	bd30      	pop	{r4, r5, pc}

0800116c <write_68>:
 800116c:	e92d 41f3 	stmdb	sp!, {r0, r1, r4, r5, r6, r7, r8, lr}
 8001170:	00c7      	lsls	r7, r0, #3
 8001172:	3704      	adds	r7, #4
 8001174:	b2ff      	uxtb	r7, r7
 8001176:	460e      	mov	r6, r1
 8001178:	4604      	mov	r4, r0
 800117a:	2101      	movs	r1, #1
 800117c:	4638      	mov	r0, r7
 800117e:	4690      	mov	r8, r2
 8001180:	f002 faa2 	bl	80036c8 <calloc>
 8001184:	7833      	ldrb	r3, [r6, #0]
 8001186:	7003      	strb	r3, [r0, #0]
 8001188:	7873      	ldrb	r3, [r6, #1]
 800118a:	7043      	strb	r3, [r0, #1]
 800118c:	4605      	mov	r5, r0
 800118e:	4601      	mov	r1, r0
 8001190:	2002      	movs	r0, #2
 8001192:	f7ff ff47 	bl	8001024 <pec15_calc>
 8001196:	3c01      	subs	r4, #1
 8001198:	ba40      	rev16	r0, r0
 800119a:	2306      	movs	r3, #6
 800119c:	8068      	strh	r0, [r5, #2]
 800119e:	435c      	muls	r4, r3
 80011a0:	260a      	movs	r6, #10
 80011a2:	1fb3      	subs	r3, r6, #6
 80011a4:	1da2      	adds	r2, r4, #6
 80011a6:	b2db      	uxtb	r3, r3
 80011a8:	d10d      	bne.n	80011c6 <write_68+0x5a>
 80011aa:	f000 fb39 	bl	8001820 <FEB_cs_low>
 80011ae:	4638      	mov	r0, r7
 80011b0:	4629      	mov	r1, r5
 80011b2:	f000 fb45 	bl	8001840 <FEB_spi_write_array>
 80011b6:	f000 fb3b 	bl	8001830 <FEB_cs_high>
 80011ba:	4628      	mov	r0, r5
 80011bc:	b002      	add	sp, #8
 80011be:	e8bd 41f0 	ldmia.w	sp!, {r4, r5, r6, r7, r8, lr}
 80011c2:	f002 baa5 	b.w	8003710 <free>
 80011c6:	eb08 0204 	add.w	r2, r8, r4
 80011ca:	f812 1b01 	ldrb.w	r1, [r2], #1
 80011ce:	54e9      	strb	r1, [r5, r3]
 80011d0:	3301      	adds	r3, #1
 80011d2:	b2db      	uxtb	r3, r3
 80011d4:	42b3      	cmp	r3, r6
 80011d6:	d1f8      	bne.n	80011ca <write_68+0x5e>
 80011d8:	b2e2      	uxtb	r2, r4
 80011da:	fa58 f384 	uxtab	r3, r8, r4
 80011de:	f858 0002 	ldr.w	r0, [r8, r2]
 80011e2:	889b      	ldrh	r3, [r3, #4]
 80011e4:	9000      	str	r0, [sp, #0]
 80011e6:	466a      	mov	r2, sp
 80011e8:	2106      	movs	r1, #6
 80011ea:	2000      	movs	r0, #0
 80011ec:	f8ad 3004 	strh.w	r3, [sp, #4]
 80011f0:	f7ff ff2e 	bl	8001050 <Pec10_calc>
 80011f4:	0a03      	lsrs	r3, r0, #8
 80011f6:	55ab      	strb	r3, [r5, r6]
 80011f8:	1c73      	adds	r3, r6, #1
 80011fa:	b2db      	uxtb	r3, r3
 80011fc:	3608      	adds	r6, #8
 80011fe:	54e8      	strb	r0, [r5, r3]
 8001200:	b2f6      	uxtb	r6, r6
 8001202:	3c06      	subs	r4, #6
 8001204:	e7cd      	b.n	80011a2 <write_68+0x36>

08001206 <transmitCMDR>:
 8001206:	b507      	push	{r0, r1, r2, lr}
 8001208:	ba40      	rev16	r0, r0
 800120a:	f8ad 0004 	strh.w	r0, [sp, #4]
 800120e:	a801      	add	r0, sp, #4
 8001210:	f7ff ff8f 	bl	8001132 <cmd_68_r>
 8001214:	b003      	add	sp, #12
 8001216:	f85d fb04 	ldr.w	pc, [sp], #4

0800121a <transmitCMDW>:
 800121a:	b507      	push	{r0, r1, r2, lr}
 800121c:	ba40      	rev16	r0, r0
 800121e:	460a      	mov	r2, r1
 8001220:	f8ad 0004 	strh.w	r0, [sp, #4]
 8001224:	a901      	add	r1, sp, #4
 8001226:	2002      	movs	r0, #2
 8001228:	f7ff ffa0 	bl	800116c <write_68>
 800122c:	b003      	add	sp, #12
 800122e:	f85d fb04 	ldr.w	pc, [sp], #4
	...

08001234 <FEB_ADBMS_Init>:
 8001234:	b510      	push	{r4, lr}
 8001236:	4c0e      	ldr	r4, [pc, #56]	@ (8001270 <FEB_ADBMS_Init+0x3c>)
 8001238:	f000 fafa 	bl	8001830 <FEB_cs_high>
 800123c:	4621      	mov	r1, r4
 800123e:	2002      	movs	r0, #2
 8001240:	f000 f8e6 	bl	8001410 <ADBMS6830B_init_cfg>
 8001244:	4621      	mov	r1, r4
 8001246:	2002      	movs	r0, #2
 8001248:	f000 f90c 	bl	8001464 <ADBMS6830B_reset_crc_count>
 800124c:	4621      	mov	r1, r4
 800124e:	2002      	movs	r0, #2
 8001250:	f000 f92d 	bl	80014ae <ADBMS6830B_init_reg_limits>
 8001254:	2002      	movs	r0, #2
 8001256:	f000 fa99 	bl	800178c <wakeup_sleep>
 800125a:	4621      	mov	r1, r4
 800125c:	2002      	movs	r0, #2
 800125e:	f000 faa1 	bl	80017a4 <ADBMS6830B_wrALL>
 8001262:	4621      	mov	r1, r4
 8001264:	2002      	movs	r0, #2
 8001266:	e8bd 4010 	ldmia.w	sp!, {r4, lr}
 800126a:	f000 baad 	b.w	80017c8 <ADBMS6830B_rdALL>
 800126e:	bf00      	nop
 8001270:	200003ec 	.word	0x200003ec

08001274 <start_adc_cell_voltage_measurements>:
 8001274:	b507      	push	{r0, r1, r2, lr}
 8001276:	2002      	movs	r0, #2
 8001278:	f000 fa88 	bl	800178c <wakeup_sleep>
 800127c:	2300      	movs	r3, #0
 800127e:	2201      	movs	r2, #1
 8001280:	4610      	mov	r0, r2
 8001282:	9300      	str	r3, [sp, #0]
 8001284:	4619      	mov	r1, r3
 8001286:	f000 f92c 	bl	80014e2 <ADBMS6830B_adcv>
 800128a:	2005      	movs	r0, #5
 800128c:	b003      	add	sp, #12
 800128e:	f85d eb04 	ldr.w	lr, [sp], #4
 8001292:	f000 bead 	b.w	8001ff0 <HAL_Delay>
	...

08001298 <read_cell_voltages>:
 8001298:	b510      	push	{r4, lr}
 800129a:	4c08      	ldr	r4, [pc, #32]	@ (80012bc <read_cell_voltages+0x24>)
 800129c:	2002      	movs	r0, #2
 800129e:	f000 fa75 	bl	800178c <wakeup_sleep>
 80012a2:	4621      	mov	r1, r4
 80012a4:	2002      	movs	r0, #2
 80012a6:	f000 f932 	bl	800150e <ADBMS6830B_rdcv>
 80012aa:	2005      	movs	r0, #5
 80012ac:	f000 fea0 	bl	8001ff0 <HAL_Delay>
 80012b0:	4621      	mov	r1, r4
 80012b2:	2002      	movs	r0, #2
 80012b4:	e8bd 4010 	ldmia.w	sp!, {r4, lr}
 80012b8:	f000 b961 	b.w	800157e <ADBMS6830B_rdsv>
 80012bc:	200003ec 	.word	0x200003ec

080012c0 <store_cell_voltages>:
 80012c0:	e92d 4ff8 	stmdb	sp!, {r3, r4, r5, r6, r7, r8, r9, sl, fp, lr}
 80012c4:	4c3c      	ldr	r4, [pc, #240]	@ (80013b8 <store_cell_voltages+0xf8>)
 80012c6:	f8df b0fc 	ldr.w	fp, [pc, #252]	@ 80013c4 <store_cell_voltages+0x104>
 80012ca:	4f3c      	ldr	r7, [pc, #240]	@ (80013bc <store_cell_voltages+0xfc>)
 80012cc:	f20f 09e0 	addw	r9, pc, #224	@ 0xe0
 80012d0:	e9d9 8900 	ldrd	r8, r9, [r9]
 80012d4:	ed2d 8b02 	vpush	{d8}
 80012d8:	ed9f 8a39 	vldr	s16, [pc, #228]	@ 80013c0 <store_cell_voltages+0x100>
 80012dc:	2500      	movs	r5, #0
 80012de:	46a2      	mov	sl, r4
 80012e0:	2600      	movs	r6, #0
 80012e2:	f93b 0f02 	ldrsh.w	r0, [fp, #2]!
 80012e6:	f7ff f93d 	bl	8000564 <__aeabi_i2d>
 80012ea:	4642      	mov	r2, r8
 80012ec:	464b      	mov	r3, r9
 80012ee:	f7ff f9a3 	bl	8000638 <__aeabi_dmul>
 80012f2:	4632      	mov	r2, r6
 80012f4:	463b      	mov	r3, r7
 80012f6:	f7fe ffe9 	bl	80002cc <__adddf3>
 80012fa:	f7ff fc95 	bl	8000c28 <__aeabi_d2f>
 80012fe:	f8c4 0108 	str.w	r0, [r4, #264]	@ 0x108
 8001302:	ee08 0a90 	vmov	s17, r0
 8001306:	f9bb 0024 	ldrsh.w	r0, [fp, #36]	@ 0x24
 800130a:	f7ff f92b 	bl	8000564 <__aeabi_i2d>
 800130e:	4642      	mov	r2, r8
 8001310:	464b      	mov	r3, r9
 8001312:	f7ff f991 	bl	8000638 <__aeabi_dmul>
 8001316:	4632      	mov	r2, r6
 8001318:	463b      	mov	r3, r7
 800131a:	f7fe ffd7 	bl	80002cc <__adddf3>
 800131e:	f7ff fc83 	bl	8000c28 <__aeabi_d2f>
 8001322:	3501      	adds	r5, #1
 8001324:	2d0a      	cmp	r5, #10
 8001326:	f8c4 010c 	str.w	r0, [r4, #268]	@ 0x10c
 800132a:	ee38 8a28 	vadd.f32	s16, s16, s17
 800132e:	f104 040c 	add.w	r4, r4, #12
 8001332:	d1d6      	bne.n	80012e2 <store_cell_voltages+0x22>
 8001334:	a71e      	add	r7, pc, #120	@ (adr r7, 80013b0 <store_cell_voltages+0xf0>)
 8001336:	e9d7 6700 	ldrd	r6, r7, [r7]
 800133a:	f8df b08c 	ldr.w	fp, [pc, #140]	@ 80013c8 <store_cell_voltages+0x108>
 800133e:	f8df 808c 	ldr.w	r8, [pc, #140]	@ 80013cc <store_cell_voltages+0x10c>
 8001342:	4d1e      	ldr	r5, [pc, #120]	@ (80013bc <store_cell_voltages+0xfc>)
 8001344:	f04f 0900 	mov.w	r9, #0
 8001348:	2400      	movs	r4, #0
 800134a:	f93b 0f02 	ldrsh.w	r0, [fp, #2]!
 800134e:	f7ff f909 	bl	8000564 <__aeabi_i2d>
 8001352:	4632      	mov	r2, r6
 8001354:	463b      	mov	r3, r7
 8001356:	f7ff f96f 	bl	8000638 <__aeabi_dmul>
 800135a:	4622      	mov	r2, r4
 800135c:	462b      	mov	r3, r5
 800135e:	f7fe ffb5 	bl	80002cc <__adddf3>
 8001362:	f7ff fc61 	bl	8000c28 <__aeabi_d2f>
 8001366:	f8c8 0108 	str.w	r0, [r8, #264]	@ 0x108
 800136a:	ee08 0a90 	vmov	s17, r0
 800136e:	f9bb 0024 	ldrsh.w	r0, [fp, #36]	@ 0x24
 8001372:	f7ff f8f7 	bl	8000564 <__aeabi_i2d>
 8001376:	4632      	mov	r2, r6
 8001378:	463b      	mov	r3, r7
 800137a:	f7ff f95d 	bl	8000638 <__aeabi_dmul>
 800137e:	4622      	mov	r2, r4
 8001380:	462b      	mov	r3, r5
 8001382:	f7fe ffa3 	bl	80002cc <__adddf3>
 8001386:	f7ff fc4f 	bl	8000c28 <__aeabi_d2f>
 800138a:	f109 0901 	add.w	r9, r9, #1
 800138e:	f1b9 0f0a 	cmp.w	r9, #10
 8001392:	f8c8 010c 	str.w	r0, [r8, #268]	@ 0x10c
 8001396:	ee38 8a28 	vadd.f32	s16, s16, s17
 800139a:	f108 080c 	add.w	r8, r8, #12
 800139e:	d1d4      	bne.n	800134a <store_cell_voltages+0x8a>
 80013a0:	ed8a 8a00 	vstr	s16, [sl]
 80013a4:	ecbd 8b02 	vpop	{d8}
 80013a8:	e8bd 8ff8 	ldmia.w	sp!, {r3, r4, r5, r6, r7, r8, r9, sl, fp, pc}
 80013ac:	f3af 8000 	nop.w
 80013b0:	30553261 	.word	0x30553261
 80013b4:	3f23a92a 	.word	0x3f23a92a
 80013b8:	200001f4 	.word	0x200001f4
 80013bc:	3ff80000 	.word	0x3ff80000
 80013c0:	00000000 	.word	0x00000000
 80013c4:	20000408 	.word	0x20000408
 80013c8:	20000514 	.word	0x20000514
 80013cc:	2000026c 	.word	0x2000026c

080013d0 <validate_voltages>:
 80013d0:	b508      	push	{r3, lr}
 80013d2:	f000 fa1f 	bl	8001814 <FEB_Config_Get_Cell_Max_Voltage_mV>
 80013d6:	e8bd 4008 	ldmia.w	sp!, {r3, lr}
 80013da:	f000 ba15 	b.w	8001808 <FEB_Config_Get_Cell_Min_Voltage_mV>
	...

080013e0 <FEB_ADBMS_Voltage_Process>:
 80013e0:	b510      	push	{r4, lr}
 80013e2:	4c09      	ldr	r4, [pc, #36]	@ (8001408 <FEB_ADBMS_Voltage_Process+0x28>)
 80013e4:	f7ff ff46 	bl	8001274 <start_adc_cell_voltage_measurements>
 80013e8:	f7ff ff56 	bl	8001298 <read_cell_voltages>
 80013ec:	f7ff ff68 	bl	80012c0 <store_cell_voltages>
 80013f0:	f7ff ffee 	bl	80013d0 <validate_voltages>
 80013f4:	6823      	ldr	r3, [r4, #0]
 80013f6:	1e5a      	subs	r2, r3, #1
 80013f8:	6022      	str	r2, [r4, #0]
 80013fa:	b923      	cbnz	r3, 8001406 <FEB_ADBMS_Voltage_Process+0x26>
 80013fc:	4803      	ldr	r0, [pc, #12]	@ (800140c <FEB_ADBMS_Voltage_Process+0x2c>)
 80013fe:	f000 fa47 	bl	8001890 <FEB_ADBMS_UART_Transmit>
 8001402:	2304      	movs	r3, #4
 8001404:	6023      	str	r3, [r4, #0]
 8001406:	bd10      	pop	{r4, pc}
 8001408:	20000000 	.word	0x20000000
 800140c:	200001f4 	.word	0x200001f4

08001410 <ADBMS6830B_init_cfg>:
 8001410:	2300      	movs	r3, #0
 8001412:	e92d 47f0 	stmdb	sp!, {r4, r5, r6, r7, r8, r9, sl, lr}
 8001416:	461a      	mov	r2, r3
 8001418:	2583      	movs	r5, #131	@ 0x83
 800141a:	2601      	movs	r6, #1
 800141c:	27cc      	movs	r7, #204	@ 0xcc
 800141e:	f04f 0c02 	mov.w	ip, #2
 8001422:	f04f 0ed0 	mov.w	lr, #208	@ 0xd0
 8001426:	f04f 0840 	mov.w	r8, #64	@ 0x40
 800142a:	f04f 092c 	mov.w	r9, #44	@ 0x2c
 800142e:	f04f 0aff 	mov.w	sl, #255	@ 0xff
 8001432:	b2dc      	uxtb	r4, r3
 8001434:	42a0      	cmp	r0, r4
 8001436:	d801      	bhi.n	800143c <ADBMS6830B_init_cfg+0x2c>
 8001438:	e8bd 87f0 	ldmia.w	sp!, {r4, r5, r6, r7, r8, r9, sl, pc}
 800143c:	700d      	strb	r5, [r1, #0]
 800143e:	704e      	strb	r6, [r1, #1]
 8001440:	708a      	strb	r2, [r1, #2]
 8001442:	70cf      	strb	r7, [r1, #3]
 8001444:	f881 c004 	strb.w	ip, [r1, #4]
 8001448:	714a      	strb	r2, [r1, #5]
 800144a:	f881 e00f 	strb.w	lr, [r1, #15]
 800144e:	f881 8010 	strb.w	r8, [r1, #16]
 8001452:	f881 9011 	strb.w	r9, [r1, #17]
 8001456:	f881 a012 	strb.w	sl, [r1, #18]
 800145a:	74ca      	strb	r2, [r1, #19]
 800145c:	3301      	adds	r3, #1
 800145e:	f501 7186 	add.w	r1, r1, #268	@ 0x10c
 8001462:	e7e6      	b.n	8001432 <ADBMS6830B_init_cfg+0x22>

08001464 <ADBMS6830B_reset_crc_count>:
 8001464:	2200      	movs	r2, #0
 8001466:	4613      	mov	r3, r2
 8001468:	4290      	cmp	r0, r2
 800146a:	f501 7186 	add.w	r1, r1, #268	@ 0x10c
 800146e:	dc00      	bgt.n	8001472 <ADBMS6830B_reset_crc_count+0xe>
 8001470:	4770      	bx	lr
 8001472:	f821 3c26 	strh.w	r3, [r1, #-38]
 8001476:	f821 3c24 	strh.w	r3, [r1, #-36]
 800147a:	f821 3c22 	strh.w	r3, [r1, #-34]
 800147e:	f821 3c20 	strh.w	r3, [r1, #-32]
 8001482:	f821 3c1e 	strh.w	r3, [r1, #-30]
 8001486:	f821 3c1c 	strh.w	r3, [r1, #-28]
 800148a:	f821 3c1a 	strh.w	r3, [r1, #-26]
 800148e:	f821 3c18 	strh.w	r3, [r1, #-24]
 8001492:	f821 3c16 	strh.w	r3, [r1, #-22]
 8001496:	f821 3c14 	strh.w	r3, [r1, #-20]
 800149a:	f821 3c12 	strh.w	r3, [r1, #-18]
 800149e:	f821 3c10 	strh.w	r3, [r1, #-16]
 80014a2:	f821 3c0e 	strh.w	r3, [r1, #-14]
 80014a6:	f821 3c0c 	strh.w	r3, [r1, #-12]
 80014aa:	3201      	adds	r2, #1
 80014ac:	e7dc      	b.n	8001468 <ADBMS6830B_reset_crc_count+0x4>

080014ae <ADBMS6830B_init_reg_limits>:
 80014ae:	b5f0      	push	{r4, r5, r6, r7, lr}
 80014b0:	2300      	movs	r3, #0
 80014b2:	2614      	movs	r6, #20
 80014b4:	2204      	movs	r2, #4
 80014b6:	2406      	movs	r4, #6
 80014b8:	2705      	movs	r7, #5
 80014ba:	b2dd      	uxtb	r5, r3
 80014bc:	42a8      	cmp	r0, r5
 80014be:	f501 7186 	add.w	r1, r1, #268	@ 0x10c
 80014c2:	d800      	bhi.n	80014c6 <ADBMS6830B_init_reg_limits+0x18>
 80014c4:	bdf0      	pop	{r4, r5, r6, r7, pc}
 80014c6:	f801 6c0a 	strb.w	r6, [r1, #-10]
 80014ca:	f801 2c09 	strb.w	r2, [r1, #-9]
 80014ce:	f801 4c08 	strb.w	r4, [r1, #-8]
 80014d2:	f801 4c07 	strb.w	r4, [r1, #-7]
 80014d6:	f801 2c06 	strb.w	r2, [r1, #-6]
 80014da:	f801 7c05 	strb.w	r7, [r1, #-5]
 80014de:	3301      	adds	r3, #1
 80014e0:	e7eb      	b.n	80014ba <ADBMS6830B_init_reg_limits+0xc>

080014e2 <ADBMS6830B_adcv>:
 80014e2:	b507      	push	{r0, r1, r2, lr}
 80014e4:	009b      	lsls	r3, r3, #2
 80014e6:	ea43 13c2 	orr.w	r3, r3, r2, lsl #7
 80014ea:	ea43 1301 	orr.w	r3, r3, r1, lsl #4
 80014ee:	f89d 2010 	ldrb.w	r2, [sp, #16]
 80014f2:	3002      	adds	r0, #2
 80014f4:	f043 0360 	orr.w	r3, r3, #96	@ 0x60
 80014f8:	f88d 0004 	strb.w	r0, [sp, #4]
 80014fc:	4313      	orrs	r3, r2
 80014fe:	a801      	add	r0, sp, #4
 8001500:	f88d 3005 	strb.w	r3, [sp, #5]
 8001504:	f7ff fdfc 	bl	8001100 <cmd_68>
 8001508:	b003      	add	sp, #12
 800150a:	f85d fb04 	ldr.w	pc, [sp], #4

0800150e <ADBMS6830B_rdcv>:
 800150e:	b5f8      	push	{r3, r4, r5, r6, r7, lr}
 8001510:	eb00 1300 	add.w	r3, r0, r0, lsl #4
 8001514:	005b      	lsls	r3, r3, #1
 8001516:	3307      	adds	r3, #7
 8001518:	466a      	mov	r2, sp
 800151a:	08db      	lsrs	r3, r3, #3
 800151c:	eba2 03c3 	sub.w	r3, r2, r3, lsl #3
 8001520:	eb00 1200 	add.w	r2, r0, r0, lsl #4
 8001524:	af00      	add	r7, sp, #0
 8001526:	0052      	lsls	r2, r2, #1
 8001528:	469d      	mov	sp, r3
 800152a:	460d      	mov	r5, r1
 800152c:	f002 02fe 	and.w	r2, r2, #254	@ 0xfe
 8001530:	4669      	mov	r1, sp
 8001532:	4604      	mov	r4, r0
 8001534:	200c      	movs	r0, #12
 8001536:	f7ff fe66 	bl	8001206 <transmitCMDR>
 800153a:	466e      	mov	r6, sp
 800153c:	f105 011e 	add.w	r1, r5, #30
 8001540:	2200      	movs	r2, #0
 8001542:	2522      	movs	r5, #34	@ 0x22
 8001544:	4294      	cmp	r4, r2
 8001546:	dc09      	bgt.n	800155c <ADBMS6830B_rdcv+0x4e>
 8001548:	4631      	mov	r1, r6
 800154a:	2020      	movs	r0, #32
 800154c:	f7ff fdac 	bl	80010a8 <pec10_calc>
 8001550:	8c33      	ldrh	r3, [r6, #32]
 8001552:	1a18      	subs	r0, r3, r0
 8001554:	bf18      	it	ne
 8001556:	2001      	movne	r0, #1
 8001558:	46bd      	mov	sp, r7
 800155a:	bdf8      	pop	{r3, r4, r5, r6, r7, pc}
 800155c:	fb05 6302 	mla	r3, r5, r2, r6
 8001560:	4608      	mov	r0, r1
 8001562:	f103 0c20 	add.w	ip, r3, #32
 8001566:	f853 eb04 	ldr.w	lr, [r3], #4
 800156a:	f840 eb04 	str.w	lr, [r0], #4
 800156e:	4563      	cmp	r3, ip
 8001570:	d1f9      	bne.n	8001566 <ADBMS6830B_rdcv+0x58>
 8001572:	881b      	ldrh	r3, [r3, #0]
 8001574:	8003      	strh	r3, [r0, #0]
 8001576:	3201      	adds	r2, #1
 8001578:	f501 7186 	add.w	r1, r1, #268	@ 0x10c
 800157c:	e7e2      	b.n	8001544 <ADBMS6830B_rdcv+0x36>

0800157e <ADBMS6830B_rdsv>:
 800157e:	b5f8      	push	{r3, r4, r5, r6, r7, lr}
 8001580:	eb00 1300 	add.w	r3, r0, r0, lsl #4
 8001584:	005b      	lsls	r3, r3, #1
 8001586:	3307      	adds	r3, #7
 8001588:	466a      	mov	r2, sp
 800158a:	08db      	lsrs	r3, r3, #3
 800158c:	eba2 03c3 	sub.w	r3, r2, r3, lsl #3
 8001590:	eb00 1200 	add.w	r2, r0, r0, lsl #4
 8001594:	af00      	add	r7, sp, #0
 8001596:	0052      	lsls	r2, r2, #1
 8001598:	469d      	mov	sp, r3
 800159a:	460d      	mov	r5, r1
 800159c:	f002 02fe 	and.w	r2, r2, #254	@ 0xfe
 80015a0:	4669      	mov	r1, sp
 80015a2:	4604      	mov	r4, r0
 80015a4:	2010      	movs	r0, #16
 80015a6:	f7ff fe2e 	bl	8001206 <transmitCMDR>
 80015aa:	466e      	mov	r6, sp
 80015ac:	f105 0142 	add.w	r1, r5, #66	@ 0x42
 80015b0:	2200      	movs	r2, #0
 80015b2:	2522      	movs	r5, #34	@ 0x22
 80015b4:	4294      	cmp	r4, r2
 80015b6:	dc09      	bgt.n	80015cc <ADBMS6830B_rdsv+0x4e>
 80015b8:	4631      	mov	r1, r6
 80015ba:	2020      	movs	r0, #32
 80015bc:	f7ff fd74 	bl	80010a8 <pec10_calc>
 80015c0:	8c33      	ldrh	r3, [r6, #32]
 80015c2:	1a18      	subs	r0, r3, r0
 80015c4:	bf18      	it	ne
 80015c6:	2001      	movne	r0, #1
 80015c8:	46bd      	mov	sp, r7
 80015ca:	bdf8      	pop	{r3, r4, r5, r6, r7, pc}
 80015cc:	fb05 6302 	mla	r3, r5, r2, r6
 80015d0:	4608      	mov	r0, r1
 80015d2:	f103 0c20 	add.w	ip, r3, #32
 80015d6:	f853 eb04 	ldr.w	lr, [r3], #4
 80015da:	f840 eb04 	str.w	lr, [r0], #4
 80015de:	4563      	cmp	r3, ip
 80015e0:	d1f9      	bne.n	80015d6 <ADBMS6830B_rdsv+0x58>
 80015e2:	881b      	ldrh	r3, [r3, #0]
 80015e4:	8003      	strh	r3, [r0, #0]
 80015e6:	3201      	adds	r2, #1
 80015e8:	f501 7186 	add.w	r1, r1, #268	@ 0x10c
 80015ec:	e7e2      	b.n	80015b4 <ADBMS6830B_rdsv+0x36>

080015ee <ADBMS6830B_wrcfga>:
 80015ee:	e92d 41f0 	stmdb	sp!, {r4, r5, r6, r7, r8, lr}
 80015f2:	eb00 0340 	add.w	r3, r0, r0, lsl #1
 80015f6:	005b      	lsls	r3, r3, #1
 80015f8:	3307      	adds	r3, #7
 80015fa:	466a      	mov	r2, sp
 80015fc:	08db      	lsrs	r3, r3, #3
 80015fe:	eba2 03c3 	sub.w	r3, r2, r3, lsl #3
 8001602:	af00      	add	r7, sp, #0
 8001604:	469d      	mov	sp, r3
 8001606:	460d      	mov	r5, r1
 8001608:	2400      	movs	r4, #0
 800160a:	4669      	mov	r1, sp
 800160c:	f44f 7e86 	mov.w	lr, #268	@ 0x10c
 8001610:	b2e3      	uxtb	r3, r4
 8001612:	eb03 0243 	add.w	r2, r3, r3, lsl #1
 8001616:	0052      	lsls	r2, r2, #1
 8001618:	4298      	cmp	r0, r3
 800161a:	b2d2      	uxtb	r2, r2
 800161c:	d90d      	bls.n	800163a <ADBMS6830B_wrcfga+0x4c>
 800161e:	fb0e 5c04 	mla	ip, lr, r4, r5
 8001622:	2300      	movs	r3, #0
 8001624:	18d6      	adds	r6, r2, r3
 8001626:	f81c 8003 	ldrb.w	r8, [ip, r3]
 800162a:	b2f6      	uxtb	r6, r6
 800162c:	3301      	adds	r3, #1
 800162e:	2b06      	cmp	r3, #6
 8001630:	f801 8006 	strb.w	r8, [r1, r6]
 8001634:	d1f6      	bne.n	8001624 <ADBMS6830B_wrcfga+0x36>
 8001636:	3401      	adds	r4, #1
 8001638:	e7ea      	b.n	8001610 <ADBMS6830B_wrcfga+0x22>
 800163a:	2001      	movs	r0, #1
 800163c:	f7ff fded 	bl	800121a <transmitCMDW>
 8001640:	46bd      	mov	sp, r7
 8001642:	e8bd 81f0 	ldmia.w	sp!, {r4, r5, r6, r7, r8, pc}

08001646 <ADBMS6830B_rdcfga>:
 8001646:	b5f8      	push	{r3, r4, r5, r6, r7, lr}
 8001648:	4604      	mov	r4, r0
 800164a:	00c0      	lsls	r0, r0, #3
 800164c:	460d      	mov	r5, r1
 800164e:	f002 f857 	bl	8003700 <malloc>
 8001652:	00e2      	lsls	r2, r4, #3
 8001654:	f002 02f8 	and.w	r2, r2, #248	@ 0xf8
 8001658:	4601      	mov	r1, r0
 800165a:	4606      	mov	r6, r0
 800165c:	2002      	movs	r0, #2
 800165e:	f7ff fdd2 	bl	8001206 <transmitCMDR>
 8001662:	1daa      	adds	r2, r5, #6
 8001664:	2300      	movs	r3, #0
 8001666:	429c      	cmp	r4, r3
 8001668:	dc0c      	bgt.n	8001684 <ADBMS6830B_rdcfga+0x3e>
 800166a:	4631      	mov	r1, r6
 800166c:	2006      	movs	r0, #6
 800166e:	f7ff fd1b 	bl	80010a8 <pec10_calc>
 8001672:	88f1      	ldrh	r1, [r6, #6]
 8001674:	2300      	movs	r3, #0
 8001676:	350e      	adds	r5, #14
 8001678:	f44f 7286 	mov.w	r2, #268	@ 0x10c
 800167c:	1a40      	subs	r0, r0, r1
 800167e:	429c      	cmp	r4, r3
 8001680:	dc09      	bgt.n	8001696 <ADBMS6830B_rdcfga+0x50>
 8001682:	bdf8      	pop	{r3, r4, r5, r6, r7, pc}
 8001684:	eb06 07c3 	add.w	r7, r6, r3, lsl #3
 8001688:	cf03      	ldmia	r7!, {r0, r1}
 800168a:	3301      	adds	r3, #1
 800168c:	6010      	str	r0, [r2, #0]
 800168e:	6051      	str	r1, [r2, #4]
 8001690:	f502 7286 	add.w	r2, r2, #268	@ 0x10c
 8001694:	e7e7      	b.n	8001666 <ADBMS6830B_rdcfga+0x20>
 8001696:	fb02 f103 	mul.w	r1, r2, r3
 800169a:	3301      	adds	r3, #1
 800169c:	5468      	strb	r0, [r5, r1]
 800169e:	e7ee      	b.n	800167e <ADBMS6830B_rdcfga+0x38>

080016a0 <ADBMS6830B_wrcfgb>:
 80016a0:	b570      	push	{r4, r5, r6, lr}
 80016a2:	310e      	adds	r1, #14
 80016a4:	b0c0      	sub	sp, #256	@ 0x100
 80016a6:	2400      	movs	r4, #0
 80016a8:	b2e2      	uxtb	r2, r4
 80016aa:	eb02 0342 	add.w	r3, r2, r2, lsl #1
 80016ae:	005b      	lsls	r3, r3, #1
 80016b0:	4290      	cmp	r0, r2
 80016b2:	b2db      	uxtb	r3, r3
 80016b4:	d805      	bhi.n	80016c2 <ADBMS6830B_wrcfgb+0x22>
 80016b6:	4669      	mov	r1, sp
 80016b8:	2024      	movs	r0, #36	@ 0x24
 80016ba:	f7ff fdae 	bl	800121a <transmitCMDW>
 80016be:	b040      	add	sp, #256	@ 0x100
 80016c0:	bd70      	pop	{r4, r5, r6, pc}
 80016c2:	460a      	mov	r2, r1
 80016c4:	1d8d      	adds	r5, r1, #6
 80016c6:	f812 6f01 	ldrb.w	r6, [r2, #1]!
 80016ca:	f80d 6003 	strb.w	r6, [sp, r3]
 80016ce:	42aa      	cmp	r2, r5
 80016d0:	f103 0301 	add.w	r3, r3, #1
 80016d4:	b2db      	uxtb	r3, r3
 80016d6:	d1f6      	bne.n	80016c6 <ADBMS6830B_wrcfgb+0x26>
 80016d8:	3401      	adds	r4, #1
 80016da:	f501 7186 	add.w	r1, r1, #268	@ 0x10c
 80016de:	e7e3      	b.n	80016a8 <ADBMS6830B_wrcfgb+0x8>

080016e0 <ADBMS6830B_rdcfgb>:
 80016e0:	b570      	push	{r4, r5, r6, lr}
 80016e2:	4605      	mov	r5, r0
 80016e4:	00c0      	lsls	r0, r0, #3
 80016e6:	460c      	mov	r4, r1
 80016e8:	f002 f80a 	bl	8003700 <malloc>
 80016ec:	00ea      	lsls	r2, r5, #3
 80016ee:	f002 02f8 	and.w	r2, r2, #248	@ 0xf8
 80016f2:	4601      	mov	r1, r0
 80016f4:	4606      	mov	r6, r0
 80016f6:	2026      	movs	r0, #38	@ 0x26
 80016f8:	f7ff fd85 	bl	8001206 <transmitCMDR>
 80016fc:	1da3      	adds	r3, r4, #6
 80016fe:	2200      	movs	r2, #0
 8001700:	4295      	cmp	r5, r2
 8001702:	dc00      	bgt.n	8001706 <ADBMS6830B_rdcfgb+0x26>
 8001704:	bd70      	pop	{r4, r5, r6, pc}
 8001706:	eb06 04c2 	add.w	r4, r6, r2, lsl #3
 800170a:	cc03      	ldmia	r4!, {r0, r1}
 800170c:	3201      	adds	r2, #1
 800170e:	6018      	str	r0, [r3, #0]
 8001710:	6059      	str	r1, [r3, #4]
 8001712:	f503 7386 	add.w	r3, r3, #268	@ 0x10c
 8001716:	e7f3      	b.n	8001700 <ADBMS6830B_rdcfgb+0x20>

08001718 <ADBMS6830B_rdpwmga>:
 8001718:	b570      	push	{r4, r5, r6, lr}
 800171a:	4605      	mov	r5, r0
 800171c:	00c0      	lsls	r0, r0, #3
 800171e:	460c      	mov	r4, r1
 8001720:	f001 ffee 	bl	8003700 <malloc>
 8001724:	00ea      	lsls	r2, r5, #3
 8001726:	f002 02f8 	and.w	r2, r2, #248	@ 0xf8
 800172a:	4601      	mov	r1, r0
 800172c:	4606      	mov	r6, r0
 800172e:	2022      	movs	r0, #34	@ 0x22
 8001730:	f7ff fd69 	bl	8001206 <transmitCMDR>
 8001734:	f104 03a9 	add.w	r3, r4, #169	@ 0xa9
 8001738:	2200      	movs	r2, #0
 800173a:	4295      	cmp	r5, r2
 800173c:	dc00      	bgt.n	8001740 <ADBMS6830B_rdpwmga+0x28>
 800173e:	bd70      	pop	{r4, r5, r6, pc}
 8001740:	eb06 04c2 	add.w	r4, r6, r2, lsl #3
 8001744:	cc03      	ldmia	r4!, {r0, r1}
 8001746:	3201      	adds	r2, #1
 8001748:	6018      	str	r0, [r3, #0]
 800174a:	6059      	str	r1, [r3, #4]
 800174c:	f503 7386 	add.w	r3, r3, #268	@ 0x10c
 8001750:	e7f3      	b.n	800173a <ADBMS6830B_rdpwmga+0x22>

08001752 <ADBMS6830B_rdpwmgb>:
 8001752:	b570      	push	{r4, r5, r6, lr}
 8001754:	4605      	mov	r5, r0
 8001756:	00c0      	lsls	r0, r0, #3
 8001758:	460c      	mov	r4, r1
 800175a:	f001 ffd1 	bl	8003700 <malloc>
 800175e:	00ea      	lsls	r2, r5, #3
 8001760:	f002 02f8 	and.w	r2, r2, #248	@ 0xf8
 8001764:	4601      	mov	r1, r0
 8001766:	4606      	mov	r6, r0
 8001768:	2023      	movs	r0, #35	@ 0x23
 800176a:	f7ff fd4c 	bl	8001206 <transmitCMDR>
 800176e:	f104 03b8 	add.w	r3, r4, #184	@ 0xb8
 8001772:	2200      	movs	r2, #0
 8001774:	4295      	cmp	r5, r2
 8001776:	dc00      	bgt.n	800177a <ADBMS6830B_rdpwmgb+0x28>
 8001778:	bd70      	pop	{r4, r5, r6, pc}
 800177a:	eb06 04c2 	add.w	r4, r6, r2, lsl #3
 800177e:	cc03      	ldmia	r4!, {r0, r1}
 8001780:	3201      	adds	r2, #1
 8001782:	6018      	str	r0, [r3, #0]
 8001784:	6059      	str	r1, [r3, #4]
 8001786:	f503 7386 	add.w	r3, r3, #268	@ 0x10c
 800178a:	e7f3      	b.n	8001774 <ADBMS6830B_rdpwmgb+0x22>

0800178c <wakeup_sleep>:
 800178c:	b538      	push	{r3, r4, r5, lr}
 800178e:	4605      	mov	r5, r0
 8001790:	2400      	movs	r4, #0
 8001792:	42a5      	cmp	r5, r4
 8001794:	dc00      	bgt.n	8001798 <wakeup_sleep+0xc>
 8001796:	bd38      	pop	{r3, r4, r5, pc}
 8001798:	f000 f842 	bl	8001820 <FEB_cs_low>
 800179c:	3401      	adds	r4, #1
 800179e:	f000 f847 	bl	8001830 <FEB_cs_high>
 80017a2:	e7f6      	b.n	8001792 <wakeup_sleep+0x6>

080017a4 <ADBMS6830B_wrALL>:
 80017a4:	b538      	push	{r3, r4, r5, lr}
 80017a6:	4604      	mov	r4, r0
 80017a8:	460d      	mov	r5, r1
 80017aa:	f7ff ffef 	bl	800178c <wakeup_sleep>
 80017ae:	4629      	mov	r1, r5
 80017b0:	4620      	mov	r0, r4
 80017b2:	f7ff ff1c 	bl	80015ee <ADBMS6830B_wrcfga>
 80017b6:	4620      	mov	r0, r4
 80017b8:	f7ff ffe8 	bl	800178c <wakeup_sleep>
 80017bc:	4629      	mov	r1, r5
 80017be:	4620      	mov	r0, r4
 80017c0:	e8bd 4038 	ldmia.w	sp!, {r3, r4, r5, lr}
 80017c4:	f7ff bf6c 	b.w	80016a0 <ADBMS6830B_wrcfgb>

080017c8 <ADBMS6830B_rdALL>:
 80017c8:	b538      	push	{r3, r4, r5, lr}
 80017ca:	4604      	mov	r4, r0
 80017cc:	460d      	mov	r5, r1
 80017ce:	f7ff ffdd 	bl	800178c <wakeup_sleep>
 80017d2:	4629      	mov	r1, r5
 80017d4:	4620      	mov	r0, r4
 80017d6:	f7ff ff36 	bl	8001646 <ADBMS6830B_rdcfga>
 80017da:	4620      	mov	r0, r4
 80017dc:	f7ff ffd6 	bl	800178c <wakeup_sleep>
 80017e0:	4629      	mov	r1, r5
 80017e2:	4620      	mov	r0, r4
 80017e4:	f7ff ff7c 	bl	80016e0 <ADBMS6830B_rdcfgb>
 80017e8:	4620      	mov	r0, r4
 80017ea:	f7ff ffcf 	bl	800178c <wakeup_sleep>
 80017ee:	4629      	mov	r1, r5
 80017f0:	4620      	mov	r0, r4
 80017f2:	f7ff ff91 	bl	8001718 <ADBMS6830B_rdpwmga>
 80017f6:	4620      	mov	r0, r4
 80017f8:	f7ff ffc8 	bl	800178c <wakeup_sleep>
 80017fc:	4629      	mov	r1, r5
 80017fe:	4620      	mov	r0, r4
 8001800:	e8bd 4038 	ldmia.w	sp!, {r3, r4, r5, lr}
 8001804:	f7ff bfa5 	b.w	8001752 <ADBMS6830B_rdpwmgb>

08001808 <FEB_Config_Get_Cell_Min_Voltage_mV>:
 8001808:	4b01      	ldr	r3, [pc, #4]	@ (8001810 <FEB_Config_Get_Cell_Min_Voltage_mV+0x8>)
 800180a:	8818      	ldrh	r0, [r3, #0]
 800180c:	4770      	bx	lr
 800180e:	bf00      	nop
 8001810:	20000606 	.word	0x20000606

08001814 <FEB_Config_Get_Cell_Max_Voltage_mV>:
 8001814:	4b01      	ldr	r3, [pc, #4]	@ (800181c <FEB_Config_Get_Cell_Max_Voltage_mV+0x8>)
 8001816:	8818      	ldrh	r0, [r3, #0]
 8001818:	4770      	bx	lr
 800181a:	bf00      	nop
 800181c:	20000604 	.word	0x20000604

08001820 <FEB_cs_low>:
 8001820:	4802      	ldr	r0, [pc, #8]	@ (800182c <FEB_cs_low+0xc>)
 8001822:	2200      	movs	r2, #0
 8001824:	2140      	movs	r1, #64	@ 0x40
 8001826:	f000 bd97 	b.w	8002358 <HAL_GPIO_WritePin>
 800182a:	bf00      	nop
 800182c:	40020400 	.word	0x40020400

08001830 <FEB_cs_high>:
 8001830:	4802      	ldr	r0, [pc, #8]	@ (800183c <FEB_cs_high+0xc>)
 8001832:	2201      	movs	r2, #1
 8001834:	2140      	movs	r1, #64	@ 0x40
 8001836:	f000 bd8f 	b.w	8002358 <HAL_GPIO_WritePin>
 800183a:	bf00      	nop
 800183c:	40020400 	.word	0x40020400

08001840 <FEB_spi_write_array>:
 8001840:	4602      	mov	r2, r0
 8001842:	f04f 33ff 	mov.w	r3, #4294967295
 8001846:	4801      	ldr	r0, [pc, #4]	@ (800184c <FEB_spi_write_array+0xc>)
 8001848:	f001 ba44 	b.w	8002cd4 <HAL_SPI_Transmit>
 800184c:	20000650 	.word	0x20000650

08001850 <FEB_spi_write_read>:
 8001850:	b570      	push	{r4, r5, r6, lr}
 8001852:	4e09      	ldr	r6, [pc, #36]	@ (8001878 <FEB_spi_write_read+0x28>)
 8001854:	4614      	mov	r4, r2
 8001856:	461d      	mov	r5, r3
 8001858:	460a      	mov	r2, r1
 800185a:	f04f 33ff 	mov.w	r3, #4294967295
 800185e:	4601      	mov	r1, r0
 8001860:	4630      	mov	r0, r6
 8001862:	f001 fa37 	bl	8002cd4 <HAL_SPI_Transmit>
 8001866:	462a      	mov	r2, r5
 8001868:	4621      	mov	r1, r4
 800186a:	4630      	mov	r0, r6
 800186c:	f04f 33ff 	mov.w	r3, #4294967295
 8001870:	e8bd 4070 	ldmia.w	sp!, {r4, r5, r6, lr}
 8001874:	f001 bbda 	b.w	800302c <HAL_SPI_Receive>
 8001878:	20000650 	.word	0x20000650

0800187c <FEB_Main_Setup>:
 800187c:	f7ff bcda 	b.w	8001234 <FEB_ADBMS_Init>

08001880 <FEB_Task_ADBMS>:
 8001880:	b508      	push	{r3, lr}
 8001882:	f7ff fdad 	bl	80013e0 <FEB_ADBMS_Voltage_Process>
 8001886:	e8bd 4008 	ldmia.w	sp!, {r3, lr}
 800188a:	2064      	movs	r0, #100	@ 0x64
 800188c:	f000 bbb0 	b.w	8001ff0 <HAL_Delay>

08001890 <FEB_ADBMS_UART_Transmit>:
 8001890:	e92d 4ff0 	stmdb	sp!, {r4, r5, r6, r7, r8, r9, sl, fp, lr}
 8001894:	b0a3      	sub	sp, #140	@ 0x8c
 8001896:	af00      	add	r7, sp, #0
 8001898:	2200      	movs	r2, #0
 800189a:	f8c7 d004 	str.w	sp, [r7, #4]
 800189e:	f5ad 7d40 	sub.w	sp, sp, #768	@ 0x300
 80018a2:	4940      	ldr	r1, [pc, #256]	@ (80019a4 <FEB_ADBMS_UART_Transmit+0x114>)
 80018a4:	f8df a11c 	ldr.w	sl, [pc, #284]	@ 80019c4 <FEB_ADBMS_UART_Transmit+0x134>
 80018a8:	4606      	mov	r6, r0
 80018aa:	f50d 7b80 	add.w	fp, sp, #256	@ 0x100
 80018ae:	4668      	mov	r0, sp
 80018b0:	f002 ff12 	bl	80046d8 <siprintf>
 80018b4:	2507      	movs	r5, #7
 80018b6:	493c      	ldr	r1, [pc, #240]	@ (80019a8 <FEB_ADBMS_UART_Transmit+0x118>)
 80018b8:	60bd      	str	r5, [r7, #8]
 80018ba:	4658      	mov	r0, fp
 80018bc:	f50d 7900 	add.w	r9, sp, #512	@ 0x200
 80018c0:	f002 fff7 	bl	80048b2 <strcpy>
 80018c4:	4939      	ldr	r1, [pc, #228]	@ (80019ac <FEB_ADBMS_UART_Transmit+0x11c>)
 80018c6:	60fd      	str	r5, [r7, #12]
 80018c8:	4648      	mov	r0, r9
 80018ca:	f002 fff2 	bl	80048b2 <strcpy>
 80018ce:	466c      	mov	r4, sp
 80018d0:	613d      	str	r5, [r7, #16]
 80018d2:	f04f 0800 	mov.w	r8, #0
 80018d6:	4b36      	ldr	r3, [pc, #216]	@ (80019b0 <FEB_ADBMS_UART_Transmit+0x120>)
 80018d8:	68bd      	ldr	r5, [r7, #8]
 80018da:	4936      	ldr	r1, [pc, #216]	@ (80019b4 <FEB_ADBMS_UART_Transmit+0x124>)
 80018dc:	4642      	mov	r2, r8
 80018de:	f1b8 0f09 	cmp.w	r8, #9
 80018e2:	bf98      	it	ls
 80018e4:	4619      	movls	r1, r3
 80018e6:	1960      	adds	r0, r4, r5
 80018e8:	f002 fef6 	bl	80046d8 <siprintf>
 80018ec:	4405      	add	r5, r0
 80018ee:	f8d6 0108 	ldr.w	r0, [r6, #264]	@ 0x108
 80018f2:	60bd      	str	r5, [r7, #8]
 80018f4:	f7fe fe48 	bl	8000588 <__aeabi_f2d>
 80018f8:	68fd      	ldr	r5, [r7, #12]
 80018fa:	4602      	mov	r2, r0
 80018fc:	460b      	mov	r3, r1
 80018fe:	eb0b 0005 	add.w	r0, fp, r5
 8001902:	4651      	mov	r1, sl
 8001904:	f002 fee8 	bl	80046d8 <siprintf>
 8001908:	4405      	add	r5, r0
 800190a:	f8d6 010c 	ldr.w	r0, [r6, #268]	@ 0x10c
 800190e:	60fd      	str	r5, [r7, #12]
 8001910:	f7fe fe3a 	bl	8000588 <__aeabi_f2d>
 8001914:	693d      	ldr	r5, [r7, #16]
 8001916:	4602      	mov	r2, r0
 8001918:	460b      	mov	r3, r1
 800191a:	eb09 0005 	add.w	r0, r9, r5
 800191e:	4651      	mov	r1, sl
 8001920:	f002 feda 	bl	80046d8 <siprintf>
 8001924:	f108 0801 	add.w	r8, r8, #1
 8001928:	4405      	add	r5, r0
 800192a:	f1b8 0f14 	cmp.w	r8, #20
 800192e:	613d      	str	r5, [r7, #16]
 8001930:	f106 060c 	add.w	r6, r6, #12
 8001934:	d1cf      	bne.n	80018d6 <FEB_ADBMS_UART_Transmit+0x46>
 8001936:	eb09 0005 	add.w	r0, r9, r5
 800193a:	491f      	ldr	r1, [pc, #124]	@ (80019b8 <FEB_ADBMS_UART_Transmit+0x128>)
 800193c:	f8df a078 	ldr.w	sl, [pc, #120]	@ 80019b8 <FEB_ADBMS_UART_Transmit+0x128>
 8001940:	f8df 907c 	ldr.w	r9, [pc, #124]	@ 80019c0 <FEB_ADBMS_UART_Transmit+0x130>
 8001944:	3502      	adds	r5, #2
 8001946:	f002 ffb4 	bl	80048b2 <strcpy>
 800194a:	613d      	str	r5, [r7, #16]
 800194c:	f107 0508 	add.w	r5, r7, #8
 8001950:	f504 7840 	add.w	r8, r4, #768	@ 0x300
 8001954:	462e      	mov	r6, r5
 8001956:	f8d5 b000 	ldr.w	fp, [r5]
 800195a:	4651      	mov	r1, sl
 800195c:	eb04 000b 	add.w	r0, r4, fp
 8001960:	f002 ffa7 	bl	80048b2 <strcpy>
 8001964:	f10b 0302 	add.w	r3, fp, #2
 8001968:	f10b 0203 	add.w	r2, fp, #3
 800196c:	f845 3b04 	str.w	r3, [r5], #4
 8001970:	4621      	mov	r1, r4
 8001972:	2364      	movs	r3, #100	@ 0x64
 8001974:	b292      	uxth	r2, r2
 8001976:	4648      	mov	r0, r9
 8001978:	f504 7480 	add.w	r4, r4, #256	@ 0x100
 800197c:	f001 fe55 	bl	800362a <HAL_UART_Transmit>
 8001980:	4544      	cmp	r4, r8
 8001982:	d1e8      	bne.n	8001956 <FEB_ADBMS_UART_Transmit+0xc6>
 8001984:	490d      	ldr	r1, [pc, #52]	@ (80019bc <FEB_ADBMS_UART_Transmit+0x12c>)
 8001986:	f8d7 d004 	ldr.w	sp, [r7, #4]
 800198a:	4630      	mov	r0, r6
 800198c:	f002 ff91 	bl	80048b2 <strcpy>
 8001990:	2364      	movs	r3, #100	@ 0x64
 8001992:	2265      	movs	r2, #101	@ 0x65
 8001994:	4631      	mov	r1, r6
 8001996:	480a      	ldr	r0, [pc, #40]	@ (80019c0 <FEB_ADBMS_UART_Transmit+0x130>)
 8001998:	f001 fe47 	bl	800362a <HAL_UART_Transmit>
 800199c:	378c      	adds	r7, #140	@ 0x8c
 800199e:	46bd      	mov	sp, r7
 80019a0:	e8bd 8ff0 	ldmia.w	sp!, {r4, r5, r6, r7, r8, r9, sl, fp, pc}
 80019a4:	0800809d 	.word	0x0800809d
 80019a8:	080080a6 	.word	0x080080a6
 80019ac:	080080ae 	.word	0x080080ae
 80019b0:	08008092 	.word	0x08008092
 80019b4:	08008088 	.word	0x08008088
 80019b8:	0800811e 	.word	0x0800811e
 80019bc:	080080bc 	.word	0x080080bc
 80019c0:	20000608 	.word	0x20000608
 80019c4:	080080b6 	.word	0x080080b6

080019c8 <SystemClock_Config>:
 80019c8:	b510      	push	{r4, lr}
 80019ca:	b094      	sub	sp, #80	@ 0x50
 80019cc:	2210      	movs	r2, #16
 80019ce:	2100      	movs	r1, #0
 80019d0:	a809      	add	r0, sp, #36	@ 0x24
 80019d2:	f002 fee4 	bl	800479e <memset>
 80019d6:	2214      	movs	r2, #20
 80019d8:	2100      	movs	r1, #0
 80019da:	a802      	add	r0, sp, #8
 80019dc:	f002 fedf 	bl	800479e <memset>
 80019e0:	4b20      	ldr	r3, [pc, #128]	@ (8001a64 <SystemClock_Config+0x9c>)
 80019e2:	2100      	movs	r1, #0
 80019e4:	9100      	str	r1, [sp, #0]
 80019e6:	6c1a      	ldr	r2, [r3, #64]	@ 0x40
 80019e8:	f042 5280 	orr.w	r2, r2, #268435456	@ 0x10000000
 80019ec:	641a      	str	r2, [r3, #64]	@ 0x40
 80019ee:	6c1b      	ldr	r3, [r3, #64]	@ 0x40
 80019f0:	f003 5380 	and.w	r3, r3, #268435456	@ 0x10000000
 80019f4:	9300      	str	r3, [sp, #0]
 80019f6:	9b00      	ldr	r3, [sp, #0]
 80019f8:	4b1b      	ldr	r3, [pc, #108]	@ (8001a68 <SystemClock_Config+0xa0>)
 80019fa:	9101      	str	r1, [sp, #4]
 80019fc:	681a      	ldr	r2, [r3, #0]
 80019fe:	f442 4240 	orr.w	r2, r2, #49152	@ 0xc000
 8001a02:	601a      	str	r2, [r3, #0]
 8001a04:	681b      	ldr	r3, [r3, #0]
 8001a06:	f403 4340 	and.w	r3, r3, #49152	@ 0xc000
 8001a0a:	9301      	str	r3, [sp, #4]
 8001a0c:	9b01      	ldr	r3, [sp, #4]
 8001a0e:	2101      	movs	r1, #1
 8001a10:	f44f 3380 	mov.w	r3, #65536	@ 0x10000
 8001a14:	2402      	movs	r4, #2
 8001a16:	e9cd 1307 	strd	r1, r3, [sp, #28]
 8001a1a:	f44f 0380 	mov.w	r3, #4194304	@ 0x400000
 8001a1e:	2004      	movs	r0, #4
 8001a20:	e9cd 430d 	strd	r4, r3, [sp, #52]	@ 0x34
 8001a24:	23a0      	movs	r3, #160	@ 0xa0
 8001a26:	e9cd 030f 	strd	r0, r3, [sp, #60]	@ 0x3c
 8001a2a:	a807      	add	r0, sp, #28
 8001a2c:	e9cd 4411 	strd	r4, r4, [sp, #68]	@ 0x44
 8001a30:	9413      	str	r4, [sp, #76]	@ 0x4c
 8001a32:	f000 fe5f 	bl	80026f4 <HAL_RCC_OscConfig>
 8001a36:	b108      	cbz	r0, 8001a3c <SystemClock_Config+0x74>
 8001a38:	b672      	cpsid	i
 8001a3a:	e7fe      	b.n	8001a3a <SystemClock_Config+0x72>
 8001a3c:	230f      	movs	r3, #15
 8001a3e:	e9cd 3402 	strd	r3, r4, [sp, #8]
 8001a42:	9004      	str	r0, [sp, #16]
 8001a44:	f44f 52a0 	mov.w	r2, #5120	@ 0x1400
 8001a48:	f44f 5380 	mov.w	r3, #4096	@ 0x1000
 8001a4c:	2105      	movs	r1, #5
 8001a4e:	a802      	add	r0, sp, #8
 8001a50:	e9cd 2305 	strd	r2, r3, [sp, #20]
 8001a54:	f000 fd2e 	bl	80024b4 <HAL_RCC_ClockConfig>
 8001a58:	b108      	cbz	r0, 8001a5e <SystemClock_Config+0x96>
 8001a5a:	b672      	cpsid	i
 8001a5c:	e7fe      	b.n	8001a5c <SystemClock_Config+0x94>
 8001a5e:	b014      	add	sp, #80	@ 0x50
 8001a60:	bd10      	pop	{r4, pc}
 8001a62:	bf00      	nop
 8001a64:	40023800 	.word	0x40023800
 8001a68:	40007000 	.word	0x40007000

08001a6c <main>:
 8001a6c:	b500      	push	{lr}
 8001a6e:	b08b      	sub	sp, #44	@ 0x2c
 8001a70:	f000 fa92 	bl	8001f98 <HAL_Init>
 8001a74:	f7ff ffa8 	bl	80019c8 <SystemClock_Config>
 8001a78:	2214      	movs	r2, #20
 8001a7a:	2100      	movs	r1, #0
 8001a7c:	eb0d 0002 	add.w	r0, sp, r2
 8001a80:	f002 fe8d 	bl	800479e <memset>
 8001a84:	2400      	movs	r4, #0
 8001a86:	4b6f      	ldr	r3, [pc, #444]	@ (8001c44 <main+0x1d8>)
 8001a88:	9400      	str	r4, [sp, #0]
 8001a8a:	6b1a      	ldr	r2, [r3, #48]	@ 0x30
 8001a8c:	486e      	ldr	r0, [pc, #440]	@ (8001c48 <main+0x1dc>)
 8001a8e:	f042 0204 	orr.w	r2, r2, #4
 8001a92:	631a      	str	r2, [r3, #48]	@ 0x30
 8001a94:	6b1a      	ldr	r2, [r3, #48]	@ 0x30
 8001a96:	f002 0204 	and.w	r2, r2, #4
 8001a9a:	9200      	str	r2, [sp, #0]
 8001a9c:	9a00      	ldr	r2, [sp, #0]
 8001a9e:	9401      	str	r4, [sp, #4]
 8001aa0:	6b1a      	ldr	r2, [r3, #48]	@ 0x30
 8001aa2:	f042 0280 	orr.w	r2, r2, #128	@ 0x80
 8001aa6:	631a      	str	r2, [r3, #48]	@ 0x30
 8001aa8:	6b1a      	ldr	r2, [r3, #48]	@ 0x30
 8001aaa:	f002 0280 	and.w	r2, r2, #128	@ 0x80
 8001aae:	9201      	str	r2, [sp, #4]
 8001ab0:	9a01      	ldr	r2, [sp, #4]
 8001ab2:	9402      	str	r4, [sp, #8]
 8001ab4:	6b1a      	ldr	r2, [r3, #48]	@ 0x30
 8001ab6:	f042 0201 	orr.w	r2, r2, #1
 8001aba:	631a      	str	r2, [r3, #48]	@ 0x30
 8001abc:	6b1a      	ldr	r2, [r3, #48]	@ 0x30
 8001abe:	f002 0201 	and.w	r2, r2, #1
 8001ac2:	9202      	str	r2, [sp, #8]
 8001ac4:	9a02      	ldr	r2, [sp, #8]
 8001ac6:	9403      	str	r4, [sp, #12]
 8001ac8:	6b1a      	ldr	r2, [r3, #48]	@ 0x30
 8001aca:	f042 0202 	orr.w	r2, r2, #2
 8001ace:	631a      	str	r2, [r3, #48]	@ 0x30
 8001ad0:	6b1a      	ldr	r2, [r3, #48]	@ 0x30
 8001ad2:	f002 0202 	and.w	r2, r2, #2
 8001ad6:	9203      	str	r2, [sp, #12]
 8001ad8:	9a03      	ldr	r2, [sp, #12]
 8001ada:	9404      	str	r4, [sp, #16]
 8001adc:	6b1a      	ldr	r2, [r3, #48]	@ 0x30
 8001ade:	f042 0208 	orr.w	r2, r2, #8
 8001ae2:	631a      	str	r2, [r3, #48]	@ 0x30
 8001ae4:	6b1b      	ldr	r3, [r3, #48]	@ 0x30
 8001ae6:	f003 0308 	and.w	r3, r3, #8
 8001aea:	9304      	str	r3, [sp, #16]
 8001aec:	4622      	mov	r2, r4
 8001aee:	f242 010f 	movw	r1, #8207	@ 0x200f
 8001af2:	9b04      	ldr	r3, [sp, #16]
 8001af4:	f000 fc30 	bl	8002358 <HAL_GPIO_WritePin>
 8001af8:	4854      	ldr	r0, [pc, #336]	@ (8001c4c <main+0x1e0>)
 8001afa:	4622      	mov	r2, r4
 8001afc:	2101      	movs	r1, #1
 8001afe:	f000 fc2b 	bl	8002358 <HAL_GPIO_WritePin>
 8001b02:	4853      	ldr	r0, [pc, #332]	@ (8001c50 <main+0x1e4>)
 8001b04:	4622      	mov	r2, r4
 8001b06:	2104      	movs	r1, #4
 8001b08:	f000 fc26 	bl	8002358 <HAL_GPIO_WritePin>
 8001b0c:	2201      	movs	r2, #1
 8001b0e:	4851      	ldr	r0, [pc, #324]	@ (8001c54 <main+0x1e8>)
 8001b10:	2140      	movs	r1, #64	@ 0x40
 8001b12:	f000 fc21 	bl	8002358 <HAL_GPIO_WritePin>
 8001b16:	2501      	movs	r5, #1
 8001b18:	f242 0307 	movw	r3, #8199	@ 0x2007
 8001b1c:	484a      	ldr	r0, [pc, #296]	@ (8001c48 <main+0x1dc>)
 8001b1e:	a905      	add	r1, sp, #20
 8001b20:	e9cd 3505 	strd	r3, r5, [sp, #20]
 8001b24:	e9cd 4407 	strd	r4, r4, [sp, #28]
 8001b28:	f000 fb44 	bl	80021b4 <HAL_GPIO_Init>
 8001b2c:	2308      	movs	r3, #8
 8001b2e:	4846      	ldr	r0, [pc, #280]	@ (8001c48 <main+0x1dc>)
 8001b30:	a905      	add	r1, sp, #20
 8001b32:	e9cd 3505 	strd	r3, r5, [sp, #20]
 8001b36:	e9cd 5507 	strd	r5, r5, [sp, #28]
 8001b3a:	f000 fb3b 	bl	80021b4 <HAL_GPIO_Init>
 8001b3e:	4843      	ldr	r0, [pc, #268]	@ (8001c4c <main+0x1e0>)
 8001b40:	a905      	add	r1, sp, #20
 8001b42:	e9cd 5505 	strd	r5, r5, [sp, #20]
 8001b46:	e9cd 4407 	strd	r4, r4, [sp, #28]
 8001b4a:	f000 fb33 	bl	80021b4 <HAL_GPIO_Init>
 8001b4e:	f641 4330 	movw	r3, #7216	@ 0x1c30
 8001b52:	483d      	ldr	r0, [pc, #244]	@ (8001c48 <main+0x1dc>)
 8001b54:	9407      	str	r4, [sp, #28]
 8001b56:	a905      	add	r1, sp, #20
 8001b58:	e9cd 3405 	strd	r3, r4, [sp, #20]
 8001b5c:	f000 fb2a 	bl	80021b4 <HAL_GPIO_Init>
 8001b60:	23a3      	movs	r3, #163	@ 0xa3
 8001b62:	483c      	ldr	r0, [pc, #240]	@ (8001c54 <main+0x1e8>)
 8001b64:	9407      	str	r4, [sp, #28]
 8001b66:	a905      	add	r1, sp, #20
 8001b68:	e9cd 3405 	strd	r3, r4, [sp, #20]
 8001b6c:	f000 fb22 	bl	80021b4 <HAL_GPIO_Init>
 8001b70:	2304      	movs	r3, #4
 8001b72:	4837      	ldr	r0, [pc, #220]	@ (8001c50 <main+0x1e4>)
 8001b74:	a905      	add	r1, sp, #20
 8001b76:	e9cd 3505 	strd	r3, r5, [sp, #20]
 8001b7a:	e9cd 4407 	strd	r4, r4, [sp, #28]
 8001b7e:	f000 fb19 	bl	80021b4 <HAL_GPIO_Init>
 8001b82:	2340      	movs	r3, #64	@ 0x40
 8001b84:	e9cd 3505 	strd	r3, r5, [sp, #20]
 8001b88:	4832      	ldr	r0, [pc, #200]	@ (8001c54 <main+0x1e8>)
 8001b8a:	9407      	str	r4, [sp, #28]
 8001b8c:	2302      	movs	r3, #2
 8001b8e:	a905      	add	r1, sp, #20
 8001b90:	9308      	str	r3, [sp, #32]
 8001b92:	f000 fb0f 	bl	80021b4 <HAL_GPIO_Init>
 8001b96:	4830      	ldr	r0, [pc, #192]	@ (8001c58 <main+0x1ec>)
 8001b98:	f8df e0dc 	ldr.w	lr, [pc, #220]	@ 8001c78 <main+0x20c>
 8001b9c:	6104      	str	r4, [r0, #16]
 8001b9e:	f44f 33e1 	mov.w	r3, #115200	@ 0x1c200
 8001ba2:	e9c0 e300 	strd	lr, r3, [r0]
 8001ba6:	230c      	movs	r3, #12
 8001ba8:	e9c0 3405 	strd	r3, r4, [r0, #20]
 8001bac:	e9c0 4402 	strd	r4, r4, [r0, #8]
 8001bb0:	61c4      	str	r4, [r0, #28]
 8001bb2:	f001 fd0b 	bl	80035cc <HAL_UART_Init>
 8001bb6:	4603      	mov	r3, r0
 8001bb8:	b108      	cbz	r0, 8001bbe <main+0x152>
 8001bba:	b672      	cpsid	i
 8001bbc:	e7fe      	b.n	8001bbc <main+0x150>
 8001bbe:	4827      	ldr	r0, [pc, #156]	@ (8001c5c <main+0x1f0>)
 8001bc0:	4d27      	ldr	r5, [pc, #156]	@ (8001c60 <main+0x1f4>)
 8001bc2:	6283      	str	r3, [r0, #40]	@ 0x28
 8001bc4:	f44f 7282 	mov.w	r2, #260	@ 0x104
 8001bc8:	e9c0 5200 	strd	r5, r2, [r0]
 8001bcc:	e9c0 3302 	strd	r3, r3, [r0, #8]
 8001bd0:	e9c0 3304 	strd	r3, r3, [r0, #16]
 8001bd4:	e9c0 3308 	strd	r3, r3, [r0, #32]
 8001bd8:	f44f 7c00 	mov.w	ip, #512	@ 0x200
 8001bdc:	230a      	movs	r3, #10
 8001bde:	2228      	movs	r2, #40	@ 0x28
 8001be0:	62c3      	str	r3, [r0, #44]	@ 0x2c
 8001be2:	e9c0 c206 	strd	ip, r2, [r0, #24]
 8001be6:	f001 f819 	bl	8002c1c <HAL_SPI_Init>
 8001bea:	4603      	mov	r3, r0
 8001bec:	b108      	cbz	r0, 8001bf2 <main+0x186>
 8001bee:	b672      	cpsid	i
 8001bf0:	e7fe      	b.n	8001bf0 <main+0x184>
 8001bf2:	481c      	ldr	r0, [pc, #112]	@ (8001c64 <main+0x1f8>)
 8001bf4:	4c1c      	ldr	r4, [pc, #112]	@ (8001c68 <main+0x1fc>)
 8001bf6:	6183      	str	r3, [r0, #24]
 8001bf8:	2210      	movs	r2, #16
 8001bfa:	e9c0 3302 	strd	r3, r3, [r0, #8]
 8001bfe:	e9c0 3304 	strd	r3, r3, [r0, #16]
 8001c02:	8383      	strh	r3, [r0, #28]
 8001c04:	e9c0 4200 	strd	r4, r2, [r0]
 8001c08:	f000 fa06 	bl	8002018 <HAL_CAN_Init>
 8001c0c:	4603      	mov	r3, r0
 8001c0e:	b108      	cbz	r0, 8001c14 <main+0x1a8>
 8001c10:	b672      	cpsid	i
 8001c12:	e7fe      	b.n	8001c12 <main+0x1a6>
 8001c14:	4815      	ldr	r0, [pc, #84]	@ (8001c6c <main+0x200>)
 8001c16:	4a16      	ldr	r2, [pc, #88]	@ (8001c70 <main+0x204>)
 8001c18:	4916      	ldr	r1, [pc, #88]	@ (8001c74 <main+0x208>)
 8001c1a:	6203      	str	r3, [r0, #32]
 8001c1c:	e9c0 1200 	strd	r1, r2, [r0]
 8001c20:	f44f 4280 	mov.w	r2, #16384	@ 0x4000
 8001c24:	e9c0 3302 	strd	r3, r3, [r0, #8]
 8001c28:	e9c0 2304 	strd	r2, r3, [r0, #16]
 8001c2c:	e9c0 3306 	strd	r3, r3, [r0, #24]
 8001c30:	f000 fb98 	bl	8002364 <HAL_I2C_Init>
 8001c34:	b108      	cbz	r0, 8001c3a <main+0x1ce>
 8001c36:	b672      	cpsid	i
 8001c38:	e7fe      	b.n	8001c38 <main+0x1cc>
 8001c3a:	f7ff fe1f 	bl	800187c <FEB_Main_Setup>
 8001c3e:	f7ff fe1f 	bl	8001880 <FEB_Task_ADBMS>
 8001c42:	e7fc      	b.n	8001c3e <main+0x1d2>
 8001c44:	40023800 	.word	0x40023800
 8001c48:	40020800 	.word	0x40020800
 8001c4c:	40020000 	.word	0x40020000
 8001c50:	40020c00 	.word	0x40020c00
 8001c54:	40020400 	.word	0x40020400
 8001c58:	20000608 	.word	0x20000608
 8001c5c:	20000650 	.word	0x20000650
 8001c60:	40013000 	.word	0x40013000
 8001c64:	200006fc 	.word	0x200006fc
 8001c68:	40006400 	.word	0x40006400
 8001c6c:	200006a8 	.word	0x200006a8
 8001c70:	000186a0 	.word	0x000186a0
 8001c74:	40005400 	.word	0x40005400
 8001c78:	40004400 	.word	0x40004400

08001c7c <HAL_TIM_PeriodElapsedCallback>:
 8001c7c:	6802      	ldr	r2, [r0, #0]
 8001c7e:	4b03      	ldr	r3, [pc, #12]	@ (8001c8c <HAL_TIM_PeriodElapsedCallback+0x10>)
 8001c80:	429a      	cmp	r2, r3
 8001c82:	d101      	bne.n	8001c88 <HAL_TIM_PeriodElapsedCallback+0xc>
 8001c84:	f000 b9a2 	b.w	8001fcc <HAL_IncTick>
 8001c88:	4770      	bx	lr
 8001c8a:	bf00      	nop
 8001c8c:	40010000 	.word	0x40010000

08001c90 <HAL_MspInit>:
 8001c90:	b082      	sub	sp, #8
 8001c92:	4b0c      	ldr	r3, [pc, #48]	@ (8001cc4 <HAL_MspInit+0x34>)
 8001c94:	2100      	movs	r1, #0
 8001c96:	9100      	str	r1, [sp, #0]
 8001c98:	6c5a      	ldr	r2, [r3, #68]	@ 0x44
 8001c9a:	f442 4280 	orr.w	r2, r2, #16384	@ 0x4000
 8001c9e:	645a      	str	r2, [r3, #68]	@ 0x44
 8001ca0:	6c5a      	ldr	r2, [r3, #68]	@ 0x44
 8001ca2:	f402 4280 	and.w	r2, r2, #16384	@ 0x4000
 8001ca6:	9200      	str	r2, [sp, #0]
 8001ca8:	9a00      	ldr	r2, [sp, #0]
 8001caa:	9101      	str	r1, [sp, #4]
 8001cac:	6c1a      	ldr	r2, [r3, #64]	@ 0x40
 8001cae:	f042 5280 	orr.w	r2, r2, #268435456	@ 0x10000000
 8001cb2:	641a      	str	r2, [r3, #64]	@ 0x40
 8001cb4:	6c1b      	ldr	r3, [r3, #64]	@ 0x40
 8001cb6:	f003 5380 	and.w	r3, r3, #268435456	@ 0x10000000
 8001cba:	9301      	str	r3, [sp, #4]
 8001cbc:	9b01      	ldr	r3, [sp, #4]
 8001cbe:	b002      	add	sp, #8
 8001cc0:	4770      	bx	lr
 8001cc2:	bf00      	nop
 8001cc4:	40023800 	.word	0x40023800

08001cc8 <HAL_CAN_MspInit>:
 8001cc8:	b510      	push	{r4, lr}
 8001cca:	4604      	mov	r4, r0
 8001ccc:	b088      	sub	sp, #32
 8001cce:	2214      	movs	r2, #20
 8001cd0:	2100      	movs	r1, #0
 8001cd2:	a803      	add	r0, sp, #12
 8001cd4:	f002 fd63 	bl	800479e <memset>
 8001cd8:	6822      	ldr	r2, [r4, #0]
 8001cda:	4b14      	ldr	r3, [pc, #80]	@ (8001d2c <HAL_CAN_MspInit+0x64>)
 8001cdc:	429a      	cmp	r2, r3
 8001cde:	d123      	bne.n	8001d28 <HAL_CAN_MspInit+0x60>
 8001ce0:	f503 33ea 	add.w	r3, r3, #119808	@ 0x1d400
 8001ce4:	2100      	movs	r1, #0
 8001ce6:	9101      	str	r1, [sp, #4]
 8001ce8:	6c1a      	ldr	r2, [r3, #64]	@ 0x40
 8001cea:	4811      	ldr	r0, [pc, #68]	@ (8001d30 <HAL_CAN_MspInit+0x68>)
 8001cec:	f042 7200 	orr.w	r2, r2, #33554432	@ 0x2000000
 8001cf0:	641a      	str	r2, [r3, #64]	@ 0x40
 8001cf2:	6c1a      	ldr	r2, [r3, #64]	@ 0x40
 8001cf4:	f002 7200 	and.w	r2, r2, #33554432	@ 0x2000000
 8001cf8:	9201      	str	r2, [sp, #4]
 8001cfa:	9a01      	ldr	r2, [sp, #4]
 8001cfc:	9102      	str	r1, [sp, #8]
 8001cfe:	6b1a      	ldr	r2, [r3, #48]	@ 0x30
 8001d00:	f042 0201 	orr.w	r2, r2, #1
 8001d04:	631a      	str	r2, [r3, #48]	@ 0x30
 8001d06:	6b1b      	ldr	r3, [r3, #48]	@ 0x30
 8001d08:	f003 0301 	and.w	r3, r3, #1
 8001d0c:	9302      	str	r3, [sp, #8]
 8001d0e:	9b02      	ldr	r3, [sp, #8]
 8001d10:	f44f 52c0 	mov.w	r2, #6144	@ 0x1800
 8001d14:	2302      	movs	r3, #2
 8001d16:	2103      	movs	r1, #3
 8001d18:	e9cd 2303 	strd	r2, r3, [sp, #12]
 8001d1c:	2309      	movs	r3, #9
 8001d1e:	e9cd 1306 	strd	r1, r3, [sp, #24]
 8001d22:	a903      	add	r1, sp, #12
 8001d24:	f000 fa46 	bl	80021b4 <HAL_GPIO_Init>
 8001d28:	b008      	add	sp, #32
 8001d2a:	bd10      	pop	{r4, pc}
 8001d2c:	40006400 	.word	0x40006400
 8001d30:	40020000 	.word	0x40020000

08001d34 <HAL_I2C_MspInit>:
 8001d34:	b530      	push	{r4, r5, lr}
 8001d36:	4604      	mov	r4, r0
 8001d38:	b089      	sub	sp, #36	@ 0x24
 8001d3a:	2214      	movs	r2, #20
 8001d3c:	2100      	movs	r1, #0
 8001d3e:	a803      	add	r0, sp, #12
 8001d40:	f002 fd2d 	bl	800479e <memset>
 8001d44:	6822      	ldr	r2, [r4, #0]
 8001d46:	4b14      	ldr	r3, [pc, #80]	@ (8001d98 <HAL_I2C_MspInit+0x64>)
 8001d48:	429a      	cmp	r2, r3
 8001d4a:	d122      	bne.n	8001d92 <HAL_I2C_MspInit+0x5e>
 8001d4c:	4c13      	ldr	r4, [pc, #76]	@ (8001d9c <HAL_I2C_MspInit+0x68>)
 8001d4e:	4814      	ldr	r0, [pc, #80]	@ (8001da0 <HAL_I2C_MspInit+0x6c>)
 8001d50:	2500      	movs	r5, #0
 8001d52:	9501      	str	r5, [sp, #4]
 8001d54:	6b23      	ldr	r3, [r4, #48]	@ 0x30
 8001d56:	f043 0302 	orr.w	r3, r3, #2
 8001d5a:	6323      	str	r3, [r4, #48]	@ 0x30
 8001d5c:	6b23      	ldr	r3, [r4, #48]	@ 0x30
 8001d5e:	f003 0302 	and.w	r3, r3, #2
 8001d62:	9301      	str	r3, [sp, #4]
 8001d64:	9b01      	ldr	r3, [sp, #4]
 8001d66:	f44f 7240 	mov.w	r2, #768	@ 0x300
 8001d6a:	2312      	movs	r3, #18
 8001d6c:	e9cd 2303 	strd	r2, r3, [sp, #12]
 8001d70:	2103      	movs	r1, #3
 8001d72:	2304      	movs	r3, #4
 8001d74:	e9cd 1306 	strd	r1, r3, [sp, #24]
 8001d78:	a903      	add	r1, sp, #12
 8001d7a:	f000 fa1b 	bl	80021b4 <HAL_GPIO_Init>
 8001d7e:	9502      	str	r5, [sp, #8]
 8001d80:	6c23      	ldr	r3, [r4, #64]	@ 0x40
 8001d82:	f443 1300 	orr.w	r3, r3, #2097152	@ 0x200000
 8001d86:	6423      	str	r3, [r4, #64]	@ 0x40
 8001d88:	6c23      	ldr	r3, [r4, #64]	@ 0x40
 8001d8a:	f403 1300 	and.w	r3, r3, #2097152	@ 0x200000
 8001d8e:	9302      	str	r3, [sp, #8]
 8001d90:	9b02      	ldr	r3, [sp, #8]
 8001d92:	b009      	add	sp, #36	@ 0x24
 8001d94:	bd30      	pop	{r4, r5, pc}
 8001d96:	bf00      	nop
 8001d98:	40005400 	.word	0x40005400
 8001d9c:	40023800 	.word	0x40023800
 8001da0:	40020400 	.word	0x40020400

08001da4 <HAL_SPI_MspInit>:
 8001da4:	b510      	push	{r4, lr}
 8001da6:	4604      	mov	r4, r0
 8001da8:	b088      	sub	sp, #32
 8001daa:	2214      	movs	r2, #20
 8001dac:	2100      	movs	r1, #0
 8001dae:	a803      	add	r0, sp, #12
 8001db0:	f002 fcf5 	bl	800479e <memset>
 8001db4:	6822      	ldr	r2, [r4, #0]
 8001db6:	4b14      	ldr	r3, [pc, #80]	@ (8001e08 <HAL_SPI_MspInit+0x64>)
 8001db8:	429a      	cmp	r2, r3
 8001dba:	d122      	bne.n	8001e02 <HAL_SPI_MspInit+0x5e>
 8001dbc:	f503 3384 	add.w	r3, r3, #67584	@ 0x10800
 8001dc0:	2100      	movs	r1, #0
 8001dc2:	9101      	str	r1, [sp, #4]
 8001dc4:	6c5a      	ldr	r2, [r3, #68]	@ 0x44
 8001dc6:	4811      	ldr	r0, [pc, #68]	@ (8001e0c <HAL_SPI_MspInit+0x68>)
 8001dc8:	f442 5280 	orr.w	r2, r2, #4096	@ 0x1000
 8001dcc:	645a      	str	r2, [r3, #68]	@ 0x44
 8001dce:	6c5a      	ldr	r2, [r3, #68]	@ 0x44
 8001dd0:	f402 5280 	and.w	r2, r2, #4096	@ 0x1000
 8001dd4:	9201      	str	r2, [sp, #4]
 8001dd6:	9a01      	ldr	r2, [sp, #4]
 8001dd8:	9102      	str	r1, [sp, #8]
 8001dda:	6b1a      	ldr	r2, [r3, #48]	@ 0x30
 8001ddc:	f042 0201 	orr.w	r2, r2, #1
 8001de0:	631a      	str	r2, [r3, #48]	@ 0x30
 8001de2:	6b1b      	ldr	r3, [r3, #48]	@ 0x30
 8001de4:	f003 0301 	and.w	r3, r3, #1
 8001de8:	9302      	str	r3, [sp, #8]
 8001dea:	9b02      	ldr	r3, [sp, #8]
 8001dec:	22e0      	movs	r2, #224	@ 0xe0
 8001dee:	2302      	movs	r3, #2
 8001df0:	2103      	movs	r1, #3
 8001df2:	e9cd 2303 	strd	r2, r3, [sp, #12]
 8001df6:	2305      	movs	r3, #5
 8001df8:	e9cd 1306 	strd	r1, r3, [sp, #24]
 8001dfc:	a903      	add	r1, sp, #12
 8001dfe:	f000 f9d9 	bl	80021b4 <HAL_GPIO_Init>
 8001e02:	b008      	add	sp, #32
 8001e04:	bd10      	pop	{r4, pc}
 8001e06:	bf00      	nop
 8001e08:	40013000 	.word	0x40013000
 8001e0c:	40020000 	.word	0x40020000

08001e10 <HAL_UART_MspInit>:
 8001e10:	b510      	push	{r4, lr}
 8001e12:	4604      	mov	r4, r0
 8001e14:	b088      	sub	sp, #32
 8001e16:	2214      	movs	r2, #20
 8001e18:	2100      	movs	r1, #0
 8001e1a:	a803      	add	r0, sp, #12
 8001e1c:	f002 fcbf 	bl	800479e <memset>
 8001e20:	6822      	ldr	r2, [r4, #0]
 8001e22:	4b14      	ldr	r3, [pc, #80]	@ (8001e74 <HAL_UART_MspInit+0x64>)
 8001e24:	429a      	cmp	r2, r3
 8001e26:	d122      	bne.n	8001e6e <HAL_UART_MspInit+0x5e>
 8001e28:	f503 33fa 	add.w	r3, r3, #128000	@ 0x1f400
 8001e2c:	2100      	movs	r1, #0
 8001e2e:	9101      	str	r1, [sp, #4]
 8001e30:	6c1a      	ldr	r2, [r3, #64]	@ 0x40
 8001e32:	4811      	ldr	r0, [pc, #68]	@ (8001e78 <HAL_UART_MspInit+0x68>)
 8001e34:	f442 3200 	orr.w	r2, r2, #131072	@ 0x20000
 8001e38:	641a      	str	r2, [r3, #64]	@ 0x40
 8001e3a:	6c1a      	ldr	r2, [r3, #64]	@ 0x40
 8001e3c:	f402 3200 	and.w	r2, r2, #131072	@ 0x20000
 8001e40:	9201      	str	r2, [sp, #4]
 8001e42:	9a01      	ldr	r2, [sp, #4]
 8001e44:	9102      	str	r1, [sp, #8]
 8001e46:	6b1a      	ldr	r2, [r3, #48]	@ 0x30
 8001e48:	f042 0201 	orr.w	r2, r2, #1
 8001e4c:	631a      	str	r2, [r3, #48]	@ 0x30
 8001e4e:	6b1b      	ldr	r3, [r3, #48]	@ 0x30
 8001e50:	f003 0301 	and.w	r3, r3, #1
 8001e54:	9302      	str	r3, [sp, #8]
 8001e56:	9b02      	ldr	r3, [sp, #8]
 8001e58:	220c      	movs	r2, #12
 8001e5a:	2302      	movs	r3, #2
 8001e5c:	2103      	movs	r1, #3
 8001e5e:	e9cd 2303 	strd	r2, r3, [sp, #12]
 8001e62:	2307      	movs	r3, #7
 8001e64:	e9cd 1306 	strd	r1, r3, [sp, #24]
 8001e68:	a903      	add	r1, sp, #12
 8001e6a:	f000 f9a3 	bl	80021b4 <HAL_GPIO_Init>
 8001e6e:	b008      	add	sp, #32
 8001e70:	bd10      	pop	{r4, pc}
 8001e72:	bf00      	nop
 8001e74:	40004400 	.word	0x40004400
 8001e78:	40020000 	.word	0x40020000

08001e7c <HAL_InitTick>:
 8001e7c:	b570      	push	{r4, r5, r6, lr}
 8001e7e:	b088      	sub	sp, #32
 8001e80:	2400      	movs	r4, #0
 8001e82:	4b1e      	ldr	r3, [pc, #120]	@ (8001efc <HAL_InitTick+0x80>)
 8001e84:	9402      	str	r4, [sp, #8]
 8001e86:	6c5a      	ldr	r2, [r3, #68]	@ 0x44
 8001e88:	4d1d      	ldr	r5, [pc, #116]	@ (8001f00 <HAL_InitTick+0x84>)
 8001e8a:	f042 0201 	orr.w	r2, r2, #1
 8001e8e:	645a      	str	r2, [r3, #68]	@ 0x44
 8001e90:	6c5b      	ldr	r3, [r3, #68]	@ 0x44
 8001e92:	f003 0301 	and.w	r3, r3, #1
 8001e96:	a901      	add	r1, sp, #4
 8001e98:	9302      	str	r3, [sp, #8]
 8001e9a:	4606      	mov	r6, r0
 8001e9c:	a803      	add	r0, sp, #12
 8001e9e:	9b02      	ldr	r3, [sp, #8]
 8001ea0:	f000 fbc2 	bl	8002628 <HAL_RCC_GetClockConfig>
 8001ea4:	f000 fbb0 	bl	8002608 <HAL_RCC_GetPCLK2Freq>
 8001ea8:	4b16      	ldr	r3, [pc, #88]	@ (8001f04 <HAL_InitTick+0x88>)
 8001eaa:	602b      	str	r3, [r5, #0]
 8001eac:	f240 33e7 	movw	r3, #999	@ 0x3e7
 8001eb0:	4a15      	ldr	r2, [pc, #84]	@ (8001f08 <HAL_InitTick+0x8c>)
 8001eb2:	60eb      	str	r3, [r5, #12]
 8001eb4:	0043      	lsls	r3, r0, #1
 8001eb6:	4628      	mov	r0, r5
 8001eb8:	fbb3 f3f2 	udiv	r3, r3, r2
 8001ebc:	3b01      	subs	r3, #1
 8001ebe:	612c      	str	r4, [r5, #16]
 8001ec0:	60ac      	str	r4, [r5, #8]
 8001ec2:	61ac      	str	r4, [r5, #24]
 8001ec4:	606b      	str	r3, [r5, #4]
 8001ec6:	f001 fa95 	bl	80033f4 <HAL_TIM_Base_Init>
 8001eca:	4604      	mov	r4, r0
 8001ecc:	b980      	cbnz	r0, 8001ef0 <HAL_InitTick+0x74>
 8001ece:	4628      	mov	r0, r5
 8001ed0:	f001 f952 	bl	8003178 <HAL_TIM_Base_Start_IT>
 8001ed4:	4604      	mov	r4, r0
 8001ed6:	b958      	cbnz	r0, 8001ef0 <HAL_InitTick+0x74>
 8001ed8:	2019      	movs	r0, #25
 8001eda:	f000 f95d 	bl	8002198 <HAL_NVIC_EnableIRQ>
 8001ede:	2e0f      	cmp	r6, #15
 8001ee0:	d809      	bhi.n	8001ef6 <HAL_InitTick+0x7a>
 8001ee2:	4622      	mov	r2, r4
 8001ee4:	4631      	mov	r1, r6
 8001ee6:	2019      	movs	r0, #25
 8001ee8:	f000 f924 	bl	8002134 <HAL_NVIC_SetPriority>
 8001eec:	4b07      	ldr	r3, [pc, #28]	@ (8001f0c <HAL_InitTick+0x90>)
 8001eee:	601e      	str	r6, [r3, #0]
 8001ef0:	4620      	mov	r0, r4
 8001ef2:	b008      	add	sp, #32
 8001ef4:	bd70      	pop	{r4, r5, r6, pc}
 8001ef6:	2401      	movs	r4, #1
 8001ef8:	e7fa      	b.n	8001ef0 <HAL_InitTick+0x74>
 8001efa:	bf00      	nop
 8001efc:	40023800 	.word	0x40023800
 8001f00:	20000724 	.word	0x20000724
 8001f04:	40010000 	.word	0x40010000
 8001f08:	000f4240 	.word	0x000f4240
 8001f0c:	2000000c 	.word	0x2000000c

08001f10 <NMI_Handler>:
 8001f10:	e7fe      	b.n	8001f10 <NMI_Handler>

08001f12 <HardFault_Handler>:
 8001f12:	e7fe      	b.n	8001f12 <HardFault_Handler>

08001f14 <MemManage_Handler>:
 8001f14:	e7fe      	b.n	8001f14 <MemManage_Handler>

08001f16 <BusFault_Handler>:
 8001f16:	e7fe      	b.n	8001f16 <BusFault_Handler>

08001f18 <UsageFault_Handler>:
 8001f18:	e7fe      	b.n	8001f18 <UsageFault_Handler>

08001f1a <SVC_Handler>:
 8001f1a:	4770      	bx	lr

08001f1c <DebugMon_Handler>:
 8001f1c:	4770      	bx	lr

08001f1e <PendSV_Handler>:
 8001f1e:	4770      	bx	lr

08001f20 <SysTick_Handler>:
 8001f20:	4770      	bx	lr
	...

08001f24 <TIM1_UP_TIM10_IRQHandler>:
 8001f24:	4801      	ldr	r0, [pc, #4]	@ (8001f2c <TIM1_UP_TIM10_IRQHandler+0x8>)
 8001f26:	f001 b965 	b.w	80031f4 <HAL_TIM_IRQHandler>
 8001f2a:	bf00      	nop
 8001f2c:	20000724 	.word	0x20000724

08001f30 <SystemInit>:
 8001f30:	4a03      	ldr	r2, [pc, #12]	@ (8001f40 <SystemInit+0x10>)
 8001f32:	f8d2 3088 	ldr.w	r3, [r2, #136]	@ 0x88
 8001f36:	f443 0370 	orr.w	r3, r3, #15728640	@ 0xf00000
 8001f3a:	f8c2 3088 	str.w	r3, [r2, #136]	@ 0x88
 8001f3e:	4770      	bx	lr
 8001f40:	e000ed00 	.word	0xe000ed00

08001f44 <Reset_Handler>:
 8001f44:	f8df d034 	ldr.w	sp, [pc, #52]	@ 8001f7c <LoopFillZerobss+0x12>
 8001f48:	480d      	ldr	r0, [pc, #52]	@ (8001f80 <LoopFillZerobss+0x16>)
 8001f4a:	490e      	ldr	r1, [pc, #56]	@ (8001f84 <LoopFillZerobss+0x1a>)
 8001f4c:	4a0e      	ldr	r2, [pc, #56]	@ (8001f88 <LoopFillZerobss+0x1e>)
 8001f4e:	2300      	movs	r3, #0
 8001f50:	e002      	b.n	8001f58 <LoopCopyDataInit>

08001f52 <CopyDataInit>:
 8001f52:	58d4      	ldr	r4, [r2, r3]
 8001f54:	50c4      	str	r4, [r0, r3]
 8001f56:	3304      	adds	r3, #4

08001f58 <LoopCopyDataInit>:
 8001f58:	18c4      	adds	r4, r0, r3
 8001f5a:	428c      	cmp	r4, r1
 8001f5c:	d3f9      	bcc.n	8001f52 <CopyDataInit>
 8001f5e:	4a0b      	ldr	r2, [pc, #44]	@ (8001f8c <LoopFillZerobss+0x22>)
 8001f60:	4c0b      	ldr	r4, [pc, #44]	@ (8001f90 <LoopFillZerobss+0x26>)
 8001f62:	2300      	movs	r3, #0
 8001f64:	e001      	b.n	8001f6a <LoopFillZerobss>

08001f66 <FillZerobss>:
 8001f66:	6013      	str	r3, [r2, #0]
 8001f68:	3204      	adds	r2, #4

08001f6a <LoopFillZerobss>:
 8001f6a:	42a2      	cmp	r2, r4
 8001f6c:	d3fb      	bcc.n	8001f66 <FillZerobss>
 8001f6e:	f7ff ffdf 	bl	8001f30 <SystemInit>
 8001f72:	f002 fc77 	bl	8004864 <__libc_init_array>
 8001f76:	f7ff fd79 	bl	8001a6c <main>
 8001f7a:	4770      	bx	lr
 8001f7c:	20020000 	.word	0x20020000
 8001f80:	20000000 	.word	0x20000000
 8001f84:	200001d8 	.word	0x200001d8
 8001f88:	08008578 	.word	0x08008578
 8001f8c:	200001d8 	.word	0x200001d8
 8001f90:	200008c0 	.word	0x200008c0

08001f94 <ADC_IRQHandler>:
 8001f94:	e7fe      	b.n	8001f94 <ADC_IRQHandler>
	...

08001f98 <HAL_Init>:
 8001f98:	b508      	push	{r3, lr}
 8001f9a:	4b0b      	ldr	r3, [pc, #44]	@ (8001fc8 <HAL_Init+0x30>)
 8001f9c:	681a      	ldr	r2, [r3, #0]
 8001f9e:	f442 7200 	orr.w	r2, r2, #512	@ 0x200
 8001fa2:	601a      	str	r2, [r3, #0]
 8001fa4:	681a      	ldr	r2, [r3, #0]
 8001fa6:	f442 6280 	orr.w	r2, r2, #1024	@ 0x400
 8001faa:	601a      	str	r2, [r3, #0]
 8001fac:	681a      	ldr	r2, [r3, #0]
 8001fae:	f442 7280 	orr.w	r2, r2, #256	@ 0x100
 8001fb2:	601a      	str	r2, [r3, #0]
 8001fb4:	2003      	movs	r0, #3
 8001fb6:	f000 f8ab 	bl	8002110 <HAL_NVIC_SetPriorityGrouping>
 8001fba:	200f      	movs	r0, #15
 8001fbc:	f7ff ff5e 	bl	8001e7c <HAL_InitTick>
 8001fc0:	f7ff fe66 	bl	8001c90 <HAL_MspInit>
 8001fc4:	2000      	movs	r0, #0
 8001fc6:	bd08      	pop	{r3, pc}
 8001fc8:	40023c00 	.word	0x40023c00

08001fcc <HAL_IncTick>:
 8001fcc:	4a03      	ldr	r2, [pc, #12]	@ (8001fdc <HAL_IncTick+0x10>)
 8001fce:	4b04      	ldr	r3, [pc, #16]	@ (8001fe0 <HAL_IncTick+0x14>)
 8001fd0:	6811      	ldr	r1, [r2, #0]
 8001fd2:	781b      	ldrb	r3, [r3, #0]
 8001fd4:	440b      	add	r3, r1
 8001fd6:	6013      	str	r3, [r2, #0]
 8001fd8:	4770      	bx	lr
 8001fda:	bf00      	nop
 8001fdc:	2000076c 	.word	0x2000076c
 8001fe0:	20000008 	.word	0x20000008

08001fe4 <HAL_GetTick>:
 8001fe4:	4b01      	ldr	r3, [pc, #4]	@ (8001fec <HAL_GetTick+0x8>)
 8001fe6:	6818      	ldr	r0, [r3, #0]
 8001fe8:	4770      	bx	lr
 8001fea:	bf00      	nop
 8001fec:	2000076c 	.word	0x2000076c

08001ff0 <HAL_Delay>:
 8001ff0:	b538      	push	{r3, r4, r5, lr}
 8001ff2:	4604      	mov	r4, r0
 8001ff4:	f7ff fff6 	bl	8001fe4 <HAL_GetTick>
 8001ff8:	1c63      	adds	r3, r4, #1
 8001ffa:	bf1c      	itt	ne
 8001ffc:	4b05      	ldrne	r3, [pc, #20]	@ (8002014 <HAL_Delay+0x24>)
 8001ffe:	781b      	ldrbne	r3, [r3, #0]
 8002000:	4605      	mov	r5, r0
 8002002:	bf18      	it	ne
 8002004:	18e4      	addne	r4, r4, r3
 8002006:	f7ff ffed 	bl	8001fe4 <HAL_GetTick>
 800200a:	1b43      	subs	r3, r0, r5
 800200c:	42a3      	cmp	r3, r4
 800200e:	d3fa      	bcc.n	8002006 <HAL_Delay+0x16>
 8002010:	bd38      	pop	{r3, r4, r5, pc}
 8002012:	bf00      	nop
 8002014:	20000008 	.word	0x20000008

08002018 <HAL_CAN_Init>:
 8002018:	b538      	push	{r3, r4, r5, lr}
 800201a:	4604      	mov	r4, r0
 800201c:	2800      	cmp	r0, #0
 800201e:	d06e      	beq.n	80020fe <HAL_CAN_Init+0xe6>
 8002020:	f890 3020 	ldrb.w	r3, [r0, #32]
 8002024:	b90b      	cbnz	r3, 800202a <HAL_CAN_Init+0x12>
 8002026:	f7ff fe4f 	bl	8001cc8 <HAL_CAN_MspInit>
 800202a:	6822      	ldr	r2, [r4, #0]
 800202c:	6813      	ldr	r3, [r2, #0]
 800202e:	f043 0301 	orr.w	r3, r3, #1
 8002032:	6013      	str	r3, [r2, #0]
 8002034:	f7ff ffd6 	bl	8001fe4 <HAL_GetTick>
 8002038:	4605      	mov	r5, r0
 800203a:	6823      	ldr	r3, [r4, #0]
 800203c:	685a      	ldr	r2, [r3, #4]
 800203e:	07d1      	lsls	r1, r2, #31
 8002040:	d551      	bpl.n	80020e6 <HAL_CAN_Init+0xce>
 8002042:	681a      	ldr	r2, [r3, #0]
 8002044:	f022 0202 	bic.w	r2, r2, #2
 8002048:	601a      	str	r2, [r3, #0]
 800204a:	f7ff ffcb 	bl	8001fe4 <HAL_GetTick>
 800204e:	4605      	mov	r5, r0
 8002050:	6823      	ldr	r3, [r4, #0]
 8002052:	685a      	ldr	r2, [r3, #4]
 8002054:	0792      	lsls	r2, r2, #30
 8002056:	d454      	bmi.n	8002102 <HAL_CAN_Init+0xea>
 8002058:	7e22      	ldrb	r2, [r4, #24]
 800205a:	2a01      	cmp	r2, #1
 800205c:	681a      	ldr	r2, [r3, #0]
 800205e:	bf0c      	ite	eq
 8002060:	f042 0280 	orreq.w	r2, r2, #128	@ 0x80
 8002064:	f022 0280 	bicne.w	r2, r2, #128	@ 0x80
 8002068:	601a      	str	r2, [r3, #0]
 800206a:	7e62      	ldrb	r2, [r4, #25]
 800206c:	2a01      	cmp	r2, #1
 800206e:	681a      	ldr	r2, [r3, #0]
 8002070:	bf0c      	ite	eq
 8002072:	f042 0240 	orreq.w	r2, r2, #64	@ 0x40
 8002076:	f022 0240 	bicne.w	r2, r2, #64	@ 0x40
 800207a:	601a      	str	r2, [r3, #0]
 800207c:	7ea2      	ldrb	r2, [r4, #26]
 800207e:	2a01      	cmp	r2, #1
 8002080:	681a      	ldr	r2, [r3, #0]
 8002082:	bf0c      	ite	eq
 8002084:	f042 0220 	orreq.w	r2, r2, #32
 8002088:	f022 0220 	bicne.w	r2, r2, #32
 800208c:	601a      	str	r2, [r3, #0]
 800208e:	7ee2      	ldrb	r2, [r4, #27]
 8002090:	2a01      	cmp	r2, #1
 8002092:	681a      	ldr	r2, [r3, #0]
 8002094:	bf0c      	ite	eq
 8002096:	f022 0210 	biceq.w	r2, r2, #16
 800209a:	f042 0210 	orrne.w	r2, r2, #16
 800209e:	601a      	str	r2, [r3, #0]
 80020a0:	7f22      	ldrb	r2, [r4, #28]
 80020a2:	2a01      	cmp	r2, #1
 80020a4:	681a      	ldr	r2, [r3, #0]
 80020a6:	bf0c      	ite	eq
 80020a8:	f042 0208 	orreq.w	r2, r2, #8
 80020ac:	f022 0208 	bicne.w	r2, r2, #8
 80020b0:	601a      	str	r2, [r3, #0]
 80020b2:	7f62      	ldrb	r2, [r4, #29]
 80020b4:	2a01      	cmp	r2, #1
 80020b6:	681a      	ldr	r2, [r3, #0]
 80020b8:	bf0c      	ite	eq
 80020ba:	f042 0204 	orreq.w	r2, r2, #4
 80020be:	f022 0204 	bicne.w	r2, r2, #4
 80020c2:	601a      	str	r2, [r3, #0]
 80020c4:	e9d4 2102 	ldrd	r2, r1, [r4, #8]
 80020c8:	430a      	orrs	r2, r1
 80020ca:	6921      	ldr	r1, [r4, #16]
 80020cc:	430a      	orrs	r2, r1
 80020ce:	6961      	ldr	r1, [r4, #20]
 80020d0:	430a      	orrs	r2, r1
 80020d2:	6861      	ldr	r1, [r4, #4]
 80020d4:	3901      	subs	r1, #1
 80020d6:	430a      	orrs	r2, r1
 80020d8:	61da      	str	r2, [r3, #28]
 80020da:	2000      	movs	r0, #0
 80020dc:	2301      	movs	r3, #1
 80020de:	6260      	str	r0, [r4, #36]	@ 0x24
 80020e0:	f884 3020 	strb.w	r3, [r4, #32]
 80020e4:	e00c      	b.n	8002100 <HAL_CAN_Init+0xe8>
 80020e6:	f7ff ff7d 	bl	8001fe4 <HAL_GetTick>
 80020ea:	1b40      	subs	r0, r0, r5
 80020ec:	280a      	cmp	r0, #10
 80020ee:	d9a4      	bls.n	800203a <HAL_CAN_Init+0x22>
 80020f0:	6a63      	ldr	r3, [r4, #36]	@ 0x24
 80020f2:	f443 3300 	orr.w	r3, r3, #131072	@ 0x20000
 80020f6:	6263      	str	r3, [r4, #36]	@ 0x24
 80020f8:	2305      	movs	r3, #5
 80020fa:	f884 3020 	strb.w	r3, [r4, #32]
 80020fe:	2001      	movs	r0, #1
 8002100:	bd38      	pop	{r3, r4, r5, pc}
 8002102:	f7ff ff6f 	bl	8001fe4 <HAL_GetTick>
 8002106:	1b40      	subs	r0, r0, r5
 8002108:	280a      	cmp	r0, #10
 800210a:	d9a1      	bls.n	8002050 <HAL_CAN_Init+0x38>
 800210c:	e7f0      	b.n	80020f0 <HAL_CAN_Init+0xd8>
	...

08002110 <HAL_NVIC_SetPriorityGrouping>:
 8002110:	4907      	ldr	r1, [pc, #28]	@ (8002130 <HAL_NVIC_SetPriorityGrouping+0x20>)
 8002112:	68ca      	ldr	r2, [r1, #12]
 8002114:	f422 62e0 	bic.w	r2, r2, #1792	@ 0x700
 8002118:	0203      	lsls	r3, r0, #8
 800211a:	0412      	lsls	r2, r2, #16
 800211c:	f403 63e0 	and.w	r3, r3, #1792	@ 0x700
 8002120:	0c12      	lsrs	r2, r2, #16
 8002122:	4313      	orrs	r3, r2
 8002124:	f043 63bf 	orr.w	r3, r3, #100139008	@ 0x5f80000
 8002128:	f443 3300 	orr.w	r3, r3, #131072	@ 0x20000
 800212c:	60cb      	str	r3, [r1, #12]
 800212e:	4770      	bx	lr
 8002130:	e000ed00 	.word	0xe000ed00

08002134 <HAL_NVIC_SetPriority>:
 8002134:	4b16      	ldr	r3, [pc, #88]	@ (8002190 <HAL_NVIC_SetPriority+0x5c>)
 8002136:	b530      	push	{r4, r5, lr}
 8002138:	68dc      	ldr	r4, [r3, #12]
 800213a:	f3c4 2402 	ubfx	r4, r4, #8, #3
 800213e:	f1c4 0307 	rsb	r3, r4, #7
 8002142:	1d25      	adds	r5, r4, #4
 8002144:	2b04      	cmp	r3, #4
 8002146:	bf28      	it	cs
 8002148:	2304      	movcs	r3, #4
 800214a:	2d06      	cmp	r5, #6
 800214c:	f04f 35ff 	mov.w	r5, #4294967295
 8002150:	bf8c      	ite	hi
 8002152:	3c03      	subhi	r4, #3
 8002154:	2400      	movls	r4, #0
 8002156:	fa05 f303 	lsl.w	r3, r5, r3
 800215a:	ea21 0303 	bic.w	r3, r1, r3
 800215e:	40a5      	lsls	r5, r4
 8002160:	ea22 0205 	bic.w	r2, r2, r5
 8002164:	40a3      	lsls	r3, r4
 8002166:	2800      	cmp	r0, #0
 8002168:	ea43 0302 	orr.w	r3, r3, r2
 800216c:	bfac      	ite	ge
 800216e:	f100 4060 	addge.w	r0, r0, #3758096384	@ 0xe0000000
 8002172:	4a08      	ldrlt	r2, [pc, #32]	@ (8002194 <HAL_NVIC_SetPriority+0x60>)
 8002174:	ea4f 1303 	mov.w	r3, r3, lsl #4
 8002178:	bfb8      	it	lt
 800217a:	f000 000f 	andlt.w	r0, r0, #15
 800217e:	b2db      	uxtb	r3, r3
 8002180:	bfaa      	itet	ge
 8002182:	f500 4061 	addge.w	r0, r0, #57600	@ 0xe100
 8002186:	5413      	strblt	r3, [r2, r0]
 8002188:	f880 3300 	strbge.w	r3, [r0, #768]	@ 0x300
 800218c:	bd30      	pop	{r4, r5, pc}
 800218e:	bf00      	nop
 8002190:	e000ed00 	.word	0xe000ed00
 8002194:	e000ed14 	.word	0xe000ed14

08002198 <HAL_NVIC_EnableIRQ>:
 8002198:	2800      	cmp	r0, #0
 800219a:	db07      	blt.n	80021ac <HAL_NVIC_EnableIRQ+0x14>
 800219c:	4a04      	ldr	r2, [pc, #16]	@ (80021b0 <HAL_NVIC_EnableIRQ+0x18>)
 800219e:	0941      	lsrs	r1, r0, #5
 80021a0:	2301      	movs	r3, #1
 80021a2:	f000 001f 	and.w	r0, r0, #31
 80021a6:	4083      	lsls	r3, r0
 80021a8:	f842 3021 	str.w	r3, [r2, r1, lsl #2]
 80021ac:	4770      	bx	lr
 80021ae:	bf00      	nop
 80021b0:	e000e100 	.word	0xe000e100

080021b4 <HAL_GPIO_Init>:
 80021b4:	e92d 4ff7 	stmdb	sp!, {r0, r1, r2, r4, r5, r6, r7, r8, r9, sl, fp, lr}
 80021b8:	f8df 9198 	ldr.w	r9, [pc, #408]	@ 8002354 <HAL_GPIO_Init+0x1a0>
 80021bc:	4a63      	ldr	r2, [pc, #396]	@ (800234c <HAL_GPIO_Init+0x198>)
 80021be:	2300      	movs	r3, #0
 80021c0:	680d      	ldr	r5, [r1, #0]
 80021c2:	2401      	movs	r4, #1
 80021c4:	409c      	lsls	r4, r3
 80021c6:	ea04 0605 	and.w	r6, r4, r5
 80021ca:	43ac      	bics	r4, r5
 80021cc:	f040 80ab 	bne.w	8002326 <HAL_GPIO_Init+0x172>
 80021d0:	684d      	ldr	r5, [r1, #4]
 80021d2:	2703      	movs	r7, #3
 80021d4:	f005 0403 	and.w	r4, r5, #3
 80021d8:	ea4f 0843 	mov.w	r8, r3, lsl #1
 80021dc:	fa07 fc08 	lsl.w	ip, r7, r8
 80021e0:	1e67      	subs	r7, r4, #1
 80021e2:	2f01      	cmp	r7, #1
 80021e4:	ea6f 0c0c 	mvn.w	ip, ip
 80021e8:	d834      	bhi.n	8002254 <HAL_GPIO_Init+0xa0>
 80021ea:	6887      	ldr	r7, [r0, #8]
 80021ec:	ea07 0e0c 	and.w	lr, r7, ip
 80021f0:	68cf      	ldr	r7, [r1, #12]
 80021f2:	fa07 f708 	lsl.w	r7, r7, r8
 80021f6:	ea47 070e 	orr.w	r7, r7, lr
 80021fa:	6087      	str	r7, [r0, #8]
 80021fc:	6847      	ldr	r7, [r0, #4]
 80021fe:	ea27 0e06 	bic.w	lr, r7, r6
 8002202:	f3c5 1700 	ubfx	r7, r5, #4, #1
 8002206:	409f      	lsls	r7, r3
 8002208:	ea47 070e 	orr.w	r7, r7, lr
 800220c:	6047      	str	r7, [r0, #4]
 800220e:	68c7      	ldr	r7, [r0, #12]
 8002210:	ea07 0e0c 	and.w	lr, r7, ip
 8002214:	688f      	ldr	r7, [r1, #8]
 8002216:	fa07 f708 	lsl.w	r7, r7, r8
 800221a:	ea47 070e 	orr.w	r7, r7, lr
 800221e:	2c02      	cmp	r4, #2
 8002220:	60c7      	str	r7, [r0, #12]
 8002222:	d119      	bne.n	8002258 <HAL_GPIO_Init+0xa4>
 8002224:	ea4f 0ad3 	mov.w	sl, r3, lsr #3
 8002228:	eb00 0a8a 	add.w	sl, r0, sl, lsl #2
 800222c:	f003 0b07 	and.w	fp, r3, #7
 8002230:	f8da 7020 	ldr.w	r7, [sl, #32]
 8002234:	ea4f 0b8b 	mov.w	fp, fp, lsl #2
 8002238:	f04f 0e0f 	mov.w	lr, #15
 800223c:	fa0e fe0b 	lsl.w	lr, lr, fp
 8002240:	ea27 0e0e 	bic.w	lr, r7, lr
 8002244:	690f      	ldr	r7, [r1, #16]
 8002246:	fa07 f70b 	lsl.w	r7, r7, fp
 800224a:	ea47 070e 	orr.w	r7, r7, lr
 800224e:	f8ca 7020 	str.w	r7, [sl, #32]
 8002252:	e001      	b.n	8002258 <HAL_GPIO_Init+0xa4>
 8002254:	2c03      	cmp	r4, #3
 8002256:	d1da      	bne.n	800220e <HAL_GPIO_Init+0x5a>
 8002258:	6807      	ldr	r7, [r0, #0]
 800225a:	fa04 f408 	lsl.w	r4, r4, r8
 800225e:	ea07 070c 	and.w	r7, r7, ip
 8002262:	433c      	orrs	r4, r7
 8002264:	f415 3f40 	tst.w	r5, #196608	@ 0x30000
 8002268:	6004      	str	r4, [r0, #0]
 800226a:	d05c      	beq.n	8002326 <HAL_GPIO_Init+0x172>
 800226c:	2400      	movs	r4, #0
 800226e:	9401      	str	r4, [sp, #4]
 8002270:	f8d9 4044 	ldr.w	r4, [r9, #68]	@ 0x44
 8002274:	f444 4480 	orr.w	r4, r4, #16384	@ 0x4000
 8002278:	f8c9 4044 	str.w	r4, [r9, #68]	@ 0x44
 800227c:	f8d9 4044 	ldr.w	r4, [r9, #68]	@ 0x44
 8002280:	f023 0703 	bic.w	r7, r3, #3
 8002284:	f107 4780 	add.w	r7, r7, #1073741824	@ 0x40000000
 8002288:	f404 4480 	and.w	r4, r4, #16384	@ 0x4000
 800228c:	f507 379c 	add.w	r7, r7, #79872	@ 0x13800
 8002290:	9401      	str	r4, [sp, #4]
 8002292:	f003 0c03 	and.w	ip, r3, #3
 8002296:	9c01      	ldr	r4, [sp, #4]
 8002298:	f8d7 e008 	ldr.w	lr, [r7, #8]
 800229c:	ea4f 0c8c 	mov.w	ip, ip, lsl #2
 80022a0:	240f      	movs	r4, #15
 80022a2:	fa04 f40c 	lsl.w	r4, r4, ip
 80022a6:	ea2e 0e04 	bic.w	lr, lr, r4
 80022aa:	4c29      	ldr	r4, [pc, #164]	@ (8002350 <HAL_GPIO_Init+0x19c>)
 80022ac:	42a0      	cmp	r0, r4
 80022ae:	d041      	beq.n	8002334 <HAL_GPIO_Init+0x180>
 80022b0:	f504 6480 	add.w	r4, r4, #1024	@ 0x400
 80022b4:	42a0      	cmp	r0, r4
 80022b6:	d03f      	beq.n	8002338 <HAL_GPIO_Init+0x184>
 80022b8:	f504 6480 	add.w	r4, r4, #1024	@ 0x400
 80022bc:	42a0      	cmp	r0, r4
 80022be:	d03d      	beq.n	800233c <HAL_GPIO_Init+0x188>
 80022c0:	f504 6480 	add.w	r4, r4, #1024	@ 0x400
 80022c4:	42a0      	cmp	r0, r4
 80022c6:	d03b      	beq.n	8002340 <HAL_GPIO_Init+0x18c>
 80022c8:	f504 6480 	add.w	r4, r4, #1024	@ 0x400
 80022cc:	42a0      	cmp	r0, r4
 80022ce:	d039      	beq.n	8002344 <HAL_GPIO_Init+0x190>
 80022d0:	f504 6480 	add.w	r4, r4, #1024	@ 0x400
 80022d4:	42a0      	cmp	r0, r4
 80022d6:	d037      	beq.n	8002348 <HAL_GPIO_Init+0x194>
 80022d8:	f504 6480 	add.w	r4, r4, #1024	@ 0x400
 80022dc:	42a0      	cmp	r0, r4
 80022de:	bf14      	ite	ne
 80022e0:	2407      	movne	r4, #7
 80022e2:	2406      	moveq	r4, #6
 80022e4:	fa04 f40c 	lsl.w	r4, r4, ip
 80022e8:	ea44 040e 	orr.w	r4, r4, lr
 80022ec:	60bc      	str	r4, [r7, #8]
 80022ee:	6894      	ldr	r4, [r2, #8]
 80022f0:	43f7      	mvns	r7, r6
 80022f2:	f415 1f80 	tst.w	r5, #1048576	@ 0x100000
 80022f6:	bf0c      	ite	eq
 80022f8:	403c      	andeq	r4, r7
 80022fa:	4334      	orrne	r4, r6
 80022fc:	6094      	str	r4, [r2, #8]
 80022fe:	68d4      	ldr	r4, [r2, #12]
 8002300:	f415 1f00 	tst.w	r5, #2097152	@ 0x200000
 8002304:	bf0c      	ite	eq
 8002306:	403c      	andeq	r4, r7
 8002308:	4334      	orrne	r4, r6
 800230a:	60d4      	str	r4, [r2, #12]
 800230c:	6854      	ldr	r4, [r2, #4]
 800230e:	f415 3f00 	tst.w	r5, #131072	@ 0x20000
 8002312:	bf0c      	ite	eq
 8002314:	403c      	andeq	r4, r7
 8002316:	4334      	orrne	r4, r6
 8002318:	6054      	str	r4, [r2, #4]
 800231a:	6814      	ldr	r4, [r2, #0]
 800231c:	03ed      	lsls	r5, r5, #15
 800231e:	bf54      	ite	pl
 8002320:	403c      	andpl	r4, r7
 8002322:	4334      	orrmi	r4, r6
 8002324:	6014      	str	r4, [r2, #0]
 8002326:	3301      	adds	r3, #1
 8002328:	2b10      	cmp	r3, #16
 800232a:	f47f af49 	bne.w	80021c0 <HAL_GPIO_Init+0xc>
 800232e:	b003      	add	sp, #12
 8002330:	e8bd 8ff0 	ldmia.w	sp!, {r4, r5, r6, r7, r8, r9, sl, fp, pc}
 8002334:	2400      	movs	r4, #0
 8002336:	e7d5      	b.n	80022e4 <HAL_GPIO_Init+0x130>
 8002338:	2401      	movs	r4, #1
 800233a:	e7d3      	b.n	80022e4 <HAL_GPIO_Init+0x130>
 800233c:	2402      	movs	r4, #2
 800233e:	e7d1      	b.n	80022e4 <HAL_GPIO_Init+0x130>
 8002340:	2403      	movs	r4, #3
 8002342:	e7cf      	b.n	80022e4 <HAL_GPIO_Init+0x130>
 8002344:	2404      	movs	r4, #4
 8002346:	e7cd      	b.n	80022e4 <HAL_GPIO_Init+0x130>
 8002348:	2405      	movs	r4, #5
 800234a:	e7cb      	b.n	80022e4 <HAL_GPIO_Init+0x130>
 800234c:	40013c00 	.word	0x40013c00
 8002350:	40020000 	.word	0x40020000
 8002354:	40023800 	.word	0x40023800

08002358 <HAL_GPIO_WritePin>:
 8002358:	b10a      	cbz	r2, 800235e <HAL_GPIO_WritePin+0x6>
 800235a:	6181      	str	r1, [r0, #24]
 800235c:	4770      	bx	lr
 800235e:	0409      	lsls	r1, r1, #16
 8002360:	e7fb      	b.n	800235a <HAL_GPIO_WritePin+0x2>
	...

08002364 <HAL_I2C_Init>:
 8002364:	b570      	push	{r4, r5, r6, lr}
 8002366:	4604      	mov	r4, r0
 8002368:	b908      	cbnz	r0, 800236e <HAL_I2C_Init+0xa>
 800236a:	2001      	movs	r0, #1
 800236c:	bd70      	pop	{r4, r5, r6, pc}
 800236e:	f890 303d 	ldrb.w	r3, [r0, #61]	@ 0x3d
 8002372:	f003 02ff 	and.w	r2, r3, #255	@ 0xff
 8002376:	b91b      	cbnz	r3, 8002380 <HAL_I2C_Init+0x1c>
 8002378:	f880 203c 	strb.w	r2, [r0, #60]	@ 0x3c
 800237c:	f7ff fcda 	bl	8001d34 <HAL_I2C_MspInit>
 8002380:	2324      	movs	r3, #36	@ 0x24
 8002382:	f884 303d 	strb.w	r3, [r4, #61]	@ 0x3d
 8002386:	6823      	ldr	r3, [r4, #0]
 8002388:	681a      	ldr	r2, [r3, #0]
 800238a:	f022 0201 	bic.w	r2, r2, #1
 800238e:	601a      	str	r2, [r3, #0]
 8002390:	681a      	ldr	r2, [r3, #0]
 8002392:	f442 4200 	orr.w	r2, r2, #32768	@ 0x8000
 8002396:	601a      	str	r2, [r3, #0]
 8002398:	681a      	ldr	r2, [r3, #0]
 800239a:	f422 4200 	bic.w	r2, r2, #32768	@ 0x8000
 800239e:	601a      	str	r2, [r3, #0]
 80023a0:	f000 f922 	bl	80025e8 <HAL_RCC_GetPCLK1Freq>
 80023a4:	4b3f      	ldr	r3, [pc, #252]	@ (80024a4 <HAL_I2C_Init+0x140>)
 80023a6:	6865      	ldr	r5, [r4, #4]
 80023a8:	429d      	cmp	r5, r3
 80023aa:	bf94      	ite	ls
 80023ac:	4b3e      	ldrls	r3, [pc, #248]	@ (80024a8 <HAL_I2C_Init+0x144>)
 80023ae:	4b3f      	ldrhi	r3, [pc, #252]	@ (80024ac <HAL_I2C_Init+0x148>)
 80023b0:	4298      	cmp	r0, r3
 80023b2:	bf8c      	ite	hi
 80023b4:	2300      	movhi	r3, #0
 80023b6:	2301      	movls	r3, #1
 80023b8:	2b00      	cmp	r3, #0
 80023ba:	d1d6      	bne.n	800236a <HAL_I2C_Init+0x6>
 80023bc:	6822      	ldr	r2, [r4, #0]
 80023be:	4e39      	ldr	r6, [pc, #228]	@ (80024a4 <HAL_I2C_Init+0x140>)
 80023c0:	6851      	ldr	r1, [r2, #4]
 80023c2:	4b3b      	ldr	r3, [pc, #236]	@ (80024b0 <HAL_I2C_Init+0x14c>)
 80023c4:	fbb0 f3f3 	udiv	r3, r0, r3
 80023c8:	f021 013f 	bic.w	r1, r1, #63	@ 0x3f
 80023cc:	4319      	orrs	r1, r3
 80023ce:	42b5      	cmp	r5, r6
 80023d0:	6051      	str	r1, [r2, #4]
 80023d2:	bf88      	it	hi
 80023d4:	f44f 7696 	movhi.w	r6, #300	@ 0x12c
 80023d8:	6a11      	ldr	r1, [r2, #32]
 80023da:	bf88      	it	hi
 80023dc:	4373      	mulhi	r3, r6
 80023de:	f021 013f 	bic.w	r1, r1, #63	@ 0x3f
 80023e2:	bf84      	itt	hi
 80023e4:	f44f 767a 	movhi.w	r6, #1000	@ 0x3e8
 80023e8:	fbb3 f3f6 	udivhi	r3, r3, r6
 80023ec:	3301      	adds	r3, #1
 80023ee:	430b      	orrs	r3, r1
 80023f0:	6213      	str	r3, [r2, #32]
 80023f2:	69d1      	ldr	r1, [r2, #28]
 80023f4:	1e43      	subs	r3, r0, #1
 80023f6:	482b      	ldr	r0, [pc, #172]	@ (80024a4 <HAL_I2C_Init+0x140>)
 80023f8:	f421 414f 	bic.w	r1, r1, #52992	@ 0xcf00
 80023fc:	4285      	cmp	r5, r0
 80023fe:	f021 01ff 	bic.w	r1, r1, #255	@ 0xff
 8002402:	d832      	bhi.n	800246a <HAL_I2C_Init+0x106>
 8002404:	006d      	lsls	r5, r5, #1
 8002406:	f640 70fc 	movw	r0, #4092	@ 0xffc
 800240a:	fbb3 f3f5 	udiv	r3, r3, r5
 800240e:	3301      	adds	r3, #1
 8002410:	4203      	tst	r3, r0
 8002412:	d042      	beq.n	800249a <HAL_I2C_Init+0x136>
 8002414:	f3c3 030b 	ubfx	r3, r3, #0, #12
 8002418:	4319      	orrs	r1, r3
 800241a:	61d1      	str	r1, [r2, #28]
 800241c:	e9d4 3007 	ldrd	r3, r0, [r4, #28]
 8002420:	6811      	ldr	r1, [r2, #0]
 8002422:	4303      	orrs	r3, r0
 8002424:	f021 01c0 	bic.w	r1, r1, #192	@ 0xc0
 8002428:	430b      	orrs	r3, r1
 800242a:	6013      	str	r3, [r2, #0]
 800242c:	6891      	ldr	r1, [r2, #8]
 800242e:	e9d4 0303 	ldrd	r0, r3, [r4, #12]
 8002432:	f421 4103 	bic.w	r1, r1, #33536	@ 0x8300
 8002436:	4303      	orrs	r3, r0
 8002438:	f021 01ff 	bic.w	r1, r1, #255	@ 0xff
 800243c:	430b      	orrs	r3, r1
 800243e:	6093      	str	r3, [r2, #8]
 8002440:	e9d4 3005 	ldrd	r3, r0, [r4, #20]
 8002444:	68d1      	ldr	r1, [r2, #12]
 8002446:	4303      	orrs	r3, r0
 8002448:	f021 01ff 	bic.w	r1, r1, #255	@ 0xff
 800244c:	430b      	orrs	r3, r1
 800244e:	60d3      	str	r3, [r2, #12]
 8002450:	6813      	ldr	r3, [r2, #0]
 8002452:	f043 0301 	orr.w	r3, r3, #1
 8002456:	6013      	str	r3, [r2, #0]
 8002458:	2000      	movs	r0, #0
 800245a:	2320      	movs	r3, #32
 800245c:	6420      	str	r0, [r4, #64]	@ 0x40
 800245e:	f884 303d 	strb.w	r3, [r4, #61]	@ 0x3d
 8002462:	6320      	str	r0, [r4, #48]	@ 0x30
 8002464:	f884 003e 	strb.w	r0, [r4, #62]	@ 0x3e
 8002468:	e780      	b.n	800236c <HAL_I2C_Init+0x8>
 800246a:	68a0      	ldr	r0, [r4, #8]
 800246c:	b950      	cbnz	r0, 8002484 <HAL_I2C_Init+0x120>
 800246e:	eb05 0545 	add.w	r5, r5, r5, lsl #1
 8002472:	fbb3 f3f5 	udiv	r3, r3, r5
 8002476:	3301      	adds	r3, #1
 8002478:	f3c3 030b 	ubfx	r3, r3, #0, #12
 800247c:	b17b      	cbz	r3, 800249e <HAL_I2C_Init+0x13a>
 800247e:	f443 4300 	orr.w	r3, r3, #32768	@ 0x8000
 8002482:	e7c9      	b.n	8002418 <HAL_I2C_Init+0xb4>
 8002484:	2019      	movs	r0, #25
 8002486:	4368      	muls	r0, r5
 8002488:	fbb3 f3f0 	udiv	r3, r3, r0
 800248c:	3301      	adds	r3, #1
 800248e:	f3c3 030b 	ubfx	r3, r3, #0, #12
 8002492:	b123      	cbz	r3, 800249e <HAL_I2C_Init+0x13a>
 8002494:	f443 4340 	orr.w	r3, r3, #49152	@ 0xc000
 8002498:	e7be      	b.n	8002418 <HAL_I2C_Init+0xb4>
 800249a:	2304      	movs	r3, #4
 800249c:	e7bc      	b.n	8002418 <HAL_I2C_Init+0xb4>
 800249e:	2301      	movs	r3, #1
 80024a0:	e7ba      	b.n	8002418 <HAL_I2C_Init+0xb4>
 80024a2:	bf00      	nop
 80024a4:	000186a0 	.word	0x000186a0
 80024a8:	001e847f 	.word	0x001e847f
 80024ac:	003d08ff 	.word	0x003d08ff
 80024b0:	000f4240 	.word	0x000f4240

080024b4 <HAL_RCC_ClockConfig>:
 80024b4:	e92d 41f0 	stmdb	sp!, {r4, r5, r6, r7, r8, lr}
 80024b8:	460d      	mov	r5, r1
 80024ba:	4604      	mov	r4, r0
 80024bc:	b910      	cbnz	r0, 80024c4 <HAL_RCC_ClockConfig+0x10>
 80024be:	2001      	movs	r0, #1
 80024c0:	e8bd 81f0 	ldmia.w	sp!, {r4, r5, r6, r7, r8, pc}
 80024c4:	4b43      	ldr	r3, [pc, #268]	@ (80025d4 <HAL_RCC_ClockConfig+0x120>)
 80024c6:	681a      	ldr	r2, [r3, #0]
 80024c8:	f002 020f 	and.w	r2, r2, #15
 80024cc:	428a      	cmp	r2, r1
 80024ce:	d328      	bcc.n	8002522 <HAL_RCC_ClockConfig+0x6e>
 80024d0:	6821      	ldr	r1, [r4, #0]
 80024d2:	078f      	lsls	r7, r1, #30
 80024d4:	d42d      	bmi.n	8002532 <HAL_RCC_ClockConfig+0x7e>
 80024d6:	07c8      	lsls	r0, r1, #31
 80024d8:	d440      	bmi.n	800255c <HAL_RCC_ClockConfig+0xa8>
 80024da:	4b3e      	ldr	r3, [pc, #248]	@ (80025d4 <HAL_RCC_ClockConfig+0x120>)
 80024dc:	681a      	ldr	r2, [r3, #0]
 80024de:	f002 020f 	and.w	r2, r2, #15
 80024e2:	42aa      	cmp	r2, r5
 80024e4:	d865      	bhi.n	80025b2 <HAL_RCC_ClockConfig+0xfe>
 80024e6:	6822      	ldr	r2, [r4, #0]
 80024e8:	0751      	lsls	r1, r2, #29
 80024ea:	d46b      	bmi.n	80025c4 <HAL_RCC_ClockConfig+0x110>
 80024ec:	0713      	lsls	r3, r2, #28
 80024ee:	d507      	bpl.n	8002500 <HAL_RCC_ClockConfig+0x4c>
 80024f0:	4a39      	ldr	r2, [pc, #228]	@ (80025d8 <HAL_RCC_ClockConfig+0x124>)
 80024f2:	6921      	ldr	r1, [r4, #16]
 80024f4:	6893      	ldr	r3, [r2, #8]
 80024f6:	f423 4360 	bic.w	r3, r3, #57344	@ 0xe000
 80024fa:	ea43 03c1 	orr.w	r3, r3, r1, lsl #3
 80024fe:	6093      	str	r3, [r2, #8]
 8002500:	f000 f8b0 	bl	8002664 <HAL_RCC_GetSysClockFreq>
 8002504:	4b34      	ldr	r3, [pc, #208]	@ (80025d8 <HAL_RCC_ClockConfig+0x124>)
 8002506:	4a35      	ldr	r2, [pc, #212]	@ (80025dc <HAL_RCC_ClockConfig+0x128>)
 8002508:	689b      	ldr	r3, [r3, #8]
 800250a:	f3c3 1303 	ubfx	r3, r3, #4, #4
 800250e:	5cd3      	ldrb	r3, [r2, r3]
 8002510:	40d8      	lsrs	r0, r3
 8002512:	4b33      	ldr	r3, [pc, #204]	@ (80025e0 <HAL_RCC_ClockConfig+0x12c>)
 8002514:	6018      	str	r0, [r3, #0]
 8002516:	4b33      	ldr	r3, [pc, #204]	@ (80025e4 <HAL_RCC_ClockConfig+0x130>)
 8002518:	6818      	ldr	r0, [r3, #0]
 800251a:	f7ff fcaf 	bl	8001e7c <HAL_InitTick>
 800251e:	2000      	movs	r0, #0
 8002520:	e7ce      	b.n	80024c0 <HAL_RCC_ClockConfig+0xc>
 8002522:	b2ca      	uxtb	r2, r1
 8002524:	701a      	strb	r2, [r3, #0]
 8002526:	681b      	ldr	r3, [r3, #0]
 8002528:	f003 030f 	and.w	r3, r3, #15
 800252c:	428b      	cmp	r3, r1
 800252e:	d1c6      	bne.n	80024be <HAL_RCC_ClockConfig+0xa>
 8002530:	e7ce      	b.n	80024d0 <HAL_RCC_ClockConfig+0x1c>
 8002532:	4b29      	ldr	r3, [pc, #164]	@ (80025d8 <HAL_RCC_ClockConfig+0x124>)
 8002534:	f011 0f04 	tst.w	r1, #4
 8002538:	bf1e      	ittt	ne
 800253a:	689a      	ldrne	r2, [r3, #8]
 800253c:	f442 52e0 	orrne.w	r2, r2, #7168	@ 0x1c00
 8002540:	609a      	strne	r2, [r3, #8]
 8002542:	070e      	lsls	r6, r1, #28
 8002544:	bf42      	ittt	mi
 8002546:	689a      	ldrmi	r2, [r3, #8]
 8002548:	f442 4260 	orrmi.w	r2, r2, #57344	@ 0xe000
 800254c:	609a      	strmi	r2, [r3, #8]
 800254e:	689a      	ldr	r2, [r3, #8]
 8002550:	68a0      	ldr	r0, [r4, #8]
 8002552:	f022 02f0 	bic.w	r2, r2, #240	@ 0xf0
 8002556:	4302      	orrs	r2, r0
 8002558:	609a      	str	r2, [r3, #8]
 800255a:	e7bc      	b.n	80024d6 <HAL_RCC_ClockConfig+0x22>
 800255c:	6862      	ldr	r2, [r4, #4]
 800255e:	4b1e      	ldr	r3, [pc, #120]	@ (80025d8 <HAL_RCC_ClockConfig+0x124>)
 8002560:	2a01      	cmp	r2, #1
 8002562:	d11c      	bne.n	800259e <HAL_RCC_ClockConfig+0xea>
 8002564:	681b      	ldr	r3, [r3, #0]
 8002566:	f413 3f00 	tst.w	r3, #131072	@ 0x20000
 800256a:	d0a8      	beq.n	80024be <HAL_RCC_ClockConfig+0xa>
 800256c:	4e1a      	ldr	r6, [pc, #104]	@ (80025d8 <HAL_RCC_ClockConfig+0x124>)
 800256e:	68b3      	ldr	r3, [r6, #8]
 8002570:	f023 0303 	bic.w	r3, r3, #3
 8002574:	4313      	orrs	r3, r2
 8002576:	60b3      	str	r3, [r6, #8]
 8002578:	f7ff fd34 	bl	8001fe4 <HAL_GetTick>
 800257c:	f241 3888 	movw	r8, #5000	@ 0x1388
 8002580:	4607      	mov	r7, r0
 8002582:	68b3      	ldr	r3, [r6, #8]
 8002584:	6862      	ldr	r2, [r4, #4]
 8002586:	f003 030c 	and.w	r3, r3, #12
 800258a:	ebb3 0f82 	cmp.w	r3, r2, lsl #2
 800258e:	d0a4      	beq.n	80024da <HAL_RCC_ClockConfig+0x26>
 8002590:	f7ff fd28 	bl	8001fe4 <HAL_GetTick>
 8002594:	1bc0      	subs	r0, r0, r7
 8002596:	4540      	cmp	r0, r8
 8002598:	d9f3      	bls.n	8002582 <HAL_RCC_ClockConfig+0xce>
 800259a:	2003      	movs	r0, #3
 800259c:	e790      	b.n	80024c0 <HAL_RCC_ClockConfig+0xc>
 800259e:	1e91      	subs	r1, r2, #2
 80025a0:	2901      	cmp	r1, #1
 80025a2:	681b      	ldr	r3, [r3, #0]
 80025a4:	d802      	bhi.n	80025ac <HAL_RCC_ClockConfig+0xf8>
 80025a6:	f013 7f00 	tst.w	r3, #33554432	@ 0x2000000
 80025aa:	e7de      	b.n	800256a <HAL_RCC_ClockConfig+0xb6>
 80025ac:	f013 0f02 	tst.w	r3, #2
 80025b0:	e7db      	b.n	800256a <HAL_RCC_ClockConfig+0xb6>
 80025b2:	b2ea      	uxtb	r2, r5
 80025b4:	701a      	strb	r2, [r3, #0]
 80025b6:	681b      	ldr	r3, [r3, #0]
 80025b8:	f003 030f 	and.w	r3, r3, #15
 80025bc:	42ab      	cmp	r3, r5
 80025be:	f47f af7e 	bne.w	80024be <HAL_RCC_ClockConfig+0xa>
 80025c2:	e790      	b.n	80024e6 <HAL_RCC_ClockConfig+0x32>
 80025c4:	4904      	ldr	r1, [pc, #16]	@ (80025d8 <HAL_RCC_ClockConfig+0x124>)
 80025c6:	68e0      	ldr	r0, [r4, #12]
 80025c8:	688b      	ldr	r3, [r1, #8]
 80025ca:	f423 53e0 	bic.w	r3, r3, #7168	@ 0x1c00
 80025ce:	4303      	orrs	r3, r0
 80025d0:	608b      	str	r3, [r1, #8]
 80025d2:	e78b      	b.n	80024ec <HAL_RCC_ClockConfig+0x38>
 80025d4:	40023c00 	.word	0x40023c00
 80025d8:	40023800 	.word	0x40023800
 80025dc:	08008129 	.word	0x08008129
 80025e0:	20000004 	.word	0x20000004
 80025e4:	2000000c 	.word	0x2000000c

080025e8 <HAL_RCC_GetPCLK1Freq>:
 80025e8:	4b04      	ldr	r3, [pc, #16]	@ (80025fc <HAL_RCC_GetPCLK1Freq+0x14>)
 80025ea:	4a05      	ldr	r2, [pc, #20]	@ (8002600 <HAL_RCC_GetPCLK1Freq+0x18>)
 80025ec:	689b      	ldr	r3, [r3, #8]
 80025ee:	f3c3 2382 	ubfx	r3, r3, #10, #3
 80025f2:	5cd3      	ldrb	r3, [r2, r3]
 80025f4:	4a03      	ldr	r2, [pc, #12]	@ (8002604 <HAL_RCC_GetPCLK1Freq+0x1c>)
 80025f6:	6810      	ldr	r0, [r2, #0]
 80025f8:	40d8      	lsrs	r0, r3
 80025fa:	4770      	bx	lr
 80025fc:	40023800 	.word	0x40023800
 8002600:	08008121 	.word	0x08008121
 8002604:	20000004 	.word	0x20000004

08002608 <HAL_RCC_GetPCLK2Freq>:
 8002608:	4b04      	ldr	r3, [pc, #16]	@ (800261c <HAL_RCC_GetPCLK2Freq+0x14>)
 800260a:	4a05      	ldr	r2, [pc, #20]	@ (8002620 <HAL_RCC_GetPCLK2Freq+0x18>)
 800260c:	689b      	ldr	r3, [r3, #8]
 800260e:	f3c3 3342 	ubfx	r3, r3, #13, #3
 8002612:	5cd3      	ldrb	r3, [r2, r3]
 8002614:	4a03      	ldr	r2, [pc, #12]	@ (8002624 <HAL_RCC_GetPCLK2Freq+0x1c>)
 8002616:	6810      	ldr	r0, [r2, #0]
 8002618:	40d8      	lsrs	r0, r3
 800261a:	4770      	bx	lr
 800261c:	40023800 	.word	0x40023800
 8002620:	08008121 	.word	0x08008121
 8002624:	20000004 	.word	0x20000004

08002628 <HAL_RCC_GetClockConfig>:
 8002628:	230f      	movs	r3, #15
 800262a:	6003      	str	r3, [r0, #0]
 800262c:	4b0b      	ldr	r3, [pc, #44]	@ (800265c <HAL_RCC_GetClockConfig+0x34>)
 800262e:	689a      	ldr	r2, [r3, #8]
 8002630:	f002 0203 	and.w	r2, r2, #3
 8002634:	6042      	str	r2, [r0, #4]
 8002636:	689a      	ldr	r2, [r3, #8]
 8002638:	f002 02f0 	and.w	r2, r2, #240	@ 0xf0
 800263c:	6082      	str	r2, [r0, #8]
 800263e:	689a      	ldr	r2, [r3, #8]
 8002640:	f402 52e0 	and.w	r2, r2, #7168	@ 0x1c00
 8002644:	60c2      	str	r2, [r0, #12]
 8002646:	689b      	ldr	r3, [r3, #8]
 8002648:	08db      	lsrs	r3, r3, #3
 800264a:	f403 53e0 	and.w	r3, r3, #7168	@ 0x1c00
 800264e:	6103      	str	r3, [r0, #16]
 8002650:	4b03      	ldr	r3, [pc, #12]	@ (8002660 <HAL_RCC_GetClockConfig+0x38>)
 8002652:	681b      	ldr	r3, [r3, #0]
 8002654:	f003 030f 	and.w	r3, r3, #15
 8002658:	600b      	str	r3, [r1, #0]
 800265a:	4770      	bx	lr
 800265c:	40023800 	.word	0x40023800
 8002660:	40023c00 	.word	0x40023c00

08002664 <HAL_RCC_GetSysClockFreq>:
 8002664:	4920      	ldr	r1, [pc, #128]	@ (80026e8 <HAL_RCC_GetSysClockFreq+0x84>)
 8002666:	b508      	push	{r3, lr}
 8002668:	688b      	ldr	r3, [r1, #8]
 800266a:	f003 030c 	and.w	r3, r3, #12
 800266e:	2b08      	cmp	r3, #8
 8002670:	d007      	beq.n	8002682 <HAL_RCC_GetSysClockFreq+0x1e>
 8002672:	2b0c      	cmp	r3, #12
 8002674:	d020      	beq.n	80026b8 <HAL_RCC_GetSysClockFreq+0x54>
 8002676:	481d      	ldr	r0, [pc, #116]	@ (80026ec <HAL_RCC_GetSysClockFreq+0x88>)
 8002678:	4a1d      	ldr	r2, [pc, #116]	@ (80026f0 <HAL_RCC_GetSysClockFreq+0x8c>)
 800267a:	2b04      	cmp	r3, #4
 800267c:	bf18      	it	ne
 800267e:	4610      	movne	r0, r2
 8002680:	bd08      	pop	{r3, pc}
 8002682:	684a      	ldr	r2, [r1, #4]
 8002684:	684b      	ldr	r3, [r1, #4]
 8002686:	6849      	ldr	r1, [r1, #4]
 8002688:	f413 0380 	ands.w	r3, r3, #4194304	@ 0x400000
 800268c:	bf14      	ite	ne
 800268e:	4817      	ldrne	r0, [pc, #92]	@ (80026ec <HAL_RCC_GetSysClockFreq+0x88>)
 8002690:	4817      	ldreq	r0, [pc, #92]	@ (80026f0 <HAL_RCC_GetSysClockFreq+0x8c>)
 8002692:	f3c1 1188 	ubfx	r1, r1, #6, #9
 8002696:	bf18      	it	ne
 8002698:	2300      	movne	r3, #0
 800269a:	f002 023f 	and.w	r2, r2, #63	@ 0x3f
 800269e:	fba1 0100 	umull	r0, r1, r1, r0
 80026a2:	f7fe fb11 	bl	8000cc8 <__aeabi_uldivmod>
 80026a6:	4b10      	ldr	r3, [pc, #64]	@ (80026e8 <HAL_RCC_GetSysClockFreq+0x84>)
 80026a8:	685b      	ldr	r3, [r3, #4]
 80026aa:	f3c3 4301 	ubfx	r3, r3, #16, #2
 80026ae:	3301      	adds	r3, #1
 80026b0:	005b      	lsls	r3, r3, #1
 80026b2:	fbb0 f0f3 	udiv	r0, r0, r3
 80026b6:	e7e3      	b.n	8002680 <HAL_RCC_GetSysClockFreq+0x1c>
 80026b8:	684a      	ldr	r2, [r1, #4]
 80026ba:	684b      	ldr	r3, [r1, #4]
 80026bc:	6849      	ldr	r1, [r1, #4]
 80026be:	f413 0380 	ands.w	r3, r3, #4194304	@ 0x400000
 80026c2:	bf14      	ite	ne
 80026c4:	4809      	ldrne	r0, [pc, #36]	@ (80026ec <HAL_RCC_GetSysClockFreq+0x88>)
 80026c6:	480a      	ldreq	r0, [pc, #40]	@ (80026f0 <HAL_RCC_GetSysClockFreq+0x8c>)
 80026c8:	f3c1 1188 	ubfx	r1, r1, #6, #9
 80026cc:	bf18      	it	ne
 80026ce:	2300      	movne	r3, #0
 80026d0:	f002 023f 	and.w	r2, r2, #63	@ 0x3f
 80026d4:	fba1 0100 	umull	r0, r1, r1, r0
 80026d8:	f7fe faf6 	bl	8000cc8 <__aeabi_uldivmod>
 80026dc:	4b02      	ldr	r3, [pc, #8]	@ (80026e8 <HAL_RCC_GetSysClockFreq+0x84>)
 80026de:	685b      	ldr	r3, [r3, #4]
 80026e0:	f3c3 7302 	ubfx	r3, r3, #28, #3
 80026e4:	e7e5      	b.n	80026b2 <HAL_RCC_GetSysClockFreq+0x4e>
 80026e6:	bf00      	nop
 80026e8:	40023800 	.word	0x40023800
 80026ec:	007a1200 	.word	0x007a1200
 80026f0:	00f42400 	.word	0x00f42400

080026f4 <HAL_RCC_OscConfig>:
 80026f4:	e92d 41f3 	stmdb	sp!, {r0, r1, r4, r5, r6, r7, r8, lr}
 80026f8:	4604      	mov	r4, r0
 80026fa:	2800      	cmp	r0, #0
 80026fc:	d031      	beq.n	8002762 <HAL_RCC_OscConfig+0x6e>
 80026fe:	6803      	ldr	r3, [r0, #0]
 8002700:	07df      	lsls	r7, r3, #31
 8002702:	d410      	bmi.n	8002726 <HAL_RCC_OscConfig+0x32>
 8002704:	6823      	ldr	r3, [r4, #0]
 8002706:	079e      	lsls	r6, r3, #30
 8002708:	d467      	bmi.n	80027da <HAL_RCC_OscConfig+0xe6>
 800270a:	6823      	ldr	r3, [r4, #0]
 800270c:	0719      	lsls	r1, r3, #28
 800270e:	f100 80b2 	bmi.w	8002876 <HAL_RCC_OscConfig+0x182>
 8002712:	6823      	ldr	r3, [r4, #0]
 8002714:	075a      	lsls	r2, r3, #29
 8002716:	f100 80d2 	bmi.w	80028be <HAL_RCC_OscConfig+0x1ca>
 800271a:	69a3      	ldr	r3, [r4, #24]
 800271c:	2b00      	cmp	r3, #0
 800271e:	f040 8139 	bne.w	8002994 <HAL_RCC_OscConfig+0x2a0>
 8002722:	2000      	movs	r0, #0
 8002724:	e034      	b.n	8002790 <HAL_RCC_OscConfig+0x9c>
 8002726:	4b98      	ldr	r3, [pc, #608]	@ (8002988 <HAL_RCC_OscConfig+0x294>)
 8002728:	689a      	ldr	r2, [r3, #8]
 800272a:	f002 020c 	and.w	r2, r2, #12
 800272e:	2a04      	cmp	r2, #4
 8002730:	d010      	beq.n	8002754 <HAL_RCC_OscConfig+0x60>
 8002732:	689a      	ldr	r2, [r3, #8]
 8002734:	f002 020c 	and.w	r2, r2, #12
 8002738:	2a08      	cmp	r2, #8
 800273a:	d102      	bne.n	8002742 <HAL_RCC_OscConfig+0x4e>
 800273c:	685b      	ldr	r3, [r3, #4]
 800273e:	025d      	lsls	r5, r3, #9
 8002740:	d408      	bmi.n	8002754 <HAL_RCC_OscConfig+0x60>
 8002742:	4b91      	ldr	r3, [pc, #580]	@ (8002988 <HAL_RCC_OscConfig+0x294>)
 8002744:	689a      	ldr	r2, [r3, #8]
 8002746:	f002 020c 	and.w	r2, r2, #12
 800274a:	2a0c      	cmp	r2, #12
 800274c:	d10b      	bne.n	8002766 <HAL_RCC_OscConfig+0x72>
 800274e:	685a      	ldr	r2, [r3, #4]
 8002750:	0251      	lsls	r1, r2, #9
 8002752:	d508      	bpl.n	8002766 <HAL_RCC_OscConfig+0x72>
 8002754:	4b8c      	ldr	r3, [pc, #560]	@ (8002988 <HAL_RCC_OscConfig+0x294>)
 8002756:	681b      	ldr	r3, [r3, #0]
 8002758:	039a      	lsls	r2, r3, #14
 800275a:	d5d3      	bpl.n	8002704 <HAL_RCC_OscConfig+0x10>
 800275c:	6863      	ldr	r3, [r4, #4]
 800275e:	2b00      	cmp	r3, #0
 8002760:	d1d0      	bne.n	8002704 <HAL_RCC_OscConfig+0x10>
 8002762:	2001      	movs	r0, #1
 8002764:	e014      	b.n	8002790 <HAL_RCC_OscConfig+0x9c>
 8002766:	6862      	ldr	r2, [r4, #4]
 8002768:	f5b2 3f80 	cmp.w	r2, #65536	@ 0x10000
 800276c:	d113      	bne.n	8002796 <HAL_RCC_OscConfig+0xa2>
 800276e:	681a      	ldr	r2, [r3, #0]
 8002770:	f442 3280 	orr.w	r2, r2, #65536	@ 0x10000
 8002774:	601a      	str	r2, [r3, #0]
 8002776:	f7ff fc35 	bl	8001fe4 <HAL_GetTick>
 800277a:	4e83      	ldr	r6, [pc, #524]	@ (8002988 <HAL_RCC_OscConfig+0x294>)
 800277c:	4605      	mov	r5, r0
 800277e:	6833      	ldr	r3, [r6, #0]
 8002780:	039b      	lsls	r3, r3, #14
 8002782:	d4bf      	bmi.n	8002704 <HAL_RCC_OscConfig+0x10>
 8002784:	f7ff fc2e 	bl	8001fe4 <HAL_GetTick>
 8002788:	1b40      	subs	r0, r0, r5
 800278a:	2864      	cmp	r0, #100	@ 0x64
 800278c:	d9f7      	bls.n	800277e <HAL_RCC_OscConfig+0x8a>
 800278e:	2003      	movs	r0, #3
 8002790:	b002      	add	sp, #8
 8002792:	e8bd 81f0 	ldmia.w	sp!, {r4, r5, r6, r7, r8, pc}
 8002796:	4d7c      	ldr	r5, [pc, #496]	@ (8002988 <HAL_RCC_OscConfig+0x294>)
 8002798:	f5b2 2fa0 	cmp.w	r2, #327680	@ 0x50000
 800279c:	682b      	ldr	r3, [r5, #0]
 800279e:	d107      	bne.n	80027b0 <HAL_RCC_OscConfig+0xbc>
 80027a0:	f443 2380 	orr.w	r3, r3, #262144	@ 0x40000
 80027a4:	602b      	str	r3, [r5, #0]
 80027a6:	682b      	ldr	r3, [r5, #0]
 80027a8:	f443 3380 	orr.w	r3, r3, #65536	@ 0x10000
 80027ac:	602b      	str	r3, [r5, #0]
 80027ae:	e7e2      	b.n	8002776 <HAL_RCC_OscConfig+0x82>
 80027b0:	f423 3380 	bic.w	r3, r3, #65536	@ 0x10000
 80027b4:	602b      	str	r3, [r5, #0]
 80027b6:	682b      	ldr	r3, [r5, #0]
 80027b8:	f423 2380 	bic.w	r3, r3, #262144	@ 0x40000
 80027bc:	602b      	str	r3, [r5, #0]
 80027be:	2a00      	cmp	r2, #0
 80027c0:	d1d9      	bne.n	8002776 <HAL_RCC_OscConfig+0x82>
 80027c2:	f7ff fc0f 	bl	8001fe4 <HAL_GetTick>
 80027c6:	4606      	mov	r6, r0
 80027c8:	682b      	ldr	r3, [r5, #0]
 80027ca:	039f      	lsls	r7, r3, #14
 80027cc:	d59a      	bpl.n	8002704 <HAL_RCC_OscConfig+0x10>
 80027ce:	f7ff fc09 	bl	8001fe4 <HAL_GetTick>
 80027d2:	1b80      	subs	r0, r0, r6
 80027d4:	2864      	cmp	r0, #100	@ 0x64
 80027d6:	d9f7      	bls.n	80027c8 <HAL_RCC_OscConfig+0xd4>
 80027d8:	e7d9      	b.n	800278e <HAL_RCC_OscConfig+0x9a>
 80027da:	4b6b      	ldr	r3, [pc, #428]	@ (8002988 <HAL_RCC_OscConfig+0x294>)
 80027dc:	689a      	ldr	r2, [r3, #8]
 80027de:	f012 0f0c 	tst.w	r2, #12
 80027e2:	d010      	beq.n	8002806 <HAL_RCC_OscConfig+0x112>
 80027e4:	689a      	ldr	r2, [r3, #8]
 80027e6:	f002 020c 	and.w	r2, r2, #12
 80027ea:	2a08      	cmp	r2, #8
 80027ec:	d102      	bne.n	80027f4 <HAL_RCC_OscConfig+0x100>
 80027ee:	685b      	ldr	r3, [r3, #4]
 80027f0:	025e      	lsls	r6, r3, #9
 80027f2:	d508      	bpl.n	8002806 <HAL_RCC_OscConfig+0x112>
 80027f4:	4a64      	ldr	r2, [pc, #400]	@ (8002988 <HAL_RCC_OscConfig+0x294>)
 80027f6:	6893      	ldr	r3, [r2, #8]
 80027f8:	f003 030c 	and.w	r3, r3, #12
 80027fc:	2b0c      	cmp	r3, #12
 80027fe:	d111      	bne.n	8002824 <HAL_RCC_OscConfig+0x130>
 8002800:	6853      	ldr	r3, [r2, #4]
 8002802:	025d      	lsls	r5, r3, #9
 8002804:	d40e      	bmi.n	8002824 <HAL_RCC_OscConfig+0x130>
 8002806:	4a60      	ldr	r2, [pc, #384]	@ (8002988 <HAL_RCC_OscConfig+0x294>)
 8002808:	6813      	ldr	r3, [r2, #0]
 800280a:	0799      	lsls	r1, r3, #30
 800280c:	d502      	bpl.n	8002814 <HAL_RCC_OscConfig+0x120>
 800280e:	68e3      	ldr	r3, [r4, #12]
 8002810:	2b01      	cmp	r3, #1
 8002812:	d1a6      	bne.n	8002762 <HAL_RCC_OscConfig+0x6e>
 8002814:	6813      	ldr	r3, [r2, #0]
 8002816:	6921      	ldr	r1, [r4, #16]
 8002818:	f023 03f8 	bic.w	r3, r3, #248	@ 0xf8
 800281c:	ea43 03c1 	orr.w	r3, r3, r1, lsl #3
 8002820:	6013      	str	r3, [r2, #0]
 8002822:	e772      	b.n	800270a <HAL_RCC_OscConfig+0x16>
 8002824:	68e2      	ldr	r2, [r4, #12]
 8002826:	4b59      	ldr	r3, [pc, #356]	@ (800298c <HAL_RCC_OscConfig+0x298>)
 8002828:	b1b2      	cbz	r2, 8002858 <HAL_RCC_OscConfig+0x164>
 800282a:	2201      	movs	r2, #1
 800282c:	601a      	str	r2, [r3, #0]
 800282e:	f7ff fbd9 	bl	8001fe4 <HAL_GetTick>
 8002832:	4d55      	ldr	r5, [pc, #340]	@ (8002988 <HAL_RCC_OscConfig+0x294>)
 8002834:	4606      	mov	r6, r0
 8002836:	682b      	ldr	r3, [r5, #0]
 8002838:	079b      	lsls	r3, r3, #30
 800283a:	d507      	bpl.n	800284c <HAL_RCC_OscConfig+0x158>
 800283c:	682b      	ldr	r3, [r5, #0]
 800283e:	6922      	ldr	r2, [r4, #16]
 8002840:	f023 03f8 	bic.w	r3, r3, #248	@ 0xf8
 8002844:	ea43 03c2 	orr.w	r3, r3, r2, lsl #3
 8002848:	602b      	str	r3, [r5, #0]
 800284a:	e75e      	b.n	800270a <HAL_RCC_OscConfig+0x16>
 800284c:	f7ff fbca 	bl	8001fe4 <HAL_GetTick>
 8002850:	1b80      	subs	r0, r0, r6
 8002852:	2802      	cmp	r0, #2
 8002854:	d9ef      	bls.n	8002836 <HAL_RCC_OscConfig+0x142>
 8002856:	e79a      	b.n	800278e <HAL_RCC_OscConfig+0x9a>
 8002858:	601a      	str	r2, [r3, #0]
 800285a:	f7ff fbc3 	bl	8001fe4 <HAL_GetTick>
 800285e:	4e4a      	ldr	r6, [pc, #296]	@ (8002988 <HAL_RCC_OscConfig+0x294>)
 8002860:	4605      	mov	r5, r0
 8002862:	6833      	ldr	r3, [r6, #0]
 8002864:	079f      	lsls	r7, r3, #30
 8002866:	f57f af50 	bpl.w	800270a <HAL_RCC_OscConfig+0x16>
 800286a:	f7ff fbbb 	bl	8001fe4 <HAL_GetTick>
 800286e:	1b40      	subs	r0, r0, r5
 8002870:	2802      	cmp	r0, #2
 8002872:	d9f6      	bls.n	8002862 <HAL_RCC_OscConfig+0x16e>
 8002874:	e78b      	b.n	800278e <HAL_RCC_OscConfig+0x9a>
 8002876:	6962      	ldr	r2, [r4, #20]
 8002878:	4b44      	ldr	r3, [pc, #272]	@ (800298c <HAL_RCC_OscConfig+0x298>)
 800287a:	b182      	cbz	r2, 800289e <HAL_RCC_OscConfig+0x1aa>
 800287c:	2201      	movs	r2, #1
 800287e:	f8c3 2e80 	str.w	r2, [r3, #3712]	@ 0xe80
 8002882:	f7ff fbaf 	bl	8001fe4 <HAL_GetTick>
 8002886:	4e40      	ldr	r6, [pc, #256]	@ (8002988 <HAL_RCC_OscConfig+0x294>)
 8002888:	4605      	mov	r5, r0
 800288a:	6f73      	ldr	r3, [r6, #116]	@ 0x74
 800288c:	079b      	lsls	r3, r3, #30
 800288e:	f53f af40 	bmi.w	8002712 <HAL_RCC_OscConfig+0x1e>
 8002892:	f7ff fba7 	bl	8001fe4 <HAL_GetTick>
 8002896:	1b40      	subs	r0, r0, r5
 8002898:	2802      	cmp	r0, #2
 800289a:	d9f6      	bls.n	800288a <HAL_RCC_OscConfig+0x196>
 800289c:	e777      	b.n	800278e <HAL_RCC_OscConfig+0x9a>
 800289e:	f8c3 2e80 	str.w	r2, [r3, #3712]	@ 0xe80
 80028a2:	f7ff fb9f 	bl	8001fe4 <HAL_GetTick>
 80028a6:	4e38      	ldr	r6, [pc, #224]	@ (8002988 <HAL_RCC_OscConfig+0x294>)
 80028a8:	4605      	mov	r5, r0
 80028aa:	6f73      	ldr	r3, [r6, #116]	@ 0x74
 80028ac:	079f      	lsls	r7, r3, #30
 80028ae:	f57f af30 	bpl.w	8002712 <HAL_RCC_OscConfig+0x1e>
 80028b2:	f7ff fb97 	bl	8001fe4 <HAL_GetTick>
 80028b6:	1b40      	subs	r0, r0, r5
 80028b8:	2802      	cmp	r0, #2
 80028ba:	d9f6      	bls.n	80028aa <HAL_RCC_OscConfig+0x1b6>
 80028bc:	e767      	b.n	800278e <HAL_RCC_OscConfig+0x9a>
 80028be:	4b32      	ldr	r3, [pc, #200]	@ (8002988 <HAL_RCC_OscConfig+0x294>)
 80028c0:	6c1a      	ldr	r2, [r3, #64]	@ 0x40
 80028c2:	f012 5280 	ands.w	r2, r2, #268435456	@ 0x10000000
 80028c6:	d128      	bne.n	800291a <HAL_RCC_OscConfig+0x226>
 80028c8:	9201      	str	r2, [sp, #4]
 80028ca:	6c1a      	ldr	r2, [r3, #64]	@ 0x40
 80028cc:	f042 5280 	orr.w	r2, r2, #268435456	@ 0x10000000
 80028d0:	641a      	str	r2, [r3, #64]	@ 0x40
 80028d2:	6c1b      	ldr	r3, [r3, #64]	@ 0x40
 80028d4:	f003 5380 	and.w	r3, r3, #268435456	@ 0x10000000
 80028d8:	9301      	str	r3, [sp, #4]
 80028da:	9b01      	ldr	r3, [sp, #4]
 80028dc:	2701      	movs	r7, #1
 80028de:	4d2c      	ldr	r5, [pc, #176]	@ (8002990 <HAL_RCC_OscConfig+0x29c>)
 80028e0:	682b      	ldr	r3, [r5, #0]
 80028e2:	05d8      	lsls	r0, r3, #23
 80028e4:	d51b      	bpl.n	800291e <HAL_RCC_OscConfig+0x22a>
 80028e6:	68a3      	ldr	r3, [r4, #8]
 80028e8:	4d27      	ldr	r5, [pc, #156]	@ (8002988 <HAL_RCC_OscConfig+0x294>)
 80028ea:	2b01      	cmp	r3, #1
 80028ec:	d127      	bne.n	800293e <HAL_RCC_OscConfig+0x24a>
 80028ee:	6f2b      	ldr	r3, [r5, #112]	@ 0x70
 80028f0:	f043 0301 	orr.w	r3, r3, #1
 80028f4:	672b      	str	r3, [r5, #112]	@ 0x70
 80028f6:	f7ff fb75 	bl	8001fe4 <HAL_GetTick>
 80028fa:	4e23      	ldr	r6, [pc, #140]	@ (8002988 <HAL_RCC_OscConfig+0x294>)
 80028fc:	4605      	mov	r5, r0
 80028fe:	f241 3888 	movw	r8, #5000	@ 0x1388
 8002902:	6f33      	ldr	r3, [r6, #112]	@ 0x70
 8002904:	079a      	lsls	r2, r3, #30
 8002906:	d539      	bpl.n	800297c <HAL_RCC_OscConfig+0x288>
 8002908:	2f00      	cmp	r7, #0
 800290a:	f43f af06 	beq.w	800271a <HAL_RCC_OscConfig+0x26>
 800290e:	4a1e      	ldr	r2, [pc, #120]	@ (8002988 <HAL_RCC_OscConfig+0x294>)
 8002910:	6c13      	ldr	r3, [r2, #64]	@ 0x40
 8002912:	f023 5380 	bic.w	r3, r3, #268435456	@ 0x10000000
 8002916:	6413      	str	r3, [r2, #64]	@ 0x40
 8002918:	e6ff      	b.n	800271a <HAL_RCC_OscConfig+0x26>
 800291a:	2700      	movs	r7, #0
 800291c:	e7df      	b.n	80028de <HAL_RCC_OscConfig+0x1ea>
 800291e:	682b      	ldr	r3, [r5, #0]
 8002920:	f443 7380 	orr.w	r3, r3, #256	@ 0x100
 8002924:	602b      	str	r3, [r5, #0]
 8002926:	f7ff fb5d 	bl	8001fe4 <HAL_GetTick>
 800292a:	4606      	mov	r6, r0
 800292c:	682b      	ldr	r3, [r5, #0]
 800292e:	05d9      	lsls	r1, r3, #23
 8002930:	d4d9      	bmi.n	80028e6 <HAL_RCC_OscConfig+0x1f2>
 8002932:	f7ff fb57 	bl	8001fe4 <HAL_GetTick>
 8002936:	1b80      	subs	r0, r0, r6
 8002938:	2802      	cmp	r0, #2
 800293a:	d9f7      	bls.n	800292c <HAL_RCC_OscConfig+0x238>
 800293c:	e727      	b.n	800278e <HAL_RCC_OscConfig+0x9a>
 800293e:	2b05      	cmp	r3, #5
 8002940:	d104      	bne.n	800294c <HAL_RCC_OscConfig+0x258>
 8002942:	6f2b      	ldr	r3, [r5, #112]	@ 0x70
 8002944:	f043 0304 	orr.w	r3, r3, #4
 8002948:	672b      	str	r3, [r5, #112]	@ 0x70
 800294a:	e7d0      	b.n	80028ee <HAL_RCC_OscConfig+0x1fa>
 800294c:	6f2a      	ldr	r2, [r5, #112]	@ 0x70
 800294e:	f022 0201 	bic.w	r2, r2, #1
 8002952:	672a      	str	r2, [r5, #112]	@ 0x70
 8002954:	6f2a      	ldr	r2, [r5, #112]	@ 0x70
 8002956:	f022 0204 	bic.w	r2, r2, #4
 800295a:	672a      	str	r2, [r5, #112]	@ 0x70
 800295c:	2b00      	cmp	r3, #0
 800295e:	d1ca      	bne.n	80028f6 <HAL_RCC_OscConfig+0x202>
 8002960:	f7ff fb40 	bl	8001fe4 <HAL_GetTick>
 8002964:	f241 3888 	movw	r8, #5000	@ 0x1388
 8002968:	4606      	mov	r6, r0
 800296a:	6f2b      	ldr	r3, [r5, #112]	@ 0x70
 800296c:	079b      	lsls	r3, r3, #30
 800296e:	d5cb      	bpl.n	8002908 <HAL_RCC_OscConfig+0x214>
 8002970:	f7ff fb38 	bl	8001fe4 <HAL_GetTick>
 8002974:	1b80      	subs	r0, r0, r6
 8002976:	4540      	cmp	r0, r8
 8002978:	d9f7      	bls.n	800296a <HAL_RCC_OscConfig+0x276>
 800297a:	e708      	b.n	800278e <HAL_RCC_OscConfig+0x9a>
 800297c:	f7ff fb32 	bl	8001fe4 <HAL_GetTick>
 8002980:	1b40      	subs	r0, r0, r5
 8002982:	4540      	cmp	r0, r8
 8002984:	d9bd      	bls.n	8002902 <HAL_RCC_OscConfig+0x20e>
 8002986:	e702      	b.n	800278e <HAL_RCC_OscConfig+0x9a>
 8002988:	40023800 	.word	0x40023800
 800298c:	42470000 	.word	0x42470000
 8002990:	40007000 	.word	0x40007000
 8002994:	4d3c      	ldr	r5, [pc, #240]	@ (8002a88 <HAL_RCC_OscConfig+0x394>)
 8002996:	68aa      	ldr	r2, [r5, #8]
 8002998:	f002 020c 	and.w	r2, r2, #12
 800299c:	2a08      	cmp	r2, #8
 800299e:	d041      	beq.n	8002a24 <HAL_RCC_OscConfig+0x330>
 80029a0:	2b02      	cmp	r3, #2
 80029a2:	4b3a      	ldr	r3, [pc, #232]	@ (8002a8c <HAL_RCC_OscConfig+0x398>)
 80029a4:	f04f 0200 	mov.w	r2, #0
 80029a8:	661a      	str	r2, [r3, #96]	@ 0x60
 80029aa:	d12e      	bne.n	8002a0a <HAL_RCC_OscConfig+0x316>
 80029ac:	f7ff fb1a 	bl	8001fe4 <HAL_GetTick>
 80029b0:	4606      	mov	r6, r0
 80029b2:	682b      	ldr	r3, [r5, #0]
 80029b4:	0199      	lsls	r1, r3, #6
 80029b6:	d422      	bmi.n	80029fe <HAL_RCC_OscConfig+0x30a>
 80029b8:	e9d4 3207 	ldrd	r3, r2, [r4, #28]
 80029bc:	4313      	orrs	r3, r2
 80029be:	6a62      	ldr	r2, [r4, #36]	@ 0x24
 80029c0:	ea43 1382 	orr.w	r3, r3, r2, lsl #6
 80029c4:	6ae2      	ldr	r2, [r4, #44]	@ 0x2c
 80029c6:	ea43 6302 	orr.w	r3, r3, r2, lsl #24
 80029ca:	6b22      	ldr	r2, [r4, #48]	@ 0x30
 80029cc:	ea43 7302 	orr.w	r3, r3, r2, lsl #28
 80029d0:	6aa2      	ldr	r2, [r4, #40]	@ 0x28
 80029d2:	0852      	lsrs	r2, r2, #1
 80029d4:	3a01      	subs	r2, #1
 80029d6:	ea43 4302 	orr.w	r3, r3, r2, lsl #16
 80029da:	606b      	str	r3, [r5, #4]
 80029dc:	4b2b      	ldr	r3, [pc, #172]	@ (8002a8c <HAL_RCC_OscConfig+0x398>)
 80029de:	4d2a      	ldr	r5, [pc, #168]	@ (8002a88 <HAL_RCC_OscConfig+0x394>)
 80029e0:	2201      	movs	r2, #1
 80029e2:	661a      	str	r2, [r3, #96]	@ 0x60
 80029e4:	f7ff fafe 	bl	8001fe4 <HAL_GetTick>
 80029e8:	4604      	mov	r4, r0
 80029ea:	682b      	ldr	r3, [r5, #0]
 80029ec:	019a      	lsls	r2, r3, #6
 80029ee:	f53f ae98 	bmi.w	8002722 <HAL_RCC_OscConfig+0x2e>
 80029f2:	f7ff faf7 	bl	8001fe4 <HAL_GetTick>
 80029f6:	1b00      	subs	r0, r0, r4
 80029f8:	2802      	cmp	r0, #2
 80029fa:	d9f6      	bls.n	80029ea <HAL_RCC_OscConfig+0x2f6>
 80029fc:	e6c7      	b.n	800278e <HAL_RCC_OscConfig+0x9a>
 80029fe:	f7ff faf1 	bl	8001fe4 <HAL_GetTick>
 8002a02:	1b80      	subs	r0, r0, r6
 8002a04:	2802      	cmp	r0, #2
 8002a06:	d9d4      	bls.n	80029b2 <HAL_RCC_OscConfig+0x2be>
 8002a08:	e6c1      	b.n	800278e <HAL_RCC_OscConfig+0x9a>
 8002a0a:	f7ff faeb 	bl	8001fe4 <HAL_GetTick>
 8002a0e:	4604      	mov	r4, r0
 8002a10:	682b      	ldr	r3, [r5, #0]
 8002a12:	019b      	lsls	r3, r3, #6
 8002a14:	f57f ae85 	bpl.w	8002722 <HAL_RCC_OscConfig+0x2e>
 8002a18:	f7ff fae4 	bl	8001fe4 <HAL_GetTick>
 8002a1c:	1b00      	subs	r0, r0, r4
 8002a1e:	2802      	cmp	r0, #2
 8002a20:	d9f6      	bls.n	8002a10 <HAL_RCC_OscConfig+0x31c>
 8002a22:	e6b4      	b.n	800278e <HAL_RCC_OscConfig+0x9a>
 8002a24:	2b01      	cmp	r3, #1
 8002a26:	f43f ae9c 	beq.w	8002762 <HAL_RCC_OscConfig+0x6e>
 8002a2a:	686b      	ldr	r3, [r5, #4]
 8002a2c:	69e2      	ldr	r2, [r4, #28]
 8002a2e:	f403 0180 	and.w	r1, r3, #4194304	@ 0x400000
 8002a32:	4291      	cmp	r1, r2
 8002a34:	f47f ae95 	bne.w	8002762 <HAL_RCC_OscConfig+0x6e>
 8002a38:	6a21      	ldr	r1, [r4, #32]
 8002a3a:	f003 023f 	and.w	r2, r3, #63	@ 0x3f
 8002a3e:	428a      	cmp	r2, r1
 8002a40:	f47f ae8f 	bne.w	8002762 <HAL_RCC_OscConfig+0x6e>
 8002a44:	6a61      	ldr	r1, [r4, #36]	@ 0x24
 8002a46:	f647 72c0 	movw	r2, #32704	@ 0x7fc0
 8002a4a:	401a      	ands	r2, r3
 8002a4c:	ebb2 1f81 	cmp.w	r2, r1, lsl #6
 8002a50:	f47f ae87 	bne.w	8002762 <HAL_RCC_OscConfig+0x6e>
 8002a54:	6aa2      	ldr	r2, [r4, #40]	@ 0x28
 8002a56:	0852      	lsrs	r2, r2, #1
 8002a58:	f403 3140 	and.w	r1, r3, #196608	@ 0x30000
 8002a5c:	3a01      	subs	r2, #1
 8002a5e:	ebb1 4f02 	cmp.w	r1, r2, lsl #16
 8002a62:	f47f ae7e 	bne.w	8002762 <HAL_RCC_OscConfig+0x6e>
 8002a66:	6ae1      	ldr	r1, [r4, #44]	@ 0x2c
 8002a68:	f003 6270 	and.w	r2, r3, #251658240	@ 0xf000000
 8002a6c:	ebb2 6f01 	cmp.w	r2, r1, lsl #24
 8002a70:	f47f ae77 	bne.w	8002762 <HAL_RCC_OscConfig+0x6e>
 8002a74:	6b22      	ldr	r2, [r4, #48]	@ 0x30
 8002a76:	f003 43e0 	and.w	r3, r3, #1879048192	@ 0x70000000
 8002a7a:	ebb3 7f02 	cmp.w	r3, r2, lsl #28
 8002a7e:	bf14      	ite	ne
 8002a80:	2001      	movne	r0, #1
 8002a82:	2000      	moveq	r0, #0
 8002a84:	e684      	b.n	8002790 <HAL_RCC_OscConfig+0x9c>
 8002a86:	bf00      	nop
 8002a88:	40023800 	.word	0x40023800
 8002a8c:	42470000 	.word	0x42470000

08002a90 <SPI_WaitFlagStateUntilTimeout>:
 8002a90:	e92d 47f3 	stmdb	sp!, {r0, r1, r4, r5, r6, r7, r8, r9, sl, lr}
 8002a94:	461f      	mov	r7, r3
 8002a96:	4689      	mov	r9, r1
 8002a98:	4690      	mov	r8, r2
 8002a9a:	4604      	mov	r4, r0
 8002a9c:	f7ff faa2 	bl	8001fe4 <HAL_GetTick>
 8002aa0:	9d0a      	ldr	r5, [sp, #40]	@ 0x28
 8002aa2:	443d      	add	r5, r7
 8002aa4:	1a2d      	subs	r5, r5, r0
 8002aa6:	f7ff fa9d 	bl	8001fe4 <HAL_GetTick>
 8002aaa:	4b26      	ldr	r3, [pc, #152]	@ (8002b44 <SPI_WaitFlagStateUntilTimeout+0xb4>)
 8002aac:	681e      	ldr	r6, [r3, #0]
 8002aae:	f3c6 36cb 	ubfx	r6, r6, #15, #12
 8002ab2:	436e      	muls	r6, r5
 8002ab4:	4682      	mov	sl, r0
 8002ab6:	9601      	str	r6, [sp, #4]
 8002ab8:	6822      	ldr	r2, [r4, #0]
 8002aba:	6893      	ldr	r3, [r2, #8]
 8002abc:	ea39 0303 	bics.w	r3, r9, r3
 8002ac0:	bf0c      	ite	eq
 8002ac2:	2301      	moveq	r3, #1
 8002ac4:	2300      	movne	r3, #0
 8002ac6:	4543      	cmp	r3, r8
 8002ac8:	d101      	bne.n	8002ace <SPI_WaitFlagStateUntilTimeout+0x3e>
 8002aca:	2000      	movs	r0, #0
 8002acc:	e02e      	b.n	8002b2c <SPI_WaitFlagStateUntilTimeout+0x9c>
 8002ace:	1c7b      	adds	r3, r7, #1
 8002ad0:	d0f3      	beq.n	8002aba <SPI_WaitFlagStateUntilTimeout+0x2a>
 8002ad2:	f7ff fa87 	bl	8001fe4 <HAL_GetTick>
 8002ad6:	eba0 000a 	sub.w	r0, r0, sl
 8002ada:	42a8      	cmp	r0, r5
 8002adc:	d329      	bcc.n	8002b32 <SPI_WaitFlagStateUntilTimeout+0xa2>
 8002ade:	6823      	ldr	r3, [r4, #0]
 8002ae0:	685a      	ldr	r2, [r3, #4]
 8002ae2:	f022 02e0 	bic.w	r2, r2, #224	@ 0xe0
 8002ae6:	605a      	str	r2, [r3, #4]
 8002ae8:	6862      	ldr	r2, [r4, #4]
 8002aea:	f5b2 7f82 	cmp.w	r2, #260	@ 0x104
 8002aee:	d10a      	bne.n	8002b06 <SPI_WaitFlagStateUntilTimeout+0x76>
 8002af0:	68a2      	ldr	r2, [r4, #8]
 8002af2:	f5b2 4f00 	cmp.w	r2, #32768	@ 0x8000
 8002af6:	d002      	beq.n	8002afe <SPI_WaitFlagStateUntilTimeout+0x6e>
 8002af8:	f5b2 6f80 	cmp.w	r2, #1024	@ 0x400
 8002afc:	d103      	bne.n	8002b06 <SPI_WaitFlagStateUntilTimeout+0x76>
 8002afe:	681a      	ldr	r2, [r3, #0]
 8002b00:	f022 0240 	bic.w	r2, r2, #64	@ 0x40
 8002b04:	601a      	str	r2, [r3, #0]
 8002b06:	6aa2      	ldr	r2, [r4, #40]	@ 0x28
 8002b08:	f5b2 5f00 	cmp.w	r2, #8192	@ 0x2000
 8002b0c:	d107      	bne.n	8002b1e <SPI_WaitFlagStateUntilTimeout+0x8e>
 8002b0e:	681a      	ldr	r2, [r3, #0]
 8002b10:	f422 5200 	bic.w	r2, r2, #8192	@ 0x2000
 8002b14:	601a      	str	r2, [r3, #0]
 8002b16:	681a      	ldr	r2, [r3, #0]
 8002b18:	f442 5200 	orr.w	r2, r2, #8192	@ 0x2000
 8002b1c:	601a      	str	r2, [r3, #0]
 8002b1e:	2301      	movs	r3, #1
 8002b20:	f884 3051 	strb.w	r3, [r4, #81]	@ 0x51
 8002b24:	2300      	movs	r3, #0
 8002b26:	f884 3050 	strb.w	r3, [r4, #80]	@ 0x50
 8002b2a:	2003      	movs	r0, #3
 8002b2c:	b002      	add	sp, #8
 8002b2e:	e8bd 87f0 	ldmia.w	sp!, {r4, r5, r6, r7, r8, r9, sl, pc}
 8002b32:	9a01      	ldr	r2, [sp, #4]
 8002b34:	9b01      	ldr	r3, [sp, #4]
 8002b36:	2a00      	cmp	r2, #0
 8002b38:	f103 33ff 	add.w	r3, r3, #4294967295
 8002b3c:	9301      	str	r3, [sp, #4]
 8002b3e:	bf08      	it	eq
 8002b40:	4615      	moveq	r5, r2
 8002b42:	e7b9      	b.n	8002ab8 <SPI_WaitFlagStateUntilTimeout+0x28>
 8002b44:	20000004 	.word	0x20000004

08002b48 <SPI_EndRxTxTransaction>:
 8002b48:	b5f0      	push	{r4, r5, r6, r7, lr}
 8002b4a:	b085      	sub	sp, #20
 8002b4c:	460b      	mov	r3, r1
 8002b4e:	9200      	str	r2, [sp, #0]
 8002b50:	460e      	mov	r6, r1
 8002b52:	4617      	mov	r7, r2
 8002b54:	2102      	movs	r1, #2
 8002b56:	2201      	movs	r2, #1
 8002b58:	4604      	mov	r4, r0
 8002b5a:	f7ff ff99 	bl	8002a90 <SPI_WaitFlagStateUntilTimeout>
 8002b5e:	4605      	mov	r5, r0
 8002b60:	b128      	cbz	r0, 8002b6e <SPI_EndRxTxTransaction+0x26>
 8002b62:	6d63      	ldr	r3, [r4, #84]	@ 0x54
 8002b64:	f043 0320 	orr.w	r3, r3, #32
 8002b68:	6563      	str	r3, [r4, #84]	@ 0x54
 8002b6a:	2503      	movs	r5, #3
 8002b6c:	e015      	b.n	8002b9a <SPI_EndRxTxTransaction+0x52>
 8002b6e:	4b12      	ldr	r3, [pc, #72]	@ (8002bb8 <SPI_EndRxTxTransaction+0x70>)
 8002b70:	6818      	ldr	r0, [r3, #0]
 8002b72:	4b12      	ldr	r3, [pc, #72]	@ (8002bbc <SPI_EndRxTxTransaction+0x74>)
 8002b74:	fbb0 f0f3 	udiv	r0, r0, r3
 8002b78:	f44f 737a 	mov.w	r3, #1000	@ 0x3e8
 8002b7c:	4358      	muls	r0, r3
 8002b7e:	6863      	ldr	r3, [r4, #4]
 8002b80:	9003      	str	r0, [sp, #12]
 8002b82:	f5b3 7f82 	cmp.w	r3, #260	@ 0x104
 8002b86:	d10b      	bne.n	8002ba0 <SPI_EndRxTxTransaction+0x58>
 8002b88:	9700      	str	r7, [sp, #0]
 8002b8a:	4633      	mov	r3, r6
 8002b8c:	462a      	mov	r2, r5
 8002b8e:	2180      	movs	r1, #128	@ 0x80
 8002b90:	4620      	mov	r0, r4
 8002b92:	f7ff ff7d 	bl	8002a90 <SPI_WaitFlagStateUntilTimeout>
 8002b96:	2800      	cmp	r0, #0
 8002b98:	d1e3      	bne.n	8002b62 <SPI_EndRxTxTransaction+0x1a>
 8002b9a:	4628      	mov	r0, r5
 8002b9c:	b005      	add	sp, #20
 8002b9e:	bdf0      	pop	{r4, r5, r6, r7, pc}
 8002ba0:	9b03      	ldr	r3, [sp, #12]
 8002ba2:	2b00      	cmp	r3, #0
 8002ba4:	d0f9      	beq.n	8002b9a <SPI_EndRxTxTransaction+0x52>
 8002ba6:	9b03      	ldr	r3, [sp, #12]
 8002ba8:	3b01      	subs	r3, #1
 8002baa:	9303      	str	r3, [sp, #12]
 8002bac:	6823      	ldr	r3, [r4, #0]
 8002bae:	689b      	ldr	r3, [r3, #8]
 8002bb0:	061b      	lsls	r3, r3, #24
 8002bb2:	d4f5      	bmi.n	8002ba0 <SPI_EndRxTxTransaction+0x58>
 8002bb4:	e7f1      	b.n	8002b9a <SPI_EndRxTxTransaction+0x52>
 8002bb6:	bf00      	nop
 8002bb8:	20000004 	.word	0x20000004
 8002bbc:	016e3600 	.word	0x016e3600

08002bc0 <SPI_EndRxTransaction>:
 8002bc0:	b537      	push	{r0, r1, r2, r4, r5, lr}
 8002bc2:	460b      	mov	r3, r1
 8002bc4:	6841      	ldr	r1, [r0, #4]
 8002bc6:	f5b1 7f82 	cmp.w	r1, #260	@ 0x104
 8002bca:	4604      	mov	r4, r0
 8002bcc:	d008      	beq.n	8002be0 <SPI_EndRxTransaction+0x20>
 8002bce:	9200      	str	r2, [sp, #0]
 8002bd0:	2101      	movs	r1, #1
 8002bd2:	2200      	movs	r2, #0
 8002bd4:	f7ff ff5c 	bl	8002a90 <SPI_WaitFlagStateUntilTimeout>
 8002bd8:	b9d0      	cbnz	r0, 8002c10 <SPI_EndRxTransaction+0x50>
 8002bda:	2000      	movs	r0, #0
 8002bdc:	b003      	add	sp, #12
 8002bde:	bd30      	pop	{r4, r5, pc}
 8002be0:	6881      	ldr	r1, [r0, #8]
 8002be2:	f5b1 4f00 	cmp.w	r1, #32768	@ 0x8000
 8002be6:	d002      	beq.n	8002bee <SPI_EndRxTransaction+0x2e>
 8002be8:	f5b1 6f80 	cmp.w	r1, #1024	@ 0x400
 8002bec:	d107      	bne.n	8002bfe <SPI_EndRxTransaction+0x3e>
 8002bee:	6825      	ldr	r5, [r4, #0]
 8002bf0:	6828      	ldr	r0, [r5, #0]
 8002bf2:	f5b1 6f80 	cmp.w	r1, #1024	@ 0x400
 8002bf6:	f020 0040 	bic.w	r0, r0, #64	@ 0x40
 8002bfa:	6028      	str	r0, [r5, #0]
 8002bfc:	d004      	beq.n	8002c08 <SPI_EndRxTransaction+0x48>
 8002bfe:	9200      	str	r2, [sp, #0]
 8002c00:	2180      	movs	r1, #128	@ 0x80
 8002c02:	2200      	movs	r2, #0
 8002c04:	4620      	mov	r0, r4
 8002c06:	e7e5      	b.n	8002bd4 <SPI_EndRxTransaction+0x14>
 8002c08:	9200      	str	r2, [sp, #0]
 8002c0a:	2101      	movs	r1, #1
 8002c0c:	2200      	movs	r2, #0
 8002c0e:	e7f9      	b.n	8002c04 <SPI_EndRxTransaction+0x44>
 8002c10:	6d63      	ldr	r3, [r4, #84]	@ 0x54
 8002c12:	f043 0320 	orr.w	r3, r3, #32
 8002c16:	6563      	str	r3, [r4, #84]	@ 0x54
 8002c18:	2003      	movs	r0, #3
 8002c1a:	e7df      	b.n	8002bdc <SPI_EndRxTransaction+0x1c>

08002c1c <HAL_SPI_Init>:
 8002c1c:	b510      	push	{r4, lr}
 8002c1e:	4604      	mov	r4, r0
 8002c20:	2800      	cmp	r0, #0
 8002c22:	d055      	beq.n	8002cd0 <HAL_SPI_Init+0xb4>
 8002c24:	6a43      	ldr	r3, [r0, #36]	@ 0x24
 8002c26:	2b00      	cmp	r3, #0
 8002c28:	d14e      	bne.n	8002cc8 <HAL_SPI_Init+0xac>
 8002c2a:	6842      	ldr	r2, [r0, #4]
 8002c2c:	f5b2 7f82 	cmp.w	r2, #260	@ 0x104
 8002c30:	d000      	beq.n	8002c34 <HAL_SPI_Init+0x18>
 8002c32:	61c3      	str	r3, [r0, #28]
 8002c34:	2300      	movs	r3, #0
 8002c36:	62a3      	str	r3, [r4, #40]	@ 0x28
 8002c38:	f894 3051 	ldrb.w	r3, [r4, #81]	@ 0x51
 8002c3c:	f003 02ff 	and.w	r2, r3, #255	@ 0xff
 8002c40:	b923      	cbnz	r3, 8002c4c <HAL_SPI_Init+0x30>
 8002c42:	f884 2050 	strb.w	r2, [r4, #80]	@ 0x50
 8002c46:	4620      	mov	r0, r4
 8002c48:	f7ff f8ac 	bl	8001da4 <HAL_SPI_MspInit>
 8002c4c:	6821      	ldr	r1, [r4, #0]
 8002c4e:	68a0      	ldr	r0, [r4, #8]
 8002c50:	69a2      	ldr	r2, [r4, #24]
 8002c52:	2302      	movs	r3, #2
 8002c54:	f884 3051 	strb.w	r3, [r4, #81]	@ 0x51
 8002c58:	680b      	ldr	r3, [r1, #0]
 8002c5a:	f023 0340 	bic.w	r3, r3, #64	@ 0x40
 8002c5e:	600b      	str	r3, [r1, #0]
 8002c60:	6863      	ldr	r3, [r4, #4]
 8002c62:	f400 4004 	and.w	r0, r0, #33792	@ 0x8400
 8002c66:	f403 7382 	and.w	r3, r3, #260	@ 0x104
 8002c6a:	4303      	orrs	r3, r0
 8002c6c:	68e0      	ldr	r0, [r4, #12]
 8002c6e:	f400 6000 	and.w	r0, r0, #2048	@ 0x800
 8002c72:	4303      	orrs	r3, r0
 8002c74:	6920      	ldr	r0, [r4, #16]
 8002c76:	f000 0002 	and.w	r0, r0, #2
 8002c7a:	4303      	orrs	r3, r0
 8002c7c:	6960      	ldr	r0, [r4, #20]
 8002c7e:	f000 0001 	and.w	r0, r0, #1
 8002c82:	4303      	orrs	r3, r0
 8002c84:	f402 7000 	and.w	r0, r2, #512	@ 0x200
 8002c88:	4303      	orrs	r3, r0
 8002c8a:	69e0      	ldr	r0, [r4, #28]
 8002c8c:	f000 0038 	and.w	r0, r0, #56	@ 0x38
 8002c90:	4303      	orrs	r3, r0
 8002c92:	6a20      	ldr	r0, [r4, #32]
 8002c94:	f000 0080 	and.w	r0, r0, #128	@ 0x80
 8002c98:	4303      	orrs	r3, r0
 8002c9a:	6aa0      	ldr	r0, [r4, #40]	@ 0x28
 8002c9c:	f400 5000 	and.w	r0, r0, #8192	@ 0x2000
 8002ca0:	4303      	orrs	r3, r0
 8002ca2:	600b      	str	r3, [r1, #0]
 8002ca4:	6a63      	ldr	r3, [r4, #36]	@ 0x24
 8002ca6:	0c12      	lsrs	r2, r2, #16
 8002ca8:	f003 0310 	and.w	r3, r3, #16
 8002cac:	f002 0204 	and.w	r2, r2, #4
 8002cb0:	431a      	orrs	r2, r3
 8002cb2:	604a      	str	r2, [r1, #4]
 8002cb4:	69cb      	ldr	r3, [r1, #28]
 8002cb6:	f423 6300 	bic.w	r3, r3, #2048	@ 0x800
 8002cba:	61cb      	str	r3, [r1, #28]
 8002cbc:	2000      	movs	r0, #0
 8002cbe:	2301      	movs	r3, #1
 8002cc0:	6560      	str	r0, [r4, #84]	@ 0x54
 8002cc2:	f884 3051 	strb.w	r3, [r4, #81]	@ 0x51
 8002cc6:	bd10      	pop	{r4, pc}
 8002cc8:	2300      	movs	r3, #0
 8002cca:	e9c0 3304 	strd	r3, r3, [r0, #16]
 8002cce:	e7b1      	b.n	8002c34 <HAL_SPI_Init+0x18>
 8002cd0:	2001      	movs	r0, #1
 8002cd2:	e7f8      	b.n	8002cc6 <HAL_SPI_Init+0xaa>

08002cd4 <HAL_SPI_Transmit>:
 8002cd4:	e92d 43f7 	stmdb	sp!, {r0, r1, r2, r4, r5, r6, r7, r8, r9, lr}
 8002cd8:	4604      	mov	r4, r0
 8002cda:	461f      	mov	r7, r3
 8002cdc:	460d      	mov	r5, r1
 8002cde:	4690      	mov	r8, r2
 8002ce0:	f7ff f980 	bl	8001fe4 <HAL_GetTick>
 8002ce4:	f894 3051 	ldrb.w	r3, [r4, #81]	@ 0x51
 8002ce8:	2b01      	cmp	r3, #1
 8002cea:	4681      	mov	r9, r0
 8002cec:	b2d8      	uxtb	r0, r3
 8002cee:	f040 809f 	bne.w	8002e30 <HAL_SPI_Transmit+0x15c>
 8002cf2:	2d00      	cmp	r5, #0
 8002cf4:	d074      	beq.n	8002de0 <HAL_SPI_Transmit+0x10c>
 8002cf6:	f1b8 0f00 	cmp.w	r8, #0
 8002cfa:	d071      	beq.n	8002de0 <HAL_SPI_Transmit+0x10c>
 8002cfc:	f894 3050 	ldrb.w	r3, [r4, #80]	@ 0x50
 8002d00:	2b01      	cmp	r3, #1
 8002d02:	f000 8095 	beq.w	8002e30 <HAL_SPI_Transmit+0x15c>
 8002d06:	2303      	movs	r3, #3
 8002d08:	f884 3051 	strb.w	r3, [r4, #81]	@ 0x51
 8002d0c:	2300      	movs	r3, #0
 8002d0e:	6563      	str	r3, [r4, #84]	@ 0x54
 8002d10:	e9c4 3310 	strd	r3, r3, [r4, #64]	@ 0x40
 8002d14:	f8a4 8036 	strh.w	r8, [r4, #54]	@ 0x36
 8002d18:	63a3      	str	r3, [r4, #56]	@ 0x38
 8002d1a:	87a3      	strh	r3, [r4, #60]	@ 0x3c
 8002d1c:	87e3      	strh	r3, [r4, #62]	@ 0x3e
 8002d1e:	68a3      	ldr	r3, [r4, #8]
 8002d20:	6826      	ldr	r6, [r4, #0]
 8002d22:	f884 0050 	strb.w	r0, [r4, #80]	@ 0x50
 8002d26:	f5b3 4f00 	cmp.w	r3, #32768	@ 0x8000
 8002d2a:	6325      	str	r5, [r4, #48]	@ 0x30
 8002d2c:	f8a4 8034 	strh.w	r8, [r4, #52]	@ 0x34
 8002d30:	d107      	bne.n	8002d42 <HAL_SPI_Transmit+0x6e>
 8002d32:	6833      	ldr	r3, [r6, #0]
 8002d34:	f023 0340 	bic.w	r3, r3, #64	@ 0x40
 8002d38:	6033      	str	r3, [r6, #0]
 8002d3a:	6833      	ldr	r3, [r6, #0]
 8002d3c:	f443 4380 	orr.w	r3, r3, #16384	@ 0x4000
 8002d40:	6033      	str	r3, [r6, #0]
 8002d42:	6833      	ldr	r3, [r6, #0]
 8002d44:	68e2      	ldr	r2, [r4, #12]
 8002d46:	065b      	lsls	r3, r3, #25
 8002d48:	bf5e      	ittt	pl
 8002d4a:	6833      	ldrpl	r3, [r6, #0]
 8002d4c:	f043 0340 	orrpl.w	r3, r3, #64	@ 0x40
 8002d50:	6033      	strpl	r3, [r6, #0]
 8002d52:	f5b2 6f00 	cmp.w	r2, #2048	@ 0x800
 8002d56:	6863      	ldr	r3, [r4, #4]
 8002d58:	d145      	bne.n	8002de6 <HAL_SPI_Transmit+0x112>
 8002d5a:	b113      	cbz	r3, 8002d62 <HAL_SPI_Transmit+0x8e>
 8002d5c:	f1b8 0f01 	cmp.w	r8, #1
 8002d60:	d107      	bne.n	8002d72 <HAL_SPI_Transmit+0x9e>
 8002d62:	f835 3b02 	ldrh.w	r3, [r5], #2
 8002d66:	60f3      	str	r3, [r6, #12]
 8002d68:	6325      	str	r5, [r4, #48]	@ 0x30
 8002d6a:	8ee3      	ldrh	r3, [r4, #54]	@ 0x36
 8002d6c:	3b01      	subs	r3, #1
 8002d6e:	b29b      	uxth	r3, r3
 8002d70:	86e3      	strh	r3, [r4, #54]	@ 0x36
 8002d72:	8ee3      	ldrh	r3, [r4, #54]	@ 0x36
 8002d74:	b29b      	uxth	r3, r3
 8002d76:	b9d3      	cbnz	r3, 8002dae <HAL_SPI_Transmit+0xda>
 8002d78:	464a      	mov	r2, r9
 8002d7a:	4639      	mov	r1, r7
 8002d7c:	4620      	mov	r0, r4
 8002d7e:	f7ff fee3 	bl	8002b48 <SPI_EndRxTxTransaction>
 8002d82:	2800      	cmp	r0, #0
 8002d84:	d151      	bne.n	8002e2a <HAL_SPI_Transmit+0x156>
 8002d86:	68a3      	ldr	r3, [r4, #8]
 8002d88:	b933      	cbnz	r3, 8002d98 <HAL_SPI_Transmit+0xc4>
 8002d8a:	9301      	str	r3, [sp, #4]
 8002d8c:	6823      	ldr	r3, [r4, #0]
 8002d8e:	68da      	ldr	r2, [r3, #12]
 8002d90:	9201      	str	r2, [sp, #4]
 8002d92:	689b      	ldr	r3, [r3, #8]
 8002d94:	9301      	str	r3, [sp, #4]
 8002d96:	9b01      	ldr	r3, [sp, #4]
 8002d98:	2301      	movs	r3, #1
 8002d9a:	f884 3051 	strb.w	r3, [r4, #81]	@ 0x51
 8002d9e:	6d60      	ldr	r0, [r4, #84]	@ 0x54
 8002da0:	2300      	movs	r3, #0
 8002da2:	1ac0      	subs	r0, r0, r3
 8002da4:	f884 3050 	strb.w	r3, [r4, #80]	@ 0x50
 8002da8:	bf18      	it	ne
 8002daa:	2001      	movne	r0, #1
 8002dac:	e018      	b.n	8002de0 <HAL_SPI_Transmit+0x10c>
 8002dae:	6822      	ldr	r2, [r4, #0]
 8002db0:	6893      	ldr	r3, [r2, #8]
 8002db2:	0798      	lsls	r0, r3, #30
 8002db4:	d505      	bpl.n	8002dc2 <HAL_SPI_Transmit+0xee>
 8002db6:	6b23      	ldr	r3, [r4, #48]	@ 0x30
 8002db8:	f833 1b02 	ldrh.w	r1, [r3], #2
 8002dbc:	60d1      	str	r1, [r2, #12]
 8002dbe:	6323      	str	r3, [r4, #48]	@ 0x30
 8002dc0:	e7d3      	b.n	8002d6a <HAL_SPI_Transmit+0x96>
 8002dc2:	f7ff f90f 	bl	8001fe4 <HAL_GetTick>
 8002dc6:	eba0 0009 	sub.w	r0, r0, r9
 8002dca:	42b8      	cmp	r0, r7
 8002dcc:	d3d1      	bcc.n	8002d72 <HAL_SPI_Transmit+0x9e>
 8002dce:	1c79      	adds	r1, r7, #1
 8002dd0:	d0cf      	beq.n	8002d72 <HAL_SPI_Transmit+0x9e>
 8002dd2:	2301      	movs	r3, #1
 8002dd4:	f884 3051 	strb.w	r3, [r4, #81]	@ 0x51
 8002dd8:	2300      	movs	r3, #0
 8002dda:	f884 3050 	strb.w	r3, [r4, #80]	@ 0x50
 8002dde:	2003      	movs	r0, #3
 8002de0:	b003      	add	sp, #12
 8002de2:	e8bd 83f0 	ldmia.w	sp!, {r4, r5, r6, r7, r8, r9, pc}
 8002de6:	b113      	cbz	r3, 8002dee <HAL_SPI_Transmit+0x11a>
 8002de8:	f1b8 0f01 	cmp.w	r8, #1
 8002dec:	d108      	bne.n	8002e00 <HAL_SPI_Transmit+0x12c>
 8002dee:	782b      	ldrb	r3, [r5, #0]
 8002df0:	7333      	strb	r3, [r6, #12]
 8002df2:	6b23      	ldr	r3, [r4, #48]	@ 0x30
 8002df4:	3301      	adds	r3, #1
 8002df6:	6323      	str	r3, [r4, #48]	@ 0x30
 8002df8:	8ee3      	ldrh	r3, [r4, #54]	@ 0x36
 8002dfa:	3b01      	subs	r3, #1
 8002dfc:	b29b      	uxth	r3, r3
 8002dfe:	86e3      	strh	r3, [r4, #54]	@ 0x36
 8002e00:	8ee3      	ldrh	r3, [r4, #54]	@ 0x36
 8002e02:	b29b      	uxth	r3, r3
 8002e04:	2b00      	cmp	r3, #0
 8002e06:	d0b7      	beq.n	8002d78 <HAL_SPI_Transmit+0xa4>
 8002e08:	6823      	ldr	r3, [r4, #0]
 8002e0a:	689a      	ldr	r2, [r3, #8]
 8002e0c:	0792      	lsls	r2, r2, #30
 8002e0e:	d503      	bpl.n	8002e18 <HAL_SPI_Transmit+0x144>
 8002e10:	6b22      	ldr	r2, [r4, #48]	@ 0x30
 8002e12:	7812      	ldrb	r2, [r2, #0]
 8002e14:	731a      	strb	r2, [r3, #12]
 8002e16:	e7ec      	b.n	8002df2 <HAL_SPI_Transmit+0x11e>
 8002e18:	f7ff f8e4 	bl	8001fe4 <HAL_GetTick>
 8002e1c:	eba0 0009 	sub.w	r0, r0, r9
 8002e20:	42b8      	cmp	r0, r7
 8002e22:	d3ed      	bcc.n	8002e00 <HAL_SPI_Transmit+0x12c>
 8002e24:	1c7b      	adds	r3, r7, #1
 8002e26:	d0eb      	beq.n	8002e00 <HAL_SPI_Transmit+0x12c>
 8002e28:	e7d3      	b.n	8002dd2 <HAL_SPI_Transmit+0xfe>
 8002e2a:	2320      	movs	r3, #32
 8002e2c:	6563      	str	r3, [r4, #84]	@ 0x54
 8002e2e:	e7aa      	b.n	8002d86 <HAL_SPI_Transmit+0xb2>
 8002e30:	2002      	movs	r0, #2
 8002e32:	e7d5      	b.n	8002de0 <HAL_SPI_Transmit+0x10c>

08002e34 <HAL_SPI_TransmitReceive>:
 8002e34:	e92d 43f7 	stmdb	sp!, {r0, r1, r2, r4, r5, r6, r7, r8, r9, lr}
 8002e38:	4604      	mov	r4, r0
 8002e3a:	460d      	mov	r5, r1
 8002e3c:	4691      	mov	r9, r2
 8002e3e:	461e      	mov	r6, r3
 8002e40:	f8dd 8028 	ldr.w	r8, [sp, #40]	@ 0x28
 8002e44:	f7ff f8ce 	bl	8001fe4 <HAL_GetTick>
 8002e48:	f894 3051 	ldrb.w	r3, [r4, #81]	@ 0x51
 8002e4c:	6862      	ldr	r2, [r4, #4]
 8002e4e:	2b01      	cmp	r3, #1
 8002e50:	4607      	mov	r7, r0
 8002e52:	b2d9      	uxtb	r1, r3
 8002e54:	d00a      	beq.n	8002e6c <HAL_SPI_TransmitReceive+0x38>
 8002e56:	f5b2 7f82 	cmp.w	r2, #260	@ 0x104
 8002e5a:	f040 80e5 	bne.w	8003028 <HAL_SPI_TransmitReceive+0x1f4>
 8002e5e:	68a3      	ldr	r3, [r4, #8]
 8002e60:	2b00      	cmp	r3, #0
 8002e62:	f040 80e1 	bne.w	8003028 <HAL_SPI_TransmitReceive+0x1f4>
 8002e66:	2904      	cmp	r1, #4
 8002e68:	f040 80de 	bne.w	8003028 <HAL_SPI_TransmitReceive+0x1f4>
 8002e6c:	2d00      	cmp	r5, #0
 8002e6e:	d04b      	beq.n	8002f08 <HAL_SPI_TransmitReceive+0xd4>
 8002e70:	f1b9 0f00 	cmp.w	r9, #0
 8002e74:	d048      	beq.n	8002f08 <HAL_SPI_TransmitReceive+0xd4>
 8002e76:	2e00      	cmp	r6, #0
 8002e78:	d046      	beq.n	8002f08 <HAL_SPI_TransmitReceive+0xd4>
 8002e7a:	f894 3050 	ldrb.w	r3, [r4, #80]	@ 0x50
 8002e7e:	2b01      	cmp	r3, #1
 8002e80:	f000 80d2 	beq.w	8003028 <HAL_SPI_TransmitReceive+0x1f4>
 8002e84:	2301      	movs	r3, #1
 8002e86:	f884 3050 	strb.w	r3, [r4, #80]	@ 0x50
 8002e8a:	f894 3051 	ldrb.w	r3, [r4, #81]	@ 0x51
 8002e8e:	f8c4 9038 	str.w	r9, [r4, #56]	@ 0x38
 8002e92:	2b04      	cmp	r3, #4
 8002e94:	bf1c      	itt	ne
 8002e96:	2305      	movne	r3, #5
 8002e98:	f884 3051 	strbne.w	r3, [r4, #81]	@ 0x51
 8002e9c:	2300      	movs	r3, #0
 8002e9e:	6563      	str	r3, [r4, #84]	@ 0x54
 8002ea0:	e9c4 3310 	strd	r3, r3, [r4, #64]	@ 0x40
 8002ea4:	6823      	ldr	r3, [r4, #0]
 8002ea6:	87e6      	strh	r6, [r4, #62]	@ 0x3e
 8002ea8:	86e6      	strh	r6, [r4, #54]	@ 0x36
 8002eaa:	6819      	ldr	r1, [r3, #0]
 8002eac:	87a6      	strh	r6, [r4, #60]	@ 0x3c
 8002eae:	0649      	lsls	r1, r1, #25
 8002eb0:	bf58      	it	pl
 8002eb2:	6819      	ldrpl	r1, [r3, #0]
 8002eb4:	6325      	str	r5, [r4, #48]	@ 0x30
 8002eb6:	bf58      	it	pl
 8002eb8:	f041 0140 	orrpl.w	r1, r1, #64	@ 0x40
 8002ebc:	86a6      	strh	r6, [r4, #52]	@ 0x34
 8002ebe:	bf58      	it	pl
 8002ec0:	6019      	strpl	r1, [r3, #0]
 8002ec2:	68e1      	ldr	r1, [r4, #12]
 8002ec4:	f5b1 6f00 	cmp.w	r1, #2048	@ 0x800
 8002ec8:	d155      	bne.n	8002f76 <HAL_SPI_TransmitReceive+0x142>
 8002eca:	b10a      	cbz	r2, 8002ed0 <HAL_SPI_TransmitReceive+0x9c>
 8002ecc:	2e01      	cmp	r6, #1
 8002ece:	d107      	bne.n	8002ee0 <HAL_SPI_TransmitReceive+0xac>
 8002ed0:	f835 2b02 	ldrh.w	r2, [r5], #2
 8002ed4:	60da      	str	r2, [r3, #12]
 8002ed6:	8ee3      	ldrh	r3, [r4, #54]	@ 0x36
 8002ed8:	6325      	str	r5, [r4, #48]	@ 0x30
 8002eda:	3b01      	subs	r3, #1
 8002edc:	b29b      	uxth	r3, r3
 8002ede:	86e3      	strh	r3, [r4, #54]	@ 0x36
 8002ee0:	2501      	movs	r5, #1
 8002ee2:	8ee3      	ldrh	r3, [r4, #54]	@ 0x36
 8002ee4:	b29b      	uxth	r3, r3
 8002ee6:	b98b      	cbnz	r3, 8002f0c <HAL_SPI_TransmitReceive+0xd8>
 8002ee8:	8fe3      	ldrh	r3, [r4, #62]	@ 0x3e
 8002eea:	b29b      	uxth	r3, r3
 8002eec:	b973      	cbnz	r3, 8002f0c <HAL_SPI_TransmitReceive+0xd8>
 8002eee:	463a      	mov	r2, r7
 8002ef0:	4641      	mov	r1, r8
 8002ef2:	4620      	mov	r0, r4
 8002ef4:	f7ff fe28 	bl	8002b48 <SPI_EndRxTxTransaction>
 8002ef8:	2800      	cmp	r0, #0
 8002efa:	f000 8081 	beq.w	8003000 <HAL_SPI_TransmitReceive+0x1cc>
 8002efe:	2320      	movs	r3, #32
 8002f00:	6563      	str	r3, [r4, #84]	@ 0x54
 8002f02:	2300      	movs	r3, #0
 8002f04:	f884 3050 	strb.w	r3, [r4, #80]	@ 0x50
 8002f08:	2001      	movs	r0, #1
 8002f0a:	e031      	b.n	8002f70 <HAL_SPI_TransmitReceive+0x13c>
 8002f0c:	6821      	ldr	r1, [r4, #0]
 8002f0e:	688b      	ldr	r3, [r1, #8]
 8002f10:	079a      	lsls	r2, r3, #30
 8002f12:	d50d      	bpl.n	8002f30 <HAL_SPI_TransmitReceive+0xfc>
 8002f14:	8ee3      	ldrh	r3, [r4, #54]	@ 0x36
 8002f16:	b29b      	uxth	r3, r3
 8002f18:	b153      	cbz	r3, 8002f30 <HAL_SPI_TransmitReceive+0xfc>
 8002f1a:	b145      	cbz	r5, 8002f2e <HAL_SPI_TransmitReceive+0xfa>
 8002f1c:	6b23      	ldr	r3, [r4, #48]	@ 0x30
 8002f1e:	f833 2b02 	ldrh.w	r2, [r3], #2
 8002f22:	60ca      	str	r2, [r1, #12]
 8002f24:	6323      	str	r3, [r4, #48]	@ 0x30
 8002f26:	8ee3      	ldrh	r3, [r4, #54]	@ 0x36
 8002f28:	3b01      	subs	r3, #1
 8002f2a:	b29b      	uxth	r3, r3
 8002f2c:	86e3      	strh	r3, [r4, #54]	@ 0x36
 8002f2e:	2500      	movs	r5, #0
 8002f30:	688a      	ldr	r2, [r1, #8]
 8002f32:	f012 0201 	ands.w	r2, r2, #1
 8002f36:	d00c      	beq.n	8002f52 <HAL_SPI_TransmitReceive+0x11e>
 8002f38:	8fe3      	ldrh	r3, [r4, #62]	@ 0x3e
 8002f3a:	b29b      	uxth	r3, r3
 8002f3c:	b14b      	cbz	r3, 8002f52 <HAL_SPI_TransmitReceive+0x11e>
 8002f3e:	6ba3      	ldr	r3, [r4, #56]	@ 0x38
 8002f40:	68c9      	ldr	r1, [r1, #12]
 8002f42:	f823 1b02 	strh.w	r1, [r3], #2
 8002f46:	63a3      	str	r3, [r4, #56]	@ 0x38
 8002f48:	8fe3      	ldrh	r3, [r4, #62]	@ 0x3e
 8002f4a:	3b01      	subs	r3, #1
 8002f4c:	b29b      	uxth	r3, r3
 8002f4e:	87e3      	strh	r3, [r4, #62]	@ 0x3e
 8002f50:	4615      	mov	r5, r2
 8002f52:	f7ff f847 	bl	8001fe4 <HAL_GetTick>
 8002f56:	1bc0      	subs	r0, r0, r7
 8002f58:	4540      	cmp	r0, r8
 8002f5a:	d3c2      	bcc.n	8002ee2 <HAL_SPI_TransmitReceive+0xae>
 8002f5c:	f1b8 3fff 	cmp.w	r8, #4294967295
 8002f60:	d0bf      	beq.n	8002ee2 <HAL_SPI_TransmitReceive+0xae>
 8002f62:	2301      	movs	r3, #1
 8002f64:	f884 3051 	strb.w	r3, [r4, #81]	@ 0x51
 8002f68:	2300      	movs	r3, #0
 8002f6a:	f884 3050 	strb.w	r3, [r4, #80]	@ 0x50
 8002f6e:	2003      	movs	r0, #3
 8002f70:	b003      	add	sp, #12
 8002f72:	e8bd 83f0 	ldmia.w	sp!, {r4, r5, r6, r7, r8, r9, pc}
 8002f76:	b10a      	cbz	r2, 8002f7c <HAL_SPI_TransmitReceive+0x148>
 8002f78:	2e01      	cmp	r6, #1
 8002f7a:	d108      	bne.n	8002f8e <HAL_SPI_TransmitReceive+0x15a>
 8002f7c:	782a      	ldrb	r2, [r5, #0]
 8002f7e:	731a      	strb	r2, [r3, #12]
 8002f80:	6b23      	ldr	r3, [r4, #48]	@ 0x30
 8002f82:	3301      	adds	r3, #1
 8002f84:	6323      	str	r3, [r4, #48]	@ 0x30
 8002f86:	8ee3      	ldrh	r3, [r4, #54]	@ 0x36
 8002f88:	3b01      	subs	r3, #1
 8002f8a:	b29b      	uxth	r3, r3
 8002f8c:	86e3      	strh	r3, [r4, #54]	@ 0x36
 8002f8e:	2501      	movs	r5, #1
 8002f90:	e02d      	b.n	8002fee <HAL_SPI_TransmitReceive+0x1ba>
 8002f92:	6822      	ldr	r2, [r4, #0]
 8002f94:	6893      	ldr	r3, [r2, #8]
 8002f96:	079b      	lsls	r3, r3, #30
 8002f98:	d50e      	bpl.n	8002fb8 <HAL_SPI_TransmitReceive+0x184>
 8002f9a:	8ee3      	ldrh	r3, [r4, #54]	@ 0x36
 8002f9c:	b29b      	uxth	r3, r3
 8002f9e:	b15b      	cbz	r3, 8002fb8 <HAL_SPI_TransmitReceive+0x184>
 8002fa0:	b14d      	cbz	r5, 8002fb6 <HAL_SPI_TransmitReceive+0x182>
 8002fa2:	6b23      	ldr	r3, [r4, #48]	@ 0x30
 8002fa4:	781b      	ldrb	r3, [r3, #0]
 8002fa6:	7313      	strb	r3, [r2, #12]
 8002fa8:	6b23      	ldr	r3, [r4, #48]	@ 0x30
 8002faa:	3301      	adds	r3, #1
 8002fac:	6323      	str	r3, [r4, #48]	@ 0x30
 8002fae:	8ee3      	ldrh	r3, [r4, #54]	@ 0x36
 8002fb0:	3b01      	subs	r3, #1
 8002fb2:	b29b      	uxth	r3, r3
 8002fb4:	86e3      	strh	r3, [r4, #54]	@ 0x36
 8002fb6:	2500      	movs	r5, #0
 8002fb8:	6822      	ldr	r2, [r4, #0]
 8002fba:	6891      	ldr	r1, [r2, #8]
 8002fbc:	f011 0101 	ands.w	r1, r1, #1
 8002fc0:	d00d      	beq.n	8002fde <HAL_SPI_TransmitReceive+0x1aa>
 8002fc2:	8fe3      	ldrh	r3, [r4, #62]	@ 0x3e
 8002fc4:	b29b      	uxth	r3, r3
 8002fc6:	b153      	cbz	r3, 8002fde <HAL_SPI_TransmitReceive+0x1aa>
 8002fc8:	6ba3      	ldr	r3, [r4, #56]	@ 0x38
 8002fca:	68d2      	ldr	r2, [r2, #12]
 8002fcc:	701a      	strb	r2, [r3, #0]
 8002fce:	6ba3      	ldr	r3, [r4, #56]	@ 0x38
 8002fd0:	3301      	adds	r3, #1
 8002fd2:	63a3      	str	r3, [r4, #56]	@ 0x38
 8002fd4:	8fe3      	ldrh	r3, [r4, #62]	@ 0x3e
 8002fd6:	3b01      	subs	r3, #1
 8002fd8:	b29b      	uxth	r3, r3
 8002fda:	87e3      	strh	r3, [r4, #62]	@ 0x3e
 8002fdc:	460d      	mov	r5, r1
 8002fde:	f7ff f801 	bl	8001fe4 <HAL_GetTick>
 8002fe2:	1bc0      	subs	r0, r0, r7
 8002fe4:	4540      	cmp	r0, r8
 8002fe6:	d302      	bcc.n	8002fee <HAL_SPI_TransmitReceive+0x1ba>
 8002fe8:	f1b8 3fff 	cmp.w	r8, #4294967295
 8002fec:	d1b9      	bne.n	8002f62 <HAL_SPI_TransmitReceive+0x12e>
 8002fee:	8ee3      	ldrh	r3, [r4, #54]	@ 0x36
 8002ff0:	b29b      	uxth	r3, r3
 8002ff2:	2b00      	cmp	r3, #0
 8002ff4:	d1cd      	bne.n	8002f92 <HAL_SPI_TransmitReceive+0x15e>
 8002ff6:	8fe3      	ldrh	r3, [r4, #62]	@ 0x3e
 8002ff8:	b29b      	uxth	r3, r3
 8002ffa:	2b00      	cmp	r3, #0
 8002ffc:	d1c9      	bne.n	8002f92 <HAL_SPI_TransmitReceive+0x15e>
 8002ffe:	e776      	b.n	8002eee <HAL_SPI_TransmitReceive+0xba>
 8003000:	68a3      	ldr	r3, [r4, #8]
 8003002:	b933      	cbnz	r3, 8003012 <HAL_SPI_TransmitReceive+0x1de>
 8003004:	9301      	str	r3, [sp, #4]
 8003006:	6823      	ldr	r3, [r4, #0]
 8003008:	68da      	ldr	r2, [r3, #12]
 800300a:	9201      	str	r2, [sp, #4]
 800300c:	689b      	ldr	r3, [r3, #8]
 800300e:	9301      	str	r3, [sp, #4]
 8003010:	9b01      	ldr	r3, [sp, #4]
 8003012:	2301      	movs	r3, #1
 8003014:	f884 3051 	strb.w	r3, [r4, #81]	@ 0x51
 8003018:	6d60      	ldr	r0, [r4, #84]	@ 0x54
 800301a:	2300      	movs	r3, #0
 800301c:	1ac0      	subs	r0, r0, r3
 800301e:	f884 3050 	strb.w	r3, [r4, #80]	@ 0x50
 8003022:	bf18      	it	ne
 8003024:	2001      	movne	r0, #1
 8003026:	e7a3      	b.n	8002f70 <HAL_SPI_TransmitReceive+0x13c>
 8003028:	2002      	movs	r0, #2
 800302a:	e7a1      	b.n	8002f70 <HAL_SPI_TransmitReceive+0x13c>

0800302c <HAL_SPI_Receive>:
 800302c:	e92d 43f7 	stmdb	sp!, {r0, r1, r2, r4, r5, r6, r7, r8, r9, lr}
 8003030:	461e      	mov	r6, r3
 8003032:	f890 3051 	ldrb.w	r3, [r0, #81]	@ 0x51
 8003036:	2b01      	cmp	r3, #1
 8003038:	4604      	mov	r4, r0
 800303a:	4689      	mov	r9, r1
 800303c:	4617      	mov	r7, r2
 800303e:	b2dd      	uxtb	r5, r3
 8003040:	d004      	beq.n	800304c <HAL_SPI_Receive+0x20>
 8003042:	2502      	movs	r5, #2
 8003044:	4628      	mov	r0, r5
 8003046:	b003      	add	sp, #12
 8003048:	e8bd 83f0 	ldmia.w	sp!, {r4, r5, r6, r7, r8, r9, pc}
 800304c:	6843      	ldr	r3, [r0, #4]
 800304e:	f5b3 7f82 	cmp.w	r3, #260	@ 0x104
 8003052:	d10b      	bne.n	800306c <HAL_SPI_Receive+0x40>
 8003054:	6883      	ldr	r3, [r0, #8]
 8003056:	b94b      	cbnz	r3, 800306c <HAL_SPI_Receive+0x40>
 8003058:	2304      	movs	r3, #4
 800305a:	f880 3051 	strb.w	r3, [r0, #81]	@ 0x51
 800305e:	4613      	mov	r3, r2
 8003060:	9600      	str	r6, [sp, #0]
 8003062:	460a      	mov	r2, r1
 8003064:	f7ff fee6 	bl	8002e34 <HAL_SPI_TransmitReceive>
 8003068:	4605      	mov	r5, r0
 800306a:	e7eb      	b.n	8003044 <HAL_SPI_Receive+0x18>
 800306c:	f7fe ffba 	bl	8001fe4 <HAL_GetTick>
 8003070:	4680      	mov	r8, r0
 8003072:	f1b9 0f00 	cmp.w	r9, #0
 8003076:	d0e5      	beq.n	8003044 <HAL_SPI_Receive+0x18>
 8003078:	2f00      	cmp	r7, #0
 800307a:	d0e3      	beq.n	8003044 <HAL_SPI_Receive+0x18>
 800307c:	f894 3050 	ldrb.w	r3, [r4, #80]	@ 0x50
 8003080:	2b01      	cmp	r3, #1
 8003082:	d0de      	beq.n	8003042 <HAL_SPI_Receive+0x16>
 8003084:	68a2      	ldr	r2, [r4, #8]
 8003086:	f8c4 9038 	str.w	r9, [r4, #56]	@ 0x38
 800308a:	2301      	movs	r3, #1
 800308c:	2500      	movs	r5, #0
 800308e:	f884 3050 	strb.w	r3, [r4, #80]	@ 0x50
 8003092:	f5b2 4f00 	cmp.w	r2, #32768	@ 0x8000
 8003096:	f04f 0304 	mov.w	r3, #4
 800309a:	f884 3051 	strb.w	r3, [r4, #81]	@ 0x51
 800309e:	e9c4 5510 	strd	r5, r5, [r4, #64]	@ 0x40
 80030a2:	6565      	str	r5, [r4, #84]	@ 0x54
 80030a4:	6823      	ldr	r3, [r4, #0]
 80030a6:	87e7      	strh	r7, [r4, #62]	@ 0x3e
 80030a8:	87a7      	strh	r7, [r4, #60]	@ 0x3c
 80030aa:	6325      	str	r5, [r4, #48]	@ 0x30
 80030ac:	86a5      	strh	r5, [r4, #52]	@ 0x34
 80030ae:	86e5      	strh	r5, [r4, #54]	@ 0x36
 80030b0:	d107      	bne.n	80030c2 <HAL_SPI_Receive+0x96>
 80030b2:	681a      	ldr	r2, [r3, #0]
 80030b4:	f022 0240 	bic.w	r2, r2, #64	@ 0x40
 80030b8:	601a      	str	r2, [r3, #0]
 80030ba:	681a      	ldr	r2, [r3, #0]
 80030bc:	f422 4280 	bic.w	r2, r2, #16384	@ 0x4000
 80030c0:	601a      	str	r2, [r3, #0]
 80030c2:	681a      	ldr	r2, [r3, #0]
 80030c4:	0655      	lsls	r5, r2, #25
 80030c6:	bf5e      	ittt	pl
 80030c8:	681a      	ldrpl	r2, [r3, #0]
 80030ca:	f042 0240 	orrpl.w	r2, r2, #64	@ 0x40
 80030ce:	601a      	strpl	r2, [r3, #0]
 80030d0:	68e3      	ldr	r3, [r4, #12]
 80030d2:	b1f3      	cbz	r3, 8003112 <HAL_SPI_Receive+0xe6>
 80030d4:	8fe3      	ldrh	r3, [r4, #62]	@ 0x3e
 80030d6:	b29b      	uxth	r3, r3
 80030d8:	b1fb      	cbz	r3, 800311a <HAL_SPI_Receive+0xee>
 80030da:	6823      	ldr	r3, [r4, #0]
 80030dc:	689a      	ldr	r2, [r3, #8]
 80030de:	07d2      	lsls	r2, r2, #31
 80030e0:	d53c      	bpl.n	800315c <HAL_SPI_Receive+0x130>
 80030e2:	68da      	ldr	r2, [r3, #12]
 80030e4:	6ba3      	ldr	r3, [r4, #56]	@ 0x38
 80030e6:	f823 2b02 	strh.w	r2, [r3], #2
 80030ea:	63a3      	str	r3, [r4, #56]	@ 0x38
 80030ec:	8fe3      	ldrh	r3, [r4, #62]	@ 0x3e
 80030ee:	3b01      	subs	r3, #1
 80030f0:	b29b      	uxth	r3, r3
 80030f2:	87e3      	strh	r3, [r4, #62]	@ 0x3e
 80030f4:	e7ee      	b.n	80030d4 <HAL_SPI_Receive+0xa8>
 80030f6:	6823      	ldr	r3, [r4, #0]
 80030f8:	689a      	ldr	r2, [r3, #8]
 80030fa:	07d0      	lsls	r0, r2, #31
 80030fc:	d51e      	bpl.n	800313c <HAL_SPI_Receive+0x110>
 80030fe:	6ba2      	ldr	r2, [r4, #56]	@ 0x38
 8003100:	7b1b      	ldrb	r3, [r3, #12]
 8003102:	7013      	strb	r3, [r2, #0]
 8003104:	6ba3      	ldr	r3, [r4, #56]	@ 0x38
 8003106:	3301      	adds	r3, #1
 8003108:	63a3      	str	r3, [r4, #56]	@ 0x38
 800310a:	8fe3      	ldrh	r3, [r4, #62]	@ 0x3e
 800310c:	3b01      	subs	r3, #1
 800310e:	b29b      	uxth	r3, r3
 8003110:	87e3      	strh	r3, [r4, #62]	@ 0x3e
 8003112:	8fe3      	ldrh	r3, [r4, #62]	@ 0x3e
 8003114:	b29b      	uxth	r3, r3
 8003116:	2b00      	cmp	r3, #0
 8003118:	d1ed      	bne.n	80030f6 <HAL_SPI_Receive+0xca>
 800311a:	4642      	mov	r2, r8
 800311c:	4631      	mov	r1, r6
 800311e:	4620      	mov	r0, r4
 8003120:	f7ff fd4e 	bl	8002bc0 <SPI_EndRxTransaction>
 8003124:	bb18      	cbnz	r0, 800316e <HAL_SPI_Receive+0x142>
 8003126:	2301      	movs	r3, #1
 8003128:	f884 3051 	strb.w	r3, [r4, #81]	@ 0x51
 800312c:	6d65      	ldr	r5, [r4, #84]	@ 0x54
 800312e:	2300      	movs	r3, #0
 8003130:	1aed      	subs	r5, r5, r3
 8003132:	f884 3050 	strb.w	r3, [r4, #80]	@ 0x50
 8003136:	bf18      	it	ne
 8003138:	2501      	movne	r5, #1
 800313a:	e783      	b.n	8003044 <HAL_SPI_Receive+0x18>
 800313c:	f7fe ff52 	bl	8001fe4 <HAL_GetTick>
 8003140:	eba0 0008 	sub.w	r0, r0, r8
 8003144:	42b0      	cmp	r0, r6
 8003146:	d3e4      	bcc.n	8003112 <HAL_SPI_Receive+0xe6>
 8003148:	1c71      	adds	r1, r6, #1
 800314a:	d0e2      	beq.n	8003112 <HAL_SPI_Receive+0xe6>
 800314c:	2301      	movs	r3, #1
 800314e:	f884 3051 	strb.w	r3, [r4, #81]	@ 0x51
 8003152:	2300      	movs	r3, #0
 8003154:	f884 3050 	strb.w	r3, [r4, #80]	@ 0x50
 8003158:	2503      	movs	r5, #3
 800315a:	e773      	b.n	8003044 <HAL_SPI_Receive+0x18>
 800315c:	f7fe ff42 	bl	8001fe4 <HAL_GetTick>
 8003160:	eba0 0008 	sub.w	r0, r0, r8
 8003164:	42b0      	cmp	r0, r6
 8003166:	d3b5      	bcc.n	80030d4 <HAL_SPI_Receive+0xa8>
 8003168:	1c73      	adds	r3, r6, #1
 800316a:	d0b3      	beq.n	80030d4 <HAL_SPI_Receive+0xa8>
 800316c:	e7ee      	b.n	800314c <HAL_SPI_Receive+0x120>
 800316e:	2320      	movs	r3, #32
 8003170:	6563      	str	r3, [r4, #84]	@ 0x54
 8003172:	e7d8      	b.n	8003126 <HAL_SPI_Receive+0xfa>

08003174 <HAL_TIM_Base_MspInit>:
 8003174:	4770      	bx	lr
	...

08003178 <HAL_TIM_Base_Start_IT>:
 8003178:	f890 303d 	ldrb.w	r3, [r0, #61]	@ 0x3d
 800317c:	2b01      	cmp	r3, #1
 800317e:	d130      	bne.n	80031e2 <HAL_TIM_Base_Start_IT+0x6a>
 8003180:	2302      	movs	r3, #2
 8003182:	f880 303d 	strb.w	r3, [r0, #61]	@ 0x3d
 8003186:	6803      	ldr	r3, [r0, #0]
 8003188:	68da      	ldr	r2, [r3, #12]
 800318a:	f042 0201 	orr.w	r2, r2, #1
 800318e:	60da      	str	r2, [r3, #12]
 8003190:	4a15      	ldr	r2, [pc, #84]	@ (80031e8 <HAL_TIM_Base_Start_IT+0x70>)
 8003192:	4293      	cmp	r3, r2
 8003194:	d01a      	beq.n	80031cc <HAL_TIM_Base_Start_IT+0x54>
 8003196:	f1b3 4f80 	cmp.w	r3, #1073741824	@ 0x40000000
 800319a:	d017      	beq.n	80031cc <HAL_TIM_Base_Start_IT+0x54>
 800319c:	f5a2 427c 	sub.w	r2, r2, #64512	@ 0xfc00
 80031a0:	4293      	cmp	r3, r2
 80031a2:	d013      	beq.n	80031cc <HAL_TIM_Base_Start_IT+0x54>
 80031a4:	f502 6280 	add.w	r2, r2, #1024	@ 0x400
 80031a8:	4293      	cmp	r3, r2
 80031aa:	d00f      	beq.n	80031cc <HAL_TIM_Base_Start_IT+0x54>
 80031ac:	f502 6280 	add.w	r2, r2, #1024	@ 0x400
 80031b0:	4293      	cmp	r3, r2
 80031b2:	d00b      	beq.n	80031cc <HAL_TIM_Base_Start_IT+0x54>
 80031b4:	f502 4278 	add.w	r2, r2, #63488	@ 0xf800
 80031b8:	4293      	cmp	r3, r2
 80031ba:	d007      	beq.n	80031cc <HAL_TIM_Base_Start_IT+0x54>
 80031bc:	f502 5270 	add.w	r2, r2, #15360	@ 0x3c00
 80031c0:	4293      	cmp	r3, r2
 80031c2:	d003      	beq.n	80031cc <HAL_TIM_Base_Start_IT+0x54>
 80031c4:	f5a2 3294 	sub.w	r2, r2, #75776	@ 0x12800
 80031c8:	4293      	cmp	r3, r2
 80031ca:	d104      	bne.n	80031d6 <HAL_TIM_Base_Start_IT+0x5e>
 80031cc:	689a      	ldr	r2, [r3, #8]
 80031ce:	f002 0207 	and.w	r2, r2, #7
 80031d2:	2a06      	cmp	r2, #6
 80031d4:	d003      	beq.n	80031de <HAL_TIM_Base_Start_IT+0x66>
 80031d6:	681a      	ldr	r2, [r3, #0]
 80031d8:	f042 0201 	orr.w	r2, r2, #1
 80031dc:	601a      	str	r2, [r3, #0]
 80031de:	2000      	movs	r0, #0
 80031e0:	4770      	bx	lr
 80031e2:	2001      	movs	r0, #1
 80031e4:	4770      	bx	lr
 80031e6:	bf00      	nop
 80031e8:	40010000 	.word	0x40010000

080031ec <HAL_TIM_OC_DelayElapsedCallback>:
 80031ec:	4770      	bx	lr

080031ee <HAL_TIM_IC_CaptureCallback>:
 80031ee:	4770      	bx	lr

080031f0 <HAL_TIM_PWM_PulseFinishedCallback>:
 80031f0:	4770      	bx	lr

080031f2 <HAL_TIM_TriggerCallback>:
 80031f2:	4770      	bx	lr

080031f4 <HAL_TIM_IRQHandler>:
 80031f4:	6803      	ldr	r3, [r0, #0]
 80031f6:	b570      	push	{r4, r5, r6, lr}
 80031f8:	68dd      	ldr	r5, [r3, #12]
 80031fa:	691e      	ldr	r6, [r3, #16]
 80031fc:	07b1      	lsls	r1, r6, #30
 80031fe:	4604      	mov	r4, r0
 8003200:	d50d      	bpl.n	800321e <HAL_TIM_IRQHandler+0x2a>
 8003202:	07aa      	lsls	r2, r5, #30
 8003204:	d50b      	bpl.n	800321e <HAL_TIM_IRQHandler+0x2a>
 8003206:	f06f 0202 	mvn.w	r2, #2
 800320a:	611a      	str	r2, [r3, #16]
 800320c:	2201      	movs	r2, #1
 800320e:	7702      	strb	r2, [r0, #28]
 8003210:	699b      	ldr	r3, [r3, #24]
 8003212:	079b      	lsls	r3, r3, #30
 8003214:	d069      	beq.n	80032ea <HAL_TIM_IRQHandler+0xf6>
 8003216:	f7ff ffea 	bl	80031ee <HAL_TIM_IC_CaptureCallback>
 800321a:	2300      	movs	r3, #0
 800321c:	7723      	strb	r3, [r4, #28]
 800321e:	0771      	lsls	r1, r6, #29
 8003220:	d510      	bpl.n	8003244 <HAL_TIM_IRQHandler+0x50>
 8003222:	076a      	lsls	r2, r5, #29
 8003224:	d50e      	bpl.n	8003244 <HAL_TIM_IRQHandler+0x50>
 8003226:	6823      	ldr	r3, [r4, #0]
 8003228:	f06f 0204 	mvn.w	r2, #4
 800322c:	611a      	str	r2, [r3, #16]
 800322e:	2202      	movs	r2, #2
 8003230:	7722      	strb	r2, [r4, #28]
 8003232:	699b      	ldr	r3, [r3, #24]
 8003234:	f413 7f40 	tst.w	r3, #768	@ 0x300
 8003238:	4620      	mov	r0, r4
 800323a:	d05c      	beq.n	80032f6 <HAL_TIM_IRQHandler+0x102>
 800323c:	f7ff ffd7 	bl	80031ee <HAL_TIM_IC_CaptureCallback>
 8003240:	2300      	movs	r3, #0
 8003242:	7723      	strb	r3, [r4, #28]
 8003244:	0733      	lsls	r3, r6, #28
 8003246:	d50f      	bpl.n	8003268 <HAL_TIM_IRQHandler+0x74>
 8003248:	0728      	lsls	r0, r5, #28
 800324a:	d50d      	bpl.n	8003268 <HAL_TIM_IRQHandler+0x74>
 800324c:	6823      	ldr	r3, [r4, #0]
 800324e:	f06f 0208 	mvn.w	r2, #8
 8003252:	611a      	str	r2, [r3, #16]
 8003254:	2204      	movs	r2, #4
 8003256:	7722      	strb	r2, [r4, #28]
 8003258:	69db      	ldr	r3, [r3, #28]
 800325a:	0799      	lsls	r1, r3, #30
 800325c:	4620      	mov	r0, r4
 800325e:	d050      	beq.n	8003302 <HAL_TIM_IRQHandler+0x10e>
 8003260:	f7ff ffc5 	bl	80031ee <HAL_TIM_IC_CaptureCallback>
 8003264:	2300      	movs	r3, #0
 8003266:	7723      	strb	r3, [r4, #28]
 8003268:	06f2      	lsls	r2, r6, #27
 800326a:	d510      	bpl.n	800328e <HAL_TIM_IRQHandler+0x9a>
 800326c:	06eb      	lsls	r3, r5, #27
 800326e:	d50e      	bpl.n	800328e <HAL_TIM_IRQHandler+0x9a>
 8003270:	6823      	ldr	r3, [r4, #0]
 8003272:	f06f 0210 	mvn.w	r2, #16
 8003276:	611a      	str	r2, [r3, #16]
 8003278:	2208      	movs	r2, #8
 800327a:	7722      	strb	r2, [r4, #28]
 800327c:	69db      	ldr	r3, [r3, #28]
 800327e:	f413 7f40 	tst.w	r3, #768	@ 0x300
 8003282:	4620      	mov	r0, r4
 8003284:	d043      	beq.n	800330e <HAL_TIM_IRQHandler+0x11a>
 8003286:	f7ff ffb2 	bl	80031ee <HAL_TIM_IC_CaptureCallback>
 800328a:	2300      	movs	r3, #0
 800328c:	7723      	strb	r3, [r4, #28]
 800328e:	07f0      	lsls	r0, r6, #31
 8003290:	d508      	bpl.n	80032a4 <HAL_TIM_IRQHandler+0xb0>
 8003292:	07e9      	lsls	r1, r5, #31
 8003294:	d506      	bpl.n	80032a4 <HAL_TIM_IRQHandler+0xb0>
 8003296:	6823      	ldr	r3, [r4, #0]
 8003298:	f06f 0201 	mvn.w	r2, #1
 800329c:	611a      	str	r2, [r3, #16]
 800329e:	4620      	mov	r0, r4
 80032a0:	f7fe fcec 	bl	8001c7c <HAL_TIM_PeriodElapsedCallback>
 80032a4:	0632      	lsls	r2, r6, #24
 80032a6:	d508      	bpl.n	80032ba <HAL_TIM_IRQHandler+0xc6>
 80032a8:	062b      	lsls	r3, r5, #24
 80032aa:	d506      	bpl.n	80032ba <HAL_TIM_IRQHandler+0xc6>
 80032ac:	6823      	ldr	r3, [r4, #0]
 80032ae:	f06f 0280 	mvn.w	r2, #128	@ 0x80
 80032b2:	611a      	str	r2, [r3, #16]
 80032b4:	4620      	mov	r0, r4
 80032b6:	f000 f8ca 	bl	800344e <HAL_TIMEx_BreakCallback>
 80032ba:	0670      	lsls	r0, r6, #25
 80032bc:	d508      	bpl.n	80032d0 <HAL_TIM_IRQHandler+0xdc>
 80032be:	0669      	lsls	r1, r5, #25
 80032c0:	d506      	bpl.n	80032d0 <HAL_TIM_IRQHandler+0xdc>
 80032c2:	6823      	ldr	r3, [r4, #0]
 80032c4:	f06f 0240 	mvn.w	r2, #64	@ 0x40
 80032c8:	611a      	str	r2, [r3, #16]
 80032ca:	4620      	mov	r0, r4
 80032cc:	f7ff ff91 	bl	80031f2 <HAL_TIM_TriggerCallback>
 80032d0:	06b2      	lsls	r2, r6, #26
 80032d2:	d522      	bpl.n	800331a <HAL_TIM_IRQHandler+0x126>
 80032d4:	06ab      	lsls	r3, r5, #26
 80032d6:	d520      	bpl.n	800331a <HAL_TIM_IRQHandler+0x126>
 80032d8:	6823      	ldr	r3, [r4, #0]
 80032da:	f06f 0220 	mvn.w	r2, #32
 80032de:	4620      	mov	r0, r4
 80032e0:	611a      	str	r2, [r3, #16]
 80032e2:	e8bd 4070 	ldmia.w	sp!, {r4, r5, r6, lr}
 80032e6:	f000 b8b1 	b.w	800344c <HAL_TIMEx_CommutCallback>
 80032ea:	f7ff ff7f 	bl	80031ec <HAL_TIM_OC_DelayElapsedCallback>
 80032ee:	4620      	mov	r0, r4
 80032f0:	f7ff ff7e 	bl	80031f0 <HAL_TIM_PWM_PulseFinishedCallback>
 80032f4:	e791      	b.n	800321a <HAL_TIM_IRQHandler+0x26>
 80032f6:	f7ff ff79 	bl	80031ec <HAL_TIM_OC_DelayElapsedCallback>
 80032fa:	4620      	mov	r0, r4
 80032fc:	f7ff ff78 	bl	80031f0 <HAL_TIM_PWM_PulseFinishedCallback>
 8003300:	e79e      	b.n	8003240 <HAL_TIM_IRQHandler+0x4c>
 8003302:	f7ff ff73 	bl	80031ec <HAL_TIM_OC_DelayElapsedCallback>
 8003306:	4620      	mov	r0, r4
 8003308:	f7ff ff72 	bl	80031f0 <HAL_TIM_PWM_PulseFinishedCallback>
 800330c:	e7aa      	b.n	8003264 <HAL_TIM_IRQHandler+0x70>
 800330e:	f7ff ff6d 	bl	80031ec <HAL_TIM_OC_DelayElapsedCallback>
 8003312:	4620      	mov	r0, r4
 8003314:	f7ff ff6c 	bl	80031f0 <HAL_TIM_PWM_PulseFinishedCallback>
 8003318:	e7b7      	b.n	800328a <HAL_TIM_IRQHandler+0x96>
 800331a:	bd70      	pop	{r4, r5, r6, pc}

0800331c <TIM_Base_SetConfig>:
 800331c:	4a33      	ldr	r2, [pc, #204]	@ (80033ec <TIM_Base_SetConfig+0xd0>)
 800331e:	6803      	ldr	r3, [r0, #0]
 8003320:	4290      	cmp	r0, r2
 8003322:	d012      	beq.n	800334a <TIM_Base_SetConfig+0x2e>
 8003324:	f1b0 4f80 	cmp.w	r0, #1073741824	@ 0x40000000
 8003328:	d00f      	beq.n	800334a <TIM_Base_SetConfig+0x2e>
 800332a:	f5a2 427c 	sub.w	r2, r2, #64512	@ 0xfc00
 800332e:	4290      	cmp	r0, r2
 8003330:	d00b      	beq.n	800334a <TIM_Base_SetConfig+0x2e>
 8003332:	f502 6280 	add.w	r2, r2, #1024	@ 0x400
 8003336:	4290      	cmp	r0, r2
 8003338:	d007      	beq.n	800334a <TIM_Base_SetConfig+0x2e>
 800333a:	f502 6280 	add.w	r2, r2, #1024	@ 0x400
 800333e:	4290      	cmp	r0, r2
 8003340:	d003      	beq.n	800334a <TIM_Base_SetConfig+0x2e>
 8003342:	f502 4278 	add.w	r2, r2, #63488	@ 0xf800
 8003346:	4290      	cmp	r0, r2
 8003348:	d119      	bne.n	800337e <TIM_Base_SetConfig+0x62>
 800334a:	684a      	ldr	r2, [r1, #4]
 800334c:	f023 0370 	bic.w	r3, r3, #112	@ 0x70
 8003350:	4313      	orrs	r3, r2
 8003352:	4a26      	ldr	r2, [pc, #152]	@ (80033ec <TIM_Base_SetConfig+0xd0>)
 8003354:	4290      	cmp	r0, r2
 8003356:	d029      	beq.n	80033ac <TIM_Base_SetConfig+0x90>
 8003358:	f1b0 4f80 	cmp.w	r0, #1073741824	@ 0x40000000
 800335c:	d026      	beq.n	80033ac <TIM_Base_SetConfig+0x90>
 800335e:	f5a2 427c 	sub.w	r2, r2, #64512	@ 0xfc00
 8003362:	4290      	cmp	r0, r2
 8003364:	d022      	beq.n	80033ac <TIM_Base_SetConfig+0x90>
 8003366:	f502 6280 	add.w	r2, r2, #1024	@ 0x400
 800336a:	4290      	cmp	r0, r2
 800336c:	d01e      	beq.n	80033ac <TIM_Base_SetConfig+0x90>
 800336e:	f502 6280 	add.w	r2, r2, #1024	@ 0x400
 8003372:	4290      	cmp	r0, r2
 8003374:	d01a      	beq.n	80033ac <TIM_Base_SetConfig+0x90>
 8003376:	f502 4278 	add.w	r2, r2, #63488	@ 0xf800
 800337a:	4290      	cmp	r0, r2
 800337c:	d016      	beq.n	80033ac <TIM_Base_SetConfig+0x90>
 800337e:	4a1c      	ldr	r2, [pc, #112]	@ (80033f0 <TIM_Base_SetConfig+0xd4>)
 8003380:	4290      	cmp	r0, r2
 8003382:	d013      	beq.n	80033ac <TIM_Base_SetConfig+0x90>
 8003384:	f502 6280 	add.w	r2, r2, #1024	@ 0x400
 8003388:	4290      	cmp	r0, r2
 800338a:	d00f      	beq.n	80033ac <TIM_Base_SetConfig+0x90>
 800338c:	f502 6280 	add.w	r2, r2, #1024	@ 0x400
 8003390:	4290      	cmp	r0, r2
 8003392:	d00b      	beq.n	80033ac <TIM_Base_SetConfig+0x90>
 8003394:	f5a2 3298 	sub.w	r2, r2, #77824	@ 0x13000
 8003398:	4290      	cmp	r0, r2
 800339a:	d007      	beq.n	80033ac <TIM_Base_SetConfig+0x90>
 800339c:	f502 6280 	add.w	r2, r2, #1024	@ 0x400
 80033a0:	4290      	cmp	r0, r2
 80033a2:	d003      	beq.n	80033ac <TIM_Base_SetConfig+0x90>
 80033a4:	f502 6280 	add.w	r2, r2, #1024	@ 0x400
 80033a8:	4290      	cmp	r0, r2
 80033aa:	d103      	bne.n	80033b4 <TIM_Base_SetConfig+0x98>
 80033ac:	68ca      	ldr	r2, [r1, #12]
 80033ae:	f423 7340 	bic.w	r3, r3, #768	@ 0x300
 80033b2:	4313      	orrs	r3, r2
 80033b4:	694a      	ldr	r2, [r1, #20]
 80033b6:	f023 0380 	bic.w	r3, r3, #128	@ 0x80
 80033ba:	4313      	orrs	r3, r2
 80033bc:	6003      	str	r3, [r0, #0]
 80033be:	688b      	ldr	r3, [r1, #8]
 80033c0:	62c3      	str	r3, [r0, #44]	@ 0x2c
 80033c2:	680b      	ldr	r3, [r1, #0]
 80033c4:	6283      	str	r3, [r0, #40]	@ 0x28
 80033c6:	4b09      	ldr	r3, [pc, #36]	@ (80033ec <TIM_Base_SetConfig+0xd0>)
 80033c8:	4298      	cmp	r0, r3
 80033ca:	d003      	beq.n	80033d4 <TIM_Base_SetConfig+0xb8>
 80033cc:	f503 6380 	add.w	r3, r3, #1024	@ 0x400
 80033d0:	4298      	cmp	r0, r3
 80033d2:	d101      	bne.n	80033d8 <TIM_Base_SetConfig+0xbc>
 80033d4:	690b      	ldr	r3, [r1, #16]
 80033d6:	6303      	str	r3, [r0, #48]	@ 0x30
 80033d8:	2301      	movs	r3, #1
 80033da:	6143      	str	r3, [r0, #20]
 80033dc:	6903      	ldr	r3, [r0, #16]
 80033de:	07db      	lsls	r3, r3, #31
 80033e0:	bf42      	ittt	mi
 80033e2:	6903      	ldrmi	r3, [r0, #16]
 80033e4:	f023 0301 	bicmi.w	r3, r3, #1
 80033e8:	6103      	strmi	r3, [r0, #16]
 80033ea:	4770      	bx	lr
 80033ec:	40010000 	.word	0x40010000
 80033f0:	40014000 	.word	0x40014000

080033f4 <HAL_TIM_Base_Init>:
 80033f4:	b510      	push	{r4, lr}
 80033f6:	4604      	mov	r4, r0
 80033f8:	b330      	cbz	r0, 8003448 <HAL_TIM_Base_Init+0x54>
 80033fa:	f890 303d 	ldrb.w	r3, [r0, #61]	@ 0x3d
 80033fe:	f003 02ff 	and.w	r2, r3, #255	@ 0xff
 8003402:	b91b      	cbnz	r3, 800340c <HAL_TIM_Base_Init+0x18>
 8003404:	f880 203c 	strb.w	r2, [r0, #60]	@ 0x3c
 8003408:	f7ff feb4 	bl	8003174 <HAL_TIM_Base_MspInit>
 800340c:	2302      	movs	r3, #2
 800340e:	6820      	ldr	r0, [r4, #0]
 8003410:	f884 303d 	strb.w	r3, [r4, #61]	@ 0x3d
 8003414:	1d21      	adds	r1, r4, #4
 8003416:	f7ff ff81 	bl	800331c <TIM_Base_SetConfig>
 800341a:	2301      	movs	r3, #1
 800341c:	f884 3046 	strb.w	r3, [r4, #70]	@ 0x46
 8003420:	2000      	movs	r0, #0
 8003422:	f884 303e 	strb.w	r3, [r4, #62]	@ 0x3e
 8003426:	f884 303f 	strb.w	r3, [r4, #63]	@ 0x3f
 800342a:	f884 3040 	strb.w	r3, [r4, #64]	@ 0x40
 800342e:	f884 3041 	strb.w	r3, [r4, #65]	@ 0x41
 8003432:	f884 3042 	strb.w	r3, [r4, #66]	@ 0x42
 8003436:	f884 3043 	strb.w	r3, [r4, #67]	@ 0x43
 800343a:	f884 3044 	strb.w	r3, [r4, #68]	@ 0x44
 800343e:	f884 3045 	strb.w	r3, [r4, #69]	@ 0x45
 8003442:	f884 303d 	strb.w	r3, [r4, #61]	@ 0x3d
 8003446:	bd10      	pop	{r4, pc}
 8003448:	2001      	movs	r0, #1
 800344a:	e7fc      	b.n	8003446 <HAL_TIM_Base_Init+0x52>

0800344c <HAL_TIMEx_CommutCallback>:
 800344c:	4770      	bx	lr

0800344e <HAL_TIMEx_BreakCallback>:
 800344e:	4770      	bx	lr

08003450 <UART_EndRxTransfer>:
 8003450:	6802      	ldr	r2, [r0, #0]
 8003452:	f102 030c 	add.w	r3, r2, #12
 8003456:	e853 3f00 	ldrex	r3, [r3]
 800345a:	f423 7390 	bic.w	r3, r3, #288	@ 0x120
 800345e:	320c      	adds	r2, #12
 8003460:	e842 3100 	strex	r1, r3, [r2]
 8003464:	6802      	ldr	r2, [r0, #0]
 8003466:	2900      	cmp	r1, #0
 8003468:	d1f2      	bne.n	8003450 <UART_EndRxTransfer>
 800346a:	f102 0314 	add.w	r3, r2, #20
 800346e:	e853 3f00 	ldrex	r3, [r3]
 8003472:	f023 0301 	bic.w	r3, r3, #1
 8003476:	f102 0c14 	add.w	ip, r2, #20
 800347a:	e84c 3100 	strex	r1, r3, [ip]
 800347e:	2900      	cmp	r1, #0
 8003480:	d1f3      	bne.n	800346a <UART_EndRxTransfer+0x1a>
 8003482:	6b03      	ldr	r3, [r0, #48]	@ 0x30
 8003484:	2b01      	cmp	r3, #1
 8003486:	d10b      	bne.n	80034a0 <UART_EndRxTransfer+0x50>
 8003488:	f102 030c 	add.w	r3, r2, #12
 800348c:	e853 3f00 	ldrex	r3, [r3]
 8003490:	f023 0310 	bic.w	r3, r3, #16
 8003494:	f102 0c0c 	add.w	ip, r2, #12
 8003498:	e84c 3100 	strex	r1, r3, [ip]
 800349c:	2900      	cmp	r1, #0
 800349e:	d1f3      	bne.n	8003488 <UART_EndRxTransfer+0x38>
 80034a0:	2320      	movs	r3, #32
 80034a2:	f880 3042 	strb.w	r3, [r0, #66]	@ 0x42
 80034a6:	2300      	movs	r3, #0
 80034a8:	6303      	str	r3, [r0, #48]	@ 0x30
 80034aa:	4770      	bx	lr

080034ac <UART_SetConfig>:
 80034ac:	6802      	ldr	r2, [r0, #0]
 80034ae:	68c1      	ldr	r1, [r0, #12]
 80034b0:	b538      	push	{r3, r4, r5, lr}
 80034b2:	6913      	ldr	r3, [r2, #16]
 80034b4:	f423 5340 	bic.w	r3, r3, #12288	@ 0x3000
 80034b8:	430b      	orrs	r3, r1
 80034ba:	6113      	str	r3, [r2, #16]
 80034bc:	4605      	mov	r5, r0
 80034be:	6883      	ldr	r3, [r0, #8]
 80034c0:	6900      	ldr	r0, [r0, #16]
 80034c2:	68d1      	ldr	r1, [r2, #12]
 80034c4:	4303      	orrs	r3, r0
 80034c6:	6968      	ldr	r0, [r5, #20]
 80034c8:	4303      	orrs	r3, r0
 80034ca:	69e8      	ldr	r0, [r5, #28]
 80034cc:	f421 4116 	bic.w	r1, r1, #38400	@ 0x9600
 80034d0:	f021 010c 	bic.w	r1, r1, #12
 80034d4:	4303      	orrs	r3, r0
 80034d6:	430b      	orrs	r3, r1
 80034d8:	60d3      	str	r3, [r2, #12]
 80034da:	6953      	ldr	r3, [r2, #20]
 80034dc:	69a9      	ldr	r1, [r5, #24]
 80034de:	f423 7340 	bic.w	r3, r3, #768	@ 0x300
 80034e2:	430b      	orrs	r3, r1
 80034e4:	6153      	str	r3, [r2, #20]
 80034e6:	4b1f      	ldr	r3, [pc, #124]	@ (8003564 <UART_SetConfig+0xb8>)
 80034e8:	429a      	cmp	r2, r3
 80034ea:	d003      	beq.n	80034f4 <UART_SetConfig+0x48>
 80034ec:	f503 6380 	add.w	r3, r3, #1024	@ 0x400
 80034f0:	429a      	cmp	r2, r3
 80034f2:	d124      	bne.n	800353e <UART_SetConfig+0x92>
 80034f4:	f7ff f888 	bl	8002608 <HAL_RCC_GetPCLK2Freq>
 80034f8:	69ea      	ldr	r2, [r5, #28]
 80034fa:	2119      	movs	r1, #25
 80034fc:	f5b2 4f00 	cmp.w	r2, #32768	@ 0x8000
 8003500:	e9d5 4300 	ldrd	r4, r3, [r5]
 8003504:	fba0 0101 	umull	r0, r1, r0, r1
 8003508:	d11c      	bne.n	8003544 <UART_SetConfig+0x98>
 800350a:	18da      	adds	r2, r3, r3
 800350c:	f04f 0500 	mov.w	r5, #0
 8003510:	eb45 0305 	adc.w	r3, r5, r5
 8003514:	f7fd fbd8 	bl	8000cc8 <__aeabi_uldivmod>
 8003518:	2264      	movs	r2, #100	@ 0x64
 800351a:	fbb0 f1f2 	udiv	r1, r0, r2
 800351e:	fb02 0311 	mls	r3, r2, r1, r0
 8003522:	00db      	lsls	r3, r3, #3
 8003524:	3332      	adds	r3, #50	@ 0x32
 8003526:	fbb3 f3f2 	udiv	r3, r3, r2
 800352a:	f003 0207 	and.w	r2, r3, #7
 800352e:	005b      	lsls	r3, r3, #1
 8003530:	eb02 1201 	add.w	r2, r2, r1, lsl #4
 8003534:	f403 73f8 	and.w	r3, r3, #496	@ 0x1f0
 8003538:	4413      	add	r3, r2
 800353a:	60a3      	str	r3, [r4, #8]
 800353c:	bd38      	pop	{r3, r4, r5, pc}
 800353e:	f7ff f853 	bl	80025e8 <HAL_RCC_GetPCLK1Freq>
 8003542:	e7d9      	b.n	80034f8 <UART_SetConfig+0x4c>
 8003544:	009a      	lsls	r2, r3, #2
 8003546:	0f9b      	lsrs	r3, r3, #30
 8003548:	f7fd fbbe 	bl	8000cc8 <__aeabi_uldivmod>
 800354c:	2264      	movs	r2, #100	@ 0x64
 800354e:	fbb0 f1f2 	udiv	r1, r0, r2
 8003552:	fb02 0311 	mls	r3, r2, r1, r0
 8003556:	011b      	lsls	r3, r3, #4
 8003558:	3332      	adds	r3, #50	@ 0x32
 800355a:	fbb3 f3f2 	udiv	r3, r3, r2
 800355e:	eb03 1301 	add.w	r3, r3, r1, lsl #4
 8003562:	e7ea      	b.n	800353a <UART_SetConfig+0x8e>
 8003564:	40011000 	.word	0x40011000

08003568 <UART_WaitOnFlagUntilTimeout.constprop.0>:
 8003568:	b5f7      	push	{r0, r1, r2, r4, r5, r6, r7, lr}
 800356a:	4605      	mov	r5, r0
 800356c:	460c      	mov	r4, r1
 800356e:	4617      	mov	r7, r2
 8003570:	461e      	mov	r6, r3
 8003572:	682a      	ldr	r2, [r5, #0]
 8003574:	6813      	ldr	r3, [r2, #0]
 8003576:	ea34 0303 	bics.w	r3, r4, r3
 800357a:	d101      	bne.n	8003580 <UART_WaitOnFlagUntilTimeout.constprop.0+0x18>
 800357c:	2000      	movs	r0, #0
 800357e:	e021      	b.n	80035c4 <UART_WaitOnFlagUntilTimeout.constprop.0+0x5c>
 8003580:	1c70      	adds	r0, r6, #1
 8003582:	d0f7      	beq.n	8003574 <UART_WaitOnFlagUntilTimeout.constprop.0+0xc>
 8003584:	f7fe fd2e 	bl	8001fe4 <HAL_GetTick>
 8003588:	1bc0      	subs	r0, r0, r7
 800358a:	4286      	cmp	r6, r0
 800358c:	d31c      	bcc.n	80035c8 <UART_WaitOnFlagUntilTimeout.constprop.0+0x60>
 800358e:	b1de      	cbz	r6, 80035c8 <UART_WaitOnFlagUntilTimeout.constprop.0+0x60>
 8003590:	682b      	ldr	r3, [r5, #0]
 8003592:	68da      	ldr	r2, [r3, #12]
 8003594:	0751      	lsls	r1, r2, #29
 8003596:	d5ec      	bpl.n	8003572 <UART_WaitOnFlagUntilTimeout.constprop.0+0xa>
 8003598:	2c80      	cmp	r4, #128	@ 0x80
 800359a:	d0ea      	beq.n	8003572 <UART_WaitOnFlagUntilTimeout.constprop.0+0xa>
 800359c:	2c40      	cmp	r4, #64	@ 0x40
 800359e:	d0e8      	beq.n	8003572 <UART_WaitOnFlagUntilTimeout.constprop.0+0xa>
 80035a0:	681a      	ldr	r2, [r3, #0]
 80035a2:	0712      	lsls	r2, r2, #28
 80035a4:	d5e5      	bpl.n	8003572 <UART_WaitOnFlagUntilTimeout.constprop.0+0xa>
 80035a6:	2400      	movs	r4, #0
 80035a8:	9401      	str	r4, [sp, #4]
 80035aa:	681a      	ldr	r2, [r3, #0]
 80035ac:	9201      	str	r2, [sp, #4]
 80035ae:	685b      	ldr	r3, [r3, #4]
 80035b0:	9301      	str	r3, [sp, #4]
 80035b2:	4628      	mov	r0, r5
 80035b4:	9b01      	ldr	r3, [sp, #4]
 80035b6:	f7ff ff4b 	bl	8003450 <UART_EndRxTransfer>
 80035ba:	2308      	movs	r3, #8
 80035bc:	646b      	str	r3, [r5, #68]	@ 0x44
 80035be:	f885 4040 	strb.w	r4, [r5, #64]	@ 0x40
 80035c2:	2001      	movs	r0, #1
 80035c4:	b003      	add	sp, #12
 80035c6:	bdf0      	pop	{r4, r5, r6, r7, pc}
 80035c8:	2003      	movs	r0, #3
 80035ca:	e7fb      	b.n	80035c4 <UART_WaitOnFlagUntilTimeout.constprop.0+0x5c>

080035cc <HAL_UART_Init>:
 80035cc:	b510      	push	{r4, lr}
 80035ce:	4604      	mov	r4, r0
 80035d0:	b348      	cbz	r0, 8003626 <HAL_UART_Init+0x5a>
 80035d2:	f890 3041 	ldrb.w	r3, [r0, #65]	@ 0x41
 80035d6:	f003 02ff 	and.w	r2, r3, #255	@ 0xff
 80035da:	b91b      	cbnz	r3, 80035e4 <HAL_UART_Init+0x18>
 80035dc:	f880 2040 	strb.w	r2, [r0, #64]	@ 0x40
 80035e0:	f7fe fc16 	bl	8001e10 <HAL_UART_MspInit>
 80035e4:	6822      	ldr	r2, [r4, #0]
 80035e6:	2324      	movs	r3, #36	@ 0x24
 80035e8:	f884 3041 	strb.w	r3, [r4, #65]	@ 0x41
 80035ec:	68d3      	ldr	r3, [r2, #12]
 80035ee:	f423 5300 	bic.w	r3, r3, #8192	@ 0x2000
 80035f2:	60d3      	str	r3, [r2, #12]
 80035f4:	4620      	mov	r0, r4
 80035f6:	f7ff ff59 	bl	80034ac <UART_SetConfig>
 80035fa:	6823      	ldr	r3, [r4, #0]
 80035fc:	691a      	ldr	r2, [r3, #16]
 80035fe:	f422 4290 	bic.w	r2, r2, #18432	@ 0x4800
 8003602:	611a      	str	r2, [r3, #16]
 8003604:	695a      	ldr	r2, [r3, #20]
 8003606:	f022 022a 	bic.w	r2, r2, #42	@ 0x2a
 800360a:	615a      	str	r2, [r3, #20]
 800360c:	68da      	ldr	r2, [r3, #12]
 800360e:	f442 5200 	orr.w	r2, r2, #8192	@ 0x2000
 8003612:	60da      	str	r2, [r3, #12]
 8003614:	2000      	movs	r0, #0
 8003616:	2320      	movs	r3, #32
 8003618:	6460      	str	r0, [r4, #68]	@ 0x44
 800361a:	f884 3041 	strb.w	r3, [r4, #65]	@ 0x41
 800361e:	f884 3042 	strb.w	r3, [r4, #66]	@ 0x42
 8003622:	6360      	str	r0, [r4, #52]	@ 0x34
 8003624:	bd10      	pop	{r4, pc}
 8003626:	2001      	movs	r0, #1
 8003628:	e7fc      	b.n	8003624 <HAL_UART_Init+0x58>

0800362a <HAL_UART_Transmit>:
 800362a:	e92d 43f8 	stmdb	sp!, {r3, r4, r5, r6, r7, r8, r9, lr}
 800362e:	4698      	mov	r8, r3
 8003630:	f890 3041 	ldrb.w	r3, [r0, #65]	@ 0x41
 8003634:	2b20      	cmp	r3, #32
 8003636:	4604      	mov	r4, r0
 8003638:	460e      	mov	r6, r1
 800363a:	4617      	mov	r7, r2
 800363c:	d13f      	bne.n	80036be <HAL_UART_Transmit+0x94>
 800363e:	2900      	cmp	r1, #0
 8003640:	d03f      	beq.n	80036c2 <HAL_UART_Transmit+0x98>
 8003642:	2a00      	cmp	r2, #0
 8003644:	d03d      	beq.n	80036c2 <HAL_UART_Transmit+0x98>
 8003646:	2321      	movs	r3, #33	@ 0x21
 8003648:	2500      	movs	r5, #0
 800364a:	6445      	str	r5, [r0, #68]	@ 0x44
 800364c:	f880 3041 	strb.w	r3, [r0, #65]	@ 0x41
 8003650:	f7fe fcc8 	bl	8001fe4 <HAL_GetTick>
 8003654:	68a3      	ldr	r3, [r4, #8]
 8003656:	84a7      	strh	r7, [r4, #36]	@ 0x24
 8003658:	f5b3 5f80 	cmp.w	r3, #4096	@ 0x1000
 800365c:	4681      	mov	r9, r0
 800365e:	84e7      	strh	r7, [r4, #38]	@ 0x26
 8003660:	d103      	bne.n	800366a <HAL_UART_Transmit+0x40>
 8003662:	6923      	ldr	r3, [r4, #16]
 8003664:	b90b      	cbnz	r3, 800366a <HAL_UART_Transmit+0x40>
 8003666:	4635      	mov	r5, r6
 8003668:	461e      	mov	r6, r3
 800366a:	8ce3      	ldrh	r3, [r4, #38]	@ 0x26
 800366c:	b29b      	uxth	r3, r3
 800366e:	b953      	cbnz	r3, 8003686 <HAL_UART_Transmit+0x5c>
 8003670:	4643      	mov	r3, r8
 8003672:	464a      	mov	r2, r9
 8003674:	2140      	movs	r1, #64	@ 0x40
 8003676:	4620      	mov	r0, r4
 8003678:	f7ff ff76 	bl	8003568 <UART_WaitOnFlagUntilTimeout.constprop.0>
 800367c:	2320      	movs	r3, #32
 800367e:	b950      	cbnz	r0, 8003696 <HAL_UART_Transmit+0x6c>
 8003680:	f884 3041 	strb.w	r3, [r4, #65]	@ 0x41
 8003684:	e00a      	b.n	800369c <HAL_UART_Transmit+0x72>
 8003686:	4643      	mov	r3, r8
 8003688:	464a      	mov	r2, r9
 800368a:	2180      	movs	r1, #128	@ 0x80
 800368c:	4620      	mov	r0, r4
 800368e:	f7ff ff6b 	bl	8003568 <UART_WaitOnFlagUntilTimeout.constprop.0>
 8003692:	b128      	cbz	r0, 80036a0 <HAL_UART_Transmit+0x76>
 8003694:	2320      	movs	r3, #32
 8003696:	f884 3041 	strb.w	r3, [r4, #65]	@ 0x41
 800369a:	2003      	movs	r0, #3
 800369c:	e8bd 83f8 	ldmia.w	sp!, {r3, r4, r5, r6, r7, r8, r9, pc}
 80036a0:	6822      	ldr	r2, [r4, #0]
 80036a2:	b94e      	cbnz	r6, 80036b8 <HAL_UART_Transmit+0x8e>
 80036a4:	f835 3b02 	ldrh.w	r3, [r5], #2
 80036a8:	f3c3 0308 	ubfx	r3, r3, #0, #9
 80036ac:	6053      	str	r3, [r2, #4]
 80036ae:	8ce1      	ldrh	r1, [r4, #38]	@ 0x26
 80036b0:	3901      	subs	r1, #1
 80036b2:	b289      	uxth	r1, r1
 80036b4:	84e1      	strh	r1, [r4, #38]	@ 0x26
 80036b6:	e7d8      	b.n	800366a <HAL_UART_Transmit+0x40>
 80036b8:	f816 3b01 	ldrb.w	r3, [r6], #1
 80036bc:	e7f6      	b.n	80036ac <HAL_UART_Transmit+0x82>
 80036be:	2002      	movs	r0, #2
 80036c0:	e7ec      	b.n	800369c <HAL_UART_Transmit+0x72>
 80036c2:	2001      	movs	r0, #1
 80036c4:	e7ea      	b.n	800369c <HAL_UART_Transmit+0x72>
	...

080036c8 <calloc>:
 80036c8:	4b02      	ldr	r3, [pc, #8]	@ (80036d4 <calloc+0xc>)
 80036ca:	460a      	mov	r2, r1
 80036cc:	4601      	mov	r1, r0
 80036ce:	6818      	ldr	r0, [r3, #0]
 80036d0:	f000 b802 	b.w	80036d8 <_calloc_r>
 80036d4:	2000001c 	.word	0x2000001c

080036d8 <_calloc_r>:
 80036d8:	b570      	push	{r4, r5, r6, lr}
 80036da:	fba1 5402 	umull	r5, r4, r1, r2
 80036de:	b93c      	cbnz	r4, 80036f0 <_calloc_r+0x18>
 80036e0:	4629      	mov	r1, r5
 80036e2:	f000 f83f 	bl	8003764 <_malloc_r>
 80036e6:	4606      	mov	r6, r0
 80036e8:	b928      	cbnz	r0, 80036f6 <_calloc_r+0x1e>
 80036ea:	2600      	movs	r6, #0
 80036ec:	4630      	mov	r0, r6
 80036ee:	bd70      	pop	{r4, r5, r6, pc}
 80036f0:	220c      	movs	r2, #12
 80036f2:	6002      	str	r2, [r0, #0]
 80036f4:	e7f9      	b.n	80036ea <_calloc_r+0x12>
 80036f6:	462a      	mov	r2, r5
 80036f8:	4621      	mov	r1, r4
 80036fa:	f001 f850 	bl	800479e <memset>
 80036fe:	e7f5      	b.n	80036ec <_calloc_r+0x14>

08003700 <malloc>:
 8003700:	4b02      	ldr	r3, [pc, #8]	@ (800370c <malloc+0xc>)
 8003702:	4601      	mov	r1, r0
 8003704:	6818      	ldr	r0, [r3, #0]
 8003706:	f000 b82d 	b.w	8003764 <_malloc_r>
 800370a:	bf00      	nop
 800370c:	2000001c 	.word	0x2000001c

08003710 <free>:
 8003710:	4b02      	ldr	r3, [pc, #8]	@ (800371c <free+0xc>)
 8003712:	4601      	mov	r1, r0
 8003714:	6818      	ldr	r0, [r3, #0]
 8003716:	f001 bf27 	b.w	8005568 <_free_r>
 800371a:	bf00      	nop
 800371c:	2000001c 	.word	0x2000001c

08003720 <sbrk_aligned>:
 8003720:	b570      	push	{r4, r5, r6, lr}
 8003722:	4e0f      	ldr	r6, [pc, #60]	@ (8003760 <sbrk_aligned+0x40>)
 8003724:	460c      	mov	r4, r1
 8003726:	6831      	ldr	r1, [r6, #0]
 8003728:	4605      	mov	r5, r0
 800372a:	b911      	cbnz	r1, 8003732 <sbrk_aligned+0x12>
 800372c:	f001 f878 	bl	8004820 <_sbrk_r>
 8003730:	6030      	str	r0, [r6, #0]
 8003732:	4621      	mov	r1, r4
 8003734:	4628      	mov	r0, r5
 8003736:	f001 f873 	bl	8004820 <_sbrk_r>
 800373a:	1c43      	adds	r3, r0, #1
 800373c:	d103      	bne.n	8003746 <sbrk_aligned+0x26>
 800373e:	f04f 34ff 	mov.w	r4, #4294967295
 8003742:	4620      	mov	r0, r4
 8003744:	bd70      	pop	{r4, r5, r6, pc}
 8003746:	1cc4      	adds	r4, r0, #3
 8003748:	f024 0403 	bic.w	r4, r4, #3
 800374c:	42a0      	cmp	r0, r4
 800374e:	d0f8      	beq.n	8003742 <sbrk_aligned+0x22>
 8003750:	1a21      	subs	r1, r4, r0
 8003752:	4628      	mov	r0, r5
 8003754:	f001 f864 	bl	8004820 <_sbrk_r>
 8003758:	3001      	adds	r0, #1
 800375a:	d1f2      	bne.n	8003742 <sbrk_aligned+0x22>
 800375c:	e7ef      	b.n	800373e <sbrk_aligned+0x1e>
 800375e:	bf00      	nop
 8003760:	20000770 	.word	0x20000770

08003764 <_malloc_r>:
 8003764:	e92d 43f8 	stmdb	sp!, {r3, r4, r5, r6, r7, r8, r9, lr}
 8003768:	1ccd      	adds	r5, r1, #3
 800376a:	f025 0503 	bic.w	r5, r5, #3
 800376e:	3508      	adds	r5, #8
 8003770:	2d0c      	cmp	r5, #12
 8003772:	bf38      	it	cc
 8003774:	250c      	movcc	r5, #12
 8003776:	2d00      	cmp	r5, #0
 8003778:	4606      	mov	r6, r0
 800377a:	db01      	blt.n	8003780 <_malloc_r+0x1c>
 800377c:	42a9      	cmp	r1, r5
 800377e:	d904      	bls.n	800378a <_malloc_r+0x26>
 8003780:	230c      	movs	r3, #12
 8003782:	6033      	str	r3, [r6, #0]
 8003784:	2000      	movs	r0, #0
 8003786:	e8bd 83f8 	ldmia.w	sp!, {r3, r4, r5, r6, r7, r8, r9, pc}
 800378a:	f8df 80d4 	ldr.w	r8, [pc, #212]	@ 8003860 <_malloc_r+0xfc>
 800378e:	f000 f869 	bl	8003864 <__malloc_lock>
 8003792:	f8d8 3000 	ldr.w	r3, [r8]
 8003796:	461c      	mov	r4, r3
 8003798:	bb44      	cbnz	r4, 80037ec <_malloc_r+0x88>
 800379a:	4629      	mov	r1, r5
 800379c:	4630      	mov	r0, r6
 800379e:	f7ff ffbf 	bl	8003720 <sbrk_aligned>
 80037a2:	1c43      	adds	r3, r0, #1
 80037a4:	4604      	mov	r4, r0
 80037a6:	d158      	bne.n	800385a <_malloc_r+0xf6>
 80037a8:	f8d8 4000 	ldr.w	r4, [r8]
 80037ac:	4627      	mov	r7, r4
 80037ae:	2f00      	cmp	r7, #0
 80037b0:	d143      	bne.n	800383a <_malloc_r+0xd6>
 80037b2:	2c00      	cmp	r4, #0
 80037b4:	d04b      	beq.n	800384e <_malloc_r+0xea>
 80037b6:	6823      	ldr	r3, [r4, #0]
 80037b8:	4639      	mov	r1, r7
 80037ba:	4630      	mov	r0, r6
 80037bc:	eb04 0903 	add.w	r9, r4, r3
 80037c0:	f001 f82e 	bl	8004820 <_sbrk_r>
 80037c4:	4581      	cmp	r9, r0
 80037c6:	d142      	bne.n	800384e <_malloc_r+0xea>
 80037c8:	6821      	ldr	r1, [r4, #0]
 80037ca:	1a6d      	subs	r5, r5, r1
 80037cc:	4629      	mov	r1, r5
 80037ce:	4630      	mov	r0, r6
 80037d0:	f7ff ffa6 	bl	8003720 <sbrk_aligned>
 80037d4:	3001      	adds	r0, #1
 80037d6:	d03a      	beq.n	800384e <_malloc_r+0xea>
 80037d8:	6823      	ldr	r3, [r4, #0]
 80037da:	442b      	add	r3, r5
 80037dc:	6023      	str	r3, [r4, #0]
 80037de:	f8d8 3000 	ldr.w	r3, [r8]
 80037e2:	685a      	ldr	r2, [r3, #4]
 80037e4:	bb62      	cbnz	r2, 8003840 <_malloc_r+0xdc>
 80037e6:	f8c8 7000 	str.w	r7, [r8]
 80037ea:	e00f      	b.n	800380c <_malloc_r+0xa8>
 80037ec:	6822      	ldr	r2, [r4, #0]
 80037ee:	1b52      	subs	r2, r2, r5
 80037f0:	d420      	bmi.n	8003834 <_malloc_r+0xd0>
 80037f2:	2a0b      	cmp	r2, #11
 80037f4:	d917      	bls.n	8003826 <_malloc_r+0xc2>
 80037f6:	1961      	adds	r1, r4, r5
 80037f8:	42a3      	cmp	r3, r4
 80037fa:	6025      	str	r5, [r4, #0]
 80037fc:	bf18      	it	ne
 80037fe:	6059      	strne	r1, [r3, #4]
 8003800:	6863      	ldr	r3, [r4, #4]
 8003802:	bf08      	it	eq
 8003804:	f8c8 1000 	streq.w	r1, [r8]
 8003808:	5162      	str	r2, [r4, r5]
 800380a:	604b      	str	r3, [r1, #4]
 800380c:	4630      	mov	r0, r6
 800380e:	f000 f82f 	bl	8003870 <__malloc_unlock>
 8003812:	f104 000b 	add.w	r0, r4, #11
 8003816:	1d23      	adds	r3, r4, #4
 8003818:	f020 0007 	bic.w	r0, r0, #7
 800381c:	1ac2      	subs	r2, r0, r3
 800381e:	bf1c      	itt	ne
 8003820:	1a1b      	subne	r3, r3, r0
 8003822:	50a3      	strne	r3, [r4, r2]
 8003824:	e7af      	b.n	8003786 <_malloc_r+0x22>
 8003826:	6862      	ldr	r2, [r4, #4]
 8003828:	42a3      	cmp	r3, r4
 800382a:	bf0c      	ite	eq
 800382c:	f8c8 2000 	streq.w	r2, [r8]
 8003830:	605a      	strne	r2, [r3, #4]
 8003832:	e7eb      	b.n	800380c <_malloc_r+0xa8>
 8003834:	4623      	mov	r3, r4
 8003836:	6864      	ldr	r4, [r4, #4]
 8003838:	e7ae      	b.n	8003798 <_malloc_r+0x34>
 800383a:	463c      	mov	r4, r7
 800383c:	687f      	ldr	r7, [r7, #4]
 800383e:	e7b6      	b.n	80037ae <_malloc_r+0x4a>
 8003840:	461a      	mov	r2, r3
 8003842:	685b      	ldr	r3, [r3, #4]
 8003844:	42a3      	cmp	r3, r4
 8003846:	d1fb      	bne.n	8003840 <_malloc_r+0xdc>
 8003848:	2300      	movs	r3, #0
 800384a:	6053      	str	r3, [r2, #4]
 800384c:	e7de      	b.n	800380c <_malloc_r+0xa8>
 800384e:	230c      	movs	r3, #12
 8003850:	6033      	str	r3, [r6, #0]
 8003852:	4630      	mov	r0, r6
 8003854:	f000 f80c 	bl	8003870 <__malloc_unlock>
 8003858:	e794      	b.n	8003784 <_malloc_r+0x20>
 800385a:	6005      	str	r5, [r0, #0]
 800385c:	e7d6      	b.n	800380c <_malloc_r+0xa8>
 800385e:	bf00      	nop
 8003860:	20000774 	.word	0x20000774

08003864 <__malloc_lock>:
 8003864:	4801      	ldr	r0, [pc, #4]	@ (800386c <__malloc_lock+0x8>)
 8003866:	f001 b822 	b.w	80048ae <__retarget_lock_acquire_recursive>
 800386a:	bf00      	nop
 800386c:	200008b8 	.word	0x200008b8

08003870 <__malloc_unlock>:
 8003870:	4801      	ldr	r0, [pc, #4]	@ (8003878 <__malloc_unlock+0x8>)
 8003872:	f001 b81d 	b.w	80048b0 <__retarget_lock_release_recursive>
 8003876:	bf00      	nop
 8003878:	200008b8 	.word	0x200008b8

0800387c <__cvt>:
 800387c:	e92d 47ff 	stmdb	sp!, {r0, r1, r2, r3, r4, r5, r6, r7, r8, r9, sl, lr}
 8003880:	ec57 6b10 	vmov	r6, r7, d0
 8003884:	2f00      	cmp	r7, #0
 8003886:	460c      	mov	r4, r1
 8003888:	4619      	mov	r1, r3
 800388a:	463b      	mov	r3, r7
 800388c:	bfbb      	ittet	lt
 800388e:	f107 4300 	addlt.w	r3, r7, #2147483648	@ 0x80000000
 8003892:	461f      	movlt	r7, r3
 8003894:	2300      	movge	r3, #0
 8003896:	232d      	movlt	r3, #45	@ 0x2d
 8003898:	700b      	strb	r3, [r1, #0]
 800389a:	9b0d      	ldr	r3, [sp, #52]	@ 0x34
 800389c:	f8dd a030 	ldr.w	sl, [sp, #48]	@ 0x30
 80038a0:	4691      	mov	r9, r2
 80038a2:	f023 0820 	bic.w	r8, r3, #32
 80038a6:	bfbc      	itt	lt
 80038a8:	4632      	movlt	r2, r6
 80038aa:	4616      	movlt	r6, r2
 80038ac:	f1b8 0f46 	cmp.w	r8, #70	@ 0x46
 80038b0:	d005      	beq.n	80038be <__cvt+0x42>
 80038b2:	f1b8 0f45 	cmp.w	r8, #69	@ 0x45
 80038b6:	d100      	bne.n	80038ba <__cvt+0x3e>
 80038b8:	3401      	adds	r4, #1
 80038ba:	2102      	movs	r1, #2
 80038bc:	e000      	b.n	80038c0 <__cvt+0x44>
 80038be:	2103      	movs	r1, #3
 80038c0:	ab03      	add	r3, sp, #12
 80038c2:	9301      	str	r3, [sp, #4]
 80038c4:	ab02      	add	r3, sp, #8
 80038c6:	9300      	str	r3, [sp, #0]
 80038c8:	ec47 6b10 	vmov	d0, r6, r7
 80038cc:	4653      	mov	r3, sl
 80038ce:	4622      	mov	r2, r4
 80038d0:	f001 f886 	bl	80049e0 <_dtoa_r>
 80038d4:	f1b8 0f47 	cmp.w	r8, #71	@ 0x47
 80038d8:	4605      	mov	r5, r0
 80038da:	d119      	bne.n	8003910 <__cvt+0x94>
 80038dc:	f019 0f01 	tst.w	r9, #1
 80038e0:	d00e      	beq.n	8003900 <__cvt+0x84>
 80038e2:	eb00 0904 	add.w	r9, r0, r4
 80038e6:	2200      	movs	r2, #0
 80038e8:	2300      	movs	r3, #0
 80038ea:	4630      	mov	r0, r6
 80038ec:	4639      	mov	r1, r7
 80038ee:	f7fd f90b 	bl	8000b08 <__aeabi_dcmpeq>
 80038f2:	b108      	cbz	r0, 80038f8 <__cvt+0x7c>
 80038f4:	f8cd 900c 	str.w	r9, [sp, #12]
 80038f8:	2230      	movs	r2, #48	@ 0x30
 80038fa:	9b03      	ldr	r3, [sp, #12]
 80038fc:	454b      	cmp	r3, r9
 80038fe:	d31e      	bcc.n	800393e <__cvt+0xc2>
 8003900:	9b03      	ldr	r3, [sp, #12]
 8003902:	9a0e      	ldr	r2, [sp, #56]	@ 0x38
 8003904:	1b5b      	subs	r3, r3, r5
 8003906:	4628      	mov	r0, r5
 8003908:	6013      	str	r3, [r2, #0]
 800390a:	b004      	add	sp, #16
 800390c:	e8bd 87f0 	ldmia.w	sp!, {r4, r5, r6, r7, r8, r9, sl, pc}
 8003910:	f1b8 0f46 	cmp.w	r8, #70	@ 0x46
 8003914:	eb00 0904 	add.w	r9, r0, r4
 8003918:	d1e5      	bne.n	80038e6 <__cvt+0x6a>
 800391a:	7803      	ldrb	r3, [r0, #0]
 800391c:	2b30      	cmp	r3, #48	@ 0x30
 800391e:	d10a      	bne.n	8003936 <__cvt+0xba>
 8003920:	2200      	movs	r2, #0
 8003922:	2300      	movs	r3, #0
 8003924:	4630      	mov	r0, r6
 8003926:	4639      	mov	r1, r7
 8003928:	f7fd f8ee 	bl	8000b08 <__aeabi_dcmpeq>
 800392c:	b918      	cbnz	r0, 8003936 <__cvt+0xba>
 800392e:	f1c4 0401 	rsb	r4, r4, #1
 8003932:	f8ca 4000 	str.w	r4, [sl]
 8003936:	f8da 3000 	ldr.w	r3, [sl]
 800393a:	4499      	add	r9, r3
 800393c:	e7d3      	b.n	80038e6 <__cvt+0x6a>
 800393e:	1c59      	adds	r1, r3, #1
 8003940:	9103      	str	r1, [sp, #12]
 8003942:	701a      	strb	r2, [r3, #0]
 8003944:	e7d9      	b.n	80038fa <__cvt+0x7e>

08003946 <__exponent>:
 8003946:	b5f7      	push	{r0, r1, r2, r4, r5, r6, r7, lr}
 8003948:	2900      	cmp	r1, #0
 800394a:	bfba      	itte	lt
 800394c:	4249      	neglt	r1, r1
 800394e:	232d      	movlt	r3, #45	@ 0x2d
 8003950:	232b      	movge	r3, #43	@ 0x2b
 8003952:	2909      	cmp	r1, #9
 8003954:	7002      	strb	r2, [r0, #0]
 8003956:	7043      	strb	r3, [r0, #1]
 8003958:	dd29      	ble.n	80039ae <__exponent+0x68>
 800395a:	f10d 0307 	add.w	r3, sp, #7
 800395e:	461d      	mov	r5, r3
 8003960:	270a      	movs	r7, #10
 8003962:	461a      	mov	r2, r3
 8003964:	fbb1 f6f7 	udiv	r6, r1, r7
 8003968:	fb07 1416 	mls	r4, r7, r6, r1
 800396c:	3430      	adds	r4, #48	@ 0x30
 800396e:	f802 4c01 	strb.w	r4, [r2, #-1]
 8003972:	460c      	mov	r4, r1
 8003974:	2c63      	cmp	r4, #99	@ 0x63
 8003976:	f103 33ff 	add.w	r3, r3, #4294967295
 800397a:	4631      	mov	r1, r6
 800397c:	dcf1      	bgt.n	8003962 <__exponent+0x1c>
 800397e:	3130      	adds	r1, #48	@ 0x30
 8003980:	1e94      	subs	r4, r2, #2
 8003982:	f803 1c01 	strb.w	r1, [r3, #-1]
 8003986:	1c41      	adds	r1, r0, #1
 8003988:	4623      	mov	r3, r4
 800398a:	42ab      	cmp	r3, r5
 800398c:	d30a      	bcc.n	80039a4 <__exponent+0x5e>
 800398e:	f10d 0309 	add.w	r3, sp, #9
 8003992:	1a9b      	subs	r3, r3, r2
 8003994:	42ac      	cmp	r4, r5
 8003996:	bf88      	it	hi
 8003998:	2300      	movhi	r3, #0
 800399a:	3302      	adds	r3, #2
 800399c:	4403      	add	r3, r0
 800399e:	1a18      	subs	r0, r3, r0
 80039a0:	b003      	add	sp, #12
 80039a2:	bdf0      	pop	{r4, r5, r6, r7, pc}
 80039a4:	f813 6b01 	ldrb.w	r6, [r3], #1
 80039a8:	f801 6f01 	strb.w	r6, [r1, #1]!
 80039ac:	e7ed      	b.n	800398a <__exponent+0x44>
 80039ae:	2330      	movs	r3, #48	@ 0x30
 80039b0:	3130      	adds	r1, #48	@ 0x30
 80039b2:	7083      	strb	r3, [r0, #2]
 80039b4:	70c1      	strb	r1, [r0, #3]
 80039b6:	1d03      	adds	r3, r0, #4
 80039b8:	e7f1      	b.n	800399e <__exponent+0x58>
	...

080039bc <_printf_float>:
 80039bc:	e92d 4ff0 	stmdb	sp!, {r4, r5, r6, r7, r8, r9, sl, fp, lr}
 80039c0:	b08d      	sub	sp, #52	@ 0x34
 80039c2:	460c      	mov	r4, r1
 80039c4:	f8dd 8058 	ldr.w	r8, [sp, #88]	@ 0x58
 80039c8:	4616      	mov	r6, r2
 80039ca:	461f      	mov	r7, r3
 80039cc:	4605      	mov	r5, r0
 80039ce:	f000 feef 	bl	80047b0 <_localeconv_r>
 80039d2:	6803      	ldr	r3, [r0, #0]
 80039d4:	9304      	str	r3, [sp, #16]
 80039d6:	4618      	mov	r0, r3
 80039d8:	f7fc fc6a 	bl	80002b0 <strlen>
 80039dc:	2300      	movs	r3, #0
 80039de:	930a      	str	r3, [sp, #40]	@ 0x28
 80039e0:	f8d8 3000 	ldr.w	r3, [r8]
 80039e4:	9005      	str	r0, [sp, #20]
 80039e6:	3307      	adds	r3, #7
 80039e8:	f023 0307 	bic.w	r3, r3, #7
 80039ec:	f103 0208 	add.w	r2, r3, #8
 80039f0:	f894 a018 	ldrb.w	sl, [r4, #24]
 80039f4:	f8d4 b000 	ldr.w	fp, [r4]
 80039f8:	f8c8 2000 	str.w	r2, [r8]
 80039fc:	e9d3 8900 	ldrd	r8, r9, [r3]
 8003a00:	f029 4300 	bic.w	r3, r9, #2147483648	@ 0x80000000
 8003a04:	9307      	str	r3, [sp, #28]
 8003a06:	f8cd 8018 	str.w	r8, [sp, #24]
 8003a0a:	e9c4 8912 	strd	r8, r9, [r4, #72]	@ 0x48
 8003a0e:	e9dd 0106 	ldrd	r0, r1, [sp, #24]
 8003a12:	4b9c      	ldr	r3, [pc, #624]	@ (8003c84 <_printf_float+0x2c8>)
 8003a14:	f04f 32ff 	mov.w	r2, #4294967295
 8003a18:	f7fd f8a8 	bl	8000b6c <__aeabi_dcmpun>
 8003a1c:	bb70      	cbnz	r0, 8003a7c <_printf_float+0xc0>
 8003a1e:	e9dd 0106 	ldrd	r0, r1, [sp, #24]
 8003a22:	4b98      	ldr	r3, [pc, #608]	@ (8003c84 <_printf_float+0x2c8>)
 8003a24:	f04f 32ff 	mov.w	r2, #4294967295
 8003a28:	f7fd f882 	bl	8000b30 <__aeabi_dcmple>
 8003a2c:	bb30      	cbnz	r0, 8003a7c <_printf_float+0xc0>
 8003a2e:	2200      	movs	r2, #0
 8003a30:	2300      	movs	r3, #0
 8003a32:	4640      	mov	r0, r8
 8003a34:	4649      	mov	r1, r9
 8003a36:	f7fd f871 	bl	8000b1c <__aeabi_dcmplt>
 8003a3a:	b110      	cbz	r0, 8003a42 <_printf_float+0x86>
 8003a3c:	232d      	movs	r3, #45	@ 0x2d
 8003a3e:	f884 3043 	strb.w	r3, [r4, #67]	@ 0x43
 8003a42:	4a91      	ldr	r2, [pc, #580]	@ (8003c88 <_printf_float+0x2cc>)
 8003a44:	4b91      	ldr	r3, [pc, #580]	@ (8003c8c <_printf_float+0x2d0>)
 8003a46:	f1ba 0f47 	cmp.w	sl, #71	@ 0x47
 8003a4a:	bf94      	ite	ls
 8003a4c:	4690      	movls	r8, r2
 8003a4e:	4698      	movhi	r8, r3
 8003a50:	2303      	movs	r3, #3
 8003a52:	6123      	str	r3, [r4, #16]
 8003a54:	f02b 0304 	bic.w	r3, fp, #4
 8003a58:	6023      	str	r3, [r4, #0]
 8003a5a:	f04f 0900 	mov.w	r9, #0
 8003a5e:	9700      	str	r7, [sp, #0]
 8003a60:	4633      	mov	r3, r6
 8003a62:	aa0b      	add	r2, sp, #44	@ 0x2c
 8003a64:	4621      	mov	r1, r4
 8003a66:	4628      	mov	r0, r5
 8003a68:	f000 f9d2 	bl	8003e10 <_printf_common>
 8003a6c:	3001      	adds	r0, #1
 8003a6e:	f040 808d 	bne.w	8003b8c <_printf_float+0x1d0>
 8003a72:	f04f 30ff 	mov.w	r0, #4294967295
 8003a76:	b00d      	add	sp, #52	@ 0x34
 8003a78:	e8bd 8ff0 	ldmia.w	sp!, {r4, r5, r6, r7, r8, r9, sl, fp, pc}
 8003a7c:	4642      	mov	r2, r8
 8003a7e:	464b      	mov	r3, r9
 8003a80:	4640      	mov	r0, r8
 8003a82:	4649      	mov	r1, r9
 8003a84:	f7fd f872 	bl	8000b6c <__aeabi_dcmpun>
 8003a88:	b140      	cbz	r0, 8003a9c <_printf_float+0xe0>
 8003a8a:	464b      	mov	r3, r9
 8003a8c:	2b00      	cmp	r3, #0
 8003a8e:	bfbc      	itt	lt
 8003a90:	232d      	movlt	r3, #45	@ 0x2d
 8003a92:	f884 3043 	strblt.w	r3, [r4, #67]	@ 0x43
 8003a96:	4a7e      	ldr	r2, [pc, #504]	@ (8003c90 <_printf_float+0x2d4>)
 8003a98:	4b7e      	ldr	r3, [pc, #504]	@ (8003c94 <_printf_float+0x2d8>)
 8003a9a:	e7d4      	b.n	8003a46 <_printf_float+0x8a>
 8003a9c:	6863      	ldr	r3, [r4, #4]
 8003a9e:	f00a 02df 	and.w	r2, sl, #223	@ 0xdf
 8003aa2:	9206      	str	r2, [sp, #24]
 8003aa4:	1c5a      	adds	r2, r3, #1
 8003aa6:	d13b      	bne.n	8003b20 <_printf_float+0x164>
 8003aa8:	2306      	movs	r3, #6
 8003aaa:	6063      	str	r3, [r4, #4]
 8003aac:	f44b 6280 	orr.w	r2, fp, #1024	@ 0x400
 8003ab0:	2300      	movs	r3, #0
 8003ab2:	6022      	str	r2, [r4, #0]
 8003ab4:	9303      	str	r3, [sp, #12]
 8003ab6:	ab0a      	add	r3, sp, #40	@ 0x28
 8003ab8:	e9cd a301 	strd	sl, r3, [sp, #4]
 8003abc:	ab09      	add	r3, sp, #36	@ 0x24
 8003abe:	9300      	str	r3, [sp, #0]
 8003ac0:	6861      	ldr	r1, [r4, #4]
 8003ac2:	ec49 8b10 	vmov	d0, r8, r9
 8003ac6:	f10d 0323 	add.w	r3, sp, #35	@ 0x23
 8003aca:	4628      	mov	r0, r5
 8003acc:	f7ff fed6 	bl	800387c <__cvt>
 8003ad0:	9b06      	ldr	r3, [sp, #24]
 8003ad2:	9909      	ldr	r1, [sp, #36]	@ 0x24
 8003ad4:	2b47      	cmp	r3, #71	@ 0x47
 8003ad6:	4680      	mov	r8, r0
 8003ad8:	d129      	bne.n	8003b2e <_printf_float+0x172>
 8003ada:	1cc8      	adds	r0, r1, #3
 8003adc:	db02      	blt.n	8003ae4 <_printf_float+0x128>
 8003ade:	6863      	ldr	r3, [r4, #4]
 8003ae0:	4299      	cmp	r1, r3
 8003ae2:	dd41      	ble.n	8003b68 <_printf_float+0x1ac>
 8003ae4:	f1aa 0a02 	sub.w	sl, sl, #2
 8003ae8:	fa5f fa8a 	uxtb.w	sl, sl
 8003aec:	3901      	subs	r1, #1
 8003aee:	4652      	mov	r2, sl
 8003af0:	f104 0050 	add.w	r0, r4, #80	@ 0x50
 8003af4:	9109      	str	r1, [sp, #36]	@ 0x24
 8003af6:	f7ff ff26 	bl	8003946 <__exponent>
 8003afa:	9a0a      	ldr	r2, [sp, #40]	@ 0x28
 8003afc:	1813      	adds	r3, r2, r0
 8003afe:	2a01      	cmp	r2, #1
 8003b00:	4681      	mov	r9, r0
 8003b02:	6123      	str	r3, [r4, #16]
 8003b04:	dc02      	bgt.n	8003b0c <_printf_float+0x150>
 8003b06:	6822      	ldr	r2, [r4, #0]
 8003b08:	07d2      	lsls	r2, r2, #31
 8003b0a:	d501      	bpl.n	8003b10 <_printf_float+0x154>
 8003b0c:	3301      	adds	r3, #1
 8003b0e:	6123      	str	r3, [r4, #16]
 8003b10:	f89d 3023 	ldrb.w	r3, [sp, #35]	@ 0x23
 8003b14:	2b00      	cmp	r3, #0
 8003b16:	d0a2      	beq.n	8003a5e <_printf_float+0xa2>
 8003b18:	232d      	movs	r3, #45	@ 0x2d
 8003b1a:	f884 3043 	strb.w	r3, [r4, #67]	@ 0x43
 8003b1e:	e79e      	b.n	8003a5e <_printf_float+0xa2>
 8003b20:	9a06      	ldr	r2, [sp, #24]
 8003b22:	2a47      	cmp	r2, #71	@ 0x47
 8003b24:	d1c2      	bne.n	8003aac <_printf_float+0xf0>
 8003b26:	2b00      	cmp	r3, #0
 8003b28:	d1c0      	bne.n	8003aac <_printf_float+0xf0>
 8003b2a:	2301      	movs	r3, #1
 8003b2c:	e7bd      	b.n	8003aaa <_printf_float+0xee>
 8003b2e:	f1ba 0f65 	cmp.w	sl, #101	@ 0x65
 8003b32:	d9db      	bls.n	8003aec <_printf_float+0x130>
 8003b34:	f1ba 0f66 	cmp.w	sl, #102	@ 0x66
 8003b38:	d118      	bne.n	8003b6c <_printf_float+0x1b0>
 8003b3a:	2900      	cmp	r1, #0
 8003b3c:	6863      	ldr	r3, [r4, #4]
 8003b3e:	dd0b      	ble.n	8003b58 <_printf_float+0x19c>
 8003b40:	6121      	str	r1, [r4, #16]
 8003b42:	b913      	cbnz	r3, 8003b4a <_printf_float+0x18e>
 8003b44:	6822      	ldr	r2, [r4, #0]
 8003b46:	07d0      	lsls	r0, r2, #31
 8003b48:	d502      	bpl.n	8003b50 <_printf_float+0x194>
 8003b4a:	3301      	adds	r3, #1
 8003b4c:	440b      	add	r3, r1
 8003b4e:	6123      	str	r3, [r4, #16]
 8003b50:	65a1      	str	r1, [r4, #88]	@ 0x58
 8003b52:	f04f 0900 	mov.w	r9, #0
 8003b56:	e7db      	b.n	8003b10 <_printf_float+0x154>
 8003b58:	b913      	cbnz	r3, 8003b60 <_printf_float+0x1a4>
 8003b5a:	6822      	ldr	r2, [r4, #0]
 8003b5c:	07d2      	lsls	r2, r2, #31
 8003b5e:	d501      	bpl.n	8003b64 <_printf_float+0x1a8>
 8003b60:	3302      	adds	r3, #2
 8003b62:	e7f4      	b.n	8003b4e <_printf_float+0x192>
 8003b64:	2301      	movs	r3, #1
 8003b66:	e7f2      	b.n	8003b4e <_printf_float+0x192>
 8003b68:	f04f 0a67 	mov.w	sl, #103	@ 0x67
 8003b6c:	9b0a      	ldr	r3, [sp, #40]	@ 0x28
 8003b6e:	4299      	cmp	r1, r3
 8003b70:	db05      	blt.n	8003b7e <_printf_float+0x1c2>
 8003b72:	6823      	ldr	r3, [r4, #0]
 8003b74:	6121      	str	r1, [r4, #16]
 8003b76:	07d8      	lsls	r0, r3, #31
 8003b78:	d5ea      	bpl.n	8003b50 <_printf_float+0x194>
 8003b7a:	1c4b      	adds	r3, r1, #1
 8003b7c:	e7e7      	b.n	8003b4e <_printf_float+0x192>
 8003b7e:	2900      	cmp	r1, #0
 8003b80:	bfd4      	ite	le
 8003b82:	f1c1 0202 	rsble	r2, r1, #2
 8003b86:	2201      	movgt	r2, #1
 8003b88:	4413      	add	r3, r2
 8003b8a:	e7e0      	b.n	8003b4e <_printf_float+0x192>
 8003b8c:	6823      	ldr	r3, [r4, #0]
 8003b8e:	055a      	lsls	r2, r3, #21
 8003b90:	d407      	bmi.n	8003ba2 <_printf_float+0x1e6>
 8003b92:	6923      	ldr	r3, [r4, #16]
 8003b94:	4642      	mov	r2, r8
 8003b96:	4631      	mov	r1, r6
 8003b98:	4628      	mov	r0, r5
 8003b9a:	47b8      	blx	r7
 8003b9c:	3001      	adds	r0, #1
 8003b9e:	d12b      	bne.n	8003bf8 <_printf_float+0x23c>
 8003ba0:	e767      	b.n	8003a72 <_printf_float+0xb6>
 8003ba2:	f1ba 0f65 	cmp.w	sl, #101	@ 0x65
 8003ba6:	f240 80dd 	bls.w	8003d64 <_printf_float+0x3a8>
 8003baa:	e9d4 0112 	ldrd	r0, r1, [r4, #72]	@ 0x48
 8003bae:	2200      	movs	r2, #0
 8003bb0:	2300      	movs	r3, #0
 8003bb2:	f7fc ffa9 	bl	8000b08 <__aeabi_dcmpeq>
 8003bb6:	2800      	cmp	r0, #0
 8003bb8:	d033      	beq.n	8003c22 <_printf_float+0x266>
 8003bba:	4a37      	ldr	r2, [pc, #220]	@ (8003c98 <_printf_float+0x2dc>)
 8003bbc:	2301      	movs	r3, #1
 8003bbe:	4631      	mov	r1, r6
 8003bc0:	4628      	mov	r0, r5
 8003bc2:	47b8      	blx	r7
 8003bc4:	3001      	adds	r0, #1
 8003bc6:	f43f af54 	beq.w	8003a72 <_printf_float+0xb6>
 8003bca:	e9dd 3809 	ldrd	r3, r8, [sp, #36]	@ 0x24
 8003bce:	4543      	cmp	r3, r8
 8003bd0:	db02      	blt.n	8003bd8 <_printf_float+0x21c>
 8003bd2:	6823      	ldr	r3, [r4, #0]
 8003bd4:	07d8      	lsls	r0, r3, #31
 8003bd6:	d50f      	bpl.n	8003bf8 <_printf_float+0x23c>
 8003bd8:	e9dd 2304 	ldrd	r2, r3, [sp, #16]
 8003bdc:	4631      	mov	r1, r6
 8003bde:	4628      	mov	r0, r5
 8003be0:	47b8      	blx	r7
 8003be2:	3001      	adds	r0, #1
 8003be4:	f43f af45 	beq.w	8003a72 <_printf_float+0xb6>
 8003be8:	f04f 0900 	mov.w	r9, #0
 8003bec:	f108 38ff 	add.w	r8, r8, #4294967295
 8003bf0:	f104 0a1a 	add.w	sl, r4, #26
 8003bf4:	45c8      	cmp	r8, r9
 8003bf6:	dc09      	bgt.n	8003c0c <_printf_float+0x250>
 8003bf8:	6823      	ldr	r3, [r4, #0]
 8003bfa:	079b      	lsls	r3, r3, #30
 8003bfc:	f100 8103 	bmi.w	8003e06 <_printf_float+0x44a>
 8003c00:	68e0      	ldr	r0, [r4, #12]
 8003c02:	9b0b      	ldr	r3, [sp, #44]	@ 0x2c
 8003c04:	4298      	cmp	r0, r3
 8003c06:	bfb8      	it	lt
 8003c08:	4618      	movlt	r0, r3
 8003c0a:	e734      	b.n	8003a76 <_printf_float+0xba>
 8003c0c:	2301      	movs	r3, #1
 8003c0e:	4652      	mov	r2, sl
 8003c10:	4631      	mov	r1, r6
 8003c12:	4628      	mov	r0, r5
 8003c14:	47b8      	blx	r7
 8003c16:	3001      	adds	r0, #1
 8003c18:	f43f af2b 	beq.w	8003a72 <_printf_float+0xb6>
 8003c1c:	f109 0901 	add.w	r9, r9, #1
 8003c20:	e7e8      	b.n	8003bf4 <_printf_float+0x238>
 8003c22:	9b09      	ldr	r3, [sp, #36]	@ 0x24
 8003c24:	2b00      	cmp	r3, #0
 8003c26:	dc39      	bgt.n	8003c9c <_printf_float+0x2e0>
 8003c28:	4a1b      	ldr	r2, [pc, #108]	@ (8003c98 <_printf_float+0x2dc>)
 8003c2a:	2301      	movs	r3, #1
 8003c2c:	4631      	mov	r1, r6
 8003c2e:	4628      	mov	r0, r5
 8003c30:	47b8      	blx	r7
 8003c32:	3001      	adds	r0, #1
 8003c34:	f43f af1d 	beq.w	8003a72 <_printf_float+0xb6>
 8003c38:	e9dd 3909 	ldrd	r3, r9, [sp, #36]	@ 0x24
 8003c3c:	ea59 0303 	orrs.w	r3, r9, r3
 8003c40:	d102      	bne.n	8003c48 <_printf_float+0x28c>
 8003c42:	6823      	ldr	r3, [r4, #0]
 8003c44:	07d9      	lsls	r1, r3, #31
 8003c46:	d5d7      	bpl.n	8003bf8 <_printf_float+0x23c>
 8003c48:	e9dd 2304 	ldrd	r2, r3, [sp, #16]
 8003c4c:	4631      	mov	r1, r6
 8003c4e:	4628      	mov	r0, r5
 8003c50:	47b8      	blx	r7
 8003c52:	3001      	adds	r0, #1
 8003c54:	f43f af0d 	beq.w	8003a72 <_printf_float+0xb6>
 8003c58:	f04f 0a00 	mov.w	sl, #0
 8003c5c:	f104 0b1a 	add.w	fp, r4, #26
 8003c60:	9b09      	ldr	r3, [sp, #36]	@ 0x24
 8003c62:	425b      	negs	r3, r3
 8003c64:	4553      	cmp	r3, sl
 8003c66:	dc01      	bgt.n	8003c6c <_printf_float+0x2b0>
 8003c68:	464b      	mov	r3, r9
 8003c6a:	e793      	b.n	8003b94 <_printf_float+0x1d8>
 8003c6c:	2301      	movs	r3, #1
 8003c6e:	465a      	mov	r2, fp
 8003c70:	4631      	mov	r1, r6
 8003c72:	4628      	mov	r0, r5
 8003c74:	47b8      	blx	r7
 8003c76:	3001      	adds	r0, #1
 8003c78:	f43f aefb 	beq.w	8003a72 <_printf_float+0xb6>
 8003c7c:	f10a 0a01 	add.w	sl, sl, #1
 8003c80:	e7ee      	b.n	8003c60 <_printf_float+0x2a4>
 8003c82:	bf00      	nop
 8003c84:	7fefffff 	.word	0x7fefffff
 8003c88:	08008139 	.word	0x08008139
 8003c8c:	0800813d 	.word	0x0800813d
 8003c90:	08008141 	.word	0x08008141
 8003c94:	08008145 	.word	0x08008145
 8003c98:	08008149 	.word	0x08008149
 8003c9c:	6da3      	ldr	r3, [r4, #88]	@ 0x58
 8003c9e:	f8dd a028 	ldr.w	sl, [sp, #40]	@ 0x28
 8003ca2:	4553      	cmp	r3, sl
 8003ca4:	bfa8      	it	ge
 8003ca6:	4653      	movge	r3, sl
 8003ca8:	2b00      	cmp	r3, #0
 8003caa:	4699      	mov	r9, r3
 8003cac:	dc36      	bgt.n	8003d1c <_printf_float+0x360>
 8003cae:	f04f 0b00 	mov.w	fp, #0
 8003cb2:	ea29 79e9 	bic.w	r9, r9, r9, asr #31
 8003cb6:	f104 021a 	add.w	r2, r4, #26
 8003cba:	6da3      	ldr	r3, [r4, #88]	@ 0x58
 8003cbc:	9306      	str	r3, [sp, #24]
 8003cbe:	eba3 0309 	sub.w	r3, r3, r9
 8003cc2:	455b      	cmp	r3, fp
 8003cc4:	dc31      	bgt.n	8003d2a <_printf_float+0x36e>
 8003cc6:	9b09      	ldr	r3, [sp, #36]	@ 0x24
 8003cc8:	459a      	cmp	sl, r3
 8003cca:	dc3a      	bgt.n	8003d42 <_printf_float+0x386>
 8003ccc:	6823      	ldr	r3, [r4, #0]
 8003cce:	07da      	lsls	r2, r3, #31
 8003cd0:	d437      	bmi.n	8003d42 <_printf_float+0x386>
 8003cd2:	9b09      	ldr	r3, [sp, #36]	@ 0x24
 8003cd4:	ebaa 0903 	sub.w	r9, sl, r3
 8003cd8:	9b06      	ldr	r3, [sp, #24]
 8003cda:	ebaa 0303 	sub.w	r3, sl, r3
 8003cde:	4599      	cmp	r9, r3
 8003ce0:	bfa8      	it	ge
 8003ce2:	4699      	movge	r9, r3
 8003ce4:	f1b9 0f00 	cmp.w	r9, #0
 8003ce8:	dc33      	bgt.n	8003d52 <_printf_float+0x396>
 8003cea:	f04f 0800 	mov.w	r8, #0
 8003cee:	ea29 79e9 	bic.w	r9, r9, r9, asr #31
 8003cf2:	f104 0b1a 	add.w	fp, r4, #26
 8003cf6:	9b09      	ldr	r3, [sp, #36]	@ 0x24
 8003cf8:	ebaa 0303 	sub.w	r3, sl, r3
 8003cfc:	eba3 0309 	sub.w	r3, r3, r9
 8003d00:	4543      	cmp	r3, r8
 8003d02:	f77f af79 	ble.w	8003bf8 <_printf_float+0x23c>
 8003d06:	2301      	movs	r3, #1
 8003d08:	465a      	mov	r2, fp
 8003d0a:	4631      	mov	r1, r6
 8003d0c:	4628      	mov	r0, r5
 8003d0e:	47b8      	blx	r7
 8003d10:	3001      	adds	r0, #1
 8003d12:	f43f aeae 	beq.w	8003a72 <_printf_float+0xb6>
 8003d16:	f108 0801 	add.w	r8, r8, #1
 8003d1a:	e7ec      	b.n	8003cf6 <_printf_float+0x33a>
 8003d1c:	4642      	mov	r2, r8
 8003d1e:	4631      	mov	r1, r6
 8003d20:	4628      	mov	r0, r5
 8003d22:	47b8      	blx	r7
 8003d24:	3001      	adds	r0, #1
 8003d26:	d1c2      	bne.n	8003cae <_printf_float+0x2f2>
 8003d28:	e6a3      	b.n	8003a72 <_printf_float+0xb6>
 8003d2a:	2301      	movs	r3, #1
 8003d2c:	4631      	mov	r1, r6
 8003d2e:	4628      	mov	r0, r5
 8003d30:	9206      	str	r2, [sp, #24]
 8003d32:	47b8      	blx	r7
 8003d34:	3001      	adds	r0, #1
 8003d36:	f43f ae9c 	beq.w	8003a72 <_printf_float+0xb6>
 8003d3a:	9a06      	ldr	r2, [sp, #24]
 8003d3c:	f10b 0b01 	add.w	fp, fp, #1
 8003d40:	e7bb      	b.n	8003cba <_printf_float+0x2fe>
 8003d42:	e9dd 2304 	ldrd	r2, r3, [sp, #16]
 8003d46:	4631      	mov	r1, r6
 8003d48:	4628      	mov	r0, r5
 8003d4a:	47b8      	blx	r7
 8003d4c:	3001      	adds	r0, #1
 8003d4e:	d1c0      	bne.n	8003cd2 <_printf_float+0x316>
 8003d50:	e68f      	b.n	8003a72 <_printf_float+0xb6>
 8003d52:	9a06      	ldr	r2, [sp, #24]
 8003d54:	464b      	mov	r3, r9
 8003d56:	4442      	add	r2, r8
 8003d58:	4631      	mov	r1, r6
 8003d5a:	4628      	mov	r0, r5
 8003d5c:	47b8      	blx	r7
 8003d5e:	3001      	adds	r0, #1
 8003d60:	d1c3      	bne.n	8003cea <_printf_float+0x32e>
 8003d62:	e686      	b.n	8003a72 <_printf_float+0xb6>
 8003d64:	f8dd a028 	ldr.w	sl, [sp, #40]	@ 0x28
 8003d68:	f1ba 0f01 	cmp.w	sl, #1
 8003d6c:	dc01      	bgt.n	8003d72 <_printf_float+0x3b6>
 8003d6e:	07db      	lsls	r3, r3, #31
 8003d70:	d536      	bpl.n	8003de0 <_printf_float+0x424>
 8003d72:	2301      	movs	r3, #1
 8003d74:	4642      	mov	r2, r8
 8003d76:	4631      	mov	r1, r6
 8003d78:	4628      	mov	r0, r5
 8003d7a:	47b8      	blx	r7
 8003d7c:	3001      	adds	r0, #1
 8003d7e:	f43f ae78 	beq.w	8003a72 <_printf_float+0xb6>
 8003d82:	e9dd 2304 	ldrd	r2, r3, [sp, #16]
 8003d86:	4631      	mov	r1, r6
 8003d88:	4628      	mov	r0, r5
 8003d8a:	47b8      	blx	r7
 8003d8c:	3001      	adds	r0, #1
 8003d8e:	f43f ae70 	beq.w	8003a72 <_printf_float+0xb6>
 8003d92:	e9d4 0112 	ldrd	r0, r1, [r4, #72]	@ 0x48
 8003d96:	2200      	movs	r2, #0
 8003d98:	2300      	movs	r3, #0
 8003d9a:	f10a 3aff 	add.w	sl, sl, #4294967295
 8003d9e:	f7fc feb3 	bl	8000b08 <__aeabi_dcmpeq>
 8003da2:	b9c0      	cbnz	r0, 8003dd6 <_printf_float+0x41a>
 8003da4:	4653      	mov	r3, sl
 8003da6:	f108 0201 	add.w	r2, r8, #1
 8003daa:	4631      	mov	r1, r6
 8003dac:	4628      	mov	r0, r5
 8003dae:	47b8      	blx	r7
 8003db0:	3001      	adds	r0, #1
 8003db2:	d10c      	bne.n	8003dce <_printf_float+0x412>
 8003db4:	e65d      	b.n	8003a72 <_printf_float+0xb6>
 8003db6:	2301      	movs	r3, #1
 8003db8:	465a      	mov	r2, fp
 8003dba:	4631      	mov	r1, r6
 8003dbc:	4628      	mov	r0, r5
 8003dbe:	47b8      	blx	r7
 8003dc0:	3001      	adds	r0, #1
 8003dc2:	f43f ae56 	beq.w	8003a72 <_printf_float+0xb6>
 8003dc6:	f108 0801 	add.w	r8, r8, #1
 8003dca:	45d0      	cmp	r8, sl
 8003dcc:	dbf3      	blt.n	8003db6 <_printf_float+0x3fa>
 8003dce:	464b      	mov	r3, r9
 8003dd0:	f104 0250 	add.w	r2, r4, #80	@ 0x50
 8003dd4:	e6df      	b.n	8003b96 <_printf_float+0x1da>
 8003dd6:	f04f 0800 	mov.w	r8, #0
 8003dda:	f104 0b1a 	add.w	fp, r4, #26
 8003dde:	e7f4      	b.n	8003dca <_printf_float+0x40e>
 8003de0:	2301      	movs	r3, #1
 8003de2:	4642      	mov	r2, r8
 8003de4:	e7e1      	b.n	8003daa <_printf_float+0x3ee>
 8003de6:	2301      	movs	r3, #1
 8003de8:	464a      	mov	r2, r9
 8003dea:	4631      	mov	r1, r6
 8003dec:	4628      	mov	r0, r5
 8003dee:	47b8      	blx	r7
 8003df0:	3001      	adds	r0, #1
 8003df2:	f43f ae3e 	beq.w	8003a72 <_printf_float+0xb6>
 8003df6:	f108 0801 	add.w	r8, r8, #1
 8003dfa:	68e3      	ldr	r3, [r4, #12]
 8003dfc:	990b      	ldr	r1, [sp, #44]	@ 0x2c
 8003dfe:	1a5b      	subs	r3, r3, r1
 8003e00:	4543      	cmp	r3, r8
 8003e02:	dcf0      	bgt.n	8003de6 <_printf_float+0x42a>
 8003e04:	e6fc      	b.n	8003c00 <_printf_float+0x244>
 8003e06:	f04f 0800 	mov.w	r8, #0
 8003e0a:	f104 0919 	add.w	r9, r4, #25
 8003e0e:	e7f4      	b.n	8003dfa <_printf_float+0x43e>

08003e10 <_printf_common>:
 8003e10:	e92d 47f0 	stmdb	sp!, {r4, r5, r6, r7, r8, r9, sl, lr}
 8003e14:	4616      	mov	r6, r2
 8003e16:	4698      	mov	r8, r3
 8003e18:	688a      	ldr	r2, [r1, #8]
 8003e1a:	690b      	ldr	r3, [r1, #16]
 8003e1c:	f8dd 9020 	ldr.w	r9, [sp, #32]
 8003e20:	4293      	cmp	r3, r2
 8003e22:	bfb8      	it	lt
 8003e24:	4613      	movlt	r3, r2
 8003e26:	6033      	str	r3, [r6, #0]
 8003e28:	f891 2043 	ldrb.w	r2, [r1, #67]	@ 0x43
 8003e2c:	4607      	mov	r7, r0
 8003e2e:	460c      	mov	r4, r1
 8003e30:	b10a      	cbz	r2, 8003e36 <_printf_common+0x26>
 8003e32:	3301      	adds	r3, #1
 8003e34:	6033      	str	r3, [r6, #0]
 8003e36:	6823      	ldr	r3, [r4, #0]
 8003e38:	0699      	lsls	r1, r3, #26
 8003e3a:	bf42      	ittt	mi
 8003e3c:	6833      	ldrmi	r3, [r6, #0]
 8003e3e:	3302      	addmi	r3, #2
 8003e40:	6033      	strmi	r3, [r6, #0]
 8003e42:	6825      	ldr	r5, [r4, #0]
 8003e44:	f015 0506 	ands.w	r5, r5, #6
 8003e48:	d106      	bne.n	8003e58 <_printf_common+0x48>
 8003e4a:	f104 0a19 	add.w	sl, r4, #25
 8003e4e:	68e3      	ldr	r3, [r4, #12]
 8003e50:	6832      	ldr	r2, [r6, #0]
 8003e52:	1a9b      	subs	r3, r3, r2
 8003e54:	42ab      	cmp	r3, r5
 8003e56:	dc26      	bgt.n	8003ea6 <_printf_common+0x96>
 8003e58:	f894 3043 	ldrb.w	r3, [r4, #67]	@ 0x43
 8003e5c:	6822      	ldr	r2, [r4, #0]
 8003e5e:	3b00      	subs	r3, #0
 8003e60:	bf18      	it	ne
 8003e62:	2301      	movne	r3, #1
 8003e64:	0692      	lsls	r2, r2, #26
 8003e66:	d42b      	bmi.n	8003ec0 <_printf_common+0xb0>
 8003e68:	f104 0243 	add.w	r2, r4, #67	@ 0x43
 8003e6c:	4641      	mov	r1, r8
 8003e6e:	4638      	mov	r0, r7
 8003e70:	47c8      	blx	r9
 8003e72:	3001      	adds	r0, #1
 8003e74:	d01e      	beq.n	8003eb4 <_printf_common+0xa4>
 8003e76:	6823      	ldr	r3, [r4, #0]
 8003e78:	6922      	ldr	r2, [r4, #16]
 8003e7a:	f003 0306 	and.w	r3, r3, #6
 8003e7e:	2b04      	cmp	r3, #4
 8003e80:	bf02      	ittt	eq
 8003e82:	68e5      	ldreq	r5, [r4, #12]
 8003e84:	6833      	ldreq	r3, [r6, #0]
 8003e86:	1aed      	subeq	r5, r5, r3
 8003e88:	68a3      	ldr	r3, [r4, #8]
 8003e8a:	bf0c      	ite	eq
 8003e8c:	ea25 75e5 	biceq.w	r5, r5, r5, asr #31
 8003e90:	2500      	movne	r5, #0
 8003e92:	4293      	cmp	r3, r2
 8003e94:	bfc4      	itt	gt
 8003e96:	1a9b      	subgt	r3, r3, r2
 8003e98:	18ed      	addgt	r5, r5, r3
 8003e9a:	2600      	movs	r6, #0
 8003e9c:	341a      	adds	r4, #26
 8003e9e:	42b5      	cmp	r5, r6
 8003ea0:	d11a      	bne.n	8003ed8 <_printf_common+0xc8>
 8003ea2:	2000      	movs	r0, #0
 8003ea4:	e008      	b.n	8003eb8 <_printf_common+0xa8>
 8003ea6:	2301      	movs	r3, #1
 8003ea8:	4652      	mov	r2, sl
 8003eaa:	4641      	mov	r1, r8
 8003eac:	4638      	mov	r0, r7
 8003eae:	47c8      	blx	r9
 8003eb0:	3001      	adds	r0, #1
 8003eb2:	d103      	bne.n	8003ebc <_printf_common+0xac>
 8003eb4:	f04f 30ff 	mov.w	r0, #4294967295
 8003eb8:	e8bd 87f0 	ldmia.w	sp!, {r4, r5, r6, r7, r8, r9, sl, pc}
 8003ebc:	3501      	adds	r5, #1
 8003ebe:	e7c6      	b.n	8003e4e <_printf_common+0x3e>
 8003ec0:	18e1      	adds	r1, r4, r3
 8003ec2:	1c5a      	adds	r2, r3, #1
 8003ec4:	2030      	movs	r0, #48	@ 0x30
 8003ec6:	f881 0043 	strb.w	r0, [r1, #67]	@ 0x43
 8003eca:	4422      	add	r2, r4
 8003ecc:	f894 1045 	ldrb.w	r1, [r4, #69]	@ 0x45
 8003ed0:	f882 1043 	strb.w	r1, [r2, #67]	@ 0x43
 8003ed4:	3302      	adds	r3, #2
 8003ed6:	e7c7      	b.n	8003e68 <_printf_common+0x58>
 8003ed8:	2301      	movs	r3, #1
 8003eda:	4622      	mov	r2, r4
 8003edc:	4641      	mov	r1, r8
 8003ede:	4638      	mov	r0, r7
 8003ee0:	47c8      	blx	r9
 8003ee2:	3001      	adds	r0, #1
 8003ee4:	d0e6      	beq.n	8003eb4 <_printf_common+0xa4>
 8003ee6:	3601      	adds	r6, #1
 8003ee8:	e7d9      	b.n	8003e9e <_printf_common+0x8e>
	...

08003eec <_printf_i>:
 8003eec:	e92d 47ff 	stmdb	sp!, {r0, r1, r2, r3, r4, r5, r6, r7, r8, r9, sl, lr}
 8003ef0:	7e0f      	ldrb	r7, [r1, #24]
 8003ef2:	9e0c      	ldr	r6, [sp, #48]	@ 0x30
 8003ef4:	2f78      	cmp	r7, #120	@ 0x78
 8003ef6:	4691      	mov	r9, r2
 8003ef8:	4680      	mov	r8, r0
 8003efa:	460c      	mov	r4, r1
 8003efc:	469a      	mov	sl, r3
 8003efe:	f101 0243 	add.w	r2, r1, #67	@ 0x43
 8003f02:	d807      	bhi.n	8003f14 <_printf_i+0x28>
 8003f04:	2f62      	cmp	r7, #98	@ 0x62
 8003f06:	d80a      	bhi.n	8003f1e <_printf_i+0x32>
 8003f08:	2f00      	cmp	r7, #0
 8003f0a:	f000 80d2 	beq.w	80040b2 <_printf_i+0x1c6>
 8003f0e:	2f58      	cmp	r7, #88	@ 0x58
 8003f10:	f000 80b9 	beq.w	8004086 <_printf_i+0x19a>
 8003f14:	f104 0642 	add.w	r6, r4, #66	@ 0x42
 8003f18:	f884 7042 	strb.w	r7, [r4, #66]	@ 0x42
 8003f1c:	e03a      	b.n	8003f94 <_printf_i+0xa8>
 8003f1e:	f1a7 0363 	sub.w	r3, r7, #99	@ 0x63
 8003f22:	2b15      	cmp	r3, #21
 8003f24:	d8f6      	bhi.n	8003f14 <_printf_i+0x28>
 8003f26:	a101      	add	r1, pc, #4	@ (adr r1, 8003f2c <_printf_i+0x40>)
 8003f28:	f851 f023 	ldr.w	pc, [r1, r3, lsl #2]
 8003f2c:	08003f85 	.word	0x08003f85
 8003f30:	08003f99 	.word	0x08003f99
 8003f34:	08003f15 	.word	0x08003f15
 8003f38:	08003f15 	.word	0x08003f15
 8003f3c:	08003f15 	.word	0x08003f15
 8003f40:	08003f15 	.word	0x08003f15
 8003f44:	08003f99 	.word	0x08003f99
 8003f48:	08003f15 	.word	0x08003f15
 8003f4c:	08003f15 	.word	0x08003f15
 8003f50:	08003f15 	.word	0x08003f15
 8003f54:	08003f15 	.word	0x08003f15
 8003f58:	08004099 	.word	0x08004099
 8003f5c:	08003fc3 	.word	0x08003fc3
 8003f60:	08004053 	.word	0x08004053
 8003f64:	08003f15 	.word	0x08003f15
 8003f68:	08003f15 	.word	0x08003f15
 8003f6c:	080040bb 	.word	0x080040bb
 8003f70:	08003f15 	.word	0x08003f15
 8003f74:	08003fc3 	.word	0x08003fc3
 8003f78:	08003f15 	.word	0x08003f15
 8003f7c:	08003f15 	.word	0x08003f15
 8003f80:	0800405b 	.word	0x0800405b
 8003f84:	6833      	ldr	r3, [r6, #0]
 8003f86:	1d1a      	adds	r2, r3, #4
 8003f88:	681b      	ldr	r3, [r3, #0]
 8003f8a:	6032      	str	r2, [r6, #0]
 8003f8c:	f104 0642 	add.w	r6, r4, #66	@ 0x42
 8003f90:	f884 3042 	strb.w	r3, [r4, #66]	@ 0x42
 8003f94:	2301      	movs	r3, #1
 8003f96:	e09d      	b.n	80040d4 <_printf_i+0x1e8>
 8003f98:	6833      	ldr	r3, [r6, #0]
 8003f9a:	6820      	ldr	r0, [r4, #0]
 8003f9c:	1d19      	adds	r1, r3, #4
 8003f9e:	6031      	str	r1, [r6, #0]
 8003fa0:	0606      	lsls	r6, r0, #24
 8003fa2:	d501      	bpl.n	8003fa8 <_printf_i+0xbc>
 8003fa4:	681d      	ldr	r5, [r3, #0]
 8003fa6:	e003      	b.n	8003fb0 <_printf_i+0xc4>
 8003fa8:	0645      	lsls	r5, r0, #25
 8003faa:	d5fb      	bpl.n	8003fa4 <_printf_i+0xb8>
 8003fac:	f9b3 5000 	ldrsh.w	r5, [r3]
 8003fb0:	2d00      	cmp	r5, #0
 8003fb2:	da03      	bge.n	8003fbc <_printf_i+0xd0>
 8003fb4:	232d      	movs	r3, #45	@ 0x2d
 8003fb6:	426d      	negs	r5, r5
 8003fb8:	f884 3043 	strb.w	r3, [r4, #67]	@ 0x43
 8003fbc:	4859      	ldr	r0, [pc, #356]	@ (8004124 <_printf_i+0x238>)
 8003fbe:	230a      	movs	r3, #10
 8003fc0:	e011      	b.n	8003fe6 <_printf_i+0xfa>
 8003fc2:	6821      	ldr	r1, [r4, #0]
 8003fc4:	6833      	ldr	r3, [r6, #0]
 8003fc6:	0608      	lsls	r0, r1, #24
 8003fc8:	f853 5b04 	ldr.w	r5, [r3], #4
 8003fcc:	d402      	bmi.n	8003fd4 <_printf_i+0xe8>
 8003fce:	0649      	lsls	r1, r1, #25
 8003fd0:	bf48      	it	mi
 8003fd2:	b2ad      	uxthmi	r5, r5
 8003fd4:	2f6f      	cmp	r7, #111	@ 0x6f
 8003fd6:	4853      	ldr	r0, [pc, #332]	@ (8004124 <_printf_i+0x238>)
 8003fd8:	6033      	str	r3, [r6, #0]
 8003fda:	bf14      	ite	ne
 8003fdc:	230a      	movne	r3, #10
 8003fde:	2308      	moveq	r3, #8
 8003fe0:	2100      	movs	r1, #0
 8003fe2:	f884 1043 	strb.w	r1, [r4, #67]	@ 0x43
 8003fe6:	6866      	ldr	r6, [r4, #4]
 8003fe8:	60a6      	str	r6, [r4, #8]
 8003fea:	2e00      	cmp	r6, #0
 8003fec:	bfa2      	ittt	ge
 8003fee:	6821      	ldrge	r1, [r4, #0]
 8003ff0:	f021 0104 	bicge.w	r1, r1, #4
 8003ff4:	6021      	strge	r1, [r4, #0]
 8003ff6:	b90d      	cbnz	r5, 8003ffc <_printf_i+0x110>
 8003ff8:	2e00      	cmp	r6, #0
 8003ffa:	d04b      	beq.n	8004094 <_printf_i+0x1a8>
 8003ffc:	4616      	mov	r6, r2
 8003ffe:	fbb5 f1f3 	udiv	r1, r5, r3
 8004002:	fb03 5711 	mls	r7, r3, r1, r5
 8004006:	5dc7      	ldrb	r7, [r0, r7]
 8004008:	f806 7d01 	strb.w	r7, [r6, #-1]!
 800400c:	462f      	mov	r7, r5
 800400e:	42bb      	cmp	r3, r7
 8004010:	460d      	mov	r5, r1
 8004012:	d9f4      	bls.n	8003ffe <_printf_i+0x112>
 8004014:	2b08      	cmp	r3, #8
 8004016:	d10b      	bne.n	8004030 <_printf_i+0x144>
 8004018:	6823      	ldr	r3, [r4, #0]
 800401a:	07df      	lsls	r7, r3, #31
 800401c:	d508      	bpl.n	8004030 <_printf_i+0x144>
 800401e:	6923      	ldr	r3, [r4, #16]
 8004020:	6861      	ldr	r1, [r4, #4]
 8004022:	4299      	cmp	r1, r3
 8004024:	bfde      	ittt	le
 8004026:	2330      	movle	r3, #48	@ 0x30
 8004028:	f806 3c01 	strble.w	r3, [r6, #-1]
 800402c:	f106 36ff 	addle.w	r6, r6, #4294967295
 8004030:	1b92      	subs	r2, r2, r6
 8004032:	6122      	str	r2, [r4, #16]
 8004034:	f8cd a000 	str.w	sl, [sp]
 8004038:	464b      	mov	r3, r9
 800403a:	aa03      	add	r2, sp, #12
 800403c:	4621      	mov	r1, r4
 800403e:	4640      	mov	r0, r8
 8004040:	f7ff fee6 	bl	8003e10 <_printf_common>
 8004044:	3001      	adds	r0, #1
 8004046:	d14a      	bne.n	80040de <_printf_i+0x1f2>
 8004048:	f04f 30ff 	mov.w	r0, #4294967295
 800404c:	b004      	add	sp, #16
 800404e:	e8bd 87f0 	ldmia.w	sp!, {r4, r5, r6, r7, r8, r9, sl, pc}
 8004052:	6823      	ldr	r3, [r4, #0]
 8004054:	f043 0320 	orr.w	r3, r3, #32
 8004058:	6023      	str	r3, [r4, #0]
 800405a:	4833      	ldr	r0, [pc, #204]	@ (8004128 <_printf_i+0x23c>)
 800405c:	2778      	movs	r7, #120	@ 0x78
 800405e:	f884 7045 	strb.w	r7, [r4, #69]	@ 0x45
 8004062:	6823      	ldr	r3, [r4, #0]
 8004064:	6831      	ldr	r1, [r6, #0]
 8004066:	061f      	lsls	r7, r3, #24
 8004068:	f851 5b04 	ldr.w	r5, [r1], #4
 800406c:	d402      	bmi.n	8004074 <_printf_i+0x188>
 800406e:	065f      	lsls	r7, r3, #25
 8004070:	bf48      	it	mi
 8004072:	b2ad      	uxthmi	r5, r5
 8004074:	6031      	str	r1, [r6, #0]
 8004076:	07d9      	lsls	r1, r3, #31
 8004078:	bf44      	itt	mi
 800407a:	f043 0320 	orrmi.w	r3, r3, #32
 800407e:	6023      	strmi	r3, [r4, #0]
 8004080:	b11d      	cbz	r5, 800408a <_printf_i+0x19e>
 8004082:	2310      	movs	r3, #16
 8004084:	e7ac      	b.n	8003fe0 <_printf_i+0xf4>
 8004086:	4827      	ldr	r0, [pc, #156]	@ (8004124 <_printf_i+0x238>)
 8004088:	e7e9      	b.n	800405e <_printf_i+0x172>
 800408a:	6823      	ldr	r3, [r4, #0]
 800408c:	f023 0320 	bic.w	r3, r3, #32
 8004090:	6023      	str	r3, [r4, #0]
 8004092:	e7f6      	b.n	8004082 <_printf_i+0x196>
 8004094:	4616      	mov	r6, r2
 8004096:	e7bd      	b.n	8004014 <_printf_i+0x128>
 8004098:	6833      	ldr	r3, [r6, #0]
 800409a:	6825      	ldr	r5, [r4, #0]
 800409c:	6961      	ldr	r1, [r4, #20]
 800409e:	1d18      	adds	r0, r3, #4
 80040a0:	6030      	str	r0, [r6, #0]
 80040a2:	062e      	lsls	r6, r5, #24
 80040a4:	681b      	ldr	r3, [r3, #0]
 80040a6:	d501      	bpl.n	80040ac <_printf_i+0x1c0>
 80040a8:	6019      	str	r1, [r3, #0]
 80040aa:	e002      	b.n	80040b2 <_printf_i+0x1c6>
 80040ac:	0668      	lsls	r0, r5, #25
 80040ae:	d5fb      	bpl.n	80040a8 <_printf_i+0x1bc>
 80040b0:	8019      	strh	r1, [r3, #0]
 80040b2:	2300      	movs	r3, #0
 80040b4:	6123      	str	r3, [r4, #16]
 80040b6:	4616      	mov	r6, r2
 80040b8:	e7bc      	b.n	8004034 <_printf_i+0x148>
 80040ba:	6833      	ldr	r3, [r6, #0]
 80040bc:	1d1a      	adds	r2, r3, #4
 80040be:	6032      	str	r2, [r6, #0]
 80040c0:	681e      	ldr	r6, [r3, #0]
 80040c2:	6862      	ldr	r2, [r4, #4]
 80040c4:	2100      	movs	r1, #0
 80040c6:	4630      	mov	r0, r6
 80040c8:	f7fc f8a2 	bl	8000210 <memchr>
 80040cc:	b108      	cbz	r0, 80040d2 <_printf_i+0x1e6>
 80040ce:	1b80      	subs	r0, r0, r6
 80040d0:	6060      	str	r0, [r4, #4]
 80040d2:	6863      	ldr	r3, [r4, #4]
 80040d4:	6123      	str	r3, [r4, #16]
 80040d6:	2300      	movs	r3, #0
 80040d8:	f884 3043 	strb.w	r3, [r4, #67]	@ 0x43
 80040dc:	e7aa      	b.n	8004034 <_printf_i+0x148>
 80040de:	6923      	ldr	r3, [r4, #16]
 80040e0:	4632      	mov	r2, r6
 80040e2:	4649      	mov	r1, r9
 80040e4:	4640      	mov	r0, r8
 80040e6:	47d0      	blx	sl
 80040e8:	3001      	adds	r0, #1
 80040ea:	d0ad      	beq.n	8004048 <_printf_i+0x15c>
 80040ec:	6823      	ldr	r3, [r4, #0]
 80040ee:	079b      	lsls	r3, r3, #30
 80040f0:	d413      	bmi.n	800411a <_printf_i+0x22e>
 80040f2:	68e0      	ldr	r0, [r4, #12]
 80040f4:	9b03      	ldr	r3, [sp, #12]
 80040f6:	4298      	cmp	r0, r3
 80040f8:	bfb8      	it	lt
 80040fa:	4618      	movlt	r0, r3
 80040fc:	e7a6      	b.n	800404c <_printf_i+0x160>
 80040fe:	2301      	movs	r3, #1
 8004100:	4632      	mov	r2, r6
 8004102:	4649      	mov	r1, r9
 8004104:	4640      	mov	r0, r8
 8004106:	47d0      	blx	sl
 8004108:	3001      	adds	r0, #1
 800410a:	d09d      	beq.n	8004048 <_printf_i+0x15c>
 800410c:	3501      	adds	r5, #1
 800410e:	68e3      	ldr	r3, [r4, #12]
 8004110:	9903      	ldr	r1, [sp, #12]
 8004112:	1a5b      	subs	r3, r3, r1
 8004114:	42ab      	cmp	r3, r5
 8004116:	dcf2      	bgt.n	80040fe <_printf_i+0x212>
 8004118:	e7eb      	b.n	80040f2 <_printf_i+0x206>
 800411a:	2500      	movs	r5, #0
 800411c:	f104 0619 	add.w	r6, r4, #25
 8004120:	e7f5      	b.n	800410e <_printf_i+0x222>
 8004122:	bf00      	nop
 8004124:	0800814b 	.word	0x0800814b
 8004128:	0800815c 	.word	0x0800815c

0800412c <_scanf_float>:
 800412c:	e92d 4ff0 	stmdb	sp!, {r4, r5, r6, r7, r8, r9, sl, fp, lr}
 8004130:	b087      	sub	sp, #28
 8004132:	4617      	mov	r7, r2
 8004134:	9303      	str	r3, [sp, #12]
 8004136:	688b      	ldr	r3, [r1, #8]
 8004138:	1e5a      	subs	r2, r3, #1
 800413a:	f5b2 7fae 	cmp.w	r2, #348	@ 0x15c
 800413e:	bf81      	itttt	hi
 8004140:	f46f 75ae 	mvnhi.w	r5, #348	@ 0x15c
 8004144:	eb03 0b05 	addhi.w	fp, r3, r5
 8004148:	f240 135d 	movwhi	r3, #349	@ 0x15d
 800414c:	608b      	strhi	r3, [r1, #8]
 800414e:	680b      	ldr	r3, [r1, #0]
 8004150:	460a      	mov	r2, r1
 8004152:	f04f 0500 	mov.w	r5, #0
 8004156:	f443 63f0 	orr.w	r3, r3, #1920	@ 0x780
 800415a:	f842 3b1c 	str.w	r3, [r2], #28
 800415e:	e9cd 5504 	strd	r5, r5, [sp, #16]
 8004162:	4680      	mov	r8, r0
 8004164:	460c      	mov	r4, r1
 8004166:	bf98      	it	ls
 8004168:	f04f 0b00 	movls.w	fp, #0
 800416c:	9201      	str	r2, [sp, #4]
 800416e:	4616      	mov	r6, r2
 8004170:	46aa      	mov	sl, r5
 8004172:	46a9      	mov	r9, r5
 8004174:	9502      	str	r5, [sp, #8]
 8004176:	68a2      	ldr	r2, [r4, #8]
 8004178:	b152      	cbz	r2, 8004190 <_scanf_float+0x64>
 800417a:	683b      	ldr	r3, [r7, #0]
 800417c:	781b      	ldrb	r3, [r3, #0]
 800417e:	2b4e      	cmp	r3, #78	@ 0x4e
 8004180:	d864      	bhi.n	800424c <_scanf_float+0x120>
 8004182:	2b40      	cmp	r3, #64	@ 0x40
 8004184:	d83c      	bhi.n	8004200 <_scanf_float+0xd4>
 8004186:	f1a3 012b 	sub.w	r1, r3, #43	@ 0x2b
 800418a:	b2c8      	uxtb	r0, r1
 800418c:	280e      	cmp	r0, #14
 800418e:	d93a      	bls.n	8004206 <_scanf_float+0xda>
 8004190:	f1b9 0f00 	cmp.w	r9, #0
 8004194:	d003      	beq.n	800419e <_scanf_float+0x72>
 8004196:	6823      	ldr	r3, [r4, #0]
 8004198:	f423 7380 	bic.w	r3, r3, #256	@ 0x100
 800419c:	6023      	str	r3, [r4, #0]
 800419e:	f10a 3aff 	add.w	sl, sl, #4294967295
 80041a2:	f1ba 0f01 	cmp.w	sl, #1
 80041a6:	f200 8117 	bhi.w	80043d8 <_scanf_float+0x2ac>
 80041aa:	9b01      	ldr	r3, [sp, #4]
 80041ac:	429e      	cmp	r6, r3
 80041ae:	f200 8108 	bhi.w	80043c2 <_scanf_float+0x296>
 80041b2:	2001      	movs	r0, #1
 80041b4:	b007      	add	sp, #28
 80041b6:	e8bd 8ff0 	ldmia.w	sp!, {r4, r5, r6, r7, r8, r9, sl, fp, pc}
 80041ba:	f1a3 0261 	sub.w	r2, r3, #97	@ 0x61
 80041be:	2a0d      	cmp	r2, #13
 80041c0:	d8e6      	bhi.n	8004190 <_scanf_float+0x64>
 80041c2:	a101      	add	r1, pc, #4	@ (adr r1, 80041c8 <_scanf_float+0x9c>)
 80041c4:	f851 f022 	ldr.w	pc, [r1, r2, lsl #2]
 80041c8:	0800430f 	.word	0x0800430f
 80041cc:	08004191 	.word	0x08004191
 80041d0:	08004191 	.word	0x08004191
 80041d4:	08004191 	.word	0x08004191
 80041d8:	0800436f 	.word	0x0800436f
 80041dc:	08004347 	.word	0x08004347
 80041e0:	08004191 	.word	0x08004191
 80041e4:	08004191 	.word	0x08004191
 80041e8:	0800431d 	.word	0x0800431d
 80041ec:	08004191 	.word	0x08004191
 80041f0:	08004191 	.word	0x08004191
 80041f4:	08004191 	.word	0x08004191
 80041f8:	08004191 	.word	0x08004191
 80041fc:	080042d5 	.word	0x080042d5
 8004200:	f1a3 0241 	sub.w	r2, r3, #65	@ 0x41
 8004204:	e7db      	b.n	80041be <_scanf_float+0x92>
 8004206:	290e      	cmp	r1, #14
 8004208:	d8c2      	bhi.n	8004190 <_scanf_float+0x64>
 800420a:	a001      	add	r0, pc, #4	@ (adr r0, 8004210 <_scanf_float+0xe4>)
 800420c:	f850 f021 	ldr.w	pc, [r0, r1, lsl #2]
 8004210:	080042c5 	.word	0x080042c5
 8004214:	08004191 	.word	0x08004191
 8004218:	080042c5 	.word	0x080042c5
 800421c:	0800435b 	.word	0x0800435b
 8004220:	08004191 	.word	0x08004191
 8004224:	0800426d 	.word	0x0800426d
 8004228:	080042ab 	.word	0x080042ab
 800422c:	080042ab 	.word	0x080042ab
 8004230:	080042ab 	.word	0x080042ab
 8004234:	080042ab 	.word	0x080042ab
 8004238:	080042ab 	.word	0x080042ab
 800423c:	080042ab 	.word	0x080042ab
 8004240:	080042ab 	.word	0x080042ab
 8004244:	080042ab 	.word	0x080042ab
 8004248:	080042ab 	.word	0x080042ab
 800424c:	2b6e      	cmp	r3, #110	@ 0x6e
 800424e:	d809      	bhi.n	8004264 <_scanf_float+0x138>
 8004250:	2b60      	cmp	r3, #96	@ 0x60
 8004252:	d8b2      	bhi.n	80041ba <_scanf_float+0x8e>
 8004254:	2b54      	cmp	r3, #84	@ 0x54
 8004256:	d07b      	beq.n	8004350 <_scanf_float+0x224>
 8004258:	2b59      	cmp	r3, #89	@ 0x59
 800425a:	d199      	bne.n	8004190 <_scanf_float+0x64>
 800425c:	2d07      	cmp	r5, #7
 800425e:	d197      	bne.n	8004190 <_scanf_float+0x64>
 8004260:	2508      	movs	r5, #8
 8004262:	e02c      	b.n	80042be <_scanf_float+0x192>
 8004264:	2b74      	cmp	r3, #116	@ 0x74
 8004266:	d073      	beq.n	8004350 <_scanf_float+0x224>
 8004268:	2b79      	cmp	r3, #121	@ 0x79
 800426a:	e7f6      	b.n	800425a <_scanf_float+0x12e>
 800426c:	6821      	ldr	r1, [r4, #0]
 800426e:	05c8      	lsls	r0, r1, #23
 8004270:	d51b      	bpl.n	80042aa <_scanf_float+0x17e>
 8004272:	f021 0180 	bic.w	r1, r1, #128	@ 0x80
 8004276:	6021      	str	r1, [r4, #0]
 8004278:	f109 0901 	add.w	r9, r9, #1
 800427c:	f1bb 0f00 	cmp.w	fp, #0
 8004280:	d003      	beq.n	800428a <_scanf_float+0x15e>
 8004282:	3201      	adds	r2, #1
 8004284:	f10b 3bff 	add.w	fp, fp, #4294967295
 8004288:	60a2      	str	r2, [r4, #8]
 800428a:	68a3      	ldr	r3, [r4, #8]
 800428c:	3b01      	subs	r3, #1
 800428e:	60a3      	str	r3, [r4, #8]
 8004290:	6923      	ldr	r3, [r4, #16]
 8004292:	3301      	adds	r3, #1
 8004294:	6123      	str	r3, [r4, #16]
 8004296:	687b      	ldr	r3, [r7, #4]
 8004298:	3b01      	subs	r3, #1
 800429a:	2b00      	cmp	r3, #0
 800429c:	607b      	str	r3, [r7, #4]
 800429e:	f340 8087 	ble.w	80043b0 <_scanf_float+0x284>
 80042a2:	683b      	ldr	r3, [r7, #0]
 80042a4:	3301      	adds	r3, #1
 80042a6:	603b      	str	r3, [r7, #0]
 80042a8:	e765      	b.n	8004176 <_scanf_float+0x4a>
 80042aa:	eb1a 0105 	adds.w	r1, sl, r5
 80042ae:	f47f af6f 	bne.w	8004190 <_scanf_float+0x64>
 80042b2:	6822      	ldr	r2, [r4, #0]
 80042b4:	f422 72c0 	bic.w	r2, r2, #384	@ 0x180
 80042b8:	6022      	str	r2, [r4, #0]
 80042ba:	460d      	mov	r5, r1
 80042bc:	468a      	mov	sl, r1
 80042be:	f806 3b01 	strb.w	r3, [r6], #1
 80042c2:	e7e2      	b.n	800428a <_scanf_float+0x15e>
 80042c4:	6822      	ldr	r2, [r4, #0]
 80042c6:	0610      	lsls	r0, r2, #24
 80042c8:	f57f af62 	bpl.w	8004190 <_scanf_float+0x64>
 80042cc:	f022 0280 	bic.w	r2, r2, #128	@ 0x80
 80042d0:	6022      	str	r2, [r4, #0]
 80042d2:	e7f4      	b.n	80042be <_scanf_float+0x192>
 80042d4:	f1ba 0f00 	cmp.w	sl, #0
 80042d8:	d10e      	bne.n	80042f8 <_scanf_float+0x1cc>
 80042da:	f1b9 0f00 	cmp.w	r9, #0
 80042de:	d10e      	bne.n	80042fe <_scanf_float+0x1d2>
 80042e0:	6822      	ldr	r2, [r4, #0]
 80042e2:	f402 61e0 	and.w	r1, r2, #1792	@ 0x700
 80042e6:	f5b1 6fe0 	cmp.w	r1, #1792	@ 0x700
 80042ea:	d108      	bne.n	80042fe <_scanf_float+0x1d2>
 80042ec:	f422 62f0 	bic.w	r2, r2, #1920	@ 0x780
 80042f0:	6022      	str	r2, [r4, #0]
 80042f2:	f04f 0a01 	mov.w	sl, #1
 80042f6:	e7e2      	b.n	80042be <_scanf_float+0x192>
 80042f8:	f1ba 0f02 	cmp.w	sl, #2
 80042fc:	d055      	beq.n	80043aa <_scanf_float+0x27e>
 80042fe:	2d01      	cmp	r5, #1
 8004300:	d002      	beq.n	8004308 <_scanf_float+0x1dc>
 8004302:	2d04      	cmp	r5, #4
 8004304:	f47f af44 	bne.w	8004190 <_scanf_float+0x64>
 8004308:	3501      	adds	r5, #1
 800430a:	b2ed      	uxtb	r5, r5
 800430c:	e7d7      	b.n	80042be <_scanf_float+0x192>
 800430e:	f1ba 0f01 	cmp.w	sl, #1
 8004312:	f47f af3d 	bne.w	8004190 <_scanf_float+0x64>
 8004316:	f04f 0a02 	mov.w	sl, #2
 800431a:	e7d0      	b.n	80042be <_scanf_float+0x192>
 800431c:	b97d      	cbnz	r5, 800433e <_scanf_float+0x212>
 800431e:	f1b9 0f00 	cmp.w	r9, #0
 8004322:	f47f af38 	bne.w	8004196 <_scanf_float+0x6a>
 8004326:	6822      	ldr	r2, [r4, #0]
 8004328:	f402 61e0 	and.w	r1, r2, #1792	@ 0x700
 800432c:	f5b1 6fe0 	cmp.w	r1, #1792	@ 0x700
 8004330:	f040 8108 	bne.w	8004544 <_scanf_float+0x418>
 8004334:	f422 62f0 	bic.w	r2, r2, #1920	@ 0x780
 8004338:	6022      	str	r2, [r4, #0]
 800433a:	2501      	movs	r5, #1
 800433c:	e7bf      	b.n	80042be <_scanf_float+0x192>
 800433e:	2d03      	cmp	r5, #3
 8004340:	d0e2      	beq.n	8004308 <_scanf_float+0x1dc>
 8004342:	2d05      	cmp	r5, #5
 8004344:	e7de      	b.n	8004304 <_scanf_float+0x1d8>
 8004346:	2d02      	cmp	r5, #2
 8004348:	f47f af22 	bne.w	8004190 <_scanf_float+0x64>
 800434c:	2503      	movs	r5, #3
 800434e:	e7b6      	b.n	80042be <_scanf_float+0x192>
 8004350:	2d06      	cmp	r5, #6
 8004352:	f47f af1d 	bne.w	8004190 <_scanf_float+0x64>
 8004356:	2507      	movs	r5, #7
 8004358:	e7b1      	b.n	80042be <_scanf_float+0x192>
 800435a:	6822      	ldr	r2, [r4, #0]
 800435c:	0591      	lsls	r1, r2, #22
 800435e:	f57f af17 	bpl.w	8004190 <_scanf_float+0x64>
 8004362:	f422 7220 	bic.w	r2, r2, #640	@ 0x280
 8004366:	6022      	str	r2, [r4, #0]
 8004368:	f8cd 9008 	str.w	r9, [sp, #8]
 800436c:	e7a7      	b.n	80042be <_scanf_float+0x192>
 800436e:	6822      	ldr	r2, [r4, #0]
 8004370:	f402 61a0 	and.w	r1, r2, #1280	@ 0x500
 8004374:	f5b1 6f80 	cmp.w	r1, #1024	@ 0x400
 8004378:	d006      	beq.n	8004388 <_scanf_float+0x25c>
 800437a:	0550      	lsls	r0, r2, #21
 800437c:	f57f af08 	bpl.w	8004190 <_scanf_float+0x64>
 8004380:	f1b9 0f00 	cmp.w	r9, #0
 8004384:	f000 80de 	beq.w	8004544 <_scanf_float+0x418>
 8004388:	0591      	lsls	r1, r2, #22
 800438a:	bf58      	it	pl
 800438c:	9902      	ldrpl	r1, [sp, #8]
 800438e:	f422 62f0 	bic.w	r2, r2, #1920	@ 0x780
 8004392:	bf58      	it	pl
 8004394:	eba9 0101 	subpl.w	r1, r9, r1
 8004398:	f442 72c0 	orr.w	r2, r2, #384	@ 0x180
 800439c:	bf58      	it	pl
 800439e:	e9cd 1604 	strdpl	r1, r6, [sp, #16]
 80043a2:	6022      	str	r2, [r4, #0]
 80043a4:	f04f 0900 	mov.w	r9, #0
 80043a8:	e789      	b.n	80042be <_scanf_float+0x192>
 80043aa:	f04f 0a03 	mov.w	sl, #3
 80043ae:	e786      	b.n	80042be <_scanf_float+0x192>
 80043b0:	f8d4 3180 	ldr.w	r3, [r4, #384]	@ 0x180
 80043b4:	4639      	mov	r1, r7
 80043b6:	4640      	mov	r0, r8
 80043b8:	4798      	blx	r3
 80043ba:	2800      	cmp	r0, #0
 80043bc:	f43f aedb 	beq.w	8004176 <_scanf_float+0x4a>
 80043c0:	e6e6      	b.n	8004190 <_scanf_float+0x64>
 80043c2:	f8d4 317c 	ldr.w	r3, [r4, #380]	@ 0x17c
 80043c6:	f816 1d01 	ldrb.w	r1, [r6, #-1]!
 80043ca:	463a      	mov	r2, r7
 80043cc:	4640      	mov	r0, r8
 80043ce:	4798      	blx	r3
 80043d0:	6923      	ldr	r3, [r4, #16]
 80043d2:	3b01      	subs	r3, #1
 80043d4:	6123      	str	r3, [r4, #16]
 80043d6:	e6e8      	b.n	80041aa <_scanf_float+0x7e>
 80043d8:	1e6b      	subs	r3, r5, #1
 80043da:	2b06      	cmp	r3, #6
 80043dc:	d824      	bhi.n	8004428 <_scanf_float+0x2fc>
 80043de:	2d02      	cmp	r5, #2
 80043e0:	d836      	bhi.n	8004450 <_scanf_float+0x324>
 80043e2:	9b01      	ldr	r3, [sp, #4]
 80043e4:	429e      	cmp	r6, r3
 80043e6:	f67f aee4 	bls.w	80041b2 <_scanf_float+0x86>
 80043ea:	f8d4 317c 	ldr.w	r3, [r4, #380]	@ 0x17c
 80043ee:	f816 1d01 	ldrb.w	r1, [r6, #-1]!
 80043f2:	463a      	mov	r2, r7
 80043f4:	4640      	mov	r0, r8
 80043f6:	4798      	blx	r3
 80043f8:	6923      	ldr	r3, [r4, #16]
 80043fa:	3b01      	subs	r3, #1
 80043fc:	6123      	str	r3, [r4, #16]
 80043fe:	e7f0      	b.n	80043e2 <_scanf_float+0x2b6>
 8004400:	f8d4 317c 	ldr.w	r3, [r4, #380]	@ 0x17c
 8004404:	f81b 1d01 	ldrb.w	r1, [fp, #-1]!
 8004408:	463a      	mov	r2, r7
 800440a:	4640      	mov	r0, r8
 800440c:	4798      	blx	r3
 800440e:	6923      	ldr	r3, [r4, #16]
 8004410:	3b01      	subs	r3, #1
 8004412:	6123      	str	r3, [r4, #16]
 8004414:	f10a 3aff 	add.w	sl, sl, #4294967295
 8004418:	fa5f fa8a 	uxtb.w	sl, sl
 800441c:	f1ba 0f02 	cmp.w	sl, #2
 8004420:	d1ee      	bne.n	8004400 <_scanf_float+0x2d4>
 8004422:	3d03      	subs	r5, #3
 8004424:	b2ed      	uxtb	r5, r5
 8004426:	1b76      	subs	r6, r6, r5
 8004428:	6823      	ldr	r3, [r4, #0]
 800442a:	05da      	lsls	r2, r3, #23
 800442c:	d530      	bpl.n	8004490 <_scanf_float+0x364>
 800442e:	055b      	lsls	r3, r3, #21
 8004430:	d511      	bpl.n	8004456 <_scanf_float+0x32a>
 8004432:	9b01      	ldr	r3, [sp, #4]
 8004434:	429e      	cmp	r6, r3
 8004436:	f67f aebc 	bls.w	80041b2 <_scanf_float+0x86>
 800443a:	f8d4 317c 	ldr.w	r3, [r4, #380]	@ 0x17c
 800443e:	f816 1d01 	ldrb.w	r1, [r6, #-1]!
 8004442:	463a      	mov	r2, r7
 8004444:	4640      	mov	r0, r8
 8004446:	4798      	blx	r3
 8004448:	6923      	ldr	r3, [r4, #16]
 800444a:	3b01      	subs	r3, #1
 800444c:	6123      	str	r3, [r4, #16]
 800444e:	e7f0      	b.n	8004432 <_scanf_float+0x306>
 8004450:	46aa      	mov	sl, r5
 8004452:	46b3      	mov	fp, r6
 8004454:	e7de      	b.n	8004414 <_scanf_float+0x2e8>
 8004456:	f816 1c01 	ldrb.w	r1, [r6, #-1]
 800445a:	6923      	ldr	r3, [r4, #16]
 800445c:	2965      	cmp	r1, #101	@ 0x65
 800445e:	f103 33ff 	add.w	r3, r3, #4294967295
 8004462:	f106 35ff 	add.w	r5, r6, #4294967295
 8004466:	6123      	str	r3, [r4, #16]
 8004468:	d00c      	beq.n	8004484 <_scanf_float+0x358>
 800446a:	2945      	cmp	r1, #69	@ 0x45
 800446c:	d00a      	beq.n	8004484 <_scanf_float+0x358>
 800446e:	f8d4 317c 	ldr.w	r3, [r4, #380]	@ 0x17c
 8004472:	463a      	mov	r2, r7
 8004474:	4640      	mov	r0, r8
 8004476:	4798      	blx	r3
 8004478:	6923      	ldr	r3, [r4, #16]
 800447a:	f816 1c02 	ldrb.w	r1, [r6, #-2]
 800447e:	3b01      	subs	r3, #1
 8004480:	1eb5      	subs	r5, r6, #2
 8004482:	6123      	str	r3, [r4, #16]
 8004484:	f8d4 317c 	ldr.w	r3, [r4, #380]	@ 0x17c
 8004488:	463a      	mov	r2, r7
 800448a:	4640      	mov	r0, r8
 800448c:	4798      	blx	r3
 800448e:	462e      	mov	r6, r5
 8004490:	6822      	ldr	r2, [r4, #0]
 8004492:	f012 0210 	ands.w	r2, r2, #16
 8004496:	d001      	beq.n	800449c <_scanf_float+0x370>
 8004498:	2000      	movs	r0, #0
 800449a:	e68b      	b.n	80041b4 <_scanf_float+0x88>
 800449c:	7032      	strb	r2, [r6, #0]
 800449e:	6823      	ldr	r3, [r4, #0]
 80044a0:	f403 63c0 	and.w	r3, r3, #1536	@ 0x600
 80044a4:	f5b3 6f80 	cmp.w	r3, #1024	@ 0x400
 80044a8:	d11c      	bne.n	80044e4 <_scanf_float+0x3b8>
 80044aa:	9b02      	ldr	r3, [sp, #8]
 80044ac:	454b      	cmp	r3, r9
 80044ae:	eba3 0209 	sub.w	r2, r3, r9
 80044b2:	d123      	bne.n	80044fc <_scanf_float+0x3d0>
 80044b4:	9901      	ldr	r1, [sp, #4]
 80044b6:	2200      	movs	r2, #0
 80044b8:	4640      	mov	r0, r8
 80044ba:	f002 fb55 	bl	8006b68 <_strtod_r>
 80044be:	9b03      	ldr	r3, [sp, #12]
 80044c0:	6821      	ldr	r1, [r4, #0]
 80044c2:	681b      	ldr	r3, [r3, #0]
 80044c4:	f011 0f02 	tst.w	r1, #2
 80044c8:	ec57 6b10 	vmov	r6, r7, d0
 80044cc:	f103 0204 	add.w	r2, r3, #4
 80044d0:	d01f      	beq.n	8004512 <_scanf_float+0x3e6>
 80044d2:	9903      	ldr	r1, [sp, #12]
 80044d4:	600a      	str	r2, [r1, #0]
 80044d6:	681b      	ldr	r3, [r3, #0]
 80044d8:	e9c3 6700 	strd	r6, r7, [r3]
 80044dc:	68e3      	ldr	r3, [r4, #12]
 80044de:	3301      	adds	r3, #1
 80044e0:	60e3      	str	r3, [r4, #12]
 80044e2:	e7d9      	b.n	8004498 <_scanf_float+0x36c>
 80044e4:	9b04      	ldr	r3, [sp, #16]
 80044e6:	2b00      	cmp	r3, #0
 80044e8:	d0e4      	beq.n	80044b4 <_scanf_float+0x388>
 80044ea:	9905      	ldr	r1, [sp, #20]
 80044ec:	230a      	movs	r3, #10
 80044ee:	3101      	adds	r1, #1
 80044f0:	4640      	mov	r0, r8
 80044f2:	f002 fbb9 	bl	8006c68 <_strtol_r>
 80044f6:	9b04      	ldr	r3, [sp, #16]
 80044f8:	9e05      	ldr	r6, [sp, #20]
 80044fa:	1ac2      	subs	r2, r0, r3
 80044fc:	f204 136f 	addw	r3, r4, #367	@ 0x16f
 8004500:	429e      	cmp	r6, r3
 8004502:	bf28      	it	cs
 8004504:	f504 76b7 	addcs.w	r6, r4, #366	@ 0x16e
 8004508:	4910      	ldr	r1, [pc, #64]	@ (800454c <_scanf_float+0x420>)
 800450a:	4630      	mov	r0, r6
 800450c:	f000 f8e4 	bl	80046d8 <siprintf>
 8004510:	e7d0      	b.n	80044b4 <_scanf_float+0x388>
 8004512:	f011 0f04 	tst.w	r1, #4
 8004516:	9903      	ldr	r1, [sp, #12]
 8004518:	600a      	str	r2, [r1, #0]
 800451a:	d1dc      	bne.n	80044d6 <_scanf_float+0x3aa>
 800451c:	681d      	ldr	r5, [r3, #0]
 800451e:	4632      	mov	r2, r6
 8004520:	463b      	mov	r3, r7
 8004522:	4630      	mov	r0, r6
 8004524:	4639      	mov	r1, r7
 8004526:	f7fc fb21 	bl	8000b6c <__aeabi_dcmpun>
 800452a:	b128      	cbz	r0, 8004538 <_scanf_float+0x40c>
 800452c:	4808      	ldr	r0, [pc, #32]	@ (8004550 <_scanf_float+0x424>)
 800452e:	f000 f9c9 	bl	80048c4 <nanf>
 8004532:	ed85 0a00 	vstr	s0, [r5]
 8004536:	e7d1      	b.n	80044dc <_scanf_float+0x3b0>
 8004538:	4630      	mov	r0, r6
 800453a:	4639      	mov	r1, r7
 800453c:	f7fc fb74 	bl	8000c28 <__aeabi_d2f>
 8004540:	6028      	str	r0, [r5, #0]
 8004542:	e7cb      	b.n	80044dc <_scanf_float+0x3b0>
 8004544:	f04f 0900 	mov.w	r9, #0
 8004548:	e629      	b.n	800419e <_scanf_float+0x72>
 800454a:	bf00      	nop
 800454c:	0800816d 	.word	0x0800816d
 8004550:	08008505 	.word	0x08008505

08004554 <std>:
 8004554:	2300      	movs	r3, #0
 8004556:	b510      	push	{r4, lr}
 8004558:	4604      	mov	r4, r0
 800455a:	e9c0 3300 	strd	r3, r3, [r0]
 800455e:	e9c0 3304 	strd	r3, r3, [r0, #16]
 8004562:	6083      	str	r3, [r0, #8]
 8004564:	8181      	strh	r1, [r0, #12]
 8004566:	6643      	str	r3, [r0, #100]	@ 0x64
 8004568:	81c2      	strh	r2, [r0, #14]
 800456a:	6183      	str	r3, [r0, #24]
 800456c:	4619      	mov	r1, r3
 800456e:	2208      	movs	r2, #8
 8004570:	305c      	adds	r0, #92	@ 0x5c
 8004572:	f000 f914 	bl	800479e <memset>
 8004576:	4b0d      	ldr	r3, [pc, #52]	@ (80045ac <std+0x58>)
 8004578:	6263      	str	r3, [r4, #36]	@ 0x24
 800457a:	4b0d      	ldr	r3, [pc, #52]	@ (80045b0 <std+0x5c>)
 800457c:	62a3      	str	r3, [r4, #40]	@ 0x28
 800457e:	4b0d      	ldr	r3, [pc, #52]	@ (80045b4 <std+0x60>)
 8004580:	62e3      	str	r3, [r4, #44]	@ 0x2c
 8004582:	4b0d      	ldr	r3, [pc, #52]	@ (80045b8 <std+0x64>)
 8004584:	6323      	str	r3, [r4, #48]	@ 0x30
 8004586:	4b0d      	ldr	r3, [pc, #52]	@ (80045bc <std+0x68>)
 8004588:	6224      	str	r4, [r4, #32]
 800458a:	429c      	cmp	r4, r3
 800458c:	d006      	beq.n	800459c <std+0x48>
 800458e:	f103 0268 	add.w	r2, r3, #104	@ 0x68
 8004592:	4294      	cmp	r4, r2
 8004594:	d002      	beq.n	800459c <std+0x48>
 8004596:	33d0      	adds	r3, #208	@ 0xd0
 8004598:	429c      	cmp	r4, r3
 800459a:	d105      	bne.n	80045a8 <std+0x54>
 800459c:	f104 0058 	add.w	r0, r4, #88	@ 0x58
 80045a0:	e8bd 4010 	ldmia.w	sp!, {r4, lr}
 80045a4:	f000 b982 	b.w	80048ac <__retarget_lock_init_recursive>
 80045a8:	bd10      	pop	{r4, pc}
 80045aa:	bf00      	nop
 80045ac:	08004719 	.word	0x08004719
 80045b0:	0800473b 	.word	0x0800473b
 80045b4:	08004773 	.word	0x08004773
 80045b8:	08004797 	.word	0x08004797
 80045bc:	20000778 	.word	0x20000778

080045c0 <stdio_exit_handler>:
 80045c0:	4a02      	ldr	r2, [pc, #8]	@ (80045cc <stdio_exit_handler+0xc>)
 80045c2:	4903      	ldr	r1, [pc, #12]	@ (80045d0 <stdio_exit_handler+0x10>)
 80045c4:	4803      	ldr	r0, [pc, #12]	@ (80045d4 <stdio_exit_handler+0x14>)
 80045c6:	f000 b869 	b.w	800469c <_fwalk_sglue>
 80045ca:	bf00      	nop
 80045cc:	20000010 	.word	0x20000010
 80045d0:	08007025 	.word	0x08007025
 80045d4:	20000020 	.word	0x20000020

080045d8 <cleanup_stdio>:
 80045d8:	6841      	ldr	r1, [r0, #4]
 80045da:	4b0c      	ldr	r3, [pc, #48]	@ (800460c <cleanup_stdio+0x34>)
 80045dc:	4299      	cmp	r1, r3
 80045de:	b510      	push	{r4, lr}
 80045e0:	4604      	mov	r4, r0
 80045e2:	d001      	beq.n	80045e8 <cleanup_stdio+0x10>
 80045e4:	f002 fd1e 	bl	8007024 <_fflush_r>
 80045e8:	68a1      	ldr	r1, [r4, #8]
 80045ea:	4b09      	ldr	r3, [pc, #36]	@ (8004610 <cleanup_stdio+0x38>)
 80045ec:	4299      	cmp	r1, r3
 80045ee:	d002      	beq.n	80045f6 <cleanup_stdio+0x1e>
 80045f0:	4620      	mov	r0, r4
 80045f2:	f002 fd17 	bl	8007024 <_fflush_r>
 80045f6:	68e1      	ldr	r1, [r4, #12]
 80045f8:	4b06      	ldr	r3, [pc, #24]	@ (8004614 <cleanup_stdio+0x3c>)
 80045fa:	4299      	cmp	r1, r3
 80045fc:	d004      	beq.n	8004608 <cleanup_stdio+0x30>
 80045fe:	4620      	mov	r0, r4
 8004600:	e8bd 4010 	ldmia.w	sp!, {r4, lr}
 8004604:	f002 bd0e 	b.w	8007024 <_fflush_r>
 8004608:	bd10      	pop	{r4, pc}
 800460a:	bf00      	nop
 800460c:	20000778 	.word	0x20000778
 8004610:	200007e0 	.word	0x200007e0
 8004614:	20000848 	.word	0x20000848

08004618 <global_stdio_init.part.0>:
 8004618:	b510      	push	{r4, lr}
 800461a:	4b0b      	ldr	r3, [pc, #44]	@ (8004648 <global_stdio_init.part.0+0x30>)
 800461c:	4c0b      	ldr	r4, [pc, #44]	@ (800464c <global_stdio_init.part.0+0x34>)
 800461e:	4a0c      	ldr	r2, [pc, #48]	@ (8004650 <global_stdio_init.part.0+0x38>)
 8004620:	601a      	str	r2, [r3, #0]
 8004622:	4620      	mov	r0, r4
 8004624:	2200      	movs	r2, #0
 8004626:	2104      	movs	r1, #4
 8004628:	f7ff ff94 	bl	8004554 <std>
 800462c:	f104 0068 	add.w	r0, r4, #104	@ 0x68
 8004630:	2201      	movs	r2, #1
 8004632:	2109      	movs	r1, #9
 8004634:	f7ff ff8e 	bl	8004554 <std>
 8004638:	f104 00d0 	add.w	r0, r4, #208	@ 0xd0
 800463c:	2202      	movs	r2, #2
 800463e:	e8bd 4010 	ldmia.w	sp!, {r4, lr}
 8004642:	2112      	movs	r1, #18
 8004644:	f7ff bf86 	b.w	8004554 <std>
 8004648:	200008b0 	.word	0x200008b0
 800464c:	20000778 	.word	0x20000778
 8004650:	080045c1 	.word	0x080045c1

08004654 <__sfp_lock_acquire>:
 8004654:	4801      	ldr	r0, [pc, #4]	@ (800465c <__sfp_lock_acquire+0x8>)
 8004656:	f000 b92a 	b.w	80048ae <__retarget_lock_acquire_recursive>
 800465a:	bf00      	nop
 800465c:	200008b9 	.word	0x200008b9

08004660 <__sfp_lock_release>:
 8004660:	4801      	ldr	r0, [pc, #4]	@ (8004668 <__sfp_lock_release+0x8>)
 8004662:	f000 b925 	b.w	80048b0 <__retarget_lock_release_recursive>
 8004666:	bf00      	nop
 8004668:	200008b9 	.word	0x200008b9

0800466c <__sinit>:
 800466c:	b510      	push	{r4, lr}
 800466e:	4604      	mov	r4, r0
 8004670:	f7ff fff0 	bl	8004654 <__sfp_lock_acquire>
 8004674:	6a23      	ldr	r3, [r4, #32]
 8004676:	b11b      	cbz	r3, 8004680 <__sinit+0x14>
 8004678:	e8bd 4010 	ldmia.w	sp!, {r4, lr}
 800467c:	f7ff bff0 	b.w	8004660 <__sfp_lock_release>
 8004680:	4b04      	ldr	r3, [pc, #16]	@ (8004694 <__sinit+0x28>)
 8004682:	6223      	str	r3, [r4, #32]
 8004684:	4b04      	ldr	r3, [pc, #16]	@ (8004698 <__sinit+0x2c>)
 8004686:	681b      	ldr	r3, [r3, #0]
 8004688:	2b00      	cmp	r3, #0
 800468a:	d1f5      	bne.n	8004678 <__sinit+0xc>
 800468c:	f7ff ffc4 	bl	8004618 <global_stdio_init.part.0>
 8004690:	e7f2      	b.n	8004678 <__sinit+0xc>
 8004692:	bf00      	nop
 8004694:	080045d9 	.word	0x080045d9
 8004698:	200008b0 	.word	0x200008b0

0800469c <_fwalk_sglue>:
 800469c:	e92d 43f8 	stmdb	sp!, {r3, r4, r5, r6, r7, r8, r9, lr}
 80046a0:	4607      	mov	r7, r0
 80046a2:	4688      	mov	r8, r1
 80046a4:	4614      	mov	r4, r2
 80046a6:	2600      	movs	r6, #0
 80046a8:	e9d4 9501 	ldrd	r9, r5, [r4, #4]
 80046ac:	f1b9 0901 	subs.w	r9, r9, #1
 80046b0:	d505      	bpl.n	80046be <_fwalk_sglue+0x22>
 80046b2:	6824      	ldr	r4, [r4, #0]
 80046b4:	2c00      	cmp	r4, #0
 80046b6:	d1f7      	bne.n	80046a8 <_fwalk_sglue+0xc>
 80046b8:	4630      	mov	r0, r6
 80046ba:	e8bd 83f8 	ldmia.w	sp!, {r3, r4, r5, r6, r7, r8, r9, pc}
 80046be:	89ab      	ldrh	r3, [r5, #12]
 80046c0:	2b01      	cmp	r3, #1
 80046c2:	d907      	bls.n	80046d4 <_fwalk_sglue+0x38>
 80046c4:	f9b5 300e 	ldrsh.w	r3, [r5, #14]
 80046c8:	3301      	adds	r3, #1
 80046ca:	d003      	beq.n	80046d4 <_fwalk_sglue+0x38>
 80046cc:	4629      	mov	r1, r5
 80046ce:	4638      	mov	r0, r7
 80046d0:	47c0      	blx	r8
 80046d2:	4306      	orrs	r6, r0
 80046d4:	3568      	adds	r5, #104	@ 0x68
 80046d6:	e7e9      	b.n	80046ac <_fwalk_sglue+0x10>

080046d8 <siprintf>:
 80046d8:	b40e      	push	{r1, r2, r3}
 80046da:	b500      	push	{lr}
 80046dc:	b09c      	sub	sp, #112	@ 0x70
 80046de:	ab1d      	add	r3, sp, #116	@ 0x74
 80046e0:	9002      	str	r0, [sp, #8]
 80046e2:	9006      	str	r0, [sp, #24]
 80046e4:	f06f 4100 	mvn.w	r1, #2147483648	@ 0x80000000
 80046e8:	4809      	ldr	r0, [pc, #36]	@ (8004710 <siprintf+0x38>)
 80046ea:	9107      	str	r1, [sp, #28]
 80046ec:	9104      	str	r1, [sp, #16]
 80046ee:	4909      	ldr	r1, [pc, #36]	@ (8004714 <siprintf+0x3c>)
 80046f0:	f853 2b04 	ldr.w	r2, [r3], #4
 80046f4:	9105      	str	r1, [sp, #20]
 80046f6:	6800      	ldr	r0, [r0, #0]
 80046f8:	9301      	str	r3, [sp, #4]
 80046fa:	a902      	add	r1, sp, #8
 80046fc:	f002 fb12 	bl	8006d24 <_svfiprintf_r>
 8004700:	9b02      	ldr	r3, [sp, #8]
 8004702:	2200      	movs	r2, #0
 8004704:	701a      	strb	r2, [r3, #0]
 8004706:	b01c      	add	sp, #112	@ 0x70
 8004708:	f85d eb04 	ldr.w	lr, [sp], #4
 800470c:	b003      	add	sp, #12
 800470e:	4770      	bx	lr
 8004710:	2000001c 	.word	0x2000001c
 8004714:	ffff0208 	.word	0xffff0208

08004718 <__sread>:
 8004718:	b510      	push	{r4, lr}
 800471a:	460c      	mov	r4, r1
 800471c:	f9b1 100e 	ldrsh.w	r1, [r1, #14]
 8004720:	f000 f86c 	bl	80047fc <_read_r>
 8004724:	2800      	cmp	r0, #0
 8004726:	bfab      	itete	ge
 8004728:	6d63      	ldrge	r3, [r4, #84]	@ 0x54
 800472a:	89a3      	ldrhlt	r3, [r4, #12]
 800472c:	181b      	addge	r3, r3, r0
 800472e:	f423 5380 	biclt.w	r3, r3, #4096	@ 0x1000
 8004732:	bfac      	ite	ge
 8004734:	6563      	strge	r3, [r4, #84]	@ 0x54
 8004736:	81a3      	strhlt	r3, [r4, #12]
 8004738:	bd10      	pop	{r4, pc}

0800473a <__swrite>:
 800473a:	e92d 41f0 	stmdb	sp!, {r4, r5, r6, r7, r8, lr}
 800473e:	461f      	mov	r7, r3
 8004740:	898b      	ldrh	r3, [r1, #12]
 8004742:	05db      	lsls	r3, r3, #23
 8004744:	4605      	mov	r5, r0
 8004746:	460c      	mov	r4, r1
 8004748:	4616      	mov	r6, r2
 800474a:	d505      	bpl.n	8004758 <__swrite+0x1e>
 800474c:	f9b1 100e 	ldrsh.w	r1, [r1, #14]
 8004750:	2302      	movs	r3, #2
 8004752:	2200      	movs	r2, #0
 8004754:	f000 f840 	bl	80047d8 <_lseek_r>
 8004758:	89a3      	ldrh	r3, [r4, #12]
 800475a:	f9b4 100e 	ldrsh.w	r1, [r4, #14]
 800475e:	f423 5380 	bic.w	r3, r3, #4096	@ 0x1000
 8004762:	81a3      	strh	r3, [r4, #12]
 8004764:	4632      	mov	r2, r6
 8004766:	463b      	mov	r3, r7
 8004768:	4628      	mov	r0, r5
 800476a:	e8bd 41f0 	ldmia.w	sp!, {r4, r5, r6, r7, r8, lr}
 800476e:	f000 b867 	b.w	8004840 <_write_r>

08004772 <__sseek>:
 8004772:	b510      	push	{r4, lr}
 8004774:	460c      	mov	r4, r1
 8004776:	f9b1 100e 	ldrsh.w	r1, [r1, #14]
 800477a:	f000 f82d 	bl	80047d8 <_lseek_r>
 800477e:	1c43      	adds	r3, r0, #1
 8004780:	89a3      	ldrh	r3, [r4, #12]
 8004782:	bf15      	itete	ne
 8004784:	6560      	strne	r0, [r4, #84]	@ 0x54
 8004786:	f423 5380 	biceq.w	r3, r3, #4096	@ 0x1000
 800478a:	f443 5380 	orrne.w	r3, r3, #4096	@ 0x1000
 800478e:	81a3      	strheq	r3, [r4, #12]
 8004790:	bf18      	it	ne
 8004792:	81a3      	strhne	r3, [r4, #12]
 8004794:	bd10      	pop	{r4, pc}

08004796 <__sclose>:
 8004796:	f9b1 100e 	ldrsh.w	r1, [r1, #14]
 800479a:	f000 b80d 	b.w	80047b8 <_close_r>

0800479e <memset>:
 800479e:	4402      	add	r2, r0
 80047a0:	4603      	mov	r3, r0
 80047a2:	4293      	cmp	r3, r2
 80047a4:	d100      	bne.n	80047a8 <memset+0xa>
 80047a6:	4770      	bx	lr
 80047a8:	f803 1b01 	strb.w	r1, [r3], #1
 80047ac:	e7f9      	b.n	80047a2 <memset+0x4>
	...

080047b0 <_localeconv_r>:
 80047b0:	4800      	ldr	r0, [pc, #0]	@ (80047b4 <_localeconv_r+0x4>)
 80047b2:	4770      	bx	lr
 80047b4:	2000015c 	.word	0x2000015c

080047b8 <_close_r>:
 80047b8:	b538      	push	{r3, r4, r5, lr}
 80047ba:	4d06      	ldr	r5, [pc, #24]	@ (80047d4 <_close_r+0x1c>)
 80047bc:	2300      	movs	r3, #0
 80047be:	4604      	mov	r4, r0
 80047c0:	4608      	mov	r0, r1
 80047c2:	602b      	str	r3, [r5, #0]
 80047c4:	f003 fb02 	bl	8007dcc <_close>
 80047c8:	1c43      	adds	r3, r0, #1
 80047ca:	d102      	bne.n	80047d2 <_close_r+0x1a>
 80047cc:	682b      	ldr	r3, [r5, #0]
 80047ce:	b103      	cbz	r3, 80047d2 <_close_r+0x1a>
 80047d0:	6023      	str	r3, [r4, #0]
 80047d2:	bd38      	pop	{r3, r4, r5, pc}
 80047d4:	200008b4 	.word	0x200008b4

080047d8 <_lseek_r>:
 80047d8:	b538      	push	{r3, r4, r5, lr}
 80047da:	4d07      	ldr	r5, [pc, #28]	@ (80047f8 <_lseek_r+0x20>)
 80047dc:	4604      	mov	r4, r0
 80047de:	4608      	mov	r0, r1
 80047e0:	4611      	mov	r1, r2
 80047e2:	2200      	movs	r2, #0
 80047e4:	602a      	str	r2, [r5, #0]
 80047e6:	461a      	mov	r2, r3
 80047e8:	f003 fb18 	bl	8007e1c <_lseek>
 80047ec:	1c43      	adds	r3, r0, #1
 80047ee:	d102      	bne.n	80047f6 <_lseek_r+0x1e>
 80047f0:	682b      	ldr	r3, [r5, #0]
 80047f2:	b103      	cbz	r3, 80047f6 <_lseek_r+0x1e>
 80047f4:	6023      	str	r3, [r4, #0]
 80047f6:	bd38      	pop	{r3, r4, r5, pc}
 80047f8:	200008b4 	.word	0x200008b4

080047fc <_read_r>:
 80047fc:	b538      	push	{r3, r4, r5, lr}
 80047fe:	4d07      	ldr	r5, [pc, #28]	@ (800481c <_read_r+0x20>)
 8004800:	4604      	mov	r4, r0
 8004802:	4608      	mov	r0, r1
 8004804:	4611      	mov	r1, r2
 8004806:	2200      	movs	r2, #0
 8004808:	602a      	str	r2, [r5, #0]
 800480a:	461a      	mov	r2, r3
 800480c:	f003 fb0e 	bl	8007e2c <_read>
 8004810:	1c43      	adds	r3, r0, #1
 8004812:	d102      	bne.n	800481a <_read_r+0x1e>
 8004814:	682b      	ldr	r3, [r5, #0]
 8004816:	b103      	cbz	r3, 800481a <_read_r+0x1e>
 8004818:	6023      	str	r3, [r4, #0]
 800481a:	bd38      	pop	{r3, r4, r5, pc}
 800481c:	200008b4 	.word	0x200008b4

08004820 <_sbrk_r>:
 8004820:	b538      	push	{r3, r4, r5, lr}
 8004822:	4d06      	ldr	r5, [pc, #24]	@ (800483c <_sbrk_r+0x1c>)
 8004824:	2300      	movs	r3, #0
 8004826:	4604      	mov	r4, r0
 8004828:	4608      	mov	r0, r1
 800482a:	602b      	str	r3, [r5, #0]
 800482c:	f003 fb06 	bl	8007e3c <_sbrk>
 8004830:	1c43      	adds	r3, r0, #1
 8004832:	d102      	bne.n	800483a <_sbrk_r+0x1a>
 8004834:	682b      	ldr	r3, [r5, #0]
 8004836:	b103      	cbz	r3, 800483a <_sbrk_r+0x1a>
 8004838:	6023      	str	r3, [r4, #0]
 800483a:	bd38      	pop	{r3, r4, r5, pc}
 800483c:	200008b4 	.word	0x200008b4

08004840 <_write_r>:
 8004840:	b538      	push	{r3, r4, r5, lr}
 8004842:	4d07      	ldr	r5, [pc, #28]	@ (8004860 <_write_r+0x20>)
 8004844:	4604      	mov	r4, r0
 8004846:	4608      	mov	r0, r1
 8004848:	4611      	mov	r1, r2
 800484a:	2200      	movs	r2, #0
 800484c:	602a      	str	r2, [r5, #0]
 800484e:	461a      	mov	r2, r3
 8004850:	f003 fb02 	bl	8007e58 <_write>
 8004854:	1c43      	adds	r3, r0, #1
 8004856:	d102      	bne.n	800485e <_write_r+0x1e>
 8004858:	682b      	ldr	r3, [r5, #0]
 800485a:	b103      	cbz	r3, 800485e <_write_r+0x1e>
 800485c:	6023      	str	r3, [r4, #0]
 800485e:	bd38      	pop	{r3, r4, r5, pc}
 8004860:	200008b4 	.word	0x200008b4

08004864 <__libc_init_array>:
 8004864:	b570      	push	{r4, r5, r6, lr}
 8004866:	4d0d      	ldr	r5, [pc, #52]	@ (800489c <__libc_init_array+0x38>)
 8004868:	4c0d      	ldr	r4, [pc, #52]	@ (80048a0 <__libc_init_array+0x3c>)
 800486a:	1b64      	subs	r4, r4, r5
 800486c:	10a4      	asrs	r4, r4, #2
 800486e:	2600      	movs	r6, #0
 8004870:	42a6      	cmp	r6, r4
 8004872:	d109      	bne.n	8004888 <__libc_init_array+0x24>
 8004874:	4d0b      	ldr	r5, [pc, #44]	@ (80048a4 <__libc_init_array+0x40>)
 8004876:	4c0c      	ldr	r4, [pc, #48]	@ (80048a8 <__libc_init_array+0x44>)
 8004878:	f003 faf8 	bl	8007e6c <_init>
 800487c:	1b64      	subs	r4, r4, r5
 800487e:	10a4      	asrs	r4, r4, #2
 8004880:	2600      	movs	r6, #0
 8004882:	42a6      	cmp	r6, r4
 8004884:	d105      	bne.n	8004892 <__libc_init_array+0x2e>
 8004886:	bd70      	pop	{r4, r5, r6, pc}
 8004888:	f855 3b04 	ldr.w	r3, [r5], #4
 800488c:	4798      	blx	r3
 800488e:	3601      	adds	r6, #1
 8004890:	e7ee      	b.n	8004870 <__libc_init_array+0xc>
 8004892:	f855 3b04 	ldr.w	r3, [r5], #4
 8004896:	4798      	blx	r3
 8004898:	3601      	adds	r6, #1
 800489a:	e7f2      	b.n	8004882 <__libc_init_array+0x1e>
 800489c:	08008570 	.word	0x08008570
 80048a0:	08008570 	.word	0x08008570
 80048a4:	08008570 	.word	0x08008570
 80048a8:	08008574 	.word	0x08008574

080048ac <__retarget_lock_init_recursive>:
 80048ac:	4770      	bx	lr

080048ae <__retarget_lock_acquire_recursive>:
 80048ae:	4770      	bx	lr

080048b0 <__retarget_lock_release_recursive>:
 80048b0:	4770      	bx	lr

080048b2 <strcpy>:
 80048b2:	4603      	mov	r3, r0
 80048b4:	f811 2b01 	ldrb.w	r2, [r1], #1
 80048b8:	f803 2b01 	strb.w	r2, [r3], #1
 80048bc:	2a00      	cmp	r2, #0
 80048be:	d1f9      	bne.n	80048b4 <strcpy+0x2>
 80048c0:	4770      	bx	lr
	...

080048c4 <nanf>:
 80048c4:	ed9f 0a01 	vldr	s0, [pc, #4]	@ 80048cc <nanf+0x8>
 80048c8:	4770      	bx	lr
 80048ca:	bf00      	nop
 80048cc:	7fc00000 	.word	0x7fc00000

080048d0 <quorem>:
 80048d0:	e92d 4ff7 	stmdb	sp!, {r0, r1, r2, r4, r5, r6, r7, r8, r9, sl, fp, lr}
 80048d4:	6903      	ldr	r3, [r0, #16]
 80048d6:	690c      	ldr	r4, [r1, #16]
 80048d8:	42a3      	cmp	r3, r4
 80048da:	4607      	mov	r7, r0
 80048dc:	db7e      	blt.n	80049dc <quorem+0x10c>
 80048de:	3c01      	subs	r4, #1
 80048e0:	f101 0814 	add.w	r8, r1, #20
 80048e4:	00a3      	lsls	r3, r4, #2
 80048e6:	f100 0514 	add.w	r5, r0, #20
 80048ea:	9300      	str	r3, [sp, #0]
 80048ec:	eb05 0384 	add.w	r3, r5, r4, lsl #2
 80048f0:	9301      	str	r3, [sp, #4]
 80048f2:	f858 3024 	ldr.w	r3, [r8, r4, lsl #2]
 80048f6:	f855 2024 	ldr.w	r2, [r5, r4, lsl #2]
 80048fa:	3301      	adds	r3, #1
 80048fc:	429a      	cmp	r2, r3
 80048fe:	eb08 0984 	add.w	r9, r8, r4, lsl #2
 8004902:	fbb2 f6f3 	udiv	r6, r2, r3
 8004906:	d32e      	bcc.n	8004966 <quorem+0x96>
 8004908:	f04f 0a00 	mov.w	sl, #0
 800490c:	46c4      	mov	ip, r8
 800490e:	46ae      	mov	lr, r5
 8004910:	46d3      	mov	fp, sl
 8004912:	f85c 3b04 	ldr.w	r3, [ip], #4
 8004916:	b298      	uxth	r0, r3
 8004918:	fb06 a000 	mla	r0, r6, r0, sl
 800491c:	0c02      	lsrs	r2, r0, #16
 800491e:	0c1b      	lsrs	r3, r3, #16
 8004920:	fb06 2303 	mla	r3, r6, r3, r2
 8004924:	f8de 2000 	ldr.w	r2, [lr]
 8004928:	b280      	uxth	r0, r0
 800492a:	b292      	uxth	r2, r2
 800492c:	1a12      	subs	r2, r2, r0
 800492e:	445a      	add	r2, fp
 8004930:	f8de 0000 	ldr.w	r0, [lr]
 8004934:	ea4f 4a13 	mov.w	sl, r3, lsr #16
 8004938:	b29b      	uxth	r3, r3
 800493a:	ebc3 4322 	rsb	r3, r3, r2, asr #16
 800493e:	eb03 4310 	add.w	r3, r3, r0, lsr #16
 8004942:	b292      	uxth	r2, r2
 8004944:	ea42 4203 	orr.w	r2, r2, r3, lsl #16
 8004948:	45e1      	cmp	r9, ip
 800494a:	f84e 2b04 	str.w	r2, [lr], #4
 800494e:	ea4f 4b23 	mov.w	fp, r3, asr #16
 8004952:	d2de      	bcs.n	8004912 <quorem+0x42>
 8004954:	9b00      	ldr	r3, [sp, #0]
 8004956:	58eb      	ldr	r3, [r5, r3]
 8004958:	b92b      	cbnz	r3, 8004966 <quorem+0x96>
 800495a:	9b01      	ldr	r3, [sp, #4]
 800495c:	3b04      	subs	r3, #4
 800495e:	429d      	cmp	r5, r3
 8004960:	461a      	mov	r2, r3
 8004962:	d32f      	bcc.n	80049c4 <quorem+0xf4>
 8004964:	613c      	str	r4, [r7, #16]
 8004966:	4638      	mov	r0, r7
 8004968:	f001 f90c 	bl	8005b84 <__mcmp>
 800496c:	2800      	cmp	r0, #0
 800496e:	db25      	blt.n	80049bc <quorem+0xec>
 8004970:	4629      	mov	r1, r5
 8004972:	2000      	movs	r0, #0
 8004974:	f858 2b04 	ldr.w	r2, [r8], #4
 8004978:	f8d1 c000 	ldr.w	ip, [r1]
 800497c:	fa1f fe82 	uxth.w	lr, r2
 8004980:	fa1f f38c 	uxth.w	r3, ip
 8004984:	eba3 030e 	sub.w	r3, r3, lr
 8004988:	4403      	add	r3, r0
 800498a:	0c12      	lsrs	r2, r2, #16
 800498c:	ebc2 4223 	rsb	r2, r2, r3, asr #16
 8004990:	eb02 421c 	add.w	r2, r2, ip, lsr #16
 8004994:	b29b      	uxth	r3, r3
 8004996:	ea43 4302 	orr.w	r3, r3, r2, lsl #16
 800499a:	45c1      	cmp	r9, r8
 800499c:	f841 3b04 	str.w	r3, [r1], #4
 80049a0:	ea4f 4022 	mov.w	r0, r2, asr #16
 80049a4:	d2e6      	bcs.n	8004974 <quorem+0xa4>
 80049a6:	f855 2024 	ldr.w	r2, [r5, r4, lsl #2]
 80049aa:	eb05 0384 	add.w	r3, r5, r4, lsl #2
 80049ae:	b922      	cbnz	r2, 80049ba <quorem+0xea>
 80049b0:	3b04      	subs	r3, #4
 80049b2:	429d      	cmp	r5, r3
 80049b4:	461a      	mov	r2, r3
 80049b6:	d30b      	bcc.n	80049d0 <quorem+0x100>
 80049b8:	613c      	str	r4, [r7, #16]
 80049ba:	3601      	adds	r6, #1
 80049bc:	4630      	mov	r0, r6
 80049be:	b003      	add	sp, #12
 80049c0:	e8bd 8ff0 	ldmia.w	sp!, {r4, r5, r6, r7, r8, r9, sl, fp, pc}
 80049c4:	6812      	ldr	r2, [r2, #0]
 80049c6:	3b04      	subs	r3, #4
 80049c8:	2a00      	cmp	r2, #0
 80049ca:	d1cb      	bne.n	8004964 <quorem+0x94>
 80049cc:	3c01      	subs	r4, #1
 80049ce:	e7c6      	b.n	800495e <quorem+0x8e>
 80049d0:	6812      	ldr	r2, [r2, #0]
 80049d2:	3b04      	subs	r3, #4
 80049d4:	2a00      	cmp	r2, #0
 80049d6:	d1ef      	bne.n	80049b8 <quorem+0xe8>
 80049d8:	3c01      	subs	r4, #1
 80049da:	e7ea      	b.n	80049b2 <quorem+0xe2>
 80049dc:	2000      	movs	r0, #0
 80049de:	e7ee      	b.n	80049be <quorem+0xee>

080049e0 <_dtoa_r>:
 80049e0:	e92d 4ff0 	stmdb	sp!, {r4, r5, r6, r7, r8, r9, sl, fp, lr}
 80049e4:	69c7      	ldr	r7, [r0, #28]
 80049e6:	b099      	sub	sp, #100	@ 0x64
 80049e8:	ed8d 0b02 	vstr	d0, [sp, #8]
 80049ec:	ec55 4b10 	vmov	r4, r5, d0
 80049f0:	9e22      	ldr	r6, [sp, #136]	@ 0x88
 80049f2:	9109      	str	r1, [sp, #36]	@ 0x24
 80049f4:	4683      	mov	fp, r0
 80049f6:	920e      	str	r2, [sp, #56]	@ 0x38
 80049f8:	9313      	str	r3, [sp, #76]	@ 0x4c
 80049fa:	b97f      	cbnz	r7, 8004a1c <_dtoa_r+0x3c>
 80049fc:	2010      	movs	r0, #16
 80049fe:	f7fe fe7f 	bl	8003700 <malloc>
 8004a02:	4602      	mov	r2, r0
 8004a04:	f8cb 001c 	str.w	r0, [fp, #28]
 8004a08:	b920      	cbnz	r0, 8004a14 <_dtoa_r+0x34>
 8004a0a:	4ba7      	ldr	r3, [pc, #668]	@ (8004ca8 <_dtoa_r+0x2c8>)
 8004a0c:	21ef      	movs	r1, #239	@ 0xef
 8004a0e:	48a7      	ldr	r0, [pc, #668]	@ (8004cac <_dtoa_r+0x2cc>)
 8004a10:	f002 fb7a 	bl	8007108 <__assert_func>
 8004a14:	e9c0 7701 	strd	r7, r7, [r0, #4]
 8004a18:	6007      	str	r7, [r0, #0]
 8004a1a:	60c7      	str	r7, [r0, #12]
 8004a1c:	f8db 301c 	ldr.w	r3, [fp, #28]
 8004a20:	6819      	ldr	r1, [r3, #0]
 8004a22:	b159      	cbz	r1, 8004a3c <_dtoa_r+0x5c>
 8004a24:	685a      	ldr	r2, [r3, #4]
 8004a26:	604a      	str	r2, [r1, #4]
 8004a28:	2301      	movs	r3, #1
 8004a2a:	4093      	lsls	r3, r2
 8004a2c:	608b      	str	r3, [r1, #8]
 8004a2e:	4658      	mov	r0, fp
 8004a30:	f000 fe24 	bl	800567c <_Bfree>
 8004a34:	f8db 301c 	ldr.w	r3, [fp, #28]
 8004a38:	2200      	movs	r2, #0
 8004a3a:	601a      	str	r2, [r3, #0]
 8004a3c:	1e2b      	subs	r3, r5, #0
 8004a3e:	bfb9      	ittee	lt
 8004a40:	f023 4300 	biclt.w	r3, r3, #2147483648	@ 0x80000000
 8004a44:	9303      	strlt	r3, [sp, #12]
 8004a46:	2300      	movge	r3, #0
 8004a48:	6033      	strge	r3, [r6, #0]
 8004a4a:	9f03      	ldr	r7, [sp, #12]
 8004a4c:	4b98      	ldr	r3, [pc, #608]	@ (8004cb0 <_dtoa_r+0x2d0>)
 8004a4e:	bfbc      	itt	lt
 8004a50:	2201      	movlt	r2, #1
 8004a52:	6032      	strlt	r2, [r6, #0]
 8004a54:	43bb      	bics	r3, r7
 8004a56:	d112      	bne.n	8004a7e <_dtoa_r+0x9e>
 8004a58:	9a13      	ldr	r2, [sp, #76]	@ 0x4c
 8004a5a:	f242 730f 	movw	r3, #9999	@ 0x270f
 8004a5e:	6013      	str	r3, [r2, #0]
 8004a60:	f3c7 0313 	ubfx	r3, r7, #0, #20
 8004a64:	4323      	orrs	r3, r4
 8004a66:	f000 854d 	beq.w	8005504 <_dtoa_r+0xb24>
 8004a6a:	9b23      	ldr	r3, [sp, #140]	@ 0x8c
 8004a6c:	f8df a254 	ldr.w	sl, [pc, #596]	@ 8004cc4 <_dtoa_r+0x2e4>
 8004a70:	2b00      	cmp	r3, #0
 8004a72:	f000 854f 	beq.w	8005514 <_dtoa_r+0xb34>
 8004a76:	f10a 0303 	add.w	r3, sl, #3
 8004a7a:	f000 bd49 	b.w	8005510 <_dtoa_r+0xb30>
 8004a7e:	ed9d 7b02 	vldr	d7, [sp, #8]
 8004a82:	2200      	movs	r2, #0
 8004a84:	ec51 0b17 	vmov	r0, r1, d7
 8004a88:	2300      	movs	r3, #0
 8004a8a:	ed8d 7b0c 	vstr	d7, [sp, #48]	@ 0x30
 8004a8e:	f7fc f83b 	bl	8000b08 <__aeabi_dcmpeq>
 8004a92:	4680      	mov	r8, r0
 8004a94:	b158      	cbz	r0, 8004aae <_dtoa_r+0xce>
 8004a96:	9a13      	ldr	r2, [sp, #76]	@ 0x4c
 8004a98:	2301      	movs	r3, #1
 8004a9a:	6013      	str	r3, [r2, #0]
 8004a9c:	9b23      	ldr	r3, [sp, #140]	@ 0x8c
 8004a9e:	b113      	cbz	r3, 8004aa6 <_dtoa_r+0xc6>
 8004aa0:	9a23      	ldr	r2, [sp, #140]	@ 0x8c
 8004aa2:	4b84      	ldr	r3, [pc, #528]	@ (8004cb4 <_dtoa_r+0x2d4>)
 8004aa4:	6013      	str	r3, [r2, #0]
 8004aa6:	f8df a220 	ldr.w	sl, [pc, #544]	@ 8004cc8 <_dtoa_r+0x2e8>
 8004aaa:	f000 bd33 	b.w	8005514 <_dtoa_r+0xb34>
 8004aae:	ed9d 0b0c 	vldr	d0, [sp, #48]	@ 0x30
 8004ab2:	aa16      	add	r2, sp, #88	@ 0x58
 8004ab4:	a917      	add	r1, sp, #92	@ 0x5c
 8004ab6:	4658      	mov	r0, fp
 8004ab8:	f001 f984 	bl	8005dc4 <__d2b>
 8004abc:	f3c7 560a 	ubfx	r6, r7, #20, #11
 8004ac0:	4681      	mov	r9, r0
 8004ac2:	2e00      	cmp	r6, #0
 8004ac4:	d077      	beq.n	8004bb6 <_dtoa_r+0x1d6>
 8004ac6:	9b0d      	ldr	r3, [sp, #52]	@ 0x34
 8004ac8:	f8cd 8050 	str.w	r8, [sp, #80]	@ 0x50
 8004acc:	f3c3 0313 	ubfx	r3, r3, #0, #20
 8004ad0:	e9dd 010c 	ldrd	r0, r1, [sp, #48]	@ 0x30
 8004ad4:	f043 537f 	orr.w	r3, r3, #1069547520	@ 0x3fc00000
 8004ad8:	f443 1340 	orr.w	r3, r3, #3145728	@ 0x300000
 8004adc:	f2a6 36ff 	subw	r6, r6, #1023	@ 0x3ff
 8004ae0:	4619      	mov	r1, r3
 8004ae2:	2200      	movs	r2, #0
 8004ae4:	4b74      	ldr	r3, [pc, #464]	@ (8004cb8 <_dtoa_r+0x2d8>)
 8004ae6:	f7fb fbef 	bl	80002c8 <__aeabi_dsub>
 8004aea:	a369      	add	r3, pc, #420	@ (adr r3, 8004c90 <_dtoa_r+0x2b0>)
 8004aec:	e9d3 2300 	ldrd	r2, r3, [r3]
 8004af0:	f7fb fda2 	bl	8000638 <__aeabi_dmul>
 8004af4:	a368      	add	r3, pc, #416	@ (adr r3, 8004c98 <_dtoa_r+0x2b8>)
 8004af6:	e9d3 2300 	ldrd	r2, r3, [r3]
 8004afa:	f7fb fbe7 	bl	80002cc <__adddf3>
 8004afe:	4604      	mov	r4, r0
 8004b00:	4630      	mov	r0, r6
 8004b02:	460d      	mov	r5, r1
 8004b04:	f7fb fd2e 	bl	8000564 <__aeabi_i2d>
 8004b08:	a365      	add	r3, pc, #404	@ (adr r3, 8004ca0 <_dtoa_r+0x2c0>)
 8004b0a:	e9d3 2300 	ldrd	r2, r3, [r3]
 8004b0e:	f7fb fd93 	bl	8000638 <__aeabi_dmul>
 8004b12:	4602      	mov	r2, r0
 8004b14:	460b      	mov	r3, r1
 8004b16:	4620      	mov	r0, r4
 8004b18:	4629      	mov	r1, r5
 8004b1a:	f7fb fbd7 	bl	80002cc <__adddf3>
 8004b1e:	4604      	mov	r4, r0
 8004b20:	460d      	mov	r5, r1
 8004b22:	f7fc f839 	bl	8000b98 <__aeabi_d2iz>
 8004b26:	2200      	movs	r2, #0
 8004b28:	4607      	mov	r7, r0
 8004b2a:	2300      	movs	r3, #0
 8004b2c:	4620      	mov	r0, r4
 8004b2e:	4629      	mov	r1, r5
 8004b30:	f7fb fff4 	bl	8000b1c <__aeabi_dcmplt>
 8004b34:	b140      	cbz	r0, 8004b48 <_dtoa_r+0x168>
 8004b36:	4638      	mov	r0, r7
 8004b38:	f7fb fd14 	bl	8000564 <__aeabi_i2d>
 8004b3c:	4622      	mov	r2, r4
 8004b3e:	462b      	mov	r3, r5
 8004b40:	f7fb ffe2 	bl	8000b08 <__aeabi_dcmpeq>
 8004b44:	b900      	cbnz	r0, 8004b48 <_dtoa_r+0x168>
 8004b46:	3f01      	subs	r7, #1
 8004b48:	2f16      	cmp	r7, #22
 8004b4a:	d851      	bhi.n	8004bf0 <_dtoa_r+0x210>
 8004b4c:	4b5b      	ldr	r3, [pc, #364]	@ (8004cbc <_dtoa_r+0x2dc>)
 8004b4e:	eb03 03c7 	add.w	r3, r3, r7, lsl #3
 8004b52:	e9d3 2300 	ldrd	r2, r3, [r3]
 8004b56:	e9dd 010c 	ldrd	r0, r1, [sp, #48]	@ 0x30
 8004b5a:	f7fb ffdf 	bl	8000b1c <__aeabi_dcmplt>
 8004b5e:	2800      	cmp	r0, #0
 8004b60:	d048      	beq.n	8004bf4 <_dtoa_r+0x214>
 8004b62:	3f01      	subs	r7, #1
 8004b64:	2300      	movs	r3, #0
 8004b66:	9312      	str	r3, [sp, #72]	@ 0x48
 8004b68:	9b16      	ldr	r3, [sp, #88]	@ 0x58
 8004b6a:	1b9b      	subs	r3, r3, r6
 8004b6c:	1e5a      	subs	r2, r3, #1
 8004b6e:	bf44      	itt	mi
 8004b70:	f1c3 0801 	rsbmi	r8, r3, #1
 8004b74:	2300      	movmi	r3, #0
 8004b76:	9208      	str	r2, [sp, #32]
 8004b78:	bf54      	ite	pl
 8004b7a:	f04f 0800 	movpl.w	r8, #0
 8004b7e:	9308      	strmi	r3, [sp, #32]
 8004b80:	2f00      	cmp	r7, #0
 8004b82:	db39      	blt.n	8004bf8 <_dtoa_r+0x218>
 8004b84:	9b08      	ldr	r3, [sp, #32]
 8004b86:	970f      	str	r7, [sp, #60]	@ 0x3c
 8004b88:	443b      	add	r3, r7
 8004b8a:	9308      	str	r3, [sp, #32]
 8004b8c:	2300      	movs	r3, #0
 8004b8e:	930a      	str	r3, [sp, #40]	@ 0x28
 8004b90:	9b09      	ldr	r3, [sp, #36]	@ 0x24
 8004b92:	2b09      	cmp	r3, #9
 8004b94:	d864      	bhi.n	8004c60 <_dtoa_r+0x280>
 8004b96:	2b05      	cmp	r3, #5
 8004b98:	bfc4      	itt	gt
 8004b9a:	3b04      	subgt	r3, #4
 8004b9c:	9309      	strgt	r3, [sp, #36]	@ 0x24
 8004b9e:	9b09      	ldr	r3, [sp, #36]	@ 0x24
 8004ba0:	f1a3 0302 	sub.w	r3, r3, #2
 8004ba4:	bfcc      	ite	gt
 8004ba6:	2400      	movgt	r4, #0
 8004ba8:	2401      	movle	r4, #1
 8004baa:	2b03      	cmp	r3, #3
 8004bac:	d863      	bhi.n	8004c76 <_dtoa_r+0x296>
 8004bae:	e8df f003 	tbb	[pc, r3]
 8004bb2:	372a      	.short	0x372a
 8004bb4:	5535      	.short	0x5535
 8004bb6:	e9dd 6316 	ldrd	r6, r3, [sp, #88]	@ 0x58
 8004bba:	441e      	add	r6, r3
 8004bbc:	f206 4332 	addw	r3, r6, #1074	@ 0x432
 8004bc0:	2b20      	cmp	r3, #32
 8004bc2:	bfc1      	itttt	gt
 8004bc4:	f1c3 0340 	rsbgt	r3, r3, #64	@ 0x40
 8004bc8:	409f      	lslgt	r7, r3
 8004bca:	f206 4312 	addwgt	r3, r6, #1042	@ 0x412
 8004bce:	fa24 f303 	lsrgt.w	r3, r4, r3
 8004bd2:	bfd6      	itet	le
 8004bd4:	f1c3 0320 	rsble	r3, r3, #32
 8004bd8:	ea47 0003 	orrgt.w	r0, r7, r3
 8004bdc:	fa04 f003 	lslle.w	r0, r4, r3
 8004be0:	f7fb fcb0 	bl	8000544 <__aeabi_ui2d>
 8004be4:	2201      	movs	r2, #1
 8004be6:	f1a1 73f8 	sub.w	r3, r1, #32505856	@ 0x1f00000
 8004bea:	3e01      	subs	r6, #1
 8004bec:	9214      	str	r2, [sp, #80]	@ 0x50
 8004bee:	e777      	b.n	8004ae0 <_dtoa_r+0x100>
 8004bf0:	2301      	movs	r3, #1
 8004bf2:	e7b8      	b.n	8004b66 <_dtoa_r+0x186>
 8004bf4:	9012      	str	r0, [sp, #72]	@ 0x48
 8004bf6:	e7b7      	b.n	8004b68 <_dtoa_r+0x188>
 8004bf8:	427b      	negs	r3, r7
 8004bfa:	930a      	str	r3, [sp, #40]	@ 0x28
 8004bfc:	2300      	movs	r3, #0
 8004bfe:	eba8 0807 	sub.w	r8, r8, r7
 8004c02:	930f      	str	r3, [sp, #60]	@ 0x3c
 8004c04:	e7c4      	b.n	8004b90 <_dtoa_r+0x1b0>
 8004c06:	2300      	movs	r3, #0
 8004c08:	930b      	str	r3, [sp, #44]	@ 0x2c
 8004c0a:	9b0e      	ldr	r3, [sp, #56]	@ 0x38
 8004c0c:	2b00      	cmp	r3, #0
 8004c0e:	dc35      	bgt.n	8004c7c <_dtoa_r+0x29c>
 8004c10:	2301      	movs	r3, #1
 8004c12:	9300      	str	r3, [sp, #0]
 8004c14:	9307      	str	r3, [sp, #28]
 8004c16:	461a      	mov	r2, r3
 8004c18:	920e      	str	r2, [sp, #56]	@ 0x38
 8004c1a:	e00b      	b.n	8004c34 <_dtoa_r+0x254>
 8004c1c:	2301      	movs	r3, #1
 8004c1e:	e7f3      	b.n	8004c08 <_dtoa_r+0x228>
 8004c20:	2300      	movs	r3, #0
 8004c22:	930b      	str	r3, [sp, #44]	@ 0x2c
 8004c24:	9b0e      	ldr	r3, [sp, #56]	@ 0x38
 8004c26:	18fb      	adds	r3, r7, r3
 8004c28:	9300      	str	r3, [sp, #0]
 8004c2a:	3301      	adds	r3, #1
 8004c2c:	2b01      	cmp	r3, #1
 8004c2e:	9307      	str	r3, [sp, #28]
 8004c30:	bfb8      	it	lt
 8004c32:	2301      	movlt	r3, #1
 8004c34:	f8db 001c 	ldr.w	r0, [fp, #28]
 8004c38:	2100      	movs	r1, #0
 8004c3a:	2204      	movs	r2, #4
 8004c3c:	f102 0514 	add.w	r5, r2, #20
 8004c40:	429d      	cmp	r5, r3
 8004c42:	d91f      	bls.n	8004c84 <_dtoa_r+0x2a4>
 8004c44:	6041      	str	r1, [r0, #4]
 8004c46:	4658      	mov	r0, fp
 8004c48:	f000 fcd8 	bl	80055fc <_Balloc>
 8004c4c:	4682      	mov	sl, r0
 8004c4e:	2800      	cmp	r0, #0
 8004c50:	d13c      	bne.n	8004ccc <_dtoa_r+0x2ec>
 8004c52:	4b1b      	ldr	r3, [pc, #108]	@ (8004cc0 <_dtoa_r+0x2e0>)
 8004c54:	4602      	mov	r2, r0
 8004c56:	f240 11af 	movw	r1, #431	@ 0x1af
 8004c5a:	e6d8      	b.n	8004a0e <_dtoa_r+0x2e>
 8004c5c:	2301      	movs	r3, #1
 8004c5e:	e7e0      	b.n	8004c22 <_dtoa_r+0x242>
 8004c60:	2401      	movs	r4, #1
 8004c62:	2300      	movs	r3, #0
 8004c64:	9309      	str	r3, [sp, #36]	@ 0x24
 8004c66:	940b      	str	r4, [sp, #44]	@ 0x2c
 8004c68:	f04f 33ff 	mov.w	r3, #4294967295
 8004c6c:	9300      	str	r3, [sp, #0]
 8004c6e:	9307      	str	r3, [sp, #28]
 8004c70:	2200      	movs	r2, #0
 8004c72:	2312      	movs	r3, #18
 8004c74:	e7d0      	b.n	8004c18 <_dtoa_r+0x238>
 8004c76:	2301      	movs	r3, #1
 8004c78:	930b      	str	r3, [sp, #44]	@ 0x2c
 8004c7a:	e7f5      	b.n	8004c68 <_dtoa_r+0x288>
 8004c7c:	9b0e      	ldr	r3, [sp, #56]	@ 0x38
 8004c7e:	9300      	str	r3, [sp, #0]
 8004c80:	9307      	str	r3, [sp, #28]
 8004c82:	e7d7      	b.n	8004c34 <_dtoa_r+0x254>
 8004c84:	3101      	adds	r1, #1
 8004c86:	0052      	lsls	r2, r2, #1
 8004c88:	e7d8      	b.n	8004c3c <_dtoa_r+0x25c>
 8004c8a:	bf00      	nop
 8004c8c:	f3af 8000 	nop.w
 8004c90:	636f4361 	.word	0x636f4361
 8004c94:	3fd287a7 	.word	0x3fd287a7
 8004c98:	8b60c8b3 	.word	0x8b60c8b3
 8004c9c:	3fc68a28 	.word	0x3fc68a28
 8004ca0:	509f79fb 	.word	0x509f79fb
 8004ca4:	3fd34413 	.word	0x3fd34413
 8004ca8:	0800817f 	.word	0x0800817f
 8004cac:	08008196 	.word	0x08008196
 8004cb0:	7ff00000 	.word	0x7ff00000
 8004cb4:	0800814a 	.word	0x0800814a
 8004cb8:	3ff80000 	.word	0x3ff80000
 8004cbc:	08008290 	.word	0x08008290
 8004cc0:	080081ee 	.word	0x080081ee
 8004cc4:	0800817b 	.word	0x0800817b
 8004cc8:	08008149 	.word	0x08008149
 8004ccc:	f8db 301c 	ldr.w	r3, [fp, #28]
 8004cd0:	6018      	str	r0, [r3, #0]
 8004cd2:	9b07      	ldr	r3, [sp, #28]
 8004cd4:	2b0e      	cmp	r3, #14
 8004cd6:	f200 80a4 	bhi.w	8004e22 <_dtoa_r+0x442>
 8004cda:	2c00      	cmp	r4, #0
 8004cdc:	f000 80a1 	beq.w	8004e22 <_dtoa_r+0x442>
 8004ce0:	2f00      	cmp	r7, #0
 8004ce2:	dd33      	ble.n	8004d4c <_dtoa_r+0x36c>
 8004ce4:	4bad      	ldr	r3, [pc, #692]	@ (8004f9c <_dtoa_r+0x5bc>)
 8004ce6:	f007 020f 	and.w	r2, r7, #15
 8004cea:	eb03 03c2 	add.w	r3, r3, r2, lsl #3
 8004cee:	ed93 7b00 	vldr	d7, [r3]
 8004cf2:	05f8      	lsls	r0, r7, #23
 8004cf4:	ed8d 7b04 	vstr	d7, [sp, #16]
 8004cf8:	ea4f 1427 	mov.w	r4, r7, asr #4
 8004cfc:	d516      	bpl.n	8004d2c <_dtoa_r+0x34c>
 8004cfe:	4ba8      	ldr	r3, [pc, #672]	@ (8004fa0 <_dtoa_r+0x5c0>)
 8004d00:	e9dd 010c 	ldrd	r0, r1, [sp, #48]	@ 0x30
 8004d04:	e9d3 2308 	ldrd	r2, r3, [r3, #32]
 8004d08:	f7fb fdc0 	bl	800088c <__aeabi_ddiv>
 8004d0c:	e9cd 0102 	strd	r0, r1, [sp, #8]
 8004d10:	f004 040f 	and.w	r4, r4, #15
 8004d14:	2603      	movs	r6, #3
 8004d16:	4da2      	ldr	r5, [pc, #648]	@ (8004fa0 <_dtoa_r+0x5c0>)
 8004d18:	b954      	cbnz	r4, 8004d30 <_dtoa_r+0x350>
 8004d1a:	e9dd 2304 	ldrd	r2, r3, [sp, #16]
 8004d1e:	e9dd 0102 	ldrd	r0, r1, [sp, #8]
 8004d22:	f7fb fdb3 	bl	800088c <__aeabi_ddiv>
 8004d26:	e9cd 0102 	strd	r0, r1, [sp, #8]
 8004d2a:	e028      	b.n	8004d7e <_dtoa_r+0x39e>
 8004d2c:	2602      	movs	r6, #2
 8004d2e:	e7f2      	b.n	8004d16 <_dtoa_r+0x336>
 8004d30:	07e1      	lsls	r1, r4, #31
 8004d32:	d508      	bpl.n	8004d46 <_dtoa_r+0x366>
 8004d34:	e9dd 0104 	ldrd	r0, r1, [sp, #16]
 8004d38:	e9d5 2300 	ldrd	r2, r3, [r5]
 8004d3c:	f7fb fc7c 	bl	8000638 <__aeabi_dmul>
 8004d40:	e9cd 0104 	strd	r0, r1, [sp, #16]
 8004d44:	3601      	adds	r6, #1
 8004d46:	1064      	asrs	r4, r4, #1
 8004d48:	3508      	adds	r5, #8
 8004d4a:	e7e5      	b.n	8004d18 <_dtoa_r+0x338>
 8004d4c:	f000 80d2 	beq.w	8004ef4 <_dtoa_r+0x514>
 8004d50:	427c      	negs	r4, r7
 8004d52:	4b92      	ldr	r3, [pc, #584]	@ (8004f9c <_dtoa_r+0x5bc>)
 8004d54:	4d92      	ldr	r5, [pc, #584]	@ (8004fa0 <_dtoa_r+0x5c0>)
 8004d56:	f004 020f 	and.w	r2, r4, #15
 8004d5a:	eb03 03c2 	add.w	r3, r3, r2, lsl #3
 8004d5e:	e9d3 2300 	ldrd	r2, r3, [r3]
 8004d62:	e9dd 010c 	ldrd	r0, r1, [sp, #48]	@ 0x30
 8004d66:	f7fb fc67 	bl	8000638 <__aeabi_dmul>
 8004d6a:	e9cd 0102 	strd	r0, r1, [sp, #8]
 8004d6e:	1124      	asrs	r4, r4, #4
 8004d70:	2300      	movs	r3, #0
 8004d72:	2602      	movs	r6, #2
 8004d74:	2c00      	cmp	r4, #0
 8004d76:	f040 80b2 	bne.w	8004ede <_dtoa_r+0x4fe>
 8004d7a:	2b00      	cmp	r3, #0
 8004d7c:	d1d3      	bne.n	8004d26 <_dtoa_r+0x346>
 8004d7e:	9b12      	ldr	r3, [sp, #72]	@ 0x48
 8004d80:	e9dd 4502 	ldrd	r4, r5, [sp, #8]
 8004d84:	2b00      	cmp	r3, #0
 8004d86:	f000 80b7 	beq.w	8004ef8 <_dtoa_r+0x518>
 8004d8a:	4b86      	ldr	r3, [pc, #536]	@ (8004fa4 <_dtoa_r+0x5c4>)
 8004d8c:	2200      	movs	r2, #0
 8004d8e:	4620      	mov	r0, r4
 8004d90:	4629      	mov	r1, r5
 8004d92:	f7fb fec3 	bl	8000b1c <__aeabi_dcmplt>
 8004d96:	2800      	cmp	r0, #0
 8004d98:	f000 80ae 	beq.w	8004ef8 <_dtoa_r+0x518>
 8004d9c:	9b07      	ldr	r3, [sp, #28]
 8004d9e:	2b00      	cmp	r3, #0
 8004da0:	f000 80aa 	beq.w	8004ef8 <_dtoa_r+0x518>
 8004da4:	9b00      	ldr	r3, [sp, #0]
 8004da6:	2b00      	cmp	r3, #0
 8004da8:	dd37      	ble.n	8004e1a <_dtoa_r+0x43a>
 8004daa:	1e7b      	subs	r3, r7, #1
 8004dac:	9304      	str	r3, [sp, #16]
 8004dae:	4620      	mov	r0, r4
 8004db0:	4b7d      	ldr	r3, [pc, #500]	@ (8004fa8 <_dtoa_r+0x5c8>)
 8004db2:	2200      	movs	r2, #0
 8004db4:	4629      	mov	r1, r5
 8004db6:	f7fb fc3f 	bl	8000638 <__aeabi_dmul>
 8004dba:	e9cd 0102 	strd	r0, r1, [sp, #8]
 8004dbe:	9c00      	ldr	r4, [sp, #0]
 8004dc0:	3601      	adds	r6, #1
 8004dc2:	4630      	mov	r0, r6
 8004dc4:	f7fb fbce 	bl	8000564 <__aeabi_i2d>
 8004dc8:	e9dd 2302 	ldrd	r2, r3, [sp, #8]
 8004dcc:	f7fb fc34 	bl	8000638 <__aeabi_dmul>
 8004dd0:	4b76      	ldr	r3, [pc, #472]	@ (8004fac <_dtoa_r+0x5cc>)
 8004dd2:	2200      	movs	r2, #0
 8004dd4:	f7fb fa7a 	bl	80002cc <__adddf3>
 8004dd8:	4605      	mov	r5, r0
 8004dda:	f1a1 7650 	sub.w	r6, r1, #54525952	@ 0x3400000
 8004dde:	2c00      	cmp	r4, #0
 8004de0:	f040 808d 	bne.w	8004efe <_dtoa_r+0x51e>
 8004de4:	e9dd 0102 	ldrd	r0, r1, [sp, #8]
 8004de8:	4b71      	ldr	r3, [pc, #452]	@ (8004fb0 <_dtoa_r+0x5d0>)
 8004dea:	2200      	movs	r2, #0
 8004dec:	f7fb fa6c 	bl	80002c8 <__aeabi_dsub>
 8004df0:	4602      	mov	r2, r0
 8004df2:	460b      	mov	r3, r1
 8004df4:	e9cd 2302 	strd	r2, r3, [sp, #8]
 8004df8:	462a      	mov	r2, r5
 8004dfa:	4633      	mov	r3, r6
 8004dfc:	f7fb feac 	bl	8000b58 <__aeabi_dcmpgt>
 8004e00:	2800      	cmp	r0, #0
 8004e02:	f040 828b 	bne.w	800531c <_dtoa_r+0x93c>
 8004e06:	e9dd 0102 	ldrd	r0, r1, [sp, #8]
 8004e0a:	462a      	mov	r2, r5
 8004e0c:	f106 4300 	add.w	r3, r6, #2147483648	@ 0x80000000
 8004e10:	f7fb fe84 	bl	8000b1c <__aeabi_dcmplt>
 8004e14:	2800      	cmp	r0, #0
 8004e16:	f040 8128 	bne.w	800506a <_dtoa_r+0x68a>
 8004e1a:	e9dd 340c 	ldrd	r3, r4, [sp, #48]	@ 0x30
 8004e1e:	e9cd 3402 	strd	r3, r4, [sp, #8]
 8004e22:	9b17      	ldr	r3, [sp, #92]	@ 0x5c
 8004e24:	2b00      	cmp	r3, #0
 8004e26:	f2c0 815a 	blt.w	80050de <_dtoa_r+0x6fe>
 8004e2a:	2f0e      	cmp	r7, #14
 8004e2c:	f300 8157 	bgt.w	80050de <_dtoa_r+0x6fe>
 8004e30:	4b5a      	ldr	r3, [pc, #360]	@ (8004f9c <_dtoa_r+0x5bc>)
 8004e32:	eb03 03c7 	add.w	r3, r3, r7, lsl #3
 8004e36:	ed93 7b00 	vldr	d7, [r3]
 8004e3a:	9b0e      	ldr	r3, [sp, #56]	@ 0x38
 8004e3c:	2b00      	cmp	r3, #0
 8004e3e:	ed8d 7b00 	vstr	d7, [sp]
 8004e42:	da03      	bge.n	8004e4c <_dtoa_r+0x46c>
 8004e44:	9b07      	ldr	r3, [sp, #28]
 8004e46:	2b00      	cmp	r3, #0
 8004e48:	f340 8101 	ble.w	800504e <_dtoa_r+0x66e>
 8004e4c:	e9dd 4502 	ldrd	r4, r5, [sp, #8]
 8004e50:	4656      	mov	r6, sl
 8004e52:	e9dd 2300 	ldrd	r2, r3, [sp]
 8004e56:	4620      	mov	r0, r4
 8004e58:	4629      	mov	r1, r5
 8004e5a:	f7fb fd17 	bl	800088c <__aeabi_ddiv>
 8004e5e:	f7fb fe9b 	bl	8000b98 <__aeabi_d2iz>
 8004e62:	4680      	mov	r8, r0
 8004e64:	f7fb fb7e 	bl	8000564 <__aeabi_i2d>
 8004e68:	e9dd 2300 	ldrd	r2, r3, [sp]
 8004e6c:	f7fb fbe4 	bl	8000638 <__aeabi_dmul>
 8004e70:	4602      	mov	r2, r0
 8004e72:	460b      	mov	r3, r1
 8004e74:	4620      	mov	r0, r4
 8004e76:	4629      	mov	r1, r5
 8004e78:	f108 0430 	add.w	r4, r8, #48	@ 0x30
 8004e7c:	f7fb fa24 	bl	80002c8 <__aeabi_dsub>
 8004e80:	f806 4b01 	strb.w	r4, [r6], #1
 8004e84:	9d07      	ldr	r5, [sp, #28]
 8004e86:	eba6 040a 	sub.w	r4, r6, sl
 8004e8a:	42a5      	cmp	r5, r4
 8004e8c:	4602      	mov	r2, r0
 8004e8e:	460b      	mov	r3, r1
 8004e90:	f040 8117 	bne.w	80050c2 <_dtoa_r+0x6e2>
 8004e94:	f7fb fa1a 	bl	80002cc <__adddf3>
 8004e98:	e9dd 2300 	ldrd	r2, r3, [sp]
 8004e9c:	4604      	mov	r4, r0
 8004e9e:	460d      	mov	r5, r1
 8004ea0:	f7fb fe5a 	bl	8000b58 <__aeabi_dcmpgt>
 8004ea4:	2800      	cmp	r0, #0
 8004ea6:	f040 80f9 	bne.w	800509c <_dtoa_r+0x6bc>
 8004eaa:	e9dd 2300 	ldrd	r2, r3, [sp]
 8004eae:	4620      	mov	r0, r4
 8004eb0:	4629      	mov	r1, r5
 8004eb2:	f7fb fe29 	bl	8000b08 <__aeabi_dcmpeq>
 8004eb6:	b118      	cbz	r0, 8004ec0 <_dtoa_r+0x4e0>
 8004eb8:	f018 0f01 	tst.w	r8, #1
 8004ebc:	f040 80ee 	bne.w	800509c <_dtoa_r+0x6bc>
 8004ec0:	4649      	mov	r1, r9
 8004ec2:	4658      	mov	r0, fp
 8004ec4:	f000 fbda 	bl	800567c <_Bfree>
 8004ec8:	2300      	movs	r3, #0
 8004eca:	7033      	strb	r3, [r6, #0]
 8004ecc:	9b13      	ldr	r3, [sp, #76]	@ 0x4c
 8004ece:	3701      	adds	r7, #1
 8004ed0:	601f      	str	r7, [r3, #0]
 8004ed2:	9b23      	ldr	r3, [sp, #140]	@ 0x8c
 8004ed4:	2b00      	cmp	r3, #0
 8004ed6:	f000 831d 	beq.w	8005514 <_dtoa_r+0xb34>
 8004eda:	601e      	str	r6, [r3, #0]
 8004edc:	e31a      	b.n	8005514 <_dtoa_r+0xb34>
 8004ede:	07e2      	lsls	r2, r4, #31
 8004ee0:	d505      	bpl.n	8004eee <_dtoa_r+0x50e>
 8004ee2:	e9d5 2300 	ldrd	r2, r3, [r5]
 8004ee6:	f7fb fba7 	bl	8000638 <__aeabi_dmul>
 8004eea:	3601      	adds	r6, #1
 8004eec:	2301      	movs	r3, #1
 8004eee:	1064      	asrs	r4, r4, #1
 8004ef0:	3508      	adds	r5, #8
 8004ef2:	e73f      	b.n	8004d74 <_dtoa_r+0x394>
 8004ef4:	2602      	movs	r6, #2
 8004ef6:	e742      	b.n	8004d7e <_dtoa_r+0x39e>
 8004ef8:	9c07      	ldr	r4, [sp, #28]
 8004efa:	9704      	str	r7, [sp, #16]
 8004efc:	e761      	b.n	8004dc2 <_dtoa_r+0x3e2>
 8004efe:	4b27      	ldr	r3, [pc, #156]	@ (8004f9c <_dtoa_r+0x5bc>)
 8004f00:	990b      	ldr	r1, [sp, #44]	@ 0x2c
 8004f02:	eb03 03c4 	add.w	r3, r3, r4, lsl #3
 8004f06:	e953 2302 	ldrd	r2, r3, [r3, #-8]
 8004f0a:	4454      	add	r4, sl
 8004f0c:	2900      	cmp	r1, #0
 8004f0e:	d053      	beq.n	8004fb8 <_dtoa_r+0x5d8>
 8004f10:	4928      	ldr	r1, [pc, #160]	@ (8004fb4 <_dtoa_r+0x5d4>)
 8004f12:	2000      	movs	r0, #0
 8004f14:	f7fb fcba 	bl	800088c <__aeabi_ddiv>
 8004f18:	4633      	mov	r3, r6
 8004f1a:	462a      	mov	r2, r5
 8004f1c:	f7fb f9d4 	bl	80002c8 <__aeabi_dsub>
 8004f20:	e9cd 0110 	strd	r0, r1, [sp, #64]	@ 0x40
 8004f24:	4656      	mov	r6, sl
 8004f26:	e9dd 0102 	ldrd	r0, r1, [sp, #8]
 8004f2a:	f7fb fe35 	bl	8000b98 <__aeabi_d2iz>
 8004f2e:	4605      	mov	r5, r0
 8004f30:	f7fb fb18 	bl	8000564 <__aeabi_i2d>
 8004f34:	4602      	mov	r2, r0
 8004f36:	460b      	mov	r3, r1
 8004f38:	e9dd 0102 	ldrd	r0, r1, [sp, #8]
 8004f3c:	f7fb f9c4 	bl	80002c8 <__aeabi_dsub>
 8004f40:	3530      	adds	r5, #48	@ 0x30
 8004f42:	4602      	mov	r2, r0
 8004f44:	460b      	mov	r3, r1
 8004f46:	e9cd 2302 	strd	r2, r3, [sp, #8]
 8004f4a:	f806 5b01 	strb.w	r5, [r6], #1
 8004f4e:	e9dd 2310 	ldrd	r2, r3, [sp, #64]	@ 0x40
 8004f52:	f7fb fde3 	bl	8000b1c <__aeabi_dcmplt>
 8004f56:	2800      	cmp	r0, #0
 8004f58:	d171      	bne.n	800503e <_dtoa_r+0x65e>
 8004f5a:	e9dd 2302 	ldrd	r2, r3, [sp, #8]
 8004f5e:	4911      	ldr	r1, [pc, #68]	@ (8004fa4 <_dtoa_r+0x5c4>)
 8004f60:	2000      	movs	r0, #0
 8004f62:	f7fb f9b1 	bl	80002c8 <__aeabi_dsub>
 8004f66:	e9dd 2310 	ldrd	r2, r3, [sp, #64]	@ 0x40
 8004f6a:	f7fb fdd7 	bl	8000b1c <__aeabi_dcmplt>
 8004f6e:	2800      	cmp	r0, #0
 8004f70:	f040 8095 	bne.w	800509e <_dtoa_r+0x6be>
 8004f74:	42a6      	cmp	r6, r4
 8004f76:	f43f af50 	beq.w	8004e1a <_dtoa_r+0x43a>
 8004f7a:	e9dd 0110 	ldrd	r0, r1, [sp, #64]	@ 0x40
 8004f7e:	4b0a      	ldr	r3, [pc, #40]	@ (8004fa8 <_dtoa_r+0x5c8>)
 8004f80:	2200      	movs	r2, #0
 8004f82:	f7fb fb59 	bl	8000638 <__aeabi_dmul>
 8004f86:	4b08      	ldr	r3, [pc, #32]	@ (8004fa8 <_dtoa_r+0x5c8>)
 8004f88:	e9cd 0110 	strd	r0, r1, [sp, #64]	@ 0x40
 8004f8c:	2200      	movs	r2, #0
 8004f8e:	e9dd 0102 	ldrd	r0, r1, [sp, #8]
 8004f92:	f7fb fb51 	bl	8000638 <__aeabi_dmul>
 8004f96:	e9cd 0102 	strd	r0, r1, [sp, #8]
 8004f9a:	e7c4      	b.n	8004f26 <_dtoa_r+0x546>
 8004f9c:	08008290 	.word	0x08008290
 8004fa0:	08008268 	.word	0x08008268
 8004fa4:	3ff00000 	.word	0x3ff00000
 8004fa8:	40240000 	.word	0x40240000
 8004fac:	401c0000 	.word	0x401c0000
 8004fb0:	40140000 	.word	0x40140000
 8004fb4:	3fe00000 	.word	0x3fe00000
 8004fb8:	4631      	mov	r1, r6
 8004fba:	4628      	mov	r0, r5
 8004fbc:	f7fb fb3c 	bl	8000638 <__aeabi_dmul>
 8004fc0:	e9cd 0110 	strd	r0, r1, [sp, #64]	@ 0x40
 8004fc4:	9415      	str	r4, [sp, #84]	@ 0x54
 8004fc6:	4656      	mov	r6, sl
 8004fc8:	e9dd 0102 	ldrd	r0, r1, [sp, #8]
 8004fcc:	f7fb fde4 	bl	8000b98 <__aeabi_d2iz>
 8004fd0:	4605      	mov	r5, r0
 8004fd2:	f7fb fac7 	bl	8000564 <__aeabi_i2d>
 8004fd6:	4602      	mov	r2, r0
 8004fd8:	460b      	mov	r3, r1
 8004fda:	e9dd 0102 	ldrd	r0, r1, [sp, #8]
 8004fde:	f7fb f973 	bl	80002c8 <__aeabi_dsub>
 8004fe2:	3530      	adds	r5, #48	@ 0x30
 8004fe4:	f806 5b01 	strb.w	r5, [r6], #1
 8004fe8:	4602      	mov	r2, r0
 8004fea:	460b      	mov	r3, r1
 8004fec:	42a6      	cmp	r6, r4
 8004fee:	e9cd 2302 	strd	r2, r3, [sp, #8]
 8004ff2:	f04f 0200 	mov.w	r2, #0
 8004ff6:	d124      	bne.n	8005042 <_dtoa_r+0x662>
 8004ff8:	4bac      	ldr	r3, [pc, #688]	@ (80052ac <_dtoa_r+0x8cc>)
 8004ffa:	e9dd 0110 	ldrd	r0, r1, [sp, #64]	@ 0x40
 8004ffe:	f7fb f965 	bl	80002cc <__adddf3>
 8005002:	4602      	mov	r2, r0
 8005004:	460b      	mov	r3, r1
 8005006:	e9dd 0102 	ldrd	r0, r1, [sp, #8]
 800500a:	f7fb fda5 	bl	8000b58 <__aeabi_dcmpgt>
 800500e:	2800      	cmp	r0, #0
 8005010:	d145      	bne.n	800509e <_dtoa_r+0x6be>
 8005012:	e9dd 2310 	ldrd	r2, r3, [sp, #64]	@ 0x40
 8005016:	49a5      	ldr	r1, [pc, #660]	@ (80052ac <_dtoa_r+0x8cc>)
 8005018:	2000      	movs	r0, #0
 800501a:	f7fb f955 	bl	80002c8 <__aeabi_dsub>
 800501e:	4602      	mov	r2, r0
 8005020:	460b      	mov	r3, r1
 8005022:	e9dd 0102 	ldrd	r0, r1, [sp, #8]
 8005026:	f7fb fd79 	bl	8000b1c <__aeabi_dcmplt>
 800502a:	2800      	cmp	r0, #0
 800502c:	f43f aef5 	beq.w	8004e1a <_dtoa_r+0x43a>
 8005030:	9e15      	ldr	r6, [sp, #84]	@ 0x54
 8005032:	1e73      	subs	r3, r6, #1
 8005034:	9315      	str	r3, [sp, #84]	@ 0x54
 8005036:	f816 3c01 	ldrb.w	r3, [r6, #-1]
 800503a:	2b30      	cmp	r3, #48	@ 0x30
 800503c:	d0f8      	beq.n	8005030 <_dtoa_r+0x650>
 800503e:	9f04      	ldr	r7, [sp, #16]
 8005040:	e73e      	b.n	8004ec0 <_dtoa_r+0x4e0>
 8005042:	4b9b      	ldr	r3, [pc, #620]	@ (80052b0 <_dtoa_r+0x8d0>)
 8005044:	f7fb faf8 	bl	8000638 <__aeabi_dmul>
 8005048:	e9cd 0102 	strd	r0, r1, [sp, #8]
 800504c:	e7bc      	b.n	8004fc8 <_dtoa_r+0x5e8>
 800504e:	d10c      	bne.n	800506a <_dtoa_r+0x68a>
 8005050:	4b98      	ldr	r3, [pc, #608]	@ (80052b4 <_dtoa_r+0x8d4>)
 8005052:	2200      	movs	r2, #0
 8005054:	e9dd 0100 	ldrd	r0, r1, [sp]
 8005058:	f7fb faee 	bl	8000638 <__aeabi_dmul>
 800505c:	e9dd 2302 	ldrd	r2, r3, [sp, #8]
 8005060:	f7fb fd70 	bl	8000b44 <__aeabi_dcmpge>
 8005064:	2800      	cmp	r0, #0
 8005066:	f000 8157 	beq.w	8005318 <_dtoa_r+0x938>
 800506a:	2400      	movs	r4, #0
 800506c:	4625      	mov	r5, r4
 800506e:	9b0e      	ldr	r3, [sp, #56]	@ 0x38
 8005070:	43db      	mvns	r3, r3
 8005072:	9304      	str	r3, [sp, #16]
 8005074:	4656      	mov	r6, sl
 8005076:	2700      	movs	r7, #0
 8005078:	4621      	mov	r1, r4
 800507a:	4658      	mov	r0, fp
 800507c:	f000 fafe 	bl	800567c <_Bfree>
 8005080:	2d00      	cmp	r5, #0
 8005082:	d0dc      	beq.n	800503e <_dtoa_r+0x65e>
 8005084:	b12f      	cbz	r7, 8005092 <_dtoa_r+0x6b2>
 8005086:	42af      	cmp	r7, r5
 8005088:	d003      	beq.n	8005092 <_dtoa_r+0x6b2>
 800508a:	4639      	mov	r1, r7
 800508c:	4658      	mov	r0, fp
 800508e:	f000 faf5 	bl	800567c <_Bfree>
 8005092:	4629      	mov	r1, r5
 8005094:	4658      	mov	r0, fp
 8005096:	f000 faf1 	bl	800567c <_Bfree>
 800509a:	e7d0      	b.n	800503e <_dtoa_r+0x65e>
 800509c:	9704      	str	r7, [sp, #16]
 800509e:	4633      	mov	r3, r6
 80050a0:	461e      	mov	r6, r3
 80050a2:	f813 2d01 	ldrb.w	r2, [r3, #-1]!
 80050a6:	2a39      	cmp	r2, #57	@ 0x39
 80050a8:	d107      	bne.n	80050ba <_dtoa_r+0x6da>
 80050aa:	459a      	cmp	sl, r3
 80050ac:	d1f8      	bne.n	80050a0 <_dtoa_r+0x6c0>
 80050ae:	9a04      	ldr	r2, [sp, #16]
 80050b0:	3201      	adds	r2, #1
 80050b2:	9204      	str	r2, [sp, #16]
 80050b4:	2230      	movs	r2, #48	@ 0x30
 80050b6:	f88a 2000 	strb.w	r2, [sl]
 80050ba:	781a      	ldrb	r2, [r3, #0]
 80050bc:	3201      	adds	r2, #1
 80050be:	701a      	strb	r2, [r3, #0]
 80050c0:	e7bd      	b.n	800503e <_dtoa_r+0x65e>
 80050c2:	4b7b      	ldr	r3, [pc, #492]	@ (80052b0 <_dtoa_r+0x8d0>)
 80050c4:	2200      	movs	r2, #0
 80050c6:	f7fb fab7 	bl	8000638 <__aeabi_dmul>
 80050ca:	2200      	movs	r2, #0
 80050cc:	2300      	movs	r3, #0
 80050ce:	4604      	mov	r4, r0
 80050d0:	460d      	mov	r5, r1
 80050d2:	f7fb fd19 	bl	8000b08 <__aeabi_dcmpeq>
 80050d6:	2800      	cmp	r0, #0
 80050d8:	f43f aebb 	beq.w	8004e52 <_dtoa_r+0x472>
 80050dc:	e6f0      	b.n	8004ec0 <_dtoa_r+0x4e0>
 80050de:	9a0b      	ldr	r2, [sp, #44]	@ 0x2c
 80050e0:	2a00      	cmp	r2, #0
 80050e2:	f000 80db 	beq.w	800529c <_dtoa_r+0x8bc>
 80050e6:	9a09      	ldr	r2, [sp, #36]	@ 0x24
 80050e8:	2a01      	cmp	r2, #1
 80050ea:	f300 80bf 	bgt.w	800526c <_dtoa_r+0x88c>
 80050ee:	9a14      	ldr	r2, [sp, #80]	@ 0x50
 80050f0:	2a00      	cmp	r2, #0
 80050f2:	f000 80b7 	beq.w	8005264 <_dtoa_r+0x884>
 80050f6:	f203 4333 	addw	r3, r3, #1075	@ 0x433
 80050fa:	9c0a      	ldr	r4, [sp, #40]	@ 0x28
 80050fc:	4646      	mov	r6, r8
 80050fe:	9a08      	ldr	r2, [sp, #32]
 8005100:	2101      	movs	r1, #1
 8005102:	441a      	add	r2, r3
 8005104:	4658      	mov	r0, fp
 8005106:	4498      	add	r8, r3
 8005108:	9208      	str	r2, [sp, #32]
 800510a:	f000 fbb5 	bl	8005878 <__i2b>
 800510e:	4605      	mov	r5, r0
 8005110:	b15e      	cbz	r6, 800512a <_dtoa_r+0x74a>
 8005112:	9b08      	ldr	r3, [sp, #32]
 8005114:	2b00      	cmp	r3, #0
 8005116:	dd08      	ble.n	800512a <_dtoa_r+0x74a>
 8005118:	42b3      	cmp	r3, r6
 800511a:	9a08      	ldr	r2, [sp, #32]
 800511c:	bfa8      	it	ge
 800511e:	4633      	movge	r3, r6
 8005120:	eba8 0803 	sub.w	r8, r8, r3
 8005124:	1af6      	subs	r6, r6, r3
 8005126:	1ad3      	subs	r3, r2, r3
 8005128:	9308      	str	r3, [sp, #32]
 800512a:	9b0a      	ldr	r3, [sp, #40]	@ 0x28
 800512c:	b1f3      	cbz	r3, 800516c <_dtoa_r+0x78c>
 800512e:	9b0b      	ldr	r3, [sp, #44]	@ 0x2c
 8005130:	2b00      	cmp	r3, #0
 8005132:	f000 80b7 	beq.w	80052a4 <_dtoa_r+0x8c4>
 8005136:	b18c      	cbz	r4, 800515c <_dtoa_r+0x77c>
 8005138:	4629      	mov	r1, r5
 800513a:	4622      	mov	r2, r4
 800513c:	4658      	mov	r0, fp
 800513e:	f000 fc5b 	bl	80059f8 <__pow5mult>
 8005142:	464a      	mov	r2, r9
 8005144:	4601      	mov	r1, r0
 8005146:	4605      	mov	r5, r0
 8005148:	4658      	mov	r0, fp
 800514a:	f000 fbab 	bl	80058a4 <__multiply>
 800514e:	4649      	mov	r1, r9
 8005150:	9004      	str	r0, [sp, #16]
 8005152:	4658      	mov	r0, fp
 8005154:	f000 fa92 	bl	800567c <_Bfree>
 8005158:	9b04      	ldr	r3, [sp, #16]
 800515a:	4699      	mov	r9, r3
 800515c:	9b0a      	ldr	r3, [sp, #40]	@ 0x28
 800515e:	1b1a      	subs	r2, r3, r4
 8005160:	d004      	beq.n	800516c <_dtoa_r+0x78c>
 8005162:	4649      	mov	r1, r9
 8005164:	4658      	mov	r0, fp
 8005166:	f000 fc47 	bl	80059f8 <__pow5mult>
 800516a:	4681      	mov	r9, r0
 800516c:	2101      	movs	r1, #1
 800516e:	4658      	mov	r0, fp
 8005170:	f000 fb82 	bl	8005878 <__i2b>
 8005174:	9b0f      	ldr	r3, [sp, #60]	@ 0x3c
 8005176:	4604      	mov	r4, r0
 8005178:	2b00      	cmp	r3, #0
 800517a:	f000 81cf 	beq.w	800551c <_dtoa_r+0xb3c>
 800517e:	461a      	mov	r2, r3
 8005180:	4601      	mov	r1, r0
 8005182:	4658      	mov	r0, fp
 8005184:	f000 fc38 	bl	80059f8 <__pow5mult>
 8005188:	9b09      	ldr	r3, [sp, #36]	@ 0x24
 800518a:	2b01      	cmp	r3, #1
 800518c:	4604      	mov	r4, r0
 800518e:	f300 8095 	bgt.w	80052bc <_dtoa_r+0x8dc>
 8005192:	9b02      	ldr	r3, [sp, #8]
 8005194:	2b00      	cmp	r3, #0
 8005196:	f040 8087 	bne.w	80052a8 <_dtoa_r+0x8c8>
 800519a:	9b03      	ldr	r3, [sp, #12]
 800519c:	f3c3 0313 	ubfx	r3, r3, #0, #20
 80051a0:	2b00      	cmp	r3, #0
 80051a2:	f040 8089 	bne.w	80052b8 <_dtoa_r+0x8d8>
 80051a6:	9b03      	ldr	r3, [sp, #12]
 80051a8:	f023 4300 	bic.w	r3, r3, #2147483648	@ 0x80000000
 80051ac:	0d1b      	lsrs	r3, r3, #20
 80051ae:	051b      	lsls	r3, r3, #20
 80051b0:	b12b      	cbz	r3, 80051be <_dtoa_r+0x7de>
 80051b2:	9b08      	ldr	r3, [sp, #32]
 80051b4:	3301      	adds	r3, #1
 80051b6:	9308      	str	r3, [sp, #32]
 80051b8:	f108 0801 	add.w	r8, r8, #1
 80051bc:	2301      	movs	r3, #1
 80051be:	930a      	str	r3, [sp, #40]	@ 0x28
 80051c0:	9b0f      	ldr	r3, [sp, #60]	@ 0x3c
 80051c2:	2b00      	cmp	r3, #0
 80051c4:	f000 81b0 	beq.w	8005528 <_dtoa_r+0xb48>
 80051c8:	6923      	ldr	r3, [r4, #16]
 80051ca:	eb04 0383 	add.w	r3, r4, r3, lsl #2
 80051ce:	6918      	ldr	r0, [r3, #16]
 80051d0:	f000 fb06 	bl	80057e0 <__hi0bits>
 80051d4:	f1c0 0020 	rsb	r0, r0, #32
 80051d8:	9b08      	ldr	r3, [sp, #32]
 80051da:	4418      	add	r0, r3
 80051dc:	f010 001f 	ands.w	r0, r0, #31
 80051e0:	d077      	beq.n	80052d2 <_dtoa_r+0x8f2>
 80051e2:	f1c0 0320 	rsb	r3, r0, #32
 80051e6:	2b04      	cmp	r3, #4
 80051e8:	dd6b      	ble.n	80052c2 <_dtoa_r+0x8e2>
 80051ea:	9b08      	ldr	r3, [sp, #32]
 80051ec:	f1c0 001c 	rsb	r0, r0, #28
 80051f0:	4403      	add	r3, r0
 80051f2:	4480      	add	r8, r0
 80051f4:	4406      	add	r6, r0
 80051f6:	9308      	str	r3, [sp, #32]
 80051f8:	f1b8 0f00 	cmp.w	r8, #0
 80051fc:	dd05      	ble.n	800520a <_dtoa_r+0x82a>
 80051fe:	4649      	mov	r1, r9
 8005200:	4642      	mov	r2, r8
 8005202:	4658      	mov	r0, fp
 8005204:	f000 fc52 	bl	8005aac <__lshift>
 8005208:	4681      	mov	r9, r0
 800520a:	9b08      	ldr	r3, [sp, #32]
 800520c:	2b00      	cmp	r3, #0
 800520e:	dd05      	ble.n	800521c <_dtoa_r+0x83c>
 8005210:	4621      	mov	r1, r4
 8005212:	461a      	mov	r2, r3
 8005214:	4658      	mov	r0, fp
 8005216:	f000 fc49 	bl	8005aac <__lshift>
 800521a:	4604      	mov	r4, r0
 800521c:	9b12      	ldr	r3, [sp, #72]	@ 0x48
 800521e:	2b00      	cmp	r3, #0
 8005220:	d059      	beq.n	80052d6 <_dtoa_r+0x8f6>
 8005222:	4621      	mov	r1, r4
 8005224:	4648      	mov	r0, r9
 8005226:	f000 fcad 	bl	8005b84 <__mcmp>
 800522a:	2800      	cmp	r0, #0
 800522c:	da53      	bge.n	80052d6 <_dtoa_r+0x8f6>
 800522e:	1e7b      	subs	r3, r7, #1
 8005230:	9304      	str	r3, [sp, #16]
 8005232:	4649      	mov	r1, r9
 8005234:	2300      	movs	r3, #0
 8005236:	220a      	movs	r2, #10
 8005238:	4658      	mov	r0, fp
 800523a:	f000 fa41 	bl	80056c0 <__multadd>
 800523e:	9b0b      	ldr	r3, [sp, #44]	@ 0x2c
 8005240:	4681      	mov	r9, r0
 8005242:	2b00      	cmp	r3, #0
 8005244:	f000 8172 	beq.w	800552c <_dtoa_r+0xb4c>
 8005248:	2300      	movs	r3, #0
 800524a:	4629      	mov	r1, r5
 800524c:	220a      	movs	r2, #10
 800524e:	4658      	mov	r0, fp
 8005250:	f000 fa36 	bl	80056c0 <__multadd>
 8005254:	9b00      	ldr	r3, [sp, #0]
 8005256:	2b00      	cmp	r3, #0
 8005258:	4605      	mov	r5, r0
 800525a:	dc67      	bgt.n	800532c <_dtoa_r+0x94c>
 800525c:	9b09      	ldr	r3, [sp, #36]	@ 0x24
 800525e:	2b02      	cmp	r3, #2
 8005260:	dc41      	bgt.n	80052e6 <_dtoa_r+0x906>
 8005262:	e063      	b.n	800532c <_dtoa_r+0x94c>
 8005264:	9b16      	ldr	r3, [sp, #88]	@ 0x58
 8005266:	f1c3 0336 	rsb	r3, r3, #54	@ 0x36
 800526a:	e746      	b.n	80050fa <_dtoa_r+0x71a>
 800526c:	9b07      	ldr	r3, [sp, #28]
 800526e:	1e5c      	subs	r4, r3, #1
 8005270:	9b0a      	ldr	r3, [sp, #40]	@ 0x28
 8005272:	42a3      	cmp	r3, r4
 8005274:	bfbf      	itttt	lt
 8005276:	9b0a      	ldrlt	r3, [sp, #40]	@ 0x28
 8005278:	9a0f      	ldrlt	r2, [sp, #60]	@ 0x3c
 800527a:	940a      	strlt	r4, [sp, #40]	@ 0x28
 800527c:	1ae3      	sublt	r3, r4, r3
 800527e:	bfb4      	ite	lt
 8005280:	18d2      	addlt	r2, r2, r3
 8005282:	1b1c      	subge	r4, r3, r4
 8005284:	9b07      	ldr	r3, [sp, #28]
 8005286:	bfbc      	itt	lt
 8005288:	920f      	strlt	r2, [sp, #60]	@ 0x3c
 800528a:	2400      	movlt	r4, #0
 800528c:	2b00      	cmp	r3, #0
 800528e:	bfb5      	itete	lt
 8005290:	eba8 0603 	sublt.w	r6, r8, r3
 8005294:	9b07      	ldrge	r3, [sp, #28]
 8005296:	2300      	movlt	r3, #0
 8005298:	4646      	movge	r6, r8
 800529a:	e730      	b.n	80050fe <_dtoa_r+0x71e>
 800529c:	9c0a      	ldr	r4, [sp, #40]	@ 0x28
 800529e:	9d0b      	ldr	r5, [sp, #44]	@ 0x2c
 80052a0:	4646      	mov	r6, r8
 80052a2:	e735      	b.n	8005110 <_dtoa_r+0x730>
 80052a4:	9a0a      	ldr	r2, [sp, #40]	@ 0x28
 80052a6:	e75c      	b.n	8005162 <_dtoa_r+0x782>
 80052a8:	2300      	movs	r3, #0
 80052aa:	e788      	b.n	80051be <_dtoa_r+0x7de>
 80052ac:	3fe00000 	.word	0x3fe00000
 80052b0:	40240000 	.word	0x40240000
 80052b4:	40140000 	.word	0x40140000
 80052b8:	9b02      	ldr	r3, [sp, #8]
 80052ba:	e780      	b.n	80051be <_dtoa_r+0x7de>
 80052bc:	2300      	movs	r3, #0
 80052be:	930a      	str	r3, [sp, #40]	@ 0x28
 80052c0:	e782      	b.n	80051c8 <_dtoa_r+0x7e8>
 80052c2:	d099      	beq.n	80051f8 <_dtoa_r+0x818>
 80052c4:	9a08      	ldr	r2, [sp, #32]
 80052c6:	331c      	adds	r3, #28
 80052c8:	441a      	add	r2, r3
 80052ca:	4498      	add	r8, r3
 80052cc:	441e      	add	r6, r3
 80052ce:	9208      	str	r2, [sp, #32]
 80052d0:	e792      	b.n	80051f8 <_dtoa_r+0x818>
 80052d2:	4603      	mov	r3, r0
 80052d4:	e7f6      	b.n	80052c4 <_dtoa_r+0x8e4>
 80052d6:	9b07      	ldr	r3, [sp, #28]
 80052d8:	9704      	str	r7, [sp, #16]
 80052da:	2b00      	cmp	r3, #0
 80052dc:	dc20      	bgt.n	8005320 <_dtoa_r+0x940>
 80052de:	9300      	str	r3, [sp, #0]
 80052e0:	9b09      	ldr	r3, [sp, #36]	@ 0x24
 80052e2:	2b02      	cmp	r3, #2
 80052e4:	dd1e      	ble.n	8005324 <_dtoa_r+0x944>
 80052e6:	9b00      	ldr	r3, [sp, #0]
 80052e8:	2b00      	cmp	r3, #0
 80052ea:	f47f aec0 	bne.w	800506e <_dtoa_r+0x68e>
 80052ee:	4621      	mov	r1, r4
 80052f0:	2205      	movs	r2, #5
 80052f2:	4658      	mov	r0, fp
 80052f4:	f000 f9e4 	bl	80056c0 <__multadd>
 80052f8:	4601      	mov	r1, r0
 80052fa:	4604      	mov	r4, r0
 80052fc:	4648      	mov	r0, r9
 80052fe:	f000 fc41 	bl	8005b84 <__mcmp>
 8005302:	2800      	cmp	r0, #0
 8005304:	f77f aeb3 	ble.w	800506e <_dtoa_r+0x68e>
 8005308:	4656      	mov	r6, sl
 800530a:	2331      	movs	r3, #49	@ 0x31
 800530c:	f806 3b01 	strb.w	r3, [r6], #1
 8005310:	9b04      	ldr	r3, [sp, #16]
 8005312:	3301      	adds	r3, #1
 8005314:	9304      	str	r3, [sp, #16]
 8005316:	e6ae      	b.n	8005076 <_dtoa_r+0x696>
 8005318:	9c07      	ldr	r4, [sp, #28]
 800531a:	9704      	str	r7, [sp, #16]
 800531c:	4625      	mov	r5, r4
 800531e:	e7f3      	b.n	8005308 <_dtoa_r+0x928>
 8005320:	9b07      	ldr	r3, [sp, #28]
 8005322:	9300      	str	r3, [sp, #0]
 8005324:	9b0b      	ldr	r3, [sp, #44]	@ 0x2c
 8005326:	2b00      	cmp	r3, #0
 8005328:	f000 8104 	beq.w	8005534 <_dtoa_r+0xb54>
 800532c:	2e00      	cmp	r6, #0
 800532e:	dd05      	ble.n	800533c <_dtoa_r+0x95c>
 8005330:	4629      	mov	r1, r5
 8005332:	4632      	mov	r2, r6
 8005334:	4658      	mov	r0, fp
 8005336:	f000 fbb9 	bl	8005aac <__lshift>
 800533a:	4605      	mov	r5, r0
 800533c:	9b0a      	ldr	r3, [sp, #40]	@ 0x28
 800533e:	2b00      	cmp	r3, #0
 8005340:	d05a      	beq.n	80053f8 <_dtoa_r+0xa18>
 8005342:	6869      	ldr	r1, [r5, #4]
 8005344:	4658      	mov	r0, fp
 8005346:	f000 f959 	bl	80055fc <_Balloc>
 800534a:	4606      	mov	r6, r0
 800534c:	b928      	cbnz	r0, 800535a <_dtoa_r+0x97a>
 800534e:	4b84      	ldr	r3, [pc, #528]	@ (8005560 <_dtoa_r+0xb80>)
 8005350:	4602      	mov	r2, r0
 8005352:	f240 21ef 	movw	r1, #751	@ 0x2ef
 8005356:	f7ff bb5a 	b.w	8004a0e <_dtoa_r+0x2e>
 800535a:	692a      	ldr	r2, [r5, #16]
 800535c:	3202      	adds	r2, #2
 800535e:	0092      	lsls	r2, r2, #2
 8005360:	f105 010c 	add.w	r1, r5, #12
 8005364:	300c      	adds	r0, #12
 8005366:	f001 feb7 	bl	80070d8 <memcpy>
 800536a:	2201      	movs	r2, #1
 800536c:	4631      	mov	r1, r6
 800536e:	4658      	mov	r0, fp
 8005370:	f000 fb9c 	bl	8005aac <__lshift>
 8005374:	f10a 0301 	add.w	r3, sl, #1
 8005378:	9307      	str	r3, [sp, #28]
 800537a:	9b00      	ldr	r3, [sp, #0]
 800537c:	4453      	add	r3, sl
 800537e:	930b      	str	r3, [sp, #44]	@ 0x2c
 8005380:	9b02      	ldr	r3, [sp, #8]
 8005382:	f003 0301 	and.w	r3, r3, #1
 8005386:	462f      	mov	r7, r5
 8005388:	930a      	str	r3, [sp, #40]	@ 0x28
 800538a:	4605      	mov	r5, r0
 800538c:	9b07      	ldr	r3, [sp, #28]
 800538e:	4621      	mov	r1, r4
 8005390:	3b01      	subs	r3, #1
 8005392:	4648      	mov	r0, r9
 8005394:	9300      	str	r3, [sp, #0]
 8005396:	f7ff fa9b 	bl	80048d0 <quorem>
 800539a:	4639      	mov	r1, r7
 800539c:	9002      	str	r0, [sp, #8]
 800539e:	f100 0830 	add.w	r8, r0, #48	@ 0x30
 80053a2:	4648      	mov	r0, r9
 80053a4:	f000 fbee 	bl	8005b84 <__mcmp>
 80053a8:	462a      	mov	r2, r5
 80053aa:	9008      	str	r0, [sp, #32]
 80053ac:	4621      	mov	r1, r4
 80053ae:	4658      	mov	r0, fp
 80053b0:	f000 fc04 	bl	8005bbc <__mdiff>
 80053b4:	68c2      	ldr	r2, [r0, #12]
 80053b6:	4606      	mov	r6, r0
 80053b8:	bb02      	cbnz	r2, 80053fc <_dtoa_r+0xa1c>
 80053ba:	4601      	mov	r1, r0
 80053bc:	4648      	mov	r0, r9
 80053be:	f000 fbe1 	bl	8005b84 <__mcmp>
 80053c2:	4602      	mov	r2, r0
 80053c4:	4631      	mov	r1, r6
 80053c6:	4658      	mov	r0, fp
 80053c8:	920e      	str	r2, [sp, #56]	@ 0x38
 80053ca:	f000 f957 	bl	800567c <_Bfree>
 80053ce:	9b09      	ldr	r3, [sp, #36]	@ 0x24
 80053d0:	9a0e      	ldr	r2, [sp, #56]	@ 0x38
 80053d2:	9e07      	ldr	r6, [sp, #28]
 80053d4:	ea43 0102 	orr.w	r1, r3, r2
 80053d8:	9b0a      	ldr	r3, [sp, #40]	@ 0x28
 80053da:	4319      	orrs	r1, r3
 80053dc:	d110      	bne.n	8005400 <_dtoa_r+0xa20>
 80053de:	f1b8 0f39 	cmp.w	r8, #57	@ 0x39
 80053e2:	d029      	beq.n	8005438 <_dtoa_r+0xa58>
 80053e4:	9b08      	ldr	r3, [sp, #32]
 80053e6:	2b00      	cmp	r3, #0
 80053e8:	dd02      	ble.n	80053f0 <_dtoa_r+0xa10>
 80053ea:	9b02      	ldr	r3, [sp, #8]
 80053ec:	f103 0831 	add.w	r8, r3, #49	@ 0x31
 80053f0:	9b00      	ldr	r3, [sp, #0]
 80053f2:	f883 8000 	strb.w	r8, [r3]
 80053f6:	e63f      	b.n	8005078 <_dtoa_r+0x698>
 80053f8:	4628      	mov	r0, r5
 80053fa:	e7bb      	b.n	8005374 <_dtoa_r+0x994>
 80053fc:	2201      	movs	r2, #1
 80053fe:	e7e1      	b.n	80053c4 <_dtoa_r+0x9e4>
 8005400:	9b08      	ldr	r3, [sp, #32]
 8005402:	2b00      	cmp	r3, #0
 8005404:	db04      	blt.n	8005410 <_dtoa_r+0xa30>
 8005406:	9909      	ldr	r1, [sp, #36]	@ 0x24
 8005408:	430b      	orrs	r3, r1
 800540a:	990a      	ldr	r1, [sp, #40]	@ 0x28
 800540c:	430b      	orrs	r3, r1
 800540e:	d120      	bne.n	8005452 <_dtoa_r+0xa72>
 8005410:	2a00      	cmp	r2, #0
 8005412:	dded      	ble.n	80053f0 <_dtoa_r+0xa10>
 8005414:	4649      	mov	r1, r9
 8005416:	2201      	movs	r2, #1
 8005418:	4658      	mov	r0, fp
 800541a:	f000 fb47 	bl	8005aac <__lshift>
 800541e:	4621      	mov	r1, r4
 8005420:	4681      	mov	r9, r0
 8005422:	f000 fbaf 	bl	8005b84 <__mcmp>
 8005426:	2800      	cmp	r0, #0
 8005428:	dc03      	bgt.n	8005432 <_dtoa_r+0xa52>
 800542a:	d1e1      	bne.n	80053f0 <_dtoa_r+0xa10>
 800542c:	f018 0f01 	tst.w	r8, #1
 8005430:	d0de      	beq.n	80053f0 <_dtoa_r+0xa10>
 8005432:	f1b8 0f39 	cmp.w	r8, #57	@ 0x39
 8005436:	d1d8      	bne.n	80053ea <_dtoa_r+0xa0a>
 8005438:	9a00      	ldr	r2, [sp, #0]
 800543a:	2339      	movs	r3, #57	@ 0x39
 800543c:	7013      	strb	r3, [r2, #0]
 800543e:	4633      	mov	r3, r6
 8005440:	461e      	mov	r6, r3
 8005442:	3b01      	subs	r3, #1
 8005444:	f816 2c01 	ldrb.w	r2, [r6, #-1]
 8005448:	2a39      	cmp	r2, #57	@ 0x39
 800544a:	d052      	beq.n	80054f2 <_dtoa_r+0xb12>
 800544c:	3201      	adds	r2, #1
 800544e:	701a      	strb	r2, [r3, #0]
 8005450:	e612      	b.n	8005078 <_dtoa_r+0x698>
 8005452:	2a00      	cmp	r2, #0
 8005454:	dd07      	ble.n	8005466 <_dtoa_r+0xa86>
 8005456:	f1b8 0f39 	cmp.w	r8, #57	@ 0x39
 800545a:	d0ed      	beq.n	8005438 <_dtoa_r+0xa58>
 800545c:	9a00      	ldr	r2, [sp, #0]
 800545e:	f108 0301 	add.w	r3, r8, #1
 8005462:	7013      	strb	r3, [r2, #0]
 8005464:	e608      	b.n	8005078 <_dtoa_r+0x698>
 8005466:	9b07      	ldr	r3, [sp, #28]
 8005468:	9a07      	ldr	r2, [sp, #28]
 800546a:	f803 8c01 	strb.w	r8, [r3, #-1]
 800546e:	9b0b      	ldr	r3, [sp, #44]	@ 0x2c
 8005470:	4293      	cmp	r3, r2
 8005472:	d028      	beq.n	80054c6 <_dtoa_r+0xae6>
 8005474:	4649      	mov	r1, r9
 8005476:	2300      	movs	r3, #0
 8005478:	220a      	movs	r2, #10
 800547a:	4658      	mov	r0, fp
 800547c:	f000 f920 	bl	80056c0 <__multadd>
 8005480:	42af      	cmp	r7, r5
 8005482:	4681      	mov	r9, r0
 8005484:	f04f 0300 	mov.w	r3, #0
 8005488:	f04f 020a 	mov.w	r2, #10
 800548c:	4639      	mov	r1, r7
 800548e:	4658      	mov	r0, fp
 8005490:	d107      	bne.n	80054a2 <_dtoa_r+0xac2>
 8005492:	f000 f915 	bl	80056c0 <__multadd>
 8005496:	4607      	mov	r7, r0
 8005498:	4605      	mov	r5, r0
 800549a:	9b07      	ldr	r3, [sp, #28]
 800549c:	3301      	adds	r3, #1
 800549e:	9307      	str	r3, [sp, #28]
 80054a0:	e774      	b.n	800538c <_dtoa_r+0x9ac>
 80054a2:	f000 f90d 	bl	80056c0 <__multadd>
 80054a6:	4629      	mov	r1, r5
 80054a8:	4607      	mov	r7, r0
 80054aa:	2300      	movs	r3, #0
 80054ac:	220a      	movs	r2, #10
 80054ae:	4658      	mov	r0, fp
 80054b0:	f000 f906 	bl	80056c0 <__multadd>
 80054b4:	4605      	mov	r5, r0
 80054b6:	e7f0      	b.n	800549a <_dtoa_r+0xaba>
 80054b8:	9b00      	ldr	r3, [sp, #0]
 80054ba:	2b00      	cmp	r3, #0
 80054bc:	bfcc      	ite	gt
 80054be:	461e      	movgt	r6, r3
 80054c0:	2601      	movle	r6, #1
 80054c2:	4456      	add	r6, sl
 80054c4:	2700      	movs	r7, #0
 80054c6:	4649      	mov	r1, r9
 80054c8:	2201      	movs	r2, #1
 80054ca:	4658      	mov	r0, fp
 80054cc:	f000 faee 	bl	8005aac <__lshift>
 80054d0:	4621      	mov	r1, r4
 80054d2:	4681      	mov	r9, r0
 80054d4:	f000 fb56 	bl	8005b84 <__mcmp>
 80054d8:	2800      	cmp	r0, #0
 80054da:	dcb0      	bgt.n	800543e <_dtoa_r+0xa5e>
 80054dc:	d102      	bne.n	80054e4 <_dtoa_r+0xb04>
 80054de:	f018 0f01 	tst.w	r8, #1
 80054e2:	d1ac      	bne.n	800543e <_dtoa_r+0xa5e>
 80054e4:	4633      	mov	r3, r6
 80054e6:	461e      	mov	r6, r3
 80054e8:	f813 2d01 	ldrb.w	r2, [r3, #-1]!
 80054ec:	2a30      	cmp	r2, #48	@ 0x30
 80054ee:	d0fa      	beq.n	80054e6 <_dtoa_r+0xb06>
 80054f0:	e5c2      	b.n	8005078 <_dtoa_r+0x698>
 80054f2:	459a      	cmp	sl, r3
 80054f4:	d1a4      	bne.n	8005440 <_dtoa_r+0xa60>
 80054f6:	9b04      	ldr	r3, [sp, #16]
 80054f8:	3301      	adds	r3, #1
 80054fa:	9304      	str	r3, [sp, #16]
 80054fc:	2331      	movs	r3, #49	@ 0x31
 80054fe:	f88a 3000 	strb.w	r3, [sl]
 8005502:	e5b9      	b.n	8005078 <_dtoa_r+0x698>
 8005504:	9b23      	ldr	r3, [sp, #140]	@ 0x8c
 8005506:	f8df a05c 	ldr.w	sl, [pc, #92]	@ 8005564 <_dtoa_r+0xb84>
 800550a:	b11b      	cbz	r3, 8005514 <_dtoa_r+0xb34>
 800550c:	f10a 0308 	add.w	r3, sl, #8
 8005510:	9a23      	ldr	r2, [sp, #140]	@ 0x8c
 8005512:	6013      	str	r3, [r2, #0]
 8005514:	4650      	mov	r0, sl
 8005516:	b019      	add	sp, #100	@ 0x64
 8005518:	e8bd 8ff0 	ldmia.w	sp!, {r4, r5, r6, r7, r8, r9, sl, fp, pc}
 800551c:	9b09      	ldr	r3, [sp, #36]	@ 0x24
 800551e:	2b01      	cmp	r3, #1
 8005520:	f77f ae37 	ble.w	8005192 <_dtoa_r+0x7b2>
 8005524:	9b0f      	ldr	r3, [sp, #60]	@ 0x3c
 8005526:	930a      	str	r3, [sp, #40]	@ 0x28
 8005528:	2001      	movs	r0, #1
 800552a:	e655      	b.n	80051d8 <_dtoa_r+0x7f8>
 800552c:	9b00      	ldr	r3, [sp, #0]
 800552e:	2b00      	cmp	r3, #0
 8005530:	f77f aed6 	ble.w	80052e0 <_dtoa_r+0x900>
 8005534:	4656      	mov	r6, sl
 8005536:	4621      	mov	r1, r4
 8005538:	4648      	mov	r0, r9
 800553a:	f7ff f9c9 	bl	80048d0 <quorem>
 800553e:	f100 0830 	add.w	r8, r0, #48	@ 0x30
 8005542:	f806 8b01 	strb.w	r8, [r6], #1
 8005546:	9b00      	ldr	r3, [sp, #0]
 8005548:	eba6 020a 	sub.w	r2, r6, sl
 800554c:	4293      	cmp	r3, r2
 800554e:	ddb3      	ble.n	80054b8 <_dtoa_r+0xad8>
 8005550:	4649      	mov	r1, r9
 8005552:	2300      	movs	r3, #0
 8005554:	220a      	movs	r2, #10
 8005556:	4658      	mov	r0, fp
 8005558:	f000 f8b2 	bl	80056c0 <__multadd>
 800555c:	4681      	mov	r9, r0
 800555e:	e7ea      	b.n	8005536 <_dtoa_r+0xb56>
 8005560:	080081ee 	.word	0x080081ee
 8005564:	08008172 	.word	0x08008172

08005568 <_free_r>:
 8005568:	b538      	push	{r3, r4, r5, lr}
 800556a:	4605      	mov	r5, r0
 800556c:	2900      	cmp	r1, #0
 800556e:	d041      	beq.n	80055f4 <_free_r+0x8c>
 8005570:	f851 3c04 	ldr.w	r3, [r1, #-4]
 8005574:	1f0c      	subs	r4, r1, #4
 8005576:	2b00      	cmp	r3, #0
 8005578:	bfb8      	it	lt
 800557a:	18e4      	addlt	r4, r4, r3
 800557c:	f7fe f972 	bl	8003864 <__malloc_lock>
 8005580:	4a1d      	ldr	r2, [pc, #116]	@ (80055f8 <_free_r+0x90>)
 8005582:	6813      	ldr	r3, [r2, #0]
 8005584:	b933      	cbnz	r3, 8005594 <_free_r+0x2c>
 8005586:	6063      	str	r3, [r4, #4]
 8005588:	6014      	str	r4, [r2, #0]
 800558a:	4628      	mov	r0, r5
 800558c:	e8bd 4038 	ldmia.w	sp!, {r3, r4, r5, lr}
 8005590:	f7fe b96e 	b.w	8003870 <__malloc_unlock>
 8005594:	42a3      	cmp	r3, r4
 8005596:	d908      	bls.n	80055aa <_free_r+0x42>
 8005598:	6820      	ldr	r0, [r4, #0]
 800559a:	1821      	adds	r1, r4, r0
 800559c:	428b      	cmp	r3, r1
 800559e:	bf01      	itttt	eq
 80055a0:	6819      	ldreq	r1, [r3, #0]
 80055a2:	685b      	ldreq	r3, [r3, #4]
 80055a4:	1809      	addeq	r1, r1, r0
 80055a6:	6021      	streq	r1, [r4, #0]
 80055a8:	e7ed      	b.n	8005586 <_free_r+0x1e>
 80055aa:	461a      	mov	r2, r3
 80055ac:	685b      	ldr	r3, [r3, #4]
 80055ae:	b10b      	cbz	r3, 80055b4 <_free_r+0x4c>
 80055b0:	42a3      	cmp	r3, r4
 80055b2:	d9fa      	bls.n	80055aa <_free_r+0x42>
 80055b4:	6811      	ldr	r1, [r2, #0]
 80055b6:	1850      	adds	r0, r2, r1
 80055b8:	42a0      	cmp	r0, r4
 80055ba:	d10b      	bne.n	80055d4 <_free_r+0x6c>
 80055bc:	6820      	ldr	r0, [r4, #0]
 80055be:	4401      	add	r1, r0
 80055c0:	1850      	adds	r0, r2, r1
 80055c2:	4283      	cmp	r3, r0
 80055c4:	6011      	str	r1, [r2, #0]
 80055c6:	d1e0      	bne.n	800558a <_free_r+0x22>
 80055c8:	6818      	ldr	r0, [r3, #0]
 80055ca:	685b      	ldr	r3, [r3, #4]
 80055cc:	6053      	str	r3, [r2, #4]
 80055ce:	4408      	add	r0, r1
 80055d0:	6010      	str	r0, [r2, #0]
 80055d2:	e7da      	b.n	800558a <_free_r+0x22>
 80055d4:	d902      	bls.n	80055dc <_free_r+0x74>
 80055d6:	230c      	movs	r3, #12
 80055d8:	602b      	str	r3, [r5, #0]
 80055da:	e7d6      	b.n	800558a <_free_r+0x22>
 80055dc:	6820      	ldr	r0, [r4, #0]
 80055de:	1821      	adds	r1, r4, r0
 80055e0:	428b      	cmp	r3, r1
 80055e2:	bf04      	itt	eq
 80055e4:	6819      	ldreq	r1, [r3, #0]
 80055e6:	685b      	ldreq	r3, [r3, #4]
 80055e8:	6063      	str	r3, [r4, #4]
 80055ea:	bf04      	itt	eq
 80055ec:	1809      	addeq	r1, r1, r0
 80055ee:	6021      	streq	r1, [r4, #0]
 80055f0:	6054      	str	r4, [r2, #4]
 80055f2:	e7ca      	b.n	800558a <_free_r+0x22>
 80055f4:	bd38      	pop	{r3, r4, r5, pc}
 80055f6:	bf00      	nop
 80055f8:	20000774 	.word	0x20000774

080055fc <_Balloc>:
 80055fc:	b570      	push	{r4, r5, r6, lr}
 80055fe:	69c6      	ldr	r6, [r0, #28]
 8005600:	4604      	mov	r4, r0
 8005602:	460d      	mov	r5, r1
 8005604:	b976      	cbnz	r6, 8005624 <_Balloc+0x28>
 8005606:	2010      	movs	r0, #16
 8005608:	f7fe f87a 	bl	8003700 <malloc>
 800560c:	4602      	mov	r2, r0
 800560e:	61e0      	str	r0, [r4, #28]
 8005610:	b920      	cbnz	r0, 800561c <_Balloc+0x20>
 8005612:	4b18      	ldr	r3, [pc, #96]	@ (8005674 <_Balloc+0x78>)
 8005614:	4818      	ldr	r0, [pc, #96]	@ (8005678 <_Balloc+0x7c>)
 8005616:	216b      	movs	r1, #107	@ 0x6b
 8005618:	f001 fd76 	bl	8007108 <__assert_func>
 800561c:	e9c0 6601 	strd	r6, r6, [r0, #4]
 8005620:	6006      	str	r6, [r0, #0]
 8005622:	60c6      	str	r6, [r0, #12]
 8005624:	69e6      	ldr	r6, [r4, #28]
 8005626:	68f3      	ldr	r3, [r6, #12]
 8005628:	b183      	cbz	r3, 800564c <_Balloc+0x50>
 800562a:	69e3      	ldr	r3, [r4, #28]
 800562c:	68db      	ldr	r3, [r3, #12]
 800562e:	f853 0025 	ldr.w	r0, [r3, r5, lsl #2]
 8005632:	b9b8      	cbnz	r0, 8005664 <_Balloc+0x68>
 8005634:	2101      	movs	r1, #1
 8005636:	fa01 f605 	lsl.w	r6, r1, r5
 800563a:	1d72      	adds	r2, r6, #5
 800563c:	0092      	lsls	r2, r2, #2
 800563e:	4620      	mov	r0, r4
 8005640:	f7fe f84a 	bl	80036d8 <_calloc_r>
 8005644:	b160      	cbz	r0, 8005660 <_Balloc+0x64>
 8005646:	e9c0 5601 	strd	r5, r6, [r0, #4]
 800564a:	e00e      	b.n	800566a <_Balloc+0x6e>
 800564c:	2221      	movs	r2, #33	@ 0x21
 800564e:	2104      	movs	r1, #4
 8005650:	4620      	mov	r0, r4
 8005652:	f7fe f841 	bl	80036d8 <_calloc_r>
 8005656:	69e3      	ldr	r3, [r4, #28]
 8005658:	60f0      	str	r0, [r6, #12]
 800565a:	68db      	ldr	r3, [r3, #12]
 800565c:	2b00      	cmp	r3, #0
 800565e:	d1e4      	bne.n	800562a <_Balloc+0x2e>
 8005660:	2000      	movs	r0, #0
 8005662:	bd70      	pop	{r4, r5, r6, pc}
 8005664:	6802      	ldr	r2, [r0, #0]
 8005666:	f843 2025 	str.w	r2, [r3, r5, lsl #2]
 800566a:	2300      	movs	r3, #0
 800566c:	e9c0 3303 	strd	r3, r3, [r0, #12]
 8005670:	e7f7      	b.n	8005662 <_Balloc+0x66>
 8005672:	bf00      	nop
 8005674:	0800817f 	.word	0x0800817f
 8005678:	080081ff 	.word	0x080081ff

0800567c <_Bfree>:
 800567c:	b570      	push	{r4, r5, r6, lr}
 800567e:	69c6      	ldr	r6, [r0, #28]
 8005680:	4605      	mov	r5, r0
 8005682:	460c      	mov	r4, r1
 8005684:	b976      	cbnz	r6, 80056a4 <_Bfree+0x28>
 8005686:	2010      	movs	r0, #16
 8005688:	f7fe f83a 	bl	8003700 <malloc>
 800568c:	4602      	mov	r2, r0
 800568e:	61e8      	str	r0, [r5, #28]
 8005690:	b920      	cbnz	r0, 800569c <_Bfree+0x20>
 8005692:	4b09      	ldr	r3, [pc, #36]	@ (80056b8 <_Bfree+0x3c>)
 8005694:	4809      	ldr	r0, [pc, #36]	@ (80056bc <_Bfree+0x40>)
 8005696:	218f      	movs	r1, #143	@ 0x8f
 8005698:	f001 fd36 	bl	8007108 <__assert_func>
 800569c:	e9c0 6601 	strd	r6, r6, [r0, #4]
 80056a0:	6006      	str	r6, [r0, #0]
 80056a2:	60c6      	str	r6, [r0, #12]
 80056a4:	b13c      	cbz	r4, 80056b6 <_Bfree+0x3a>
 80056a6:	69eb      	ldr	r3, [r5, #28]
 80056a8:	6862      	ldr	r2, [r4, #4]
 80056aa:	68db      	ldr	r3, [r3, #12]
 80056ac:	f853 1022 	ldr.w	r1, [r3, r2, lsl #2]
 80056b0:	6021      	str	r1, [r4, #0]
 80056b2:	f843 4022 	str.w	r4, [r3, r2, lsl #2]
 80056b6:	bd70      	pop	{r4, r5, r6, pc}
 80056b8:	0800817f 	.word	0x0800817f
 80056bc:	080081ff 	.word	0x080081ff

080056c0 <__multadd>:
 80056c0:	e92d 41f0 	stmdb	sp!, {r4, r5, r6, r7, r8, lr}
 80056c4:	690d      	ldr	r5, [r1, #16]
 80056c6:	4607      	mov	r7, r0
 80056c8:	460c      	mov	r4, r1
 80056ca:	461e      	mov	r6, r3
 80056cc:	f101 0c14 	add.w	ip, r1, #20
 80056d0:	2000      	movs	r0, #0
 80056d2:	f8dc 3000 	ldr.w	r3, [ip]
 80056d6:	b299      	uxth	r1, r3
 80056d8:	fb02 6101 	mla	r1, r2, r1, r6
 80056dc:	0c1e      	lsrs	r6, r3, #16
 80056de:	0c0b      	lsrs	r3, r1, #16
 80056e0:	fb02 3306 	mla	r3, r2, r6, r3
 80056e4:	b289      	uxth	r1, r1
 80056e6:	3001      	adds	r0, #1
 80056e8:	eb01 4103 	add.w	r1, r1, r3, lsl #16
 80056ec:	4285      	cmp	r5, r0
 80056ee:	f84c 1b04 	str.w	r1, [ip], #4
 80056f2:	ea4f 4613 	mov.w	r6, r3, lsr #16
 80056f6:	dcec      	bgt.n	80056d2 <__multadd+0x12>
 80056f8:	b30e      	cbz	r6, 800573e <__multadd+0x7e>
 80056fa:	68a3      	ldr	r3, [r4, #8]
 80056fc:	42ab      	cmp	r3, r5
 80056fe:	dc19      	bgt.n	8005734 <__multadd+0x74>
 8005700:	6861      	ldr	r1, [r4, #4]
 8005702:	4638      	mov	r0, r7
 8005704:	3101      	adds	r1, #1
 8005706:	f7ff ff79 	bl	80055fc <_Balloc>
 800570a:	4680      	mov	r8, r0
 800570c:	b928      	cbnz	r0, 800571a <__multadd+0x5a>
 800570e:	4602      	mov	r2, r0
 8005710:	4b0c      	ldr	r3, [pc, #48]	@ (8005744 <__multadd+0x84>)
 8005712:	480d      	ldr	r0, [pc, #52]	@ (8005748 <__multadd+0x88>)
 8005714:	21ba      	movs	r1, #186	@ 0xba
 8005716:	f001 fcf7 	bl	8007108 <__assert_func>
 800571a:	6922      	ldr	r2, [r4, #16]
 800571c:	3202      	adds	r2, #2
 800571e:	f104 010c 	add.w	r1, r4, #12
 8005722:	0092      	lsls	r2, r2, #2
 8005724:	300c      	adds	r0, #12
 8005726:	f001 fcd7 	bl	80070d8 <memcpy>
 800572a:	4621      	mov	r1, r4
 800572c:	4638      	mov	r0, r7
 800572e:	f7ff ffa5 	bl	800567c <_Bfree>
 8005732:	4644      	mov	r4, r8
 8005734:	eb04 0385 	add.w	r3, r4, r5, lsl #2
 8005738:	3501      	adds	r5, #1
 800573a:	615e      	str	r6, [r3, #20]
 800573c:	6125      	str	r5, [r4, #16]
 800573e:	4620      	mov	r0, r4
 8005740:	e8bd 81f0 	ldmia.w	sp!, {r4, r5, r6, r7, r8, pc}
 8005744:	080081ee 	.word	0x080081ee
 8005748:	080081ff 	.word	0x080081ff

0800574c <__s2b>:
 800574c:	e92d 43f8 	stmdb	sp!, {r3, r4, r5, r6, r7, r8, r9, lr}
 8005750:	460c      	mov	r4, r1
 8005752:	4615      	mov	r5, r2
 8005754:	461f      	mov	r7, r3
 8005756:	2209      	movs	r2, #9
 8005758:	3308      	adds	r3, #8
 800575a:	4606      	mov	r6, r0
 800575c:	fb93 f3f2 	sdiv	r3, r3, r2
 8005760:	2100      	movs	r1, #0
 8005762:	2201      	movs	r2, #1
 8005764:	429a      	cmp	r2, r3
 8005766:	db09      	blt.n	800577c <__s2b+0x30>
 8005768:	4630      	mov	r0, r6
 800576a:	f7ff ff47 	bl	80055fc <_Balloc>
 800576e:	b940      	cbnz	r0, 8005782 <__s2b+0x36>
 8005770:	4602      	mov	r2, r0
 8005772:	4b19      	ldr	r3, [pc, #100]	@ (80057d8 <__s2b+0x8c>)
 8005774:	4819      	ldr	r0, [pc, #100]	@ (80057dc <__s2b+0x90>)
 8005776:	21d3      	movs	r1, #211	@ 0xd3
 8005778:	f001 fcc6 	bl	8007108 <__assert_func>
 800577c:	0052      	lsls	r2, r2, #1
 800577e:	3101      	adds	r1, #1
 8005780:	e7f0      	b.n	8005764 <__s2b+0x18>
 8005782:	9b08      	ldr	r3, [sp, #32]
 8005784:	6143      	str	r3, [r0, #20]
 8005786:	2d09      	cmp	r5, #9
 8005788:	f04f 0301 	mov.w	r3, #1
 800578c:	6103      	str	r3, [r0, #16]
 800578e:	dd16      	ble.n	80057be <__s2b+0x72>
 8005790:	f104 0909 	add.w	r9, r4, #9
 8005794:	46c8      	mov	r8, r9
 8005796:	442c      	add	r4, r5
 8005798:	f818 3b01 	ldrb.w	r3, [r8], #1
 800579c:	4601      	mov	r1, r0
 800579e:	3b30      	subs	r3, #48	@ 0x30
 80057a0:	220a      	movs	r2, #10
 80057a2:	4630      	mov	r0, r6
 80057a4:	f7ff ff8c 	bl	80056c0 <__multadd>
 80057a8:	45a0      	cmp	r8, r4
 80057aa:	d1f5      	bne.n	8005798 <__s2b+0x4c>
 80057ac:	f1a5 0408 	sub.w	r4, r5, #8
 80057b0:	444c      	add	r4, r9
 80057b2:	1b2d      	subs	r5, r5, r4
 80057b4:	1963      	adds	r3, r4, r5
 80057b6:	42bb      	cmp	r3, r7
 80057b8:	db04      	blt.n	80057c4 <__s2b+0x78>
 80057ba:	e8bd 83f8 	ldmia.w	sp!, {r3, r4, r5, r6, r7, r8, r9, pc}
 80057be:	340a      	adds	r4, #10
 80057c0:	2509      	movs	r5, #9
 80057c2:	e7f6      	b.n	80057b2 <__s2b+0x66>
 80057c4:	f814 3b01 	ldrb.w	r3, [r4], #1
 80057c8:	4601      	mov	r1, r0
 80057ca:	3b30      	subs	r3, #48	@ 0x30
 80057cc:	220a      	movs	r2, #10
 80057ce:	4630      	mov	r0, r6
 80057d0:	f7ff ff76 	bl	80056c0 <__multadd>
 80057d4:	e7ee      	b.n	80057b4 <__s2b+0x68>
 80057d6:	bf00      	nop
 80057d8:	080081ee 	.word	0x080081ee
 80057dc:	080081ff 	.word	0x080081ff

080057e0 <__hi0bits>:
 80057e0:	f5b0 3f80 	cmp.w	r0, #65536	@ 0x10000
 80057e4:	4603      	mov	r3, r0
 80057e6:	bf36      	itet	cc
 80057e8:	0403      	lslcc	r3, r0, #16
 80057ea:	2000      	movcs	r0, #0
 80057ec:	2010      	movcc	r0, #16
 80057ee:	f1b3 7f80 	cmp.w	r3, #16777216	@ 0x1000000
 80057f2:	bf3c      	itt	cc
 80057f4:	021b      	lslcc	r3, r3, #8
 80057f6:	3008      	addcc	r0, #8
 80057f8:	f1b3 5f80 	cmp.w	r3, #268435456	@ 0x10000000
 80057fc:	bf3c      	itt	cc
 80057fe:	011b      	lslcc	r3, r3, #4
 8005800:	3004      	addcc	r0, #4
 8005802:	f1b3 4f80 	cmp.w	r3, #1073741824	@ 0x40000000
 8005806:	bf3c      	itt	cc
 8005808:	009b      	lslcc	r3, r3, #2
 800580a:	3002      	addcc	r0, #2
 800580c:	2b00      	cmp	r3, #0
 800580e:	db05      	blt.n	800581c <__hi0bits+0x3c>
 8005810:	f013 4f80 	tst.w	r3, #1073741824	@ 0x40000000
 8005814:	f100 0001 	add.w	r0, r0, #1
 8005818:	bf08      	it	eq
 800581a:	2020      	moveq	r0, #32
 800581c:	4770      	bx	lr

0800581e <__lo0bits>:
 800581e:	6803      	ldr	r3, [r0, #0]
 8005820:	4602      	mov	r2, r0
 8005822:	f013 0007 	ands.w	r0, r3, #7
 8005826:	d00b      	beq.n	8005840 <__lo0bits+0x22>
 8005828:	07d9      	lsls	r1, r3, #31
 800582a:	d421      	bmi.n	8005870 <__lo0bits+0x52>
 800582c:	0798      	lsls	r0, r3, #30
 800582e:	bf49      	itett	mi
 8005830:	085b      	lsrmi	r3, r3, #1
 8005832:	089b      	lsrpl	r3, r3, #2
 8005834:	2001      	movmi	r0, #1
 8005836:	6013      	strmi	r3, [r2, #0]
 8005838:	bf5c      	itt	pl
 800583a:	6013      	strpl	r3, [r2, #0]
 800583c:	2002      	movpl	r0, #2
 800583e:	4770      	bx	lr
 8005840:	b299      	uxth	r1, r3
 8005842:	b909      	cbnz	r1, 8005848 <__lo0bits+0x2a>
 8005844:	0c1b      	lsrs	r3, r3, #16
 8005846:	2010      	movs	r0, #16
 8005848:	b2d9      	uxtb	r1, r3
 800584a:	b909      	cbnz	r1, 8005850 <__lo0bits+0x32>
 800584c:	3008      	adds	r0, #8
 800584e:	0a1b      	lsrs	r3, r3, #8
 8005850:	0719      	lsls	r1, r3, #28
 8005852:	bf04      	itt	eq
 8005854:	091b      	lsreq	r3, r3, #4
 8005856:	3004      	addeq	r0, #4
 8005858:	0799      	lsls	r1, r3, #30
 800585a:	bf04      	itt	eq
 800585c:	089b      	lsreq	r3, r3, #2
 800585e:	3002      	addeq	r0, #2
 8005860:	07d9      	lsls	r1, r3, #31
 8005862:	d403      	bmi.n	800586c <__lo0bits+0x4e>
 8005864:	085b      	lsrs	r3, r3, #1
 8005866:	f100 0001 	add.w	r0, r0, #1
 800586a:	d003      	beq.n	8005874 <__lo0bits+0x56>
 800586c:	6013      	str	r3, [r2, #0]
 800586e:	4770      	bx	lr
 8005870:	2000      	movs	r0, #0
 8005872:	4770      	bx	lr
 8005874:	2020      	movs	r0, #32
 8005876:	4770      	bx	lr

08005878 <__i2b>:
 8005878:	b510      	push	{r4, lr}
 800587a:	460c      	mov	r4, r1
 800587c:	2101      	movs	r1, #1
 800587e:	f7ff febd 	bl	80055fc <_Balloc>
 8005882:	4602      	mov	r2, r0
 8005884:	b928      	cbnz	r0, 8005892 <__i2b+0x1a>
 8005886:	4b05      	ldr	r3, [pc, #20]	@ (800589c <__i2b+0x24>)
 8005888:	4805      	ldr	r0, [pc, #20]	@ (80058a0 <__i2b+0x28>)
 800588a:	f240 1145 	movw	r1, #325	@ 0x145
 800588e:	f001 fc3b 	bl	8007108 <__assert_func>
 8005892:	2301      	movs	r3, #1
 8005894:	6144      	str	r4, [r0, #20]
 8005896:	6103      	str	r3, [r0, #16]
 8005898:	bd10      	pop	{r4, pc}
 800589a:	bf00      	nop
 800589c:	080081ee 	.word	0x080081ee
 80058a0:	080081ff 	.word	0x080081ff

080058a4 <__multiply>:
 80058a4:	e92d 4ff0 	stmdb	sp!, {r4, r5, r6, r7, r8, r9, sl, fp, lr}
 80058a8:	4614      	mov	r4, r2
 80058aa:	690a      	ldr	r2, [r1, #16]
 80058ac:	6923      	ldr	r3, [r4, #16]
 80058ae:	429a      	cmp	r2, r3
 80058b0:	bfa8      	it	ge
 80058b2:	4623      	movge	r3, r4
 80058b4:	460f      	mov	r7, r1
 80058b6:	bfa4      	itt	ge
 80058b8:	460c      	movge	r4, r1
 80058ba:	461f      	movge	r7, r3
 80058bc:	f8d4 a010 	ldr.w	sl, [r4, #16]
 80058c0:	f8d7 9010 	ldr.w	r9, [r7, #16]
 80058c4:	68a3      	ldr	r3, [r4, #8]
 80058c6:	6861      	ldr	r1, [r4, #4]
 80058c8:	eb0a 0609 	add.w	r6, sl, r9
 80058cc:	42b3      	cmp	r3, r6
 80058ce:	b085      	sub	sp, #20
 80058d0:	bfb8      	it	lt
 80058d2:	3101      	addlt	r1, #1
 80058d4:	f7ff fe92 	bl	80055fc <_Balloc>
 80058d8:	b930      	cbnz	r0, 80058e8 <__multiply+0x44>
 80058da:	4602      	mov	r2, r0
 80058dc:	4b44      	ldr	r3, [pc, #272]	@ (80059f0 <__multiply+0x14c>)
 80058de:	4845      	ldr	r0, [pc, #276]	@ (80059f4 <__multiply+0x150>)
 80058e0:	f44f 71b1 	mov.w	r1, #354	@ 0x162
 80058e4:	f001 fc10 	bl	8007108 <__assert_func>
 80058e8:	f100 0514 	add.w	r5, r0, #20
 80058ec:	eb05 0886 	add.w	r8, r5, r6, lsl #2
 80058f0:	462b      	mov	r3, r5
 80058f2:	2200      	movs	r2, #0
 80058f4:	4543      	cmp	r3, r8
 80058f6:	d321      	bcc.n	800593c <__multiply+0x98>
 80058f8:	f107 0114 	add.w	r1, r7, #20
 80058fc:	f104 0214 	add.w	r2, r4, #20
 8005900:	eb02 028a 	add.w	r2, r2, sl, lsl #2
 8005904:	eb01 0389 	add.w	r3, r1, r9, lsl #2
 8005908:	9302      	str	r3, [sp, #8]
 800590a:	1b13      	subs	r3, r2, r4
 800590c:	3b15      	subs	r3, #21
 800590e:	f023 0303 	bic.w	r3, r3, #3
 8005912:	3304      	adds	r3, #4
 8005914:	f104 0715 	add.w	r7, r4, #21
 8005918:	42ba      	cmp	r2, r7
 800591a:	bf38      	it	cc
 800591c:	2304      	movcc	r3, #4
 800591e:	9301      	str	r3, [sp, #4]
 8005920:	9b02      	ldr	r3, [sp, #8]
 8005922:	9103      	str	r1, [sp, #12]
 8005924:	428b      	cmp	r3, r1
 8005926:	d80c      	bhi.n	8005942 <__multiply+0x9e>
 8005928:	2e00      	cmp	r6, #0
 800592a:	dd03      	ble.n	8005934 <__multiply+0x90>
 800592c:	f858 3d04 	ldr.w	r3, [r8, #-4]!
 8005930:	2b00      	cmp	r3, #0
 8005932:	d05b      	beq.n	80059ec <__multiply+0x148>
 8005934:	6106      	str	r6, [r0, #16]
 8005936:	b005      	add	sp, #20
 8005938:	e8bd 8ff0 	ldmia.w	sp!, {r4, r5, r6, r7, r8, r9, sl, fp, pc}
 800593c:	f843 2b04 	str.w	r2, [r3], #4
 8005940:	e7d8      	b.n	80058f4 <__multiply+0x50>
 8005942:	f8b1 a000 	ldrh.w	sl, [r1]
 8005946:	f1ba 0f00 	cmp.w	sl, #0
 800594a:	d024      	beq.n	8005996 <__multiply+0xf2>
 800594c:	f104 0e14 	add.w	lr, r4, #20
 8005950:	46a9      	mov	r9, r5
 8005952:	f04f 0c00 	mov.w	ip, #0
 8005956:	f85e 7b04 	ldr.w	r7, [lr], #4
 800595a:	f8d9 3000 	ldr.w	r3, [r9]
 800595e:	fa1f fb87 	uxth.w	fp, r7
 8005962:	b29b      	uxth	r3, r3
 8005964:	fb0a 330b 	mla	r3, sl, fp, r3
 8005968:	ea4f 4b17 	mov.w	fp, r7, lsr #16
 800596c:	f8d9 7000 	ldr.w	r7, [r9]
 8005970:	4463      	add	r3, ip
 8005972:	ea4f 4c17 	mov.w	ip, r7, lsr #16
 8005976:	fb0a c70b 	mla	r7, sl, fp, ip
 800597a:	eb07 4713 	add.w	r7, r7, r3, lsr #16
 800597e:	b29b      	uxth	r3, r3
 8005980:	ea43 4307 	orr.w	r3, r3, r7, lsl #16
 8005984:	4572      	cmp	r2, lr
 8005986:	f849 3b04 	str.w	r3, [r9], #4
 800598a:	ea4f 4c17 	mov.w	ip, r7, lsr #16
 800598e:	d8e2      	bhi.n	8005956 <__multiply+0xb2>
 8005990:	9b01      	ldr	r3, [sp, #4]
 8005992:	f845 c003 	str.w	ip, [r5, r3]
 8005996:	9b03      	ldr	r3, [sp, #12]
 8005998:	f8b3 9002 	ldrh.w	r9, [r3, #2]
 800599c:	3104      	adds	r1, #4
 800599e:	f1b9 0f00 	cmp.w	r9, #0
 80059a2:	d021      	beq.n	80059e8 <__multiply+0x144>
 80059a4:	682b      	ldr	r3, [r5, #0]
 80059a6:	f104 0c14 	add.w	ip, r4, #20
 80059aa:	46ae      	mov	lr, r5
 80059ac:	f04f 0a00 	mov.w	sl, #0
 80059b0:	f8bc b000 	ldrh.w	fp, [ip]
 80059b4:	f8be 7002 	ldrh.w	r7, [lr, #2]
 80059b8:	fb09 770b 	mla	r7, r9, fp, r7
 80059bc:	4457      	add	r7, sl
 80059be:	b29b      	uxth	r3, r3
 80059c0:	ea43 4307 	orr.w	r3, r3, r7, lsl #16
 80059c4:	f84e 3b04 	str.w	r3, [lr], #4
 80059c8:	f85c 3b04 	ldr.w	r3, [ip], #4
 80059cc:	ea4f 4a13 	mov.w	sl, r3, lsr #16
 80059d0:	f8be 3000 	ldrh.w	r3, [lr]
 80059d4:	fb09 330a 	mla	r3, r9, sl, r3
 80059d8:	eb03 4317 	add.w	r3, r3, r7, lsr #16
 80059dc:	4562      	cmp	r2, ip
 80059de:	ea4f 4a13 	mov.w	sl, r3, lsr #16
 80059e2:	d8e5      	bhi.n	80059b0 <__multiply+0x10c>
 80059e4:	9f01      	ldr	r7, [sp, #4]
 80059e6:	51eb      	str	r3, [r5, r7]
 80059e8:	3504      	adds	r5, #4
 80059ea:	e799      	b.n	8005920 <__multiply+0x7c>
 80059ec:	3e01      	subs	r6, #1
 80059ee:	e79b      	b.n	8005928 <__multiply+0x84>
 80059f0:	080081ee 	.word	0x080081ee
 80059f4:	080081ff 	.word	0x080081ff

080059f8 <__pow5mult>:
 80059f8:	e92d 43f8 	stmdb	sp!, {r3, r4, r5, r6, r7, r8, r9, lr}
 80059fc:	4615      	mov	r5, r2
 80059fe:	f012 0203 	ands.w	r2, r2, #3
 8005a02:	4607      	mov	r7, r0
 8005a04:	460e      	mov	r6, r1
 8005a06:	d007      	beq.n	8005a18 <__pow5mult+0x20>
 8005a08:	4c25      	ldr	r4, [pc, #148]	@ (8005aa0 <__pow5mult+0xa8>)
 8005a0a:	3a01      	subs	r2, #1
 8005a0c:	2300      	movs	r3, #0
 8005a0e:	f854 2022 	ldr.w	r2, [r4, r2, lsl #2]
 8005a12:	f7ff fe55 	bl	80056c0 <__multadd>
 8005a16:	4606      	mov	r6, r0
 8005a18:	10ad      	asrs	r5, r5, #2
 8005a1a:	d03d      	beq.n	8005a98 <__pow5mult+0xa0>
 8005a1c:	69fc      	ldr	r4, [r7, #28]
 8005a1e:	b97c      	cbnz	r4, 8005a40 <__pow5mult+0x48>
 8005a20:	2010      	movs	r0, #16
 8005a22:	f7fd fe6d 	bl	8003700 <malloc>
 8005a26:	4602      	mov	r2, r0
 8005a28:	61f8      	str	r0, [r7, #28]
 8005a2a:	b928      	cbnz	r0, 8005a38 <__pow5mult+0x40>
 8005a2c:	4b1d      	ldr	r3, [pc, #116]	@ (8005aa4 <__pow5mult+0xac>)
 8005a2e:	481e      	ldr	r0, [pc, #120]	@ (8005aa8 <__pow5mult+0xb0>)
 8005a30:	f240 11b3 	movw	r1, #435	@ 0x1b3
 8005a34:	f001 fb68 	bl	8007108 <__assert_func>
 8005a38:	e9c0 4401 	strd	r4, r4, [r0, #4]
 8005a3c:	6004      	str	r4, [r0, #0]
 8005a3e:	60c4      	str	r4, [r0, #12]
 8005a40:	f8d7 801c 	ldr.w	r8, [r7, #28]
 8005a44:	f8d8 4008 	ldr.w	r4, [r8, #8]
 8005a48:	b94c      	cbnz	r4, 8005a5e <__pow5mult+0x66>
 8005a4a:	f240 2171 	movw	r1, #625	@ 0x271
 8005a4e:	4638      	mov	r0, r7
 8005a50:	f7ff ff12 	bl	8005878 <__i2b>
 8005a54:	2300      	movs	r3, #0
 8005a56:	f8c8 0008 	str.w	r0, [r8, #8]
 8005a5a:	4604      	mov	r4, r0
 8005a5c:	6003      	str	r3, [r0, #0]
 8005a5e:	f04f 0900 	mov.w	r9, #0
 8005a62:	07eb      	lsls	r3, r5, #31
 8005a64:	d50a      	bpl.n	8005a7c <__pow5mult+0x84>
 8005a66:	4631      	mov	r1, r6
 8005a68:	4622      	mov	r2, r4
 8005a6a:	4638      	mov	r0, r7
 8005a6c:	f7ff ff1a 	bl	80058a4 <__multiply>
 8005a70:	4631      	mov	r1, r6
 8005a72:	4680      	mov	r8, r0
 8005a74:	4638      	mov	r0, r7
 8005a76:	f7ff fe01 	bl	800567c <_Bfree>
 8005a7a:	4646      	mov	r6, r8
 8005a7c:	106d      	asrs	r5, r5, #1
 8005a7e:	d00b      	beq.n	8005a98 <__pow5mult+0xa0>
 8005a80:	6820      	ldr	r0, [r4, #0]
 8005a82:	b938      	cbnz	r0, 8005a94 <__pow5mult+0x9c>
 8005a84:	4622      	mov	r2, r4
 8005a86:	4621      	mov	r1, r4
 8005a88:	4638      	mov	r0, r7
 8005a8a:	f7ff ff0b 	bl	80058a4 <__multiply>
 8005a8e:	6020      	str	r0, [r4, #0]
 8005a90:	f8c0 9000 	str.w	r9, [r0]
 8005a94:	4604      	mov	r4, r0
 8005a96:	e7e4      	b.n	8005a62 <__pow5mult+0x6a>
 8005a98:	4630      	mov	r0, r6
 8005a9a:	e8bd 83f8 	ldmia.w	sp!, {r3, r4, r5, r6, r7, r8, r9, pc}
 8005a9e:	bf00      	nop
 8005aa0:	08008258 	.word	0x08008258
 8005aa4:	0800817f 	.word	0x0800817f
 8005aa8:	080081ff 	.word	0x080081ff

08005aac <__lshift>:
 8005aac:	e92d 47f0 	stmdb	sp!, {r4, r5, r6, r7, r8, r9, sl, lr}
 8005ab0:	460c      	mov	r4, r1
 8005ab2:	6849      	ldr	r1, [r1, #4]
 8005ab4:	6923      	ldr	r3, [r4, #16]
 8005ab6:	eb03 1862 	add.w	r8, r3, r2, asr #5
 8005aba:	68a3      	ldr	r3, [r4, #8]
 8005abc:	4607      	mov	r7, r0
 8005abe:	4691      	mov	r9, r2
 8005ac0:	ea4f 1a62 	mov.w	sl, r2, asr #5
 8005ac4:	f108 0601 	add.w	r6, r8, #1
 8005ac8:	42b3      	cmp	r3, r6
 8005aca:	db0b      	blt.n	8005ae4 <__lshift+0x38>
 8005acc:	4638      	mov	r0, r7
 8005ace:	f7ff fd95 	bl	80055fc <_Balloc>
 8005ad2:	4605      	mov	r5, r0
 8005ad4:	b948      	cbnz	r0, 8005aea <__lshift+0x3e>
 8005ad6:	4602      	mov	r2, r0
 8005ad8:	4b28      	ldr	r3, [pc, #160]	@ (8005b7c <__lshift+0xd0>)
 8005ada:	4829      	ldr	r0, [pc, #164]	@ (8005b80 <__lshift+0xd4>)
 8005adc:	f44f 71ef 	mov.w	r1, #478	@ 0x1de
 8005ae0:	f001 fb12 	bl	8007108 <__assert_func>
 8005ae4:	3101      	adds	r1, #1
 8005ae6:	005b      	lsls	r3, r3, #1
 8005ae8:	e7ee      	b.n	8005ac8 <__lshift+0x1c>
 8005aea:	2300      	movs	r3, #0
 8005aec:	f100 0114 	add.w	r1, r0, #20
 8005af0:	f100 0210 	add.w	r2, r0, #16
 8005af4:	4618      	mov	r0, r3
 8005af6:	4553      	cmp	r3, sl
 8005af8:	db33      	blt.n	8005b62 <__lshift+0xb6>
 8005afa:	6920      	ldr	r0, [r4, #16]
 8005afc:	ea2a 7aea 	bic.w	sl, sl, sl, asr #31
 8005b00:	f104 0314 	add.w	r3, r4, #20
 8005b04:	f019 091f 	ands.w	r9, r9, #31
 8005b08:	eb01 018a 	add.w	r1, r1, sl, lsl #2
 8005b0c:	eb03 0c80 	add.w	ip, r3, r0, lsl #2
 8005b10:	d02b      	beq.n	8005b6a <__lshift+0xbe>
 8005b12:	f1c9 0e20 	rsb	lr, r9, #32
 8005b16:	468a      	mov	sl, r1
 8005b18:	2200      	movs	r2, #0
 8005b1a:	6818      	ldr	r0, [r3, #0]
 8005b1c:	fa00 f009 	lsl.w	r0, r0, r9
 8005b20:	4310      	orrs	r0, r2
 8005b22:	f84a 0b04 	str.w	r0, [sl], #4
 8005b26:	f853 2b04 	ldr.w	r2, [r3], #4
 8005b2a:	459c      	cmp	ip, r3
 8005b2c:	fa22 f20e 	lsr.w	r2, r2, lr
 8005b30:	d8f3      	bhi.n	8005b1a <__lshift+0x6e>
 8005b32:	ebac 0304 	sub.w	r3, ip, r4
 8005b36:	3b15      	subs	r3, #21
 8005b38:	f023 0303 	bic.w	r3, r3, #3
 8005b3c:	3304      	adds	r3, #4
 8005b3e:	f104 0015 	add.w	r0, r4, #21
 8005b42:	4584      	cmp	ip, r0
 8005b44:	bf38      	it	cc
 8005b46:	2304      	movcc	r3, #4
 8005b48:	50ca      	str	r2, [r1, r3]
 8005b4a:	b10a      	cbz	r2, 8005b50 <__lshift+0xa4>
 8005b4c:	f108 0602 	add.w	r6, r8, #2
 8005b50:	3e01      	subs	r6, #1
 8005b52:	4638      	mov	r0, r7
 8005b54:	612e      	str	r6, [r5, #16]
 8005b56:	4621      	mov	r1, r4
 8005b58:	f7ff fd90 	bl	800567c <_Bfree>
 8005b5c:	4628      	mov	r0, r5
 8005b5e:	e8bd 87f0 	ldmia.w	sp!, {r4, r5, r6, r7, r8, r9, sl, pc}
 8005b62:	f842 0f04 	str.w	r0, [r2, #4]!
 8005b66:	3301      	adds	r3, #1
 8005b68:	e7c5      	b.n	8005af6 <__lshift+0x4a>
 8005b6a:	3904      	subs	r1, #4
 8005b6c:	f853 2b04 	ldr.w	r2, [r3], #4
 8005b70:	f841 2f04 	str.w	r2, [r1, #4]!
 8005b74:	459c      	cmp	ip, r3
 8005b76:	d8f9      	bhi.n	8005b6c <__lshift+0xc0>
 8005b78:	e7ea      	b.n	8005b50 <__lshift+0xa4>
 8005b7a:	bf00      	nop
 8005b7c:	080081ee 	.word	0x080081ee
 8005b80:	080081ff 	.word	0x080081ff

08005b84 <__mcmp>:
 8005b84:	690a      	ldr	r2, [r1, #16]
 8005b86:	4603      	mov	r3, r0
 8005b88:	6900      	ldr	r0, [r0, #16]
 8005b8a:	1a80      	subs	r0, r0, r2
 8005b8c:	b530      	push	{r4, r5, lr}
 8005b8e:	d10e      	bne.n	8005bae <__mcmp+0x2a>
 8005b90:	3314      	adds	r3, #20
 8005b92:	3114      	adds	r1, #20
 8005b94:	eb03 0482 	add.w	r4, r3, r2, lsl #2
 8005b98:	eb01 0182 	add.w	r1, r1, r2, lsl #2
 8005b9c:	f854 5d04 	ldr.w	r5, [r4, #-4]!
 8005ba0:	f851 2d04 	ldr.w	r2, [r1, #-4]!
 8005ba4:	4295      	cmp	r5, r2
 8005ba6:	d003      	beq.n	8005bb0 <__mcmp+0x2c>
 8005ba8:	d205      	bcs.n	8005bb6 <__mcmp+0x32>
 8005baa:	f04f 30ff 	mov.w	r0, #4294967295
 8005bae:	bd30      	pop	{r4, r5, pc}
 8005bb0:	42a3      	cmp	r3, r4
 8005bb2:	d3f3      	bcc.n	8005b9c <__mcmp+0x18>
 8005bb4:	e7fb      	b.n	8005bae <__mcmp+0x2a>
 8005bb6:	2001      	movs	r0, #1
 8005bb8:	e7f9      	b.n	8005bae <__mcmp+0x2a>
	...

08005bbc <__mdiff>:
 8005bbc:	e92d 4ff7 	stmdb	sp!, {r0, r1, r2, r4, r5, r6, r7, r8, r9, sl, fp, lr}
 8005bc0:	4689      	mov	r9, r1
 8005bc2:	4606      	mov	r6, r0
 8005bc4:	4611      	mov	r1, r2
 8005bc6:	4648      	mov	r0, r9
 8005bc8:	4614      	mov	r4, r2
 8005bca:	f7ff ffdb 	bl	8005b84 <__mcmp>
 8005bce:	1e05      	subs	r5, r0, #0
 8005bd0:	d112      	bne.n	8005bf8 <__mdiff+0x3c>
 8005bd2:	4629      	mov	r1, r5
 8005bd4:	4630      	mov	r0, r6
 8005bd6:	f7ff fd11 	bl	80055fc <_Balloc>
 8005bda:	4602      	mov	r2, r0
 8005bdc:	b928      	cbnz	r0, 8005bea <__mdiff+0x2e>
 8005bde:	4b3f      	ldr	r3, [pc, #252]	@ (8005cdc <__mdiff+0x120>)
 8005be0:	f240 2137 	movw	r1, #567	@ 0x237
 8005be4:	483e      	ldr	r0, [pc, #248]	@ (8005ce0 <__mdiff+0x124>)
 8005be6:	f001 fa8f 	bl	8007108 <__assert_func>
 8005bea:	2301      	movs	r3, #1
 8005bec:	e9c0 3504 	strd	r3, r5, [r0, #16]
 8005bf0:	4610      	mov	r0, r2
 8005bf2:	b003      	add	sp, #12
 8005bf4:	e8bd 8ff0 	ldmia.w	sp!, {r4, r5, r6, r7, r8, r9, sl, fp, pc}
 8005bf8:	bfbc      	itt	lt
 8005bfa:	464b      	movlt	r3, r9
 8005bfc:	46a1      	movlt	r9, r4
 8005bfe:	4630      	mov	r0, r6
 8005c00:	f8d9 1004 	ldr.w	r1, [r9, #4]
 8005c04:	bfba      	itte	lt
 8005c06:	461c      	movlt	r4, r3
 8005c08:	2501      	movlt	r5, #1
 8005c0a:	2500      	movge	r5, #0
 8005c0c:	f7ff fcf6 	bl	80055fc <_Balloc>
 8005c10:	4602      	mov	r2, r0
 8005c12:	b918      	cbnz	r0, 8005c1c <__mdiff+0x60>
 8005c14:	4b31      	ldr	r3, [pc, #196]	@ (8005cdc <__mdiff+0x120>)
 8005c16:	f240 2145 	movw	r1, #581	@ 0x245
 8005c1a:	e7e3      	b.n	8005be4 <__mdiff+0x28>
 8005c1c:	f8d9 7010 	ldr.w	r7, [r9, #16]
 8005c20:	6926      	ldr	r6, [r4, #16]
 8005c22:	60c5      	str	r5, [r0, #12]
 8005c24:	f109 0310 	add.w	r3, r9, #16
 8005c28:	f109 0514 	add.w	r5, r9, #20
 8005c2c:	f104 0e14 	add.w	lr, r4, #20
 8005c30:	f100 0b14 	add.w	fp, r0, #20
 8005c34:	eb05 0887 	add.w	r8, r5, r7, lsl #2
 8005c38:	eb0e 0686 	add.w	r6, lr, r6, lsl #2
 8005c3c:	9301      	str	r3, [sp, #4]
 8005c3e:	46d9      	mov	r9, fp
 8005c40:	f04f 0c00 	mov.w	ip, #0
 8005c44:	9b01      	ldr	r3, [sp, #4]
 8005c46:	f85e 0b04 	ldr.w	r0, [lr], #4
 8005c4a:	f853 af04 	ldr.w	sl, [r3, #4]!
 8005c4e:	9301      	str	r3, [sp, #4]
 8005c50:	fa1f f38a 	uxth.w	r3, sl
 8005c54:	4619      	mov	r1, r3
 8005c56:	b283      	uxth	r3, r0
 8005c58:	1acb      	subs	r3, r1, r3
 8005c5a:	0c00      	lsrs	r0, r0, #16
 8005c5c:	4463      	add	r3, ip
 8005c5e:	ebc0 401a 	rsb	r0, r0, sl, lsr #16
 8005c62:	eb00 4023 	add.w	r0, r0, r3, asr #16
 8005c66:	b29b      	uxth	r3, r3
 8005c68:	ea43 4300 	orr.w	r3, r3, r0, lsl #16
 8005c6c:	4576      	cmp	r6, lr
 8005c6e:	f849 3b04 	str.w	r3, [r9], #4
 8005c72:	ea4f 4c20 	mov.w	ip, r0, asr #16
 8005c76:	d8e5      	bhi.n	8005c44 <__mdiff+0x88>
 8005c78:	1b33      	subs	r3, r6, r4
 8005c7a:	3b15      	subs	r3, #21
 8005c7c:	f023 0303 	bic.w	r3, r3, #3
 8005c80:	3415      	adds	r4, #21
 8005c82:	3304      	adds	r3, #4
 8005c84:	42a6      	cmp	r6, r4
 8005c86:	bf38      	it	cc
 8005c88:	2304      	movcc	r3, #4
 8005c8a:	441d      	add	r5, r3
 8005c8c:	445b      	add	r3, fp
 8005c8e:	461e      	mov	r6, r3
 8005c90:	462c      	mov	r4, r5
 8005c92:	4544      	cmp	r4, r8
 8005c94:	d30e      	bcc.n	8005cb4 <__mdiff+0xf8>
 8005c96:	f108 0103 	add.w	r1, r8, #3
 8005c9a:	1b49      	subs	r1, r1, r5
 8005c9c:	f021 0103 	bic.w	r1, r1, #3
 8005ca0:	3d03      	subs	r5, #3
 8005ca2:	45a8      	cmp	r8, r5
 8005ca4:	bf38      	it	cc
 8005ca6:	2100      	movcc	r1, #0
 8005ca8:	440b      	add	r3, r1
 8005caa:	f853 1d04 	ldr.w	r1, [r3, #-4]!
 8005cae:	b191      	cbz	r1, 8005cd6 <__mdiff+0x11a>
 8005cb0:	6117      	str	r7, [r2, #16]
 8005cb2:	e79d      	b.n	8005bf0 <__mdiff+0x34>
 8005cb4:	f854 1b04 	ldr.w	r1, [r4], #4
 8005cb8:	46e6      	mov	lr, ip
 8005cba:	0c08      	lsrs	r0, r1, #16
 8005cbc:	fa1c fc81 	uxtah	ip, ip, r1
 8005cc0:	4471      	add	r1, lr
 8005cc2:	eb00 402c 	add.w	r0, r0, ip, asr #16
 8005cc6:	b289      	uxth	r1, r1
 8005cc8:	ea41 4100 	orr.w	r1, r1, r0, lsl #16
 8005ccc:	f846 1b04 	str.w	r1, [r6], #4
 8005cd0:	ea4f 4c20 	mov.w	ip, r0, asr #16
 8005cd4:	e7dd      	b.n	8005c92 <__mdiff+0xd6>
 8005cd6:	3f01      	subs	r7, #1
 8005cd8:	e7e7      	b.n	8005caa <__mdiff+0xee>
 8005cda:	bf00      	nop
 8005cdc:	080081ee 	.word	0x080081ee
 8005ce0:	080081ff 	.word	0x080081ff

08005ce4 <__ulp>:
 8005ce4:	b082      	sub	sp, #8
 8005ce6:	ed8d 0b00 	vstr	d0, [sp]
 8005cea:	9a01      	ldr	r2, [sp, #4]
 8005cec:	4b0f      	ldr	r3, [pc, #60]	@ (8005d2c <__ulp+0x48>)
 8005cee:	4013      	ands	r3, r2
 8005cf0:	f1a3 7350 	sub.w	r3, r3, #54525952	@ 0x3400000
 8005cf4:	2b00      	cmp	r3, #0
 8005cf6:	dc08      	bgt.n	8005d0a <__ulp+0x26>
 8005cf8:	425b      	negs	r3, r3
 8005cfa:	f1b3 7fa0 	cmp.w	r3, #20971520	@ 0x1400000
 8005cfe:	ea4f 5223 	mov.w	r2, r3, asr #20
 8005d02:	da04      	bge.n	8005d0e <__ulp+0x2a>
 8005d04:	f44f 2300 	mov.w	r3, #524288	@ 0x80000
 8005d08:	4113      	asrs	r3, r2
 8005d0a:	2200      	movs	r2, #0
 8005d0c:	e008      	b.n	8005d20 <__ulp+0x3c>
 8005d0e:	f1a2 0314 	sub.w	r3, r2, #20
 8005d12:	2b1e      	cmp	r3, #30
 8005d14:	bfda      	itte	le
 8005d16:	f04f 4200 	movle.w	r2, #2147483648	@ 0x80000000
 8005d1a:	40da      	lsrle	r2, r3
 8005d1c:	2201      	movgt	r2, #1
 8005d1e:	2300      	movs	r3, #0
 8005d20:	4619      	mov	r1, r3
 8005d22:	4610      	mov	r0, r2
 8005d24:	ec41 0b10 	vmov	d0, r0, r1
 8005d28:	b002      	add	sp, #8
 8005d2a:	4770      	bx	lr
 8005d2c:	7ff00000 	.word	0x7ff00000

08005d30 <__b2d>:
 8005d30:	e92d 41f0 	stmdb	sp!, {r4, r5, r6, r7, r8, lr}
 8005d34:	6906      	ldr	r6, [r0, #16]
 8005d36:	f100 0814 	add.w	r8, r0, #20
 8005d3a:	eb08 0686 	add.w	r6, r8, r6, lsl #2
 8005d3e:	1f37      	subs	r7, r6, #4
 8005d40:	f856 2c04 	ldr.w	r2, [r6, #-4]
 8005d44:	4610      	mov	r0, r2
 8005d46:	f7ff fd4b 	bl	80057e0 <__hi0bits>
 8005d4a:	f1c0 0320 	rsb	r3, r0, #32
 8005d4e:	280a      	cmp	r0, #10
 8005d50:	600b      	str	r3, [r1, #0]
 8005d52:	491b      	ldr	r1, [pc, #108]	@ (8005dc0 <__b2d+0x90>)
 8005d54:	dc15      	bgt.n	8005d82 <__b2d+0x52>
 8005d56:	f1c0 0c0b 	rsb	ip, r0, #11
 8005d5a:	fa22 f30c 	lsr.w	r3, r2, ip
 8005d5e:	45b8      	cmp	r8, r7
 8005d60:	ea43 0501 	orr.w	r5, r3, r1
 8005d64:	bf34      	ite	cc
 8005d66:	f856 3c08 	ldrcc.w	r3, [r6, #-8]
 8005d6a:	2300      	movcs	r3, #0
 8005d6c:	3015      	adds	r0, #21
 8005d6e:	fa02 f000 	lsl.w	r0, r2, r0
 8005d72:	fa23 f30c 	lsr.w	r3, r3, ip
 8005d76:	4303      	orrs	r3, r0
 8005d78:	461c      	mov	r4, r3
 8005d7a:	ec45 4b10 	vmov	d0, r4, r5
 8005d7e:	e8bd 81f0 	ldmia.w	sp!, {r4, r5, r6, r7, r8, pc}
 8005d82:	45b8      	cmp	r8, r7
 8005d84:	bf3a      	itte	cc
 8005d86:	f856 3c08 	ldrcc.w	r3, [r6, #-8]
 8005d8a:	f1a6 0708 	subcc.w	r7, r6, #8
 8005d8e:	2300      	movcs	r3, #0
 8005d90:	380b      	subs	r0, #11
 8005d92:	d012      	beq.n	8005dba <__b2d+0x8a>
 8005d94:	f1c0 0120 	rsb	r1, r0, #32
 8005d98:	fa23 f401 	lsr.w	r4, r3, r1
 8005d9c:	4082      	lsls	r2, r0
 8005d9e:	4322      	orrs	r2, r4
 8005da0:	4547      	cmp	r7, r8
 8005da2:	f042 557f 	orr.w	r5, r2, #1069547520	@ 0x3fc00000
 8005da6:	bf8c      	ite	hi
 8005da8:	f857 2c04 	ldrhi.w	r2, [r7, #-4]
 8005dac:	2200      	movls	r2, #0
 8005dae:	4083      	lsls	r3, r0
 8005db0:	40ca      	lsrs	r2, r1
 8005db2:	f445 1540 	orr.w	r5, r5, #3145728	@ 0x300000
 8005db6:	4313      	orrs	r3, r2
 8005db8:	e7de      	b.n	8005d78 <__b2d+0x48>
 8005dba:	ea42 0501 	orr.w	r5, r2, r1
 8005dbe:	e7db      	b.n	8005d78 <__b2d+0x48>
 8005dc0:	3ff00000 	.word	0x3ff00000

08005dc4 <__d2b>:
 8005dc4:	e92d 43f7 	stmdb	sp!, {r0, r1, r2, r4, r5, r6, r7, r8, r9, lr}
 8005dc8:	460f      	mov	r7, r1
 8005dca:	2101      	movs	r1, #1
 8005dcc:	ec59 8b10 	vmov	r8, r9, d0
 8005dd0:	4616      	mov	r6, r2
 8005dd2:	f7ff fc13 	bl	80055fc <_Balloc>
 8005dd6:	4604      	mov	r4, r0
 8005dd8:	b930      	cbnz	r0, 8005de8 <__d2b+0x24>
 8005dda:	4602      	mov	r2, r0
 8005ddc:	4b23      	ldr	r3, [pc, #140]	@ (8005e6c <__d2b+0xa8>)
 8005dde:	4824      	ldr	r0, [pc, #144]	@ (8005e70 <__d2b+0xac>)
 8005de0:	f240 310f 	movw	r1, #783	@ 0x30f
 8005de4:	f001 f990 	bl	8007108 <__assert_func>
 8005de8:	f3c9 550a 	ubfx	r5, r9, #20, #11
 8005dec:	f3c9 0313 	ubfx	r3, r9, #0, #20
 8005df0:	b10d      	cbz	r5, 8005df6 <__d2b+0x32>
 8005df2:	f443 1380 	orr.w	r3, r3, #1048576	@ 0x100000
 8005df6:	9301      	str	r3, [sp, #4]
 8005df8:	f1b8 0300 	subs.w	r3, r8, #0
 8005dfc:	d023      	beq.n	8005e46 <__d2b+0x82>
 8005dfe:	4668      	mov	r0, sp
 8005e00:	9300      	str	r3, [sp, #0]
 8005e02:	f7ff fd0c 	bl	800581e <__lo0bits>
 8005e06:	e9dd 1200 	ldrd	r1, r2, [sp]
 8005e0a:	b1d0      	cbz	r0, 8005e42 <__d2b+0x7e>
 8005e0c:	f1c0 0320 	rsb	r3, r0, #32
 8005e10:	fa02 f303 	lsl.w	r3, r2, r3
 8005e14:	430b      	orrs	r3, r1
 8005e16:	40c2      	lsrs	r2, r0
 8005e18:	6163      	str	r3, [r4, #20]
 8005e1a:	9201      	str	r2, [sp, #4]
 8005e1c:	9b01      	ldr	r3, [sp, #4]
 8005e1e:	61a3      	str	r3, [r4, #24]
 8005e20:	2b00      	cmp	r3, #0
 8005e22:	bf0c      	ite	eq
 8005e24:	2201      	moveq	r2, #1
 8005e26:	2202      	movne	r2, #2
 8005e28:	6122      	str	r2, [r4, #16]
 8005e2a:	b1a5      	cbz	r5, 8005e56 <__d2b+0x92>
 8005e2c:	f2a5 4533 	subw	r5, r5, #1075	@ 0x433
 8005e30:	4405      	add	r5, r0
 8005e32:	603d      	str	r5, [r7, #0]
 8005e34:	f1c0 0035 	rsb	r0, r0, #53	@ 0x35
 8005e38:	6030      	str	r0, [r6, #0]
 8005e3a:	4620      	mov	r0, r4
 8005e3c:	b003      	add	sp, #12
 8005e3e:	e8bd 83f0 	ldmia.w	sp!, {r4, r5, r6, r7, r8, r9, pc}
 8005e42:	6161      	str	r1, [r4, #20]
 8005e44:	e7ea      	b.n	8005e1c <__d2b+0x58>
 8005e46:	a801      	add	r0, sp, #4
 8005e48:	f7ff fce9 	bl	800581e <__lo0bits>
 8005e4c:	9b01      	ldr	r3, [sp, #4]
 8005e4e:	6163      	str	r3, [r4, #20]
 8005e50:	3020      	adds	r0, #32
 8005e52:	2201      	movs	r2, #1
 8005e54:	e7e8      	b.n	8005e28 <__d2b+0x64>
 8005e56:	eb04 0382 	add.w	r3, r4, r2, lsl #2
 8005e5a:	f2a0 4032 	subw	r0, r0, #1074	@ 0x432
 8005e5e:	6038      	str	r0, [r7, #0]
 8005e60:	6918      	ldr	r0, [r3, #16]
 8005e62:	f7ff fcbd 	bl	80057e0 <__hi0bits>
 8005e66:	ebc0 1042 	rsb	r0, r0, r2, lsl #5
 8005e6a:	e7e5      	b.n	8005e38 <__d2b+0x74>
 8005e6c:	080081ee 	.word	0x080081ee
 8005e70:	080081ff 	.word	0x080081ff

08005e74 <__ratio>:
 8005e74:	e92d 4ff0 	stmdb	sp!, {r4, r5, r6, r7, r8, r9, sl, fp, lr}
 8005e78:	b085      	sub	sp, #20
 8005e7a:	e9cd 1000 	strd	r1, r0, [sp]
 8005e7e:	a902      	add	r1, sp, #8
 8005e80:	f7ff ff56 	bl	8005d30 <__b2d>
 8005e84:	9800      	ldr	r0, [sp, #0]
 8005e86:	a903      	add	r1, sp, #12
 8005e88:	ec55 4b10 	vmov	r4, r5, d0
 8005e8c:	f7ff ff50 	bl	8005d30 <__b2d>
 8005e90:	9b01      	ldr	r3, [sp, #4]
 8005e92:	6919      	ldr	r1, [r3, #16]
 8005e94:	9b00      	ldr	r3, [sp, #0]
 8005e96:	691b      	ldr	r3, [r3, #16]
 8005e98:	1ac9      	subs	r1, r1, r3
 8005e9a:	e9dd 3202 	ldrd	r3, r2, [sp, #8]
 8005e9e:	1a9b      	subs	r3, r3, r2
 8005ea0:	ec5b ab10 	vmov	sl, fp, d0
 8005ea4:	eb03 1341 	add.w	r3, r3, r1, lsl #5
 8005ea8:	2b00      	cmp	r3, #0
 8005eaa:	bfce      	itee	gt
 8005eac:	462a      	movgt	r2, r5
 8005eae:	ebc3 3303 	rsble	r3, r3, r3, lsl #12
 8005eb2:	465a      	movle	r2, fp
 8005eb4:	462f      	mov	r7, r5
 8005eb6:	46d9      	mov	r9, fp
 8005eb8:	bfcc      	ite	gt
 8005eba:	eb02 5703 	addgt.w	r7, r2, r3, lsl #20
 8005ebe:	eb02 5903 	addle.w	r9, r2, r3, lsl #20
 8005ec2:	464b      	mov	r3, r9
 8005ec4:	4652      	mov	r2, sl
 8005ec6:	4620      	mov	r0, r4
 8005ec8:	4639      	mov	r1, r7
 8005eca:	f7fa fcdf 	bl	800088c <__aeabi_ddiv>
 8005ece:	ec41 0b10 	vmov	d0, r0, r1
 8005ed2:	b005      	add	sp, #20
 8005ed4:	e8bd 8ff0 	ldmia.w	sp!, {r4, r5, r6, r7, r8, r9, sl, fp, pc}

08005ed8 <__copybits>:
 8005ed8:	3901      	subs	r1, #1
 8005eda:	b570      	push	{r4, r5, r6, lr}
 8005edc:	1149      	asrs	r1, r1, #5
 8005ede:	6914      	ldr	r4, [r2, #16]
 8005ee0:	3101      	adds	r1, #1
 8005ee2:	f102 0314 	add.w	r3, r2, #20
 8005ee6:	eb00 0181 	add.w	r1, r0, r1, lsl #2
 8005eea:	eb03 0484 	add.w	r4, r3, r4, lsl #2
 8005eee:	1f05      	subs	r5, r0, #4
 8005ef0:	42a3      	cmp	r3, r4
 8005ef2:	d30c      	bcc.n	8005f0e <__copybits+0x36>
 8005ef4:	1aa3      	subs	r3, r4, r2
 8005ef6:	3b11      	subs	r3, #17
 8005ef8:	f023 0303 	bic.w	r3, r3, #3
 8005efc:	3211      	adds	r2, #17
 8005efe:	42a2      	cmp	r2, r4
 8005f00:	bf88      	it	hi
 8005f02:	2300      	movhi	r3, #0
 8005f04:	4418      	add	r0, r3
 8005f06:	2300      	movs	r3, #0
 8005f08:	4288      	cmp	r0, r1
 8005f0a:	d305      	bcc.n	8005f18 <__copybits+0x40>
 8005f0c:	bd70      	pop	{r4, r5, r6, pc}
 8005f0e:	f853 6b04 	ldr.w	r6, [r3], #4
 8005f12:	f845 6f04 	str.w	r6, [r5, #4]!
 8005f16:	e7eb      	b.n	8005ef0 <__copybits+0x18>
 8005f18:	f840 3b04 	str.w	r3, [r0], #4
 8005f1c:	e7f4      	b.n	8005f08 <__copybits+0x30>

08005f1e <__any_on>:
 8005f1e:	f100 0214 	add.w	r2, r0, #20
 8005f22:	6900      	ldr	r0, [r0, #16]
 8005f24:	114b      	asrs	r3, r1, #5
 8005f26:	4298      	cmp	r0, r3
 8005f28:	b510      	push	{r4, lr}
 8005f2a:	db11      	blt.n	8005f50 <__any_on+0x32>
 8005f2c:	dd0a      	ble.n	8005f44 <__any_on+0x26>
 8005f2e:	f011 011f 	ands.w	r1, r1, #31
 8005f32:	d007      	beq.n	8005f44 <__any_on+0x26>
 8005f34:	f852 4023 	ldr.w	r4, [r2, r3, lsl #2]
 8005f38:	fa24 f001 	lsr.w	r0, r4, r1
 8005f3c:	fa00 f101 	lsl.w	r1, r0, r1
 8005f40:	428c      	cmp	r4, r1
 8005f42:	d10b      	bne.n	8005f5c <__any_on+0x3e>
 8005f44:	eb02 0383 	add.w	r3, r2, r3, lsl #2
 8005f48:	4293      	cmp	r3, r2
 8005f4a:	d803      	bhi.n	8005f54 <__any_on+0x36>
 8005f4c:	2000      	movs	r0, #0
 8005f4e:	bd10      	pop	{r4, pc}
 8005f50:	4603      	mov	r3, r0
 8005f52:	e7f7      	b.n	8005f44 <__any_on+0x26>
 8005f54:	f853 1d04 	ldr.w	r1, [r3, #-4]!
 8005f58:	2900      	cmp	r1, #0
 8005f5a:	d0f5      	beq.n	8005f48 <__any_on+0x2a>
 8005f5c:	2001      	movs	r0, #1
 8005f5e:	e7f6      	b.n	8005f4e <__any_on+0x30>

08005f60 <sulp>:
 8005f60:	b570      	push	{r4, r5, r6, lr}
 8005f62:	4604      	mov	r4, r0
 8005f64:	460d      	mov	r5, r1
 8005f66:	ec45 4b10 	vmov	d0, r4, r5
 8005f6a:	4616      	mov	r6, r2
 8005f6c:	f7ff feba 	bl	8005ce4 <__ulp>
 8005f70:	ec51 0b10 	vmov	r0, r1, d0
 8005f74:	b17e      	cbz	r6, 8005f96 <sulp+0x36>
 8005f76:	f3c5 530a 	ubfx	r3, r5, #20, #11
 8005f7a:	f1c3 036b 	rsb	r3, r3, #107	@ 0x6b
 8005f7e:	2b00      	cmp	r3, #0
 8005f80:	dd09      	ble.n	8005f96 <sulp+0x36>
 8005f82:	051b      	lsls	r3, r3, #20
 8005f84:	f103 557f 	add.w	r5, r3, #1069547520	@ 0x3fc00000
 8005f88:	2400      	movs	r4, #0
 8005f8a:	f505 1540 	add.w	r5, r5, #3145728	@ 0x300000
 8005f8e:	4622      	mov	r2, r4
 8005f90:	462b      	mov	r3, r5
 8005f92:	f7fa fb51 	bl	8000638 <__aeabi_dmul>
 8005f96:	ec41 0b10 	vmov	d0, r0, r1
 8005f9a:	bd70      	pop	{r4, r5, r6, pc}
 8005f9c:	0000      	movs	r0, r0
	...

08005fa0 <_strtod_l>:
 8005fa0:	e92d 4ff0 	stmdb	sp!, {r4, r5, r6, r7, r8, r9, sl, fp, lr}
 8005fa4:	b09f      	sub	sp, #124	@ 0x7c
 8005fa6:	460c      	mov	r4, r1
 8005fa8:	9217      	str	r2, [sp, #92]	@ 0x5c
 8005faa:	2200      	movs	r2, #0
 8005fac:	921a      	str	r2, [sp, #104]	@ 0x68
 8005fae:	9005      	str	r0, [sp, #20]
 8005fb0:	f04f 0a00 	mov.w	sl, #0
 8005fb4:	f04f 0b00 	mov.w	fp, #0
 8005fb8:	460a      	mov	r2, r1
 8005fba:	9219      	str	r2, [sp, #100]	@ 0x64
 8005fbc:	7811      	ldrb	r1, [r2, #0]
 8005fbe:	292b      	cmp	r1, #43	@ 0x2b
 8005fc0:	d04a      	beq.n	8006058 <_strtod_l+0xb8>
 8005fc2:	d838      	bhi.n	8006036 <_strtod_l+0x96>
 8005fc4:	290d      	cmp	r1, #13
 8005fc6:	d832      	bhi.n	800602e <_strtod_l+0x8e>
 8005fc8:	2908      	cmp	r1, #8
 8005fca:	d832      	bhi.n	8006032 <_strtod_l+0x92>
 8005fcc:	2900      	cmp	r1, #0
 8005fce:	d03b      	beq.n	8006048 <_strtod_l+0xa8>
 8005fd0:	2200      	movs	r2, #0
 8005fd2:	920b      	str	r2, [sp, #44]	@ 0x2c
 8005fd4:	9d19      	ldr	r5, [sp, #100]	@ 0x64
 8005fd6:	782a      	ldrb	r2, [r5, #0]
 8005fd8:	2a30      	cmp	r2, #48	@ 0x30
 8005fda:	f040 80b3 	bne.w	8006144 <_strtod_l+0x1a4>
 8005fde:	786a      	ldrb	r2, [r5, #1]
 8005fe0:	f002 02df 	and.w	r2, r2, #223	@ 0xdf
 8005fe4:	2a58      	cmp	r2, #88	@ 0x58
 8005fe6:	d16e      	bne.n	80060c6 <_strtod_l+0x126>
 8005fe8:	9302      	str	r3, [sp, #8]
 8005fea:	9b0b      	ldr	r3, [sp, #44]	@ 0x2c
 8005fec:	9301      	str	r3, [sp, #4]
 8005fee:	ab1a      	add	r3, sp, #104	@ 0x68
 8005ff0:	9300      	str	r3, [sp, #0]
 8005ff2:	4a8e      	ldr	r2, [pc, #568]	@ (800622c <_strtod_l+0x28c>)
 8005ff4:	9805      	ldr	r0, [sp, #20]
 8005ff6:	ab1b      	add	r3, sp, #108	@ 0x6c
 8005ff8:	a919      	add	r1, sp, #100	@ 0x64
 8005ffa:	f001 f90b 	bl	8007214 <__gethex>
 8005ffe:	f010 060f 	ands.w	r6, r0, #15
 8006002:	4604      	mov	r4, r0
 8006004:	d005      	beq.n	8006012 <_strtod_l+0x72>
 8006006:	2e06      	cmp	r6, #6
 8006008:	d128      	bne.n	800605c <_strtod_l+0xbc>
 800600a:	3501      	adds	r5, #1
 800600c:	2300      	movs	r3, #0
 800600e:	9519      	str	r5, [sp, #100]	@ 0x64
 8006010:	930b      	str	r3, [sp, #44]	@ 0x2c
 8006012:	9b17      	ldr	r3, [sp, #92]	@ 0x5c
 8006014:	2b00      	cmp	r3, #0
 8006016:	f040 858e 	bne.w	8006b36 <_strtod_l+0xb96>
 800601a:	9b0b      	ldr	r3, [sp, #44]	@ 0x2c
 800601c:	b1cb      	cbz	r3, 8006052 <_strtod_l+0xb2>
 800601e:	4652      	mov	r2, sl
 8006020:	f10b 4300 	add.w	r3, fp, #2147483648	@ 0x80000000
 8006024:	ec43 2b10 	vmov	d0, r2, r3
 8006028:	b01f      	add	sp, #124	@ 0x7c
 800602a:	e8bd 8ff0 	ldmia.w	sp!, {r4, r5, r6, r7, r8, r9, sl, fp, pc}
 800602e:	2920      	cmp	r1, #32
 8006030:	d1ce      	bne.n	8005fd0 <_strtod_l+0x30>
 8006032:	3201      	adds	r2, #1
 8006034:	e7c1      	b.n	8005fba <_strtod_l+0x1a>
 8006036:	292d      	cmp	r1, #45	@ 0x2d
 8006038:	d1ca      	bne.n	8005fd0 <_strtod_l+0x30>
 800603a:	2101      	movs	r1, #1
 800603c:	910b      	str	r1, [sp, #44]	@ 0x2c
 800603e:	1c51      	adds	r1, r2, #1
 8006040:	9119      	str	r1, [sp, #100]	@ 0x64
 8006042:	7852      	ldrb	r2, [r2, #1]
 8006044:	2a00      	cmp	r2, #0
 8006046:	d1c5      	bne.n	8005fd4 <_strtod_l+0x34>
 8006048:	9b17      	ldr	r3, [sp, #92]	@ 0x5c
 800604a:	9419      	str	r4, [sp, #100]	@ 0x64
 800604c:	2b00      	cmp	r3, #0
 800604e:	f040 8570 	bne.w	8006b32 <_strtod_l+0xb92>
 8006052:	4652      	mov	r2, sl
 8006054:	465b      	mov	r3, fp
 8006056:	e7e5      	b.n	8006024 <_strtod_l+0x84>
 8006058:	2100      	movs	r1, #0
 800605a:	e7ef      	b.n	800603c <_strtod_l+0x9c>
 800605c:	9a1a      	ldr	r2, [sp, #104]	@ 0x68
 800605e:	b13a      	cbz	r2, 8006070 <_strtod_l+0xd0>
 8006060:	2135      	movs	r1, #53	@ 0x35
 8006062:	a81c      	add	r0, sp, #112	@ 0x70
 8006064:	f7ff ff38 	bl	8005ed8 <__copybits>
 8006068:	991a      	ldr	r1, [sp, #104]	@ 0x68
 800606a:	9805      	ldr	r0, [sp, #20]
 800606c:	f7ff fb06 	bl	800567c <_Bfree>
 8006070:	3e01      	subs	r6, #1
 8006072:	9a1b      	ldr	r2, [sp, #108]	@ 0x6c
 8006074:	2e04      	cmp	r6, #4
 8006076:	d806      	bhi.n	8006086 <_strtod_l+0xe6>
 8006078:	e8df f006 	tbb	[pc, r6]
 800607c:	201d0314 	.word	0x201d0314
 8006080:	14          	.byte	0x14
 8006081:	00          	.byte	0x00
 8006082:	e9dd ab1c 	ldrd	sl, fp, [sp, #112]	@ 0x70
 8006086:	05e1      	lsls	r1, r4, #23
 8006088:	bf48      	it	mi
 800608a:	f04b 4b00 	orrmi.w	fp, fp, #2147483648	@ 0x80000000
 800608e:	f02b 4300 	bic.w	r3, fp, #2147483648	@ 0x80000000
 8006092:	0d1b      	lsrs	r3, r3, #20
 8006094:	051b      	lsls	r3, r3, #20
 8006096:	2b00      	cmp	r3, #0
 8006098:	d1bb      	bne.n	8006012 <_strtod_l+0x72>
 800609a:	f001 f817 	bl	80070cc <__errno>
 800609e:	2322      	movs	r3, #34	@ 0x22
 80060a0:	6003      	str	r3, [r0, #0]
 80060a2:	e7b6      	b.n	8006012 <_strtod_l+0x72>
 80060a4:	e9dd a31c 	ldrd	sl, r3, [sp, #112]	@ 0x70
 80060a8:	f202 4233 	addw	r2, r2, #1075	@ 0x433
 80060ac:	f423 1380 	bic.w	r3, r3, #1048576	@ 0x100000
 80060b0:	ea43 5b02 	orr.w	fp, r3, r2, lsl #20
 80060b4:	e7e7      	b.n	8006086 <_strtod_l+0xe6>
 80060b6:	f8df b17c 	ldr.w	fp, [pc, #380]	@ 8006234 <_strtod_l+0x294>
 80060ba:	e7e4      	b.n	8006086 <_strtod_l+0xe6>
 80060bc:	f06f 4b00 	mvn.w	fp, #2147483648	@ 0x80000000
 80060c0:	f04f 3aff 	mov.w	sl, #4294967295
 80060c4:	e7df      	b.n	8006086 <_strtod_l+0xe6>
 80060c6:	9b19      	ldr	r3, [sp, #100]	@ 0x64
 80060c8:	1c5a      	adds	r2, r3, #1
 80060ca:	9219      	str	r2, [sp, #100]	@ 0x64
 80060cc:	785b      	ldrb	r3, [r3, #1]
 80060ce:	2b30      	cmp	r3, #48	@ 0x30
 80060d0:	d0f9      	beq.n	80060c6 <_strtod_l+0x126>
 80060d2:	2b00      	cmp	r3, #0
 80060d4:	d09d      	beq.n	8006012 <_strtod_l+0x72>
 80060d6:	2301      	movs	r3, #1
 80060d8:	9309      	str	r3, [sp, #36]	@ 0x24
 80060da:	9b19      	ldr	r3, [sp, #100]	@ 0x64
 80060dc:	930c      	str	r3, [sp, #48]	@ 0x30
 80060de:	2300      	movs	r3, #0
 80060e0:	9308      	str	r3, [sp, #32]
 80060e2:	930a      	str	r3, [sp, #40]	@ 0x28
 80060e4:	461f      	mov	r7, r3
 80060e6:	220a      	movs	r2, #10
 80060e8:	9819      	ldr	r0, [sp, #100]	@ 0x64
 80060ea:	7805      	ldrb	r5, [r0, #0]
 80060ec:	f1a5 0330 	sub.w	r3, r5, #48	@ 0x30
 80060f0:	b2d9      	uxtb	r1, r3
 80060f2:	2909      	cmp	r1, #9
 80060f4:	d928      	bls.n	8006148 <_strtod_l+0x1a8>
 80060f6:	494e      	ldr	r1, [pc, #312]	@ (8006230 <_strtod_l+0x290>)
 80060f8:	2201      	movs	r2, #1
 80060fa:	f000 ffd5 	bl	80070a8 <strncmp>
 80060fe:	2800      	cmp	r0, #0
 8006100:	d032      	beq.n	8006168 <_strtod_l+0x1c8>
 8006102:	2000      	movs	r0, #0
 8006104:	462a      	mov	r2, r5
 8006106:	4681      	mov	r9, r0
 8006108:	463d      	mov	r5, r7
 800610a:	4603      	mov	r3, r0
 800610c:	2a65      	cmp	r2, #101	@ 0x65
 800610e:	d001      	beq.n	8006114 <_strtod_l+0x174>
 8006110:	2a45      	cmp	r2, #69	@ 0x45
 8006112:	d114      	bne.n	800613e <_strtod_l+0x19e>
 8006114:	b91d      	cbnz	r5, 800611e <_strtod_l+0x17e>
 8006116:	9a09      	ldr	r2, [sp, #36]	@ 0x24
 8006118:	4302      	orrs	r2, r0
 800611a:	d095      	beq.n	8006048 <_strtod_l+0xa8>
 800611c:	2500      	movs	r5, #0
 800611e:	9c19      	ldr	r4, [sp, #100]	@ 0x64
 8006120:	1c62      	adds	r2, r4, #1
 8006122:	9219      	str	r2, [sp, #100]	@ 0x64
 8006124:	7862      	ldrb	r2, [r4, #1]
 8006126:	2a2b      	cmp	r2, #43	@ 0x2b
 8006128:	d077      	beq.n	800621a <_strtod_l+0x27a>
 800612a:	2a2d      	cmp	r2, #45	@ 0x2d
 800612c:	d07b      	beq.n	8006226 <_strtod_l+0x286>
 800612e:	f04f 0c00 	mov.w	ip, #0
 8006132:	f1a2 0130 	sub.w	r1, r2, #48	@ 0x30
 8006136:	2909      	cmp	r1, #9
 8006138:	f240 8082 	bls.w	8006240 <_strtod_l+0x2a0>
 800613c:	9419      	str	r4, [sp, #100]	@ 0x64
 800613e:	f04f 0800 	mov.w	r8, #0
 8006142:	e0a2      	b.n	800628a <_strtod_l+0x2ea>
 8006144:	2300      	movs	r3, #0
 8006146:	e7c7      	b.n	80060d8 <_strtod_l+0x138>
 8006148:	2f08      	cmp	r7, #8
 800614a:	bfd5      	itete	le
 800614c:	990a      	ldrle	r1, [sp, #40]	@ 0x28
 800614e:	9908      	ldrgt	r1, [sp, #32]
 8006150:	fb02 3301 	mlale	r3, r2, r1, r3
 8006154:	fb02 3301 	mlagt	r3, r2, r1, r3
 8006158:	f100 0001 	add.w	r0, r0, #1
 800615c:	bfd4      	ite	le
 800615e:	930a      	strle	r3, [sp, #40]	@ 0x28
 8006160:	9308      	strgt	r3, [sp, #32]
 8006162:	3701      	adds	r7, #1
 8006164:	9019      	str	r0, [sp, #100]	@ 0x64
 8006166:	e7bf      	b.n	80060e8 <_strtod_l+0x148>
 8006168:	9b19      	ldr	r3, [sp, #100]	@ 0x64
 800616a:	1c5a      	adds	r2, r3, #1
 800616c:	9219      	str	r2, [sp, #100]	@ 0x64
 800616e:	785a      	ldrb	r2, [r3, #1]
 8006170:	b37f      	cbz	r7, 80061d2 <_strtod_l+0x232>
 8006172:	4681      	mov	r9, r0
 8006174:	463d      	mov	r5, r7
 8006176:	f1a2 0330 	sub.w	r3, r2, #48	@ 0x30
 800617a:	2b09      	cmp	r3, #9
 800617c:	d912      	bls.n	80061a4 <_strtod_l+0x204>
 800617e:	2301      	movs	r3, #1
 8006180:	e7c4      	b.n	800610c <_strtod_l+0x16c>
 8006182:	9b19      	ldr	r3, [sp, #100]	@ 0x64
 8006184:	1c5a      	adds	r2, r3, #1
 8006186:	9219      	str	r2, [sp, #100]	@ 0x64
 8006188:	785a      	ldrb	r2, [r3, #1]
 800618a:	3001      	adds	r0, #1
 800618c:	2a30      	cmp	r2, #48	@ 0x30
 800618e:	d0f8      	beq.n	8006182 <_strtod_l+0x1e2>
 8006190:	f1a2 0331 	sub.w	r3, r2, #49	@ 0x31
 8006194:	2b08      	cmp	r3, #8
 8006196:	f200 84d3 	bhi.w	8006b40 <_strtod_l+0xba0>
 800619a:	9b19      	ldr	r3, [sp, #100]	@ 0x64
 800619c:	930c      	str	r3, [sp, #48]	@ 0x30
 800619e:	4681      	mov	r9, r0
 80061a0:	2000      	movs	r0, #0
 80061a2:	4605      	mov	r5, r0
 80061a4:	3a30      	subs	r2, #48	@ 0x30
 80061a6:	f100 0301 	add.w	r3, r0, #1
 80061aa:	d02a      	beq.n	8006202 <_strtod_l+0x262>
 80061ac:	4499      	add	r9, r3
 80061ae:	eb00 0c05 	add.w	ip, r0, r5
 80061b2:	462b      	mov	r3, r5
 80061b4:	210a      	movs	r1, #10
 80061b6:	4563      	cmp	r3, ip
 80061b8:	d10d      	bne.n	80061d6 <_strtod_l+0x236>
 80061ba:	1c69      	adds	r1, r5, #1
 80061bc:	4401      	add	r1, r0
 80061be:	4428      	add	r0, r5
 80061c0:	2808      	cmp	r0, #8
 80061c2:	dc16      	bgt.n	80061f2 <_strtod_l+0x252>
 80061c4:	980a      	ldr	r0, [sp, #40]	@ 0x28
 80061c6:	230a      	movs	r3, #10
 80061c8:	fb03 2300 	mla	r3, r3, r0, r2
 80061cc:	930a      	str	r3, [sp, #40]	@ 0x28
 80061ce:	2300      	movs	r3, #0
 80061d0:	e018      	b.n	8006204 <_strtod_l+0x264>
 80061d2:	4638      	mov	r0, r7
 80061d4:	e7da      	b.n	800618c <_strtod_l+0x1ec>
 80061d6:	2b08      	cmp	r3, #8
 80061d8:	f103 0301 	add.w	r3, r3, #1
 80061dc:	dc03      	bgt.n	80061e6 <_strtod_l+0x246>
 80061de:	9e0a      	ldr	r6, [sp, #40]	@ 0x28
 80061e0:	434e      	muls	r6, r1
 80061e2:	960a      	str	r6, [sp, #40]	@ 0x28
 80061e4:	e7e7      	b.n	80061b6 <_strtod_l+0x216>
 80061e6:	2b10      	cmp	r3, #16
 80061e8:	bfde      	ittt	le
 80061ea:	9e08      	ldrle	r6, [sp, #32]
 80061ec:	434e      	mulle	r6, r1
 80061ee:	9608      	strle	r6, [sp, #32]
 80061f0:	e7e1      	b.n	80061b6 <_strtod_l+0x216>
 80061f2:	280f      	cmp	r0, #15
 80061f4:	dceb      	bgt.n	80061ce <_strtod_l+0x22e>
 80061f6:	9808      	ldr	r0, [sp, #32]
 80061f8:	230a      	movs	r3, #10
 80061fa:	fb03 2300 	mla	r3, r3, r0, r2
 80061fe:	9308      	str	r3, [sp, #32]
 8006200:	e7e5      	b.n	80061ce <_strtod_l+0x22e>
 8006202:	4629      	mov	r1, r5
 8006204:	9a19      	ldr	r2, [sp, #100]	@ 0x64
 8006206:	1c50      	adds	r0, r2, #1
 8006208:	9019      	str	r0, [sp, #100]	@ 0x64
 800620a:	7852      	ldrb	r2, [r2, #1]
 800620c:	4618      	mov	r0, r3
 800620e:	460d      	mov	r5, r1
 8006210:	e7b1      	b.n	8006176 <_strtod_l+0x1d6>
 8006212:	f04f 0900 	mov.w	r9, #0
 8006216:	2301      	movs	r3, #1
 8006218:	e77d      	b.n	8006116 <_strtod_l+0x176>
 800621a:	f04f 0c00 	mov.w	ip, #0
 800621e:	1ca2      	adds	r2, r4, #2
 8006220:	9219      	str	r2, [sp, #100]	@ 0x64
 8006222:	78a2      	ldrb	r2, [r4, #2]
 8006224:	e785      	b.n	8006132 <_strtod_l+0x192>
 8006226:	f04f 0c01 	mov.w	ip, #1
 800622a:	e7f8      	b.n	800621e <_strtod_l+0x27e>
 800622c:	08008370 	.word	0x08008370
 8006230:	08008358 	.word	0x08008358
 8006234:	7ff00000 	.word	0x7ff00000
 8006238:	9a19      	ldr	r2, [sp, #100]	@ 0x64
 800623a:	1c51      	adds	r1, r2, #1
 800623c:	9119      	str	r1, [sp, #100]	@ 0x64
 800623e:	7852      	ldrb	r2, [r2, #1]
 8006240:	2a30      	cmp	r2, #48	@ 0x30
 8006242:	d0f9      	beq.n	8006238 <_strtod_l+0x298>
 8006244:	f1a2 0131 	sub.w	r1, r2, #49	@ 0x31
 8006248:	2908      	cmp	r1, #8
 800624a:	f63f af78 	bhi.w	800613e <_strtod_l+0x19e>
 800624e:	3a30      	subs	r2, #48	@ 0x30
 8006250:	920e      	str	r2, [sp, #56]	@ 0x38
 8006252:	9a19      	ldr	r2, [sp, #100]	@ 0x64
 8006254:	920f      	str	r2, [sp, #60]	@ 0x3c
 8006256:	f04f 080a 	mov.w	r8, #10
 800625a:	9a19      	ldr	r2, [sp, #100]	@ 0x64
 800625c:	1c56      	adds	r6, r2, #1
 800625e:	9619      	str	r6, [sp, #100]	@ 0x64
 8006260:	7852      	ldrb	r2, [r2, #1]
 8006262:	f1a2 0e30 	sub.w	lr, r2, #48	@ 0x30
 8006266:	f1be 0f09 	cmp.w	lr, #9
 800626a:	d939      	bls.n	80062e0 <_strtod_l+0x340>
 800626c:	990f      	ldr	r1, [sp, #60]	@ 0x3c
 800626e:	1a76      	subs	r6, r6, r1
 8006270:	2e08      	cmp	r6, #8
 8006272:	f644 681f 	movw	r8, #19999	@ 0x4e1f
 8006276:	dc03      	bgt.n	8006280 <_strtod_l+0x2e0>
 8006278:	990e      	ldr	r1, [sp, #56]	@ 0x38
 800627a:	4588      	cmp	r8, r1
 800627c:	bfa8      	it	ge
 800627e:	4688      	movge	r8, r1
 8006280:	f1bc 0f00 	cmp.w	ip, #0
 8006284:	d001      	beq.n	800628a <_strtod_l+0x2ea>
 8006286:	f1c8 0800 	rsb	r8, r8, #0
 800628a:	2d00      	cmp	r5, #0
 800628c:	d14e      	bne.n	800632c <_strtod_l+0x38c>
 800628e:	9909      	ldr	r1, [sp, #36]	@ 0x24
 8006290:	4308      	orrs	r0, r1
 8006292:	f47f aebe 	bne.w	8006012 <_strtod_l+0x72>
 8006296:	2b00      	cmp	r3, #0
 8006298:	f47f aed6 	bne.w	8006048 <_strtod_l+0xa8>
 800629c:	2a69      	cmp	r2, #105	@ 0x69
 800629e:	d028      	beq.n	80062f2 <_strtod_l+0x352>
 80062a0:	dc25      	bgt.n	80062ee <_strtod_l+0x34e>
 80062a2:	2a49      	cmp	r2, #73	@ 0x49
 80062a4:	d025      	beq.n	80062f2 <_strtod_l+0x352>
 80062a6:	2a4e      	cmp	r2, #78	@ 0x4e
 80062a8:	f47f aece 	bne.w	8006048 <_strtod_l+0xa8>
 80062ac:	499b      	ldr	r1, [pc, #620]	@ (800651c <_strtod_l+0x57c>)
 80062ae:	a819      	add	r0, sp, #100	@ 0x64
 80062b0:	f001 f9d2 	bl	8007658 <__match>
 80062b4:	2800      	cmp	r0, #0
 80062b6:	f43f aec7 	beq.w	8006048 <_strtod_l+0xa8>
 80062ba:	9b19      	ldr	r3, [sp, #100]	@ 0x64
 80062bc:	781b      	ldrb	r3, [r3, #0]
 80062be:	2b28      	cmp	r3, #40	@ 0x28
 80062c0:	d12e      	bne.n	8006320 <_strtod_l+0x380>
 80062c2:	4997      	ldr	r1, [pc, #604]	@ (8006520 <_strtod_l+0x580>)
 80062c4:	aa1c      	add	r2, sp, #112	@ 0x70
 80062c6:	a819      	add	r0, sp, #100	@ 0x64
 80062c8:	f001 f9da 	bl	8007680 <__hexnan>
 80062cc:	2805      	cmp	r0, #5
 80062ce:	d127      	bne.n	8006320 <_strtod_l+0x380>
 80062d0:	9b1d      	ldr	r3, [sp, #116]	@ 0x74
 80062d2:	f8dd a070 	ldr.w	sl, [sp, #112]	@ 0x70
 80062d6:	f043 4bff 	orr.w	fp, r3, #2139095040	@ 0x7f800000
 80062da:	f44b 0be0 	orr.w	fp, fp, #7340032	@ 0x700000
 80062de:	e698      	b.n	8006012 <_strtod_l+0x72>
 80062e0:	990e      	ldr	r1, [sp, #56]	@ 0x38
 80062e2:	fb08 2101 	mla	r1, r8, r1, r2
 80062e6:	f1a1 0230 	sub.w	r2, r1, #48	@ 0x30
 80062ea:	920e      	str	r2, [sp, #56]	@ 0x38
 80062ec:	e7b5      	b.n	800625a <_strtod_l+0x2ba>
 80062ee:	2a6e      	cmp	r2, #110	@ 0x6e
 80062f0:	e7da      	b.n	80062a8 <_strtod_l+0x308>
 80062f2:	498c      	ldr	r1, [pc, #560]	@ (8006524 <_strtod_l+0x584>)
 80062f4:	a819      	add	r0, sp, #100	@ 0x64
 80062f6:	f001 f9af 	bl	8007658 <__match>
 80062fa:	2800      	cmp	r0, #0
 80062fc:	f43f aea4 	beq.w	8006048 <_strtod_l+0xa8>
 8006300:	9b19      	ldr	r3, [sp, #100]	@ 0x64
 8006302:	4989      	ldr	r1, [pc, #548]	@ (8006528 <_strtod_l+0x588>)
 8006304:	3b01      	subs	r3, #1
 8006306:	a819      	add	r0, sp, #100	@ 0x64
 8006308:	9319      	str	r3, [sp, #100]	@ 0x64
 800630a:	f001 f9a5 	bl	8007658 <__match>
 800630e:	b910      	cbnz	r0, 8006316 <_strtod_l+0x376>
 8006310:	9b19      	ldr	r3, [sp, #100]	@ 0x64
 8006312:	3301      	adds	r3, #1
 8006314:	9319      	str	r3, [sp, #100]	@ 0x64
 8006316:	f8df b220 	ldr.w	fp, [pc, #544]	@ 8006538 <_strtod_l+0x598>
 800631a:	f04f 0a00 	mov.w	sl, #0
 800631e:	e678      	b.n	8006012 <_strtod_l+0x72>
 8006320:	4882      	ldr	r0, [pc, #520]	@ (800652c <_strtod_l+0x58c>)
 8006322:	f000 fee9 	bl	80070f8 <nan>
 8006326:	ec5b ab10 	vmov	sl, fp, d0
 800632a:	e672      	b.n	8006012 <_strtod_l+0x72>
 800632c:	eba8 0309 	sub.w	r3, r8, r9
 8006330:	980a      	ldr	r0, [sp, #40]	@ 0x28
 8006332:	9309      	str	r3, [sp, #36]	@ 0x24
 8006334:	2f00      	cmp	r7, #0
 8006336:	bf08      	it	eq
 8006338:	462f      	moveq	r7, r5
 800633a:	2d10      	cmp	r5, #16
 800633c:	462c      	mov	r4, r5
 800633e:	bfa8      	it	ge
 8006340:	2410      	movge	r4, #16
 8006342:	f7fa f8ff 	bl	8000544 <__aeabi_ui2d>
 8006346:	2d09      	cmp	r5, #9
 8006348:	4682      	mov	sl, r0
 800634a:	468b      	mov	fp, r1
 800634c:	dc13      	bgt.n	8006376 <_strtod_l+0x3d6>
 800634e:	9b09      	ldr	r3, [sp, #36]	@ 0x24
 8006350:	2b00      	cmp	r3, #0
 8006352:	f43f ae5e 	beq.w	8006012 <_strtod_l+0x72>
 8006356:	9b09      	ldr	r3, [sp, #36]	@ 0x24
 8006358:	dd78      	ble.n	800644c <_strtod_l+0x4ac>
 800635a:	2b16      	cmp	r3, #22
 800635c:	dc5f      	bgt.n	800641e <_strtod_l+0x47e>
 800635e:	4974      	ldr	r1, [pc, #464]	@ (8006530 <_strtod_l+0x590>)
 8006360:	eb01 01c3 	add.w	r1, r1, r3, lsl #3
 8006364:	e9d1 0100 	ldrd	r0, r1, [r1]
 8006368:	4652      	mov	r2, sl
 800636a:	465b      	mov	r3, fp
 800636c:	f7fa f964 	bl	8000638 <__aeabi_dmul>
 8006370:	4682      	mov	sl, r0
 8006372:	468b      	mov	fp, r1
 8006374:	e64d      	b.n	8006012 <_strtod_l+0x72>
 8006376:	4b6e      	ldr	r3, [pc, #440]	@ (8006530 <_strtod_l+0x590>)
 8006378:	eb03 03c4 	add.w	r3, r3, r4, lsl #3
 800637c:	e953 2312 	ldrd	r2, r3, [r3, #-72]	@ 0x48
 8006380:	f7fa f95a 	bl	8000638 <__aeabi_dmul>
 8006384:	4682      	mov	sl, r0
 8006386:	9808      	ldr	r0, [sp, #32]
 8006388:	468b      	mov	fp, r1
 800638a:	f7fa f8db 	bl	8000544 <__aeabi_ui2d>
 800638e:	4602      	mov	r2, r0
 8006390:	460b      	mov	r3, r1
 8006392:	4650      	mov	r0, sl
 8006394:	4659      	mov	r1, fp
 8006396:	f7f9 ff99 	bl	80002cc <__adddf3>
 800639a:	2d0f      	cmp	r5, #15
 800639c:	4682      	mov	sl, r0
 800639e:	468b      	mov	fp, r1
 80063a0:	ddd5      	ble.n	800634e <_strtod_l+0x3ae>
 80063a2:	9b09      	ldr	r3, [sp, #36]	@ 0x24
 80063a4:	1b2c      	subs	r4, r5, r4
 80063a6:	441c      	add	r4, r3
 80063a8:	2c00      	cmp	r4, #0
 80063aa:	f340 8096 	ble.w	80064da <_strtod_l+0x53a>
 80063ae:	f014 030f 	ands.w	r3, r4, #15
 80063b2:	d00a      	beq.n	80063ca <_strtod_l+0x42a>
 80063b4:	495e      	ldr	r1, [pc, #376]	@ (8006530 <_strtod_l+0x590>)
 80063b6:	eb01 01c3 	add.w	r1, r1, r3, lsl #3
 80063ba:	4652      	mov	r2, sl
 80063bc:	465b      	mov	r3, fp
 80063be:	e9d1 0100 	ldrd	r0, r1, [r1]
 80063c2:	f7fa f939 	bl	8000638 <__aeabi_dmul>
 80063c6:	4682      	mov	sl, r0
 80063c8:	468b      	mov	fp, r1
 80063ca:	f034 040f 	bics.w	r4, r4, #15
 80063ce:	d073      	beq.n	80064b8 <_strtod_l+0x518>
 80063d0:	f5b4 7f9a 	cmp.w	r4, #308	@ 0x134
 80063d4:	dd48      	ble.n	8006468 <_strtod_l+0x4c8>
 80063d6:	2400      	movs	r4, #0
 80063d8:	46a0      	mov	r8, r4
 80063da:	940a      	str	r4, [sp, #40]	@ 0x28
 80063dc:	46a1      	mov	r9, r4
 80063de:	9a05      	ldr	r2, [sp, #20]
 80063e0:	f8df b154 	ldr.w	fp, [pc, #340]	@ 8006538 <_strtod_l+0x598>
 80063e4:	2322      	movs	r3, #34	@ 0x22
 80063e6:	6013      	str	r3, [r2, #0]
 80063e8:	f04f 0a00 	mov.w	sl, #0
 80063ec:	9b0a      	ldr	r3, [sp, #40]	@ 0x28
 80063ee:	2b00      	cmp	r3, #0
 80063f0:	f43f ae0f 	beq.w	8006012 <_strtod_l+0x72>
 80063f4:	991a      	ldr	r1, [sp, #104]	@ 0x68
 80063f6:	9805      	ldr	r0, [sp, #20]
 80063f8:	f7ff f940 	bl	800567c <_Bfree>
 80063fc:	9805      	ldr	r0, [sp, #20]
 80063fe:	4649      	mov	r1, r9
 8006400:	f7ff f93c 	bl	800567c <_Bfree>
 8006404:	9805      	ldr	r0, [sp, #20]
 8006406:	4641      	mov	r1, r8
 8006408:	f7ff f938 	bl	800567c <_Bfree>
 800640c:	990a      	ldr	r1, [sp, #40]	@ 0x28
 800640e:	9805      	ldr	r0, [sp, #20]
 8006410:	f7ff f934 	bl	800567c <_Bfree>
 8006414:	9805      	ldr	r0, [sp, #20]
 8006416:	4621      	mov	r1, r4
 8006418:	f7ff f930 	bl	800567c <_Bfree>
 800641c:	e5f9      	b.n	8006012 <_strtod_l+0x72>
 800641e:	9a09      	ldr	r2, [sp, #36]	@ 0x24
 8006420:	f1c5 0325 	rsb	r3, r5, #37	@ 0x25
 8006424:	4293      	cmp	r3, r2
 8006426:	dbbc      	blt.n	80063a2 <_strtod_l+0x402>
 8006428:	4c41      	ldr	r4, [pc, #260]	@ (8006530 <_strtod_l+0x590>)
 800642a:	f1c5 050f 	rsb	r5, r5, #15
 800642e:	eb04 01c5 	add.w	r1, r4, r5, lsl #3
 8006432:	4652      	mov	r2, sl
 8006434:	465b      	mov	r3, fp
 8006436:	e9d1 0100 	ldrd	r0, r1, [r1]
 800643a:	f7fa f8fd 	bl	8000638 <__aeabi_dmul>
 800643e:	9b09      	ldr	r3, [sp, #36]	@ 0x24
 8006440:	1b5d      	subs	r5, r3, r5
 8006442:	eb04 04c5 	add.w	r4, r4, r5, lsl #3
 8006446:	e9d4 2300 	ldrd	r2, r3, [r4]
 800644a:	e78f      	b.n	800636c <_strtod_l+0x3cc>
 800644c:	3316      	adds	r3, #22
 800644e:	dba8      	blt.n	80063a2 <_strtod_l+0x402>
 8006450:	4b37      	ldr	r3, [pc, #220]	@ (8006530 <_strtod_l+0x590>)
 8006452:	eba9 0808 	sub.w	r8, r9, r8
 8006456:	eb03 08c8 	add.w	r8, r3, r8, lsl #3
 800645a:	e9d8 2300 	ldrd	r2, r3, [r8]
 800645e:	4650      	mov	r0, sl
 8006460:	4659      	mov	r1, fp
 8006462:	f7fa fa13 	bl	800088c <__aeabi_ddiv>
 8006466:	e783      	b.n	8006370 <_strtod_l+0x3d0>
 8006468:	4b32      	ldr	r3, [pc, #200]	@ (8006534 <_strtod_l+0x594>)
 800646a:	9308      	str	r3, [sp, #32]
 800646c:	2300      	movs	r3, #0
 800646e:	1124      	asrs	r4, r4, #4
 8006470:	4650      	mov	r0, sl
 8006472:	4659      	mov	r1, fp
 8006474:	461e      	mov	r6, r3
 8006476:	2c01      	cmp	r4, #1
 8006478:	dc21      	bgt.n	80064be <_strtod_l+0x51e>
 800647a:	b10b      	cbz	r3, 8006480 <_strtod_l+0x4e0>
 800647c:	4682      	mov	sl, r0
 800647e:	468b      	mov	fp, r1
 8006480:	492c      	ldr	r1, [pc, #176]	@ (8006534 <_strtod_l+0x594>)
 8006482:	f1ab 7b54 	sub.w	fp, fp, #55574528	@ 0x3500000
 8006486:	eb01 01c6 	add.w	r1, r1, r6, lsl #3
 800648a:	4652      	mov	r2, sl
 800648c:	465b      	mov	r3, fp
 800648e:	e9d1 0100 	ldrd	r0, r1, [r1]
 8006492:	f7fa f8d1 	bl	8000638 <__aeabi_dmul>
 8006496:	4b28      	ldr	r3, [pc, #160]	@ (8006538 <_strtod_l+0x598>)
 8006498:	460a      	mov	r2, r1
 800649a:	400b      	ands	r3, r1
 800649c:	4927      	ldr	r1, [pc, #156]	@ (800653c <_strtod_l+0x59c>)
 800649e:	428b      	cmp	r3, r1
 80064a0:	4682      	mov	sl, r0
 80064a2:	d898      	bhi.n	80063d6 <_strtod_l+0x436>
 80064a4:	f5a1 1180 	sub.w	r1, r1, #1048576	@ 0x100000
 80064a8:	428b      	cmp	r3, r1
 80064aa:	bf86      	itte	hi
 80064ac:	f8df b090 	ldrhi.w	fp, [pc, #144]	@ 8006540 <_strtod_l+0x5a0>
 80064b0:	f04f 3aff 	movhi.w	sl, #4294967295
 80064b4:	f102 7b54 	addls.w	fp, r2, #55574528	@ 0x3500000
 80064b8:	2300      	movs	r3, #0
 80064ba:	9308      	str	r3, [sp, #32]
 80064bc:	e07a      	b.n	80065b4 <_strtod_l+0x614>
 80064be:	07e2      	lsls	r2, r4, #31
 80064c0:	d505      	bpl.n	80064ce <_strtod_l+0x52e>
 80064c2:	9b08      	ldr	r3, [sp, #32]
 80064c4:	e9d3 2300 	ldrd	r2, r3, [r3]
 80064c8:	f7fa f8b6 	bl	8000638 <__aeabi_dmul>
 80064cc:	2301      	movs	r3, #1
 80064ce:	9a08      	ldr	r2, [sp, #32]
 80064d0:	3208      	adds	r2, #8
 80064d2:	3601      	adds	r6, #1
 80064d4:	1064      	asrs	r4, r4, #1
 80064d6:	9208      	str	r2, [sp, #32]
 80064d8:	e7cd      	b.n	8006476 <_strtod_l+0x4d6>
 80064da:	d0ed      	beq.n	80064b8 <_strtod_l+0x518>
 80064dc:	4264      	negs	r4, r4
 80064de:	f014 020f 	ands.w	r2, r4, #15
 80064e2:	d00a      	beq.n	80064fa <_strtod_l+0x55a>
 80064e4:	4b12      	ldr	r3, [pc, #72]	@ (8006530 <_strtod_l+0x590>)
 80064e6:	eb03 03c2 	add.w	r3, r3, r2, lsl #3
 80064ea:	4650      	mov	r0, sl
 80064ec:	4659      	mov	r1, fp
 80064ee:	e9d3 2300 	ldrd	r2, r3, [r3]
 80064f2:	f7fa f9cb 	bl	800088c <__aeabi_ddiv>
 80064f6:	4682      	mov	sl, r0
 80064f8:	468b      	mov	fp, r1
 80064fa:	1124      	asrs	r4, r4, #4
 80064fc:	d0dc      	beq.n	80064b8 <_strtod_l+0x518>
 80064fe:	2c1f      	cmp	r4, #31
 8006500:	dd20      	ble.n	8006544 <_strtod_l+0x5a4>
 8006502:	2400      	movs	r4, #0
 8006504:	46a0      	mov	r8, r4
 8006506:	940a      	str	r4, [sp, #40]	@ 0x28
 8006508:	46a1      	mov	r9, r4
 800650a:	9a05      	ldr	r2, [sp, #20]
 800650c:	2322      	movs	r3, #34	@ 0x22
 800650e:	f04f 0a00 	mov.w	sl, #0
 8006512:	f04f 0b00 	mov.w	fp, #0
 8006516:	6013      	str	r3, [r2, #0]
 8006518:	e768      	b.n	80063ec <_strtod_l+0x44c>
 800651a:	bf00      	nop
 800651c:	08008146 	.word	0x08008146
 8006520:	0800835c 	.word	0x0800835c
 8006524:	0800813e 	.word	0x0800813e
 8006528:	08008175 	.word	0x08008175
 800652c:	08008505 	.word	0x08008505
 8006530:	08008290 	.word	0x08008290
 8006534:	08008268 	.word	0x08008268
 8006538:	7ff00000 	.word	0x7ff00000
 800653c:	7ca00000 	.word	0x7ca00000
 8006540:	7fefffff 	.word	0x7fefffff
 8006544:	f014 0310 	ands.w	r3, r4, #16
 8006548:	bf18      	it	ne
 800654a:	236a      	movne	r3, #106	@ 0x6a
 800654c:	4ea9      	ldr	r6, [pc, #676]	@ (80067f4 <_strtod_l+0x854>)
 800654e:	9308      	str	r3, [sp, #32]
 8006550:	4650      	mov	r0, sl
 8006552:	4659      	mov	r1, fp
 8006554:	2300      	movs	r3, #0
 8006556:	07e2      	lsls	r2, r4, #31
 8006558:	d504      	bpl.n	8006564 <_strtod_l+0x5c4>
 800655a:	e9d6 2300 	ldrd	r2, r3, [r6]
 800655e:	f7fa f86b 	bl	8000638 <__aeabi_dmul>
 8006562:	2301      	movs	r3, #1
 8006564:	1064      	asrs	r4, r4, #1
 8006566:	f106 0608 	add.w	r6, r6, #8
 800656a:	d1f4      	bne.n	8006556 <_strtod_l+0x5b6>
 800656c:	b10b      	cbz	r3, 8006572 <_strtod_l+0x5d2>
 800656e:	4682      	mov	sl, r0
 8006570:	468b      	mov	fp, r1
 8006572:	9b08      	ldr	r3, [sp, #32]
 8006574:	b1b3      	cbz	r3, 80065a4 <_strtod_l+0x604>
 8006576:	f3cb 520a 	ubfx	r2, fp, #20, #11
 800657a:	f1c2 036b 	rsb	r3, r2, #107	@ 0x6b
 800657e:	2b00      	cmp	r3, #0
 8006580:	4659      	mov	r1, fp
 8006582:	dd0f      	ble.n	80065a4 <_strtod_l+0x604>
 8006584:	2b1f      	cmp	r3, #31
 8006586:	dd55      	ble.n	8006634 <_strtod_l+0x694>
 8006588:	2b34      	cmp	r3, #52	@ 0x34
 800658a:	bfde      	ittt	le
 800658c:	f04f 33ff 	movle.w	r3, #4294967295
 8006590:	f1c2 024b 	rsble	r2, r2, #75	@ 0x4b
 8006594:	4093      	lslle	r3, r2
 8006596:	f04f 0a00 	mov.w	sl, #0
 800659a:	bfcc      	ite	gt
 800659c:	f04f 7b5c 	movgt.w	fp, #57671680	@ 0x3700000
 80065a0:	ea03 0b01 	andle.w	fp, r3, r1
 80065a4:	2200      	movs	r2, #0
 80065a6:	2300      	movs	r3, #0
 80065a8:	4650      	mov	r0, sl
 80065aa:	4659      	mov	r1, fp
 80065ac:	f7fa faac 	bl	8000b08 <__aeabi_dcmpeq>
 80065b0:	2800      	cmp	r0, #0
 80065b2:	d1a6      	bne.n	8006502 <_strtod_l+0x562>
 80065b4:	9b0a      	ldr	r3, [sp, #40]	@ 0x28
 80065b6:	9300      	str	r3, [sp, #0]
 80065b8:	990c      	ldr	r1, [sp, #48]	@ 0x30
 80065ba:	9805      	ldr	r0, [sp, #20]
 80065bc:	462b      	mov	r3, r5
 80065be:	463a      	mov	r2, r7
 80065c0:	f7ff f8c4 	bl	800574c <__s2b>
 80065c4:	900a      	str	r0, [sp, #40]	@ 0x28
 80065c6:	2800      	cmp	r0, #0
 80065c8:	f43f af05 	beq.w	80063d6 <_strtod_l+0x436>
 80065cc:	9a09      	ldr	r2, [sp, #36]	@ 0x24
 80065ce:	2a00      	cmp	r2, #0
 80065d0:	eba9 0308 	sub.w	r3, r9, r8
 80065d4:	bfa8      	it	ge
 80065d6:	2300      	movge	r3, #0
 80065d8:	9312      	str	r3, [sp, #72]	@ 0x48
 80065da:	2400      	movs	r4, #0
 80065dc:	ea22 73e2 	bic.w	r3, r2, r2, asr #31
 80065e0:	9316      	str	r3, [sp, #88]	@ 0x58
 80065e2:	46a0      	mov	r8, r4
 80065e4:	9b0a      	ldr	r3, [sp, #40]	@ 0x28
 80065e6:	9805      	ldr	r0, [sp, #20]
 80065e8:	6859      	ldr	r1, [r3, #4]
 80065ea:	f7ff f807 	bl	80055fc <_Balloc>
 80065ee:	4681      	mov	r9, r0
 80065f0:	2800      	cmp	r0, #0
 80065f2:	f43f aef4 	beq.w	80063de <_strtod_l+0x43e>
 80065f6:	9b0a      	ldr	r3, [sp, #40]	@ 0x28
 80065f8:	691a      	ldr	r2, [r3, #16]
 80065fa:	3202      	adds	r2, #2
 80065fc:	f103 010c 	add.w	r1, r3, #12
 8006600:	0092      	lsls	r2, r2, #2
 8006602:	300c      	adds	r0, #12
 8006604:	f000 fd68 	bl	80070d8 <memcpy>
 8006608:	ec4b ab10 	vmov	d0, sl, fp
 800660c:	9805      	ldr	r0, [sp, #20]
 800660e:	aa1c      	add	r2, sp, #112	@ 0x70
 8006610:	a91b      	add	r1, sp, #108	@ 0x6c
 8006612:	e9cd ab0c 	strd	sl, fp, [sp, #48]	@ 0x30
 8006616:	f7ff fbd5 	bl	8005dc4 <__d2b>
 800661a:	901a      	str	r0, [sp, #104]	@ 0x68
 800661c:	2800      	cmp	r0, #0
 800661e:	f43f aede 	beq.w	80063de <_strtod_l+0x43e>
 8006622:	9805      	ldr	r0, [sp, #20]
 8006624:	2101      	movs	r1, #1
 8006626:	f7ff f927 	bl	8005878 <__i2b>
 800662a:	4680      	mov	r8, r0
 800662c:	b948      	cbnz	r0, 8006642 <_strtod_l+0x6a2>
 800662e:	f04f 0800 	mov.w	r8, #0
 8006632:	e6d4      	b.n	80063de <_strtod_l+0x43e>
 8006634:	f04f 32ff 	mov.w	r2, #4294967295
 8006638:	fa02 f303 	lsl.w	r3, r2, r3
 800663c:	ea03 0a0a 	and.w	sl, r3, sl
 8006640:	e7b0      	b.n	80065a4 <_strtod_l+0x604>
 8006642:	9d1b      	ldr	r5, [sp, #108]	@ 0x6c
 8006644:	9a1c      	ldr	r2, [sp, #112]	@ 0x70
 8006646:	2d00      	cmp	r5, #0
 8006648:	bfab      	itete	ge
 800664a:	9b12      	ldrge	r3, [sp, #72]	@ 0x48
 800664c:	9b16      	ldrlt	r3, [sp, #88]	@ 0x58
 800664e:	9e16      	ldrge	r6, [sp, #88]	@ 0x58
 8006650:	9f12      	ldrlt	r7, [sp, #72]	@ 0x48
 8006652:	bfac      	ite	ge
 8006654:	18ef      	addge	r7, r5, r3
 8006656:	1b5e      	sublt	r6, r3, r5
 8006658:	9b08      	ldr	r3, [sp, #32]
 800665a:	1aed      	subs	r5, r5, r3
 800665c:	4415      	add	r5, r2
 800665e:	4b66      	ldr	r3, [pc, #408]	@ (80067f8 <_strtod_l+0x858>)
 8006660:	3d01      	subs	r5, #1
 8006662:	429d      	cmp	r5, r3
 8006664:	f1c2 0236 	rsb	r2, r2, #54	@ 0x36
 8006668:	da50      	bge.n	800670c <_strtod_l+0x76c>
 800666a:	1b5b      	subs	r3, r3, r5
 800666c:	2b1f      	cmp	r3, #31
 800666e:	eba2 0203 	sub.w	r2, r2, r3
 8006672:	f04f 0101 	mov.w	r1, #1
 8006676:	dc3d      	bgt.n	80066f4 <_strtod_l+0x754>
 8006678:	fa01 f303 	lsl.w	r3, r1, r3
 800667c:	9313      	str	r3, [sp, #76]	@ 0x4c
 800667e:	2300      	movs	r3, #0
 8006680:	9310      	str	r3, [sp, #64]	@ 0x40
 8006682:	18bd      	adds	r5, r7, r2
 8006684:	9b08      	ldr	r3, [sp, #32]
 8006686:	42af      	cmp	r7, r5
 8006688:	4416      	add	r6, r2
 800668a:	441e      	add	r6, r3
 800668c:	463b      	mov	r3, r7
 800668e:	bfa8      	it	ge
 8006690:	462b      	movge	r3, r5
 8006692:	42b3      	cmp	r3, r6
 8006694:	bfa8      	it	ge
 8006696:	4633      	movge	r3, r6
 8006698:	2b00      	cmp	r3, #0
 800669a:	bfc2      	ittt	gt
 800669c:	1aed      	subgt	r5, r5, r3
 800669e:	1af6      	subgt	r6, r6, r3
 80066a0:	1aff      	subgt	r7, r7, r3
 80066a2:	9b12      	ldr	r3, [sp, #72]	@ 0x48
 80066a4:	2b00      	cmp	r3, #0
 80066a6:	dd16      	ble.n	80066d6 <_strtod_l+0x736>
 80066a8:	4641      	mov	r1, r8
 80066aa:	9805      	ldr	r0, [sp, #20]
 80066ac:	461a      	mov	r2, r3
 80066ae:	f7ff f9a3 	bl	80059f8 <__pow5mult>
 80066b2:	4680      	mov	r8, r0
 80066b4:	2800      	cmp	r0, #0
 80066b6:	d0ba      	beq.n	800662e <_strtod_l+0x68e>
 80066b8:	4601      	mov	r1, r0
 80066ba:	9a1a      	ldr	r2, [sp, #104]	@ 0x68
 80066bc:	9805      	ldr	r0, [sp, #20]
 80066be:	f7ff f8f1 	bl	80058a4 <__multiply>
 80066c2:	900e      	str	r0, [sp, #56]	@ 0x38
 80066c4:	2800      	cmp	r0, #0
 80066c6:	f43f ae8a 	beq.w	80063de <_strtod_l+0x43e>
 80066ca:	991a      	ldr	r1, [sp, #104]	@ 0x68
 80066cc:	9805      	ldr	r0, [sp, #20]
 80066ce:	f7fe ffd5 	bl	800567c <_Bfree>
 80066d2:	9b0e      	ldr	r3, [sp, #56]	@ 0x38
 80066d4:	931a      	str	r3, [sp, #104]	@ 0x68
 80066d6:	2d00      	cmp	r5, #0
 80066d8:	dc1d      	bgt.n	8006716 <_strtod_l+0x776>
 80066da:	9b09      	ldr	r3, [sp, #36]	@ 0x24
 80066dc:	2b00      	cmp	r3, #0
 80066de:	dd23      	ble.n	8006728 <_strtod_l+0x788>
 80066e0:	4649      	mov	r1, r9
 80066e2:	9a16      	ldr	r2, [sp, #88]	@ 0x58
 80066e4:	9805      	ldr	r0, [sp, #20]
 80066e6:	f7ff f987 	bl	80059f8 <__pow5mult>
 80066ea:	4681      	mov	r9, r0
 80066ec:	b9e0      	cbnz	r0, 8006728 <_strtod_l+0x788>
 80066ee:	f04f 0900 	mov.w	r9, #0
 80066f2:	e674      	b.n	80063de <_strtod_l+0x43e>
 80066f4:	f1c5 457f 	rsb	r5, r5, #4278190080	@ 0xff000000
 80066f8:	f505 057f 	add.w	r5, r5, #16711680	@ 0xff0000
 80066fc:	f505 457b 	add.w	r5, r5, #64256	@ 0xfb00
 8006700:	35e2      	adds	r5, #226	@ 0xe2
 8006702:	fa01 f305 	lsl.w	r3, r1, r5
 8006706:	9310      	str	r3, [sp, #64]	@ 0x40
 8006708:	9113      	str	r1, [sp, #76]	@ 0x4c
 800670a:	e7ba      	b.n	8006682 <_strtod_l+0x6e2>
 800670c:	2300      	movs	r3, #0
 800670e:	9310      	str	r3, [sp, #64]	@ 0x40
 8006710:	2301      	movs	r3, #1
 8006712:	9313      	str	r3, [sp, #76]	@ 0x4c
 8006714:	e7b5      	b.n	8006682 <_strtod_l+0x6e2>
 8006716:	991a      	ldr	r1, [sp, #104]	@ 0x68
 8006718:	9805      	ldr	r0, [sp, #20]
 800671a:	462a      	mov	r2, r5
 800671c:	f7ff f9c6 	bl	8005aac <__lshift>
 8006720:	901a      	str	r0, [sp, #104]	@ 0x68
 8006722:	2800      	cmp	r0, #0
 8006724:	d1d9      	bne.n	80066da <_strtod_l+0x73a>
 8006726:	e65a      	b.n	80063de <_strtod_l+0x43e>
 8006728:	2e00      	cmp	r6, #0
 800672a:	dd07      	ble.n	800673c <_strtod_l+0x79c>
 800672c:	4649      	mov	r1, r9
 800672e:	9805      	ldr	r0, [sp, #20]
 8006730:	4632      	mov	r2, r6
 8006732:	f7ff f9bb 	bl	8005aac <__lshift>
 8006736:	4681      	mov	r9, r0
 8006738:	2800      	cmp	r0, #0
 800673a:	d0d8      	beq.n	80066ee <_strtod_l+0x74e>
 800673c:	2f00      	cmp	r7, #0
 800673e:	dd08      	ble.n	8006752 <_strtod_l+0x7b2>
 8006740:	4641      	mov	r1, r8
 8006742:	9805      	ldr	r0, [sp, #20]
 8006744:	463a      	mov	r2, r7
 8006746:	f7ff f9b1 	bl	8005aac <__lshift>
 800674a:	4680      	mov	r8, r0
 800674c:	2800      	cmp	r0, #0
 800674e:	f43f ae46 	beq.w	80063de <_strtod_l+0x43e>
 8006752:	991a      	ldr	r1, [sp, #104]	@ 0x68
 8006754:	9805      	ldr	r0, [sp, #20]
 8006756:	464a      	mov	r2, r9
 8006758:	f7ff fa30 	bl	8005bbc <__mdiff>
 800675c:	4604      	mov	r4, r0
 800675e:	2800      	cmp	r0, #0
 8006760:	f43f ae3d 	beq.w	80063de <_strtod_l+0x43e>
 8006764:	68c3      	ldr	r3, [r0, #12]
 8006766:	930f      	str	r3, [sp, #60]	@ 0x3c
 8006768:	2300      	movs	r3, #0
 800676a:	60c3      	str	r3, [r0, #12]
 800676c:	4641      	mov	r1, r8
 800676e:	f7ff fa09 	bl	8005b84 <__mcmp>
 8006772:	2800      	cmp	r0, #0
 8006774:	da46      	bge.n	8006804 <_strtod_l+0x864>
 8006776:	9b0f      	ldr	r3, [sp, #60]	@ 0x3c
 8006778:	ea53 030a 	orrs.w	r3, r3, sl
 800677c:	d16c      	bne.n	8006858 <_strtod_l+0x8b8>
 800677e:	f3cb 0313 	ubfx	r3, fp, #0, #20
 8006782:	2b00      	cmp	r3, #0
 8006784:	d168      	bne.n	8006858 <_strtod_l+0x8b8>
 8006786:	f02b 4300 	bic.w	r3, fp, #2147483648	@ 0x80000000
 800678a:	0d1b      	lsrs	r3, r3, #20
 800678c:	051b      	lsls	r3, r3, #20
 800678e:	f1b3 6fd6 	cmp.w	r3, #112197632	@ 0x6b00000
 8006792:	d961      	bls.n	8006858 <_strtod_l+0x8b8>
 8006794:	6963      	ldr	r3, [r4, #20]
 8006796:	b913      	cbnz	r3, 800679e <_strtod_l+0x7fe>
 8006798:	6923      	ldr	r3, [r4, #16]
 800679a:	2b01      	cmp	r3, #1
 800679c:	dd5c      	ble.n	8006858 <_strtod_l+0x8b8>
 800679e:	4621      	mov	r1, r4
 80067a0:	2201      	movs	r2, #1
 80067a2:	9805      	ldr	r0, [sp, #20]
 80067a4:	f7ff f982 	bl	8005aac <__lshift>
 80067a8:	4641      	mov	r1, r8
 80067aa:	4604      	mov	r4, r0
 80067ac:	f7ff f9ea 	bl	8005b84 <__mcmp>
 80067b0:	2800      	cmp	r0, #0
 80067b2:	dd51      	ble.n	8006858 <_strtod_l+0x8b8>
 80067b4:	f02b 4300 	bic.w	r3, fp, #2147483648	@ 0x80000000
 80067b8:	9a08      	ldr	r2, [sp, #32]
 80067ba:	0d1b      	lsrs	r3, r3, #20
 80067bc:	051b      	lsls	r3, r3, #20
 80067be:	2a00      	cmp	r2, #0
 80067c0:	d06b      	beq.n	800689a <_strtod_l+0x8fa>
 80067c2:	f1b3 6fd6 	cmp.w	r3, #112197632	@ 0x6b00000
 80067c6:	d868      	bhi.n	800689a <_strtod_l+0x8fa>
 80067c8:	f1b3 7f5c 	cmp.w	r3, #57671680	@ 0x3700000
 80067cc:	f67f ae9d 	bls.w	800650a <_strtod_l+0x56a>
 80067d0:	4b0a      	ldr	r3, [pc, #40]	@ (80067fc <_strtod_l+0x85c>)
 80067d2:	4650      	mov	r0, sl
 80067d4:	4659      	mov	r1, fp
 80067d6:	2200      	movs	r2, #0
 80067d8:	f7f9 ff2e 	bl	8000638 <__aeabi_dmul>
 80067dc:	4b08      	ldr	r3, [pc, #32]	@ (8006800 <_strtod_l+0x860>)
 80067de:	400b      	ands	r3, r1
 80067e0:	4682      	mov	sl, r0
 80067e2:	468b      	mov	fp, r1
 80067e4:	2b00      	cmp	r3, #0
 80067e6:	f47f ae05 	bne.w	80063f4 <_strtod_l+0x454>
 80067ea:	9a05      	ldr	r2, [sp, #20]
 80067ec:	2322      	movs	r3, #34	@ 0x22
 80067ee:	6013      	str	r3, [r2, #0]
 80067f0:	e600      	b.n	80063f4 <_strtod_l+0x454>
 80067f2:	bf00      	nop
 80067f4:	08008388 	.word	0x08008388
 80067f8:	fffffc02 	.word	0xfffffc02
 80067fc:	39500000 	.word	0x39500000
 8006800:	7ff00000 	.word	0x7ff00000
 8006804:	f8cd b038 	str.w	fp, [sp, #56]	@ 0x38
 8006808:	d165      	bne.n	80068d6 <_strtod_l+0x936>
 800680a:	9a0f      	ldr	r2, [sp, #60]	@ 0x3c
 800680c:	f3cb 0313 	ubfx	r3, fp, #0, #20
 8006810:	b35a      	cbz	r2, 800686a <_strtod_l+0x8ca>
 8006812:	4a9f      	ldr	r2, [pc, #636]	@ (8006a90 <_strtod_l+0xaf0>)
 8006814:	4293      	cmp	r3, r2
 8006816:	d12b      	bne.n	8006870 <_strtod_l+0x8d0>
 8006818:	9b08      	ldr	r3, [sp, #32]
 800681a:	4651      	mov	r1, sl
 800681c:	b303      	cbz	r3, 8006860 <_strtod_l+0x8c0>
 800681e:	4b9d      	ldr	r3, [pc, #628]	@ (8006a94 <_strtod_l+0xaf4>)
 8006820:	465a      	mov	r2, fp
 8006822:	4013      	ands	r3, r2
 8006824:	f1b3 6fd4 	cmp.w	r3, #111149056	@ 0x6a00000
 8006828:	f04f 32ff 	mov.w	r2, #4294967295
 800682c:	d81b      	bhi.n	8006866 <_strtod_l+0x8c6>
 800682e:	0d1b      	lsrs	r3, r3, #20
 8006830:	f1c3 036b 	rsb	r3, r3, #107	@ 0x6b
 8006834:	fa02 f303 	lsl.w	r3, r2, r3
 8006838:	4299      	cmp	r1, r3
 800683a:	d119      	bne.n	8006870 <_strtod_l+0x8d0>
 800683c:	4b96      	ldr	r3, [pc, #600]	@ (8006a98 <_strtod_l+0xaf8>)
 800683e:	9a0e      	ldr	r2, [sp, #56]	@ 0x38
 8006840:	429a      	cmp	r2, r3
 8006842:	d102      	bne.n	800684a <_strtod_l+0x8aa>
 8006844:	3101      	adds	r1, #1
 8006846:	f43f adca 	beq.w	80063de <_strtod_l+0x43e>
 800684a:	4b92      	ldr	r3, [pc, #584]	@ (8006a94 <_strtod_l+0xaf4>)
 800684c:	9a0e      	ldr	r2, [sp, #56]	@ 0x38
 800684e:	401a      	ands	r2, r3
 8006850:	f502 1b80 	add.w	fp, r2, #1048576	@ 0x100000
 8006854:	f04f 0a00 	mov.w	sl, #0
 8006858:	9b08      	ldr	r3, [sp, #32]
 800685a:	2b00      	cmp	r3, #0
 800685c:	d1b8      	bne.n	80067d0 <_strtod_l+0x830>
 800685e:	e5c9      	b.n	80063f4 <_strtod_l+0x454>
 8006860:	f04f 33ff 	mov.w	r3, #4294967295
 8006864:	e7e8      	b.n	8006838 <_strtod_l+0x898>
 8006866:	4613      	mov	r3, r2
 8006868:	e7e6      	b.n	8006838 <_strtod_l+0x898>
 800686a:	ea53 030a 	orrs.w	r3, r3, sl
 800686e:	d0a1      	beq.n	80067b4 <_strtod_l+0x814>
 8006870:	9b10      	ldr	r3, [sp, #64]	@ 0x40
 8006872:	b1db      	cbz	r3, 80068ac <_strtod_l+0x90c>
 8006874:	9a0e      	ldr	r2, [sp, #56]	@ 0x38
 8006876:	4213      	tst	r3, r2
 8006878:	d0ee      	beq.n	8006858 <_strtod_l+0x8b8>
 800687a:	9b0f      	ldr	r3, [sp, #60]	@ 0x3c
 800687c:	9a08      	ldr	r2, [sp, #32]
 800687e:	4650      	mov	r0, sl
 8006880:	4659      	mov	r1, fp
 8006882:	b1bb      	cbz	r3, 80068b4 <_strtod_l+0x914>
 8006884:	f7ff fb6c 	bl	8005f60 <sulp>
 8006888:	e9dd 010c 	ldrd	r0, r1, [sp, #48]	@ 0x30
 800688c:	ec53 2b10 	vmov	r2, r3, d0
 8006890:	f7f9 fd1c 	bl	80002cc <__adddf3>
 8006894:	4682      	mov	sl, r0
 8006896:	468b      	mov	fp, r1
 8006898:	e7de      	b.n	8006858 <_strtod_l+0x8b8>
 800689a:	f5a3 1380 	sub.w	r3, r3, #1048576	@ 0x100000
 800689e:	ea6f 5b13 	mvn.w	fp, r3, lsr #20
 80068a2:	ea6f 5b0b 	mvn.w	fp, fp, lsl #20
 80068a6:	f04f 3aff 	mov.w	sl, #4294967295
 80068aa:	e7d5      	b.n	8006858 <_strtod_l+0x8b8>
 80068ac:	9b13      	ldr	r3, [sp, #76]	@ 0x4c
 80068ae:	ea13 0f0a 	tst.w	r3, sl
 80068b2:	e7e1      	b.n	8006878 <_strtod_l+0x8d8>
 80068b4:	f7ff fb54 	bl	8005f60 <sulp>
 80068b8:	e9dd 010c 	ldrd	r0, r1, [sp, #48]	@ 0x30
 80068bc:	ec53 2b10 	vmov	r2, r3, d0
 80068c0:	f7f9 fd02 	bl	80002c8 <__aeabi_dsub>
 80068c4:	2200      	movs	r2, #0
 80068c6:	2300      	movs	r3, #0
 80068c8:	4682      	mov	sl, r0
 80068ca:	468b      	mov	fp, r1
 80068cc:	f7fa f91c 	bl	8000b08 <__aeabi_dcmpeq>
 80068d0:	2800      	cmp	r0, #0
 80068d2:	d0c1      	beq.n	8006858 <_strtod_l+0x8b8>
 80068d4:	e619      	b.n	800650a <_strtod_l+0x56a>
 80068d6:	4641      	mov	r1, r8
 80068d8:	4620      	mov	r0, r4
 80068da:	f7ff facb 	bl	8005e74 <__ratio>
 80068de:	ec57 6b10 	vmov	r6, r7, d0
 80068e2:	2200      	movs	r2, #0
 80068e4:	f04f 4380 	mov.w	r3, #1073741824	@ 0x40000000
 80068e8:	4630      	mov	r0, r6
 80068ea:	4639      	mov	r1, r7
 80068ec:	f7fa f920 	bl	8000b30 <__aeabi_dcmple>
 80068f0:	2800      	cmp	r0, #0
 80068f2:	d06f      	beq.n	80069d4 <_strtod_l+0xa34>
 80068f4:	9b0f      	ldr	r3, [sp, #60]	@ 0x3c
 80068f6:	2b00      	cmp	r3, #0
 80068f8:	d17a      	bne.n	80069f0 <_strtod_l+0xa50>
 80068fa:	f1ba 0f00 	cmp.w	sl, #0
 80068fe:	d158      	bne.n	80069b2 <_strtod_l+0xa12>
 8006900:	9b0e      	ldr	r3, [sp, #56]	@ 0x38
 8006902:	f3c3 0313 	ubfx	r3, r3, #0, #20
 8006906:	2b00      	cmp	r3, #0
 8006908:	d15a      	bne.n	80069c0 <_strtod_l+0xa20>
 800690a:	4b64      	ldr	r3, [pc, #400]	@ (8006a9c <_strtod_l+0xafc>)
 800690c:	2200      	movs	r2, #0
 800690e:	4630      	mov	r0, r6
 8006910:	4639      	mov	r1, r7
 8006912:	f7fa f903 	bl	8000b1c <__aeabi_dcmplt>
 8006916:	2800      	cmp	r0, #0
 8006918:	d159      	bne.n	80069ce <_strtod_l+0xa2e>
 800691a:	4630      	mov	r0, r6
 800691c:	4639      	mov	r1, r7
 800691e:	4b60      	ldr	r3, [pc, #384]	@ (8006aa0 <_strtod_l+0xb00>)
 8006920:	2200      	movs	r2, #0
 8006922:	f7f9 fe89 	bl	8000638 <__aeabi_dmul>
 8006926:	4606      	mov	r6, r0
 8006928:	460f      	mov	r7, r1
 800692a:	f107 4300 	add.w	r3, r7, #2147483648	@ 0x80000000
 800692e:	9606      	str	r6, [sp, #24]
 8006930:	9307      	str	r3, [sp, #28]
 8006932:	e9dd 2306 	ldrd	r2, r3, [sp, #24]
 8006936:	4d57      	ldr	r5, [pc, #348]	@ (8006a94 <_strtod_l+0xaf4>)
 8006938:	e9cd 2310 	strd	r2, r3, [sp, #64]	@ 0x40
 800693c:	9b0e      	ldr	r3, [sp, #56]	@ 0x38
 800693e:	401d      	ands	r5, r3
 8006940:	4b58      	ldr	r3, [pc, #352]	@ (8006aa4 <_strtod_l+0xb04>)
 8006942:	429d      	cmp	r5, r3
 8006944:	f040 80b2 	bne.w	8006aac <_strtod_l+0xb0c>
 8006948:	9b0e      	ldr	r3, [sp, #56]	@ 0x38
 800694a:	f1a3 7b54 	sub.w	fp, r3, #55574528	@ 0x3500000
 800694e:	ec4b ab10 	vmov	d0, sl, fp
 8006952:	f7ff f9c7 	bl	8005ce4 <__ulp>
 8006956:	e9dd 2306 	ldrd	r2, r3, [sp, #24]
 800695a:	ec51 0b10 	vmov	r0, r1, d0
 800695e:	f7f9 fe6b 	bl	8000638 <__aeabi_dmul>
 8006962:	4652      	mov	r2, sl
 8006964:	465b      	mov	r3, fp
 8006966:	f7f9 fcb1 	bl	80002cc <__adddf3>
 800696a:	460b      	mov	r3, r1
 800696c:	4949      	ldr	r1, [pc, #292]	@ (8006a94 <_strtod_l+0xaf4>)
 800696e:	4a4e      	ldr	r2, [pc, #312]	@ (8006aa8 <_strtod_l+0xb08>)
 8006970:	4019      	ands	r1, r3
 8006972:	4291      	cmp	r1, r2
 8006974:	4682      	mov	sl, r0
 8006976:	d942      	bls.n	80069fe <_strtod_l+0xa5e>
 8006978:	9a0d      	ldr	r2, [sp, #52]	@ 0x34
 800697a:	4b47      	ldr	r3, [pc, #284]	@ (8006a98 <_strtod_l+0xaf8>)
 800697c:	429a      	cmp	r2, r3
 800697e:	d103      	bne.n	8006988 <_strtod_l+0x9e8>
 8006980:	9b0c      	ldr	r3, [sp, #48]	@ 0x30
 8006982:	3301      	adds	r3, #1
 8006984:	f43f ad2b 	beq.w	80063de <_strtod_l+0x43e>
 8006988:	f8df b10c 	ldr.w	fp, [pc, #268]	@ 8006a98 <_strtod_l+0xaf8>
 800698c:	f04f 3aff 	mov.w	sl, #4294967295
 8006990:	991a      	ldr	r1, [sp, #104]	@ 0x68
 8006992:	9805      	ldr	r0, [sp, #20]
 8006994:	f7fe fe72 	bl	800567c <_Bfree>
 8006998:	9805      	ldr	r0, [sp, #20]
 800699a:	4649      	mov	r1, r9
 800699c:	f7fe fe6e 	bl	800567c <_Bfree>
 80069a0:	9805      	ldr	r0, [sp, #20]
 80069a2:	4641      	mov	r1, r8
 80069a4:	f7fe fe6a 	bl	800567c <_Bfree>
 80069a8:	9805      	ldr	r0, [sp, #20]
 80069aa:	4621      	mov	r1, r4
 80069ac:	f7fe fe66 	bl	800567c <_Bfree>
 80069b0:	e618      	b.n	80065e4 <_strtod_l+0x644>
 80069b2:	f1ba 0f01 	cmp.w	sl, #1
 80069b6:	d103      	bne.n	80069c0 <_strtod_l+0xa20>
 80069b8:	9b0e      	ldr	r3, [sp, #56]	@ 0x38
 80069ba:	2b00      	cmp	r3, #0
 80069bc:	f43f ada5 	beq.w	800650a <_strtod_l+0x56a>
 80069c0:	ed9f 7b2b 	vldr	d7, [pc, #172]	@ 8006a70 <_strtod_l+0xad0>
 80069c4:	4f35      	ldr	r7, [pc, #212]	@ (8006a9c <_strtod_l+0xafc>)
 80069c6:	ed8d 7b06 	vstr	d7, [sp, #24]
 80069ca:	2600      	movs	r6, #0
 80069cc:	e7b1      	b.n	8006932 <_strtod_l+0x992>
 80069ce:	4f34      	ldr	r7, [pc, #208]	@ (8006aa0 <_strtod_l+0xb00>)
 80069d0:	2600      	movs	r6, #0
 80069d2:	e7aa      	b.n	800692a <_strtod_l+0x98a>
 80069d4:	4b32      	ldr	r3, [pc, #200]	@ (8006aa0 <_strtod_l+0xb00>)
 80069d6:	4630      	mov	r0, r6
 80069d8:	4639      	mov	r1, r7
 80069da:	2200      	movs	r2, #0
 80069dc:	f7f9 fe2c 	bl	8000638 <__aeabi_dmul>
 80069e0:	9b0f      	ldr	r3, [sp, #60]	@ 0x3c
 80069e2:	4606      	mov	r6, r0
 80069e4:	460f      	mov	r7, r1
 80069e6:	2b00      	cmp	r3, #0
 80069e8:	d09f      	beq.n	800692a <_strtod_l+0x98a>
 80069ea:	e9cd 6706 	strd	r6, r7, [sp, #24]
 80069ee:	e7a0      	b.n	8006932 <_strtod_l+0x992>
 80069f0:	ed9f 7b21 	vldr	d7, [pc, #132]	@ 8006a78 <_strtod_l+0xad8>
 80069f4:	ed8d 7b06 	vstr	d7, [sp, #24]
 80069f8:	ec57 6b17 	vmov	r6, r7, d7
 80069fc:	e799      	b.n	8006932 <_strtod_l+0x992>
 80069fe:	f103 7b54 	add.w	fp, r3, #55574528	@ 0x3500000
 8006a02:	9b08      	ldr	r3, [sp, #32]
 8006a04:	f8cd b038 	str.w	fp, [sp, #56]	@ 0x38
 8006a08:	2b00      	cmp	r3, #0
 8006a0a:	d1c1      	bne.n	8006990 <_strtod_l+0x9f0>
 8006a0c:	f02b 4300 	bic.w	r3, fp, #2147483648	@ 0x80000000
 8006a10:	0d1b      	lsrs	r3, r3, #20
 8006a12:	051b      	lsls	r3, r3, #20
 8006a14:	429d      	cmp	r5, r3
 8006a16:	d1bb      	bne.n	8006990 <_strtod_l+0x9f0>
 8006a18:	4630      	mov	r0, r6
 8006a1a:	4639      	mov	r1, r7
 8006a1c:	f7fa f96c 	bl	8000cf8 <__aeabi_d2lz>
 8006a20:	f7f9 fddc 	bl	80005dc <__aeabi_l2d>
 8006a24:	4602      	mov	r2, r0
 8006a26:	460b      	mov	r3, r1
 8006a28:	4630      	mov	r0, r6
 8006a2a:	4639      	mov	r1, r7
 8006a2c:	f7f9 fc4c 	bl	80002c8 <__aeabi_dsub>
 8006a30:	460b      	mov	r3, r1
 8006a32:	4602      	mov	r2, r0
 8006a34:	e9cd 230c 	strd	r2, r3, [sp, #48]	@ 0x30
 8006a38:	f3cb 0613 	ubfx	r6, fp, #0, #20
 8006a3c:	9b0f      	ldr	r3, [sp, #60]	@ 0x3c
 8006a3e:	ea46 060a 	orr.w	r6, r6, sl
 8006a42:	431e      	orrs	r6, r3
 8006a44:	d06f      	beq.n	8006b26 <_strtod_l+0xb86>
 8006a46:	a30e      	add	r3, pc, #56	@ (adr r3, 8006a80 <_strtod_l+0xae0>)
 8006a48:	e9d3 2300 	ldrd	r2, r3, [r3]
 8006a4c:	f7fa f866 	bl	8000b1c <__aeabi_dcmplt>
 8006a50:	2800      	cmp	r0, #0
 8006a52:	f47f accf 	bne.w	80063f4 <_strtod_l+0x454>
 8006a56:	a30c      	add	r3, pc, #48	@ (adr r3, 8006a88 <_strtod_l+0xae8>)
 8006a58:	e9d3 2300 	ldrd	r2, r3, [r3]
 8006a5c:	e9dd 010c 	ldrd	r0, r1, [sp, #48]	@ 0x30
 8006a60:	f7fa f87a 	bl	8000b58 <__aeabi_dcmpgt>
 8006a64:	2800      	cmp	r0, #0
 8006a66:	d093      	beq.n	8006990 <_strtod_l+0x9f0>
 8006a68:	e4c4      	b.n	80063f4 <_strtod_l+0x454>
 8006a6a:	bf00      	nop
 8006a6c:	f3af 8000 	nop.w
 8006a70:	00000000 	.word	0x00000000
 8006a74:	bff00000 	.word	0xbff00000
 8006a78:	00000000 	.word	0x00000000
 8006a7c:	3ff00000 	.word	0x3ff00000
 8006a80:	94a03595 	.word	0x94a03595
 8006a84:	3fdfffff 	.word	0x3fdfffff
 8006a88:	35afe535 	.word	0x35afe535
 8006a8c:	3fe00000 	.word	0x3fe00000
 8006a90:	000fffff 	.word	0x000fffff
 8006a94:	7ff00000 	.word	0x7ff00000
 8006a98:	7fefffff 	.word	0x7fefffff
 8006a9c:	3ff00000 	.word	0x3ff00000
 8006aa0:	3fe00000 	.word	0x3fe00000
 8006aa4:	7fe00000 	.word	0x7fe00000
 8006aa8:	7c9fffff 	.word	0x7c9fffff
 8006aac:	9b08      	ldr	r3, [sp, #32]
 8006aae:	b323      	cbz	r3, 8006afa <_strtod_l+0xb5a>
 8006ab0:	f1b5 6fd4 	cmp.w	r5, #111149056	@ 0x6a00000
 8006ab4:	d821      	bhi.n	8006afa <_strtod_l+0xb5a>
 8006ab6:	a328      	add	r3, pc, #160	@ (adr r3, 8006b58 <_strtod_l+0xbb8>)
 8006ab8:	e9d3 2300 	ldrd	r2, r3, [r3]
 8006abc:	4630      	mov	r0, r6
 8006abe:	4639      	mov	r1, r7
 8006ac0:	f7fa f836 	bl	8000b30 <__aeabi_dcmple>
 8006ac4:	b1a0      	cbz	r0, 8006af0 <_strtod_l+0xb50>
 8006ac6:	4639      	mov	r1, r7
 8006ac8:	4630      	mov	r0, r6
 8006aca:	f7fa f88d 	bl	8000be8 <__aeabi_d2uiz>
 8006ace:	2801      	cmp	r0, #1
 8006ad0:	bf38      	it	cc
 8006ad2:	2001      	movcc	r0, #1
 8006ad4:	f7f9 fd36 	bl	8000544 <__aeabi_ui2d>
 8006ad8:	9b0f      	ldr	r3, [sp, #60]	@ 0x3c
 8006ada:	4606      	mov	r6, r0
 8006adc:	460f      	mov	r7, r1
 8006ade:	b9fb      	cbnz	r3, 8006b20 <_strtod_l+0xb80>
 8006ae0:	f101 4300 	add.w	r3, r1, #2147483648	@ 0x80000000
 8006ae4:	9014      	str	r0, [sp, #80]	@ 0x50
 8006ae6:	9315      	str	r3, [sp, #84]	@ 0x54
 8006ae8:	e9dd 2314 	ldrd	r2, r3, [sp, #80]	@ 0x50
 8006aec:	e9cd 2310 	strd	r2, r3, [sp, #64]	@ 0x40
 8006af0:	9b11      	ldr	r3, [sp, #68]	@ 0x44
 8006af2:	f103 63d6 	add.w	r3, r3, #112197632	@ 0x6b00000
 8006af6:	1b5b      	subs	r3, r3, r5
 8006af8:	9311      	str	r3, [sp, #68]	@ 0x44
 8006afa:	ed9d 0b0c 	vldr	d0, [sp, #48]	@ 0x30
 8006afe:	e9dd ab10 	ldrd	sl, fp, [sp, #64]	@ 0x40
 8006b02:	f7ff f8ef 	bl	8005ce4 <__ulp>
 8006b06:	4650      	mov	r0, sl
 8006b08:	ec53 2b10 	vmov	r2, r3, d0
 8006b0c:	4659      	mov	r1, fp
 8006b0e:	f7f9 fd93 	bl	8000638 <__aeabi_dmul>
 8006b12:	e9dd 230c 	ldrd	r2, r3, [sp, #48]	@ 0x30
 8006b16:	f7f9 fbd9 	bl	80002cc <__adddf3>
 8006b1a:	4682      	mov	sl, r0
 8006b1c:	468b      	mov	fp, r1
 8006b1e:	e770      	b.n	8006a02 <_strtod_l+0xa62>
 8006b20:	e9cd 6714 	strd	r6, r7, [sp, #80]	@ 0x50
 8006b24:	e7e0      	b.n	8006ae8 <_strtod_l+0xb48>
 8006b26:	a30e      	add	r3, pc, #56	@ (adr r3, 8006b60 <_strtod_l+0xbc0>)
 8006b28:	e9d3 2300 	ldrd	r2, r3, [r3]
 8006b2c:	f7f9 fff6 	bl	8000b1c <__aeabi_dcmplt>
 8006b30:	e798      	b.n	8006a64 <_strtod_l+0xac4>
 8006b32:	2300      	movs	r3, #0
 8006b34:	930b      	str	r3, [sp, #44]	@ 0x2c
 8006b36:	9a17      	ldr	r2, [sp, #92]	@ 0x5c
 8006b38:	9b19      	ldr	r3, [sp, #100]	@ 0x64
 8006b3a:	6013      	str	r3, [r2, #0]
 8006b3c:	f7ff ba6d 	b.w	800601a <_strtod_l+0x7a>
 8006b40:	2a65      	cmp	r2, #101	@ 0x65
 8006b42:	f43f ab66 	beq.w	8006212 <_strtod_l+0x272>
 8006b46:	2a45      	cmp	r2, #69	@ 0x45
 8006b48:	f43f ab63 	beq.w	8006212 <_strtod_l+0x272>
 8006b4c:	2301      	movs	r3, #1
 8006b4e:	f7ff bb9e 	b.w	800628e <_strtod_l+0x2ee>
 8006b52:	bf00      	nop
 8006b54:	f3af 8000 	nop.w
 8006b58:	ffc00000 	.word	0xffc00000
 8006b5c:	41dfffff 	.word	0x41dfffff
 8006b60:	94a03595 	.word	0x94a03595
 8006b64:	3fcfffff 	.word	0x3fcfffff

08006b68 <_strtod_r>:
 8006b68:	4b01      	ldr	r3, [pc, #4]	@ (8006b70 <_strtod_r+0x8>)
 8006b6a:	f7ff ba19 	b.w	8005fa0 <_strtod_l>
 8006b6e:	bf00      	nop
 8006b70:	2000006c 	.word	0x2000006c

08006b74 <_strtol_l.constprop.0>:
 8006b74:	2b24      	cmp	r3, #36	@ 0x24
 8006b76:	e92d 47f0 	stmdb	sp!, {r4, r5, r6, r7, r8, r9, sl, lr}
 8006b7a:	4686      	mov	lr, r0
 8006b7c:	4690      	mov	r8, r2
 8006b7e:	d801      	bhi.n	8006b84 <_strtol_l.constprop.0+0x10>
 8006b80:	2b01      	cmp	r3, #1
 8006b82:	d106      	bne.n	8006b92 <_strtol_l.constprop.0+0x1e>
 8006b84:	f000 faa2 	bl	80070cc <__errno>
 8006b88:	2316      	movs	r3, #22
 8006b8a:	6003      	str	r3, [r0, #0]
 8006b8c:	2000      	movs	r0, #0
 8006b8e:	e8bd 87f0 	ldmia.w	sp!, {r4, r5, r6, r7, r8, r9, sl, pc}
 8006b92:	4834      	ldr	r0, [pc, #208]	@ (8006c64 <_strtol_l.constprop.0+0xf0>)
 8006b94:	460d      	mov	r5, r1
 8006b96:	462a      	mov	r2, r5
 8006b98:	f815 4b01 	ldrb.w	r4, [r5], #1
 8006b9c:	5d06      	ldrb	r6, [r0, r4]
 8006b9e:	f016 0608 	ands.w	r6, r6, #8
 8006ba2:	d1f8      	bne.n	8006b96 <_strtol_l.constprop.0+0x22>
 8006ba4:	2c2d      	cmp	r4, #45	@ 0x2d
 8006ba6:	d12d      	bne.n	8006c04 <_strtol_l.constprop.0+0x90>
 8006ba8:	782c      	ldrb	r4, [r5, #0]
 8006baa:	2601      	movs	r6, #1
 8006bac:	1c95      	adds	r5, r2, #2
 8006bae:	f033 0210 	bics.w	r2, r3, #16
 8006bb2:	d109      	bne.n	8006bc8 <_strtol_l.constprop.0+0x54>
 8006bb4:	2c30      	cmp	r4, #48	@ 0x30
 8006bb6:	d12a      	bne.n	8006c0e <_strtol_l.constprop.0+0x9a>
 8006bb8:	782a      	ldrb	r2, [r5, #0]
 8006bba:	f002 02df 	and.w	r2, r2, #223	@ 0xdf
 8006bbe:	2a58      	cmp	r2, #88	@ 0x58
 8006bc0:	d125      	bne.n	8006c0e <_strtol_l.constprop.0+0x9a>
 8006bc2:	786c      	ldrb	r4, [r5, #1]
 8006bc4:	2310      	movs	r3, #16
 8006bc6:	3502      	adds	r5, #2
 8006bc8:	f106 4c00 	add.w	ip, r6, #2147483648	@ 0x80000000
 8006bcc:	f10c 3cff 	add.w	ip, ip, #4294967295
 8006bd0:	2200      	movs	r2, #0
 8006bd2:	fbbc f9f3 	udiv	r9, ip, r3
 8006bd6:	4610      	mov	r0, r2
 8006bd8:	fb03 ca19 	mls	sl, r3, r9, ip
 8006bdc:	f1a4 0730 	sub.w	r7, r4, #48	@ 0x30
 8006be0:	2f09      	cmp	r7, #9
 8006be2:	d81b      	bhi.n	8006c1c <_strtol_l.constprop.0+0xa8>
 8006be4:	463c      	mov	r4, r7
 8006be6:	42a3      	cmp	r3, r4
 8006be8:	dd27      	ble.n	8006c3a <_strtol_l.constprop.0+0xc6>
 8006bea:	1c57      	adds	r7, r2, #1
 8006bec:	d007      	beq.n	8006bfe <_strtol_l.constprop.0+0x8a>
 8006bee:	4581      	cmp	r9, r0
 8006bf0:	d320      	bcc.n	8006c34 <_strtol_l.constprop.0+0xc0>
 8006bf2:	d101      	bne.n	8006bf8 <_strtol_l.constprop.0+0x84>
 8006bf4:	45a2      	cmp	sl, r4
 8006bf6:	db1d      	blt.n	8006c34 <_strtol_l.constprop.0+0xc0>
 8006bf8:	fb00 4003 	mla	r0, r0, r3, r4
 8006bfc:	2201      	movs	r2, #1
 8006bfe:	f815 4b01 	ldrb.w	r4, [r5], #1
 8006c02:	e7eb      	b.n	8006bdc <_strtol_l.constprop.0+0x68>
 8006c04:	2c2b      	cmp	r4, #43	@ 0x2b
 8006c06:	bf04      	itt	eq
 8006c08:	782c      	ldrbeq	r4, [r5, #0]
 8006c0a:	1c95      	addeq	r5, r2, #2
 8006c0c:	e7cf      	b.n	8006bae <_strtol_l.constprop.0+0x3a>
 8006c0e:	2b00      	cmp	r3, #0
 8006c10:	d1da      	bne.n	8006bc8 <_strtol_l.constprop.0+0x54>
 8006c12:	2c30      	cmp	r4, #48	@ 0x30
 8006c14:	bf0c      	ite	eq
 8006c16:	2308      	moveq	r3, #8
 8006c18:	230a      	movne	r3, #10
 8006c1a:	e7d5      	b.n	8006bc8 <_strtol_l.constprop.0+0x54>
 8006c1c:	f1a4 0741 	sub.w	r7, r4, #65	@ 0x41
 8006c20:	2f19      	cmp	r7, #25
 8006c22:	d801      	bhi.n	8006c28 <_strtol_l.constprop.0+0xb4>
 8006c24:	3c37      	subs	r4, #55	@ 0x37
 8006c26:	e7de      	b.n	8006be6 <_strtol_l.constprop.0+0x72>
 8006c28:	f1a4 0761 	sub.w	r7, r4, #97	@ 0x61
 8006c2c:	2f19      	cmp	r7, #25
 8006c2e:	d804      	bhi.n	8006c3a <_strtol_l.constprop.0+0xc6>
 8006c30:	3c57      	subs	r4, #87	@ 0x57
 8006c32:	e7d8      	b.n	8006be6 <_strtol_l.constprop.0+0x72>
 8006c34:	f04f 32ff 	mov.w	r2, #4294967295
 8006c38:	e7e1      	b.n	8006bfe <_strtol_l.constprop.0+0x8a>
 8006c3a:	1c53      	adds	r3, r2, #1
 8006c3c:	d108      	bne.n	8006c50 <_strtol_l.constprop.0+0xdc>
 8006c3e:	2322      	movs	r3, #34	@ 0x22
 8006c40:	f8ce 3000 	str.w	r3, [lr]
 8006c44:	4660      	mov	r0, ip
 8006c46:	f1b8 0f00 	cmp.w	r8, #0
 8006c4a:	d0a0      	beq.n	8006b8e <_strtol_l.constprop.0+0x1a>
 8006c4c:	1e69      	subs	r1, r5, #1
 8006c4e:	e006      	b.n	8006c5e <_strtol_l.constprop.0+0xea>
 8006c50:	b106      	cbz	r6, 8006c54 <_strtol_l.constprop.0+0xe0>
 8006c52:	4240      	negs	r0, r0
 8006c54:	f1b8 0f00 	cmp.w	r8, #0
 8006c58:	d099      	beq.n	8006b8e <_strtol_l.constprop.0+0x1a>
 8006c5a:	2a00      	cmp	r2, #0
 8006c5c:	d1f6      	bne.n	8006c4c <_strtol_l.constprop.0+0xd8>
 8006c5e:	f8c8 1000 	str.w	r1, [r8]
 8006c62:	e794      	b.n	8006b8e <_strtol_l.constprop.0+0x1a>
 8006c64:	080083b1 	.word	0x080083b1

08006c68 <_strtol_r>:
 8006c68:	f7ff bf84 	b.w	8006b74 <_strtol_l.constprop.0>

08006c6c <__ssputs_r>:
 8006c6c:	e92d 47f0 	stmdb	sp!, {r4, r5, r6, r7, r8, r9, sl, lr}
 8006c70:	688e      	ldr	r6, [r1, #8]
 8006c72:	461f      	mov	r7, r3
 8006c74:	42be      	cmp	r6, r7
 8006c76:	680b      	ldr	r3, [r1, #0]
 8006c78:	4682      	mov	sl, r0
 8006c7a:	460c      	mov	r4, r1
 8006c7c:	4690      	mov	r8, r2
 8006c7e:	d82d      	bhi.n	8006cdc <__ssputs_r+0x70>
 8006c80:	f9b1 200c 	ldrsh.w	r2, [r1, #12]
 8006c84:	f412 6f90 	tst.w	r2, #1152	@ 0x480
 8006c88:	d026      	beq.n	8006cd8 <__ssputs_r+0x6c>
 8006c8a:	6965      	ldr	r5, [r4, #20]
 8006c8c:	6909      	ldr	r1, [r1, #16]
 8006c8e:	eb05 0545 	add.w	r5, r5, r5, lsl #1
 8006c92:	eba3 0901 	sub.w	r9, r3, r1
 8006c96:	eb05 75d5 	add.w	r5, r5, r5, lsr #31
 8006c9a:	1c7b      	adds	r3, r7, #1
 8006c9c:	444b      	add	r3, r9
 8006c9e:	106d      	asrs	r5, r5, #1
 8006ca0:	429d      	cmp	r5, r3
 8006ca2:	bf38      	it	cc
 8006ca4:	461d      	movcc	r5, r3
 8006ca6:	0553      	lsls	r3, r2, #21
 8006ca8:	d527      	bpl.n	8006cfa <__ssputs_r+0x8e>
 8006caa:	4629      	mov	r1, r5
 8006cac:	f7fc fd5a 	bl	8003764 <_malloc_r>
 8006cb0:	4606      	mov	r6, r0
 8006cb2:	b360      	cbz	r0, 8006d0e <__ssputs_r+0xa2>
 8006cb4:	6921      	ldr	r1, [r4, #16]
 8006cb6:	464a      	mov	r2, r9
 8006cb8:	f000 fa0e 	bl	80070d8 <memcpy>
 8006cbc:	89a3      	ldrh	r3, [r4, #12]
 8006cbe:	f423 6390 	bic.w	r3, r3, #1152	@ 0x480
 8006cc2:	f043 0380 	orr.w	r3, r3, #128	@ 0x80
 8006cc6:	81a3      	strh	r3, [r4, #12]
 8006cc8:	6126      	str	r6, [r4, #16]
 8006cca:	6165      	str	r5, [r4, #20]
 8006ccc:	444e      	add	r6, r9
 8006cce:	eba5 0509 	sub.w	r5, r5, r9
 8006cd2:	6026      	str	r6, [r4, #0]
 8006cd4:	60a5      	str	r5, [r4, #8]
 8006cd6:	463e      	mov	r6, r7
 8006cd8:	42be      	cmp	r6, r7
 8006cda:	d900      	bls.n	8006cde <__ssputs_r+0x72>
 8006cdc:	463e      	mov	r6, r7
 8006cde:	6820      	ldr	r0, [r4, #0]
 8006ce0:	4632      	mov	r2, r6
 8006ce2:	4641      	mov	r1, r8
 8006ce4:	f000 f9c6 	bl	8007074 <memmove>
 8006ce8:	68a3      	ldr	r3, [r4, #8]
 8006cea:	1b9b      	subs	r3, r3, r6
 8006cec:	60a3      	str	r3, [r4, #8]
 8006cee:	6823      	ldr	r3, [r4, #0]
 8006cf0:	4433      	add	r3, r6
 8006cf2:	6023      	str	r3, [r4, #0]
 8006cf4:	2000      	movs	r0, #0
 8006cf6:	e8bd 87f0 	ldmia.w	sp!, {r4, r5, r6, r7, r8, r9, sl, pc}
 8006cfa:	462a      	mov	r2, r5
 8006cfc:	f000 fd6d 	bl	80077da <_realloc_r>
 8006d00:	4606      	mov	r6, r0
 8006d02:	2800      	cmp	r0, #0
 8006d04:	d1e0      	bne.n	8006cc8 <__ssputs_r+0x5c>
 8006d06:	6921      	ldr	r1, [r4, #16]
 8006d08:	4650      	mov	r0, sl
 8006d0a:	f7fe fc2d 	bl	8005568 <_free_r>
 8006d0e:	230c      	movs	r3, #12
 8006d10:	f8ca 3000 	str.w	r3, [sl]
 8006d14:	89a3      	ldrh	r3, [r4, #12]
 8006d16:	f043 0340 	orr.w	r3, r3, #64	@ 0x40
 8006d1a:	81a3      	strh	r3, [r4, #12]
 8006d1c:	f04f 30ff 	mov.w	r0, #4294967295
 8006d20:	e7e9      	b.n	8006cf6 <__ssputs_r+0x8a>
	...

08006d24 <_svfiprintf_r>:
 8006d24:	e92d 4ff0 	stmdb	sp!, {r4, r5, r6, r7, r8, r9, sl, fp, lr}
 8006d28:	4698      	mov	r8, r3
 8006d2a:	898b      	ldrh	r3, [r1, #12]
 8006d2c:	061b      	lsls	r3, r3, #24
 8006d2e:	b09d      	sub	sp, #116	@ 0x74
 8006d30:	4607      	mov	r7, r0
 8006d32:	460d      	mov	r5, r1
 8006d34:	4614      	mov	r4, r2
 8006d36:	d510      	bpl.n	8006d5a <_svfiprintf_r+0x36>
 8006d38:	690b      	ldr	r3, [r1, #16]
 8006d3a:	b973      	cbnz	r3, 8006d5a <_svfiprintf_r+0x36>
 8006d3c:	2140      	movs	r1, #64	@ 0x40
 8006d3e:	f7fc fd11 	bl	8003764 <_malloc_r>
 8006d42:	6028      	str	r0, [r5, #0]
 8006d44:	6128      	str	r0, [r5, #16]
 8006d46:	b930      	cbnz	r0, 8006d56 <_svfiprintf_r+0x32>
 8006d48:	230c      	movs	r3, #12
 8006d4a:	603b      	str	r3, [r7, #0]
 8006d4c:	f04f 30ff 	mov.w	r0, #4294967295
 8006d50:	b01d      	add	sp, #116	@ 0x74
 8006d52:	e8bd 8ff0 	ldmia.w	sp!, {r4, r5, r6, r7, r8, r9, sl, fp, pc}
 8006d56:	2340      	movs	r3, #64	@ 0x40
 8006d58:	616b      	str	r3, [r5, #20]
 8006d5a:	2300      	movs	r3, #0
 8006d5c:	9309      	str	r3, [sp, #36]	@ 0x24
 8006d5e:	2320      	movs	r3, #32
 8006d60:	f88d 3029 	strb.w	r3, [sp, #41]	@ 0x29
 8006d64:	f8cd 800c 	str.w	r8, [sp, #12]
 8006d68:	2330      	movs	r3, #48	@ 0x30
 8006d6a:	f8df 819c 	ldr.w	r8, [pc, #412]	@ 8006f08 <_svfiprintf_r+0x1e4>
 8006d6e:	f88d 302a 	strb.w	r3, [sp, #42]	@ 0x2a
 8006d72:	f04f 0901 	mov.w	r9, #1
 8006d76:	4623      	mov	r3, r4
 8006d78:	469a      	mov	sl, r3
 8006d7a:	f813 2b01 	ldrb.w	r2, [r3], #1
 8006d7e:	b10a      	cbz	r2, 8006d84 <_svfiprintf_r+0x60>
 8006d80:	2a25      	cmp	r2, #37	@ 0x25
 8006d82:	d1f9      	bne.n	8006d78 <_svfiprintf_r+0x54>
 8006d84:	ebba 0b04 	subs.w	fp, sl, r4
 8006d88:	d00b      	beq.n	8006da2 <_svfiprintf_r+0x7e>
 8006d8a:	465b      	mov	r3, fp
 8006d8c:	4622      	mov	r2, r4
 8006d8e:	4629      	mov	r1, r5
 8006d90:	4638      	mov	r0, r7
 8006d92:	f7ff ff6b 	bl	8006c6c <__ssputs_r>
 8006d96:	3001      	adds	r0, #1
 8006d98:	f000 80a7 	beq.w	8006eea <_svfiprintf_r+0x1c6>
 8006d9c:	9a09      	ldr	r2, [sp, #36]	@ 0x24
 8006d9e:	445a      	add	r2, fp
 8006da0:	9209      	str	r2, [sp, #36]	@ 0x24
 8006da2:	f89a 3000 	ldrb.w	r3, [sl]
 8006da6:	2b00      	cmp	r3, #0
 8006da8:	f000 809f 	beq.w	8006eea <_svfiprintf_r+0x1c6>
 8006dac:	2300      	movs	r3, #0
 8006dae:	f04f 32ff 	mov.w	r2, #4294967295
 8006db2:	e9cd 2305 	strd	r2, r3, [sp, #20]
 8006db6:	f10a 0a01 	add.w	sl, sl, #1
 8006dba:	9304      	str	r3, [sp, #16]
 8006dbc:	9307      	str	r3, [sp, #28]
 8006dbe:	f88d 3053 	strb.w	r3, [sp, #83]	@ 0x53
 8006dc2:	931a      	str	r3, [sp, #104]	@ 0x68
 8006dc4:	4654      	mov	r4, sl
 8006dc6:	2205      	movs	r2, #5
 8006dc8:	f814 1b01 	ldrb.w	r1, [r4], #1
 8006dcc:	484e      	ldr	r0, [pc, #312]	@ (8006f08 <_svfiprintf_r+0x1e4>)
 8006dce:	f7f9 fa1f 	bl	8000210 <memchr>
 8006dd2:	9a04      	ldr	r2, [sp, #16]
 8006dd4:	b9d8      	cbnz	r0, 8006e0e <_svfiprintf_r+0xea>
 8006dd6:	06d0      	lsls	r0, r2, #27
 8006dd8:	bf44      	itt	mi
 8006dda:	2320      	movmi	r3, #32
 8006ddc:	f88d 3053 	strbmi.w	r3, [sp, #83]	@ 0x53
 8006de0:	0711      	lsls	r1, r2, #28
 8006de2:	bf44      	itt	mi
 8006de4:	232b      	movmi	r3, #43	@ 0x2b
 8006de6:	f88d 3053 	strbmi.w	r3, [sp, #83]	@ 0x53
 8006dea:	f89a 3000 	ldrb.w	r3, [sl]
 8006dee:	2b2a      	cmp	r3, #42	@ 0x2a
 8006df0:	d015      	beq.n	8006e1e <_svfiprintf_r+0xfa>
 8006df2:	9a07      	ldr	r2, [sp, #28]
 8006df4:	4654      	mov	r4, sl
 8006df6:	2000      	movs	r0, #0
 8006df8:	f04f 0c0a 	mov.w	ip, #10
 8006dfc:	4621      	mov	r1, r4
 8006dfe:	f811 3b01 	ldrb.w	r3, [r1], #1
 8006e02:	3b30      	subs	r3, #48	@ 0x30
 8006e04:	2b09      	cmp	r3, #9
 8006e06:	d94b      	bls.n	8006ea0 <_svfiprintf_r+0x17c>
 8006e08:	b1b0      	cbz	r0, 8006e38 <_svfiprintf_r+0x114>
 8006e0a:	9207      	str	r2, [sp, #28]
 8006e0c:	e014      	b.n	8006e38 <_svfiprintf_r+0x114>
 8006e0e:	eba0 0308 	sub.w	r3, r0, r8
 8006e12:	fa09 f303 	lsl.w	r3, r9, r3
 8006e16:	4313      	orrs	r3, r2
 8006e18:	9304      	str	r3, [sp, #16]
 8006e1a:	46a2      	mov	sl, r4
 8006e1c:	e7d2      	b.n	8006dc4 <_svfiprintf_r+0xa0>
 8006e1e:	9b03      	ldr	r3, [sp, #12]
 8006e20:	1d19      	adds	r1, r3, #4
 8006e22:	681b      	ldr	r3, [r3, #0]
 8006e24:	9103      	str	r1, [sp, #12]
 8006e26:	2b00      	cmp	r3, #0
 8006e28:	bfbb      	ittet	lt
 8006e2a:	425b      	neglt	r3, r3
 8006e2c:	f042 0202 	orrlt.w	r2, r2, #2
 8006e30:	9307      	strge	r3, [sp, #28]
 8006e32:	9307      	strlt	r3, [sp, #28]
 8006e34:	bfb8      	it	lt
 8006e36:	9204      	strlt	r2, [sp, #16]
 8006e38:	7823      	ldrb	r3, [r4, #0]
 8006e3a:	2b2e      	cmp	r3, #46	@ 0x2e
 8006e3c:	d10a      	bne.n	8006e54 <_svfiprintf_r+0x130>
 8006e3e:	7863      	ldrb	r3, [r4, #1]
 8006e40:	2b2a      	cmp	r3, #42	@ 0x2a
 8006e42:	d132      	bne.n	8006eaa <_svfiprintf_r+0x186>
 8006e44:	9b03      	ldr	r3, [sp, #12]
 8006e46:	1d1a      	adds	r2, r3, #4
 8006e48:	681b      	ldr	r3, [r3, #0]
 8006e4a:	9203      	str	r2, [sp, #12]
 8006e4c:	ea43 73e3 	orr.w	r3, r3, r3, asr #31
 8006e50:	3402      	adds	r4, #2
 8006e52:	9305      	str	r3, [sp, #20]
 8006e54:	f8df a0c0 	ldr.w	sl, [pc, #192]	@ 8006f18 <_svfiprintf_r+0x1f4>
 8006e58:	7821      	ldrb	r1, [r4, #0]
 8006e5a:	2203      	movs	r2, #3
 8006e5c:	4650      	mov	r0, sl
 8006e5e:	f7f9 f9d7 	bl	8000210 <memchr>
 8006e62:	b138      	cbz	r0, 8006e74 <_svfiprintf_r+0x150>
 8006e64:	9b04      	ldr	r3, [sp, #16]
 8006e66:	eba0 000a 	sub.w	r0, r0, sl
 8006e6a:	2240      	movs	r2, #64	@ 0x40
 8006e6c:	4082      	lsls	r2, r0
 8006e6e:	4313      	orrs	r3, r2
 8006e70:	3401      	adds	r4, #1
 8006e72:	9304      	str	r3, [sp, #16]
 8006e74:	f814 1b01 	ldrb.w	r1, [r4], #1
 8006e78:	4824      	ldr	r0, [pc, #144]	@ (8006f0c <_svfiprintf_r+0x1e8>)
 8006e7a:	f88d 1028 	strb.w	r1, [sp, #40]	@ 0x28
 8006e7e:	2206      	movs	r2, #6
 8006e80:	f7f9 f9c6 	bl	8000210 <memchr>
 8006e84:	2800      	cmp	r0, #0
 8006e86:	d036      	beq.n	8006ef6 <_svfiprintf_r+0x1d2>
 8006e88:	4b21      	ldr	r3, [pc, #132]	@ (8006f10 <_svfiprintf_r+0x1ec>)
 8006e8a:	bb1b      	cbnz	r3, 8006ed4 <_svfiprintf_r+0x1b0>
 8006e8c:	9b03      	ldr	r3, [sp, #12]
 8006e8e:	3307      	adds	r3, #7
 8006e90:	f023 0307 	bic.w	r3, r3, #7
 8006e94:	3308      	adds	r3, #8
 8006e96:	9303      	str	r3, [sp, #12]
 8006e98:	9b09      	ldr	r3, [sp, #36]	@ 0x24
 8006e9a:	4433      	add	r3, r6
 8006e9c:	9309      	str	r3, [sp, #36]	@ 0x24
 8006e9e:	e76a      	b.n	8006d76 <_svfiprintf_r+0x52>
 8006ea0:	fb0c 3202 	mla	r2, ip, r2, r3
 8006ea4:	460c      	mov	r4, r1
 8006ea6:	2001      	movs	r0, #1
 8006ea8:	e7a8      	b.n	8006dfc <_svfiprintf_r+0xd8>
 8006eaa:	2300      	movs	r3, #0
 8006eac:	3401      	adds	r4, #1
 8006eae:	9305      	str	r3, [sp, #20]
 8006eb0:	4619      	mov	r1, r3
 8006eb2:	f04f 0c0a 	mov.w	ip, #10
 8006eb6:	4620      	mov	r0, r4
 8006eb8:	f810 2b01 	ldrb.w	r2, [r0], #1
 8006ebc:	3a30      	subs	r2, #48	@ 0x30
 8006ebe:	2a09      	cmp	r2, #9
 8006ec0:	d903      	bls.n	8006eca <_svfiprintf_r+0x1a6>
 8006ec2:	2b00      	cmp	r3, #0
 8006ec4:	d0c6      	beq.n	8006e54 <_svfiprintf_r+0x130>
 8006ec6:	9105      	str	r1, [sp, #20]
 8006ec8:	e7c4      	b.n	8006e54 <_svfiprintf_r+0x130>
 8006eca:	fb0c 2101 	mla	r1, ip, r1, r2
 8006ece:	4604      	mov	r4, r0
 8006ed0:	2301      	movs	r3, #1
 8006ed2:	e7f0      	b.n	8006eb6 <_svfiprintf_r+0x192>
 8006ed4:	ab03      	add	r3, sp, #12
 8006ed6:	9300      	str	r3, [sp, #0]
 8006ed8:	462a      	mov	r2, r5
 8006eda:	4b0e      	ldr	r3, [pc, #56]	@ (8006f14 <_svfiprintf_r+0x1f0>)
 8006edc:	a904      	add	r1, sp, #16
 8006ede:	4638      	mov	r0, r7
 8006ee0:	f7fc fd6c 	bl	80039bc <_printf_float>
 8006ee4:	1c42      	adds	r2, r0, #1
 8006ee6:	4606      	mov	r6, r0
 8006ee8:	d1d6      	bne.n	8006e98 <_svfiprintf_r+0x174>
 8006eea:	89ab      	ldrh	r3, [r5, #12]
 8006eec:	065b      	lsls	r3, r3, #25
 8006eee:	f53f af2d 	bmi.w	8006d4c <_svfiprintf_r+0x28>
 8006ef2:	9809      	ldr	r0, [sp, #36]	@ 0x24
 8006ef4:	e72c      	b.n	8006d50 <_svfiprintf_r+0x2c>
 8006ef6:	ab03      	add	r3, sp, #12
 8006ef8:	9300      	str	r3, [sp, #0]
 8006efa:	462a      	mov	r2, r5
 8006efc:	4b05      	ldr	r3, [pc, #20]	@ (8006f14 <_svfiprintf_r+0x1f0>)
 8006efe:	a904      	add	r1, sp, #16
 8006f00:	4638      	mov	r0, r7
 8006f02:	f7fc fff3 	bl	8003eec <_printf_i>
 8006f06:	e7ed      	b.n	8006ee4 <_svfiprintf_r+0x1c0>
 8006f08:	080084b1 	.word	0x080084b1
 8006f0c:	080084bb 	.word	0x080084bb
 8006f10:	080039bd 	.word	0x080039bd
 8006f14:	08006c6d 	.word	0x08006c6d
 8006f18:	080084b7 	.word	0x080084b7

08006f1c <__sflush_r>:
 8006f1c:	f9b1 200c 	ldrsh.w	r2, [r1, #12]
 8006f20:	e92d 41f0 	stmdb	sp!, {r4, r5, r6, r7, r8, lr}
 8006f24:	0716      	lsls	r6, r2, #28
 8006f26:	4605      	mov	r5, r0
 8006f28:	460c      	mov	r4, r1
 8006f2a:	d454      	bmi.n	8006fd6 <__sflush_r+0xba>
 8006f2c:	684b      	ldr	r3, [r1, #4]
 8006f2e:	2b00      	cmp	r3, #0
 8006f30:	dc02      	bgt.n	8006f38 <__sflush_r+0x1c>
 8006f32:	6c0b      	ldr	r3, [r1, #64]	@ 0x40
 8006f34:	2b00      	cmp	r3, #0
 8006f36:	dd48      	ble.n	8006fca <__sflush_r+0xae>
 8006f38:	6ae6      	ldr	r6, [r4, #44]	@ 0x2c
 8006f3a:	2e00      	cmp	r6, #0
 8006f3c:	d045      	beq.n	8006fca <__sflush_r+0xae>
 8006f3e:	2300      	movs	r3, #0
 8006f40:	f412 5280 	ands.w	r2, r2, #4096	@ 0x1000
 8006f44:	682f      	ldr	r7, [r5, #0]
 8006f46:	6a21      	ldr	r1, [r4, #32]
 8006f48:	602b      	str	r3, [r5, #0]
 8006f4a:	d030      	beq.n	8006fae <__sflush_r+0x92>
 8006f4c:	6d62      	ldr	r2, [r4, #84]	@ 0x54
 8006f4e:	89a3      	ldrh	r3, [r4, #12]
 8006f50:	0759      	lsls	r1, r3, #29
 8006f52:	d505      	bpl.n	8006f60 <__sflush_r+0x44>
 8006f54:	6863      	ldr	r3, [r4, #4]
 8006f56:	1ad2      	subs	r2, r2, r3
 8006f58:	6b63      	ldr	r3, [r4, #52]	@ 0x34
 8006f5a:	b10b      	cbz	r3, 8006f60 <__sflush_r+0x44>
 8006f5c:	6c23      	ldr	r3, [r4, #64]	@ 0x40
 8006f5e:	1ad2      	subs	r2, r2, r3
 8006f60:	2300      	movs	r3, #0
 8006f62:	6ae6      	ldr	r6, [r4, #44]	@ 0x2c
 8006f64:	6a21      	ldr	r1, [r4, #32]
 8006f66:	4628      	mov	r0, r5
 8006f68:	47b0      	blx	r6
 8006f6a:	1c43      	adds	r3, r0, #1
 8006f6c:	89a3      	ldrh	r3, [r4, #12]
 8006f6e:	d106      	bne.n	8006f7e <__sflush_r+0x62>
 8006f70:	6829      	ldr	r1, [r5, #0]
 8006f72:	291d      	cmp	r1, #29
 8006f74:	d82b      	bhi.n	8006fce <__sflush_r+0xb2>
 8006f76:	4a2a      	ldr	r2, [pc, #168]	@ (8007020 <__sflush_r+0x104>)
 8006f78:	410a      	asrs	r2, r1
 8006f7a:	07d6      	lsls	r6, r2, #31
 8006f7c:	d427      	bmi.n	8006fce <__sflush_r+0xb2>
 8006f7e:	2200      	movs	r2, #0
 8006f80:	6062      	str	r2, [r4, #4]
 8006f82:	04d9      	lsls	r1, r3, #19
 8006f84:	6922      	ldr	r2, [r4, #16]
 8006f86:	6022      	str	r2, [r4, #0]
 8006f88:	d504      	bpl.n	8006f94 <__sflush_r+0x78>
 8006f8a:	1c42      	adds	r2, r0, #1
 8006f8c:	d101      	bne.n	8006f92 <__sflush_r+0x76>
 8006f8e:	682b      	ldr	r3, [r5, #0]
 8006f90:	b903      	cbnz	r3, 8006f94 <__sflush_r+0x78>
 8006f92:	6560      	str	r0, [r4, #84]	@ 0x54
 8006f94:	6b61      	ldr	r1, [r4, #52]	@ 0x34
 8006f96:	602f      	str	r7, [r5, #0]
 8006f98:	b1b9      	cbz	r1, 8006fca <__sflush_r+0xae>
 8006f9a:	f104 0344 	add.w	r3, r4, #68	@ 0x44
 8006f9e:	4299      	cmp	r1, r3
 8006fa0:	d002      	beq.n	8006fa8 <__sflush_r+0x8c>
 8006fa2:	4628      	mov	r0, r5
 8006fa4:	f7fe fae0 	bl	8005568 <_free_r>
 8006fa8:	2300      	movs	r3, #0
 8006faa:	6363      	str	r3, [r4, #52]	@ 0x34
 8006fac:	e00d      	b.n	8006fca <__sflush_r+0xae>
 8006fae:	2301      	movs	r3, #1
 8006fb0:	4628      	mov	r0, r5
 8006fb2:	47b0      	blx	r6
 8006fb4:	4602      	mov	r2, r0
 8006fb6:	1c50      	adds	r0, r2, #1
 8006fb8:	d1c9      	bne.n	8006f4e <__sflush_r+0x32>
 8006fba:	682b      	ldr	r3, [r5, #0]
 8006fbc:	2b00      	cmp	r3, #0
 8006fbe:	d0c6      	beq.n	8006f4e <__sflush_r+0x32>
 8006fc0:	2b1d      	cmp	r3, #29
 8006fc2:	d001      	beq.n	8006fc8 <__sflush_r+0xac>
 8006fc4:	2b16      	cmp	r3, #22
 8006fc6:	d11e      	bne.n	8007006 <__sflush_r+0xea>
 8006fc8:	602f      	str	r7, [r5, #0]
 8006fca:	2000      	movs	r0, #0
 8006fcc:	e022      	b.n	8007014 <__sflush_r+0xf8>
 8006fce:	f043 0340 	orr.w	r3, r3, #64	@ 0x40
 8006fd2:	b21b      	sxth	r3, r3
 8006fd4:	e01b      	b.n	800700e <__sflush_r+0xf2>
 8006fd6:	690f      	ldr	r7, [r1, #16]
 8006fd8:	2f00      	cmp	r7, #0
 8006fda:	d0f6      	beq.n	8006fca <__sflush_r+0xae>
 8006fdc:	0793      	lsls	r3, r2, #30
 8006fde:	680e      	ldr	r6, [r1, #0]
 8006fe0:	bf08      	it	eq
 8006fe2:	694b      	ldreq	r3, [r1, #20]
 8006fe4:	600f      	str	r7, [r1, #0]
 8006fe6:	bf18      	it	ne
 8006fe8:	2300      	movne	r3, #0
 8006fea:	eba6 0807 	sub.w	r8, r6, r7
 8006fee:	608b      	str	r3, [r1, #8]
 8006ff0:	f1b8 0f00 	cmp.w	r8, #0
 8006ff4:	dde9      	ble.n	8006fca <__sflush_r+0xae>
 8006ff6:	6a21      	ldr	r1, [r4, #32]
 8006ff8:	6aa6      	ldr	r6, [r4, #40]	@ 0x28
 8006ffa:	4643      	mov	r3, r8
 8006ffc:	463a      	mov	r2, r7
 8006ffe:	4628      	mov	r0, r5
 8007000:	47b0      	blx	r6
 8007002:	2800      	cmp	r0, #0
 8007004:	dc08      	bgt.n	8007018 <__sflush_r+0xfc>
 8007006:	f9b4 300c 	ldrsh.w	r3, [r4, #12]
 800700a:	f043 0340 	orr.w	r3, r3, #64	@ 0x40
 800700e:	81a3      	strh	r3, [r4, #12]
 8007010:	f04f 30ff 	mov.w	r0, #4294967295
 8007014:	e8bd 81f0 	ldmia.w	sp!, {r4, r5, r6, r7, r8, pc}
 8007018:	4407      	add	r7, r0
 800701a:	eba8 0800 	sub.w	r8, r8, r0
 800701e:	e7e7      	b.n	8006ff0 <__sflush_r+0xd4>
 8007020:	dfbffffe 	.word	0xdfbffffe

08007024 <_fflush_r>:
 8007024:	b538      	push	{r3, r4, r5, lr}
 8007026:	690b      	ldr	r3, [r1, #16]
 8007028:	4605      	mov	r5, r0
 800702a:	460c      	mov	r4, r1
 800702c:	b913      	cbnz	r3, 8007034 <_fflush_r+0x10>
 800702e:	2500      	movs	r5, #0
 8007030:	4628      	mov	r0, r5
 8007032:	bd38      	pop	{r3, r4, r5, pc}
 8007034:	b118      	cbz	r0, 800703e <_fflush_r+0x1a>
 8007036:	6a03      	ldr	r3, [r0, #32]
 8007038:	b90b      	cbnz	r3, 800703e <_fflush_r+0x1a>
 800703a:	f7fd fb17 	bl	800466c <__sinit>
 800703e:	f9b4 300c 	ldrsh.w	r3, [r4, #12]
 8007042:	2b00      	cmp	r3, #0
 8007044:	d0f3      	beq.n	800702e <_fflush_r+0xa>
 8007046:	6e62      	ldr	r2, [r4, #100]	@ 0x64
 8007048:	07d0      	lsls	r0, r2, #31
 800704a:	d404      	bmi.n	8007056 <_fflush_r+0x32>
 800704c:	0599      	lsls	r1, r3, #22
 800704e:	d402      	bmi.n	8007056 <_fflush_r+0x32>
 8007050:	6da0      	ldr	r0, [r4, #88]	@ 0x58
 8007052:	f7fd fc2c 	bl	80048ae <__retarget_lock_acquire_recursive>
 8007056:	4628      	mov	r0, r5
 8007058:	4621      	mov	r1, r4
 800705a:	f7ff ff5f 	bl	8006f1c <__sflush_r>
 800705e:	6e63      	ldr	r3, [r4, #100]	@ 0x64
 8007060:	07da      	lsls	r2, r3, #31
 8007062:	4605      	mov	r5, r0
 8007064:	d4e4      	bmi.n	8007030 <_fflush_r+0xc>
 8007066:	89a3      	ldrh	r3, [r4, #12]
 8007068:	059b      	lsls	r3, r3, #22
 800706a:	d4e1      	bmi.n	8007030 <_fflush_r+0xc>
 800706c:	6da0      	ldr	r0, [r4, #88]	@ 0x58
 800706e:	f7fd fc1f 	bl	80048b0 <__retarget_lock_release_recursive>
 8007072:	e7dd      	b.n	8007030 <_fflush_r+0xc>

08007074 <memmove>:
 8007074:	4288      	cmp	r0, r1
 8007076:	b510      	push	{r4, lr}
 8007078:	eb01 0402 	add.w	r4, r1, r2
 800707c:	d902      	bls.n	8007084 <memmove+0x10>
 800707e:	4284      	cmp	r4, r0
 8007080:	4623      	mov	r3, r4
 8007082:	d807      	bhi.n	8007094 <memmove+0x20>
 8007084:	1e43      	subs	r3, r0, #1
 8007086:	42a1      	cmp	r1, r4
 8007088:	d008      	beq.n	800709c <memmove+0x28>
 800708a:	f811 2b01 	ldrb.w	r2, [r1], #1
 800708e:	f803 2f01 	strb.w	r2, [r3, #1]!
 8007092:	e7f8      	b.n	8007086 <memmove+0x12>
 8007094:	4402      	add	r2, r0
 8007096:	4601      	mov	r1, r0
 8007098:	428a      	cmp	r2, r1
 800709a:	d100      	bne.n	800709e <memmove+0x2a>
 800709c:	bd10      	pop	{r4, pc}
 800709e:	f813 4d01 	ldrb.w	r4, [r3, #-1]!
 80070a2:	f802 4d01 	strb.w	r4, [r2, #-1]!
 80070a6:	e7f7      	b.n	8007098 <memmove+0x24>

080070a8 <strncmp>:
 80070a8:	b510      	push	{r4, lr}
 80070aa:	b16a      	cbz	r2, 80070c8 <strncmp+0x20>
 80070ac:	3901      	subs	r1, #1
 80070ae:	1884      	adds	r4, r0, r2
 80070b0:	f810 2b01 	ldrb.w	r2, [r0], #1
 80070b4:	f811 3f01 	ldrb.w	r3, [r1, #1]!
 80070b8:	429a      	cmp	r2, r3
 80070ba:	d103      	bne.n	80070c4 <strncmp+0x1c>
 80070bc:	42a0      	cmp	r0, r4
 80070be:	d001      	beq.n	80070c4 <strncmp+0x1c>
 80070c0:	2a00      	cmp	r2, #0
 80070c2:	d1f5      	bne.n	80070b0 <strncmp+0x8>
 80070c4:	1ad0      	subs	r0, r2, r3
 80070c6:	bd10      	pop	{r4, pc}
 80070c8:	4610      	mov	r0, r2
 80070ca:	e7fc      	b.n	80070c6 <strncmp+0x1e>

080070cc <__errno>:
 80070cc:	4b01      	ldr	r3, [pc, #4]	@ (80070d4 <__errno+0x8>)
 80070ce:	6818      	ldr	r0, [r3, #0]
 80070d0:	4770      	bx	lr
 80070d2:	bf00      	nop
 80070d4:	2000001c 	.word	0x2000001c

080070d8 <memcpy>:
 80070d8:	440a      	add	r2, r1
 80070da:	4291      	cmp	r1, r2
 80070dc:	f100 33ff 	add.w	r3, r0, #4294967295
 80070e0:	d100      	bne.n	80070e4 <memcpy+0xc>
 80070e2:	4770      	bx	lr
 80070e4:	b510      	push	{r4, lr}
 80070e6:	f811 4b01 	ldrb.w	r4, [r1], #1
 80070ea:	f803 4f01 	strb.w	r4, [r3, #1]!
 80070ee:	4291      	cmp	r1, r2
 80070f0:	d1f9      	bne.n	80070e6 <memcpy+0xe>
 80070f2:	bd10      	pop	{r4, pc}
 80070f4:	0000      	movs	r0, r0
	...

080070f8 <nan>:
 80070f8:	ed9f 0b01 	vldr	d0, [pc, #4]	@ 8007100 <nan+0x8>
 80070fc:	4770      	bx	lr
 80070fe:	bf00      	nop
 8007100:	00000000 	.word	0x00000000
 8007104:	7ff80000 	.word	0x7ff80000

08007108 <__assert_func>:
 8007108:	b51f      	push	{r0, r1, r2, r3, r4, lr}
 800710a:	4614      	mov	r4, r2
 800710c:	461a      	mov	r2, r3
 800710e:	4b09      	ldr	r3, [pc, #36]	@ (8007134 <__assert_func+0x2c>)
 8007110:	681b      	ldr	r3, [r3, #0]
 8007112:	4605      	mov	r5, r0
 8007114:	68d8      	ldr	r0, [r3, #12]
 8007116:	b954      	cbnz	r4, 800712e <__assert_func+0x26>
 8007118:	4b07      	ldr	r3, [pc, #28]	@ (8007138 <__assert_func+0x30>)
 800711a:	461c      	mov	r4, r3
 800711c:	e9cd 3401 	strd	r3, r4, [sp, #4]
 8007120:	9100      	str	r1, [sp, #0]
 8007122:	462b      	mov	r3, r5
 8007124:	4905      	ldr	r1, [pc, #20]	@ (800713c <__assert_func+0x34>)
 8007126:	f000 fb93 	bl	8007850 <fiprintf>
 800712a:	f000 fba3 	bl	8007874 <abort>
 800712e:	4b04      	ldr	r3, [pc, #16]	@ (8007140 <__assert_func+0x38>)
 8007130:	e7f4      	b.n	800711c <__assert_func+0x14>
 8007132:	bf00      	nop
 8007134:	2000001c 	.word	0x2000001c
 8007138:	08008505 	.word	0x08008505
 800713c:	080084d7 	.word	0x080084d7
 8007140:	080084ca 	.word	0x080084ca

08007144 <rshift>:
 8007144:	6903      	ldr	r3, [r0, #16]
 8007146:	ebb3 1f61 	cmp.w	r3, r1, asr #5
 800714a:	e92d 43f0 	stmdb	sp!, {r4, r5, r6, r7, r8, r9, lr}
 800714e:	ea4f 1261 	mov.w	r2, r1, asr #5
 8007152:	f100 0414 	add.w	r4, r0, #20
 8007156:	dd45      	ble.n	80071e4 <rshift+0xa0>
 8007158:	f011 011f 	ands.w	r1, r1, #31
 800715c:	eb04 0683 	add.w	r6, r4, r3, lsl #2
 8007160:	eb04 0582 	add.w	r5, r4, r2, lsl #2
 8007164:	d10c      	bne.n	8007180 <rshift+0x3c>
 8007166:	f100 0710 	add.w	r7, r0, #16
 800716a:	4629      	mov	r1, r5
 800716c:	42b1      	cmp	r1, r6
 800716e:	d334      	bcc.n	80071da <rshift+0x96>
 8007170:	1a9b      	subs	r3, r3, r2
 8007172:	009b      	lsls	r3, r3, #2
 8007174:	1eea      	subs	r2, r5, #3
 8007176:	4296      	cmp	r6, r2
 8007178:	bf38      	it	cc
 800717a:	2300      	movcc	r3, #0
 800717c:	4423      	add	r3, r4
 800717e:	e015      	b.n	80071ac <rshift+0x68>
 8007180:	f854 7022 	ldr.w	r7, [r4, r2, lsl #2]
 8007184:	f1c1 0820 	rsb	r8, r1, #32
 8007188:	40cf      	lsrs	r7, r1
 800718a:	f105 0e04 	add.w	lr, r5, #4
 800718e:	46a1      	mov	r9, r4
 8007190:	4576      	cmp	r6, lr
 8007192:	46f4      	mov	ip, lr
 8007194:	d815      	bhi.n	80071c2 <rshift+0x7e>
 8007196:	1a9a      	subs	r2, r3, r2
 8007198:	0092      	lsls	r2, r2, #2
 800719a:	3a04      	subs	r2, #4
 800719c:	3501      	adds	r5, #1
 800719e:	42ae      	cmp	r6, r5
 80071a0:	bf38      	it	cc
 80071a2:	2200      	movcc	r2, #0
 80071a4:	18a3      	adds	r3, r4, r2
 80071a6:	50a7      	str	r7, [r4, r2]
 80071a8:	b107      	cbz	r7, 80071ac <rshift+0x68>
 80071aa:	3304      	adds	r3, #4
 80071ac:	1b1a      	subs	r2, r3, r4
 80071ae:	42a3      	cmp	r3, r4
 80071b0:	ea4f 02a2 	mov.w	r2, r2, asr #2
 80071b4:	bf08      	it	eq
 80071b6:	2300      	moveq	r3, #0
 80071b8:	6102      	str	r2, [r0, #16]
 80071ba:	bf08      	it	eq
 80071bc:	6143      	streq	r3, [r0, #20]
 80071be:	e8bd 83f0 	ldmia.w	sp!, {r4, r5, r6, r7, r8, r9, pc}
 80071c2:	f8dc c000 	ldr.w	ip, [ip]
 80071c6:	fa0c fc08 	lsl.w	ip, ip, r8
 80071ca:	ea4c 0707 	orr.w	r7, ip, r7
 80071ce:	f849 7b04 	str.w	r7, [r9], #4
 80071d2:	f85e 7b04 	ldr.w	r7, [lr], #4
 80071d6:	40cf      	lsrs	r7, r1
 80071d8:	e7da      	b.n	8007190 <rshift+0x4c>
 80071da:	f851 cb04 	ldr.w	ip, [r1], #4
 80071de:	f847 cf04 	str.w	ip, [r7, #4]!
 80071e2:	e7c3      	b.n	800716c <rshift+0x28>
 80071e4:	4623      	mov	r3, r4
 80071e6:	e7e1      	b.n	80071ac <rshift+0x68>

080071e8 <__hexdig_fun>:
 80071e8:	f1a0 0330 	sub.w	r3, r0, #48	@ 0x30
 80071ec:	2b09      	cmp	r3, #9
 80071ee:	d802      	bhi.n	80071f6 <__hexdig_fun+0xe>
 80071f0:	3820      	subs	r0, #32
 80071f2:	b2c0      	uxtb	r0, r0
 80071f4:	4770      	bx	lr
 80071f6:	f1a0 0361 	sub.w	r3, r0, #97	@ 0x61
 80071fa:	2b05      	cmp	r3, #5
 80071fc:	d801      	bhi.n	8007202 <__hexdig_fun+0x1a>
 80071fe:	3847      	subs	r0, #71	@ 0x47
 8007200:	e7f7      	b.n	80071f2 <__hexdig_fun+0xa>
 8007202:	f1a0 0341 	sub.w	r3, r0, #65	@ 0x41
 8007206:	2b05      	cmp	r3, #5
 8007208:	d801      	bhi.n	800720e <__hexdig_fun+0x26>
 800720a:	3827      	subs	r0, #39	@ 0x27
 800720c:	e7f1      	b.n	80071f2 <__hexdig_fun+0xa>
 800720e:	2000      	movs	r0, #0
 8007210:	4770      	bx	lr
	...

08007214 <__gethex>:
 8007214:	e92d 4ff0 	stmdb	sp!, {r4, r5, r6, r7, r8, r9, sl, fp, lr}
 8007218:	b085      	sub	sp, #20
 800721a:	468a      	mov	sl, r1
 800721c:	9302      	str	r3, [sp, #8]
 800721e:	680b      	ldr	r3, [r1, #0]
 8007220:	9001      	str	r0, [sp, #4]
 8007222:	4690      	mov	r8, r2
 8007224:	1c9c      	adds	r4, r3, #2
 8007226:	46a1      	mov	r9, r4
 8007228:	f814 0b01 	ldrb.w	r0, [r4], #1
 800722c:	2830      	cmp	r0, #48	@ 0x30
 800722e:	d0fa      	beq.n	8007226 <__gethex+0x12>
 8007230:	eba9 0303 	sub.w	r3, r9, r3
 8007234:	f1a3 0b02 	sub.w	fp, r3, #2
 8007238:	f7ff ffd6 	bl	80071e8 <__hexdig_fun>
 800723c:	4605      	mov	r5, r0
 800723e:	2800      	cmp	r0, #0
 8007240:	d168      	bne.n	8007314 <__gethex+0x100>
 8007242:	49a0      	ldr	r1, [pc, #640]	@ (80074c4 <__gethex+0x2b0>)
 8007244:	2201      	movs	r2, #1
 8007246:	4648      	mov	r0, r9
 8007248:	f7ff ff2e 	bl	80070a8 <strncmp>
 800724c:	4607      	mov	r7, r0
 800724e:	2800      	cmp	r0, #0
 8007250:	d167      	bne.n	8007322 <__gethex+0x10e>
 8007252:	f899 0001 	ldrb.w	r0, [r9, #1]
 8007256:	4626      	mov	r6, r4
 8007258:	f7ff ffc6 	bl	80071e8 <__hexdig_fun>
 800725c:	2800      	cmp	r0, #0
 800725e:	d062      	beq.n	8007326 <__gethex+0x112>
 8007260:	4623      	mov	r3, r4
 8007262:	7818      	ldrb	r0, [r3, #0]
 8007264:	2830      	cmp	r0, #48	@ 0x30
 8007266:	4699      	mov	r9, r3
 8007268:	f103 0301 	add.w	r3, r3, #1
 800726c:	d0f9      	beq.n	8007262 <__gethex+0x4e>
 800726e:	f7ff ffbb 	bl	80071e8 <__hexdig_fun>
 8007272:	fab0 f580 	clz	r5, r0
 8007276:	096d      	lsrs	r5, r5, #5
 8007278:	f04f 0b01 	mov.w	fp, #1
 800727c:	464a      	mov	r2, r9
 800727e:	4616      	mov	r6, r2
 8007280:	3201      	adds	r2, #1
 8007282:	7830      	ldrb	r0, [r6, #0]
 8007284:	f7ff ffb0 	bl	80071e8 <__hexdig_fun>
 8007288:	2800      	cmp	r0, #0
 800728a:	d1f8      	bne.n	800727e <__gethex+0x6a>
 800728c:	498d      	ldr	r1, [pc, #564]	@ (80074c4 <__gethex+0x2b0>)
 800728e:	2201      	movs	r2, #1
 8007290:	4630      	mov	r0, r6
 8007292:	f7ff ff09 	bl	80070a8 <strncmp>
 8007296:	2800      	cmp	r0, #0
 8007298:	d13f      	bne.n	800731a <__gethex+0x106>
 800729a:	b944      	cbnz	r4, 80072ae <__gethex+0x9a>
 800729c:	1c74      	adds	r4, r6, #1
 800729e:	4622      	mov	r2, r4
 80072a0:	4616      	mov	r6, r2
 80072a2:	3201      	adds	r2, #1
 80072a4:	7830      	ldrb	r0, [r6, #0]
 80072a6:	f7ff ff9f 	bl	80071e8 <__hexdig_fun>
 80072aa:	2800      	cmp	r0, #0
 80072ac:	d1f8      	bne.n	80072a0 <__gethex+0x8c>
 80072ae:	1ba4      	subs	r4, r4, r6
 80072b0:	00a7      	lsls	r7, r4, #2
 80072b2:	7833      	ldrb	r3, [r6, #0]
 80072b4:	f003 03df 	and.w	r3, r3, #223	@ 0xdf
 80072b8:	2b50      	cmp	r3, #80	@ 0x50
 80072ba:	d13e      	bne.n	800733a <__gethex+0x126>
 80072bc:	7873      	ldrb	r3, [r6, #1]
 80072be:	2b2b      	cmp	r3, #43	@ 0x2b
 80072c0:	d033      	beq.n	800732a <__gethex+0x116>
 80072c2:	2b2d      	cmp	r3, #45	@ 0x2d
 80072c4:	d034      	beq.n	8007330 <__gethex+0x11c>
 80072c6:	1c71      	adds	r1, r6, #1
 80072c8:	2400      	movs	r4, #0
 80072ca:	7808      	ldrb	r0, [r1, #0]
 80072cc:	f7ff ff8c 	bl	80071e8 <__hexdig_fun>
 80072d0:	1e43      	subs	r3, r0, #1
 80072d2:	b2db      	uxtb	r3, r3
 80072d4:	2b18      	cmp	r3, #24
 80072d6:	d830      	bhi.n	800733a <__gethex+0x126>
 80072d8:	f1a0 0210 	sub.w	r2, r0, #16
 80072dc:	f811 0f01 	ldrb.w	r0, [r1, #1]!
 80072e0:	f7ff ff82 	bl	80071e8 <__hexdig_fun>
 80072e4:	f100 3cff 	add.w	ip, r0, #4294967295
 80072e8:	fa5f fc8c 	uxtb.w	ip, ip
 80072ec:	f1bc 0f18 	cmp.w	ip, #24
 80072f0:	f04f 030a 	mov.w	r3, #10
 80072f4:	d91e      	bls.n	8007334 <__gethex+0x120>
 80072f6:	b104      	cbz	r4, 80072fa <__gethex+0xe6>
 80072f8:	4252      	negs	r2, r2
 80072fa:	4417      	add	r7, r2
 80072fc:	f8ca 1000 	str.w	r1, [sl]
 8007300:	b1ed      	cbz	r5, 800733e <__gethex+0x12a>
 8007302:	f1bb 0f00 	cmp.w	fp, #0
 8007306:	bf0c      	ite	eq
 8007308:	2506      	moveq	r5, #6
 800730a:	2500      	movne	r5, #0
 800730c:	4628      	mov	r0, r5
 800730e:	b005      	add	sp, #20
 8007310:	e8bd 8ff0 	ldmia.w	sp!, {r4, r5, r6, r7, r8, r9, sl, fp, pc}
 8007314:	2500      	movs	r5, #0
 8007316:	462c      	mov	r4, r5
 8007318:	e7b0      	b.n	800727c <__gethex+0x68>
 800731a:	2c00      	cmp	r4, #0
 800731c:	d1c7      	bne.n	80072ae <__gethex+0x9a>
 800731e:	4627      	mov	r7, r4
 8007320:	e7c7      	b.n	80072b2 <__gethex+0x9e>
 8007322:	464e      	mov	r6, r9
 8007324:	462f      	mov	r7, r5
 8007326:	2501      	movs	r5, #1
 8007328:	e7c3      	b.n	80072b2 <__gethex+0x9e>
 800732a:	2400      	movs	r4, #0
 800732c:	1cb1      	adds	r1, r6, #2
 800732e:	e7cc      	b.n	80072ca <__gethex+0xb6>
 8007330:	2401      	movs	r4, #1
 8007332:	e7fb      	b.n	800732c <__gethex+0x118>
 8007334:	fb03 0002 	mla	r0, r3, r2, r0
 8007338:	e7ce      	b.n	80072d8 <__gethex+0xc4>
 800733a:	4631      	mov	r1, r6
 800733c:	e7de      	b.n	80072fc <__gethex+0xe8>
 800733e:	eba6 0309 	sub.w	r3, r6, r9
 8007342:	3b01      	subs	r3, #1
 8007344:	4629      	mov	r1, r5
 8007346:	2b07      	cmp	r3, #7
 8007348:	dc0a      	bgt.n	8007360 <__gethex+0x14c>
 800734a:	9801      	ldr	r0, [sp, #4]
 800734c:	f7fe f956 	bl	80055fc <_Balloc>
 8007350:	4604      	mov	r4, r0
 8007352:	b940      	cbnz	r0, 8007366 <__gethex+0x152>
 8007354:	4b5c      	ldr	r3, [pc, #368]	@ (80074c8 <__gethex+0x2b4>)
 8007356:	4602      	mov	r2, r0
 8007358:	21e4      	movs	r1, #228	@ 0xe4
 800735a:	485c      	ldr	r0, [pc, #368]	@ (80074cc <__gethex+0x2b8>)
 800735c:	f7ff fed4 	bl	8007108 <__assert_func>
 8007360:	3101      	adds	r1, #1
 8007362:	105b      	asrs	r3, r3, #1
 8007364:	e7ef      	b.n	8007346 <__gethex+0x132>
 8007366:	f100 0a14 	add.w	sl, r0, #20
 800736a:	2300      	movs	r3, #0
 800736c:	4655      	mov	r5, sl
 800736e:	469b      	mov	fp, r3
 8007370:	45b1      	cmp	r9, r6
 8007372:	d337      	bcc.n	80073e4 <__gethex+0x1d0>
 8007374:	f845 bb04 	str.w	fp, [r5], #4
 8007378:	eba5 050a 	sub.w	r5, r5, sl
 800737c:	10ad      	asrs	r5, r5, #2
 800737e:	6125      	str	r5, [r4, #16]
 8007380:	4658      	mov	r0, fp
 8007382:	f7fe fa2d 	bl	80057e0 <__hi0bits>
 8007386:	016d      	lsls	r5, r5, #5
 8007388:	f8d8 6000 	ldr.w	r6, [r8]
 800738c:	1a2d      	subs	r5, r5, r0
 800738e:	42b5      	cmp	r5, r6
 8007390:	dd54      	ble.n	800743c <__gethex+0x228>
 8007392:	1bad      	subs	r5, r5, r6
 8007394:	4629      	mov	r1, r5
 8007396:	4620      	mov	r0, r4
 8007398:	f7fe fdc1 	bl	8005f1e <__any_on>
 800739c:	4681      	mov	r9, r0
 800739e:	b178      	cbz	r0, 80073c0 <__gethex+0x1ac>
 80073a0:	1e6b      	subs	r3, r5, #1
 80073a2:	1159      	asrs	r1, r3, #5
 80073a4:	f003 021f 	and.w	r2, r3, #31
 80073a8:	f85a 1021 	ldr.w	r1, [sl, r1, lsl #2]
 80073ac:	f04f 0901 	mov.w	r9, #1
 80073b0:	fa09 f202 	lsl.w	r2, r9, r2
 80073b4:	420a      	tst	r2, r1
 80073b6:	d003      	beq.n	80073c0 <__gethex+0x1ac>
 80073b8:	454b      	cmp	r3, r9
 80073ba:	dc36      	bgt.n	800742a <__gethex+0x216>
 80073bc:	f04f 0902 	mov.w	r9, #2
 80073c0:	4629      	mov	r1, r5
 80073c2:	4620      	mov	r0, r4
 80073c4:	f7ff febe 	bl	8007144 <rshift>
 80073c8:	442f      	add	r7, r5
 80073ca:	f8d8 3008 	ldr.w	r3, [r8, #8]
 80073ce:	42bb      	cmp	r3, r7
 80073d0:	da42      	bge.n	8007458 <__gethex+0x244>
 80073d2:	9801      	ldr	r0, [sp, #4]
 80073d4:	4621      	mov	r1, r4
 80073d6:	f7fe f951 	bl	800567c <_Bfree>
 80073da:	9a0e      	ldr	r2, [sp, #56]	@ 0x38
 80073dc:	2300      	movs	r3, #0
 80073de:	6013      	str	r3, [r2, #0]
 80073e0:	25a3      	movs	r5, #163	@ 0xa3
 80073e2:	e793      	b.n	800730c <__gethex+0xf8>
 80073e4:	f816 2d01 	ldrb.w	r2, [r6, #-1]!
 80073e8:	2a2e      	cmp	r2, #46	@ 0x2e
 80073ea:	d012      	beq.n	8007412 <__gethex+0x1fe>
 80073ec:	2b20      	cmp	r3, #32
 80073ee:	d104      	bne.n	80073fa <__gethex+0x1e6>
 80073f0:	f845 bb04 	str.w	fp, [r5], #4
 80073f4:	f04f 0b00 	mov.w	fp, #0
 80073f8:	465b      	mov	r3, fp
 80073fa:	7830      	ldrb	r0, [r6, #0]
 80073fc:	9303      	str	r3, [sp, #12]
 80073fe:	f7ff fef3 	bl	80071e8 <__hexdig_fun>
 8007402:	9b03      	ldr	r3, [sp, #12]
 8007404:	f000 000f 	and.w	r0, r0, #15
 8007408:	4098      	lsls	r0, r3
 800740a:	ea4b 0b00 	orr.w	fp, fp, r0
 800740e:	3304      	adds	r3, #4
 8007410:	e7ae      	b.n	8007370 <__gethex+0x15c>
 8007412:	45b1      	cmp	r9, r6
 8007414:	d8ea      	bhi.n	80073ec <__gethex+0x1d8>
 8007416:	492b      	ldr	r1, [pc, #172]	@ (80074c4 <__gethex+0x2b0>)
 8007418:	9303      	str	r3, [sp, #12]
 800741a:	2201      	movs	r2, #1
 800741c:	4630      	mov	r0, r6
 800741e:	f7ff fe43 	bl	80070a8 <strncmp>
 8007422:	9b03      	ldr	r3, [sp, #12]
 8007424:	2800      	cmp	r0, #0
 8007426:	d1e1      	bne.n	80073ec <__gethex+0x1d8>
 8007428:	e7a2      	b.n	8007370 <__gethex+0x15c>
 800742a:	1ea9      	subs	r1, r5, #2
 800742c:	4620      	mov	r0, r4
 800742e:	f7fe fd76 	bl	8005f1e <__any_on>
 8007432:	2800      	cmp	r0, #0
 8007434:	d0c2      	beq.n	80073bc <__gethex+0x1a8>
 8007436:	f04f 0903 	mov.w	r9, #3
 800743a:	e7c1      	b.n	80073c0 <__gethex+0x1ac>
 800743c:	da09      	bge.n	8007452 <__gethex+0x23e>
 800743e:	1b75      	subs	r5, r6, r5
 8007440:	4621      	mov	r1, r4
 8007442:	9801      	ldr	r0, [sp, #4]
 8007444:	462a      	mov	r2, r5
 8007446:	f7fe fb31 	bl	8005aac <__lshift>
 800744a:	1b7f      	subs	r7, r7, r5
 800744c:	4604      	mov	r4, r0
 800744e:	f100 0a14 	add.w	sl, r0, #20
 8007452:	f04f 0900 	mov.w	r9, #0
 8007456:	e7b8      	b.n	80073ca <__gethex+0x1b6>
 8007458:	f8d8 5004 	ldr.w	r5, [r8, #4]
 800745c:	42bd      	cmp	r5, r7
 800745e:	dd6f      	ble.n	8007540 <__gethex+0x32c>
 8007460:	1bed      	subs	r5, r5, r7
 8007462:	42ae      	cmp	r6, r5
 8007464:	dc34      	bgt.n	80074d0 <__gethex+0x2bc>
 8007466:	f8d8 300c 	ldr.w	r3, [r8, #12]
 800746a:	2b02      	cmp	r3, #2
 800746c:	d022      	beq.n	80074b4 <__gethex+0x2a0>
 800746e:	2b03      	cmp	r3, #3
 8007470:	d024      	beq.n	80074bc <__gethex+0x2a8>
 8007472:	2b01      	cmp	r3, #1
 8007474:	d115      	bne.n	80074a2 <__gethex+0x28e>
 8007476:	42ae      	cmp	r6, r5
 8007478:	d113      	bne.n	80074a2 <__gethex+0x28e>
 800747a:	2e01      	cmp	r6, #1
 800747c:	d10b      	bne.n	8007496 <__gethex+0x282>
 800747e:	9a02      	ldr	r2, [sp, #8]
 8007480:	f8d8 3004 	ldr.w	r3, [r8, #4]
 8007484:	6013      	str	r3, [r2, #0]
 8007486:	2301      	movs	r3, #1
 8007488:	6123      	str	r3, [r4, #16]
 800748a:	f8ca 3000 	str.w	r3, [sl]
 800748e:	9b0e      	ldr	r3, [sp, #56]	@ 0x38
 8007490:	2562      	movs	r5, #98	@ 0x62
 8007492:	601c      	str	r4, [r3, #0]
 8007494:	e73a      	b.n	800730c <__gethex+0xf8>
 8007496:	1e71      	subs	r1, r6, #1
 8007498:	4620      	mov	r0, r4
 800749a:	f7fe fd40 	bl	8005f1e <__any_on>
 800749e:	2800      	cmp	r0, #0
 80074a0:	d1ed      	bne.n	800747e <__gethex+0x26a>
 80074a2:	9801      	ldr	r0, [sp, #4]
 80074a4:	4621      	mov	r1, r4
 80074a6:	f7fe f8e9 	bl	800567c <_Bfree>
 80074aa:	9a0e      	ldr	r2, [sp, #56]	@ 0x38
 80074ac:	2300      	movs	r3, #0
 80074ae:	6013      	str	r3, [r2, #0]
 80074b0:	2550      	movs	r5, #80	@ 0x50
 80074b2:	e72b      	b.n	800730c <__gethex+0xf8>
 80074b4:	9b0f      	ldr	r3, [sp, #60]	@ 0x3c
 80074b6:	2b00      	cmp	r3, #0
 80074b8:	d1f3      	bne.n	80074a2 <__gethex+0x28e>
 80074ba:	e7e0      	b.n	800747e <__gethex+0x26a>
 80074bc:	9b0f      	ldr	r3, [sp, #60]	@ 0x3c
 80074be:	2b00      	cmp	r3, #0
 80074c0:	d1dd      	bne.n	800747e <__gethex+0x26a>
 80074c2:	e7ee      	b.n	80074a2 <__gethex+0x28e>
 80074c4:	08008358 	.word	0x08008358
 80074c8:	080081ee 	.word	0x080081ee
 80074cc:	08008506 	.word	0x08008506
 80074d0:	1e6f      	subs	r7, r5, #1
 80074d2:	f1b9 0f00 	cmp.w	r9, #0
 80074d6:	d130      	bne.n	800753a <__gethex+0x326>
 80074d8:	b127      	cbz	r7, 80074e4 <__gethex+0x2d0>
 80074da:	4639      	mov	r1, r7
 80074dc:	4620      	mov	r0, r4
 80074de:	f7fe fd1e 	bl	8005f1e <__any_on>
 80074e2:	4681      	mov	r9, r0
 80074e4:	117a      	asrs	r2, r7, #5
 80074e6:	2301      	movs	r3, #1
 80074e8:	f85a 2022 	ldr.w	r2, [sl, r2, lsl #2]
 80074ec:	f007 071f 	and.w	r7, r7, #31
 80074f0:	40bb      	lsls	r3, r7
 80074f2:	4213      	tst	r3, r2
 80074f4:	4629      	mov	r1, r5
 80074f6:	4620      	mov	r0, r4
 80074f8:	bf18      	it	ne
 80074fa:	f049 0902 	orrne.w	r9, r9, #2
 80074fe:	f7ff fe21 	bl	8007144 <rshift>
 8007502:	f8d8 7004 	ldr.w	r7, [r8, #4]
 8007506:	1b76      	subs	r6, r6, r5
 8007508:	2502      	movs	r5, #2
 800750a:	f1b9 0f00 	cmp.w	r9, #0
 800750e:	d047      	beq.n	80075a0 <__gethex+0x38c>
 8007510:	f8d8 300c 	ldr.w	r3, [r8, #12]
 8007514:	2b02      	cmp	r3, #2
 8007516:	d015      	beq.n	8007544 <__gethex+0x330>
 8007518:	2b03      	cmp	r3, #3
 800751a:	d017      	beq.n	800754c <__gethex+0x338>
 800751c:	2b01      	cmp	r3, #1
 800751e:	d109      	bne.n	8007534 <__gethex+0x320>
 8007520:	f019 0f02 	tst.w	r9, #2
 8007524:	d006      	beq.n	8007534 <__gethex+0x320>
 8007526:	f8da 3000 	ldr.w	r3, [sl]
 800752a:	ea49 0903 	orr.w	r9, r9, r3
 800752e:	f019 0f01 	tst.w	r9, #1
 8007532:	d10e      	bne.n	8007552 <__gethex+0x33e>
 8007534:	f045 0510 	orr.w	r5, r5, #16
 8007538:	e032      	b.n	80075a0 <__gethex+0x38c>
 800753a:	f04f 0901 	mov.w	r9, #1
 800753e:	e7d1      	b.n	80074e4 <__gethex+0x2d0>
 8007540:	2501      	movs	r5, #1
 8007542:	e7e2      	b.n	800750a <__gethex+0x2f6>
 8007544:	9b0f      	ldr	r3, [sp, #60]	@ 0x3c
 8007546:	f1c3 0301 	rsb	r3, r3, #1
 800754a:	930f      	str	r3, [sp, #60]	@ 0x3c
 800754c:	9b0f      	ldr	r3, [sp, #60]	@ 0x3c
 800754e:	2b00      	cmp	r3, #0
 8007550:	d0f0      	beq.n	8007534 <__gethex+0x320>
 8007552:	f8d4 b010 	ldr.w	fp, [r4, #16]
 8007556:	f104 0314 	add.w	r3, r4, #20
 800755a:	ea4f 0a8b 	mov.w	sl, fp, lsl #2
 800755e:	eb03 018b 	add.w	r1, r3, fp, lsl #2
 8007562:	f04f 0c00 	mov.w	ip, #0
 8007566:	4618      	mov	r0, r3
 8007568:	f853 2b04 	ldr.w	r2, [r3], #4
 800756c:	f1b2 3fff 	cmp.w	r2, #4294967295
 8007570:	d01b      	beq.n	80075aa <__gethex+0x396>
 8007572:	3201      	adds	r2, #1
 8007574:	6002      	str	r2, [r0, #0]
 8007576:	2d02      	cmp	r5, #2
 8007578:	f104 0314 	add.w	r3, r4, #20
 800757c:	d13c      	bne.n	80075f8 <__gethex+0x3e4>
 800757e:	f8d8 2000 	ldr.w	r2, [r8]
 8007582:	3a01      	subs	r2, #1
 8007584:	42b2      	cmp	r2, r6
 8007586:	d109      	bne.n	800759c <__gethex+0x388>
 8007588:	1171      	asrs	r1, r6, #5
 800758a:	2201      	movs	r2, #1
 800758c:	f853 3021 	ldr.w	r3, [r3, r1, lsl #2]
 8007590:	f006 061f 	and.w	r6, r6, #31
 8007594:	fa02 f606 	lsl.w	r6, r2, r6
 8007598:	421e      	tst	r6, r3
 800759a:	d13a      	bne.n	8007612 <__gethex+0x3fe>
 800759c:	f045 0520 	orr.w	r5, r5, #32
 80075a0:	9b0e      	ldr	r3, [sp, #56]	@ 0x38
 80075a2:	601c      	str	r4, [r3, #0]
 80075a4:	9b02      	ldr	r3, [sp, #8]
 80075a6:	601f      	str	r7, [r3, #0]
 80075a8:	e6b0      	b.n	800730c <__gethex+0xf8>
 80075aa:	4299      	cmp	r1, r3
 80075ac:	f843 cc04 	str.w	ip, [r3, #-4]
 80075b0:	d8d9      	bhi.n	8007566 <__gethex+0x352>
 80075b2:	68a3      	ldr	r3, [r4, #8]
 80075b4:	459b      	cmp	fp, r3
 80075b6:	db17      	blt.n	80075e8 <__gethex+0x3d4>
 80075b8:	6861      	ldr	r1, [r4, #4]
 80075ba:	9801      	ldr	r0, [sp, #4]
 80075bc:	3101      	adds	r1, #1
 80075be:	f7fe f81d 	bl	80055fc <_Balloc>
 80075c2:	4681      	mov	r9, r0
 80075c4:	b918      	cbnz	r0, 80075ce <__gethex+0x3ba>
 80075c6:	4b1a      	ldr	r3, [pc, #104]	@ (8007630 <__gethex+0x41c>)
 80075c8:	4602      	mov	r2, r0
 80075ca:	2184      	movs	r1, #132	@ 0x84
 80075cc:	e6c5      	b.n	800735a <__gethex+0x146>
 80075ce:	6922      	ldr	r2, [r4, #16]
 80075d0:	3202      	adds	r2, #2
 80075d2:	f104 010c 	add.w	r1, r4, #12
 80075d6:	0092      	lsls	r2, r2, #2
 80075d8:	300c      	adds	r0, #12
 80075da:	f7ff fd7d 	bl	80070d8 <memcpy>
 80075de:	4621      	mov	r1, r4
 80075e0:	9801      	ldr	r0, [sp, #4]
 80075e2:	f7fe f84b 	bl	800567c <_Bfree>
 80075e6:	464c      	mov	r4, r9
 80075e8:	6923      	ldr	r3, [r4, #16]
 80075ea:	1c5a      	adds	r2, r3, #1
 80075ec:	eb04 0383 	add.w	r3, r4, r3, lsl #2
 80075f0:	6122      	str	r2, [r4, #16]
 80075f2:	2201      	movs	r2, #1
 80075f4:	615a      	str	r2, [r3, #20]
 80075f6:	e7be      	b.n	8007576 <__gethex+0x362>
 80075f8:	6922      	ldr	r2, [r4, #16]
 80075fa:	455a      	cmp	r2, fp
 80075fc:	dd0b      	ble.n	8007616 <__gethex+0x402>
 80075fe:	2101      	movs	r1, #1
 8007600:	4620      	mov	r0, r4
 8007602:	f7ff fd9f 	bl	8007144 <rshift>
 8007606:	f8d8 3008 	ldr.w	r3, [r8, #8]
 800760a:	3701      	adds	r7, #1
 800760c:	42bb      	cmp	r3, r7
 800760e:	f6ff aee0 	blt.w	80073d2 <__gethex+0x1be>
 8007612:	2501      	movs	r5, #1
 8007614:	e7c2      	b.n	800759c <__gethex+0x388>
 8007616:	f016 061f 	ands.w	r6, r6, #31
 800761a:	d0fa      	beq.n	8007612 <__gethex+0x3fe>
 800761c:	4453      	add	r3, sl
 800761e:	f1c6 0620 	rsb	r6, r6, #32
 8007622:	f853 0c04 	ldr.w	r0, [r3, #-4]
 8007626:	f7fe f8db 	bl	80057e0 <__hi0bits>
 800762a:	42b0      	cmp	r0, r6
 800762c:	dbe7      	blt.n	80075fe <__gethex+0x3ea>
 800762e:	e7f0      	b.n	8007612 <__gethex+0x3fe>
 8007630:	080081ee 	.word	0x080081ee

08007634 <L_shift>:
 8007634:	f1c2 0208 	rsb	r2, r2, #8
 8007638:	0092      	lsls	r2, r2, #2
 800763a:	b570      	push	{r4, r5, r6, lr}
 800763c:	f1c2 0620 	rsb	r6, r2, #32
 8007640:	6843      	ldr	r3, [r0, #4]
 8007642:	6804      	ldr	r4, [r0, #0]
 8007644:	fa03 f506 	lsl.w	r5, r3, r6
 8007648:	432c      	orrs	r4, r5
 800764a:	40d3      	lsrs	r3, r2
 800764c:	6004      	str	r4, [r0, #0]
 800764e:	f840 3f04 	str.w	r3, [r0, #4]!
 8007652:	4288      	cmp	r0, r1
 8007654:	d3f4      	bcc.n	8007640 <L_shift+0xc>
 8007656:	bd70      	pop	{r4, r5, r6, pc}

08007658 <__match>:
 8007658:	b530      	push	{r4, r5, lr}
 800765a:	6803      	ldr	r3, [r0, #0]
 800765c:	3301      	adds	r3, #1
 800765e:	f811 4b01 	ldrb.w	r4, [r1], #1
 8007662:	b914      	cbnz	r4, 800766a <__match+0x12>
 8007664:	6003      	str	r3, [r0, #0]
 8007666:	2001      	movs	r0, #1
 8007668:	bd30      	pop	{r4, r5, pc}
 800766a:	f813 2b01 	ldrb.w	r2, [r3], #1
 800766e:	f1a2 0541 	sub.w	r5, r2, #65	@ 0x41
 8007672:	2d19      	cmp	r5, #25
 8007674:	bf98      	it	ls
 8007676:	3220      	addls	r2, #32
 8007678:	42a2      	cmp	r2, r4
 800767a:	d0f0      	beq.n	800765e <__match+0x6>
 800767c:	2000      	movs	r0, #0
 800767e:	e7f3      	b.n	8007668 <__match+0x10>

08007680 <__hexnan>:
 8007680:	e92d 4ff0 	stmdb	sp!, {r4, r5, r6, r7, r8, r9, sl, fp, lr}
 8007684:	680b      	ldr	r3, [r1, #0]
 8007686:	6801      	ldr	r1, [r0, #0]
 8007688:	115e      	asrs	r6, r3, #5
 800768a:	eb02 0686 	add.w	r6, r2, r6, lsl #2
 800768e:	f013 031f 	ands.w	r3, r3, #31
 8007692:	b087      	sub	sp, #28
 8007694:	bf18      	it	ne
 8007696:	3604      	addne	r6, #4
 8007698:	2500      	movs	r5, #0
 800769a:	1f37      	subs	r7, r6, #4
 800769c:	4682      	mov	sl, r0
 800769e:	4690      	mov	r8, r2
 80076a0:	9301      	str	r3, [sp, #4]
 80076a2:	f846 5c04 	str.w	r5, [r6, #-4]
 80076a6:	46b9      	mov	r9, r7
 80076a8:	463c      	mov	r4, r7
 80076aa:	9502      	str	r5, [sp, #8]
 80076ac:	46ab      	mov	fp, r5
 80076ae:	784a      	ldrb	r2, [r1, #1]
 80076b0:	1c4b      	adds	r3, r1, #1
 80076b2:	9303      	str	r3, [sp, #12]
 80076b4:	b342      	cbz	r2, 8007708 <__hexnan+0x88>
 80076b6:	4610      	mov	r0, r2
 80076b8:	9105      	str	r1, [sp, #20]
 80076ba:	9204      	str	r2, [sp, #16]
 80076bc:	f7ff fd94 	bl	80071e8 <__hexdig_fun>
 80076c0:	2800      	cmp	r0, #0
 80076c2:	d151      	bne.n	8007768 <__hexnan+0xe8>
 80076c4:	9a04      	ldr	r2, [sp, #16]
 80076c6:	9905      	ldr	r1, [sp, #20]
 80076c8:	2a20      	cmp	r2, #32
 80076ca:	d818      	bhi.n	80076fe <__hexnan+0x7e>
 80076cc:	9b02      	ldr	r3, [sp, #8]
 80076ce:	459b      	cmp	fp, r3
 80076d0:	dd13      	ble.n	80076fa <__hexnan+0x7a>
 80076d2:	454c      	cmp	r4, r9
 80076d4:	d206      	bcs.n	80076e4 <__hexnan+0x64>
 80076d6:	2d07      	cmp	r5, #7
 80076d8:	dc04      	bgt.n	80076e4 <__hexnan+0x64>
 80076da:	462a      	mov	r2, r5
 80076dc:	4649      	mov	r1, r9
 80076de:	4620      	mov	r0, r4
 80076e0:	f7ff ffa8 	bl	8007634 <L_shift>
 80076e4:	4544      	cmp	r4, r8
 80076e6:	d952      	bls.n	800778e <__hexnan+0x10e>
 80076e8:	2300      	movs	r3, #0
 80076ea:	f1a4 0904 	sub.w	r9, r4, #4
 80076ee:	f844 3c04 	str.w	r3, [r4, #-4]
 80076f2:	f8cd b008 	str.w	fp, [sp, #8]
 80076f6:	464c      	mov	r4, r9
 80076f8:	461d      	mov	r5, r3
 80076fa:	9903      	ldr	r1, [sp, #12]
 80076fc:	e7d7      	b.n	80076ae <__hexnan+0x2e>
 80076fe:	2a29      	cmp	r2, #41	@ 0x29
 8007700:	d157      	bne.n	80077b2 <__hexnan+0x132>
 8007702:	3102      	adds	r1, #2
 8007704:	f8ca 1000 	str.w	r1, [sl]
 8007708:	f1bb 0f00 	cmp.w	fp, #0
 800770c:	d051      	beq.n	80077b2 <__hexnan+0x132>
 800770e:	454c      	cmp	r4, r9
 8007710:	d206      	bcs.n	8007720 <__hexnan+0xa0>
 8007712:	2d07      	cmp	r5, #7
 8007714:	dc04      	bgt.n	8007720 <__hexnan+0xa0>
 8007716:	462a      	mov	r2, r5
 8007718:	4649      	mov	r1, r9
 800771a:	4620      	mov	r0, r4
 800771c:	f7ff ff8a 	bl	8007634 <L_shift>
 8007720:	4544      	cmp	r4, r8
 8007722:	d936      	bls.n	8007792 <__hexnan+0x112>
 8007724:	f1a8 0204 	sub.w	r2, r8, #4
 8007728:	4623      	mov	r3, r4
 800772a:	f853 1b04 	ldr.w	r1, [r3], #4
 800772e:	f842 1f04 	str.w	r1, [r2, #4]!
 8007732:	429f      	cmp	r7, r3
 8007734:	d2f9      	bcs.n	800772a <__hexnan+0xaa>
 8007736:	1b3b      	subs	r3, r7, r4
 8007738:	f023 0303 	bic.w	r3, r3, #3
 800773c:	3304      	adds	r3, #4
 800773e:	3401      	adds	r4, #1
 8007740:	3e03      	subs	r6, #3
 8007742:	42b4      	cmp	r4, r6
 8007744:	bf88      	it	hi
 8007746:	2304      	movhi	r3, #4
 8007748:	4443      	add	r3, r8
 800774a:	2200      	movs	r2, #0
 800774c:	f843 2b04 	str.w	r2, [r3], #4
 8007750:	429f      	cmp	r7, r3
 8007752:	d2fb      	bcs.n	800774c <__hexnan+0xcc>
 8007754:	683b      	ldr	r3, [r7, #0]
 8007756:	b91b      	cbnz	r3, 8007760 <__hexnan+0xe0>
 8007758:	4547      	cmp	r7, r8
 800775a:	d128      	bne.n	80077ae <__hexnan+0x12e>
 800775c:	2301      	movs	r3, #1
 800775e:	603b      	str	r3, [r7, #0]
 8007760:	2005      	movs	r0, #5
 8007762:	b007      	add	sp, #28
 8007764:	e8bd 8ff0 	ldmia.w	sp!, {r4, r5, r6, r7, r8, r9, sl, fp, pc}
 8007768:	3501      	adds	r5, #1
 800776a:	2d08      	cmp	r5, #8
 800776c:	f10b 0b01 	add.w	fp, fp, #1
 8007770:	dd06      	ble.n	8007780 <__hexnan+0x100>
 8007772:	4544      	cmp	r4, r8
 8007774:	d9c1      	bls.n	80076fa <__hexnan+0x7a>
 8007776:	2300      	movs	r3, #0
 8007778:	f844 3c04 	str.w	r3, [r4, #-4]
 800777c:	2501      	movs	r5, #1
 800777e:	3c04      	subs	r4, #4
 8007780:	6822      	ldr	r2, [r4, #0]
 8007782:	f000 000f 	and.w	r0, r0, #15
 8007786:	ea40 1002 	orr.w	r0, r0, r2, lsl #4
 800778a:	6020      	str	r0, [r4, #0]
 800778c:	e7b5      	b.n	80076fa <__hexnan+0x7a>
 800778e:	2508      	movs	r5, #8
 8007790:	e7b3      	b.n	80076fa <__hexnan+0x7a>
 8007792:	9b01      	ldr	r3, [sp, #4]
 8007794:	2b00      	cmp	r3, #0
 8007796:	d0dd      	beq.n	8007754 <__hexnan+0xd4>
 8007798:	f1c3 0320 	rsb	r3, r3, #32
 800779c:	f04f 32ff 	mov.w	r2, #4294967295
 80077a0:	40da      	lsrs	r2, r3
 80077a2:	f856 3c04 	ldr.w	r3, [r6, #-4]
 80077a6:	4013      	ands	r3, r2
 80077a8:	f846 3c04 	str.w	r3, [r6, #-4]
 80077ac:	e7d2      	b.n	8007754 <__hexnan+0xd4>
 80077ae:	3f04      	subs	r7, #4
 80077b0:	e7d0      	b.n	8007754 <__hexnan+0xd4>
 80077b2:	2004      	movs	r0, #4
 80077b4:	e7d5      	b.n	8007762 <__hexnan+0xe2>

080077b6 <__ascii_mbtowc>:
 80077b6:	b082      	sub	sp, #8
 80077b8:	b901      	cbnz	r1, 80077bc <__ascii_mbtowc+0x6>
 80077ba:	a901      	add	r1, sp, #4
 80077bc:	b142      	cbz	r2, 80077d0 <__ascii_mbtowc+0x1a>
 80077be:	b14b      	cbz	r3, 80077d4 <__ascii_mbtowc+0x1e>
 80077c0:	7813      	ldrb	r3, [r2, #0]
 80077c2:	600b      	str	r3, [r1, #0]
 80077c4:	7812      	ldrb	r2, [r2, #0]
 80077c6:	1e10      	subs	r0, r2, #0
 80077c8:	bf18      	it	ne
 80077ca:	2001      	movne	r0, #1
 80077cc:	b002      	add	sp, #8
 80077ce:	4770      	bx	lr
 80077d0:	4610      	mov	r0, r2
 80077d2:	e7fb      	b.n	80077cc <__ascii_mbtowc+0x16>
 80077d4:	f06f 0001 	mvn.w	r0, #1
 80077d8:	e7f8      	b.n	80077cc <__ascii_mbtowc+0x16>

080077da <_realloc_r>:
 80077da:	e92d 41f0 	stmdb	sp!, {r4, r5, r6, r7, r8, lr}
 80077de:	4680      	mov	r8, r0
 80077e0:	4615      	mov	r5, r2
 80077e2:	460c      	mov	r4, r1
 80077e4:	b921      	cbnz	r1, 80077f0 <_realloc_r+0x16>
 80077e6:	e8bd 41f0 	ldmia.w	sp!, {r4, r5, r6, r7, r8, lr}
 80077ea:	4611      	mov	r1, r2
 80077ec:	f7fb bfba 	b.w	8003764 <_malloc_r>
 80077f0:	b92a      	cbnz	r2, 80077fe <_realloc_r+0x24>
 80077f2:	f7fd feb9 	bl	8005568 <_free_r>
 80077f6:	2400      	movs	r4, #0
 80077f8:	4620      	mov	r0, r4
 80077fa:	e8bd 81f0 	ldmia.w	sp!, {r4, r5, r6, r7, r8, pc}
 80077fe:	f000 f840 	bl	8007882 <_malloc_usable_size_r>
 8007802:	4285      	cmp	r5, r0
 8007804:	4606      	mov	r6, r0
 8007806:	d802      	bhi.n	800780e <_realloc_r+0x34>
 8007808:	ebb5 0f50 	cmp.w	r5, r0, lsr #1
 800780c:	d8f4      	bhi.n	80077f8 <_realloc_r+0x1e>
 800780e:	4629      	mov	r1, r5
 8007810:	4640      	mov	r0, r8
 8007812:	f7fb ffa7 	bl	8003764 <_malloc_r>
 8007816:	4607      	mov	r7, r0
 8007818:	2800      	cmp	r0, #0
 800781a:	d0ec      	beq.n	80077f6 <_realloc_r+0x1c>
 800781c:	42b5      	cmp	r5, r6
 800781e:	462a      	mov	r2, r5
 8007820:	4621      	mov	r1, r4
 8007822:	bf28      	it	cs
 8007824:	4632      	movcs	r2, r6
 8007826:	f7ff fc57 	bl	80070d8 <memcpy>
 800782a:	4621      	mov	r1, r4
 800782c:	4640      	mov	r0, r8
 800782e:	f7fd fe9b 	bl	8005568 <_free_r>
 8007832:	463c      	mov	r4, r7
 8007834:	e7e0      	b.n	80077f8 <_realloc_r+0x1e>

08007836 <__ascii_wctomb>:
 8007836:	4603      	mov	r3, r0
 8007838:	4608      	mov	r0, r1
 800783a:	b141      	cbz	r1, 800784e <__ascii_wctomb+0x18>
 800783c:	2aff      	cmp	r2, #255	@ 0xff
 800783e:	d904      	bls.n	800784a <__ascii_wctomb+0x14>
 8007840:	228a      	movs	r2, #138	@ 0x8a
 8007842:	601a      	str	r2, [r3, #0]
 8007844:	f04f 30ff 	mov.w	r0, #4294967295
 8007848:	4770      	bx	lr
 800784a:	700a      	strb	r2, [r1, #0]
 800784c:	2001      	movs	r0, #1
 800784e:	4770      	bx	lr

08007850 <fiprintf>:
 8007850:	b40e      	push	{r1, r2, r3}
 8007852:	b503      	push	{r0, r1, lr}
 8007854:	4601      	mov	r1, r0
 8007856:	ab03      	add	r3, sp, #12
 8007858:	4805      	ldr	r0, [pc, #20]	@ (8007870 <fiprintf+0x20>)
 800785a:	f853 2b04 	ldr.w	r2, [r3], #4
 800785e:	6800      	ldr	r0, [r0, #0]
 8007860:	9301      	str	r3, [sp, #4]
 8007862:	f000 f83f 	bl	80078e4 <_vfiprintf_r>
 8007866:	b002      	add	sp, #8
 8007868:	f85d eb04 	ldr.w	lr, [sp], #4
 800786c:	b003      	add	sp, #12
 800786e:	4770      	bx	lr
 8007870:	2000001c 	.word	0x2000001c

08007874 <abort>:
 8007874:	b508      	push	{r3, lr}
 8007876:	2006      	movs	r0, #6
 8007878:	f000 fa08 	bl	8007c8c <raise>
 800787c:	2001      	movs	r0, #1
 800787e:	f000 faf3 	bl	8007e68 <_exit>

08007882 <_malloc_usable_size_r>:
 8007882:	f851 3c04 	ldr.w	r3, [r1, #-4]
 8007886:	1f18      	subs	r0, r3, #4
 8007888:	2b00      	cmp	r3, #0
 800788a:	bfbc      	itt	lt
 800788c:	580b      	ldrlt	r3, [r1, r0]
 800788e:	18c0      	addlt	r0, r0, r3
 8007890:	4770      	bx	lr

08007892 <__sfputc_r>:
 8007892:	6893      	ldr	r3, [r2, #8]
 8007894:	3b01      	subs	r3, #1
 8007896:	2b00      	cmp	r3, #0
 8007898:	b410      	push	{r4}
 800789a:	6093      	str	r3, [r2, #8]
 800789c:	da08      	bge.n	80078b0 <__sfputc_r+0x1e>
 800789e:	6994      	ldr	r4, [r2, #24]
 80078a0:	42a3      	cmp	r3, r4
 80078a2:	db01      	blt.n	80078a8 <__sfputc_r+0x16>
 80078a4:	290a      	cmp	r1, #10
 80078a6:	d103      	bne.n	80078b0 <__sfputc_r+0x1e>
 80078a8:	f85d 4b04 	ldr.w	r4, [sp], #4
 80078ac:	f000 b932 	b.w	8007b14 <__swbuf_r>
 80078b0:	6813      	ldr	r3, [r2, #0]
 80078b2:	1c58      	adds	r0, r3, #1
 80078b4:	6010      	str	r0, [r2, #0]
 80078b6:	7019      	strb	r1, [r3, #0]
 80078b8:	4608      	mov	r0, r1
 80078ba:	f85d 4b04 	ldr.w	r4, [sp], #4
 80078be:	4770      	bx	lr

080078c0 <__sfputs_r>:
 80078c0:	b5f8      	push	{r3, r4, r5, r6, r7, lr}
 80078c2:	4606      	mov	r6, r0
 80078c4:	460f      	mov	r7, r1
 80078c6:	4614      	mov	r4, r2
 80078c8:	18d5      	adds	r5, r2, r3
 80078ca:	42ac      	cmp	r4, r5
 80078cc:	d101      	bne.n	80078d2 <__sfputs_r+0x12>
 80078ce:	2000      	movs	r0, #0
 80078d0:	e007      	b.n	80078e2 <__sfputs_r+0x22>
 80078d2:	f814 1b01 	ldrb.w	r1, [r4], #1
 80078d6:	463a      	mov	r2, r7
 80078d8:	4630      	mov	r0, r6
 80078da:	f7ff ffda 	bl	8007892 <__sfputc_r>
 80078de:	1c43      	adds	r3, r0, #1
 80078e0:	d1f3      	bne.n	80078ca <__sfputs_r+0xa>
 80078e2:	bdf8      	pop	{r3, r4, r5, r6, r7, pc}

080078e4 <_vfiprintf_r>:
 80078e4:	e92d 4ff0 	stmdb	sp!, {r4, r5, r6, r7, r8, r9, sl, fp, lr}
 80078e8:	460d      	mov	r5, r1
 80078ea:	b09d      	sub	sp, #116	@ 0x74
 80078ec:	4614      	mov	r4, r2
 80078ee:	4698      	mov	r8, r3
 80078f0:	4606      	mov	r6, r0
 80078f2:	b118      	cbz	r0, 80078fc <_vfiprintf_r+0x18>
 80078f4:	6a03      	ldr	r3, [r0, #32]
 80078f6:	b90b      	cbnz	r3, 80078fc <_vfiprintf_r+0x18>
 80078f8:	f7fc feb8 	bl	800466c <__sinit>
 80078fc:	6e6b      	ldr	r3, [r5, #100]	@ 0x64
 80078fe:	07d9      	lsls	r1, r3, #31
 8007900:	d405      	bmi.n	800790e <_vfiprintf_r+0x2a>
 8007902:	89ab      	ldrh	r3, [r5, #12]
 8007904:	059a      	lsls	r2, r3, #22
 8007906:	d402      	bmi.n	800790e <_vfiprintf_r+0x2a>
 8007908:	6da8      	ldr	r0, [r5, #88]	@ 0x58
 800790a:	f7fc ffd0 	bl	80048ae <__retarget_lock_acquire_recursive>
 800790e:	89ab      	ldrh	r3, [r5, #12]
 8007910:	071b      	lsls	r3, r3, #28
 8007912:	d501      	bpl.n	8007918 <_vfiprintf_r+0x34>
 8007914:	692b      	ldr	r3, [r5, #16]
 8007916:	b99b      	cbnz	r3, 8007940 <_vfiprintf_r+0x5c>
 8007918:	4629      	mov	r1, r5
 800791a:	4630      	mov	r0, r6
 800791c:	f000 f938 	bl	8007b90 <__swsetup_r>
 8007920:	b170      	cbz	r0, 8007940 <_vfiprintf_r+0x5c>
 8007922:	6e6b      	ldr	r3, [r5, #100]	@ 0x64
 8007924:	07dc      	lsls	r4, r3, #31
 8007926:	d504      	bpl.n	8007932 <_vfiprintf_r+0x4e>
 8007928:	f04f 30ff 	mov.w	r0, #4294967295
 800792c:	b01d      	add	sp, #116	@ 0x74
 800792e:	e8bd 8ff0 	ldmia.w	sp!, {r4, r5, r6, r7, r8, r9, sl, fp, pc}
 8007932:	89ab      	ldrh	r3, [r5, #12]
 8007934:	0598      	lsls	r0, r3, #22
 8007936:	d4f7      	bmi.n	8007928 <_vfiprintf_r+0x44>
 8007938:	6da8      	ldr	r0, [r5, #88]	@ 0x58
 800793a:	f7fc ffb9 	bl	80048b0 <__retarget_lock_release_recursive>
 800793e:	e7f3      	b.n	8007928 <_vfiprintf_r+0x44>
 8007940:	2300      	movs	r3, #0
 8007942:	9309      	str	r3, [sp, #36]	@ 0x24
 8007944:	2320      	movs	r3, #32
 8007946:	f88d 3029 	strb.w	r3, [sp, #41]	@ 0x29
 800794a:	f8cd 800c 	str.w	r8, [sp, #12]
 800794e:	2330      	movs	r3, #48	@ 0x30
 8007950:	f8df 81ac 	ldr.w	r8, [pc, #428]	@ 8007b00 <_vfiprintf_r+0x21c>
 8007954:	f88d 302a 	strb.w	r3, [sp, #42]	@ 0x2a
 8007958:	f04f 0901 	mov.w	r9, #1
 800795c:	4623      	mov	r3, r4
 800795e:	469a      	mov	sl, r3
 8007960:	f813 2b01 	ldrb.w	r2, [r3], #1
 8007964:	b10a      	cbz	r2, 800796a <_vfiprintf_r+0x86>
 8007966:	2a25      	cmp	r2, #37	@ 0x25
 8007968:	d1f9      	bne.n	800795e <_vfiprintf_r+0x7a>
 800796a:	ebba 0b04 	subs.w	fp, sl, r4
 800796e:	d00b      	beq.n	8007988 <_vfiprintf_r+0xa4>
 8007970:	465b      	mov	r3, fp
 8007972:	4622      	mov	r2, r4
 8007974:	4629      	mov	r1, r5
 8007976:	4630      	mov	r0, r6
 8007978:	f7ff ffa2 	bl	80078c0 <__sfputs_r>
 800797c:	3001      	adds	r0, #1
 800797e:	f000 80a7 	beq.w	8007ad0 <_vfiprintf_r+0x1ec>
 8007982:	9a09      	ldr	r2, [sp, #36]	@ 0x24
 8007984:	445a      	add	r2, fp
 8007986:	9209      	str	r2, [sp, #36]	@ 0x24
 8007988:	f89a 3000 	ldrb.w	r3, [sl]
 800798c:	2b00      	cmp	r3, #0
 800798e:	f000 809f 	beq.w	8007ad0 <_vfiprintf_r+0x1ec>
 8007992:	2300      	movs	r3, #0
 8007994:	f04f 32ff 	mov.w	r2, #4294967295
 8007998:	e9cd 2305 	strd	r2, r3, [sp, #20]
 800799c:	f10a 0a01 	add.w	sl, sl, #1
 80079a0:	9304      	str	r3, [sp, #16]
 80079a2:	9307      	str	r3, [sp, #28]
 80079a4:	f88d 3053 	strb.w	r3, [sp, #83]	@ 0x53
 80079a8:	931a      	str	r3, [sp, #104]	@ 0x68
 80079aa:	4654      	mov	r4, sl
 80079ac:	2205      	movs	r2, #5
 80079ae:	f814 1b01 	ldrb.w	r1, [r4], #1
 80079b2:	4853      	ldr	r0, [pc, #332]	@ (8007b00 <_vfiprintf_r+0x21c>)
 80079b4:	f7f8 fc2c 	bl	8000210 <memchr>
 80079b8:	9a04      	ldr	r2, [sp, #16]
 80079ba:	b9d8      	cbnz	r0, 80079f4 <_vfiprintf_r+0x110>
 80079bc:	06d1      	lsls	r1, r2, #27
 80079be:	bf44      	itt	mi
 80079c0:	2320      	movmi	r3, #32
 80079c2:	f88d 3053 	strbmi.w	r3, [sp, #83]	@ 0x53
 80079c6:	0713      	lsls	r3, r2, #28
 80079c8:	bf44      	itt	mi
 80079ca:	232b      	movmi	r3, #43	@ 0x2b
 80079cc:	f88d 3053 	strbmi.w	r3, [sp, #83]	@ 0x53
 80079d0:	f89a 3000 	ldrb.w	r3, [sl]
 80079d4:	2b2a      	cmp	r3, #42	@ 0x2a
 80079d6:	d015      	beq.n	8007a04 <_vfiprintf_r+0x120>
 80079d8:	9a07      	ldr	r2, [sp, #28]
 80079da:	4654      	mov	r4, sl
 80079dc:	2000      	movs	r0, #0
 80079de:	f04f 0c0a 	mov.w	ip, #10
 80079e2:	4621      	mov	r1, r4
 80079e4:	f811 3b01 	ldrb.w	r3, [r1], #1
 80079e8:	3b30      	subs	r3, #48	@ 0x30
 80079ea:	2b09      	cmp	r3, #9
 80079ec:	d94b      	bls.n	8007a86 <_vfiprintf_r+0x1a2>
 80079ee:	b1b0      	cbz	r0, 8007a1e <_vfiprintf_r+0x13a>
 80079f0:	9207      	str	r2, [sp, #28]
 80079f2:	e014      	b.n	8007a1e <_vfiprintf_r+0x13a>
 80079f4:	eba0 0308 	sub.w	r3, r0, r8
 80079f8:	fa09 f303 	lsl.w	r3, r9, r3
 80079fc:	4313      	orrs	r3, r2
 80079fe:	9304      	str	r3, [sp, #16]
 8007a00:	46a2      	mov	sl, r4
 8007a02:	e7d2      	b.n	80079aa <_vfiprintf_r+0xc6>
 8007a04:	9b03      	ldr	r3, [sp, #12]
 8007a06:	1d19      	adds	r1, r3, #4
 8007a08:	681b      	ldr	r3, [r3, #0]
 8007a0a:	9103      	str	r1, [sp, #12]
 8007a0c:	2b00      	cmp	r3, #0
 8007a0e:	bfbb      	ittet	lt
 8007a10:	425b      	neglt	r3, r3
 8007a12:	f042 0202 	orrlt.w	r2, r2, #2
 8007a16:	9307      	strge	r3, [sp, #28]
 8007a18:	9307      	strlt	r3, [sp, #28]
 8007a1a:	bfb8      	it	lt
 8007a1c:	9204      	strlt	r2, [sp, #16]
 8007a1e:	7823      	ldrb	r3, [r4, #0]
 8007a20:	2b2e      	cmp	r3, #46	@ 0x2e
 8007a22:	d10a      	bne.n	8007a3a <_vfiprintf_r+0x156>
 8007a24:	7863      	ldrb	r3, [r4, #1]
 8007a26:	2b2a      	cmp	r3, #42	@ 0x2a
 8007a28:	d132      	bne.n	8007a90 <_vfiprintf_r+0x1ac>
 8007a2a:	9b03      	ldr	r3, [sp, #12]
 8007a2c:	1d1a      	adds	r2, r3, #4
 8007a2e:	681b      	ldr	r3, [r3, #0]
 8007a30:	9203      	str	r2, [sp, #12]
 8007a32:	ea43 73e3 	orr.w	r3, r3, r3, asr #31
 8007a36:	3402      	adds	r4, #2
 8007a38:	9305      	str	r3, [sp, #20]
 8007a3a:	f8df a0d4 	ldr.w	sl, [pc, #212]	@ 8007b10 <_vfiprintf_r+0x22c>
 8007a3e:	7821      	ldrb	r1, [r4, #0]
 8007a40:	2203      	movs	r2, #3
 8007a42:	4650      	mov	r0, sl
 8007a44:	f7f8 fbe4 	bl	8000210 <memchr>
 8007a48:	b138      	cbz	r0, 8007a5a <_vfiprintf_r+0x176>
 8007a4a:	9b04      	ldr	r3, [sp, #16]
 8007a4c:	eba0 000a 	sub.w	r0, r0, sl
 8007a50:	2240      	movs	r2, #64	@ 0x40
 8007a52:	4082      	lsls	r2, r0
 8007a54:	4313      	orrs	r3, r2
 8007a56:	3401      	adds	r4, #1
 8007a58:	9304      	str	r3, [sp, #16]
 8007a5a:	f814 1b01 	ldrb.w	r1, [r4], #1
 8007a5e:	4829      	ldr	r0, [pc, #164]	@ (8007b04 <_vfiprintf_r+0x220>)
 8007a60:	f88d 1028 	strb.w	r1, [sp, #40]	@ 0x28
 8007a64:	2206      	movs	r2, #6
 8007a66:	f7f8 fbd3 	bl	8000210 <memchr>
 8007a6a:	2800      	cmp	r0, #0
 8007a6c:	d03f      	beq.n	8007aee <_vfiprintf_r+0x20a>
 8007a6e:	4b26      	ldr	r3, [pc, #152]	@ (8007b08 <_vfiprintf_r+0x224>)
 8007a70:	bb1b      	cbnz	r3, 8007aba <_vfiprintf_r+0x1d6>
 8007a72:	9b03      	ldr	r3, [sp, #12]
 8007a74:	3307      	adds	r3, #7
 8007a76:	f023 0307 	bic.w	r3, r3, #7
 8007a7a:	3308      	adds	r3, #8
 8007a7c:	9303      	str	r3, [sp, #12]
 8007a7e:	9b09      	ldr	r3, [sp, #36]	@ 0x24
 8007a80:	443b      	add	r3, r7
 8007a82:	9309      	str	r3, [sp, #36]	@ 0x24
 8007a84:	e76a      	b.n	800795c <_vfiprintf_r+0x78>
 8007a86:	fb0c 3202 	mla	r2, ip, r2, r3
 8007a8a:	460c      	mov	r4, r1
 8007a8c:	2001      	movs	r0, #1
 8007a8e:	e7a8      	b.n	80079e2 <_vfiprintf_r+0xfe>
 8007a90:	2300      	movs	r3, #0
 8007a92:	3401      	adds	r4, #1
 8007a94:	9305      	str	r3, [sp, #20]
 8007a96:	4619      	mov	r1, r3
 8007a98:	f04f 0c0a 	mov.w	ip, #10
 8007a9c:	4620      	mov	r0, r4
 8007a9e:	f810 2b01 	ldrb.w	r2, [r0], #1
 8007aa2:	3a30      	subs	r2, #48	@ 0x30
 8007aa4:	2a09      	cmp	r2, #9
 8007aa6:	d903      	bls.n	8007ab0 <_vfiprintf_r+0x1cc>
 8007aa8:	2b00      	cmp	r3, #0
 8007aaa:	d0c6      	beq.n	8007a3a <_vfiprintf_r+0x156>
 8007aac:	9105      	str	r1, [sp, #20]
 8007aae:	e7c4      	b.n	8007a3a <_vfiprintf_r+0x156>
 8007ab0:	fb0c 2101 	mla	r1, ip, r1, r2
 8007ab4:	4604      	mov	r4, r0
 8007ab6:	2301      	movs	r3, #1
 8007ab8:	e7f0      	b.n	8007a9c <_vfiprintf_r+0x1b8>
 8007aba:	ab03      	add	r3, sp, #12
 8007abc:	9300      	str	r3, [sp, #0]
 8007abe:	462a      	mov	r2, r5
 8007ac0:	4b12      	ldr	r3, [pc, #72]	@ (8007b0c <_vfiprintf_r+0x228>)
 8007ac2:	a904      	add	r1, sp, #16
 8007ac4:	4630      	mov	r0, r6
 8007ac6:	f7fb ff79 	bl	80039bc <_printf_float>
 8007aca:	4607      	mov	r7, r0
 8007acc:	1c78      	adds	r0, r7, #1
 8007ace:	d1d6      	bne.n	8007a7e <_vfiprintf_r+0x19a>
 8007ad0:	6e6b      	ldr	r3, [r5, #100]	@ 0x64
 8007ad2:	07d9      	lsls	r1, r3, #31
 8007ad4:	d405      	bmi.n	8007ae2 <_vfiprintf_r+0x1fe>
 8007ad6:	89ab      	ldrh	r3, [r5, #12]
 8007ad8:	059a      	lsls	r2, r3, #22
 8007ada:	d402      	bmi.n	8007ae2 <_vfiprintf_r+0x1fe>
 8007adc:	6da8      	ldr	r0, [r5, #88]	@ 0x58
 8007ade:	f7fc fee7 	bl	80048b0 <__retarget_lock_release_recursive>
 8007ae2:	89ab      	ldrh	r3, [r5, #12]
 8007ae4:	065b      	lsls	r3, r3, #25
 8007ae6:	f53f af1f 	bmi.w	8007928 <_vfiprintf_r+0x44>
 8007aea:	9809      	ldr	r0, [sp, #36]	@ 0x24
 8007aec:	e71e      	b.n	800792c <_vfiprintf_r+0x48>
 8007aee:	ab03      	add	r3, sp, #12
 8007af0:	9300      	str	r3, [sp, #0]
 8007af2:	462a      	mov	r2, r5
 8007af4:	4b05      	ldr	r3, [pc, #20]	@ (8007b0c <_vfiprintf_r+0x228>)
 8007af6:	a904      	add	r1, sp, #16
 8007af8:	4630      	mov	r0, r6
 8007afa:	f7fc f9f7 	bl	8003eec <_printf_i>
 8007afe:	e7e4      	b.n	8007aca <_vfiprintf_r+0x1e6>
 8007b00:	080084b1 	.word	0x080084b1
 8007b04:	080084bb 	.word	0x080084bb
 8007b08:	080039bd 	.word	0x080039bd
 8007b0c:	080078c1 	.word	0x080078c1
 8007b10:	080084b7 	.word	0x080084b7

08007b14 <__swbuf_r>:
 8007b14:	b5f8      	push	{r3, r4, r5, r6, r7, lr}
 8007b16:	460e      	mov	r6, r1
 8007b18:	4614      	mov	r4, r2
 8007b1a:	4605      	mov	r5, r0
 8007b1c:	b118      	cbz	r0, 8007b26 <__swbuf_r+0x12>
 8007b1e:	6a03      	ldr	r3, [r0, #32]
 8007b20:	b90b      	cbnz	r3, 8007b26 <__swbuf_r+0x12>
 8007b22:	f7fc fda3 	bl	800466c <__sinit>
 8007b26:	69a3      	ldr	r3, [r4, #24]
 8007b28:	60a3      	str	r3, [r4, #8]
 8007b2a:	89a3      	ldrh	r3, [r4, #12]
 8007b2c:	071a      	lsls	r2, r3, #28
 8007b2e:	d501      	bpl.n	8007b34 <__swbuf_r+0x20>
 8007b30:	6923      	ldr	r3, [r4, #16]
 8007b32:	b943      	cbnz	r3, 8007b46 <__swbuf_r+0x32>
 8007b34:	4621      	mov	r1, r4
 8007b36:	4628      	mov	r0, r5
 8007b38:	f000 f82a 	bl	8007b90 <__swsetup_r>
 8007b3c:	b118      	cbz	r0, 8007b46 <__swbuf_r+0x32>
 8007b3e:	f04f 37ff 	mov.w	r7, #4294967295
 8007b42:	4638      	mov	r0, r7
 8007b44:	bdf8      	pop	{r3, r4, r5, r6, r7, pc}
 8007b46:	6823      	ldr	r3, [r4, #0]
 8007b48:	6922      	ldr	r2, [r4, #16]
 8007b4a:	1a98      	subs	r0, r3, r2
 8007b4c:	6963      	ldr	r3, [r4, #20]
 8007b4e:	b2f6      	uxtb	r6, r6
 8007b50:	4283      	cmp	r3, r0
 8007b52:	4637      	mov	r7, r6
 8007b54:	dc05      	bgt.n	8007b62 <__swbuf_r+0x4e>
 8007b56:	4621      	mov	r1, r4
 8007b58:	4628      	mov	r0, r5
 8007b5a:	f7ff fa63 	bl	8007024 <_fflush_r>
 8007b5e:	2800      	cmp	r0, #0
 8007b60:	d1ed      	bne.n	8007b3e <__swbuf_r+0x2a>
 8007b62:	68a3      	ldr	r3, [r4, #8]
 8007b64:	3b01      	subs	r3, #1
 8007b66:	60a3      	str	r3, [r4, #8]
 8007b68:	6823      	ldr	r3, [r4, #0]
 8007b6a:	1c5a      	adds	r2, r3, #1
 8007b6c:	6022      	str	r2, [r4, #0]
 8007b6e:	701e      	strb	r6, [r3, #0]
 8007b70:	6962      	ldr	r2, [r4, #20]
 8007b72:	1c43      	adds	r3, r0, #1
 8007b74:	429a      	cmp	r2, r3
 8007b76:	d004      	beq.n	8007b82 <__swbuf_r+0x6e>
 8007b78:	89a3      	ldrh	r3, [r4, #12]
 8007b7a:	07db      	lsls	r3, r3, #31
 8007b7c:	d5e1      	bpl.n	8007b42 <__swbuf_r+0x2e>
 8007b7e:	2e0a      	cmp	r6, #10
 8007b80:	d1df      	bne.n	8007b42 <__swbuf_r+0x2e>
 8007b82:	4621      	mov	r1, r4
 8007b84:	4628      	mov	r0, r5
 8007b86:	f7ff fa4d 	bl	8007024 <_fflush_r>
 8007b8a:	2800      	cmp	r0, #0
 8007b8c:	d0d9      	beq.n	8007b42 <__swbuf_r+0x2e>
 8007b8e:	e7d6      	b.n	8007b3e <__swbuf_r+0x2a>

08007b90 <__swsetup_r>:
 8007b90:	b538      	push	{r3, r4, r5, lr}
 8007b92:	4b29      	ldr	r3, [pc, #164]	@ (8007c38 <__swsetup_r+0xa8>)
 8007b94:	4605      	mov	r5, r0
 8007b96:	6818      	ldr	r0, [r3, #0]
 8007b98:	460c      	mov	r4, r1
 8007b9a:	b118      	cbz	r0, 8007ba4 <__swsetup_r+0x14>
 8007b9c:	6a03      	ldr	r3, [r0, #32]
 8007b9e:	b90b      	cbnz	r3, 8007ba4 <__swsetup_r+0x14>
 8007ba0:	f7fc fd64 	bl	800466c <__sinit>
 8007ba4:	f9b4 300c 	ldrsh.w	r3, [r4, #12]
 8007ba8:	0719      	lsls	r1, r3, #28
 8007baa:	d422      	bmi.n	8007bf2 <__swsetup_r+0x62>
 8007bac:	06da      	lsls	r2, r3, #27
 8007bae:	d407      	bmi.n	8007bc0 <__swsetup_r+0x30>
 8007bb0:	2209      	movs	r2, #9
 8007bb2:	602a      	str	r2, [r5, #0]
 8007bb4:	f043 0340 	orr.w	r3, r3, #64	@ 0x40
 8007bb8:	81a3      	strh	r3, [r4, #12]
 8007bba:	f04f 30ff 	mov.w	r0, #4294967295
 8007bbe:	e033      	b.n	8007c28 <__swsetup_r+0x98>
 8007bc0:	0758      	lsls	r0, r3, #29
 8007bc2:	d512      	bpl.n	8007bea <__swsetup_r+0x5a>
 8007bc4:	6b61      	ldr	r1, [r4, #52]	@ 0x34
 8007bc6:	b141      	cbz	r1, 8007bda <__swsetup_r+0x4a>
 8007bc8:	f104 0344 	add.w	r3, r4, #68	@ 0x44
 8007bcc:	4299      	cmp	r1, r3
 8007bce:	d002      	beq.n	8007bd6 <__swsetup_r+0x46>
 8007bd0:	4628      	mov	r0, r5
 8007bd2:	f7fd fcc9 	bl	8005568 <_free_r>
 8007bd6:	2300      	movs	r3, #0
 8007bd8:	6363      	str	r3, [r4, #52]	@ 0x34
 8007bda:	89a3      	ldrh	r3, [r4, #12]
 8007bdc:	f023 0324 	bic.w	r3, r3, #36	@ 0x24
 8007be0:	81a3      	strh	r3, [r4, #12]
 8007be2:	2300      	movs	r3, #0
 8007be4:	6063      	str	r3, [r4, #4]
 8007be6:	6923      	ldr	r3, [r4, #16]
 8007be8:	6023      	str	r3, [r4, #0]
 8007bea:	89a3      	ldrh	r3, [r4, #12]
 8007bec:	f043 0308 	orr.w	r3, r3, #8
 8007bf0:	81a3      	strh	r3, [r4, #12]
 8007bf2:	6923      	ldr	r3, [r4, #16]
 8007bf4:	b94b      	cbnz	r3, 8007c0a <__swsetup_r+0x7a>
 8007bf6:	89a3      	ldrh	r3, [r4, #12]
 8007bf8:	f403 7320 	and.w	r3, r3, #640	@ 0x280
 8007bfc:	f5b3 7f00 	cmp.w	r3, #512	@ 0x200
 8007c00:	d003      	beq.n	8007c0a <__swsetup_r+0x7a>
 8007c02:	4621      	mov	r1, r4
 8007c04:	4628      	mov	r0, r5
 8007c06:	f000 f883 	bl	8007d10 <__smakebuf_r>
 8007c0a:	f9b4 300c 	ldrsh.w	r3, [r4, #12]
 8007c0e:	f013 0201 	ands.w	r2, r3, #1
 8007c12:	d00a      	beq.n	8007c2a <__swsetup_r+0x9a>
 8007c14:	2200      	movs	r2, #0
 8007c16:	60a2      	str	r2, [r4, #8]
 8007c18:	6962      	ldr	r2, [r4, #20]
 8007c1a:	4252      	negs	r2, r2
 8007c1c:	61a2      	str	r2, [r4, #24]
 8007c1e:	6922      	ldr	r2, [r4, #16]
 8007c20:	b942      	cbnz	r2, 8007c34 <__swsetup_r+0xa4>
 8007c22:	f013 0080 	ands.w	r0, r3, #128	@ 0x80
 8007c26:	d1c5      	bne.n	8007bb4 <__swsetup_r+0x24>
 8007c28:	bd38      	pop	{r3, r4, r5, pc}
 8007c2a:	0799      	lsls	r1, r3, #30
 8007c2c:	bf58      	it	pl
 8007c2e:	6962      	ldrpl	r2, [r4, #20]
 8007c30:	60a2      	str	r2, [r4, #8]
 8007c32:	e7f4      	b.n	8007c1e <__swsetup_r+0x8e>
 8007c34:	2000      	movs	r0, #0
 8007c36:	e7f7      	b.n	8007c28 <__swsetup_r+0x98>
 8007c38:	2000001c 	.word	0x2000001c

08007c3c <_raise_r>:
 8007c3c:	291f      	cmp	r1, #31
 8007c3e:	b538      	push	{r3, r4, r5, lr}
 8007c40:	4605      	mov	r5, r0
 8007c42:	460c      	mov	r4, r1
 8007c44:	d904      	bls.n	8007c50 <_raise_r+0x14>
 8007c46:	2316      	movs	r3, #22
 8007c48:	6003      	str	r3, [r0, #0]
 8007c4a:	f04f 30ff 	mov.w	r0, #4294967295
 8007c4e:	bd38      	pop	{r3, r4, r5, pc}
 8007c50:	6bc2      	ldr	r2, [r0, #60]	@ 0x3c
 8007c52:	b112      	cbz	r2, 8007c5a <_raise_r+0x1e>
 8007c54:	f852 3021 	ldr.w	r3, [r2, r1, lsl #2]
 8007c58:	b94b      	cbnz	r3, 8007c6e <_raise_r+0x32>
 8007c5a:	4628      	mov	r0, r5
 8007c5c:	f000 f830 	bl	8007cc0 <_getpid_r>
 8007c60:	4622      	mov	r2, r4
 8007c62:	4601      	mov	r1, r0
 8007c64:	4628      	mov	r0, r5
 8007c66:	e8bd 4038 	ldmia.w	sp!, {r3, r4, r5, lr}
 8007c6a:	f000 b817 	b.w	8007c9c <_kill_r>
 8007c6e:	2b01      	cmp	r3, #1
 8007c70:	d00a      	beq.n	8007c88 <_raise_r+0x4c>
 8007c72:	1c59      	adds	r1, r3, #1
 8007c74:	d103      	bne.n	8007c7e <_raise_r+0x42>
 8007c76:	2316      	movs	r3, #22
 8007c78:	6003      	str	r3, [r0, #0]
 8007c7a:	2001      	movs	r0, #1
 8007c7c:	e7e7      	b.n	8007c4e <_raise_r+0x12>
 8007c7e:	2100      	movs	r1, #0
 8007c80:	f842 1024 	str.w	r1, [r2, r4, lsl #2]
 8007c84:	4620      	mov	r0, r4
 8007c86:	4798      	blx	r3
 8007c88:	2000      	movs	r0, #0
 8007c8a:	e7e0      	b.n	8007c4e <_raise_r+0x12>

08007c8c <raise>:
 8007c8c:	4b02      	ldr	r3, [pc, #8]	@ (8007c98 <raise+0xc>)
 8007c8e:	4601      	mov	r1, r0
 8007c90:	6818      	ldr	r0, [r3, #0]
 8007c92:	f7ff bfd3 	b.w	8007c3c <_raise_r>
 8007c96:	bf00      	nop
 8007c98:	2000001c 	.word	0x2000001c

08007c9c <_kill_r>:
 8007c9c:	b538      	push	{r3, r4, r5, lr}
 8007c9e:	4d07      	ldr	r5, [pc, #28]	@ (8007cbc <_kill_r+0x20>)
 8007ca0:	2300      	movs	r3, #0
 8007ca2:	4604      	mov	r4, r0
 8007ca4:	4608      	mov	r0, r1
 8007ca6:	4611      	mov	r1, r2
 8007ca8:	602b      	str	r3, [r5, #0]
 8007caa:	f000 f8af 	bl	8007e0c <_kill>
 8007cae:	1c43      	adds	r3, r0, #1
 8007cb0:	d102      	bne.n	8007cb8 <_kill_r+0x1c>
 8007cb2:	682b      	ldr	r3, [r5, #0]
 8007cb4:	b103      	cbz	r3, 8007cb8 <_kill_r+0x1c>
 8007cb6:	6023      	str	r3, [r4, #0]
 8007cb8:	bd38      	pop	{r3, r4, r5, pc}
 8007cba:	bf00      	nop
 8007cbc:	200008b4 	.word	0x200008b4

08007cc0 <_getpid_r>:
 8007cc0:	f000 b894 	b.w	8007dec <_getpid>

08007cc4 <__swhatbuf_r>:
 8007cc4:	b570      	push	{r4, r5, r6, lr}
 8007cc6:	460c      	mov	r4, r1
 8007cc8:	f9b1 100e 	ldrsh.w	r1, [r1, #14]
 8007ccc:	2900      	cmp	r1, #0
 8007cce:	b096      	sub	sp, #88	@ 0x58
 8007cd0:	4615      	mov	r5, r2
 8007cd2:	461e      	mov	r6, r3
 8007cd4:	da0d      	bge.n	8007cf2 <__swhatbuf_r+0x2e>
 8007cd6:	89a3      	ldrh	r3, [r4, #12]
 8007cd8:	f013 0f80 	tst.w	r3, #128	@ 0x80
 8007cdc:	f04f 0100 	mov.w	r1, #0
 8007ce0:	bf14      	ite	ne
 8007ce2:	2340      	movne	r3, #64	@ 0x40
 8007ce4:	f44f 6380 	moveq.w	r3, #1024	@ 0x400
 8007ce8:	2000      	movs	r0, #0
 8007cea:	6031      	str	r1, [r6, #0]
 8007cec:	602b      	str	r3, [r5, #0]
 8007cee:	b016      	add	sp, #88	@ 0x58
 8007cf0:	bd70      	pop	{r4, r5, r6, pc}
 8007cf2:	466a      	mov	r2, sp
 8007cf4:	f000 f848 	bl	8007d88 <_fstat_r>
 8007cf8:	2800      	cmp	r0, #0
 8007cfa:	dbec      	blt.n	8007cd6 <__swhatbuf_r+0x12>
 8007cfc:	9901      	ldr	r1, [sp, #4]
 8007cfe:	f401 4170 	and.w	r1, r1, #61440	@ 0xf000
 8007d02:	f5a1 5300 	sub.w	r3, r1, #8192	@ 0x2000
 8007d06:	4259      	negs	r1, r3
 8007d08:	4159      	adcs	r1, r3
 8007d0a:	f44f 6380 	mov.w	r3, #1024	@ 0x400
 8007d0e:	e7eb      	b.n	8007ce8 <__swhatbuf_r+0x24>

08007d10 <__smakebuf_r>:
 8007d10:	898b      	ldrh	r3, [r1, #12]
 8007d12:	b5f7      	push	{r0, r1, r2, r4, r5, r6, r7, lr}
 8007d14:	079d      	lsls	r5, r3, #30
 8007d16:	4606      	mov	r6, r0
 8007d18:	460c      	mov	r4, r1
 8007d1a:	d507      	bpl.n	8007d2c <__smakebuf_r+0x1c>
 8007d1c:	f104 0347 	add.w	r3, r4, #71	@ 0x47
 8007d20:	6023      	str	r3, [r4, #0]
 8007d22:	6123      	str	r3, [r4, #16]
 8007d24:	2301      	movs	r3, #1
 8007d26:	6163      	str	r3, [r4, #20]
 8007d28:	b003      	add	sp, #12
 8007d2a:	bdf0      	pop	{r4, r5, r6, r7, pc}
 8007d2c:	ab01      	add	r3, sp, #4
 8007d2e:	466a      	mov	r2, sp
 8007d30:	f7ff ffc8 	bl	8007cc4 <__swhatbuf_r>
 8007d34:	9f00      	ldr	r7, [sp, #0]
 8007d36:	4605      	mov	r5, r0
 8007d38:	4639      	mov	r1, r7
 8007d3a:	4630      	mov	r0, r6
 8007d3c:	f7fb fd12 	bl	8003764 <_malloc_r>
 8007d40:	b948      	cbnz	r0, 8007d56 <__smakebuf_r+0x46>
 8007d42:	f9b4 300c 	ldrsh.w	r3, [r4, #12]
 8007d46:	059a      	lsls	r2, r3, #22
 8007d48:	d4ee      	bmi.n	8007d28 <__smakebuf_r+0x18>
 8007d4a:	f023 0303 	bic.w	r3, r3, #3
 8007d4e:	f043 0302 	orr.w	r3, r3, #2
 8007d52:	81a3      	strh	r3, [r4, #12]
 8007d54:	e7e2      	b.n	8007d1c <__smakebuf_r+0xc>
 8007d56:	89a3      	ldrh	r3, [r4, #12]
 8007d58:	6020      	str	r0, [r4, #0]
 8007d5a:	f043 0380 	orr.w	r3, r3, #128	@ 0x80
 8007d5e:	81a3      	strh	r3, [r4, #12]
 8007d60:	9b01      	ldr	r3, [sp, #4]
 8007d62:	e9c4 0704 	strd	r0, r7, [r4, #16]
 8007d66:	b15b      	cbz	r3, 8007d80 <__smakebuf_r+0x70>
 8007d68:	f9b4 100e 	ldrsh.w	r1, [r4, #14]
 8007d6c:	4630      	mov	r0, r6
 8007d6e:	f000 f81d 	bl	8007dac <_isatty_r>
 8007d72:	b128      	cbz	r0, 8007d80 <__smakebuf_r+0x70>
 8007d74:	89a3      	ldrh	r3, [r4, #12]
 8007d76:	f023 0303 	bic.w	r3, r3, #3
 8007d7a:	f043 0301 	orr.w	r3, r3, #1
 8007d7e:	81a3      	strh	r3, [r4, #12]
 8007d80:	89a3      	ldrh	r3, [r4, #12]
 8007d82:	431d      	orrs	r5, r3
 8007d84:	81a5      	strh	r5, [r4, #12]
 8007d86:	e7cf      	b.n	8007d28 <__smakebuf_r+0x18>

08007d88 <_fstat_r>:
 8007d88:	b538      	push	{r3, r4, r5, lr}
 8007d8a:	4d07      	ldr	r5, [pc, #28]	@ (8007da8 <_fstat_r+0x20>)
 8007d8c:	2300      	movs	r3, #0
 8007d8e:	4604      	mov	r4, r0
 8007d90:	4608      	mov	r0, r1
 8007d92:	4611      	mov	r1, r2
 8007d94:	602b      	str	r3, [r5, #0]
 8007d96:	f000 f821 	bl	8007ddc <_fstat>
 8007d9a:	1c43      	adds	r3, r0, #1
 8007d9c:	d102      	bne.n	8007da4 <_fstat_r+0x1c>
 8007d9e:	682b      	ldr	r3, [r5, #0]
 8007da0:	b103      	cbz	r3, 8007da4 <_fstat_r+0x1c>
 8007da2:	6023      	str	r3, [r4, #0]
 8007da4:	bd38      	pop	{r3, r4, r5, pc}
 8007da6:	bf00      	nop
 8007da8:	200008b4 	.word	0x200008b4

08007dac <_isatty_r>:
 8007dac:	b538      	push	{r3, r4, r5, lr}
 8007dae:	4d06      	ldr	r5, [pc, #24]	@ (8007dc8 <_isatty_r+0x1c>)
 8007db0:	2300      	movs	r3, #0
 8007db2:	4604      	mov	r4, r0
 8007db4:	4608      	mov	r0, r1
 8007db6:	602b      	str	r3, [r5, #0]
 8007db8:	f000 f820 	bl	8007dfc <_isatty>
 8007dbc:	1c43      	adds	r3, r0, #1
 8007dbe:	d102      	bne.n	8007dc6 <_isatty_r+0x1a>
 8007dc0:	682b      	ldr	r3, [r5, #0]
 8007dc2:	b103      	cbz	r3, 8007dc6 <_isatty_r+0x1a>
 8007dc4:	6023      	str	r3, [r4, #0]
 8007dc6:	bd38      	pop	{r3, r4, r5, pc}
 8007dc8:	200008b4 	.word	0x200008b4

08007dcc <_close>:
 8007dcc:	4b02      	ldr	r3, [pc, #8]	@ (8007dd8 <_close+0xc>)
 8007dce:	2258      	movs	r2, #88	@ 0x58
 8007dd0:	601a      	str	r2, [r3, #0]
 8007dd2:	f04f 30ff 	mov.w	r0, #4294967295
 8007dd6:	4770      	bx	lr
 8007dd8:	200008b4 	.word	0x200008b4

08007ddc <_fstat>:
 8007ddc:	4b02      	ldr	r3, [pc, #8]	@ (8007de8 <_fstat+0xc>)
 8007dde:	2258      	movs	r2, #88	@ 0x58
 8007de0:	601a      	str	r2, [r3, #0]
 8007de2:	f04f 30ff 	mov.w	r0, #4294967295
 8007de6:	4770      	bx	lr
 8007de8:	200008b4 	.word	0x200008b4

08007dec <_getpid>:
 8007dec:	4b02      	ldr	r3, [pc, #8]	@ (8007df8 <_getpid+0xc>)
 8007dee:	2258      	movs	r2, #88	@ 0x58
 8007df0:	601a      	str	r2, [r3, #0]
 8007df2:	f04f 30ff 	mov.w	r0, #4294967295
 8007df6:	4770      	bx	lr
 8007df8:	200008b4 	.word	0x200008b4

08007dfc <_isatty>:
 8007dfc:	4b02      	ldr	r3, [pc, #8]	@ (8007e08 <_isatty+0xc>)
 8007dfe:	2258      	movs	r2, #88	@ 0x58
 8007e00:	601a      	str	r2, [r3, #0]
 8007e02:	2000      	movs	r0, #0
 8007e04:	4770      	bx	lr
 8007e06:	bf00      	nop
 8007e08:	200008b4 	.word	0x200008b4

08007e0c <_kill>:
 8007e0c:	4b02      	ldr	r3, [pc, #8]	@ (8007e18 <_kill+0xc>)
 8007e0e:	2258      	movs	r2, #88	@ 0x58
 8007e10:	601a      	str	r2, [r3, #0]
 8007e12:	f04f 30ff 	mov.w	r0, #4294967295
 8007e16:	4770      	bx	lr
 8007e18:	200008b4 	.word	0x200008b4

08007e1c <_lseek>:
 8007e1c:	4b02      	ldr	r3, [pc, #8]	@ (8007e28 <_lseek+0xc>)
 8007e1e:	2258      	movs	r2, #88	@ 0x58
 8007e20:	601a      	str	r2, [r3, #0]
 8007e22:	f04f 30ff 	mov.w	r0, #4294967295
 8007e26:	4770      	bx	lr
 8007e28:	200008b4 	.word	0x200008b4

08007e2c <_read>:
 8007e2c:	4b02      	ldr	r3, [pc, #8]	@ (8007e38 <_read+0xc>)
 8007e2e:	2258      	movs	r2, #88	@ 0x58
 8007e30:	601a      	str	r2, [r3, #0]
 8007e32:	f04f 30ff 	mov.w	r0, #4294967295
 8007e36:	4770      	bx	lr
 8007e38:	200008b4 	.word	0x200008b4

08007e3c <_sbrk>:
 8007e3c:	4a04      	ldr	r2, [pc, #16]	@ (8007e50 <_sbrk+0x14>)
 8007e3e:	6811      	ldr	r1, [r2, #0]
 8007e40:	4603      	mov	r3, r0
 8007e42:	b909      	cbnz	r1, 8007e48 <_sbrk+0xc>
 8007e44:	4903      	ldr	r1, [pc, #12]	@ (8007e54 <_sbrk+0x18>)
 8007e46:	6011      	str	r1, [r2, #0]
 8007e48:	6810      	ldr	r0, [r2, #0]
 8007e4a:	4403      	add	r3, r0
 8007e4c:	6013      	str	r3, [r2, #0]
 8007e4e:	4770      	bx	lr
 8007e50:	200008bc 	.word	0x200008bc
 8007e54:	200008c0 	.word	0x200008c0

08007e58 <_write>:
 8007e58:	4b02      	ldr	r3, [pc, #8]	@ (8007e64 <_write+0xc>)
 8007e5a:	2258      	movs	r2, #88	@ 0x58
 8007e5c:	601a      	str	r2, [r3, #0]
 8007e5e:	f04f 30ff 	mov.w	r0, #4294967295
 8007e62:	4770      	bx	lr
 8007e64:	200008b4 	.word	0x200008b4

08007e68 <_exit>:
 8007e68:	e7fe      	b.n	8007e68 <_exit>
	...

08007e6c <_init>:
 8007e6c:	b5f8      	push	{r3, r4, r5, r6, r7, lr}
 8007e6e:	bf00      	nop
 8007e70:	bcf8      	pop	{r3, r4, r5, r6, r7}
 8007e72:	bc08      	pop	{r3}
 8007e74:	469e      	mov	lr, r3
 8007e76:	4770      	bx	lr

08007e78 <_fini>:
 8007e78:	b5f8      	push	{r3, r4, r5, r6, r7, lr}
 8007e7a:	bf00      	nop
 8007e7c:	bcf8      	pop	{r3, r4, r5, r6, r7}
 8007e7e:	bc08      	pop	{r3}
 8007e80:	469e      	mov	lr, r3
 8007e82:	4770      	bx	lr
