
PCU.elf:     file format elf32-littlearm

Sections:
Idx Name          Size      VMA       LMA       File off  Algn
  0 .isr_vector   000001c4  08000000  08000000  00001000  2**0
                  CONTENTS, ALLOC, LOAD, READONLY, DATA
  1 .text         00008588  080001d0  080001d0  000011d0  2**4
                  CONTENTS, ALLOC, LOAD, READONLY, CODE
  2 .rodata       00000500  08008758  08008758  00009758  2**3
                  CONTENTS, ALLOC, LOAD, READONLY, DATA
  3 .ARM.extab    00000000  08008c58  08008c58  0000a1d4  2**0
                  CONTENTS
  4 .ARM          00000008  08008c58  08008c58  00009c58  2**2
                  CONTENTS, ALLOC, LOAD, READONLY, DATA
  5 .preinit_array 00000000  08008c60  08008c60  0000a1d4  2**0
                  CONTENTS, ALLOC, LOAD, DATA
  6 .init_array   00000004  08008c60  08008c60  00009c60  2**2
                  CONTENTS, ALLOC, LOAD, READONLY, DATA
  7 .fini_array   00000004  08008c64  08008c64  00009c64  2**2
                  CONTENTS, ALLOC, LOAD, READONLY, DATA
  8 .data         000001d4  20000000  08008c68  0000a000  2**2
                  CONTENTS, ALLOC, LOAD, DATA
  9 .bss          000002ec  200001d4  08008e3c  0000a1d4  2**2
                  ALLOC
 10 ._user_heap_stack 00000600  200004c0  08008e3c  0000a4c0  2**0
                  ALLOC
 11 .ARM.attributes 00000030  00000000  00000000  0000a1d4  2**0
                  CONTENTS, READONLY
 12 .debug_info   00013832  00000000  00000000  0000a204  2**0
                  CONTENTS, READONLY, DEBUGGING, OCTETS
 13 .debug_abbrev 000034d7  00000000  00000000  0001da36  2**0
                  CONTENTS, READONLY, DEBUGGING, OCTETS
 14 .debug_aranges 00000f98  00000000  00000000  00020f10  2**3
                  CONTENTS, READONLY, DEBUGGING, OCTETS
 15 .debug_rnglists 00000c04  00000000  00000000  00021ea8  2**0
                  CONTENTS, READONLY, DEBUGGING, OCTETS
 16 .debug_macro  00024475  00000000  00000000  00022aac  2**0
                  CONTENTS, READONLY, DEBUGGING, OCTETS
 17 .debug_line   00015f8f  00000000  00000000  00046f21  2**0
                  CONTENTS, READONLY, DEBUGGING, OCTETS
 18 .debug_str    000df878  00000000  00000000  0005ceb0  2**0
                  CONTENTS, READONLY, DEBUGGING, OCTETS
 19 .comment      00000043  00000000  00000000  0013c728  2**0
                  CONTENTS, READONLY
 20 .debug_frame  000050c0  00000000  00000000  0013c76c  2**2
                  CONTENTS, READONLY, DEBUGGING, OCTETS
 21 .debug_line_str 0000006e  00000000  00000000  0014182c  2**0
                  CONTENTS, READONLY, DEBUGGING, OCTETS

Disassembly of section .text:

080001d0 <__do_global_dtors_aux>:
 80001d0:	b510      	push	{r4, lr}
 80001d2:	4c05      	ldr	r4, [pc, #20]	@ (80001e8 <__do_global_dtors_aux+0x18>)
 80001d4:	7823      	ldrb	r3, [r4, #0]
 80001d6:	b933      	cbnz	r3, 80001e6 <__do_global_dtors_aux+0x16>
 80001d8:	4b04      	ldr	r3, [pc, #16]	@ (80001ec <__do_global_dtors_aux+0x1c>)
 80001da:	b113      	cbz	r3, 80001e2 <__do_global_dtors_aux+0x12>
 80001dc:	4804      	ldr	r0, [pc, #16]	@ (80001f0 <__do_global_dtors_aux+0x20>)
 80001de:	f3af 8000 	nop.w
 80001e2:	2301      	movs	r3, #1
 80001e4:	7023      	strb	r3, [r4, #0]
 80001e6:	bd10      	pop	{r4, pc}
 80001e8:	200001d4 	.word	0x200001d4
 80001ec:	00000000 	.word	0x00000000
 80001f0:	08008740 	.word	0x08008740

080001f4 <frame_dummy>:
 80001f4:	b508      	push	{r3, lr}
 80001f6:	4b03      	ldr	r3, [pc, #12]	@ (8000204 <frame_dummy+0x10>)
 80001f8:	b11b      	cbz	r3, 8000202 <frame_dummy+0xe>
 80001fa:	4903      	ldr	r1, [pc, #12]	@ (8000208 <frame_dummy+0x14>)
 80001fc:	4803      	ldr	r0, [pc, #12]	@ (800020c <frame_dummy+0x18>)
 80001fe:	f3af 8000 	nop.w
 8000202:	bd08      	pop	{r3, pc}
 8000204:	00000000 	.word	0x00000000
 8000208:	200001d8 	.word	0x200001d8
 800020c:	08008740 	.word	0x08008740

08000210 <memchr>:
 8000210:	f001 01ff 	and.w	r1, r1, #255	@ 0xff
 8000214:	2a10      	cmp	r2, #16
 8000216:	db2b      	blt.n	8000270 <memchr+0x60>
 8000218:	f010 0f07 	tst.w	r0, #7
 800021c:	d008      	beq.n	8000230 <memchr+0x20>
 800021e:	f810 3b01 	ldrb.w	r3, [r0], #1
 8000222:	3a01      	subs	r2, #1
 8000224:	428b      	cmp	r3, r1
 8000226:	d02d      	beq.n	8000284 <memchr+0x74>
 8000228:	f010 0f07 	tst.w	r0, #7
 800022c:	b342      	cbz	r2, 8000280 <memchr+0x70>
 800022e:	d1f6      	bne.n	800021e <memchr+0xe>
 8000230:	b4f0      	push	{r4, r5, r6, r7}
 8000232:	ea41 2101 	orr.w	r1, r1, r1, lsl #8
 8000236:	ea41 4101 	orr.w	r1, r1, r1, lsl #16
 800023a:	f022 0407 	bic.w	r4, r2, #7
 800023e:	f07f 0700 	mvns.w	r7, #0
 8000242:	2300      	movs	r3, #0
 8000244:	e8f0 5602 	ldrd	r5, r6, [r0], #8
 8000248:	3c08      	subs	r4, #8
 800024a:	ea85 0501 	eor.w	r5, r5, r1
 800024e:	ea86 0601 	eor.w	r6, r6, r1
 8000252:	fa85 f547 	uadd8	r5, r5, r7
 8000256:	faa3 f587 	sel	r5, r3, r7
 800025a:	fa86 f647 	uadd8	r6, r6, r7
 800025e:	faa5 f687 	sel	r6, r5, r7
 8000262:	b98e      	cbnz	r6, 8000288 <memchr+0x78>
 8000264:	d1ee      	bne.n	8000244 <memchr+0x34>
 8000266:	bcf0      	pop	{r4, r5, r6, r7}
 8000268:	f001 01ff 	and.w	r1, r1, #255	@ 0xff
 800026c:	f002 0207 	and.w	r2, r2, #7
 8000270:	b132      	cbz	r2, 8000280 <memchr+0x70>
 8000272:	f810 3b01 	ldrb.w	r3, [r0], #1
 8000276:	3a01      	subs	r2, #1
 8000278:	ea83 0301 	eor.w	r3, r3, r1
 800027c:	b113      	cbz	r3, 8000284 <memchr+0x74>
 800027e:	d1f8      	bne.n	8000272 <memchr+0x62>
 8000280:	2000      	movs	r0, #0
 8000282:	4770      	bx	lr
 8000284:	3801      	subs	r0, #1
 8000286:	4770      	bx	lr
 8000288:	2d00      	cmp	r5, #0
 800028a:	bf06      	itte	eq
 800028c:	4635      	moveq	r5, r6
 800028e:	3803      	subeq	r0, #3
 8000290:	3807      	subne	r0, #7
 8000292:	f015 0f01 	tst.w	r5, #1
 8000296:	d107      	bne.n	80002a8 <memchr+0x98>
 8000298:	3001      	adds	r0, #1
 800029a:	f415 7f80 	tst.w	r5, #256	@ 0x100
 800029e:	bf02      	ittt	eq
 80002a0:	3001      	addeq	r0, #1
 80002a2:	f415 3fc0 	tsteq.w	r5, #98304	@ 0x18000
 80002a6:	3001      	addeq	r0, #1
 80002a8:	bcf0      	pop	{r4, r5, r6, r7}
 80002aa:	3801      	subs	r0, #1
 80002ac:	4770      	bx	lr
 80002ae:	bf00      	nop

080002b0 <strlen>:
 80002b0:	4603      	mov	r3, r0
 80002b2:	f813 2b01 	ldrb.w	r2, [r3], #1
 80002b6:	2a00      	cmp	r2, #0
 80002b8:	d1fb      	bne.n	80002b2 <strlen+0x2>
 80002ba:	1a18      	subs	r0, r3, r0
 80002bc:	3801      	subs	r0, #1
 80002be:	4770      	bx	lr

080002c0 <__aeabi_drsub>:
 80002c0:	f081 4100 	eor.w	r1, r1, #2147483648	@ 0x80000000
 80002c4:	e002      	b.n	80002cc <__adddf3>
 80002c6:	bf00      	nop

080002c8 <__aeabi_dsub>:
 80002c8:	f083 4300 	eor.w	r3, r3, #2147483648	@ 0x80000000

080002cc <__adddf3>:
 80002cc:	b530      	push	{r4, r5, lr}
 80002ce:	ea4f 0441 	mov.w	r4, r1, lsl #1
 80002d2:	ea4f 0543 	mov.w	r5, r3, lsl #1
 80002d6:	ea94 0f05 	teq	r4, r5
 80002da:	bf08      	it	eq
 80002dc:	ea90 0f02 	teqeq	r0, r2
 80002e0:	bf1f      	itttt	ne
 80002e2:	ea54 0c00 	orrsne.w	ip, r4, r0
 80002e6:	ea55 0c02 	orrsne.w	ip, r5, r2
 80002ea:	ea7f 5c64 	mvnsne.w	ip, r4, asr #21
 80002ee:	ea7f 5c65 	mvnsne.w	ip, r5, asr #21
 80002f2:	f000 80e2 	beq.w	80004ba <__adddf3+0x1ee>
 80002f6:	ea4f 5454 	mov.w	r4, r4, lsr #21
 80002fa:	ebd4 5555 	rsbs	r5, r4, r5, lsr #21
 80002fe:	bfb8      	it	lt
 8000300:	426d      	neglt	r5, r5
 8000302:	dd0c      	ble.n	800031e <__adddf3+0x52>
 8000304:	442c      	add	r4, r5
 8000306:	ea80 0202 	eor.w	r2, r0, r2
 800030a:	ea81 0303 	eor.w	r3, r1, r3
 800030e:	ea82 0000 	eor.w	r0, r2, r0
 8000312:	ea83 0101 	eor.w	r1, r3, r1
 8000316:	ea80 0202 	eor.w	r2, r0, r2
 800031a:	ea81 0303 	eor.w	r3, r1, r3
 800031e:	2d36      	cmp	r5, #54	@ 0x36
 8000320:	bf88      	it	hi
 8000322:	bd30      	pophi	{r4, r5, pc}
 8000324:	f011 4f00 	tst.w	r1, #2147483648	@ 0x80000000
 8000328:	ea4f 3101 	mov.w	r1, r1, lsl #12
 800032c:	f44f 1c80 	mov.w	ip, #1048576	@ 0x100000
 8000330:	ea4c 3111 	orr.w	r1, ip, r1, lsr #12
 8000334:	d002      	beq.n	800033c <__adddf3+0x70>
 8000336:	4240      	negs	r0, r0
 8000338:	eb61 0141 	sbc.w	r1, r1, r1, lsl #1
 800033c:	f013 4f00 	tst.w	r3, #2147483648	@ 0x80000000
 8000340:	ea4f 3303 	mov.w	r3, r3, lsl #12
 8000344:	ea4c 3313 	orr.w	r3, ip, r3, lsr #12
 8000348:	d002      	beq.n	8000350 <__adddf3+0x84>
 800034a:	4252      	negs	r2, r2
 800034c:	eb63 0343 	sbc.w	r3, r3, r3, lsl #1
 8000350:	ea94 0f05 	teq	r4, r5
 8000354:	f000 80a7 	beq.w	80004a6 <__adddf3+0x1da>
 8000358:	f1a4 0401 	sub.w	r4, r4, #1
 800035c:	f1d5 0e20 	rsbs	lr, r5, #32
 8000360:	db0d      	blt.n	800037e <__adddf3+0xb2>
 8000362:	fa02 fc0e 	lsl.w	ip, r2, lr
 8000366:	fa22 f205 	lsr.w	r2, r2, r5
 800036a:	1880      	adds	r0, r0, r2
 800036c:	f141 0100 	adc.w	r1, r1, #0
 8000370:	fa03 f20e 	lsl.w	r2, r3, lr
 8000374:	1880      	adds	r0, r0, r2
 8000376:	fa43 f305 	asr.w	r3, r3, r5
 800037a:	4159      	adcs	r1, r3
 800037c:	e00e      	b.n	800039c <__adddf3+0xd0>
 800037e:	f1a5 0520 	sub.w	r5, r5, #32
 8000382:	f10e 0e20 	add.w	lr, lr, #32
 8000386:	2a01      	cmp	r2, #1
 8000388:	fa03 fc0e 	lsl.w	ip, r3, lr
 800038c:	bf28      	it	cs
 800038e:	f04c 0c02 	orrcs.w	ip, ip, #2
 8000392:	fa43 f305 	asr.w	r3, r3, r5
 8000396:	18c0      	adds	r0, r0, r3
 8000398:	eb51 71e3 	adcs.w	r1, r1, r3, asr #31
 800039c:	f001 4500 	and.w	r5, r1, #2147483648	@ 0x80000000
 80003a0:	d507      	bpl.n	80003b2 <__adddf3+0xe6>
 80003a2:	f04f 0e00 	mov.w	lr, #0
 80003a6:	f1dc 0c00 	rsbs	ip, ip, #0
 80003aa:	eb7e 0000 	sbcs.w	r0, lr, r0
 80003ae:	eb6e 0101 	sbc.w	r1, lr, r1
 80003b2:	f5b1 1f80 	cmp.w	r1, #1048576	@ 0x100000
 80003b6:	d31b      	bcc.n	80003f0 <__adddf3+0x124>
 80003b8:	f5b1 1f00 	cmp.w	r1, #2097152	@ 0x200000
 80003bc:	d30c      	bcc.n	80003d8 <__adddf3+0x10c>
 80003be:	0849      	lsrs	r1, r1, #1
 80003c0:	ea5f 0030 	movs.w	r0, r0, rrx
 80003c4:	ea4f 0c3c 	mov.w	ip, ip, rrx
 80003c8:	f104 0401 	add.w	r4, r4, #1
 80003cc:	ea4f 5244 	mov.w	r2, r4, lsl #21
 80003d0:	f512 0f80 	cmn.w	r2, #4194304	@ 0x400000
 80003d4:	f080 809a 	bcs.w	800050c <__adddf3+0x240>
 80003d8:	f1bc 4f00 	cmp.w	ip, #2147483648	@ 0x80000000
 80003dc:	bf08      	it	eq
 80003de:	ea5f 0c50 	movseq.w	ip, r0, lsr #1
 80003e2:	f150 0000 	adcs.w	r0, r0, #0
 80003e6:	eb41 5104 	adc.w	r1, r1, r4, lsl #20
 80003ea:	ea41 0105 	orr.w	r1, r1, r5
 80003ee:	bd30      	pop	{r4, r5, pc}
 80003f0:	ea5f 0c4c 	movs.w	ip, ip, lsl #1
 80003f4:	4140      	adcs	r0, r0
 80003f6:	eb41 0101 	adc.w	r1, r1, r1
 80003fa:	3c01      	subs	r4, #1
 80003fc:	bf28      	it	cs
 80003fe:	f5b1 1f80 	cmpcs.w	r1, #1048576	@ 0x100000
 8000402:	d2e9      	bcs.n	80003d8 <__adddf3+0x10c>
 8000404:	f091 0f00 	teq	r1, #0
 8000408:	bf04      	itt	eq
 800040a:	4601      	moveq	r1, r0
 800040c:	2000      	moveq	r0, #0
 800040e:	fab1 f381 	clz	r3, r1
 8000412:	bf08      	it	eq
 8000414:	3320      	addeq	r3, #32
 8000416:	f1a3 030b 	sub.w	r3, r3, #11
 800041a:	f1b3 0220 	subs.w	r2, r3, #32
 800041e:	da0c      	bge.n	800043a <__adddf3+0x16e>
 8000420:	320c      	adds	r2, #12
 8000422:	dd08      	ble.n	8000436 <__adddf3+0x16a>
 8000424:	f102 0c14 	add.w	ip, r2, #20
 8000428:	f1c2 020c 	rsb	r2, r2, #12
 800042c:	fa01 f00c 	lsl.w	r0, r1, ip
 8000430:	fa21 f102 	lsr.w	r1, r1, r2
 8000434:	e00c      	b.n	8000450 <__adddf3+0x184>
 8000436:	f102 0214 	add.w	r2, r2, #20
 800043a:	bfd8      	it	le
 800043c:	f1c2 0c20 	rsble	ip, r2, #32
 8000440:	fa01 f102 	lsl.w	r1, r1, r2
 8000444:	fa20 fc0c 	lsr.w	ip, r0, ip
 8000448:	bfdc      	itt	le
 800044a:	ea41 010c 	orrle.w	r1, r1, ip
 800044e:	4090      	lslle	r0, r2
 8000450:	1ae4      	subs	r4, r4, r3
 8000452:	bfa2      	ittt	ge
 8000454:	eb01 5104 	addge.w	r1, r1, r4, lsl #20
 8000458:	4329      	orrge	r1, r5
 800045a:	bd30      	popge	{r4, r5, pc}
 800045c:	ea6f 0404 	mvn.w	r4, r4
 8000460:	3c1f      	subs	r4, #31
 8000462:	da1c      	bge.n	800049e <__adddf3+0x1d2>
 8000464:	340c      	adds	r4, #12
 8000466:	dc0e      	bgt.n	8000486 <__adddf3+0x1ba>
 8000468:	f104 0414 	add.w	r4, r4, #20
 800046c:	f1c4 0220 	rsb	r2, r4, #32
 8000470:	fa20 f004 	lsr.w	r0, r0, r4
 8000474:	fa01 f302 	lsl.w	r3, r1, r2
 8000478:	ea40 0003 	orr.w	r0, r0, r3
 800047c:	fa21 f304 	lsr.w	r3, r1, r4
 8000480:	ea45 0103 	orr.w	r1, r5, r3
 8000484:	bd30      	pop	{r4, r5, pc}
 8000486:	f1c4 040c 	rsb	r4, r4, #12
 800048a:	f1c4 0220 	rsb	r2, r4, #32
 800048e:	fa20 f002 	lsr.w	r0, r0, r2
 8000492:	fa01 f304 	lsl.w	r3, r1, r4
 8000496:	ea40 0003 	orr.w	r0, r0, r3
 800049a:	4629      	mov	r1, r5
 800049c:	bd30      	pop	{r4, r5, pc}
 800049e:	fa21 f004 	lsr.w	r0, r1, r4
 80004a2:	4629      	mov	r1, r5
 80004a4:	bd30      	pop	{r4, r5, pc}
 80004a6:	f094 0f00 	teq	r4, #0
 80004aa:	f483 1380 	eor.w	r3, r3, #1048576	@ 0x100000
 80004ae:	bf06      	itte	eq
 80004b0:	f481 1180 	eoreq.w	r1, r1, #1048576	@ 0x100000
 80004b4:	3401      	addeq	r4, #1
 80004b6:	3d01      	subne	r5, #1
 80004b8:	e74e      	b.n	8000358 <__adddf3+0x8c>
 80004ba:	ea7f 5c64 	mvns.w	ip, r4, asr #21
 80004be:	bf18      	it	ne
 80004c0:	ea7f 5c65 	mvnsne.w	ip, r5, asr #21
 80004c4:	d029      	beq.n	800051a <__adddf3+0x24e>
 80004c6:	ea94 0f05 	teq	r4, r5
 80004ca:	bf08      	it	eq
 80004cc:	ea90 0f02 	teqeq	r0, r2
 80004d0:	d005      	beq.n	80004de <__adddf3+0x212>
 80004d2:	ea54 0c00 	orrs.w	ip, r4, r0
 80004d6:	bf04      	itt	eq
 80004d8:	4619      	moveq	r1, r3
 80004da:	4610      	moveq	r0, r2
 80004dc:	bd30      	pop	{r4, r5, pc}
 80004de:	ea91 0f03 	teq	r1, r3
 80004e2:	bf1e      	ittt	ne
 80004e4:	2100      	movne	r1, #0
 80004e6:	2000      	movne	r0, #0
 80004e8:	bd30      	popne	{r4, r5, pc}
 80004ea:	ea5f 5c54 	movs.w	ip, r4, lsr #21
 80004ee:	d105      	bne.n	80004fc <__adddf3+0x230>
 80004f0:	0040      	lsls	r0, r0, #1
 80004f2:	4149      	adcs	r1, r1
 80004f4:	bf28      	it	cs
 80004f6:	f041 4100 	orrcs.w	r1, r1, #2147483648	@ 0x80000000
 80004fa:	bd30      	pop	{r4, r5, pc}
 80004fc:	f514 0480 	adds.w	r4, r4, #4194304	@ 0x400000
 8000500:	bf3c      	itt	cc
 8000502:	f501 1180 	addcc.w	r1, r1, #1048576	@ 0x100000
 8000506:	bd30      	popcc	{r4, r5, pc}
 8000508:	f001 4500 	and.w	r5, r1, #2147483648	@ 0x80000000
 800050c:	f045 41fe 	orr.w	r1, r5, #2130706432	@ 0x7f000000
 8000510:	f441 0170 	orr.w	r1, r1, #15728640	@ 0xf00000
 8000514:	f04f 0000 	mov.w	r0, #0
 8000518:	bd30      	pop	{r4, r5, pc}
 800051a:	ea7f 5c64 	mvns.w	ip, r4, asr #21
 800051e:	bf1a      	itte	ne
 8000520:	4619      	movne	r1, r3
 8000522:	4610      	movne	r0, r2
 8000524:	ea7f 5c65 	mvnseq.w	ip, r5, asr #21
 8000528:	bf1c      	itt	ne
 800052a:	460b      	movne	r3, r1
 800052c:	4602      	movne	r2, r0
 800052e:	ea50 3401 	orrs.w	r4, r0, r1, lsl #12
 8000532:	bf06      	itte	eq
 8000534:	ea52 3503 	orrseq.w	r5, r2, r3, lsl #12
 8000538:	ea91 0f03 	teqeq	r1, r3
 800053c:	f441 2100 	orrne.w	r1, r1, #524288	@ 0x80000
 8000540:	bd30      	pop	{r4, r5, pc}
 8000542:	bf00      	nop

08000544 <__aeabi_ui2d>:
 8000544:	f090 0f00 	teq	r0, #0
 8000548:	bf04      	itt	eq
 800054a:	2100      	moveq	r1, #0
 800054c:	4770      	bxeq	lr
 800054e:	b530      	push	{r4, r5, lr}
 8000550:	f44f 6480 	mov.w	r4, #1024	@ 0x400
 8000554:	f104 0432 	add.w	r4, r4, #50	@ 0x32
 8000558:	f04f 0500 	mov.w	r5, #0
 800055c:	f04f 0100 	mov.w	r1, #0
 8000560:	e750      	b.n	8000404 <__adddf3+0x138>
 8000562:	bf00      	nop

08000564 <__aeabi_i2d>:
 8000564:	f090 0f00 	teq	r0, #0
 8000568:	bf04      	itt	eq
 800056a:	2100      	moveq	r1, #0
 800056c:	4770      	bxeq	lr
 800056e:	b530      	push	{r4, r5, lr}
 8000570:	f44f 6480 	mov.w	r4, #1024	@ 0x400
 8000574:	f104 0432 	add.w	r4, r4, #50	@ 0x32
 8000578:	f010 4500 	ands.w	r5, r0, #2147483648	@ 0x80000000
 800057c:	bf48      	it	mi
 800057e:	4240      	negmi	r0, r0
 8000580:	f04f 0100 	mov.w	r1, #0
 8000584:	e73e      	b.n	8000404 <__adddf3+0x138>
 8000586:	bf00      	nop

08000588 <__aeabi_f2d>:
 8000588:	0042      	lsls	r2, r0, #1
 800058a:	ea4f 01e2 	mov.w	r1, r2, asr #3
 800058e:	ea4f 0131 	mov.w	r1, r1, rrx
 8000592:	ea4f 7002 	mov.w	r0, r2, lsl #28
 8000596:	bf1f      	itttt	ne
 8000598:	f012 437f 	andsne.w	r3, r2, #4278190080	@ 0xff000000
 800059c:	f093 4f7f 	teqne	r3, #4278190080	@ 0xff000000
 80005a0:	f081 5160 	eorne.w	r1, r1, #939524096	@ 0x38000000
 80005a4:	4770      	bxne	lr
 80005a6:	f032 427f 	bics.w	r2, r2, #4278190080	@ 0xff000000
 80005aa:	bf08      	it	eq
 80005ac:	4770      	bxeq	lr
 80005ae:	f093 4f7f 	teq	r3, #4278190080	@ 0xff000000
 80005b2:	bf04      	itt	eq
 80005b4:	f441 2100 	orreq.w	r1, r1, #524288	@ 0x80000
 80005b8:	4770      	bxeq	lr
 80005ba:	b530      	push	{r4, r5, lr}
 80005bc:	f44f 7460 	mov.w	r4, #896	@ 0x380
 80005c0:	f001 4500 	and.w	r5, r1, #2147483648	@ 0x80000000
 80005c4:	f021 4100 	bic.w	r1, r1, #2147483648	@ 0x80000000
 80005c8:	e71c      	b.n	8000404 <__adddf3+0x138>
 80005ca:	bf00      	nop

080005cc <__aeabi_ul2d>:
 80005cc:	ea50 0201 	orrs.w	r2, r0, r1
 80005d0:	bf08      	it	eq
 80005d2:	4770      	bxeq	lr
 80005d4:	b530      	push	{r4, r5, lr}
 80005d6:	f04f 0500 	mov.w	r5, #0
 80005da:	e00a      	b.n	80005f2 <__aeabi_l2d+0x16>

080005dc <__aeabi_l2d>:
 80005dc:	ea50 0201 	orrs.w	r2, r0, r1
 80005e0:	bf08      	it	eq
 80005e2:	4770      	bxeq	lr
 80005e4:	b530      	push	{r4, r5, lr}
 80005e6:	f011 4500 	ands.w	r5, r1, #2147483648	@ 0x80000000
 80005ea:	d502      	bpl.n	80005f2 <__aeabi_l2d+0x16>
 80005ec:	4240      	negs	r0, r0
 80005ee:	eb61 0141 	sbc.w	r1, r1, r1, lsl #1
 80005f2:	f44f 6480 	mov.w	r4, #1024	@ 0x400
 80005f6:	f104 0432 	add.w	r4, r4, #50	@ 0x32
 80005fa:	ea5f 5c91 	movs.w	ip, r1, lsr #22
 80005fe:	f43f aed8 	beq.w	80003b2 <__adddf3+0xe6>
 8000602:	f04f 0203 	mov.w	r2, #3
 8000606:	ea5f 0cdc 	movs.w	ip, ip, lsr #3
 800060a:	bf18      	it	ne
 800060c:	3203      	addne	r2, #3
 800060e:	ea5f 0cdc 	movs.w	ip, ip, lsr #3
 8000612:	bf18      	it	ne
 8000614:	3203      	addne	r2, #3
 8000616:	eb02 02dc 	add.w	r2, r2, ip, lsr #3
 800061a:	f1c2 0320 	rsb	r3, r2, #32
 800061e:	fa00 fc03 	lsl.w	ip, r0, r3
 8000622:	fa20 f002 	lsr.w	r0, r0, r2
 8000626:	fa01 fe03 	lsl.w	lr, r1, r3
 800062a:	ea40 000e 	orr.w	r0, r0, lr
 800062e:	fa21 f102 	lsr.w	r1, r1, r2
 8000632:	4414      	add	r4, r2
 8000634:	e6bd      	b.n	80003b2 <__adddf3+0xe6>
 8000636:	bf00      	nop

08000638 <__aeabi_dmul>:
 8000638:	b570      	push	{r4, r5, r6, lr}
 800063a:	f04f 0cff 	mov.w	ip, #255	@ 0xff
 800063e:	f44c 6ce0 	orr.w	ip, ip, #1792	@ 0x700
 8000642:	ea1c 5411 	ands.w	r4, ip, r1, lsr #20
 8000646:	bf1d      	ittte	ne
 8000648:	ea1c 5513 	andsne.w	r5, ip, r3, lsr #20
 800064c:	ea94 0f0c 	teqne	r4, ip
 8000650:	ea95 0f0c 	teqne	r5, ip
 8000654:	f000 f8de 	bleq	8000814 <__aeabi_dmul+0x1dc>
 8000658:	442c      	add	r4, r5
 800065a:	ea81 0603 	eor.w	r6, r1, r3
 800065e:	ea21 514c 	bic.w	r1, r1, ip, lsl #21
 8000662:	ea23 534c 	bic.w	r3, r3, ip, lsl #21
 8000666:	ea50 3501 	orrs.w	r5, r0, r1, lsl #12
 800066a:	bf18      	it	ne
 800066c:	ea52 3503 	orrsne.w	r5, r2, r3, lsl #12
 8000670:	f441 1180 	orr.w	r1, r1, #1048576	@ 0x100000
 8000674:	f443 1380 	orr.w	r3, r3, #1048576	@ 0x100000
 8000678:	d038      	beq.n	80006ec <__aeabi_dmul+0xb4>
 800067a:	fba0 ce02 	umull	ip, lr, r0, r2
 800067e:	f04f 0500 	mov.w	r5, #0
 8000682:	fbe1 e502 	umlal	lr, r5, r1, r2
 8000686:	f006 4200 	and.w	r2, r6, #2147483648	@ 0x80000000
 800068a:	fbe0 e503 	umlal	lr, r5, r0, r3
 800068e:	f04f 0600 	mov.w	r6, #0
 8000692:	fbe1 5603 	umlal	r5, r6, r1, r3
 8000696:	f09c 0f00 	teq	ip, #0
 800069a:	bf18      	it	ne
 800069c:	f04e 0e01 	orrne.w	lr, lr, #1
 80006a0:	f1a4 04ff 	sub.w	r4, r4, #255	@ 0xff
 80006a4:	f5b6 7f00 	cmp.w	r6, #512	@ 0x200
 80006a8:	f564 7440 	sbc.w	r4, r4, #768	@ 0x300
 80006ac:	d204      	bcs.n	80006b8 <__aeabi_dmul+0x80>
 80006ae:	ea5f 0e4e 	movs.w	lr, lr, lsl #1
 80006b2:	416d      	adcs	r5, r5
 80006b4:	eb46 0606 	adc.w	r6, r6, r6
 80006b8:	ea42 21c6 	orr.w	r1, r2, r6, lsl #11
 80006bc:	ea41 5155 	orr.w	r1, r1, r5, lsr #21
 80006c0:	ea4f 20c5 	mov.w	r0, r5, lsl #11
 80006c4:	ea40 505e 	orr.w	r0, r0, lr, lsr #21
 80006c8:	ea4f 2ece 	mov.w	lr, lr, lsl #11
 80006cc:	f1b4 0cfd 	subs.w	ip, r4, #253	@ 0xfd
 80006d0:	bf88      	it	hi
 80006d2:	f5bc 6fe0 	cmphi.w	ip, #1792	@ 0x700
 80006d6:	d81e      	bhi.n	8000716 <__aeabi_dmul+0xde>
 80006d8:	f1be 4f00 	cmp.w	lr, #2147483648	@ 0x80000000
 80006dc:	bf08      	it	eq
 80006de:	ea5f 0e50 	movseq.w	lr, r0, lsr #1
 80006e2:	f150 0000 	adcs.w	r0, r0, #0
 80006e6:	eb41 5104 	adc.w	r1, r1, r4, lsl #20
 80006ea:	bd70      	pop	{r4, r5, r6, pc}
 80006ec:	f006 4600 	and.w	r6, r6, #2147483648	@ 0x80000000
 80006f0:	ea46 0101 	orr.w	r1, r6, r1
 80006f4:	ea40 0002 	orr.w	r0, r0, r2
 80006f8:	ea81 0103 	eor.w	r1, r1, r3
 80006fc:	ebb4 045c 	subs.w	r4, r4, ip, lsr #1
 8000700:	bfc2      	ittt	gt
 8000702:	ebd4 050c 	rsbsgt	r5, r4, ip
 8000706:	ea41 5104 	orrgt.w	r1, r1, r4, lsl #20
 800070a:	bd70      	popgt	{r4, r5, r6, pc}
 800070c:	f441 1180 	orr.w	r1, r1, #1048576	@ 0x100000
 8000710:	f04f 0e00 	mov.w	lr, #0
 8000714:	3c01      	subs	r4, #1
 8000716:	f300 80ab 	bgt.w	8000870 <__aeabi_dmul+0x238>
 800071a:	f114 0f36 	cmn.w	r4, #54	@ 0x36
 800071e:	bfde      	ittt	le
 8000720:	2000      	movle	r0, #0
 8000722:	f001 4100 	andle.w	r1, r1, #2147483648	@ 0x80000000
 8000726:	bd70      	pople	{r4, r5, r6, pc}
 8000728:	f1c4 0400 	rsb	r4, r4, #0
 800072c:	3c20      	subs	r4, #32
 800072e:	da35      	bge.n	800079c <__aeabi_dmul+0x164>
 8000730:	340c      	adds	r4, #12
 8000732:	dc1b      	bgt.n	800076c <__aeabi_dmul+0x134>
 8000734:	f104 0414 	add.w	r4, r4, #20
 8000738:	f1c4 0520 	rsb	r5, r4, #32
 800073c:	fa00 f305 	lsl.w	r3, r0, r5
 8000740:	fa20 f004 	lsr.w	r0, r0, r4
 8000744:	fa01 f205 	lsl.w	r2, r1, r5
 8000748:	ea40 0002 	orr.w	r0, r0, r2
 800074c:	f001 4200 	and.w	r2, r1, #2147483648	@ 0x80000000
 8000750:	f021 4100 	bic.w	r1, r1, #2147483648	@ 0x80000000
 8000754:	eb10 70d3 	adds.w	r0, r0, r3, lsr #31
 8000758:	fa21 f604 	lsr.w	r6, r1, r4
 800075c:	eb42 0106 	adc.w	r1, r2, r6
 8000760:	ea5e 0e43 	orrs.w	lr, lr, r3, lsl #1
 8000764:	bf08      	it	eq
 8000766:	ea20 70d3 	biceq.w	r0, r0, r3, lsr #31
 800076a:	bd70      	pop	{r4, r5, r6, pc}
 800076c:	f1c4 040c 	rsb	r4, r4, #12
 8000770:	f1c4 0520 	rsb	r5, r4, #32
 8000774:	fa00 f304 	lsl.w	r3, r0, r4
 8000778:	fa20 f005 	lsr.w	r0, r0, r5
 800077c:	fa01 f204 	lsl.w	r2, r1, r4
 8000780:	ea40 0002 	orr.w	r0, r0, r2
 8000784:	f001 4100 	and.w	r1, r1, #2147483648	@ 0x80000000
 8000788:	eb10 70d3 	adds.w	r0, r0, r3, lsr #31
 800078c:	f141 0100 	adc.w	r1, r1, #0
 8000790:	ea5e 0e43 	orrs.w	lr, lr, r3, lsl #1
 8000794:	bf08      	it	eq
 8000796:	ea20 70d3 	biceq.w	r0, r0, r3, lsr #31
 800079a:	bd70      	pop	{r4, r5, r6, pc}
 800079c:	f1c4 0520 	rsb	r5, r4, #32
 80007a0:	fa00 f205 	lsl.w	r2, r0, r5
 80007a4:	ea4e 0e02 	orr.w	lr, lr, r2
 80007a8:	fa20 f304 	lsr.w	r3, r0, r4
 80007ac:	fa01 f205 	lsl.w	r2, r1, r5
 80007b0:	ea43 0302 	orr.w	r3, r3, r2
 80007b4:	fa21 f004 	lsr.w	r0, r1, r4
 80007b8:	f001 4100 	and.w	r1, r1, #2147483648	@ 0x80000000
 80007bc:	fa21 f204 	lsr.w	r2, r1, r4
 80007c0:	ea20 0002 	bic.w	r0, r0, r2
 80007c4:	eb00 70d3 	add.w	r0, r0, r3, lsr #31
 80007c8:	ea5e 0e43 	orrs.w	lr, lr, r3, lsl #1
 80007cc:	bf08      	it	eq
 80007ce:	ea20 70d3 	biceq.w	r0, r0, r3, lsr #31
 80007d2:	bd70      	pop	{r4, r5, r6, pc}
 80007d4:	f094 0f00 	teq	r4, #0
 80007d8:	d10f      	bne.n	80007fa <__aeabi_dmul+0x1c2>
 80007da:	f001 4600 	and.w	r6, r1, #2147483648	@ 0x80000000
 80007de:	0040      	lsls	r0, r0, #1
 80007e0:	eb41 0101 	adc.w	r1, r1, r1
 80007e4:	f411 1f80 	tst.w	r1, #1048576	@ 0x100000
 80007e8:	bf08      	it	eq
 80007ea:	3c01      	subeq	r4, #1
 80007ec:	d0f7      	beq.n	80007de <__aeabi_dmul+0x1a6>
 80007ee:	ea41 0106 	orr.w	r1, r1, r6
 80007f2:	f095 0f00 	teq	r5, #0
 80007f6:	bf18      	it	ne
 80007f8:	4770      	bxne	lr
 80007fa:	f003 4600 	and.w	r6, r3, #2147483648	@ 0x80000000
 80007fe:	0052      	lsls	r2, r2, #1
 8000800:	eb43 0303 	adc.w	r3, r3, r3
 8000804:	f413 1f80 	tst.w	r3, #1048576	@ 0x100000
 8000808:	bf08      	it	eq
 800080a:	3d01      	subeq	r5, #1
 800080c:	d0f7      	beq.n	80007fe <__aeabi_dmul+0x1c6>
 800080e:	ea43 0306 	orr.w	r3, r3, r6
 8000812:	4770      	bx	lr
 8000814:	ea94 0f0c 	teq	r4, ip
 8000818:	ea0c 5513 	and.w	r5, ip, r3, lsr #20
 800081c:	bf18      	it	ne
 800081e:	ea95 0f0c 	teqne	r5, ip
 8000822:	d00c      	beq.n	800083e <__aeabi_dmul+0x206>
 8000824:	ea50 0641 	orrs.w	r6, r0, r1, lsl #1
 8000828:	bf18      	it	ne
 800082a:	ea52 0643 	orrsne.w	r6, r2, r3, lsl #1
 800082e:	d1d1      	bne.n	80007d4 <__aeabi_dmul+0x19c>
 8000830:	ea81 0103 	eor.w	r1, r1, r3
 8000834:	f001 4100 	and.w	r1, r1, #2147483648	@ 0x80000000
 8000838:	f04f 0000 	mov.w	r0, #0
 800083c:	bd70      	pop	{r4, r5, r6, pc}
 800083e:	ea50 0641 	orrs.w	r6, r0, r1, lsl #1
 8000842:	bf06      	itte	eq
 8000844:	4610      	moveq	r0, r2
 8000846:	4619      	moveq	r1, r3
 8000848:	ea52 0643 	orrsne.w	r6, r2, r3, lsl #1
 800084c:	d019      	beq.n	8000882 <__aeabi_dmul+0x24a>
 800084e:	ea94 0f0c 	teq	r4, ip
 8000852:	d102      	bne.n	800085a <__aeabi_dmul+0x222>
 8000854:	ea50 3601 	orrs.w	r6, r0, r1, lsl #12
 8000858:	d113      	bne.n	8000882 <__aeabi_dmul+0x24a>
 800085a:	ea95 0f0c 	teq	r5, ip
 800085e:	d105      	bne.n	800086c <__aeabi_dmul+0x234>
 8000860:	ea52 3603 	orrs.w	r6, r2, r3, lsl #12
 8000864:	bf1c      	itt	ne
 8000866:	4610      	movne	r0, r2
 8000868:	4619      	movne	r1, r3
 800086a:	d10a      	bne.n	8000882 <__aeabi_dmul+0x24a>
 800086c:	ea81 0103 	eor.w	r1, r1, r3
 8000870:	f001 4100 	and.w	r1, r1, #2147483648	@ 0x80000000
 8000874:	f041 41fe 	orr.w	r1, r1, #2130706432	@ 0x7f000000
 8000878:	f441 0170 	orr.w	r1, r1, #15728640	@ 0xf00000
 800087c:	f04f 0000 	mov.w	r0, #0
 8000880:	bd70      	pop	{r4, r5, r6, pc}
 8000882:	f041 41fe 	orr.w	r1, r1, #2130706432	@ 0x7f000000
 8000886:	f441 0178 	orr.w	r1, r1, #16252928	@ 0xf80000
 800088a:	bd70      	pop	{r4, r5, r6, pc}

0800088c <__aeabi_ddiv>:
 800088c:	b570      	push	{r4, r5, r6, lr}
 800088e:	f04f 0cff 	mov.w	ip, #255	@ 0xff
 8000892:	f44c 6ce0 	orr.w	ip, ip, #1792	@ 0x700
 8000896:	ea1c 5411 	ands.w	r4, ip, r1, lsr #20
 800089a:	bf1d      	ittte	ne
 800089c:	ea1c 5513 	andsne.w	r5, ip, r3, lsr #20
 80008a0:	ea94 0f0c 	teqne	r4, ip
 80008a4:	ea95 0f0c 	teqne	r5, ip
 80008a8:	f000 f8a7 	bleq	80009fa <__aeabi_ddiv+0x16e>
 80008ac:	eba4 0405 	sub.w	r4, r4, r5
 80008b0:	ea81 0e03 	eor.w	lr, r1, r3
 80008b4:	ea52 3503 	orrs.w	r5, r2, r3, lsl #12
 80008b8:	ea4f 3101 	mov.w	r1, r1, lsl #12
 80008bc:	f000 8088 	beq.w	80009d0 <__aeabi_ddiv+0x144>
 80008c0:	ea4f 3303 	mov.w	r3, r3, lsl #12
 80008c4:	f04f 5580 	mov.w	r5, #268435456	@ 0x10000000
 80008c8:	ea45 1313 	orr.w	r3, r5, r3, lsr #4
 80008cc:	ea43 6312 	orr.w	r3, r3, r2, lsr #24
 80008d0:	ea4f 2202 	mov.w	r2, r2, lsl #8
 80008d4:	ea45 1511 	orr.w	r5, r5, r1, lsr #4
 80008d8:	ea45 6510 	orr.w	r5, r5, r0, lsr #24
 80008dc:	ea4f 2600 	mov.w	r6, r0, lsl #8
 80008e0:	f00e 4100 	and.w	r1, lr, #2147483648	@ 0x80000000
 80008e4:	429d      	cmp	r5, r3
 80008e6:	bf08      	it	eq
 80008e8:	4296      	cmpeq	r6, r2
 80008ea:	f144 04fd 	adc.w	r4, r4, #253	@ 0xfd
 80008ee:	f504 7440 	add.w	r4, r4, #768	@ 0x300
 80008f2:	d202      	bcs.n	80008fa <__aeabi_ddiv+0x6e>
 80008f4:	085b      	lsrs	r3, r3, #1
 80008f6:	ea4f 0232 	mov.w	r2, r2, rrx
 80008fa:	1ab6      	subs	r6, r6, r2
 80008fc:	eb65 0503 	sbc.w	r5, r5, r3
 8000900:	085b      	lsrs	r3, r3, #1
 8000902:	ea4f 0232 	mov.w	r2, r2, rrx
 8000906:	f44f 1080 	mov.w	r0, #1048576	@ 0x100000
 800090a:	f44f 2c00 	mov.w	ip, #524288	@ 0x80000
 800090e:	ebb6 0e02 	subs.w	lr, r6, r2
 8000912:	eb75 0e03 	sbcs.w	lr, r5, r3
 8000916:	bf22      	ittt	cs
 8000918:	1ab6      	subcs	r6, r6, r2
 800091a:	4675      	movcs	r5, lr
 800091c:	ea40 000c 	orrcs.w	r0, r0, ip
 8000920:	085b      	lsrs	r3, r3, #1
 8000922:	ea4f 0232 	mov.w	r2, r2, rrx
 8000926:	ebb6 0e02 	subs.w	lr, r6, r2
 800092a:	eb75 0e03 	sbcs.w	lr, r5, r3
 800092e:	bf22      	ittt	cs
 8000930:	1ab6      	subcs	r6, r6, r2
 8000932:	4675      	movcs	r5, lr
 8000934:	ea40 005c 	orrcs.w	r0, r0, ip, lsr #1
 8000938:	085b      	lsrs	r3, r3, #1
 800093a:	ea4f 0232 	mov.w	r2, r2, rrx
 800093e:	ebb6 0e02 	subs.w	lr, r6, r2
 8000942:	eb75 0e03 	sbcs.w	lr, r5, r3
 8000946:	bf22      	ittt	cs
 8000948:	1ab6      	subcs	r6, r6, r2
 800094a:	4675      	movcs	r5, lr
 800094c:	ea40 009c 	orrcs.w	r0, r0, ip, lsr #2
 8000950:	085b      	lsrs	r3, r3, #1
 8000952:	ea4f 0232 	mov.w	r2, r2, rrx
 8000956:	ebb6 0e02 	subs.w	lr, r6, r2
 800095a:	eb75 0e03 	sbcs.w	lr, r5, r3
 800095e:	bf22      	ittt	cs
 8000960:	1ab6      	subcs	r6, r6, r2
 8000962:	4675      	movcs	r5, lr
 8000964:	ea40 00dc 	orrcs.w	r0, r0, ip, lsr #3
 8000968:	ea55 0e06 	orrs.w	lr, r5, r6
 800096c:	d018      	beq.n	80009a0 <__aeabi_ddiv+0x114>
 800096e:	ea4f 1505 	mov.w	r5, r5, lsl #4
 8000972:	ea45 7516 	orr.w	r5, r5, r6, lsr #28
 8000976:	ea4f 1606 	mov.w	r6, r6, lsl #4
 800097a:	ea4f 03c3 	mov.w	r3, r3, lsl #3
 800097e:	ea43 7352 	orr.w	r3, r3, r2, lsr #29
 8000982:	ea4f 02c2 	mov.w	r2, r2, lsl #3
 8000986:	ea5f 1c1c 	movs.w	ip, ip, lsr #4
 800098a:	d1c0      	bne.n	800090e <__aeabi_ddiv+0x82>
 800098c:	f411 1f80 	tst.w	r1, #1048576	@ 0x100000
 8000990:	d10b      	bne.n	80009aa <__aeabi_ddiv+0x11e>
 8000992:	ea41 0100 	orr.w	r1, r1, r0
 8000996:	f04f 0000 	mov.w	r0, #0
 800099a:	f04f 4c00 	mov.w	ip, #2147483648	@ 0x80000000
 800099e:	e7b6      	b.n	800090e <__aeabi_ddiv+0x82>
 80009a0:	f411 1f80 	tst.w	r1, #1048576	@ 0x100000
 80009a4:	bf04      	itt	eq
 80009a6:	4301      	orreq	r1, r0
 80009a8:	2000      	moveq	r0, #0
 80009aa:	f1b4 0cfd 	subs.w	ip, r4, #253	@ 0xfd
 80009ae:	bf88      	it	hi
 80009b0:	f5bc 6fe0 	cmphi.w	ip, #1792	@ 0x700
 80009b4:	f63f aeaf 	bhi.w	8000716 <__aeabi_dmul+0xde>
 80009b8:	ebb5 0c03 	subs.w	ip, r5, r3
 80009bc:	bf04      	itt	eq
 80009be:	ebb6 0c02 	subseq.w	ip, r6, r2
 80009c2:	ea5f 0c50 	movseq.w	ip, r0, lsr #1
 80009c6:	f150 0000 	adcs.w	r0, r0, #0
 80009ca:	eb41 5104 	adc.w	r1, r1, r4, lsl #20
 80009ce:	bd70      	pop	{r4, r5, r6, pc}
 80009d0:	f00e 4e00 	and.w	lr, lr, #2147483648	@ 0x80000000
 80009d4:	ea4e 3111 	orr.w	r1, lr, r1, lsr #12
 80009d8:	eb14 045c 	adds.w	r4, r4, ip, lsr #1
 80009dc:	bfc2      	ittt	gt
 80009de:	ebd4 050c 	rsbsgt	r5, r4, ip
 80009e2:	ea41 5104 	orrgt.w	r1, r1, r4, lsl #20
 80009e6:	bd70      	popgt	{r4, r5, r6, pc}
 80009e8:	f441 1180 	orr.w	r1, r1, #1048576	@ 0x100000
 80009ec:	f04f 0e00 	mov.w	lr, #0
 80009f0:	3c01      	subs	r4, #1
 80009f2:	e690      	b.n	8000716 <__aeabi_dmul+0xde>
 80009f4:	ea45 0e06 	orr.w	lr, r5, r6
 80009f8:	e68d      	b.n	8000716 <__aeabi_dmul+0xde>
 80009fa:	ea0c 5513 	and.w	r5, ip, r3, lsr #20
 80009fe:	ea94 0f0c 	teq	r4, ip
 8000a02:	bf08      	it	eq
 8000a04:	ea95 0f0c 	teqeq	r5, ip
 8000a08:	f43f af3b 	beq.w	8000882 <__aeabi_dmul+0x24a>
 8000a0c:	ea94 0f0c 	teq	r4, ip
 8000a10:	d10a      	bne.n	8000a28 <__aeabi_ddiv+0x19c>
 8000a12:	ea50 3401 	orrs.w	r4, r0, r1, lsl #12
 8000a16:	f47f af34 	bne.w	8000882 <__aeabi_dmul+0x24a>
 8000a1a:	ea95 0f0c 	teq	r5, ip
 8000a1e:	f47f af25 	bne.w	800086c <__aeabi_dmul+0x234>
 8000a22:	4610      	mov	r0, r2
 8000a24:	4619      	mov	r1, r3
 8000a26:	e72c      	b.n	8000882 <__aeabi_dmul+0x24a>
 8000a28:	ea95 0f0c 	teq	r5, ip
 8000a2c:	d106      	bne.n	8000a3c <__aeabi_ddiv+0x1b0>
 8000a2e:	ea52 3503 	orrs.w	r5, r2, r3, lsl #12
 8000a32:	f43f aefd 	beq.w	8000830 <__aeabi_dmul+0x1f8>
 8000a36:	4610      	mov	r0, r2
 8000a38:	4619      	mov	r1, r3
 8000a3a:	e722      	b.n	8000882 <__aeabi_dmul+0x24a>
 8000a3c:	ea50 0641 	orrs.w	r6, r0, r1, lsl #1
 8000a40:	bf18      	it	ne
 8000a42:	ea52 0643 	orrsne.w	r6, r2, r3, lsl #1
 8000a46:	f47f aec5 	bne.w	80007d4 <__aeabi_dmul+0x19c>
 8000a4a:	ea50 0441 	orrs.w	r4, r0, r1, lsl #1
 8000a4e:	f47f af0d 	bne.w	800086c <__aeabi_dmul+0x234>
 8000a52:	ea52 0543 	orrs.w	r5, r2, r3, lsl #1
 8000a56:	f47f aeeb 	bne.w	8000830 <__aeabi_dmul+0x1f8>
 8000a5a:	e712      	b.n	8000882 <__aeabi_dmul+0x24a>

08000a5c <__gedf2>:
 8000a5c:	f04f 3cff 	mov.w	ip, #4294967295	@ 0xffffffff
 8000a60:	e006      	b.n	8000a70 <__cmpdf2+0x4>
 8000a62:	bf00      	nop

08000a64 <__ledf2>:
 8000a64:	f04f 0c01 	mov.w	ip, #1
 8000a68:	e002      	b.n	8000a70 <__cmpdf2+0x4>
 8000a6a:	bf00      	nop

08000a6c <__cmpdf2>:
 8000a6c:	f04f 0c01 	mov.w	ip, #1
 8000a70:	f84d cd04 	str.w	ip, [sp, #-4]!
 8000a74:	ea4f 0c41 	mov.w	ip, r1, lsl #1
 8000a78:	ea7f 5c6c 	mvns.w	ip, ip, asr #21
 8000a7c:	ea4f 0c43 	mov.w	ip, r3, lsl #1
 8000a80:	bf18      	it	ne
 8000a82:	ea7f 5c6c 	mvnsne.w	ip, ip, asr #21
 8000a86:	d01b      	beq.n	8000ac0 <__cmpdf2+0x54>
 8000a88:	b001      	add	sp, #4
 8000a8a:	ea50 0c41 	orrs.w	ip, r0, r1, lsl #1
 8000a8e:	bf0c      	ite	eq
 8000a90:	ea52 0c43 	orrseq.w	ip, r2, r3, lsl #1
 8000a94:	ea91 0f03 	teqne	r1, r3
 8000a98:	bf02      	ittt	eq
 8000a9a:	ea90 0f02 	teqeq	r0, r2
 8000a9e:	2000      	moveq	r0, #0
 8000aa0:	4770      	bxeq	lr
 8000aa2:	f110 0f00 	cmn.w	r0, #0
 8000aa6:	ea91 0f03 	teq	r1, r3
 8000aaa:	bf58      	it	pl
 8000aac:	4299      	cmppl	r1, r3
 8000aae:	bf08      	it	eq
 8000ab0:	4290      	cmpeq	r0, r2
 8000ab2:	bf2c      	ite	cs
 8000ab4:	17d8      	asrcs	r0, r3, #31
 8000ab6:	ea6f 70e3 	mvncc.w	r0, r3, asr #31
 8000aba:	f040 0001 	orr.w	r0, r0, #1
 8000abe:	4770      	bx	lr
 8000ac0:	ea4f 0c41 	mov.w	ip, r1, lsl #1
 8000ac4:	ea7f 5c6c 	mvns.w	ip, ip, asr #21
 8000ac8:	d102      	bne.n	8000ad0 <__cmpdf2+0x64>
 8000aca:	ea50 3c01 	orrs.w	ip, r0, r1, lsl #12
 8000ace:	d107      	bne.n	8000ae0 <__cmpdf2+0x74>
 8000ad0:	ea4f 0c43 	mov.w	ip, r3, lsl #1
 8000ad4:	ea7f 5c6c 	mvns.w	ip, ip, asr #21
 8000ad8:	d1d6      	bne.n	8000a88 <__cmpdf2+0x1c>
 8000ada:	ea52 3c03 	orrs.w	ip, r2, r3, lsl #12
 8000ade:	d0d3      	beq.n	8000a88 <__cmpdf2+0x1c>
 8000ae0:	f85d 0b04 	ldr.w	r0, [sp], #4
 8000ae4:	4770      	bx	lr
 8000ae6:	bf00      	nop

08000ae8 <__aeabi_cdrcmple>:
 8000ae8:	4684      	mov	ip, r0
 8000aea:	4610      	mov	r0, r2
 8000aec:	4662      	mov	r2, ip
 8000aee:	468c      	mov	ip, r1
 8000af0:	4619      	mov	r1, r3
 8000af2:	4663      	mov	r3, ip
 8000af4:	e000      	b.n	8000af8 <__aeabi_cdcmpeq>
 8000af6:	bf00      	nop

08000af8 <__aeabi_cdcmpeq>:
 8000af8:	b501      	push	{r0, lr}
 8000afa:	f7ff ffb7 	bl	8000a6c <__cmpdf2>
 8000afe:	2800      	cmp	r0, #0
 8000b00:	bf48      	it	mi
 8000b02:	f110 0f00 	cmnmi.w	r0, #0
 8000b06:	bd01      	pop	{r0, pc}

08000b08 <__aeabi_dcmpeq>:
 8000b08:	f84d ed08 	str.w	lr, [sp, #-8]!
 8000b0c:	f7ff fff4 	bl	8000af8 <__aeabi_cdcmpeq>
 8000b10:	bf0c      	ite	eq
 8000b12:	2001      	moveq	r0, #1
 8000b14:	2000      	movne	r0, #0
 8000b16:	f85d fb08 	ldr.w	pc, [sp], #8
 8000b1a:	bf00      	nop

08000b1c <__aeabi_dcmplt>:
 8000b1c:	f84d ed08 	str.w	lr, [sp, #-8]!
 8000b20:	f7ff ffea 	bl	8000af8 <__aeabi_cdcmpeq>
 8000b24:	bf34      	ite	cc
 8000b26:	2001      	movcc	r0, #1
 8000b28:	2000      	movcs	r0, #0
 8000b2a:	f85d fb08 	ldr.w	pc, [sp], #8
 8000b2e:	bf00      	nop

08000b30 <__aeabi_dcmple>:
 8000b30:	f84d ed08 	str.w	lr, [sp, #-8]!
 8000b34:	f7ff ffe0 	bl	8000af8 <__aeabi_cdcmpeq>
 8000b38:	bf94      	ite	ls
 8000b3a:	2001      	movls	r0, #1
 8000b3c:	2000      	movhi	r0, #0
 8000b3e:	f85d fb08 	ldr.w	pc, [sp], #8
 8000b42:	bf00      	nop

08000b44 <__aeabi_dcmpge>:
 8000b44:	f84d ed08 	str.w	lr, [sp, #-8]!
 8000b48:	f7ff ffce 	bl	8000ae8 <__aeabi_cdrcmple>
 8000b4c:	bf94      	ite	ls
 8000b4e:	2001      	movls	r0, #1
 8000b50:	2000      	movhi	r0, #0
 8000b52:	f85d fb08 	ldr.w	pc, [sp], #8
 8000b56:	bf00      	nop

08000b58 <__aeabi_dcmpgt>:
 8000b58:	f84d ed08 	str.w	lr, [sp, #-8]!
 8000b5c:	f7ff ffc4 	bl	8000ae8 <__aeabi_cdrcmple>
 8000b60:	bf34      	ite	cc
 8000b62:	2001      	movcc	r0, #1
 8000b64:	2000      	movcs	r0, #0
 8000b66:	f85d fb08 	ldr.w	pc, [sp], #8
 8000b6a:	bf00      	nop

08000b6c <__aeabi_dcmpun>:
 8000b6c:	ea4f 0c41 	mov.w	ip, r1, lsl #1
 8000b70:	ea7f 5c6c 	mvns.w	ip, ip, asr #21
 8000b74:	d102      	bne.n	8000b7c <__aeabi_dcmpun+0x10>
 8000b76:	ea50 3c01 	orrs.w	ip, r0, r1, lsl #12
 8000b7a:	d10a      	bne.n	8000b92 <__aeabi_dcmpun+0x26>
 8000b7c:	ea4f 0c43 	mov.w	ip, r3, lsl #1
 8000b80:	ea7f 5c6c 	mvns.w	ip, ip, asr #21
 8000b84:	d102      	bne.n	8000b8c <__aeabi_dcmpun+0x20>
 8000b86:	ea52 3c03 	orrs.w	ip, r2, r3, lsl #12
 8000b8a:	d102      	bne.n	8000b92 <__aeabi_dcmpun+0x26>
 8000b8c:	f04f 0000 	mov.w	r0, #0
 8000b90:	4770      	bx	lr
 8000b92:	f04f 0001 	mov.w	r0, #1
 8000b96:	4770      	bx	lr

08000b98 <__aeabi_d2iz>:
 8000b98:	ea4f 0241 	mov.w	r2, r1, lsl #1
 8000b9c:	f512 1200 	adds.w	r2, r2, #2097152	@ 0x200000
 8000ba0:	d215      	bcs.n	8000bce <__aeabi_d2iz+0x36>
 8000ba2:	d511      	bpl.n	8000bc8 <__aeabi_d2iz+0x30>
 8000ba4:	f46f 7378 	mvn.w	r3, #992	@ 0x3e0
 8000ba8:	ebb3 5262 	subs.w	r2, r3, r2, asr #21
 8000bac:	d912      	bls.n	8000bd4 <__aeabi_d2iz+0x3c>
 8000bae:	ea4f 23c1 	mov.w	r3, r1, lsl #11
 8000bb2:	f043 4300 	orr.w	r3, r3, #2147483648	@ 0x80000000
 8000bb6:	ea43 5350 	orr.w	r3, r3, r0, lsr #21
 8000bba:	f011 4f00 	tst.w	r1, #2147483648	@ 0x80000000
 8000bbe:	fa23 f002 	lsr.w	r0, r3, r2
 8000bc2:	bf18      	it	ne
 8000bc4:	4240      	negne	r0, r0
 8000bc6:	4770      	bx	lr
 8000bc8:	f04f 0000 	mov.w	r0, #0
 8000bcc:	4770      	bx	lr
 8000bce:	ea50 3001 	orrs.w	r0, r0, r1, lsl #12
 8000bd2:	d105      	bne.n	8000be0 <__aeabi_d2iz+0x48>
 8000bd4:	f011 4000 	ands.w	r0, r1, #2147483648	@ 0x80000000
 8000bd8:	bf08      	it	eq
 8000bda:	f06f 4000 	mvneq.w	r0, #2147483648	@ 0x80000000
 8000bde:	4770      	bx	lr
 8000be0:	f04f 0000 	mov.w	r0, #0
 8000be4:	4770      	bx	lr
 8000be6:	bf00      	nop

08000be8 <__aeabi_d2f>:
 8000be8:	ea4f 0241 	mov.w	r2, r1, lsl #1
 8000bec:	f1b2 43e0 	subs.w	r3, r2, #1879048192	@ 0x70000000
 8000bf0:	bf24      	itt	cs
 8000bf2:	f5b3 1c00 	subscs.w	ip, r3, #2097152	@ 0x200000
 8000bf6:	f1dc 5cfe 	rsbscs	ip, ip, #532676608	@ 0x1fc00000
 8000bfa:	d90d      	bls.n	8000c18 <__aeabi_d2f+0x30>
 8000bfc:	f001 4c00 	and.w	ip, r1, #2147483648	@ 0x80000000
 8000c00:	ea4f 02c0 	mov.w	r2, r0, lsl #3
 8000c04:	ea4c 7050 	orr.w	r0, ip, r0, lsr #29
 8000c08:	f1b2 4f00 	cmp.w	r2, #2147483648	@ 0x80000000
 8000c0c:	eb40 0083 	adc.w	r0, r0, r3, lsl #2
 8000c10:	bf08      	it	eq
 8000c12:	f020 0001 	biceq.w	r0, r0, #1
 8000c16:	4770      	bx	lr
 8000c18:	f011 4f80 	tst.w	r1, #1073741824	@ 0x40000000
 8000c1c:	d121      	bne.n	8000c62 <__aeabi_d2f+0x7a>
 8000c1e:	f113 7238 	adds.w	r2, r3, #48234496	@ 0x2e00000
 8000c22:	bfbc      	itt	lt
 8000c24:	f001 4000 	andlt.w	r0, r1, #2147483648	@ 0x80000000
 8000c28:	4770      	bxlt	lr
 8000c2a:	f441 1180 	orr.w	r1, r1, #1048576	@ 0x100000
 8000c2e:	ea4f 5252 	mov.w	r2, r2, lsr #21
 8000c32:	f1c2 0218 	rsb	r2, r2, #24
 8000c36:	f1c2 0c20 	rsb	ip, r2, #32
 8000c3a:	fa10 f30c 	lsls.w	r3, r0, ip
 8000c3e:	fa20 f002 	lsr.w	r0, r0, r2
 8000c42:	bf18      	it	ne
 8000c44:	f040 0001 	orrne.w	r0, r0, #1
 8000c48:	ea4f 23c1 	mov.w	r3, r1, lsl #11
 8000c4c:	ea4f 23d3 	mov.w	r3, r3, lsr #11
 8000c50:	fa03 fc0c 	lsl.w	ip, r3, ip
 8000c54:	ea40 000c 	orr.w	r0, r0, ip
 8000c58:	fa23 f302 	lsr.w	r3, r3, r2
 8000c5c:	ea4f 0343 	mov.w	r3, r3, lsl #1
 8000c60:	e7cc      	b.n	8000bfc <__aeabi_d2f+0x14>
 8000c62:	ea7f 5362 	mvns.w	r3, r2, asr #21
 8000c66:	d107      	bne.n	8000c78 <__aeabi_d2f+0x90>
 8000c68:	ea50 3301 	orrs.w	r3, r0, r1, lsl #12
 8000c6c:	bf1e      	ittt	ne
 8000c6e:	f04f 40fe 	movne.w	r0, #2130706432	@ 0x7f000000
 8000c72:	f440 0040 	orrne.w	r0, r0, #12582912	@ 0xc00000
 8000c76:	4770      	bxne	lr
 8000c78:	f001 4000 	and.w	r0, r1, #2147483648	@ 0x80000000
 8000c7c:	f040 40fe 	orr.w	r0, r0, #2130706432	@ 0x7f000000
 8000c80:	f440 0000 	orr.w	r0, r0, #8388608	@ 0x800000
 8000c84:	4770      	bx	lr
 8000c86:	bf00      	nop

08000c88 <__aeabi_uldivmod>:
 8000c88:	b953      	cbnz	r3, 8000ca0 <__aeabi_uldivmod+0x18>
 8000c8a:	b94a      	cbnz	r2, 8000ca0 <__aeabi_uldivmod+0x18>
 8000c8c:	2900      	cmp	r1, #0
 8000c8e:	bf08      	it	eq
 8000c90:	2800      	cmpeq	r0, #0
 8000c92:	bf1c      	itt	ne
 8000c94:	f04f 31ff 	movne.w	r1, #4294967295	@ 0xffffffff
 8000c98:	f04f 30ff 	movne.w	r0, #4294967295	@ 0xffffffff
 8000c9c:	f000 b96a 	b.w	8000f74 <__aeabi_idiv0>
 8000ca0:	f1ad 0c08 	sub.w	ip, sp, #8
 8000ca4:	e96d ce04 	strd	ip, lr, [sp, #-16]!
 8000ca8:	f000 f806 	bl	8000cb8 <__udivmoddi4>
 8000cac:	f8dd e004 	ldr.w	lr, [sp, #4]
 8000cb0:	e9dd 2302 	ldrd	r2, r3, [sp, #8]
 8000cb4:	b004      	add	sp, #16
 8000cb6:	4770      	bx	lr

08000cb8 <__udivmoddi4>:
 8000cb8:	e92d 47f0 	stmdb	sp!, {r4, r5, r6, r7, r8, r9, sl, lr}
 8000cbc:	9d08      	ldr	r5, [sp, #32]
 8000cbe:	460c      	mov	r4, r1
 8000cc0:	2b00      	cmp	r3, #0
 8000cc2:	d14e      	bne.n	8000d62 <__udivmoddi4+0xaa>
 8000cc4:	4694      	mov	ip, r2
 8000cc6:	458c      	cmp	ip, r1
 8000cc8:	4686      	mov	lr, r0
 8000cca:	fab2 f282 	clz	r2, r2
 8000cce:	d962      	bls.n	8000d96 <__udivmoddi4+0xde>
 8000cd0:	b14a      	cbz	r2, 8000ce6 <__udivmoddi4+0x2e>
 8000cd2:	f1c2 0320 	rsb	r3, r2, #32
 8000cd6:	4091      	lsls	r1, r2
 8000cd8:	fa20 f303 	lsr.w	r3, r0, r3
 8000cdc:	fa0c fc02 	lsl.w	ip, ip, r2
 8000ce0:	4319      	orrs	r1, r3
 8000ce2:	fa00 fe02 	lsl.w	lr, r0, r2
 8000ce6:	ea4f 471c 	mov.w	r7, ip, lsr #16
 8000cea:	fa1f f68c 	uxth.w	r6, ip
 8000cee:	fbb1 f4f7 	udiv	r4, r1, r7
 8000cf2:	ea4f 431e 	mov.w	r3, lr, lsr #16
 8000cf6:	fb07 1114 	mls	r1, r7, r4, r1
 8000cfa:	ea43 4301 	orr.w	r3, r3, r1, lsl #16
 8000cfe:	fb04 f106 	mul.w	r1, r4, r6
 8000d02:	4299      	cmp	r1, r3
 8000d04:	d90a      	bls.n	8000d1c <__udivmoddi4+0x64>
 8000d06:	eb1c 0303 	adds.w	r3, ip, r3
 8000d0a:	f104 30ff 	add.w	r0, r4, #4294967295	@ 0xffffffff
 8000d0e:	f080 8112 	bcs.w	8000f36 <__udivmoddi4+0x27e>
 8000d12:	4299      	cmp	r1, r3
 8000d14:	f240 810f 	bls.w	8000f36 <__udivmoddi4+0x27e>
 8000d18:	3c02      	subs	r4, #2
 8000d1a:	4463      	add	r3, ip
 8000d1c:	1a59      	subs	r1, r3, r1
 8000d1e:	fa1f f38e 	uxth.w	r3, lr
 8000d22:	fbb1 f0f7 	udiv	r0, r1, r7
 8000d26:	fb07 1110 	mls	r1, r7, r0, r1
 8000d2a:	ea43 4301 	orr.w	r3, r3, r1, lsl #16
 8000d2e:	fb00 f606 	mul.w	r6, r0, r6
 8000d32:	429e      	cmp	r6, r3
 8000d34:	d90a      	bls.n	8000d4c <__udivmoddi4+0x94>
 8000d36:	eb1c 0303 	adds.w	r3, ip, r3
 8000d3a:	f100 31ff 	add.w	r1, r0, #4294967295	@ 0xffffffff
 8000d3e:	f080 80fc 	bcs.w	8000f3a <__udivmoddi4+0x282>
 8000d42:	429e      	cmp	r6, r3
 8000d44:	f240 80f9 	bls.w	8000f3a <__udivmoddi4+0x282>
 8000d48:	4463      	add	r3, ip
 8000d4a:	3802      	subs	r0, #2
 8000d4c:	1b9b      	subs	r3, r3, r6
 8000d4e:	ea40 4004 	orr.w	r0, r0, r4, lsl #16
 8000d52:	2100      	movs	r1, #0
 8000d54:	b11d      	cbz	r5, 8000d5e <__udivmoddi4+0xa6>
 8000d56:	40d3      	lsrs	r3, r2
 8000d58:	2200      	movs	r2, #0
 8000d5a:	e9c5 3200 	strd	r3, r2, [r5]
 8000d5e:	e8bd 87f0 	ldmia.w	sp!, {r4, r5, r6, r7, r8, r9, sl, pc}
 8000d62:	428b      	cmp	r3, r1
 8000d64:	d905      	bls.n	8000d72 <__udivmoddi4+0xba>
 8000d66:	b10d      	cbz	r5, 8000d6c <__udivmoddi4+0xb4>
 8000d68:	e9c5 0100 	strd	r0, r1, [r5]
 8000d6c:	2100      	movs	r1, #0
 8000d6e:	4608      	mov	r0, r1
 8000d70:	e7f5      	b.n	8000d5e <__udivmoddi4+0xa6>
 8000d72:	fab3 f183 	clz	r1, r3
 8000d76:	2900      	cmp	r1, #0
 8000d78:	d146      	bne.n	8000e08 <__udivmoddi4+0x150>
 8000d7a:	42a3      	cmp	r3, r4
 8000d7c:	d302      	bcc.n	8000d84 <__udivmoddi4+0xcc>
 8000d7e:	4290      	cmp	r0, r2
 8000d80:	f0c0 80f0 	bcc.w	8000f64 <__udivmoddi4+0x2ac>
 8000d84:	1a86      	subs	r6, r0, r2
 8000d86:	eb64 0303 	sbc.w	r3, r4, r3
 8000d8a:	2001      	movs	r0, #1
 8000d8c:	2d00      	cmp	r5, #0
 8000d8e:	d0e6      	beq.n	8000d5e <__udivmoddi4+0xa6>
 8000d90:	e9c5 6300 	strd	r6, r3, [r5]
 8000d94:	e7e3      	b.n	8000d5e <__udivmoddi4+0xa6>
 8000d96:	2a00      	cmp	r2, #0
 8000d98:	f040 8090 	bne.w	8000ebc <__udivmoddi4+0x204>
 8000d9c:	eba1 040c 	sub.w	r4, r1, ip
 8000da0:	ea4f 481c 	mov.w	r8, ip, lsr #16
 8000da4:	fa1f f78c 	uxth.w	r7, ip
 8000da8:	2101      	movs	r1, #1
 8000daa:	fbb4 f6f8 	udiv	r6, r4, r8
 8000dae:	ea4f 431e 	mov.w	r3, lr, lsr #16
 8000db2:	fb08 4416 	mls	r4, r8, r6, r4
 8000db6:	ea43 4304 	orr.w	r3, r3, r4, lsl #16
 8000dba:	fb07 f006 	mul.w	r0, r7, r6
 8000dbe:	4298      	cmp	r0, r3
 8000dc0:	d908      	bls.n	8000dd4 <__udivmoddi4+0x11c>
 8000dc2:	eb1c 0303 	adds.w	r3, ip, r3
 8000dc6:	f106 34ff 	add.w	r4, r6, #4294967295	@ 0xffffffff
 8000dca:	d202      	bcs.n	8000dd2 <__udivmoddi4+0x11a>
 8000dcc:	4298      	cmp	r0, r3
 8000dce:	f200 80cd 	bhi.w	8000f6c <__udivmoddi4+0x2b4>
 8000dd2:	4626      	mov	r6, r4
 8000dd4:	1a1c      	subs	r4, r3, r0
 8000dd6:	fa1f f38e 	uxth.w	r3, lr
 8000dda:	fbb4 f0f8 	udiv	r0, r4, r8
 8000dde:	fb08 4410 	mls	r4, r8, r0, r4
 8000de2:	ea43 4304 	orr.w	r3, r3, r4, lsl #16
 8000de6:	fb00 f707 	mul.w	r7, r0, r7
 8000dea:	429f      	cmp	r7, r3
 8000dec:	d908      	bls.n	8000e00 <__udivmoddi4+0x148>
 8000dee:	eb1c 0303 	adds.w	r3, ip, r3
 8000df2:	f100 34ff 	add.w	r4, r0, #4294967295	@ 0xffffffff
 8000df6:	d202      	bcs.n	8000dfe <__udivmoddi4+0x146>
 8000df8:	429f      	cmp	r7, r3
 8000dfa:	f200 80b0 	bhi.w	8000f5e <__udivmoddi4+0x2a6>
 8000dfe:	4620      	mov	r0, r4
 8000e00:	1bdb      	subs	r3, r3, r7
 8000e02:	ea40 4006 	orr.w	r0, r0, r6, lsl #16
 8000e06:	e7a5      	b.n	8000d54 <__udivmoddi4+0x9c>
 8000e08:	f1c1 0620 	rsb	r6, r1, #32
 8000e0c:	408b      	lsls	r3, r1
 8000e0e:	fa22 f706 	lsr.w	r7, r2, r6
 8000e12:	431f      	orrs	r7, r3
 8000e14:	fa20 fc06 	lsr.w	ip, r0, r6
 8000e18:	fa04 f301 	lsl.w	r3, r4, r1
 8000e1c:	ea43 030c 	orr.w	r3, r3, ip
 8000e20:	40f4      	lsrs	r4, r6
 8000e22:	fa00 f801 	lsl.w	r8, r0, r1
 8000e26:	0c38      	lsrs	r0, r7, #16
 8000e28:	ea4f 4913 	mov.w	r9, r3, lsr #16
 8000e2c:	fbb4 fef0 	udiv	lr, r4, r0
 8000e30:	fa1f fc87 	uxth.w	ip, r7
 8000e34:	fb00 441e 	mls	r4, r0, lr, r4
 8000e38:	ea49 4404 	orr.w	r4, r9, r4, lsl #16
 8000e3c:	fb0e f90c 	mul.w	r9, lr, ip
 8000e40:	45a1      	cmp	r9, r4
 8000e42:	fa02 f201 	lsl.w	r2, r2, r1
 8000e46:	d90a      	bls.n	8000e5e <__udivmoddi4+0x1a6>
 8000e48:	193c      	adds	r4, r7, r4
 8000e4a:	f10e 3aff 	add.w	sl, lr, #4294967295	@ 0xffffffff
 8000e4e:	f080 8084 	bcs.w	8000f5a <__udivmoddi4+0x2a2>
 8000e52:	45a1      	cmp	r9, r4
 8000e54:	f240 8081 	bls.w	8000f5a <__udivmoddi4+0x2a2>
 8000e58:	f1ae 0e02 	sub.w	lr, lr, #2
 8000e5c:	443c      	add	r4, r7
 8000e5e:	eba4 0409 	sub.w	r4, r4, r9
 8000e62:	fa1f f983 	uxth.w	r9, r3
 8000e66:	fbb4 f3f0 	udiv	r3, r4, r0
 8000e6a:	fb00 4413 	mls	r4, r0, r3, r4
 8000e6e:	ea49 4404 	orr.w	r4, r9, r4, lsl #16
 8000e72:	fb03 fc0c 	mul.w	ip, r3, ip
 8000e76:	45a4      	cmp	ip, r4
 8000e78:	d907      	bls.n	8000e8a <__udivmoddi4+0x1d2>
 8000e7a:	193c      	adds	r4, r7, r4
 8000e7c:	f103 30ff 	add.w	r0, r3, #4294967295	@ 0xffffffff
 8000e80:	d267      	bcs.n	8000f52 <__udivmoddi4+0x29a>
 8000e82:	45a4      	cmp	ip, r4
 8000e84:	d965      	bls.n	8000f52 <__udivmoddi4+0x29a>
 8000e86:	3b02      	subs	r3, #2
 8000e88:	443c      	add	r4, r7
 8000e8a:	ea43 400e 	orr.w	r0, r3, lr, lsl #16
 8000e8e:	fba0 9302 	umull	r9, r3, r0, r2
 8000e92:	eba4 040c 	sub.w	r4, r4, ip
 8000e96:	429c      	cmp	r4, r3
 8000e98:	46ce      	mov	lr, r9
 8000e9a:	469c      	mov	ip, r3
 8000e9c:	d351      	bcc.n	8000f42 <__udivmoddi4+0x28a>
 8000e9e:	d04e      	beq.n	8000f3e <__udivmoddi4+0x286>
 8000ea0:	b155      	cbz	r5, 8000eb8 <__udivmoddi4+0x200>
 8000ea2:	ebb8 030e 	subs.w	r3, r8, lr
 8000ea6:	eb64 040c 	sbc.w	r4, r4, ip
 8000eaa:	fa04 f606 	lsl.w	r6, r4, r6
 8000eae:	40cb      	lsrs	r3, r1
 8000eb0:	431e      	orrs	r6, r3
 8000eb2:	40cc      	lsrs	r4, r1
 8000eb4:	e9c5 6400 	strd	r6, r4, [r5]
 8000eb8:	2100      	movs	r1, #0
 8000eba:	e750      	b.n	8000d5e <__udivmoddi4+0xa6>
 8000ebc:	f1c2 0320 	rsb	r3, r2, #32
 8000ec0:	fa20 f103 	lsr.w	r1, r0, r3
 8000ec4:	fa0c fc02 	lsl.w	ip, ip, r2
 8000ec8:	fa24 f303 	lsr.w	r3, r4, r3
 8000ecc:	4094      	lsls	r4, r2
 8000ece:	430c      	orrs	r4, r1
 8000ed0:	ea4f 481c 	mov.w	r8, ip, lsr #16
 8000ed4:	fa00 fe02 	lsl.w	lr, r0, r2
 8000ed8:	fa1f f78c 	uxth.w	r7, ip
 8000edc:	fbb3 f0f8 	udiv	r0, r3, r8
 8000ee0:	fb08 3110 	mls	r1, r8, r0, r3
 8000ee4:	0c23      	lsrs	r3, r4, #16
 8000ee6:	ea43 4301 	orr.w	r3, r3, r1, lsl #16
 8000eea:	fb00 f107 	mul.w	r1, r0, r7
 8000eee:	4299      	cmp	r1, r3
 8000ef0:	d908      	bls.n	8000f04 <__udivmoddi4+0x24c>
 8000ef2:	eb1c 0303 	adds.w	r3, ip, r3
 8000ef6:	f100 36ff 	add.w	r6, r0, #4294967295	@ 0xffffffff
 8000efa:	d22c      	bcs.n	8000f56 <__udivmoddi4+0x29e>
 8000efc:	4299      	cmp	r1, r3
 8000efe:	d92a      	bls.n	8000f56 <__udivmoddi4+0x29e>
 8000f00:	3802      	subs	r0, #2
 8000f02:	4463      	add	r3, ip
 8000f04:	1a5b      	subs	r3, r3, r1
 8000f06:	b2a4      	uxth	r4, r4
 8000f08:	fbb3 f1f8 	udiv	r1, r3, r8
 8000f0c:	fb08 3311 	mls	r3, r8, r1, r3
 8000f10:	ea44 4403 	orr.w	r4, r4, r3, lsl #16
 8000f14:	fb01 f307 	mul.w	r3, r1, r7
 8000f18:	42a3      	cmp	r3, r4
 8000f1a:	d908      	bls.n	8000f2e <__udivmoddi4+0x276>
 8000f1c:	eb1c 0404 	adds.w	r4, ip, r4
 8000f20:	f101 36ff 	add.w	r6, r1, #4294967295	@ 0xffffffff
 8000f24:	d213      	bcs.n	8000f4e <__udivmoddi4+0x296>
 8000f26:	42a3      	cmp	r3, r4
 8000f28:	d911      	bls.n	8000f4e <__udivmoddi4+0x296>
 8000f2a:	3902      	subs	r1, #2
 8000f2c:	4464      	add	r4, ip
 8000f2e:	1ae4      	subs	r4, r4, r3
 8000f30:	ea41 4100 	orr.w	r1, r1, r0, lsl #16
 8000f34:	e739      	b.n	8000daa <__udivmoddi4+0xf2>
 8000f36:	4604      	mov	r4, r0
 8000f38:	e6f0      	b.n	8000d1c <__udivmoddi4+0x64>
 8000f3a:	4608      	mov	r0, r1
 8000f3c:	e706      	b.n	8000d4c <__udivmoddi4+0x94>
 8000f3e:	45c8      	cmp	r8, r9
 8000f40:	d2ae      	bcs.n	8000ea0 <__udivmoddi4+0x1e8>
 8000f42:	ebb9 0e02 	subs.w	lr, r9, r2
 8000f46:	eb63 0c07 	sbc.w	ip, r3, r7
 8000f4a:	3801      	subs	r0, #1
 8000f4c:	e7a8      	b.n	8000ea0 <__udivmoddi4+0x1e8>
 8000f4e:	4631      	mov	r1, r6
 8000f50:	e7ed      	b.n	8000f2e <__udivmoddi4+0x276>
 8000f52:	4603      	mov	r3, r0
 8000f54:	e799      	b.n	8000e8a <__udivmoddi4+0x1d2>
 8000f56:	4630      	mov	r0, r6
 8000f58:	e7d4      	b.n	8000f04 <__udivmoddi4+0x24c>
 8000f5a:	46d6      	mov	lr, sl
 8000f5c:	e77f      	b.n	8000e5e <__udivmoddi4+0x1a6>
 8000f5e:	4463      	add	r3, ip
 8000f60:	3802      	subs	r0, #2
 8000f62:	e74d      	b.n	8000e00 <__udivmoddi4+0x148>
 8000f64:	4606      	mov	r6, r0
 8000f66:	4623      	mov	r3, r4
 8000f68:	4608      	mov	r0, r1
 8000f6a:	e70f      	b.n	8000d8c <__udivmoddi4+0xd4>
 8000f6c:	3e02      	subs	r6, #2
 8000f6e:	4463      	add	r3, ip
 8000f70:	e730      	b.n	8000dd4 <__udivmoddi4+0x11c>
 8000f72:	bf00      	nop

08000f74 <__aeabi_idiv0>:
 8000f74:	4770      	bx	lr
 8000f76:	bf00      	nop

08000f78 <FEB_CAN_BMS_Filter_Config>:



// ***** CAN FUNCTIONS ****

uint8_t FEB_CAN_BMS_Filter_Config(CAN_HandleTypeDef* hcan, uint8_t FIFO_assignment, uint8_t filter_bank) {
 8000f78:	b580      	push	{r7, lr}
 8000f7a:	b08e      	sub	sp, #56	@ 0x38
 8000f7c:	af00      	add	r7, sp, #0
 8000f7e:	6078      	str	r0, [r7, #4]
 8000f80:	460b      	mov	r3, r1
 8000f82:	70fb      	strb	r3, [r7, #3]
 8000f84:	4613      	mov	r3, r2
 8000f86:	70bb      	strb	r3, [r7, #2]
	uint16_t ids[] = {FEB_CAN_ID_BMS_STATE,FEB_CAN_ID_BMS_TEMPERATURE};
 8000f88:	2303      	movs	r3, #3
 8000f8a:	863b      	strh	r3, [r7, #48]	@ 0x30
 8000f8c:	2300      	movs	r3, #0
 8000f8e:	867b      	strh	r3, [r7, #50]	@ 0x32

	for (uint8_t i = 0; i < 1; i++) {
 8000f90:	2300      	movs	r3, #0
 8000f92:	f887 3037 	strb.w	r3, [r7, #55]	@ 0x37
 8000f96:	e029      	b.n	8000fec <FEB_CAN_BMS_Filter_Config+0x74>
		CAN_FilterTypeDef filter_config;

	    // Standard CAN - 2.0A - 11 bit
	    filter_config.FilterActivation = CAN_FILTER_ENABLE;
 8000f98:	2301      	movs	r3, #1
 8000f9a:	62bb      	str	r3, [r7, #40]	@ 0x28
		filter_config.FilterBank = filter_bank;
 8000f9c:	78bb      	ldrb	r3, [r7, #2]
 8000f9e:	61fb      	str	r3, [r7, #28]
		filter_config.FilterFIFOAssignment = FIFO_assignment;
 8000fa0:	78fb      	ldrb	r3, [r7, #3]
 8000fa2:	61bb      	str	r3, [r7, #24]
		filter_config.FilterIdHigh = ids[i] << 5;
 8000fa4:	f897 3037 	ldrb.w	r3, [r7, #55]	@ 0x37
 8000fa8:	005b      	lsls	r3, r3, #1
 8000faa:	3338      	adds	r3, #56	@ 0x38
 8000fac:	443b      	add	r3, r7
 8000fae:	f833 3c08 	ldrh.w	r3, [r3, #-8]
 8000fb2:	015b      	lsls	r3, r3, #5
 8000fb4:	60bb      	str	r3, [r7, #8]
		filter_config.FilterIdLow = 0;
 8000fb6:	2300      	movs	r3, #0
 8000fb8:	60fb      	str	r3, [r7, #12]
		filter_config.FilterMaskIdHigh = 0xFFE0;
 8000fba:	f64f 73e0 	movw	r3, #65504	@ 0xffe0
 8000fbe:	613b      	str	r3, [r7, #16]
		filter_config.FilterMaskIdLow = 0;
 8000fc0:	2300      	movs	r3, #0
 8000fc2:	617b      	str	r3, [r7, #20]
		filter_config.FilterMode = CAN_FILTERMODE_IDMASK;
 8000fc4:	2300      	movs	r3, #0
 8000fc6:	623b      	str	r3, [r7, #32]
		filter_config.FilterScale = CAN_FILTERSCALE_32BIT;
 8000fc8:	2301      	movs	r3, #1
 8000fca:	627b      	str	r3, [r7, #36]	@ 0x24
		filter_config.SlaveStartFilterBank = 27;
 8000fcc:	231b      	movs	r3, #27
 8000fce:	62fb      	str	r3, [r7, #44]	@ 0x2c
	    filter_bank++;
 8000fd0:	78bb      	ldrb	r3, [r7, #2]
 8000fd2:	3301      	adds	r3, #1
 8000fd4:	70bb      	strb	r3, [r7, #2]

		if (HAL_CAN_ConfigFilter(hcan, &filter_config) != HAL_OK) {
 8000fd6:	f107 0308 	add.w	r3, r7, #8
 8000fda:	4619      	mov	r1, r3
 8000fdc:	6878      	ldr	r0, [r7, #4]
 8000fde:	f002 f981 	bl	80032e4 <HAL_CAN_ConfigFilter>
	for (uint8_t i = 0; i < 1; i++) {
 8000fe2:	f897 3037 	ldrb.w	r3, [r7, #55]	@ 0x37
 8000fe6:	3301      	adds	r3, #1
 8000fe8:	f887 3037 	strb.w	r3, [r7, #55]	@ 0x37
 8000fec:	f897 3037 	ldrb.w	r3, [r7, #55]	@ 0x37
 8000ff0:	2b00      	cmp	r3, #0
 8000ff2:	d0d1      	beq.n	8000f98 <FEB_CAN_BMS_Filter_Config+0x20>
			//Code Error - shutdown
		}
	}

	return filter_bank;
 8000ff4:	78bb      	ldrb	r3, [r7, #2]
}
 8000ff6:	4618      	mov	r0, r3
 8000ff8:	3738      	adds	r7, #56	@ 0x38
 8000ffa:	46bd      	mov	sp, r7
 8000ffc:	bd80      	pop	{r7, pc}
	...

08001000 <FEB_CAN_BMS_Store_Msg>:

void FEB_CAN_BMS_Store_Msg(CAN_RxHeaderTypeDef* pHeader, uint8_t *RxData) {
 8001000:	b480      	push	{r7}
 8001002:	b083      	sub	sp, #12
 8001004:	af00      	add	r7, sp, #0
 8001006:	6078      	str	r0, [r7, #4]
 8001008:	6039      	str	r1, [r7, #0]
    switch (pHeader -> StdId){
 800100a:	687b      	ldr	r3, [r7, #4]
 800100c:	681b      	ldr	r3, [r3, #0]
 800100e:	2b00      	cmp	r3, #0
 8001010:	d002      	beq.n	8001018 <FEB_CAN_BMS_Store_Msg+0x18>
 8001012:	2b03      	cmp	r3, #3
 8001014:	d00f      	beq.n	8001036 <FEB_CAN_BMS_Store_Msg+0x36>

        case FEB_CAN_ID_BMS_STATE:
            BMS_MESSAGE.status = RxData[0];
            break;
    }
}
 8001016:	e013      	b.n	8001040 <FEB_CAN_BMS_Store_Msg+0x40>
        	BMS_MESSAGE.temp = RxData[2] << 8 | RxData[3];
 8001018:	683b      	ldr	r3, [r7, #0]
 800101a:	3302      	adds	r3, #2
 800101c:	781b      	ldrb	r3, [r3, #0]
 800101e:	021b      	lsls	r3, r3, #8
 8001020:	b21a      	sxth	r2, r3
 8001022:	683b      	ldr	r3, [r7, #0]
 8001024:	3303      	adds	r3, #3
 8001026:	781b      	ldrb	r3, [r3, #0]
 8001028:	b21b      	sxth	r3, r3
 800102a:	4313      	orrs	r3, r2
 800102c:	b21b      	sxth	r3, r3
 800102e:	b29a      	uxth	r2, r3
 8001030:	4b06      	ldr	r3, [pc, #24]	@ (800104c <FEB_CAN_BMS_Store_Msg+0x4c>)
 8001032:	801a      	strh	r2, [r3, #0]
            break;
 8001034:	e004      	b.n	8001040 <FEB_CAN_BMS_Store_Msg+0x40>
            BMS_MESSAGE.status = RxData[0];
 8001036:	683b      	ldr	r3, [r7, #0]
 8001038:	781a      	ldrb	r2, [r3, #0]
 800103a:	4b04      	ldr	r3, [pc, #16]	@ (800104c <FEB_CAN_BMS_Store_Msg+0x4c>)
 800103c:	709a      	strb	r2, [r3, #2]
            break;
 800103e:	bf00      	nop
}
 8001040:	bf00      	nop
 8001042:	370c      	adds	r7, #12
 8001044:	46bd      	mov	sp, r7
 8001046:	f85d 7b04 	ldr.w	r7, [sp], #4
 800104a:	4770      	bx	lr
 800104c:	200001f0 	.word	0x200001f0

08001050 <FEB_CAN_BMS_getState>:

FEB_SM_ST_t FEB_CAN_BMS_getState(){
 8001050:	b480      	push	{r7}
 8001052:	af00      	add	r7, sp, #0
	return BMS_MESSAGE.status;
 8001054:	4b03      	ldr	r3, [pc, #12]	@ (8001064 <FEB_CAN_BMS_getState+0x14>)
 8001056:	789b      	ldrb	r3, [r3, #2]

}
 8001058:	4618      	mov	r0, r3
 800105a:	46bd      	mov	sp, r7
 800105c:	f85d 7b04 	ldr.w	r7, [sp], #4
 8001060:	4770      	bx	lr
 8001062:	bf00      	nop
 8001064:	200001f0 	.word	0x200001f0

08001068 <FEB_CAN_ICS_Filter>:
static bool previous_button_state = false;
static bool READY_TO_DRIVE = false;

// **************************************** Functions ****************************************

uint8_t FEB_CAN_ICS_Filter(CAN_HandleTypeDef* hcan, uint8_t FIFO_assignment, uint8_t filter_bank) {
 8001068:	b580      	push	{r7, lr}
 800106a:	b08e      	sub	sp, #56	@ 0x38
 800106c:	af00      	add	r7, sp, #0
 800106e:	6078      	str	r0, [r7, #4]
 8001070:	460b      	mov	r3, r1
 8001072:	70fb      	strb	r3, [r7, #3]
 8001074:	4613      	mov	r3, r2
 8001076:	70bb      	strb	r3, [r7, #2]
    // For multiple filters, create array of filter IDs and loop over IDs.

	uint16_t ids[] = {FEB_CAN_ID_ICS_BUTTON_STATE};
 8001078:	2307      	movs	r3, #7
 800107a:	86bb      	strh	r3, [r7, #52]	@ 0x34

	for (uint8_t i = 0; i < 1; i++) {
 800107c:	2300      	movs	r3, #0
 800107e:	f887 3037 	strb.w	r3, [r7, #55]	@ 0x37
 8001082:	e029      	b.n	80010d8 <FEB_CAN_ICS_Filter+0x70>
		CAN_FilterTypeDef filter_config;

	    // Standard CAN - 2.0A - 11 bit
	    filter_config.FilterActivation = CAN_FILTER_ENABLE;
 8001084:	2301      	movs	r3, #1
 8001086:	62fb      	str	r3, [r7, #44]	@ 0x2c
		filter_config.FilterBank = filter_bank;
 8001088:	78bb      	ldrb	r3, [r7, #2]
 800108a:	623b      	str	r3, [r7, #32]
		filter_config.FilterFIFOAssignment = FIFO_assignment;
 800108c:	78fb      	ldrb	r3, [r7, #3]
 800108e:	61fb      	str	r3, [r7, #28]
		filter_config.FilterIdHigh = ids[i] << 5;
 8001090:	f897 3037 	ldrb.w	r3, [r7, #55]	@ 0x37
 8001094:	005b      	lsls	r3, r3, #1
 8001096:	3338      	adds	r3, #56	@ 0x38
 8001098:	443b      	add	r3, r7
 800109a:	f833 3c04 	ldrh.w	r3, [r3, #-4]
 800109e:	015b      	lsls	r3, r3, #5
 80010a0:	60fb      	str	r3, [r7, #12]
		filter_config.FilterIdLow = 0;
 80010a2:	2300      	movs	r3, #0
 80010a4:	613b      	str	r3, [r7, #16]
		filter_config.FilterMaskIdHigh = 0xFFE0;
 80010a6:	f64f 73e0 	movw	r3, #65504	@ 0xffe0
 80010aa:	617b      	str	r3, [r7, #20]
		filter_config.FilterMaskIdLow = 0;
 80010ac:	2300      	movs	r3, #0
 80010ae:	61bb      	str	r3, [r7, #24]
		filter_config.FilterMode = CAN_FILTERMODE_IDMASK;
 80010b0:	2300      	movs	r3, #0
 80010b2:	627b      	str	r3, [r7, #36]	@ 0x24
		filter_config.FilterScale = CAN_FILTERSCALE_32BIT;
 80010b4:	2301      	movs	r3, #1
 80010b6:	62bb      	str	r3, [r7, #40]	@ 0x28
		filter_config.SlaveStartFilterBank = 27;
 80010b8:	231b      	movs	r3, #27
 80010ba:	633b      	str	r3, [r7, #48]	@ 0x30
	    filter_bank++;
 80010bc:	78bb      	ldrb	r3, [r7, #2]
 80010be:	3301      	adds	r3, #1
 80010c0:	70bb      	strb	r3, [r7, #2]

		if (HAL_CAN_ConfigFilter(hcan, &filter_config) != HAL_OK) {
 80010c2:	f107 030c 	add.w	r3, r7, #12
 80010c6:	4619      	mov	r1, r3
 80010c8:	6878      	ldr	r0, [r7, #4]
 80010ca:	f002 f90b 	bl	80032e4 <HAL_CAN_ConfigFilter>
	for (uint8_t i = 0; i < 1; i++) {
 80010ce:	f897 3037 	ldrb.w	r3, [r7, #55]	@ 0x37
 80010d2:	3301      	adds	r3, #1
 80010d4:	f887 3037 	strb.w	r3, [r7, #55]	@ 0x37
 80010d8:	f897 3037 	ldrb.w	r3, [r7, #55]	@ 0x37
 80010dc:	2b00      	cmp	r3, #0
 80010de:	d0d1      	beq.n	8001084 <FEB_CAN_ICS_Filter+0x1c>
			// Shutdown
		}
	}

	return filter_bank;
 80010e0:	78bb      	ldrb	r3, [r7, #2]
}
 80010e2:	4618      	mov	r0, r3
 80010e4:	3738      	adds	r7, #56	@ 0x38
 80010e6:	46bd      	mov	sp, r7
 80010e8:	bd80      	pop	{r7, pc}
	...

080010ec <FEB_CAN_ICS_Store_Msg>:

void FEB_CAN_ICS_Store_Msg(CAN_RxHeaderTypeDef *rx_header, uint8_t rx_data[]) {
 80010ec:	b480      	push	{r7}
 80010ee:	b085      	sub	sp, #20
 80010f0:	af00      	add	r7, sp, #0
 80010f2:	6078      	str	r0, [r7, #4]
 80010f4:	6039      	str	r1, [r7, #0]
	switch(rx_header->StdId) {
 80010f6:	687b      	ldr	r3, [r7, #4]
 80010f8:	681b      	ldr	r3, [r3, #0]
 80010fa:	2b07      	cmp	r3, #7
 80010fc:	d133      	bne.n	8001166 <FEB_CAN_ICS_Store_Msg+0x7a>
		case FEB_CAN_ID_ICS_BUTTON_STATE:
//				READY_TO_DRIVE = ((rx_data[0] | 0b11111101) == 0b11111111);
//				break;

			bool current_button_state = ((rx_data[0] | 0b11111101) == 0b11111111);
 80010fe:	683b      	ldr	r3, [r7, #0]
 8001100:	781b      	ldrb	r3, [r3, #0]
 8001102:	f063 0302 	orn	r3, r3, #2
 8001106:	b2db      	uxtb	r3, r3
 8001108:	2bff      	cmp	r3, #255	@ 0xff
 800110a:	bf0c      	ite	eq
 800110c:	2301      	moveq	r3, #1
 800110e:	2300      	movne	r3, #0
 8001110:	73fb      	strb	r3, [r7, #15]


			if (READY_TO_DRIVE && !previous_button_state && current_button_state) {
 8001112:	4b18      	ldr	r3, [pc, #96]	@ (8001174 <FEB_CAN_ICS_Store_Msg+0x88>)
 8001114:	781b      	ldrb	r3, [r3, #0]
 8001116:	2b00      	cmp	r3, #0
 8001118:	d00d      	beq.n	8001136 <FEB_CAN_ICS_Store_Msg+0x4a>
 800111a:	4b17      	ldr	r3, [pc, #92]	@ (8001178 <FEB_CAN_ICS_Store_Msg+0x8c>)
 800111c:	781b      	ldrb	r3, [r3, #0]
 800111e:	f083 0301 	eor.w	r3, r3, #1
 8001122:	b2db      	uxtb	r3, r3
 8001124:	2b00      	cmp	r3, #0
 8001126:	d006      	beq.n	8001136 <FEB_CAN_ICS_Store_Msg+0x4a>
 8001128:	7bfb      	ldrb	r3, [r7, #15]
 800112a:	2b00      	cmp	r3, #0
 800112c:	d003      	beq.n	8001136 <FEB_CAN_ICS_Store_Msg+0x4a>
				READY_TO_DRIVE = false;  // return to energized state
 800112e:	4b11      	ldr	r3, [pc, #68]	@ (8001174 <FEB_CAN_ICS_Store_Msg+0x88>)
 8001130:	2200      	movs	r2, #0
 8001132:	701a      	strb	r2, [r3, #0]
 8001134:	e013      	b.n	800115e <FEB_CAN_ICS_Store_Msg+0x72>
			}

			else if (!READY_TO_DRIVE && !previous_button_state && current_button_state) {
 8001136:	4b0f      	ldr	r3, [pc, #60]	@ (8001174 <FEB_CAN_ICS_Store_Msg+0x88>)
 8001138:	781b      	ldrb	r3, [r3, #0]
 800113a:	f083 0301 	eor.w	r3, r3, #1
 800113e:	b2db      	uxtb	r3, r3
 8001140:	2b00      	cmp	r3, #0
 8001142:	d00c      	beq.n	800115e <FEB_CAN_ICS_Store_Msg+0x72>
 8001144:	4b0c      	ldr	r3, [pc, #48]	@ (8001178 <FEB_CAN_ICS_Store_Msg+0x8c>)
 8001146:	781b      	ldrb	r3, [r3, #0]
 8001148:	f083 0301 	eor.w	r3, r3, #1
 800114c:	b2db      	uxtb	r3, r3
 800114e:	2b00      	cmp	r3, #0
 8001150:	d005      	beq.n	800115e <FEB_CAN_ICS_Store_Msg+0x72>
 8001152:	7bfb      	ldrb	r3, [r7, #15]
 8001154:	2b00      	cmp	r3, #0
 8001156:	d002      	beq.n	800115e <FEB_CAN_ICS_Store_Msg+0x72>
				READY_TO_DRIVE = true;   // enter ready to drive state
 8001158:	4b06      	ldr	r3, [pc, #24]	@ (8001174 <FEB_CAN_ICS_Store_Msg+0x88>)
 800115a:	2201      	movs	r2, #1
 800115c:	701a      	strb	r2, [r3, #0]
			}

			previous_button_state = current_button_state;
 800115e:	4a06      	ldr	r2, [pc, #24]	@ (8001178 <FEB_CAN_ICS_Store_Msg+0x8c>)
 8001160:	7bfb      	ldrb	r3, [r7, #15]
 8001162:	7013      	strb	r3, [r2, #0]
			break;
 8001164:	bf00      	nop
	}
}
 8001166:	bf00      	nop
 8001168:	3714      	adds	r7, #20
 800116a:	46bd      	mov	sp, r7
 800116c:	f85d 7b04 	ldr.w	r7, [sp], #4
 8001170:	4770      	bx	lr
 8001172:	bf00      	nop
 8001174:	200001f5 	.word	0x200001f5
 8001178:	200001f4 	.word	0x200001f4

0800117c <FEB_Ready_To_Drive>:

bool FEB_Ready_To_Drive() {
 800117c:	b480      	push	{r7}
 800117e:	af00      	add	r7, sp, #0
	return READY_TO_DRIVE;
 8001180:	4b03      	ldr	r3, [pc, #12]	@ (8001190 <FEB_Ready_To_Drive+0x14>)
 8001182:	781b      	ldrb	r3, [r3, #0]
}
 8001184:	4618      	mov	r0, r3
 8001186:	46bd      	mov	sp, r7
 8001188:	f85d 7b04 	ldr.w	r7, [sp], #4
 800118c:	4770      	bx	lr
 800118e:	bf00      	nop
 8001190:	200001f5 	.word	0x200001f5

08001194 <FEB_CAN_RMS_Setup>:

// ********************************** Functions **********************************

// ***** SET UP ****

void FEB_CAN_RMS_Setup(void){
 8001194:	b480      	push	{r7}
 8001196:	af00      	add	r7, sp, #0
	 RMSControl.enabled = 0;
 8001198:	4b05      	ldr	r3, [pc, #20]	@ (80011b0 <FEB_CAN_RMS_Setup+0x1c>)
 800119a:	2200      	movs	r2, #0
 800119c:	709a      	strb	r2, [r3, #2]
	 RMSControl.torque= 0.0;
 800119e:	4b04      	ldr	r3, [pc, #16]	@ (80011b0 <FEB_CAN_RMS_Setup+0x1c>)
 80011a0:	2200      	movs	r2, #0
 80011a2:	801a      	strh	r2, [r3, #0]
}
 80011a4:	bf00      	nop
 80011a6:	46bd      	mov	sp, r7
 80011a8:	f85d 7b04 	ldr.w	r7, [sp], #4
 80011ac:	4770      	bx	lr
 80011ae:	bf00      	nop
 80011b0:	200001f8 	.word	0x200001f8

080011b4 <FEB_CAN_RMS_Process>:

void FEB_CAN_RMS_Process(void){
 80011b4:	b480      	push	{r7}
 80011b6:	af00      	add	r7, sp, #0
	if (!RMSControl.enabled){
 80011b8:	4b05      	ldr	r3, [pc, #20]	@ (80011d0 <FEB_CAN_RMS_Process+0x1c>)
 80011ba:	789b      	ldrb	r3, [r3, #2]
 80011bc:	2b00      	cmp	r3, #0
 80011be:	d102      	bne.n	80011c6 <FEB_CAN_RMS_Process+0x12>
//		FEB_CAN_RMS_Init();
		RMSControl.enabled = 1;
 80011c0:	4b03      	ldr	r3, [pc, #12]	@ (80011d0 <FEB_CAN_RMS_Process+0x1c>)
 80011c2:	2201      	movs	r2, #1
 80011c4:	709a      	strb	r2, [r3, #2]
	}
}
 80011c6:	bf00      	nop
 80011c8:	46bd      	mov	sp, r7
 80011ca:	f85d 7b04 	ldr.w	r7, [sp], #4
 80011ce:	4770      	bx	lr
 80011d0:	200001f8 	.word	0x200001f8

080011d4 <FEB_CAN_RMS_Disable>:

void FEB_CAN_RMS_Disable(void){
 80011d4:	b480      	push	{r7}
 80011d6:	af00      	add	r7, sp, #0
	RMSControl.enabled = 0;
 80011d8:	4b03      	ldr	r3, [pc, #12]	@ (80011e8 <FEB_CAN_RMS_Disable+0x14>)
 80011da:	2200      	movs	r2, #0
 80011dc:	709a      	strb	r2, [r3, #2]
}
 80011de:	bf00      	nop
 80011e0:	46bd      	mov	sp, r7
 80011e2:	f85d 7b04 	ldr.w	r7, [sp], #4
 80011e6:	4770      	bx	lr
 80011e8:	200001f8 	.word	0x200001f8
 80011ec:	00000000 	.word	0x00000000

080011f0 <FEB_get_peak_current_delimiter>:
// This means we will assume the pack resistance is about 1 Ohm
// Note this will likely be steeper as we approach lower SOC, but these cell dynamics are hopefully
// negligible due to the heavy current limiting and the ohmic losses of the accumulator
// Linear interpolation between (460V, 60/60A) and (410V, 10/60A), where PEAK_CURRENT is 60A
float FEB_get_peak_current_delimiter()
{
 80011f0:	b580      	push	{r7, lr}
 80011f2:	b086      	sub	sp, #24
 80011f4:	af00      	add	r7, sp, #0
	float accumulator_voltage = (RMS_MESSAGE.HV_Bus_Voltage-50.0) / 10.0;
 80011f6:	4b38      	ldr	r3, [pc, #224]	@ (80012d8 <FEB_get_peak_current_delimiter+0xe8>)
 80011f8:	f9b3 3000 	ldrsh.w	r3, [r3]
 80011fc:	4618      	mov	r0, r3
 80011fe:	f7ff f9b1 	bl	8000564 <__aeabi_i2d>
 8001202:	f04f 0200 	mov.w	r2, #0
 8001206:	4b35      	ldr	r3, [pc, #212]	@ (80012dc <FEB_get_peak_current_delimiter+0xec>)
 8001208:	f7ff f85e 	bl	80002c8 <__aeabi_dsub>
 800120c:	4602      	mov	r2, r0
 800120e:	460b      	mov	r3, r1
 8001210:	4610      	mov	r0, r2
 8001212:	4619      	mov	r1, r3
 8001214:	f04f 0200 	mov.w	r2, #0
 8001218:	4b31      	ldr	r3, [pc, #196]	@ (80012e0 <FEB_get_peak_current_delimiter+0xf0>)
 800121a:	f7ff fb37 	bl	800088c <__aeabi_ddiv>
 800121e:	4602      	mov	r2, r0
 8001220:	460b      	mov	r3, r1
 8001222:	4610      	mov	r0, r2
 8001224:	4619      	mov	r1, r3
 8001226:	f7ff fcdf 	bl	8000be8 <__aeabi_d2f>
 800122a:	4603      	mov	r3, r0
 800122c:	617b      	str	r3, [r7, #20]
	float estimated_voltage_drop_at_peak = PEAK_CURRENT;
 800122e:	4b2d      	ldr	r3, [pc, #180]	@ (80012e4 <FEB_get_peak_current_delimiter+0xf4>)
 8001230:	613b      	str	r3, [r7, #16]
	float start_derating_voltage = 400.0 + PEAK_CURRENT; // Assume R_acc = 1ohm
 8001232:	4b2d      	ldr	r3, [pc, #180]	@ (80012e8 <FEB_get_peak_current_delimiter+0xf8>)
 8001234:	60fb      	str	r3, [r7, #12]
	// Note: Comments are based on start_derating_voltage = 460V and PEAK_CURRENT = 60

	// Saturate outside of 460 and 410
	if (accumulator_voltage > start_derating_voltage)
 8001236:	ed97 7a05 	vldr	s14, [r7, #20]
 800123a:	edd7 7a03 	vldr	s15, [r7, #12]
 800123e:	eeb4 7ae7 	vcmpe.f32	s14, s15
 8001242:	eef1 fa10 	vmrs	APSR_nzcv, fpscr
 8001246:	dd02      	ble.n	800124e <FEB_get_peak_current_delimiter+0x5e>
	{
		return 1;
 8001248:	f04f 537e 	mov.w	r3, #1065353216	@ 0x3f800000
 800124c:	e034      	b.n	80012b8 <FEB_get_peak_current_delimiter+0xc8>
	}
	if (accumulator_voltage <= 410)
 800124e:	edd7 7a05 	vldr	s15, [r7, #20]
 8001252:	ed9f 7a26 	vldr	s14, [pc, #152]	@ 80012ec <FEB_get_peak_current_delimiter+0xfc>
 8001256:	eef4 7ac7 	vcmpe.f32	s15, s14
 800125a:	eef1 fa10 	vmrs	APSR_nzcv, fpscr
 800125e:	d801      	bhi.n	8001264 <FEB_get_peak_current_delimiter+0x74>
	{
		return (10.0 / PEAK_CURRENT); // limit to only 10A 
 8001260:	4b23      	ldr	r3, [pc, #140]	@ (80012f0 <FEB_get_peak_current_delimiter+0x100>)
 8001262:	e029      	b.n	80012b8 <FEB_get_peak_current_delimiter+0xc8>

	//   x0    y0            x1    y1
	// (460V, 60/60A) and (410V, 10/60A)

	//      m   = (        y_1           -              y_0)              / (x_1 -          x_0)
	float slope = ((10.0 / PEAK_CURRENT) - (PEAK_CURRENT / PEAK_CURRENT)) / (410.0 - (start_derating_voltage));
 8001264:	68f8      	ldr	r0, [r7, #12]
 8001266:	f7ff f98f 	bl	8000588 <__aeabi_f2d>
 800126a:	4602      	mov	r2, r0
 800126c:	460b      	mov	r3, r1
 800126e:	a116      	add	r1, pc, #88	@ (adr r1, 80012c8 <FEB_get_peak_current_delimiter+0xd8>)
 8001270:	e9d1 0100 	ldrd	r0, r1, [r1]
 8001274:	f7ff f828 	bl	80002c8 <__aeabi_dsub>
 8001278:	4602      	mov	r2, r0
 800127a:	460b      	mov	r3, r1
 800127c:	a114      	add	r1, pc, #80	@ (adr r1, 80012d0 <FEB_get_peak_current_delimiter+0xe0>)
 800127e:	e9d1 0100 	ldrd	r0, r1, [r1]
 8001282:	f7ff fb03 	bl	800088c <__aeabi_ddiv>
 8001286:	4602      	mov	r2, r0
 8001288:	460b      	mov	r3, r1
 800128a:	4610      	mov	r0, r2
 800128c:	4619      	mov	r1, r3
 800128e:	f7ff fcab 	bl	8000be8 <__aeabi_d2f>
 8001292:	4603      	mov	r3, r0
 8001294:	60bb      	str	r3, [r7, #8]
	//      y     =   m     (       x            -          x_0          ) + y_0
	float derater = slope * (accumulator_voltage - start_derating_voltage) + 1.0;
 8001296:	ed97 7a05 	vldr	s14, [r7, #20]
 800129a:	edd7 7a03 	vldr	s15, [r7, #12]
 800129e:	ee37 7a67 	vsub.f32	s14, s14, s15
 80012a2:	edd7 7a02 	vldr	s15, [r7, #8]
 80012a6:	ee67 7a27 	vmul.f32	s15, s14, s15
 80012aa:	eeb7 7a00 	vmov.f32	s14, #112	@ 0x3f800000  1.0
 80012ae:	ee77 7a87 	vadd.f32	s15, s15, s14
 80012b2:	edc7 7a01 	vstr	s15, [r7, #4]

	return derater;   
 80012b6:	687b      	ldr	r3, [r7, #4]
}
 80012b8:	ee07 3a90 	vmov	s15, r3
 80012bc:	eeb0 0a67 	vmov.f32	s0, s15
 80012c0:	3718      	adds	r7, #24
 80012c2:	46bd      	mov	sp, r7
 80012c4:	bd80      	pop	{r7, pc}
 80012c6:	bf00      	nop
 80012c8:	00000000 	.word	0x00000000
 80012cc:	4079a000 	.word	0x4079a000
 80012d0:	89d89d8a 	.word	0x89d89d8a
 80012d4:	bfe9d89d 	.word	0xbfe9d89d
 80012d8:	200001fc 	.word	0x200001fc
 80012dc:	40490000 	.word	0x40490000
 80012e0:	40240000 	.word	0x40240000
 80012e4:	42500000 	.word	0x42500000
 80012e8:	43e20000 	.word	0x43e20000
 80012ec:	43cd0000 	.word	0x43cd0000
 80012f0:	3e44ec4f 	.word	0x3e44ec4f
 80012f4:	00000000 	.word	0x00000000

080012f8 <FEB_CAN_RMS_getMaxTorque>:

float FEB_CAN_RMS_getMaxTorque(void){
 80012f8:	b580      	push	{r7, lr}
 80012fa:	b084      	sub	sp, #16
 80012fc:	af00      	add	r7, sp, #0
	// float accumulator_voltage = min(INIT_VOLTAGE, (RMS_MESSAGE.HV_Bus_Voltage-50) / 10); // TODO: consider reading from IVT
	float motor_speed = RMS_MESSAGE.Motor_Speed * RPM_TO_RAD_S;
 80012fe:	4b30      	ldr	r3, [pc, #192]	@ (80013c0 <FEB_CAN_RMS_getMaxTorque+0xc8>)
 8001300:	f9b3 3002 	ldrsh.w	r3, [r3, #2]
 8001304:	4618      	mov	r0, r3
 8001306:	f7ff f92d 	bl	8000564 <__aeabi_i2d>
 800130a:	a32b      	add	r3, pc, #172	@ (adr r3, 80013b8 <FEB_CAN_RMS_getMaxTorque+0xc0>)
 800130c:	e9d3 2300 	ldrd	r2, r3, [r3]
 8001310:	f7ff f992 	bl	8000638 <__aeabi_dmul>
 8001314:	4602      	mov	r2, r0
 8001316:	460b      	mov	r3, r1
 8001318:	4610      	mov	r0, r2
 800131a:	4619      	mov	r1, r3
 800131c:	f7ff fc64 	bl	8000be8 <__aeabi_d2f>
 8001320:	4603      	mov	r3, r0
 8001322:	60fb      	str	r3, [r7, #12]
	float peak_current_limited = PEAK_CURRENT * FEB_get_peak_current_delimiter();
 8001324:	f7ff ff64 	bl	80011f0 <FEB_get_peak_current_delimiter>
 8001328:	ee10 3a10 	vmov	r3, s0
 800132c:	4618      	mov	r0, r3
 800132e:	f7ff f92b 	bl	8000588 <__aeabi_f2d>
 8001332:	f04f 0200 	mov.w	r2, #0
 8001336:	4b23      	ldr	r3, [pc, #140]	@ (80013c4 <FEB_CAN_RMS_getMaxTorque+0xcc>)
 8001338:	f7ff f97e 	bl	8000638 <__aeabi_dmul>
 800133c:	4602      	mov	r2, r0
 800133e:	460b      	mov	r3, r1
 8001340:	4610      	mov	r0, r2
 8001342:	4619      	mov	r1, r3
 8001344:	f7ff fc50 	bl	8000be8 <__aeabi_d2f>
 8001348:	4603      	mov	r3, r0
 800134a:	60bb      	str	r3, [r7, #8]
	float power_capped = peak_current_limited * 400.0; // Cap power to 24kW (i.e. our min voltage)
 800134c:	edd7 7a02 	vldr	s15, [r7, #8]
 8001350:	ed9f 7a1d 	vldr	s14, [pc, #116]	@ 80013c8 <FEB_CAN_RMS_getMaxTorque+0xd0>
 8001354:	ee67 7a87 	vmul.f32	s15, s15, s14
 8001358:	edc7 7a01 	vstr	s15, [r7, #4]
 	// If speed is less than 15, we should command max torque
  	// This catches divide by 0 errors and also negative speeds (which may create very high negative torque values)
	if (motor_speed < 15) {
 800135c:	edd7 7a03 	vldr	s15, [r7, #12]
 8001360:	eeb2 7a0e 	vmov.f32	s14, #46	@ 0x41700000  15.0
 8001364:	eef4 7ac7 	vcmpe.f32	s15, s14
 8001368:	eef1 fa10 	vmrs	APSR_nzcv, fpscr
 800136c:	d501      	bpl.n	8001372 <FEB_CAN_RMS_getMaxTorque+0x7a>
		return MAX_TORQUE;
 800136e:	4b17      	ldr	r3, [pc, #92]	@ (80013cc <FEB_CAN_RMS_getMaxTorque+0xd4>)
 8001370:	e018      	b.n	80013a4 <FEB_CAN_RMS_getMaxTorque+0xac>
	}
	float maxTorque = min(MAX_TORQUE, (power_capped) / motor_speed);
 8001372:	edd7 6a01 	vldr	s13, [r7, #4]
 8001376:	ed97 7a03 	vldr	s14, [r7, #12]
 800137a:	eec6 7a87 	vdiv.f32	s15, s13, s14
 800137e:	ed9f 7a14 	vldr	s14, [pc, #80]	@ 80013d0 <FEB_CAN_RMS_getMaxTorque+0xd8>
 8001382:	eef4 7ac7 	vcmpe.f32	s15, s14
 8001386:	eef1 fa10 	vmrs	APSR_nzcv, fpscr
 800138a:	dd02      	ble.n	8001392 <FEB_CAN_RMS_getMaxTorque+0x9a>
 800138c:	eddf 7a10 	vldr	s15, [pc, #64]	@ 80013d0 <FEB_CAN_RMS_getMaxTorque+0xd8>
 8001390:	e005      	b.n	800139e <FEB_CAN_RMS_getMaxTorque+0xa6>
 8001392:	edd7 6a01 	vldr	s13, [r7, #4]
 8001396:	ed97 7a03 	vldr	s14, [r7, #12]
 800139a:	eec6 7a87 	vdiv.f32	s15, s13, s14
 800139e:	edc7 7a00 	vstr	s15, [r7]
	return maxTorque;
 80013a2:	683b      	ldr	r3, [r7, #0]
}
 80013a4:	ee07 3a90 	vmov	s15, r3
 80013a8:	eeb0 0a67 	vmov.f32	s0, s15
 80013ac:	3710      	adds	r7, #16
 80013ae:	46bd      	mov	sp, r7
 80013b0:	bd80      	pop	{r7, pc}
 80013b2:	bf00      	nop
 80013b4:	f3af 8000 	nop.w
 80013b8:	0f3cb3e5 	.word	0x0f3cb3e5
 80013bc:	3fbaceee 	.word	0x3fbaceee
 80013c0:	200001fc 	.word	0x200001fc
 80013c4:	404a0000 	.word	0x404a0000
 80013c8:	43c80000 	.word	0x43c80000
 80013cc:	43660000 	.word	0x43660000
 80013d0:	43660000 	.word	0x43660000

080013d4 <FEB_CAN_RMS_Torque>:

void FEB_CAN_RMS_Torque(void){
 80013d4:	b580      	push	{r7, lr}
 80013d6:	ed2d 8b02 	vpush	{d8}
 80013da:	b084      	sub	sp, #16
 80013dc:	af00      	add	r7, sp, #0
	FEB_SM_ST_t current_BMS_state = FEB_CAN_BMS_getState(); // TODO: FOR ALEX
 80013de:	f7ff fe37 	bl	8001050 <FEB_CAN_BMS_getState>
 80013e2:	4603      	mov	r3, r0
 80013e4:	73fb      	strb	r3, [r7, #15]
	float accPos = FEB_Normalized_Acc_Pedals();
 80013e6:	f000 f9f3 	bl	80017d0 <FEB_Normalized_Acc_Pedals>
 80013ea:	ed87 0a02 	vstr	s0, [r7, #8]
	float brkPos = FEB_Normalized_getBrake();
 80013ee:	f000 fb35 	bl	8001a5c <FEB_Normalized_getBrake>
 80013f2:	ed87 0a01 	vstr	s0, [r7, #4]
//	    {
//	        // No braking detected, but driving not allowed by BMS state
//	        RMSControl.torque = 0;
//	    }
//	}
	RMSControl.torque = 10 * accPos * FEB_CAN_RMS_getMaxTorque(); // temp
 80013f6:	edd7 7a02 	vldr	s15, [r7, #8]
 80013fa:	eeb2 7a04 	vmov.f32	s14, #36	@ 0x41200000  10.0
 80013fe:	ee27 8a87 	vmul.f32	s16, s15, s14
 8001402:	f7ff ff79 	bl	80012f8 <FEB_CAN_RMS_getMaxTorque>
 8001406:	eef0 7a40 	vmov.f32	s15, s0
 800140a:	ee68 7a27 	vmul.f32	s15, s16, s15
 800140e:	eefd 7ae7 	vcvt.s32.f32	s15, s15
 8001412:	ee17 3a90 	vmov	r3, s15
 8001416:	b21a      	sxth	r2, r3
 8001418:	4b04      	ldr	r3, [pc, #16]	@ (800142c <FEB_CAN_RMS_Torque+0x58>)
 800141a:	801a      	strh	r2, [r3, #0]
//	sprintf(buf, "Torque: %d\n", max_torque);
//	HAL_UART_Transmit(&huart2, buf, strlen(buf), 100);
//
//	RMSControl.torque= max_torque;

	FEB_CAN_RMS_Transmit_updateTorque();
 800141c:	f000 f808 	bl	8001430 <FEB_CAN_RMS_Transmit_updateTorque>
}
 8001420:	bf00      	nop
 8001422:	3710      	adds	r7, #16
 8001424:	46bd      	mov	sp, r7
 8001426:	ecbd 8b02 	vpop	{d8}
 800142a:	bd80      	pop	{r7, pc}
 800142c:	200001f8 	.word	0x200001f8

08001430 <FEB_CAN_RMS_Transmit_updateTorque>:

	// Select CAN msg to broadcast
	FEB_CAN_RMS_Transmit_paramBroadcast();
}

void FEB_CAN_RMS_Transmit_updateTorque(void) { //TODO: Create Custom Transmit function and update below call
 8001430:	b580      	push	{r7, lr}
 8001432:	af00      	add	r7, sp, #0
  //uint8_t message_data[8] = {RMSControl.torque & 0xFF, RMSControl.torque >> 8, 0, 0, 0, RMSControl.enabled, 0, 0};
	FEB_CAN_Tx_Header.DLC = 8;
 8001434:	4b1f      	ldr	r3, [pc, #124]	@ (80014b4 <FEB_CAN_RMS_Transmit_updateTorque+0x84>)
 8001436:	2208      	movs	r2, #8
 8001438:	611a      	str	r2, [r3, #16]
	FEB_CAN_Tx_Header.StdId = FEB_CAN_RMS_COMMAND_MSG_FRAME_ID; //ID for sending paramater messages for RMS
 800143a:	4b1e      	ldr	r3, [pc, #120]	@ (80014b4 <FEB_CAN_RMS_Transmit_updateTorque+0x84>)
 800143c:	22c0      	movs	r2, #192	@ 0xc0
 800143e:	601a      	str	r2, [r3, #0]
	FEB_CAN_Tx_Header.IDE = CAN_ID_STD;
 8001440:	4b1c      	ldr	r3, [pc, #112]	@ (80014b4 <FEB_CAN_RMS_Transmit_updateTorque+0x84>)
 8001442:	2200      	movs	r2, #0
 8001444:	609a      	str	r2, [r3, #8]
	FEB_CAN_Tx_Header.RTR = CAN_RTR_DATA;
 8001446:	4b1b      	ldr	r3, [pc, #108]	@ (80014b4 <FEB_CAN_RMS_Transmit_updateTorque+0x84>)
 8001448:	2200      	movs	r2, #0
 800144a:	60da      	str	r2, [r3, #12]
	FEB_CAN_Tx_Header.TransmitGlobalTime = DISABLE;
 800144c:	4b19      	ldr	r3, [pc, #100]	@ (80014b4 <FEB_CAN_RMS_Transmit_updateTorque+0x84>)
 800144e:	2200      	movs	r2, #0
 8001450:	751a      	strb	r2, [r3, #20]

	// Copy data to Tx buffer
	FEB_CAN_Tx_Data[0] = (uint8_t)RMSControl.torque & 0xFF;
 8001452:	4b19      	ldr	r3, [pc, #100]	@ (80014b8 <FEB_CAN_RMS_Transmit_updateTorque+0x88>)
 8001454:	f9b3 3000 	ldrsh.w	r3, [r3]
 8001458:	b2da      	uxtb	r2, r3
 800145a:	4b18      	ldr	r3, [pc, #96]	@ (80014bc <FEB_CAN_RMS_Transmit_updateTorque+0x8c>)
 800145c:	701a      	strb	r2, [r3, #0]
	FEB_CAN_Tx_Data[1] = (uint8_t)(RMSControl.torque >> 8) & 0xFF;
 800145e:	4b16      	ldr	r3, [pc, #88]	@ (80014b8 <FEB_CAN_RMS_Transmit_updateTorque+0x88>)
 8001460:	f9b3 3000 	ldrsh.w	r3, [r3]
 8001464:	121b      	asrs	r3, r3, #8
 8001466:	b21b      	sxth	r3, r3
 8001468:	b2da      	uxtb	r2, r3
 800146a:	4b14      	ldr	r3, [pc, #80]	@ (80014bc <FEB_CAN_RMS_Transmit_updateTorque+0x8c>)
 800146c:	705a      	strb	r2, [r3, #1]
	FEB_CAN_Tx_Data[2] = 0;
 800146e:	4b13      	ldr	r3, [pc, #76]	@ (80014bc <FEB_CAN_RMS_Transmit_updateTorque+0x8c>)
 8001470:	2200      	movs	r2, #0
 8001472:	709a      	strb	r2, [r3, #2]
	FEB_CAN_Tx_Data[3] = 0;
 8001474:	4b11      	ldr	r3, [pc, #68]	@ (80014bc <FEB_CAN_RMS_Transmit_updateTorque+0x8c>)
 8001476:	2200      	movs	r2, #0
 8001478:	70da      	strb	r2, [r3, #3]
	FEB_CAN_Tx_Data[4] = 1;
 800147a:	4b10      	ldr	r3, [pc, #64]	@ (80014bc <FEB_CAN_RMS_Transmit_updateTorque+0x8c>)
 800147c:	2201      	movs	r2, #1
 800147e:	711a      	strb	r2, [r3, #4]
	FEB_CAN_Tx_Data[5] = RMSControl.enabled;
 8001480:	4b0d      	ldr	r3, [pc, #52]	@ (80014b8 <FEB_CAN_RMS_Transmit_updateTorque+0x88>)
 8001482:	789a      	ldrb	r2, [r3, #2]
 8001484:	4b0d      	ldr	r3, [pc, #52]	@ (80014bc <FEB_CAN_RMS_Transmit_updateTorque+0x8c>)
 8001486:	715a      	strb	r2, [r3, #5]
	FEB_CAN_Tx_Data[6] = 0;
 8001488:	4b0c      	ldr	r3, [pc, #48]	@ (80014bc <FEB_CAN_RMS_Transmit_updateTorque+0x8c>)
 800148a:	2200      	movs	r2, #0
 800148c:	719a      	strb	r2, [r3, #6]
	FEB_CAN_Tx_Data[7] = 0;
 800148e:	4b0b      	ldr	r3, [pc, #44]	@ (80014bc <FEB_CAN_RMS_Transmit_updateTorque+0x8c>)
 8001490:	2200      	movs	r2, #0
 8001492:	71da      	strb	r2, [r3, #7]

	// Delay until mailbox available
	while (HAL_CAN_GetTxMailboxesFreeLevel(&hcan1) == 0) {}
 8001494:	bf00      	nop
 8001496:	480a      	ldr	r0, [pc, #40]	@ (80014c0 <FEB_CAN_RMS_Transmit_updateTorque+0x90>)
 8001498:	f002 f918 	bl	80036cc <HAL_CAN_GetTxMailboxesFreeLevel>
 800149c:	4603      	mov	r3, r0
 800149e:	2b00      	cmp	r3, #0
 80014a0:	d0f9      	beq.n	8001496 <FEB_CAN_RMS_Transmit_updateTorque+0x66>

	// Add Tx data to mailbox
	if (HAL_CAN_AddTxMessage(&hcan1, &FEB_CAN_Tx_Header, FEB_CAN_Tx_Data, &FEB_CAN_Tx_Mailbox) != HAL_OK) {
 80014a2:	4b08      	ldr	r3, [pc, #32]	@ (80014c4 <FEB_CAN_RMS_Transmit_updateTorque+0x94>)
 80014a4:	4a05      	ldr	r2, [pc, #20]	@ (80014bc <FEB_CAN_RMS_Transmit_updateTorque+0x8c>)
 80014a6:	4903      	ldr	r1, [pc, #12]	@ (80014b4 <FEB_CAN_RMS_Transmit_updateTorque+0x84>)
 80014a8:	4805      	ldr	r0, [pc, #20]	@ (80014c0 <FEB_CAN_RMS_Transmit_updateTorque+0x90>)
 80014aa:	f002 f83f 	bl	800352c <HAL_CAN_AddTxMessage>
		// Code Error - Shutdown
	}
}
 80014ae:	bf00      	nop
 80014b0:	bd80      	pop	{r7, pc}
 80014b2:	bf00      	nop
 80014b4:	20000214 	.word	0x20000214
 80014b8:	200001f8 	.word	0x200001f8
 80014bc:	20000248 	.word	0x20000248
 80014c0:	200002a8 	.word	0x200002a8
 80014c4:	20000258 	.word	0x20000258

080014c8 <FEB_CAN_RMS_Filter_Config>:




uint8_t FEB_CAN_RMS_Filter_Config(CAN_HandleTypeDef* hcan, uint8_t FIFO_assignment, uint8_t filter_bank) {
 80014c8:	b580      	push	{r7, lr}
 80014ca:	b08e      	sub	sp, #56	@ 0x38
 80014cc:	af00      	add	r7, sp, #0
 80014ce:	6078      	str	r0, [r7, #4]
 80014d0:	460b      	mov	r3, r1
 80014d2:	70fb      	strb	r3, [r7, #3]
 80014d4:	4613      	mov	r3, r2
 80014d6:	70bb      	strb	r3, [r7, #2]
	uint16_t ids[] = {FEB_CAN_ID_RMS_VOLTAGE, FEB_CAN_ID_RMS_MOTOR};
 80014d8:	4b1c      	ldr	r3, [pc, #112]	@ (800154c <FEB_CAN_RMS_Filter_Config+0x84>)
 80014da:	681b      	ldr	r3, [r3, #0]
 80014dc:	633b      	str	r3, [r7, #48]	@ 0x30

	for (uint8_t i = 0; i < 2; i++) {
 80014de:	2300      	movs	r3, #0
 80014e0:	f887 3037 	strb.w	r3, [r7, #55]	@ 0x37
 80014e4:	e029      	b.n	800153a <FEB_CAN_RMS_Filter_Config+0x72>
		CAN_FilterTypeDef filter_config;

	    // Standard CAN - 2.0A - 11 bit
	    filter_config.FilterActivation = CAN_FILTER_ENABLE;
 80014e6:	2301      	movs	r3, #1
 80014e8:	62bb      	str	r3, [r7, #40]	@ 0x28
		filter_config.FilterBank = filter_bank;
 80014ea:	78bb      	ldrb	r3, [r7, #2]
 80014ec:	61fb      	str	r3, [r7, #28]
		filter_config.FilterFIFOAssignment = FIFO_assignment;
 80014ee:	78fb      	ldrb	r3, [r7, #3]
 80014f0:	61bb      	str	r3, [r7, #24]
		filter_config.FilterIdHigh = ids[i] << 5;
 80014f2:	f897 3037 	ldrb.w	r3, [r7, #55]	@ 0x37
 80014f6:	005b      	lsls	r3, r3, #1
 80014f8:	3338      	adds	r3, #56	@ 0x38
 80014fa:	443b      	add	r3, r7
 80014fc:	f833 3c08 	ldrh.w	r3, [r3, #-8]
 8001500:	015b      	lsls	r3, r3, #5
 8001502:	60bb      	str	r3, [r7, #8]
		filter_config.FilterIdLow = 0;
 8001504:	2300      	movs	r3, #0
 8001506:	60fb      	str	r3, [r7, #12]
		filter_config.FilterMaskIdHigh = 0xFFE0;
 8001508:	f64f 73e0 	movw	r3, #65504	@ 0xffe0
 800150c:	613b      	str	r3, [r7, #16]
		filter_config.FilterMaskIdLow = 0;
 800150e:	2300      	movs	r3, #0
 8001510:	617b      	str	r3, [r7, #20]
		filter_config.FilterMode = CAN_FILTERMODE_IDMASK;
 8001512:	2300      	movs	r3, #0
 8001514:	623b      	str	r3, [r7, #32]
		filter_config.FilterScale = CAN_FILTERSCALE_32BIT;
 8001516:	2301      	movs	r3, #1
 8001518:	627b      	str	r3, [r7, #36]	@ 0x24
		filter_config.SlaveStartFilterBank = 27;
 800151a:	231b      	movs	r3, #27
 800151c:	62fb      	str	r3, [r7, #44]	@ 0x2c
	    filter_bank++;
 800151e:	78bb      	ldrb	r3, [r7, #2]
 8001520:	3301      	adds	r3, #1
 8001522:	70bb      	strb	r3, [r7, #2]

		if (HAL_CAN_ConfigFilter(hcan, &filter_config) != HAL_OK) {
 8001524:	f107 0308 	add.w	r3, r7, #8
 8001528:	4619      	mov	r1, r3
 800152a:	6878      	ldr	r0, [r7, #4]
 800152c:	f001 feda 	bl	80032e4 <HAL_CAN_ConfigFilter>
	for (uint8_t i = 0; i < 2; i++) {
 8001530:	f897 3037 	ldrb.w	r3, [r7, #55]	@ 0x37
 8001534:	3301      	adds	r3, #1
 8001536:	f887 3037 	strb.w	r3, [r7, #55]	@ 0x37
 800153a:	f897 3037 	ldrb.w	r3, [r7, #55]	@ 0x37
 800153e:	2b01      	cmp	r3, #1
 8001540:	d9d1      	bls.n	80014e6 <FEB_CAN_RMS_Filter_Config+0x1e>
			//Code Error - shutdown
		}
	}

	return filter_bank;
 8001542:	78bb      	ldrb	r3, [r7, #2]
}
 8001544:	4618      	mov	r0, r3
 8001546:	3738      	adds	r7, #56	@ 0x38
 8001548:	46bd      	mov	sp, r7
 800154a:	bd80      	pop	{r7, pc}
 800154c:	08008758 	.word	0x08008758

08001550 <FEB_CAN_RMS_Store_Msg>:
		// Code Error - Shutdown
	}
}


void FEB_CAN_RMS_Store_Msg(CAN_RxHeaderTypeDef* pHeader, uint8_t *RxData) {
 8001550:	b480      	push	{r7}
 8001552:	b083      	sub	sp, #12
 8001554:	af00      	add	r7, sp, #0
 8001556:	6078      	str	r0, [r7, #4]
 8001558:	6039      	str	r1, [r7, #0]
	switch (pHeader -> StdId){
 800155a:	687b      	ldr	r3, [r7, #4]
 800155c:	681b      	ldr	r3, [r3, #0]
 800155e:	2ba5      	cmp	r3, #165	@ 0xa5
 8001560:	d007      	beq.n	8001572 <FEB_CAN_RMS_Store_Msg+0x22>
 8001562:	2ba7      	cmp	r3, #167	@ 0xa7
 8001564:	d10c      	bne.n	8001580 <FEB_CAN_RMS_Store_Msg+0x30>
		case FEB_CAN_ID_RMS_VOLTAGE:
			memcpy(&(RMS_MESSAGE.HV_Bus_Voltage), RxData, 2);
 8001566:	683b      	ldr	r3, [r7, #0]
 8001568:	881b      	ldrh	r3, [r3, #0]
 800156a:	b29a      	uxth	r2, r3
 800156c:	4b07      	ldr	r3, [pc, #28]	@ (800158c <FEB_CAN_RMS_Store_Msg+0x3c>)
 800156e:	801a      	strh	r2, [r3, #0]
			break;
 8001570:	e006      	b.n	8001580 <FEB_CAN_RMS_Store_Msg+0x30>
		case FEB_CAN_ID_RMS_MOTOR:
			memcpy(&(RMS_MESSAGE.Motor_Speed), RxData+2, 2);
 8001572:	683b      	ldr	r3, [r7, #0]
 8001574:	3302      	adds	r3, #2
 8001576:	881b      	ldrh	r3, [r3, #0]
 8001578:	b29a      	uxth	r2, r3
 800157a:	4b04      	ldr	r3, [pc, #16]	@ (800158c <FEB_CAN_RMS_Store_Msg+0x3c>)
 800157c:	805a      	strh	r2, [r3, #2]
			break;
 800157e:	bf00      	nop
	}
}
 8001580:	bf00      	nop
 8001582:	370c      	adds	r7, #12
 8001584:	46bd      	mov	sp, r7
 8001586:	f85d 7b04 	ldr.w	r7, [sp], #4
 800158a:	4770      	bx	lr
 800158c:	200001fc 	.word	0x200001fc

08001590 <FEB_Read_ADC1>:
bool currHigh = false;


// **************************************** Functions ****************************************

uint16_t FEB_Read_ADC1(uint32_t channel){
 8001590:	b580      	push	{r7, lr}
 8001592:	b086      	sub	sp, #24
 8001594:	af00      	add	r7, sp, #0
 8001596:	6078      	str	r0, [r7, #4]
	ADC_ChannelConfTypeDef sConfig={0};
 8001598:	f107 0308 	add.w	r3, r7, #8
 800159c:	2200      	movs	r2, #0
 800159e:	601a      	str	r2, [r3, #0]
 80015a0:	605a      	str	r2, [r3, #4]
 80015a2:	609a      	str	r2, [r3, #8]
 80015a4:	60da      	str	r2, [r3, #12]
	sConfig.Channel = channel;
 80015a6:	687b      	ldr	r3, [r7, #4]
 80015a8:	60bb      	str	r3, [r7, #8]
	sConfig.Rank = 1;
 80015aa:	2301      	movs	r3, #1
 80015ac:	60fb      	str	r3, [r7, #12]
	sConfig.SamplingTime = ADC_SAMPLETIME_480CYCLES;
 80015ae:	2307      	movs	r3, #7
 80015b0:	613b      	str	r3, [r7, #16]

	if (HAL_ADC_ConfigChannel(&hadc1, &sConfig) != HAL_OK)
 80015b2:	f107 0308 	add.w	r3, r7, #8
 80015b6:	4619      	mov	r1, r3
 80015b8:	480b      	ldr	r0, [pc, #44]	@ (80015e8 <FEB_Read_ADC1+0x58>)
 80015ba:	f001 fa9f 	bl	8002afc <HAL_ADC_ConfigChannel>
 80015be:	4603      	mov	r3, r0
 80015c0:	2b00      	cmp	r3, #0
 80015c2:	d001      	beq.n	80015c8 <FEB_Read_ADC1+0x38>
	{
	   Error_Handler();
 80015c4:	f000 fd9a 	bl	80020fc <Error_Handler>
	}

	HAL_ADC_Start(&hadc1);
 80015c8:	4807      	ldr	r0, [pc, #28]	@ (80015e8 <FEB_Read_ADC1+0x58>)
 80015ca:	f001 f92d 	bl	8002828 <HAL_ADC_Start>
	HAL_ADC_PollForConversion(&hadc1, 100);
 80015ce:	2164      	movs	r1, #100	@ 0x64
 80015d0:	4805      	ldr	r0, [pc, #20]	@ (80015e8 <FEB_Read_ADC1+0x58>)
 80015d2:	f001 f9fb 	bl	80029cc <HAL_ADC_PollForConversion>
	return (uint16_t)HAL_ADC_GetValue(&hadc1);
 80015d6:	4804      	ldr	r0, [pc, #16]	@ (80015e8 <FEB_Read_ADC1+0x58>)
 80015d8:	f001 fa83 	bl	8002ae2 <HAL_ADC_GetValue>
 80015dc:	4603      	mov	r3, r0
 80015de:	b29b      	uxth	r3, r3

}
 80015e0:	4618      	mov	r0, r3
 80015e2:	3718      	adds	r7, #24
 80015e4:	46bd      	mov	sp, r7
 80015e6:	bd80      	pop	{r7, pc}
 80015e8:	20000260 	.word	0x20000260

080015ec <FEB_HECS_update>:

void FEB_HECS_update(){
 80015ec:	b5b0      	push	{r4, r5, r7, lr}
 80015ee:	b0a8      	sub	sp, #160	@ 0xa0
 80015f0:	af04      	add	r7, sp, #16
	uint16_t current_HECS = FEB_Read_ADC1(HECS_SIGNAL);
 80015f2:	200e      	movs	r0, #14
 80015f4:	f7ff ffcc 	bl	8001590 <FEB_Read_ADC1>
 80015f8:	4603      	mov	r3, r0
 80015fa:	f8a7 308e 	strh.w	r3, [r7, #142]	@ 0x8e
	uint16_t current_ACC1 = FEB_Read_ADC1(ACC_PEDAL_1);
 80015fe:	2001      	movs	r0, #1
 8001600:	f7ff ffc6 	bl	8001590 <FEB_Read_ADC1>
 8001604:	4603      	mov	r3, r0
 8001606:	f8a7 308c 	strh.w	r3, [r7, #140]	@ 0x8c
	uint16_t current_BRAKE1 = FEB_Read_ADC1(BRAKE_PRESS_1);
 800160a:	200d      	movs	r0, #13
 800160c:	f7ff ffc0 	bl	8001590 <FEB_Read_ADC1>
 8001610:	4603      	mov	r3, r0
 8001612:	f8a7 308a 	strh.w	r3, [r7, #138]	@ 0x8a
	uint16_t current_ACC2 = FEB_Read_ADC1(ACC_PEDAL_2);
 8001616:	2000      	movs	r0, #0
 8001618:	f7ff ffba 	bl	8001590 <FEB_Read_ADC1>
 800161c:	4603      	mov	r3, r0
 800161e:	f8a7 3088 	strh.w	r3, [r7, #136]	@ 0x88
	uint16_t current_BRAKE2 = FEB_Read_ADC1(BRAKE_PRESS_2);
 8001622:	200c      	movs	r0, #12
 8001624:	f7ff ffb4 	bl	8001590 <FEB_Read_ADC1>
 8001628:	4603      	mov	r3, r0
 800162a:	f8a7 3086 	strh.w	r3, [r7, #134]	@ 0x86

	char buf[128];
	uint8_t buf_len;
	buf_len = sprintf(buf, "HECS Current:%d, %d, %d, %d, %d\n\r", current_HECS,current_ACC1,current_BRAKE1,current_ACC2,current_BRAKE2);
 800162e:	f8b7 408e 	ldrh.w	r4, [r7, #142]	@ 0x8e
 8001632:	f8b7 508c 	ldrh.w	r5, [r7, #140]	@ 0x8c
 8001636:	f8b7 308a 	ldrh.w	r3, [r7, #138]	@ 0x8a
 800163a:	f8b7 2088 	ldrh.w	r2, [r7, #136]	@ 0x88
 800163e:	f8b7 1086 	ldrh.w	r1, [r7, #134]	@ 0x86
 8001642:	1d38      	adds	r0, r7, #4
 8001644:	9102      	str	r1, [sp, #8]
 8001646:	9201      	str	r2, [sp, #4]
 8001648:	9300      	str	r3, [sp, #0]
 800164a:	462b      	mov	r3, r5
 800164c:	4622      	mov	r2, r4
 800164e:	4911      	ldr	r1, [pc, #68]	@ (8001694 <FEB_HECS_update+0xa8>)
 8001650:	f004 ff52 	bl	80064f8 <siprintf>
 8001654:	4603      	mov	r3, r0
 8001656:	f887 3085 	strb.w	r3, [r7, #133]	@ 0x85
	HAL_UART_Transmit(&huart2, buf, strlen(buf), HAL_MAX_DELAY);
 800165a:	1d3b      	adds	r3, r7, #4
 800165c:	4618      	mov	r0, r3
 800165e:	f7fe fe27 	bl	80002b0 <strlen>
 8001662:	4603      	mov	r3, r0
 8001664:	b29a      	uxth	r2, r3
 8001666:	1d39      	adds	r1, r7, #4
 8001668:	f04f 33ff 	mov.w	r3, #4294967295	@ 0xffffffff
 800166c:	480a      	ldr	r0, [pc, #40]	@ (8001698 <FEB_HECS_update+0xac>)
 800166e:	f003 fe65 	bl	800533c <HAL_UART_Transmit>

	if (current_HECS >= HECS_CURRENT){ //checks if current is above value (to be determined)
 8001672:	f8b7 308e 	ldrh.w	r3, [r7, #142]	@ 0x8e
 8001676:	f5b3 6f3d 	cmp.w	r3, #3024	@ 0xbd0
 800167a:	d903      	bls.n	8001684 <FEB_HECS_update+0x98>
		currHigh = true;
 800167c:	4b07      	ldr	r3, [pc, #28]	@ (800169c <FEB_HECS_update+0xb0>)
 800167e:	2201      	movs	r2, #1
 8001680:	701a      	strb	r2, [r3, #0]
	}else{
		currHigh = false;
	}

}
 8001682:	e002      	b.n	800168a <FEB_HECS_update+0x9e>
		currHigh = false;
 8001684:	4b05      	ldr	r3, [pc, #20]	@ (800169c <FEB_HECS_update+0xb0>)
 8001686:	2200      	movs	r2, #0
 8001688:	701a      	strb	r2, [r3, #0]
}
 800168a:	bf00      	nop
 800168c:	3790      	adds	r7, #144	@ 0x90
 800168e:	46bd      	mov	sp, r7
 8001690:	bdb0      	pop	{r4, r5, r7, pc}
 8001692:	bf00      	nop
 8001694:	0800875c 	.word	0x0800875c
 8001698:	20000324 	.word	0x20000324
 800169c:	20000200 	.word	0x20000200

080016a0 <FEB_Main_Setup>:
char buf[128];
uint8_t buf_len;

// ********************************** Functions **********************************

void FEB_Main_Setup(void){
 80016a0:	b580      	push	{r7, lr}
 80016a2:	af00      	add	r7, sp, #0
	HAL_ADCEx_InjectedStart(&hadc1);
 80016a4:	4804      	ldr	r0, [pc, #16]	@ (80016b8 <FEB_Main_Setup+0x18>)
 80016a6:	f001 fc57 	bl	8002f58 <HAL_ADCEx_InjectedStart>
	FEB_CAN_Init();
 80016aa:	f000 fadb 	bl	8001c64 <FEB_CAN_Init>
	FEB_CAN_RMS_Setup();
 80016ae:	f7ff fd71 	bl	8001194 <FEB_CAN_RMS_Setup>
}
 80016b2:	bf00      	nop
 80016b4:	bd80      	pop	{r7, pc}
 80016b6:	bf00      	nop
 80016b8:	20000260 	.word	0x20000260

080016bc <FEB_Main_While>:

void FEB_Main_While(void){
 80016bc:	b580      	push	{r7, lr}
 80016be:	b082      	sub	sp, #8
 80016c0:	af00      	add	r7, sp, #0
	FEB_SM_ST_t bms_state = FEB_CAN_BMS_getState();
 80016c2:	f7ff fcc5 	bl	8001050 <FEB_CAN_BMS_getState>
 80016c6:	4603      	mov	r3, r0
 80016c8:	71fb      	strb	r3, [r7, #7]

	if (FEB_Ready_To_Drive() && (bms_state == FEB_SM_ST_DRIVE)) {
 80016ca:	f7ff fd57 	bl	800117c <FEB_Ready_To_Drive>
 80016ce:	4603      	mov	r3, r0
 80016d0:	2b00      	cmp	r3, #0
 80016d2:	d007      	beq.n	80016e4 <FEB_Main_While+0x28>
 80016d4:	79fb      	ldrb	r3, [r7, #7]
 80016d6:	2b05      	cmp	r3, #5
 80016d8:	d104      	bne.n	80016e4 <FEB_Main_While+0x28>
		FEB_Normalized_updateAcc();
 80016da:	f000 f84d 	bl	8001778 <FEB_Normalized_updateAcc>
		FEB_CAN_RMS_Process();
 80016de:	f7ff fd69 	bl	80011b4 <FEB_CAN_RMS_Process>
 80016e2:	e003      	b.n	80016ec <FEB_Main_While+0x30>

	} else {
		FEB_Normalized_setAcc0();
 80016e4:	f000 f83a 	bl	800175c <FEB_Normalized_setAcc0>
		FEB_CAN_RMS_Disable();
 80016e8:	f7ff fd74 	bl	80011d4 <FEB_CAN_RMS_Disable>
	}

	FEB_HECS_update();
 80016ec:	f7ff ff7e 	bl	80015ec <FEB_HECS_update>

	FEB_CAN_RMS_Torque();
 80016f0:	f7ff fe70 	bl	80013d4 <FEB_CAN_RMS_Torque>
	FEB_Normalized_CAN_sendBrake();
 80016f4:	f000 fa4e 	bl	8001b94 <FEB_Normalized_CAN_sendBrake>

	HAL_Delay(10);
 80016f8:	200a      	movs	r0, #10
 80016fa:	f001 f82d 	bl	8002758 <HAL_Delay>
}
 80016fe:	bf00      	nop
 8001700:	3708      	adds	r7, #8
 8001702:	46bd      	mov	sp, r7
 8001704:	bd80      	pop	{r7, pc}
	...

08001708 <FEB_Read_ADC>:
bool isImpl = false;
float time = 0.0;

// **************************************** Functions ****************************************

uint16_t FEB_Read_ADC(uint32_t channel){
 8001708:	b580      	push	{r7, lr}
 800170a:	b086      	sub	sp, #24
 800170c:	af00      	add	r7, sp, #0
 800170e:	6078      	str	r0, [r7, #4]
	ADC_ChannelConfTypeDef sConfig={0};
 8001710:	f107 0308 	add.w	r3, r7, #8
 8001714:	2200      	movs	r2, #0
 8001716:	601a      	str	r2, [r3, #0]
 8001718:	605a      	str	r2, [r3, #4]
 800171a:	609a      	str	r2, [r3, #8]
 800171c:	60da      	str	r2, [r3, #12]
	sConfig.Channel = channel;
 800171e:	687b      	ldr	r3, [r7, #4]
 8001720:	60bb      	str	r3, [r7, #8]
	sConfig.Rank = 1;
 8001722:	2301      	movs	r3, #1
 8001724:	60fb      	str	r3, [r7, #12]
	sConfig.SamplingTime = ADC_SAMPLETIME_480CYCLES;
 8001726:	2307      	movs	r3, #7
 8001728:	613b      	str	r3, [r7, #16]

	if (HAL_ADC_ConfigChannel(&hadc1, &sConfig) != HAL_OK)
 800172a:	f107 0308 	add.w	r3, r7, #8
 800172e:	4619      	mov	r1, r3
 8001730:	4809      	ldr	r0, [pc, #36]	@ (8001758 <FEB_Read_ADC+0x50>)
 8001732:	f001 f9e3 	bl	8002afc <HAL_ADC_ConfigChannel>
	{
//	   Error_Handler();
	}

	HAL_ADC_Start(&hadc1);
 8001736:	4808      	ldr	r0, [pc, #32]	@ (8001758 <FEB_Read_ADC+0x50>)
 8001738:	f001 f876 	bl	8002828 <HAL_ADC_Start>
	HAL_ADC_PollForConversion(&hadc1, 100);
 800173c:	2164      	movs	r1, #100	@ 0x64
 800173e:	4806      	ldr	r0, [pc, #24]	@ (8001758 <FEB_Read_ADC+0x50>)
 8001740:	f001 f944 	bl	80029cc <HAL_ADC_PollForConversion>
	return (uint16_t)HAL_ADC_GetValue(&hadc1);
 8001744:	4804      	ldr	r0, [pc, #16]	@ (8001758 <FEB_Read_ADC+0x50>)
 8001746:	f001 f9cc 	bl	8002ae2 <HAL_ADC_GetValue>
 800174a:	4603      	mov	r3, r0
 800174c:	b29b      	uxth	r3, r3

}
 800174e:	4618      	mov	r0, r3
 8001750:	3718      	adds	r7, #24
 8001752:	46bd      	mov	sp, r7
 8001754:	bd80      	pop	{r7, pc}
 8001756:	bf00      	nop
 8001758:	20000260 	.word	0x20000260

0800175c <FEB_Normalized_setAcc0>:

float FEB_Normalized_getAcc(){
	return normalized_acc;
}

void FEB_Normalized_setAcc0(){
 800175c:	b480      	push	{r7}
 800175e:	af00      	add	r7, sp, #0
	normalized_acc = 0.0;
 8001760:	4b04      	ldr	r3, [pc, #16]	@ (8001774 <FEB_Normalized_setAcc0+0x18>)
 8001762:	f04f 0200 	mov.w	r2, #0
 8001766:	601a      	str	r2, [r3, #0]
}
 8001768:	bf00      	nop
 800176a:	46bd      	mov	sp, r7
 800176c:	f85d 7b04 	ldr.w	r7, [sp], #4
 8001770:	4770      	bx	lr
 8001772:	bf00      	nop
 8001774:	20000204 	.word	0x20000204

08001778 <FEB_Normalized_updateAcc>:
	char buf1[128];
	sprintf(buf1, "[SENSOR] Brake Position: %d.%d%%\n", brake_pedal_position_int1, brake_pedal_position_int2);
	HAL_UART_Transmit(&huart2,(uint8_t *)buf1, strlen(buf1), HAL_MAX_DELAY);
}

void FEB_Normalized_updateAcc(){
 8001778:	b580      	push	{r7, lr}
 800177a:	b0a2      	sub	sp, #136	@ 0x88
 800177c:	af00      	add	r7, sp, #0
	normalized_acc = FEB_Normalized_Acc_Pedals();
 800177e:	f000 f827 	bl	80017d0 <FEB_Normalized_Acc_Pedals>
 8001782:	eef0 7a40 	vmov.f32	s15, s0
 8001786:	4b0f      	ldr	r3, [pc, #60]	@ (80017c4 <FEB_Normalized_updateAcc+0x4c>)
 8001788:	edc3 7a00 	vstr	s15, [r3]

	char buf[128];
	uint8_t buf_len;
	buf_len = sprintf(buf, "normalized_acc: %f\n", normalized_acc);
 800178c:	4b0d      	ldr	r3, [pc, #52]	@ (80017c4 <FEB_Normalized_updateAcc+0x4c>)
 800178e:	681b      	ldr	r3, [r3, #0]
 8001790:	4618      	mov	r0, r3
 8001792:	f7fe fef9 	bl	8000588 <__aeabi_f2d>
 8001796:	4602      	mov	r2, r0
 8001798:	460b      	mov	r3, r1
 800179a:	1d38      	adds	r0, r7, #4
 800179c:	490a      	ldr	r1, [pc, #40]	@ (80017c8 <FEB_Normalized_updateAcc+0x50>)
 800179e:	f004 feab 	bl	80064f8 <siprintf>
 80017a2:	4603      	mov	r3, r0
 80017a4:	f887 3087 	strb.w	r3, [r7, #135]	@ 0x87
	HAL_UART_Transmit(&huart2,(uint8_t *)buf, buf_len, HAL_MAX_DELAY);
 80017a8:	f897 3087 	ldrb.w	r3, [r7, #135]	@ 0x87
 80017ac:	b29a      	uxth	r2, r3
 80017ae:	1d39      	adds	r1, r7, #4
 80017b0:	f04f 33ff 	mov.w	r3, #4294967295	@ 0xffffffff
 80017b4:	4805      	ldr	r0, [pc, #20]	@ (80017cc <FEB_Normalized_updateAcc+0x54>)
 80017b6:	f003 fdc1 	bl	800533c <HAL_UART_Transmit>

}
 80017ba:	bf00      	nop
 80017bc:	3788      	adds	r7, #136	@ 0x88
 80017be:	46bd      	mov	sp, r7
 80017c0:	bd80      	pop	{r7, pc}
 80017c2:	bf00      	nop
 80017c4:	20000204 	.word	0x20000204
 80017c8:	08008878 	.word	0x08008878
 80017cc:	20000324 	.word	0x20000324

080017d0 <FEB_Normalized_Acc_Pedals>:

float FEB_Normalized_Acc_Pedals() {
 80017d0:	b580      	push	{r7, lr}
 80017d2:	b0a8      	sub	sp, #160	@ 0xa0
 80017d4:	af00      	add	r7, sp, #0
	// raw ADC readings of the two acc pedal sensors
	uint16_t acc_pedal_1 = FEB_Read_ADC(ACC_PEDAL_1);
 80017d6:	2001      	movs	r0, #1
 80017d8:	f7ff ff96 	bl	8001708 <FEB_Read_ADC>
 80017dc:	4603      	mov	r3, r0
 80017de:	f8a7 309e 	strh.w	r3, [r7, #158]	@ 0x9e
	uint16_t acc_pedal_2 = FEB_Read_ADC(ACC_PEDAL_2);
 80017e2:	2000      	movs	r0, #0
 80017e4:	f7ff ff90 	bl	8001708 <FEB_Read_ADC>
 80017e8:	4603      	mov	r3, r0
 80017ea:	f8a7 309c 	strh.w	r3, [r7, #156]	@ 0x9c
	char buf[128];
	uint8_t buf_len;
	buf_len = sprintf(buf, "acc1:%d acc2:%d\n", acc_pedal_1, acc_pedal_2);
 80017ee:	f8b7 209e 	ldrh.w	r2, [r7, #158]	@ 0x9e
 80017f2:	f8b7 309c 	ldrh.w	r3, [r7, #156]	@ 0x9c
 80017f6:	1d38      	adds	r0, r7, #4
 80017f8:	498f      	ldr	r1, [pc, #572]	@ (8001a38 <FEB_Normalized_Acc_Pedals+0x268>)
 80017fa:	f004 fe7d 	bl	80064f8 <siprintf>
 80017fe:	4603      	mov	r3, r0
 8001800:	f887 309b 	strb.w	r3, [r7, #155]	@ 0x9b
//	HAL_UART_Transmit(&huart2,(uint8_t *)buf, buf_len, HAL_MAX_DELAY);


	// check implausibility for shorting. TODO: check if this fulfills the short circuiting rules.
	if (acc_pedal_1 < ACC_PEDAL_1_END - 20 || acc_pedal_1 > ACC_PEDAL_1_START + 20
 8001804:	f8b7 309e 	ldrh.w	r3, [r7, #158]	@ 0x9e
 8001808:	f240 5233 	movw	r2, #1331	@ 0x533
 800180c:	4293      	cmp	r3, r2
 800180e:	d910      	bls.n	8001832 <FEB_Normalized_Acc_Pedals+0x62>
 8001810:	f8b7 309e 	ldrh.w	r3, [r7, #158]	@ 0x9e
 8001814:	f240 6201 	movw	r2, #1537	@ 0x601
 8001818:	4293      	cmp	r3, r2
 800181a:	d80a      	bhi.n	8001832 <FEB_Normalized_Acc_Pedals+0x62>
			|| acc_pedal_2 < ACC_PEDAL_2_START - 50 || acc_pedal_2 > ACC_PEDAL_2_END + 50) {
 800181c:	f8b7 309c 	ldrh.w	r3, [r7, #156]	@ 0x9c
 8001820:	f240 3201 	movw	r2, #769	@ 0x301
 8001824:	4293      	cmp	r3, r2
 8001826:	d904      	bls.n	8001832 <FEB_Normalized_Acc_Pedals+0x62>
 8001828:	f8b7 309c 	ldrh.w	r3, [r7, #156]	@ 0x9c
 800182c:	f5b3 6fe8 	cmp.w	r3, #1856	@ 0x740
 8001830:	d905      	bls.n	800183e <FEB_Normalized_Acc_Pedals+0x6e>
		isImpl = true;
 8001832:	4b82      	ldr	r3, [pc, #520]	@ (8001a3c <FEB_Normalized_Acc_Pedals+0x26c>)
 8001834:	2201      	movs	r2, #1
 8001836:	701a      	strb	r2, [r3, #0]
		return 0.0;
 8001838:	f04f 0300 	mov.w	r3, #0
 800183c:	e0e1      	b.n	8001a02 <FEB_Normalized_Acc_Pedals+0x232>
	}

	//convert to % travel
	// sensor 1 has positive slope
	float ped1_normalized = (acc_pedal_1 - ACC_PEDAL_1_START)/ (ACC_PEDAL_1_END - ACC_PEDAL_1_START);
 800183e:	f8b7 309e 	ldrh.w	r3, [r7, #158]	@ 0x9e
 8001842:	4618      	mov	r0, r3
 8001844:	f7fe fe8e 	bl	8000564 <__aeabi_i2d>
 8001848:	a371      	add	r3, pc, #452	@ (adr r3, 8001a10 <FEB_Normalized_Acc_Pedals+0x240>)
 800184a:	e9d3 2300 	ldrd	r2, r3, [r3]
 800184e:	f7fe fd3b 	bl	80002c8 <__aeabi_dsub>
 8001852:	4602      	mov	r2, r0
 8001854:	460b      	mov	r3, r1
 8001856:	4610      	mov	r0, r2
 8001858:	4619      	mov	r1, r3
 800185a:	a36f      	add	r3, pc, #444	@ (adr r3, 8001a18 <FEB_Normalized_Acc_Pedals+0x248>)
 800185c:	e9d3 2300 	ldrd	r2, r3, [r3]
 8001860:	f7ff f814 	bl	800088c <__aeabi_ddiv>
 8001864:	4602      	mov	r2, r0
 8001866:	460b      	mov	r3, r1
 8001868:	4610      	mov	r0, r2
 800186a:	4619      	mov	r1, r3
 800186c:	f7ff f9bc 	bl	8000be8 <__aeabi_d2f>
 8001870:	4603      	mov	r3, r0
 8001872:	f8c7 3094 	str.w	r3, [r7, #148]	@ 0x94
	// sensor 2 has negative slope
	float ped2_normalized = (acc_pedal_2 - ACC_PEDAL_2_START) / (ACC_PEDAL_2_END - ACC_PEDAL_2_START);
 8001876:	f8b7 309c 	ldrh.w	r3, [r7, #156]	@ 0x9c
 800187a:	4618      	mov	r0, r3
 800187c:	f7fe fe72 	bl	8000564 <__aeabi_i2d>
 8001880:	f04f 0200 	mov.w	r2, #0
 8001884:	4b6e      	ldr	r3, [pc, #440]	@ (8001a40 <FEB_Normalized_Acc_Pedals+0x270>)
 8001886:	f7fe fd1f 	bl	80002c8 <__aeabi_dsub>
 800188a:	4602      	mov	r2, r0
 800188c:	460b      	mov	r3, r1
 800188e:	4610      	mov	r0, r2
 8001890:	4619      	mov	r1, r3
 8001892:	f04f 0200 	mov.w	r2, #0
 8001896:	4b6b      	ldr	r3, [pc, #428]	@ (8001a44 <FEB_Normalized_Acc_Pedals+0x274>)
 8001898:	f7fe fff8 	bl	800088c <__aeabi_ddiv>
 800189c:	4602      	mov	r2, r0
 800189e:	460b      	mov	r3, r1
 80018a0:	4610      	mov	r0, r2
 80018a2:	4619      	mov	r1, r3
 80018a4:	f7ff f9a0 	bl	8000be8 <__aeabi_d2f>
 80018a8:	4603      	mov	r3, r0
 80018aa:	f8c7 3090 	str.w	r3, [r7, #144]	@ 0x90

	// sensor measurements mismatch by more than 10%
	if(abs(ped1_normalized - ped2_normalized) > 0.1 ){
 80018ae:	ed97 7a25 	vldr	s14, [r7, #148]	@ 0x94
 80018b2:	edd7 7a24 	vldr	s15, [r7, #144]	@ 0x90
 80018b6:	ee77 7a67 	vsub.f32	s15, s14, s15
 80018ba:	eefd 7ae7 	vcvt.s32.f32	s15, s15
 80018be:	ee17 3a90 	vmov	r3, s15
 80018c2:	2b00      	cmp	r3, #0
 80018c4:	bfb8      	it	lt
 80018c6:	425b      	neglt	r3, r3
 80018c8:	2b00      	cmp	r3, #0
 80018ca:	dd05      	ble.n	80018d8 <FEB_Normalized_Acc_Pedals+0x108>
		isImpl = true;
 80018cc:	4b5b      	ldr	r3, [pc, #364]	@ (8001a3c <FEB_Normalized_Acc_Pedals+0x26c>)
 80018ce:	2201      	movs	r2, #1
 80018d0:	701a      	strb	r2, [r3, #0]
		return 0.0;
 80018d2:	f04f 0300 	mov.w	r3, #0
 80018d6:	e094      	b.n	8001a02 <FEB_Normalized_Acc_Pedals+0x232>
	}

	float final_normalized = 0.5*(ped1_normalized + ped2_normalized);
 80018d8:	ed97 7a25 	vldr	s14, [r7, #148]	@ 0x94
 80018dc:	edd7 7a24 	vldr	s15, [r7, #144]	@ 0x90
 80018e0:	ee77 7a27 	vadd.f32	s15, s14, s15
 80018e4:	eeb6 7a00 	vmov.f32	s14, #96	@ 0x3f000000  0.5
 80018e8:	ee67 7a87 	vmul.f32	s15, s15, s14
 80018ec:	edc7 7a23 	vstr	s15, [r7, #140]	@ 0x8c

	float normalizedTrigger = 0.1; // portion of pedal we can press before we trigger a the soft BSPD
 80018f0:	4b55      	ldr	r3, [pc, #340]	@ (8001a48 <FEB_Normalized_Acc_Pedals+0x278>)
 80018f2:	f8c7 3088 	str.w	r3, [r7, #136]	@ 0x88
	float timeThreshold = 1000; // amount of cycles that needs to elapse before trigger, 12.5 nanoseconds / cycle
 80018f6:	4b55      	ldr	r3, [pc, #340]	@ (8001a4c <FEB_Normalized_Acc_Pedals+0x27c>)
 80018f8:	f8c7 3084 	str.w	r3, [r7, #132]	@ 0x84

	// Soft BSPD
	if (final_normalized >= normalizedTrigger) {
 80018fc:	ed97 7a23 	vldr	s14, [r7, #140]	@ 0x8c
 8001900:	edd7 7a22 	vldr	s15, [r7, #136]	@ 0x88
 8001904:	eeb4 7ae7 	vcmpe.f32	s14, s15
 8001908:	eef1 fa10 	vmrs	APSR_nzcv, fpscr
 800190c:	db1a      	blt.n	8001944 <FEB_Normalized_Acc_Pedals+0x174>
		time++;
 800190e:	4b50      	ldr	r3, [pc, #320]	@ (8001a50 <FEB_Normalized_Acc_Pedals+0x280>)
 8001910:	edd3 7a00 	vldr	s15, [r3]
 8001914:	eeb7 7a00 	vmov.f32	s14, #112	@ 0x3f800000  1.0
 8001918:	ee77 7a87 	vadd.f32	s15, s15, s14
 800191c:	4b4c      	ldr	r3, [pc, #304]	@ (8001a50 <FEB_Normalized_Acc_Pedals+0x280>)
 800191e:	edc3 7a00 	vstr	s15, [r3]
		if (time > timeThreshold) {
 8001922:	4b4b      	ldr	r3, [pc, #300]	@ (8001a50 <FEB_Normalized_Acc_Pedals+0x280>)
 8001924:	edd3 7a00 	vldr	s15, [r3]
 8001928:	ed97 7a21 	vldr	s14, [r7, #132]	@ 0x84
 800192c:	eeb4 7ae7 	vcmpe.f32	s14, s15
 8001930:	eef1 fa10 	vmrs	APSR_nzcv, fpscr
 8001934:	d506      	bpl.n	8001944 <FEB_Normalized_Acc_Pedals+0x174>
			time = 0;
 8001936:	4b46      	ldr	r3, [pc, #280]	@ (8001a50 <FEB_Normalized_Acc_Pedals+0x280>)
 8001938:	f04f 0200 	mov.w	r2, #0
 800193c:	601a      	str	r2, [r3, #0]
			return 0.0;
 800193e:	f04f 0300 	mov.w	r3, #0
 8001942:	e05e      	b.n	8001a02 <FEB_Normalized_Acc_Pedals+0x232>
		}
	}

	// Implausiblity check if both pedals are stepped
	if (normalized_brake > 0.2 && normalized_acc > 0.1) {
 8001944:	4b43      	ldr	r3, [pc, #268]	@ (8001a54 <FEB_Normalized_Acc_Pedals+0x284>)
 8001946:	681b      	ldr	r3, [r3, #0]
 8001948:	4618      	mov	r0, r3
 800194a:	f7fe fe1d 	bl	8000588 <__aeabi_f2d>
 800194e:	a334      	add	r3, pc, #208	@ (adr r3, 8001a20 <FEB_Normalized_Acc_Pedals+0x250>)
 8001950:	e9d3 2300 	ldrd	r2, r3, [r3]
 8001954:	f7ff f900 	bl	8000b58 <__aeabi_dcmpgt>
 8001958:	4603      	mov	r3, r0
 800195a:	2b00      	cmp	r3, #0
 800195c:	d00f      	beq.n	800197e <FEB_Normalized_Acc_Pedals+0x1ae>
 800195e:	4b3e      	ldr	r3, [pc, #248]	@ (8001a58 <FEB_Normalized_Acc_Pedals+0x288>)
 8001960:	681b      	ldr	r3, [r3, #0]
 8001962:	4618      	mov	r0, r3
 8001964:	f7fe fe10 	bl	8000588 <__aeabi_f2d>
 8001968:	a32f      	add	r3, pc, #188	@ (adr r3, 8001a28 <FEB_Normalized_Acc_Pedals+0x258>)
 800196a:	e9d3 2300 	ldrd	r2, r3, [r3]
 800196e:	f7ff f8f3 	bl	8000b58 <__aeabi_dcmpgt>
 8001972:	4603      	mov	r3, r0
 8001974:	2b00      	cmp	r3, #0
 8001976:	d002      	beq.n	800197e <FEB_Normalized_Acc_Pedals+0x1ae>
		isImpl = true;
 8001978:	4b30      	ldr	r3, [pc, #192]	@ (8001a3c <FEB_Normalized_Acc_Pedals+0x26c>)
 800197a:	2201      	movs	r2, #1
 800197c:	701a      	strb	r2, [r3, #0]
	}

	// recover from implausibility if acc pedal is not 5% less
	if (final_normalized < 0.05 && isImpl) {
 800197e:	f8d7 008c 	ldr.w	r0, [r7, #140]	@ 0x8c
 8001982:	f7fe fe01 	bl	8000588 <__aeabi_f2d>
 8001986:	a32a      	add	r3, pc, #168	@ (adr r3, 8001a30 <FEB_Normalized_Acc_Pedals+0x260>)
 8001988:	e9d3 2300 	ldrd	r2, r3, [r3]
 800198c:	f7ff f8c6 	bl	8000b1c <__aeabi_dcmplt>
 8001990:	4603      	mov	r3, r0
 8001992:	2b00      	cmp	r3, #0
 8001994:	d006      	beq.n	80019a4 <FEB_Normalized_Acc_Pedals+0x1d4>
 8001996:	4b29      	ldr	r3, [pc, #164]	@ (8001a3c <FEB_Normalized_Acc_Pedals+0x26c>)
 8001998:	781b      	ldrb	r3, [r3, #0]
 800199a:	2b00      	cmp	r3, #0
 800199c:	d002      	beq.n	80019a4 <FEB_Normalized_Acc_Pedals+0x1d4>
		isImpl = false;
 800199e:	4b27      	ldr	r3, [pc, #156]	@ (8001a3c <FEB_Normalized_Acc_Pedals+0x26c>)
 80019a0:	2200      	movs	r2, #0
 80019a2:	701a      	strb	r2, [r3, #0]
	}


	if (!isImpl) {
 80019a4:	4b25      	ldr	r3, [pc, #148]	@ (8001a3c <FEB_Normalized_Acc_Pedals+0x26c>)
 80019a6:	781b      	ldrb	r3, [r3, #0]
 80019a8:	f083 0301 	eor.w	r3, r3, #1
 80019ac:	b2db      	uxtb	r3, r3
 80019ae:	2b00      	cmp	r3, #0
 80019b0:	d025      	beq.n	80019fe <FEB_Normalized_Acc_Pedals+0x22e>
		final_normalized = final_normalized > 1 ? 1 : final_normalized;
 80019b2:	edd7 7a23 	vldr	s15, [r7, #140]	@ 0x8c
 80019b6:	eeb7 7a00 	vmov.f32	s14, #112	@ 0x3f800000  1.0
 80019ba:	eef4 7ac7 	vcmpe.f32	s15, s14
 80019be:	eef1 fa10 	vmrs	APSR_nzcv, fpscr
 80019c2:	dd02      	ble.n	80019ca <FEB_Normalized_Acc_Pedals+0x1fa>
 80019c4:	f04f 537e 	mov.w	r3, #1065353216	@ 0x3f800000
 80019c8:	e001      	b.n	80019ce <FEB_Normalized_Acc_Pedals+0x1fe>
 80019ca:	f8d7 308c 	ldr.w	r3, [r7, #140]	@ 0x8c
 80019ce:	f8c7 308c 	str.w	r3, [r7, #140]	@ 0x8c
		final_normalized = final_normalized < 0.05 ? 0 : final_normalized;
 80019d2:	f8d7 008c 	ldr.w	r0, [r7, #140]	@ 0x8c
 80019d6:	f7fe fdd7 	bl	8000588 <__aeabi_f2d>
 80019da:	a315      	add	r3, pc, #84	@ (adr r3, 8001a30 <FEB_Normalized_Acc_Pedals+0x260>)
 80019dc:	e9d3 2300 	ldrd	r2, r3, [r3]
 80019e0:	f7ff f89c 	bl	8000b1c <__aeabi_dcmplt>
 80019e4:	4603      	mov	r3, r0
 80019e6:	2b00      	cmp	r3, #0
 80019e8:	d002      	beq.n	80019f0 <FEB_Normalized_Acc_Pedals+0x220>
 80019ea:	f04f 0300 	mov.w	r3, #0
 80019ee:	e001      	b.n	80019f4 <FEB_Normalized_Acc_Pedals+0x224>
 80019f0:	f8d7 308c 	ldr.w	r3, [r7, #140]	@ 0x8c
 80019f4:	f8c7 308c 	str.w	r3, [r7, #140]	@ 0x8c
		return final_normalized;
 80019f8:	f8d7 308c 	ldr.w	r3, [r7, #140]	@ 0x8c
 80019fc:	e001      	b.n	8001a02 <FEB_Normalized_Acc_Pedals+0x232>


	} else {
		return 0.0;
 80019fe:	f04f 0300 	mov.w	r3, #0
	}
}
 8001a02:	ee07 3a90 	vmov	s15, r3
 8001a06:	eeb0 0a67 	vmov.f32	s0, s15
 8001a0a:	37a0      	adds	r7, #160	@ 0xa0
 8001a0c:	46bd      	mov	sp, r7
 8001a0e:	bd80      	pop	{r7, pc}
 8001a10:	00000000 	.word	0x00000000
 8001a14:	4097b400 	.word	0x4097b400
 8001a18:	00000000 	.word	0x00000000
 8001a1c:	c064a000 	.word	0xc064a000
 8001a20:	9999999a 	.word	0x9999999a
 8001a24:	3fc99999 	.word	0x3fc99999
 8001a28:	9999999a 	.word	0x9999999a
 8001a2c:	3fb99999 	.word	0x3fb99999
 8001a30:	9999999a 	.word	0x9999999a
 8001a34:	3fa99999 	.word	0x3fa99999
 8001a38:	0800888c 	.word	0x0800888c
 8001a3c:	2000020c 	.word	0x2000020c
 8001a40:	4089a000 	.word	0x4089a000
 8001a44:	408ed000 	.word	0x408ed000
 8001a48:	3dcccccd 	.word	0x3dcccccd
 8001a4c:	447a0000 	.word	0x447a0000
 8001a50:	20000210 	.word	0x20000210
 8001a54:	20000208 	.word	0x20000208
 8001a58:	20000204 	.word	0x20000204

08001a5c <FEB_Normalized_getBrake>:

float FEB_Normalized_getBrake() {
 8001a5c:	b480      	push	{r7}
 8001a5e:	af00      	add	r7, sp, #0
	return normalized_brake;
 8001a60:	4b04      	ldr	r3, [pc, #16]	@ (8001a74 <FEB_Normalized_getBrake+0x18>)
 8001a62:	681b      	ldr	r3, [r3, #0]
 8001a64:	ee07 3a90 	vmov	s15, r3
}
 8001a68:	eeb0 0a67 	vmov.f32	s0, s15
 8001a6c:	46bd      	mov	sp, r7
 8001a6e:	f85d 7b04 	ldr.w	r7, [sp], #4
 8001a72:	4770      	bx	lr
 8001a74:	20000208 	.word	0x20000208

08001a78 <FEB_Normalized_update_Brake>:

void FEB_Normalized_update_Brake() {
 8001a78:	b580      	push	{r7, lr}
 8001a7a:	af00      	add	r7, sp, #0
	normalized_brake = FEB_Normalized_Brake_Pedals();
 8001a7c:	f000 f80c 	bl	8001a98 <FEB_Normalized_Brake_Pedals>
 8001a80:	eef0 7a40 	vmov.f32	s15, s0
 8001a84:	4b02      	ldr	r3, [pc, #8]	@ (8001a90 <FEB_Normalized_update_Brake+0x18>)
 8001a86:	edc3 7a00 	vstr	s15, [r3]
}
 8001a8a:	bf00      	nop
 8001a8c:	bd80      	pop	{r7, pc}
 8001a8e:	bf00      	nop
 8001a90:	20000208 	.word	0x20000208
 8001a94:	00000000 	.word	0x00000000

08001a98 <FEB_Normalized_Brake_Pedals>:

float FEB_Normalized_Brake_Pedals() {
 8001a98:	b580      	push	{r7, lr}
 8001a9a:	b0a4      	sub	sp, #144	@ 0x90
 8001a9c:	af00      	add	r7, sp, #0
	//TODO: This might need to change based on which sensor ends up getting used.
	uint16_t brake_pres_2 =  FEB_Read_ADC(BRAKE_PRESS_2);   //HAL_ADCEx_InjectedGetValue(&hadc1, ADC_INJECTED_RANK_1);
 8001a9e:	200c      	movs	r0, #12
 8001aa0:	f7ff fe32 	bl	8001708 <FEB_Read_ADC>
 8001aa4:	4603      	mov	r3, r0
 8001aa6:	f8a7 308e 	strh.w	r3, [r7, #142]	@ 0x8e

//	HAL_UART_Transmit(&huart2,(uint8_t *)buf, buf_len, HAL_MAX_DELAY);

	float final_normalized = (brake_pres_2 - PRESSURE_START)/ (PRESSURE_END - PRESSURE_START);
 8001aaa:	f8b7 308e 	ldrh.w	r3, [r7, #142]	@ 0x8e
 8001aae:	4618      	mov	r0, r3
 8001ab0:	f7fe fd58 	bl	8000564 <__aeabi_i2d>
 8001ab4:	a335      	add	r3, pc, #212	@ (adr r3, 8001b8c <FEB_Normalized_Brake_Pedals+0xf4>)
 8001ab6:	e9d3 2300 	ldrd	r2, r3, [r3]
 8001aba:	f7fe fc05 	bl	80002c8 <__aeabi_dsub>
 8001abe:	4602      	mov	r2, r0
 8001ac0:	460b      	mov	r3, r1
 8001ac2:	4610      	mov	r0, r2
 8001ac4:	4619      	mov	r1, r3
 8001ac6:	f04f 0200 	mov.w	r2, #0
 8001aca:	4b2d      	ldr	r3, [pc, #180]	@ (8001b80 <FEB_Normalized_Brake_Pedals+0xe8>)
 8001acc:	f7fe fede 	bl	800088c <__aeabi_ddiv>
 8001ad0:	4602      	mov	r2, r0
 8001ad2:	460b      	mov	r3, r1
 8001ad4:	4610      	mov	r0, r2
 8001ad6:	4619      	mov	r1, r3
 8001ad8:	f7ff f886 	bl	8000be8 <__aeabi_d2f>
 8001adc:	4603      	mov	r3, r0
 8001ade:	f8c7 3088 	str.w	r3, [r7, #136]	@ 0x88
	final_normalized = final_normalized > 1 ? 1 : final_normalized;
 8001ae2:	edd7 7a22 	vldr	s15, [r7, #136]	@ 0x88
 8001ae6:	eeb7 7a00 	vmov.f32	s14, #112	@ 0x3f800000  1.0
 8001aea:	eef4 7ac7 	vcmpe.f32	s15, s14
 8001aee:	eef1 fa10 	vmrs	APSR_nzcv, fpscr
 8001af2:	dd02      	ble.n	8001afa <FEB_Normalized_Brake_Pedals+0x62>
 8001af4:	f04f 537e 	mov.w	r3, #1065353216	@ 0x3f800000
 8001af8:	e001      	b.n	8001afe <FEB_Normalized_Brake_Pedals+0x66>
 8001afa:	f8d7 3088 	ldr.w	r3, [r7, #136]	@ 0x88
 8001afe:	f8c7 3088 	str.w	r3, [r7, #136]	@ 0x88
	final_normalized = final_normalized < 0.05 ? 0 : final_normalized;
 8001b02:	f8d7 0088 	ldr.w	r0, [r7, #136]	@ 0x88
 8001b06:	f7fe fd3f 	bl	8000588 <__aeabi_f2d>
 8001b0a:	a31b      	add	r3, pc, #108	@ (adr r3, 8001b78 <FEB_Normalized_Brake_Pedals+0xe0>)
 8001b0c:	e9d3 2300 	ldrd	r2, r3, [r3]
 8001b10:	f7ff f804 	bl	8000b1c <__aeabi_dcmplt>
 8001b14:	4603      	mov	r3, r0
 8001b16:	2b00      	cmp	r3, #0
 8001b18:	d002      	beq.n	8001b20 <FEB_Normalized_Brake_Pedals+0x88>
 8001b1a:	f04f 0300 	mov.w	r3, #0
 8001b1e:	e001      	b.n	8001b24 <FEB_Normalized_Brake_Pedals+0x8c>
 8001b20:	f8d7 3088 	ldr.w	r3, [r7, #136]	@ 0x88
 8001b24:	f8c7 3088 	str.w	r3, [r7, #136]	@ 0x88


	if (brake_pres_2 < PRESSURE_START - 20) {
 8001b28:	f8b7 308e 	ldrh.w	r3, [r7, #142]	@ 0x8e
 8001b2c:	2ba8      	cmp	r3, #168	@ 0xa8
 8001b2e:	d802      	bhi.n	8001b36 <FEB_Normalized_Brake_Pedals+0x9e>
		return 0.0;
 8001b30:	f04f 0300 	mov.w	r3, #0
 8001b34:	e017      	b.n	8001b66 <FEB_Normalized_Brake_Pedals+0xce>
	}

	char buf[128];
	uint8_t buf_len;
	buf_len = sprintf(buf, "brake_Pos: %f\n", final_normalized);
 8001b36:	f8d7 0088 	ldr.w	r0, [r7, #136]	@ 0x88
 8001b3a:	f7fe fd25 	bl	8000588 <__aeabi_f2d>
 8001b3e:	4602      	mov	r2, r0
 8001b40:	460b      	mov	r3, r1
 8001b42:	1d38      	adds	r0, r7, #4
 8001b44:	490f      	ldr	r1, [pc, #60]	@ (8001b84 <FEB_Normalized_Brake_Pedals+0xec>)
 8001b46:	f004 fcd7 	bl	80064f8 <siprintf>
 8001b4a:	4603      	mov	r3, r0
 8001b4c:	f887 3087 	strb.w	r3, [r7, #135]	@ 0x87

	HAL_UART_Transmit(&huart2,(uint8_t *)buf, buf_len, HAL_MAX_DELAY);
 8001b50:	f897 3087 	ldrb.w	r3, [r7, #135]	@ 0x87
 8001b54:	b29a      	uxth	r2, r3
 8001b56:	1d39      	adds	r1, r7, #4
 8001b58:	f04f 33ff 	mov.w	r3, #4294967295	@ 0xffffffff
 8001b5c:	480a      	ldr	r0, [pc, #40]	@ (8001b88 <FEB_Normalized_Brake_Pedals+0xf0>)
 8001b5e:	f003 fbed 	bl	800533c <HAL_UART_Transmit>

	return final_normalized;
 8001b62:	f8d7 3088 	ldr.w	r3, [r7, #136]	@ 0x88
}
 8001b66:	ee07 3a90 	vmov	s15, r3
 8001b6a:	eeb0 0a67 	vmov.f32	s0, s15
 8001b6e:	3790      	adds	r7, #144	@ 0x90
 8001b70:	46bd      	mov	sp, r7
 8001b72:	bd80      	pop	{r7, pc}
 8001b74:	f3af 8000 	nop.w
 8001b78:	9999999a 	.word	0x9999999a
 8001b7c:	3fa99999 	.word	0x3fa99999
 8001b80:	408a2000 	.word	0x408a2000
 8001b84:	080088a0 	.word	0x080088a0
 8001b88:	20000324 	.word	0x20000324
 8001b8c:	00000000 	.word	0x00000000
 8001b90:	4067a000 	.word	0x4067a000

08001b94 <FEB_Normalized_CAN_sendBrake>:

void FEB_Normalized_CAN_sendBrake() {
 8001b94:	b580      	push	{r7, lr}
 8001b96:	b0a4      	sub	sp, #144	@ 0x90
 8001b98:	af00      	add	r7, sp, #0
	// Initialize transmission header
	FEB_CAN_Tx_Header.DLC = 2;
 8001b9a:	4b2a      	ldr	r3, [pc, #168]	@ (8001c44 <FEB_Normalized_CAN_sendBrake+0xb0>)
 8001b9c:	2202      	movs	r2, #2
 8001b9e:	611a      	str	r2, [r3, #16]
	FEB_CAN_Tx_Header.StdId = FEB_CAN_NORMALIZED_BRAKE_FRAME_ID;
 8001ba0:	4b28      	ldr	r3, [pc, #160]	@ (8001c44 <FEB_Normalized_CAN_sendBrake+0xb0>)
 8001ba2:	2204      	movs	r2, #4
 8001ba4:	601a      	str	r2, [r3, #0]
	FEB_CAN_Tx_Header.IDE = CAN_ID_STD;
 8001ba6:	4b27      	ldr	r3, [pc, #156]	@ (8001c44 <FEB_Normalized_CAN_sendBrake+0xb0>)
 8001ba8:	2200      	movs	r2, #0
 8001baa:	609a      	str	r2, [r3, #8]
	FEB_CAN_Tx_Header.RTR = CAN_RTR_DATA;
 8001bac:	4b25      	ldr	r3, [pc, #148]	@ (8001c44 <FEB_Normalized_CAN_sendBrake+0xb0>)
 8001bae:	2200      	movs	r2, #0
 8001bb0:	60da      	str	r2, [r3, #12]
	FEB_CAN_Tx_Header.TransmitGlobalTime = DISABLE;
 8001bb2:	4b24      	ldr	r3, [pc, #144]	@ (8001c44 <FEB_Normalized_CAN_sendBrake+0xb0>)
 8001bb4:	2200      	movs	r2, #0
 8001bb6:	751a      	strb	r2, [r3, #20]

	// Copy data to Tx buffer. This might be incorrect. It's possible you have to do some bit shifting
//	memcpy(FEB_CAN_Tx_Data, &normalized_brake, sizeof(float));
	FEB_Normalized_update_Brake();
 8001bb8:	f7ff ff5e 	bl	8001a78 <FEB_Normalized_update_Brake>
	memcpy(FEB_CAN_Tx_Data, &normalized_brake, sizeof(float)); // maybe?
 8001bbc:	4b22      	ldr	r3, [pc, #136]	@ (8001c48 <FEB_Normalized_CAN_sendBrake+0xb4>)
 8001bbe:	681b      	ldr	r3, [r3, #0]
 8001bc0:	4a22      	ldr	r2, [pc, #136]	@ (8001c4c <FEB_Normalized_CAN_sendBrake+0xb8>)
 8001bc2:	6013      	str	r3, [r2, #0]
	uint8_t converted_brake_val = (uint8_t)(normalized_brake * 100);
 8001bc4:	4b20      	ldr	r3, [pc, #128]	@ (8001c48 <FEB_Normalized_CAN_sendBrake+0xb4>)
 8001bc6:	edd3 7a00 	vldr	s15, [r3]
 8001bca:	ed9f 7a21 	vldr	s14, [pc, #132]	@ 8001c50 <FEB_Normalized_CAN_sendBrake+0xbc>
 8001bce:	ee67 7a87 	vmul.f32	s15, s15, s14
 8001bd2:	eefc 7ae7 	vcvt.u32.f32	s15, s15
 8001bd6:	edc7 7a01 	vstr	s15, [r7, #4]
 8001bda:	793b      	ldrb	r3, [r7, #4]
 8001bdc:	f887 308f 	strb.w	r3, [r7, #143]	@ 0x8f

	FEB_CAN_Tx_Data[0] = converted_brake_val;
 8001be0:	4a1a      	ldr	r2, [pc, #104]	@ (8001c4c <FEB_Normalized_CAN_sendBrake+0xb8>)
 8001be2:	f897 308f 	ldrb.w	r3, [r7, #143]	@ 0x8f
 8001be6:	7013      	strb	r3, [r2, #0]

	//Debug to see the position of the Brake position sensor


	// Delay until mailbox available
	while (HAL_CAN_GetTxMailboxesFreeLevel(&hcan1) == 0) {}
 8001be8:	bf00      	nop
 8001bea:	481a      	ldr	r0, [pc, #104]	@ (8001c54 <FEB_Normalized_CAN_sendBrake+0xc0>)
 8001bec:	f001 fd6e 	bl	80036cc <HAL_CAN_GetTxMailboxesFreeLevel>
 8001bf0:	4603      	mov	r3, r0
 8001bf2:	2b00      	cmp	r3, #0
 8001bf4:	d0f9      	beq.n	8001bea <FEB_Normalized_CAN_sendBrake+0x56>
//
	// Add Tx data to mailbox
	if (HAL_CAN_AddTxMessage(&hcan1, &FEB_CAN_Tx_Header, FEB_CAN_Tx_Data, &FEB_CAN_Tx_Mailbox) != HAL_OK) {
 8001bf6:	4b18      	ldr	r3, [pc, #96]	@ (8001c58 <FEB_Normalized_CAN_sendBrake+0xc4>)
 8001bf8:	4a14      	ldr	r2, [pc, #80]	@ (8001c4c <FEB_Normalized_CAN_sendBrake+0xb8>)
 8001bfa:	4912      	ldr	r1, [pc, #72]	@ (8001c44 <FEB_Normalized_CAN_sendBrake+0xb0>)
 8001bfc:	4815      	ldr	r0, [pc, #84]	@ (8001c54 <FEB_Normalized_CAN_sendBrake+0xc0>)
 8001bfe:	f001 fc95 	bl	800352c <HAL_CAN_AddTxMessage>
 8001c02:	4603      	mov	r3, r0
 8001c04:	2b00      	cmp	r3, #0
 8001c06:	d018      	beq.n	8001c3a <FEB_Normalized_CAN_sendBrake+0xa6>
		//error - shutdown
		char buf[128];
		uint8_t buf_len;
		buf_len = sprintf(buf, "CAN MESSAGE FAIL TO SEND: %f\n", normalized_brake);
 8001c08:	4b0f      	ldr	r3, [pc, #60]	@ (8001c48 <FEB_Normalized_CAN_sendBrake+0xb4>)
 8001c0a:	681b      	ldr	r3, [r3, #0]
 8001c0c:	4618      	mov	r0, r3
 8001c0e:	f7fe fcbb 	bl	8000588 <__aeabi_f2d>
 8001c12:	4602      	mov	r2, r0
 8001c14:	460b      	mov	r3, r1
 8001c16:	f107 000c 	add.w	r0, r7, #12
 8001c1a:	4910      	ldr	r1, [pc, #64]	@ (8001c5c <FEB_Normalized_CAN_sendBrake+0xc8>)
 8001c1c:	f004 fc6c 	bl	80064f8 <siprintf>
 8001c20:	4603      	mov	r3, r0
 8001c22:	f887 308e 	strb.w	r3, [r7, #142]	@ 0x8e
		HAL_UART_Transmit(&huart2,(uint8_t *)buf, buf_len, HAL_MAX_DELAY);
 8001c26:	f897 308e 	ldrb.w	r3, [r7, #142]	@ 0x8e
 8001c2a:	b29a      	uxth	r2, r3
 8001c2c:	f107 010c 	add.w	r1, r7, #12
 8001c30:	f04f 33ff 	mov.w	r3, #4294967295	@ 0xffffffff
 8001c34:	480a      	ldr	r0, [pc, #40]	@ (8001c60 <FEB_Normalized_CAN_sendBrake+0xcc>)
 8001c36:	f003 fb81 	bl	800533c <HAL_UART_Transmit>
	}

}
 8001c3a:	bf00      	nop
 8001c3c:	3790      	adds	r7, #144	@ 0x90
 8001c3e:	46bd      	mov	sp, r7
 8001c40:	bd80      	pop	{r7, pc}
 8001c42:	bf00      	nop
 8001c44:	20000214 	.word	0x20000214
 8001c48:	20000208 	.word	0x20000208
 8001c4c:	20000248 	.word	0x20000248
 8001c50:	42c80000 	.word	0x42c80000
 8001c54:	200002a8 	.word	0x200002a8
 8001c58:	20000258 	.word	0x20000258
 8001c5c:	080088b0 	.word	0x080088b0
 8001c60:	20000324 	.word	0x20000324

08001c64 <FEB_CAN_Init>:
uint32_t FEB_CAN_Tx_Mailbox;
uint8_t setup = 0;

// **************************************** Functions ****************************************

void FEB_CAN_Init(void) {
 8001c64:	b580      	push	{r7, lr}
 8001c66:	af00      	add	r7, sp, #0
	FEB_CAN_Filter_Config();
 8001c68:	f000 f814 	bl	8001c94 <FEB_CAN_Filter_Config>
	if (HAL_CAN_Start(&hcan1) != HAL_OK) {
 8001c6c:	4807      	ldr	r0, [pc, #28]	@ (8001c8c <FEB_CAN_Init+0x28>)
 8001c6e:	f001 fc19 	bl	80034a4 <HAL_CAN_Start>
 8001c72:	4603      	mov	r3, r0
 8001c74:	2b00      	cmp	r3, #0
 8001c76:	d002      	beq.n	8001c7e <FEB_CAN_Init+0x1a>
		setup = 1;
 8001c78:	4b05      	ldr	r3, [pc, #20]	@ (8001c90 <FEB_CAN_Init+0x2c>)
 8001c7a:	2201      	movs	r2, #1
 8001c7c:	701a      	strb	r2, [r3, #0]
        // Code Error - Shutdown
	}
	HAL_CAN_ActivateNotification(&hcan1, CAN_IT_RX_FIFO0_MSG_PENDING);
 8001c7e:	2102      	movs	r1, #2
 8001c80:	4802      	ldr	r0, [pc, #8]	@ (8001c8c <FEB_CAN_Init+0x28>)
 8001c82:	f001 fe7a 	bl	800397a <HAL_CAN_ActivateNotification>
}
 8001c86:	bf00      	nop
 8001c88:	bd80      	pop	{r7, pc}
 8001c8a:	bf00      	nop
 8001c8c:	200002a8 	.word	0x200002a8
 8001c90:	2000025c 	.word	0x2000025c

08001c94 <FEB_CAN_Filter_Config>:

void FEB_CAN_Filter_Config(void) {
 8001c94:	b580      	push	{r7, lr}
 8001c96:	b082      	sub	sp, #8
 8001c98:	af00      	add	r7, sp, #0
	uint8_t filter_bank = 0;
 8001c9a:	2300      	movs	r3, #0
 8001c9c:	71fb      	strb	r3, [r7, #7]
    filter_bank = FEB_CAN_ICS_Filter(&hcan1, CAN_RX_FIFO0, filter_bank);
 8001c9e:	79fb      	ldrb	r3, [r7, #7]
 8001ca0:	461a      	mov	r2, r3
 8001ca2:	2100      	movs	r1, #0
 8001ca4:	480c      	ldr	r0, [pc, #48]	@ (8001cd8 <FEB_CAN_Filter_Config+0x44>)
 8001ca6:	f7ff f9df 	bl	8001068 <FEB_CAN_ICS_Filter>
 8001caa:	4603      	mov	r3, r0
 8001cac:	71fb      	strb	r3, [r7, #7]
    filter_bank = FEB_CAN_BMS_Filter_Config(&hcan1, CAN_RX_FIFO0,  filter_bank);
 8001cae:	79fb      	ldrb	r3, [r7, #7]
 8001cb0:	461a      	mov	r2, r3
 8001cb2:	2100      	movs	r1, #0
 8001cb4:	4808      	ldr	r0, [pc, #32]	@ (8001cd8 <FEB_CAN_Filter_Config+0x44>)
 8001cb6:	f7ff f95f 	bl	8000f78 <FEB_CAN_BMS_Filter_Config>
 8001cba:	4603      	mov	r3, r0
 8001cbc:	71fb      	strb	r3, [r7, #7]
    filter_bank = FEB_CAN_RMS_Filter_Config(&hcan1, CAN_RX_FIFO0, filter_bank);
 8001cbe:	79fb      	ldrb	r3, [r7, #7]
 8001cc0:	461a      	mov	r2, r3
 8001cc2:	2100      	movs	r1, #0
 8001cc4:	4804      	ldr	r0, [pc, #16]	@ (8001cd8 <FEB_CAN_Filter_Config+0x44>)
 8001cc6:	f7ff fbff 	bl	80014c8 <FEB_CAN_RMS_Filter_Config>
 8001cca:	4603      	mov	r3, r0
 8001ccc:	71fb      	strb	r3, [r7, #7]

	// Assign Filter
    // filter_bank = Function(&hcan1, CAN_RX_FIFO0, filter_bank);
}
 8001cce:	bf00      	nop
 8001cd0:	3708      	adds	r7, #8
 8001cd2:	46bd      	mov	sp, r7
 8001cd4:	bd80      	pop	{r7, pc}
 8001cd6:	bf00      	nop
 8001cd8:	200002a8 	.word	0x200002a8

08001cdc <HAL_CAN_RxFifo0MsgPendingCallback>:

void HAL_CAN_RxFifo0MsgPendingCallback(CAN_HandleTypeDef* hcan) {
 8001cdc:	b580      	push	{r7, lr}
 8001cde:	b082      	sub	sp, #8
 8001ce0:	af00      	add	r7, sp, #0
 8001ce2:	6078      	str	r0, [r7, #4]
	if (HAL_CAN_GetRxMessage(hcan, CAN_RX_FIFO0, &FEB_CAN_Rx_Header, FEB_CAN_Rx_Data) == HAL_OK) {
 8001ce4:	4b0c      	ldr	r3, [pc, #48]	@ (8001d18 <HAL_CAN_RxFifo0MsgPendingCallback+0x3c>)
 8001ce6:	4a0d      	ldr	r2, [pc, #52]	@ (8001d1c <HAL_CAN_RxFifo0MsgPendingCallback+0x40>)
 8001ce8:	2100      	movs	r1, #0
 8001cea:	6878      	ldr	r0, [r7, #4]
 8001cec:	f001 fd23 	bl	8003736 <HAL_CAN_GetRxMessage>
 8001cf0:	4603      	mov	r3, r0
 8001cf2:	2b00      	cmp	r3, #0
 8001cf4:	d10b      	bne.n	8001d0e <HAL_CAN_RxFifo0MsgPendingCallback+0x32>
		FEB_CAN_ICS_Store_Msg(&FEB_CAN_Rx_Header, FEB_CAN_Rx_Data);
 8001cf6:	4908      	ldr	r1, [pc, #32]	@ (8001d18 <HAL_CAN_RxFifo0MsgPendingCallback+0x3c>)
 8001cf8:	4808      	ldr	r0, [pc, #32]	@ (8001d1c <HAL_CAN_RxFifo0MsgPendingCallback+0x40>)
 8001cfa:	f7ff f9f7 	bl	80010ec <FEB_CAN_ICS_Store_Msg>
		FEB_CAN_BMS_Store_Msg(&FEB_CAN_Rx_Header, FEB_CAN_Rx_Data);
 8001cfe:	4906      	ldr	r1, [pc, #24]	@ (8001d18 <HAL_CAN_RxFifo0MsgPendingCallback+0x3c>)
 8001d00:	4806      	ldr	r0, [pc, #24]	@ (8001d1c <HAL_CAN_RxFifo0MsgPendingCallback+0x40>)
 8001d02:	f7ff f97d 	bl	8001000 <FEB_CAN_BMS_Store_Msg>
		FEB_CAN_RMS_Store_Msg(&FEB_CAN_Rx_Header, FEB_CAN_Rx_Data);
 8001d06:	4904      	ldr	r1, [pc, #16]	@ (8001d18 <HAL_CAN_RxFifo0MsgPendingCallback+0x3c>)
 8001d08:	4804      	ldr	r0, [pc, #16]	@ (8001d1c <HAL_CAN_RxFifo0MsgPendingCallback+0x40>)
 8001d0a:	f7ff fc21 	bl	8001550 <FEB_CAN_RMS_Store_Msg>

	}
}
 8001d0e:	bf00      	nop
 8001d10:	3708      	adds	r7, #8
 8001d12:	46bd      	mov	sp, r7
 8001d14:	bd80      	pop	{r7, pc}
 8001d16:	bf00      	nop
 8001d18:	20000250 	.word	0x20000250
 8001d1c:	2000022c 	.word	0x2000022c

08001d20 <main>:
/**
  * @brief  The application entry point.
  * @retval int
  */
int main(void)
{
 8001d20:	b580      	push	{r7, lr}
 8001d22:	af00      	add	r7, sp, #0
  /* USER CODE END 1 */

  /* MCU Configuration--------------------------------------------------------*/

  /* Reset of all peripherals, Initializes the Flash interface and the Systick. */
  HAL_Init();
 8001d24:	f000 fca6 	bl	8002674 <HAL_Init>
  /* USER CODE BEGIN Init */

  /* USER CODE END Init */

  /* Configure the system clock */
  SystemClock_Config();
 8001d28:	f000 f810 	bl	8001d4c <SystemClock_Config>
  /* USER CODE BEGIN SysInit */

  /* USER CODE END SysInit */

  /* Initialize all configured peripherals */
  MX_GPIO_Init();
 8001d2c:	f000 f960 	bl	8001ff0 <MX_GPIO_Init>
  MX_USART2_UART_Init();
 8001d30:	f000 f934 	bl	8001f9c <MX_USART2_UART_Init>
  MX_CAN1_Init();
 8001d34:	f000 f8ce 	bl	8001ed4 <MX_CAN1_Init>
  MX_I2C1_Init();
 8001d38:	f000 f902 	bl	8001f40 <MX_I2C1_Init>
  MX_ADC1_Init();
 8001d3c:	f000 f878 	bl	8001e30 <MX_ADC1_Init>
  /* USER CODE BEGIN 2 */
  FEB_Main_Setup();
 8001d40:	f7ff fcae 	bl	80016a0 <FEB_Main_Setup>
  {
    /* USER CODE END WHILE */

    /* USER CODE BEGIN 3 */

	  FEB_Main_While();
 8001d44:	f7ff fcba 	bl	80016bc <FEB_Main_While>
 8001d48:	e7fc      	b.n	8001d44 <main+0x24>
	...

08001d4c <SystemClock_Config>:
/**
  * @brief System Clock Configuration
  * @retval None
  */
void SystemClock_Config(void)
{
 8001d4c:	b580      	push	{r7, lr}
 8001d4e:	b094      	sub	sp, #80	@ 0x50
 8001d50:	af00      	add	r7, sp, #0
  RCC_OscInitTypeDef RCC_OscInitStruct = {0};
 8001d52:	f107 031c 	add.w	r3, r7, #28
 8001d56:	2234      	movs	r2, #52	@ 0x34
 8001d58:	2100      	movs	r1, #0
 8001d5a:	4618      	mov	r0, r3
 8001d5c:	f004 fcae 	bl	80066bc <memset>
  RCC_ClkInitTypeDef RCC_ClkInitStruct = {0};
 8001d60:	f107 0308 	add.w	r3, r7, #8
 8001d64:	2200      	movs	r2, #0
 8001d66:	601a      	str	r2, [r3, #0]
 8001d68:	605a      	str	r2, [r3, #4]
 8001d6a:	609a      	str	r2, [r3, #8]
 8001d6c:	60da      	str	r2, [r3, #12]
 8001d6e:	611a      	str	r2, [r3, #16]

  /** Configure the main internal regulator output voltage
  */
  __HAL_RCC_PWR_CLK_ENABLE();
 8001d70:	2300      	movs	r3, #0
 8001d72:	607b      	str	r3, [r7, #4]
 8001d74:	4b2c      	ldr	r3, [pc, #176]	@ (8001e28 <SystemClock_Config+0xdc>)
 8001d76:	6c1b      	ldr	r3, [r3, #64]	@ 0x40
 8001d78:	4a2b      	ldr	r2, [pc, #172]	@ (8001e28 <SystemClock_Config+0xdc>)
 8001d7a:	f043 5380 	orr.w	r3, r3, #268435456	@ 0x10000000
 8001d7e:	6413      	str	r3, [r2, #64]	@ 0x40
 8001d80:	4b29      	ldr	r3, [pc, #164]	@ (8001e28 <SystemClock_Config+0xdc>)
 8001d82:	6c1b      	ldr	r3, [r3, #64]	@ 0x40
 8001d84:	f003 5380 	and.w	r3, r3, #268435456	@ 0x10000000
 8001d88:	607b      	str	r3, [r7, #4]
 8001d8a:	687b      	ldr	r3, [r7, #4]
  __HAL_PWR_VOLTAGESCALING_CONFIG(PWR_REGULATOR_VOLTAGE_SCALE1);
 8001d8c:	2300      	movs	r3, #0
 8001d8e:	603b      	str	r3, [r7, #0]
 8001d90:	4b26      	ldr	r3, [pc, #152]	@ (8001e2c <SystemClock_Config+0xe0>)
 8001d92:	681b      	ldr	r3, [r3, #0]
 8001d94:	4a25      	ldr	r2, [pc, #148]	@ (8001e2c <SystemClock_Config+0xe0>)
 8001d96:	f443 4340 	orr.w	r3, r3, #49152	@ 0xc000
 8001d9a:	6013      	str	r3, [r2, #0]
 8001d9c:	4b23      	ldr	r3, [pc, #140]	@ (8001e2c <SystemClock_Config+0xe0>)
 8001d9e:	681b      	ldr	r3, [r3, #0]
 8001da0:	f403 4340 	and.w	r3, r3, #49152	@ 0xc000
 8001da4:	603b      	str	r3, [r7, #0]
 8001da6:	683b      	ldr	r3, [r7, #0]

  /** Initializes the RCC Oscillators according to the specified parameters
  * in the RCC_OscInitTypeDef structure.
  */
  RCC_OscInitStruct.OscillatorType = RCC_OSCILLATORTYPE_HSE;
 8001da8:	2301      	movs	r3, #1
 8001daa:	61fb      	str	r3, [r7, #28]
  RCC_OscInitStruct.HSEState = RCC_HSE_ON;
 8001dac:	f44f 3380 	mov.w	r3, #65536	@ 0x10000
 8001db0:	623b      	str	r3, [r7, #32]
  RCC_OscInitStruct.PLL.PLLState = RCC_PLL_ON;
 8001db2:	2302      	movs	r3, #2
 8001db4:	637b      	str	r3, [r7, #52]	@ 0x34
  RCC_OscInitStruct.PLL.PLLSource = RCC_PLLSOURCE_HSE;
 8001db6:	f44f 0380 	mov.w	r3, #4194304	@ 0x400000
 8001dba:	63bb      	str	r3, [r7, #56]	@ 0x38
  RCC_OscInitStruct.PLL.PLLM = 4;
 8001dbc:	2304      	movs	r3, #4
 8001dbe:	63fb      	str	r3, [r7, #60]	@ 0x3c
  RCC_OscInitStruct.PLL.PLLN = 180;
 8001dc0:	23b4      	movs	r3, #180	@ 0xb4
 8001dc2:	643b      	str	r3, [r7, #64]	@ 0x40
  RCC_OscInitStruct.PLL.PLLP = RCC_PLLP_DIV2;
 8001dc4:	2302      	movs	r3, #2
 8001dc6:	647b      	str	r3, [r7, #68]	@ 0x44
  RCC_OscInitStruct.PLL.PLLQ = 2;
 8001dc8:	2302      	movs	r3, #2
 8001dca:	64bb      	str	r3, [r7, #72]	@ 0x48
  RCC_OscInitStruct.PLL.PLLR = 2;
 8001dcc:	2302      	movs	r3, #2
 8001dce:	64fb      	str	r3, [r7, #76]	@ 0x4c
  if (HAL_RCC_OscConfig(&RCC_OscInitStruct) != HAL_OK)
 8001dd0:	f107 031c 	add.w	r3, r7, #28
 8001dd4:	4618      	mov	r0, r3
 8001dd6:	f002 ffc3 	bl	8004d60 <HAL_RCC_OscConfig>
 8001dda:	4603      	mov	r3, r0
 8001ddc:	2b00      	cmp	r3, #0
 8001dde:	d001      	beq.n	8001de4 <SystemClock_Config+0x98>
  {
    Error_Handler();
 8001de0:	f000 f98c 	bl	80020fc <Error_Handler>
  }

  /** Activate the Over-Drive mode
  */
  if (HAL_PWREx_EnableOverDrive() != HAL_OK)
 8001de4:	f002 fc22 	bl	800462c <HAL_PWREx_EnableOverDrive>
 8001de8:	4603      	mov	r3, r0
 8001dea:	2b00      	cmp	r3, #0
 8001dec:	d001      	beq.n	8001df2 <SystemClock_Config+0xa6>
  {
    Error_Handler();
 8001dee:	f000 f985 	bl	80020fc <Error_Handler>
  }

  /** Initializes the CPU, AHB and APB buses clocks
  */
  RCC_ClkInitStruct.ClockType = RCC_CLOCKTYPE_HCLK|RCC_CLOCKTYPE_SYSCLK
 8001df2:	230f      	movs	r3, #15
 8001df4:	60bb      	str	r3, [r7, #8]
                              |RCC_CLOCKTYPE_PCLK1|RCC_CLOCKTYPE_PCLK2;
  RCC_ClkInitStruct.SYSCLKSource = RCC_SYSCLKSOURCE_PLLCLK;
 8001df6:	2302      	movs	r3, #2
 8001df8:	60fb      	str	r3, [r7, #12]
  RCC_ClkInitStruct.AHBCLKDivider = RCC_SYSCLK_DIV1;
 8001dfa:	2300      	movs	r3, #0
 8001dfc:	613b      	str	r3, [r7, #16]
  RCC_ClkInitStruct.APB1CLKDivider = RCC_HCLK_DIV4;
 8001dfe:	f44f 53a0 	mov.w	r3, #5120	@ 0x1400
 8001e02:	617b      	str	r3, [r7, #20]
  RCC_ClkInitStruct.APB2CLKDivider = RCC_HCLK_DIV2;
 8001e04:	f44f 5380 	mov.w	r3, #4096	@ 0x1000
 8001e08:	61bb      	str	r3, [r7, #24]

  if (HAL_RCC_ClockConfig(&RCC_ClkInitStruct, FLASH_LATENCY_5) != HAL_OK)
 8001e0a:	f107 0308 	add.w	r3, r7, #8
 8001e0e:	2105      	movs	r1, #5
 8001e10:	4618      	mov	r0, r3
 8001e12:	f002 fc5b 	bl	80046cc <HAL_RCC_ClockConfig>
 8001e16:	4603      	mov	r3, r0
 8001e18:	2b00      	cmp	r3, #0
 8001e1a:	d001      	beq.n	8001e20 <SystemClock_Config+0xd4>
  {
    Error_Handler();
 8001e1c:	f000 f96e 	bl	80020fc <Error_Handler>
  }
}
 8001e20:	bf00      	nop
 8001e22:	3750      	adds	r7, #80	@ 0x50
 8001e24:	46bd      	mov	sp, r7
 8001e26:	bd80      	pop	{r7, pc}
 8001e28:	40023800 	.word	0x40023800
 8001e2c:	40007000 	.word	0x40007000

08001e30 <MX_ADC1_Init>:
  * @brief ADC1 Initialization Function
  * @param None
  * @retval None
  */
static void MX_ADC1_Init(void)
{
 8001e30:	b580      	push	{r7, lr}
 8001e32:	b084      	sub	sp, #16
 8001e34:	af00      	add	r7, sp, #0

  /* USER CODE BEGIN ADC1_Init 0 */

  /* USER CODE END ADC1_Init 0 */

  ADC_ChannelConfTypeDef sConfig = {0};
 8001e36:	463b      	mov	r3, r7
 8001e38:	2200      	movs	r2, #0
 8001e3a:	601a      	str	r2, [r3, #0]
 8001e3c:	605a      	str	r2, [r3, #4]
 8001e3e:	609a      	str	r2, [r3, #8]
 8001e40:	60da      	str	r2, [r3, #12]

  /* USER CODE END ADC1_Init 1 */

  /** Configure the global features of the ADC (Clock, Resolution, Data Alignment and number of conversion)
  */
  hadc1.Instance = ADC1;
 8001e42:	4b21      	ldr	r3, [pc, #132]	@ (8001ec8 <MX_ADC1_Init+0x98>)
 8001e44:	4a21      	ldr	r2, [pc, #132]	@ (8001ecc <MX_ADC1_Init+0x9c>)
 8001e46:	601a      	str	r2, [r3, #0]
  hadc1.Init.ClockPrescaler = ADC_CLOCK_SYNC_PCLK_DIV4;
 8001e48:	4b1f      	ldr	r3, [pc, #124]	@ (8001ec8 <MX_ADC1_Init+0x98>)
 8001e4a:	f44f 3280 	mov.w	r2, #65536	@ 0x10000
 8001e4e:	605a      	str	r2, [r3, #4]
  hadc1.Init.Resolution = ADC_RESOLUTION_12B;
 8001e50:	4b1d      	ldr	r3, [pc, #116]	@ (8001ec8 <MX_ADC1_Init+0x98>)
 8001e52:	2200      	movs	r2, #0
 8001e54:	609a      	str	r2, [r3, #8]
  hadc1.Init.ScanConvMode = DISABLE;
 8001e56:	4b1c      	ldr	r3, [pc, #112]	@ (8001ec8 <MX_ADC1_Init+0x98>)
 8001e58:	2200      	movs	r2, #0
 8001e5a:	611a      	str	r2, [r3, #16]
  hadc1.Init.ContinuousConvMode = DISABLE;
 8001e5c:	4b1a      	ldr	r3, [pc, #104]	@ (8001ec8 <MX_ADC1_Init+0x98>)
 8001e5e:	2200      	movs	r2, #0
 8001e60:	761a      	strb	r2, [r3, #24]
  hadc1.Init.DiscontinuousConvMode = DISABLE;
 8001e62:	4b19      	ldr	r3, [pc, #100]	@ (8001ec8 <MX_ADC1_Init+0x98>)
 8001e64:	2200      	movs	r2, #0
 8001e66:	f883 2020 	strb.w	r2, [r3, #32]
  hadc1.Init.ExternalTrigConvEdge = ADC_EXTERNALTRIGCONVEDGE_NONE;
 8001e6a:	4b17      	ldr	r3, [pc, #92]	@ (8001ec8 <MX_ADC1_Init+0x98>)
 8001e6c:	2200      	movs	r2, #0
 8001e6e:	62da      	str	r2, [r3, #44]	@ 0x2c
  hadc1.Init.ExternalTrigConv = ADC_SOFTWARE_START;
 8001e70:	4b15      	ldr	r3, [pc, #84]	@ (8001ec8 <MX_ADC1_Init+0x98>)
 8001e72:	4a17      	ldr	r2, [pc, #92]	@ (8001ed0 <MX_ADC1_Init+0xa0>)
 8001e74:	629a      	str	r2, [r3, #40]	@ 0x28
  hadc1.Init.DataAlign = ADC_DATAALIGN_RIGHT;
 8001e76:	4b14      	ldr	r3, [pc, #80]	@ (8001ec8 <MX_ADC1_Init+0x98>)
 8001e78:	2200      	movs	r2, #0
 8001e7a:	60da      	str	r2, [r3, #12]
  hadc1.Init.NbrOfConversion = 1;
 8001e7c:	4b12      	ldr	r3, [pc, #72]	@ (8001ec8 <MX_ADC1_Init+0x98>)
 8001e7e:	2201      	movs	r2, #1
 8001e80:	61da      	str	r2, [r3, #28]
  hadc1.Init.DMAContinuousRequests = DISABLE;
 8001e82:	4b11      	ldr	r3, [pc, #68]	@ (8001ec8 <MX_ADC1_Init+0x98>)
 8001e84:	2200      	movs	r2, #0
 8001e86:	f883 2030 	strb.w	r2, [r3, #48]	@ 0x30
  hadc1.Init.EOCSelection = ADC_EOC_SINGLE_CONV;
 8001e8a:	4b0f      	ldr	r3, [pc, #60]	@ (8001ec8 <MX_ADC1_Init+0x98>)
 8001e8c:	2201      	movs	r2, #1
 8001e8e:	615a      	str	r2, [r3, #20]
  if (HAL_ADC_Init(&hadc1) != HAL_OK)
 8001e90:	480d      	ldr	r0, [pc, #52]	@ (8001ec8 <MX_ADC1_Init+0x98>)
 8001e92:	f000 fc85 	bl	80027a0 <HAL_ADC_Init>
 8001e96:	4603      	mov	r3, r0
 8001e98:	2b00      	cmp	r3, #0
 8001e9a:	d001      	beq.n	8001ea0 <MX_ADC1_Init+0x70>
  {
    Error_Handler();
 8001e9c:	f000 f92e 	bl	80020fc <Error_Handler>
  }

  /** Configure for the selected ADC regular channel its corresponding rank in the sequencer and its sample time.
  */
  sConfig.Channel = ADC_CHANNEL_1;
 8001ea0:	2301      	movs	r3, #1
 8001ea2:	603b      	str	r3, [r7, #0]
  sConfig.Rank = 1;
 8001ea4:	2301      	movs	r3, #1
 8001ea6:	607b      	str	r3, [r7, #4]
  sConfig.SamplingTime = ADC_SAMPLETIME_3CYCLES;
 8001ea8:	2300      	movs	r3, #0
 8001eaa:	60bb      	str	r3, [r7, #8]
  if (HAL_ADC_ConfigChannel(&hadc1, &sConfig) != HAL_OK)
 8001eac:	463b      	mov	r3, r7
 8001eae:	4619      	mov	r1, r3
 8001eb0:	4805      	ldr	r0, [pc, #20]	@ (8001ec8 <MX_ADC1_Init+0x98>)
 8001eb2:	f000 fe23 	bl	8002afc <HAL_ADC_ConfigChannel>
 8001eb6:	4603      	mov	r3, r0
 8001eb8:	2b00      	cmp	r3, #0
 8001eba:	d001      	beq.n	8001ec0 <MX_ADC1_Init+0x90>
  {
    Error_Handler();
 8001ebc:	f000 f91e 	bl	80020fc <Error_Handler>
  }
  /* USER CODE BEGIN ADC1_Init 2 */

  /* USER CODE END ADC1_Init 2 */

}
 8001ec0:	bf00      	nop
 8001ec2:	3710      	adds	r7, #16
 8001ec4:	46bd      	mov	sp, r7
 8001ec6:	bd80      	pop	{r7, pc}
 8001ec8:	20000260 	.word	0x20000260
 8001ecc:	40012000 	.word	0x40012000
 8001ed0:	0f000001 	.word	0x0f000001

08001ed4 <MX_CAN1_Init>:
  * @brief CAN1 Initialization Function
  * @param None
  * @retval None
  */
static void MX_CAN1_Init(void)
{
 8001ed4:	b580      	push	{r7, lr}
 8001ed6:	af00      	add	r7, sp, #0
  /* USER CODE END CAN1_Init 0 */

  /* USER CODE BEGIN CAN1_Init 1 */

  /* USER CODE END CAN1_Init 1 */
  hcan1.Instance = CAN1;
 8001ed8:	4b17      	ldr	r3, [pc, #92]	@ (8001f38 <MX_CAN1_Init+0x64>)
 8001eda:	4a18      	ldr	r2, [pc, #96]	@ (8001f3c <MX_CAN1_Init+0x68>)
 8001edc:	601a      	str	r2, [r3, #0]
  hcan1.Init.Prescaler = 18;
 8001ede:	4b16      	ldr	r3, [pc, #88]	@ (8001f38 <MX_CAN1_Init+0x64>)
 8001ee0:	2212      	movs	r2, #18
 8001ee2:	605a      	str	r2, [r3, #4]
  hcan1.Init.Mode = CAN_MODE_NORMAL;
 8001ee4:	4b14      	ldr	r3, [pc, #80]	@ (8001f38 <MX_CAN1_Init+0x64>)
 8001ee6:	2200      	movs	r2, #0
 8001ee8:	609a      	str	r2, [r3, #8]
  hcan1.Init.SyncJumpWidth = CAN_SJW_1TQ;
 8001eea:	4b13      	ldr	r3, [pc, #76]	@ (8001f38 <MX_CAN1_Init+0x64>)
 8001eec:	2200      	movs	r2, #0
 8001eee:	60da      	str	r2, [r3, #12]
  hcan1.Init.TimeSeg1 = CAN_BS1_3TQ;
 8001ef0:	4b11      	ldr	r3, [pc, #68]	@ (8001f38 <MX_CAN1_Init+0x64>)
 8001ef2:	f44f 3200 	mov.w	r2, #131072	@ 0x20000
 8001ef6:	611a      	str	r2, [r3, #16]
  hcan1.Init.TimeSeg2 = CAN_BS2_1TQ;
 8001ef8:	4b0f      	ldr	r3, [pc, #60]	@ (8001f38 <MX_CAN1_Init+0x64>)
 8001efa:	2200      	movs	r2, #0
 8001efc:	615a      	str	r2, [r3, #20]
  hcan1.Init.TimeTriggeredMode = DISABLE;
 8001efe:	4b0e      	ldr	r3, [pc, #56]	@ (8001f38 <MX_CAN1_Init+0x64>)
 8001f00:	2200      	movs	r2, #0
 8001f02:	761a      	strb	r2, [r3, #24]
  hcan1.Init.AutoBusOff = DISABLE;
 8001f04:	4b0c      	ldr	r3, [pc, #48]	@ (8001f38 <MX_CAN1_Init+0x64>)
 8001f06:	2200      	movs	r2, #0
 8001f08:	765a      	strb	r2, [r3, #25]
  hcan1.Init.AutoWakeUp = DISABLE;
 8001f0a:	4b0b      	ldr	r3, [pc, #44]	@ (8001f38 <MX_CAN1_Init+0x64>)
 8001f0c:	2200      	movs	r2, #0
 8001f0e:	769a      	strb	r2, [r3, #26]
  hcan1.Init.AutoRetransmission = DISABLE;
 8001f10:	4b09      	ldr	r3, [pc, #36]	@ (8001f38 <MX_CAN1_Init+0x64>)
 8001f12:	2200      	movs	r2, #0
 8001f14:	76da      	strb	r2, [r3, #27]
  hcan1.Init.ReceiveFifoLocked = DISABLE;
 8001f16:	4b08      	ldr	r3, [pc, #32]	@ (8001f38 <MX_CAN1_Init+0x64>)
 8001f18:	2200      	movs	r2, #0
 8001f1a:	771a      	strb	r2, [r3, #28]
  hcan1.Init.TransmitFifoPriority = DISABLE;
 8001f1c:	4b06      	ldr	r3, [pc, #24]	@ (8001f38 <MX_CAN1_Init+0x64>)
 8001f1e:	2200      	movs	r2, #0
 8001f20:	775a      	strb	r2, [r3, #29]
  if (HAL_CAN_Init(&hcan1) != HAL_OK)
 8001f22:	4805      	ldr	r0, [pc, #20]	@ (8001f38 <MX_CAN1_Init+0x64>)
 8001f24:	f001 f8e2 	bl	80030ec <HAL_CAN_Init>
 8001f28:	4603      	mov	r3, r0
 8001f2a:	2b00      	cmp	r3, #0
 8001f2c:	d001      	beq.n	8001f32 <MX_CAN1_Init+0x5e>
  {
    Error_Handler();
 8001f2e:	f000 f8e5 	bl	80020fc <Error_Handler>
  }
  /* USER CODE BEGIN CAN1_Init 2 */

  /* USER CODE END CAN1_Init 2 */

}
 8001f32:	bf00      	nop
 8001f34:	bd80      	pop	{r7, pc}
 8001f36:	bf00      	nop
 8001f38:	200002a8 	.word	0x200002a8
 8001f3c:	40006400 	.word	0x40006400

08001f40 <MX_I2C1_Init>:
  * @brief I2C1 Initialization Function
  * @param None
  * @retval None
  */
static void MX_I2C1_Init(void)
{
 8001f40:	b580      	push	{r7, lr}
 8001f42:	af00      	add	r7, sp, #0
  /* USER CODE END I2C1_Init 0 */

  /* USER CODE BEGIN I2C1_Init 1 */

  /* USER CODE END I2C1_Init 1 */
  hi2c1.Instance = I2C1;
 8001f44:	4b12      	ldr	r3, [pc, #72]	@ (8001f90 <MX_I2C1_Init+0x50>)
 8001f46:	4a13      	ldr	r2, [pc, #76]	@ (8001f94 <MX_I2C1_Init+0x54>)
 8001f48:	601a      	str	r2, [r3, #0]
  hi2c1.Init.ClockSpeed = 100000;
 8001f4a:	4b11      	ldr	r3, [pc, #68]	@ (8001f90 <MX_I2C1_Init+0x50>)
 8001f4c:	4a12      	ldr	r2, [pc, #72]	@ (8001f98 <MX_I2C1_Init+0x58>)
 8001f4e:	605a      	str	r2, [r3, #4]
  hi2c1.Init.DutyCycle = I2C_DUTYCYCLE_2;
 8001f50:	4b0f      	ldr	r3, [pc, #60]	@ (8001f90 <MX_I2C1_Init+0x50>)
 8001f52:	2200      	movs	r2, #0
 8001f54:	609a      	str	r2, [r3, #8]
  hi2c1.Init.OwnAddress1 = 0;
 8001f56:	4b0e      	ldr	r3, [pc, #56]	@ (8001f90 <MX_I2C1_Init+0x50>)
 8001f58:	2200      	movs	r2, #0
 8001f5a:	60da      	str	r2, [r3, #12]
  hi2c1.Init.AddressingMode = I2C_ADDRESSINGMODE_7BIT;
 8001f5c:	4b0c      	ldr	r3, [pc, #48]	@ (8001f90 <MX_I2C1_Init+0x50>)
 8001f5e:	f44f 4280 	mov.w	r2, #16384	@ 0x4000
 8001f62:	611a      	str	r2, [r3, #16]
  hi2c1.Init.DualAddressMode = I2C_DUALADDRESS_DISABLE;
 8001f64:	4b0a      	ldr	r3, [pc, #40]	@ (8001f90 <MX_I2C1_Init+0x50>)
 8001f66:	2200      	movs	r2, #0
 8001f68:	615a      	str	r2, [r3, #20]
  hi2c1.Init.OwnAddress2 = 0;
 8001f6a:	4b09      	ldr	r3, [pc, #36]	@ (8001f90 <MX_I2C1_Init+0x50>)
 8001f6c:	2200      	movs	r2, #0
 8001f6e:	619a      	str	r2, [r3, #24]
  hi2c1.Init.GeneralCallMode = I2C_GENERALCALL_DISABLE;
 8001f70:	4b07      	ldr	r3, [pc, #28]	@ (8001f90 <MX_I2C1_Init+0x50>)
 8001f72:	2200      	movs	r2, #0
 8001f74:	61da      	str	r2, [r3, #28]
  hi2c1.Init.NoStretchMode = I2C_NOSTRETCH_DISABLE;
 8001f76:	4b06      	ldr	r3, [pc, #24]	@ (8001f90 <MX_I2C1_Init+0x50>)
 8001f78:	2200      	movs	r2, #0
 8001f7a:	621a      	str	r2, [r3, #32]
  if (HAL_I2C_Init(&hi2c1) != HAL_OK)
 8001f7c:	4804      	ldr	r0, [pc, #16]	@ (8001f90 <MX_I2C1_Init+0x50>)
 8001f7e:	f002 fa11 	bl	80043a4 <HAL_I2C_Init>
 8001f82:	4603      	mov	r3, r0
 8001f84:	2b00      	cmp	r3, #0
 8001f86:	d001      	beq.n	8001f8c <MX_I2C1_Init+0x4c>
  {
    Error_Handler();
 8001f88:	f000 f8b8 	bl	80020fc <Error_Handler>
  }
  /* USER CODE BEGIN I2C1_Init 2 */

  /* USER CODE END I2C1_Init 2 */

}
 8001f8c:	bf00      	nop
 8001f8e:	bd80      	pop	{r7, pc}
 8001f90:	200002d0 	.word	0x200002d0
 8001f94:	40005400 	.word	0x40005400
 8001f98:	000186a0 	.word	0x000186a0

08001f9c <MX_USART2_UART_Init>:
  * @brief USART2 Initialization Function
  * @param None
  * @retval None
  */
static void MX_USART2_UART_Init(void)
{
 8001f9c:	b580      	push	{r7, lr}
 8001f9e:	af00      	add	r7, sp, #0
  /* USER CODE END USART2_Init 0 */

  /* USER CODE BEGIN USART2_Init 1 */

  /* USER CODE END USART2_Init 1 */
  huart2.Instance = USART2;
 8001fa0:	4b11      	ldr	r3, [pc, #68]	@ (8001fe8 <MX_USART2_UART_Init+0x4c>)
 8001fa2:	4a12      	ldr	r2, [pc, #72]	@ (8001fec <MX_USART2_UART_Init+0x50>)
 8001fa4:	601a      	str	r2, [r3, #0]
  huart2.Init.BaudRate = 115200;
 8001fa6:	4b10      	ldr	r3, [pc, #64]	@ (8001fe8 <MX_USART2_UART_Init+0x4c>)
 8001fa8:	f44f 32e1 	mov.w	r2, #115200	@ 0x1c200
 8001fac:	605a      	str	r2, [r3, #4]
  huart2.Init.WordLength = UART_WORDLENGTH_8B;
 8001fae:	4b0e      	ldr	r3, [pc, #56]	@ (8001fe8 <MX_USART2_UART_Init+0x4c>)
 8001fb0:	2200      	movs	r2, #0
 8001fb2:	609a      	str	r2, [r3, #8]
  huart2.Init.StopBits = UART_STOPBITS_1;
 8001fb4:	4b0c      	ldr	r3, [pc, #48]	@ (8001fe8 <MX_USART2_UART_Init+0x4c>)
 8001fb6:	2200      	movs	r2, #0
 8001fb8:	60da      	str	r2, [r3, #12]
  huart2.Init.Parity = UART_PARITY_NONE;
 8001fba:	4b0b      	ldr	r3, [pc, #44]	@ (8001fe8 <MX_USART2_UART_Init+0x4c>)
 8001fbc:	2200      	movs	r2, #0
 8001fbe:	611a      	str	r2, [r3, #16]
  huart2.Init.Mode = UART_MODE_TX_RX;
 8001fc0:	4b09      	ldr	r3, [pc, #36]	@ (8001fe8 <MX_USART2_UART_Init+0x4c>)
 8001fc2:	220c      	movs	r2, #12
 8001fc4:	615a      	str	r2, [r3, #20]
  huart2.Init.HwFlowCtl = UART_HWCONTROL_NONE;
 8001fc6:	4b08      	ldr	r3, [pc, #32]	@ (8001fe8 <MX_USART2_UART_Init+0x4c>)
 8001fc8:	2200      	movs	r2, #0
 8001fca:	619a      	str	r2, [r3, #24]
  huart2.Init.OverSampling = UART_OVERSAMPLING_16;
 8001fcc:	4b06      	ldr	r3, [pc, #24]	@ (8001fe8 <MX_USART2_UART_Init+0x4c>)
 8001fce:	2200      	movs	r2, #0
 8001fd0:	61da      	str	r2, [r3, #28]
  if (HAL_UART_Init(&huart2) != HAL_OK)
 8001fd2:	4805      	ldr	r0, [pc, #20]	@ (8001fe8 <MX_USART2_UART_Init+0x4c>)
 8001fd4:	f003 f962 	bl	800529c <HAL_UART_Init>
 8001fd8:	4603      	mov	r3, r0
 8001fda:	2b00      	cmp	r3, #0
 8001fdc:	d001      	beq.n	8001fe2 <MX_USART2_UART_Init+0x46>
  {
    Error_Handler();
 8001fde:	f000 f88d 	bl	80020fc <Error_Handler>
  }
  /* USER CODE BEGIN USART2_Init 2 */

  /* USER CODE END USART2_Init 2 */

}
 8001fe2:	bf00      	nop
 8001fe4:	bd80      	pop	{r7, pc}
 8001fe6:	bf00      	nop
 8001fe8:	20000324 	.word	0x20000324
 8001fec:	40004400 	.word	0x40004400

08001ff0 <MX_GPIO_Init>:
  * @brief GPIO Initialization Function
  * @param None
  * @retval None
  */
static void MX_GPIO_Init(void)
{
 8001ff0:	b580      	push	{r7, lr}
 8001ff2:	b08a      	sub	sp, #40	@ 0x28
 8001ff4:	af00      	add	r7, sp, #0
  GPIO_InitTypeDef GPIO_InitStruct = {0};
 8001ff6:	f107 0314 	add.w	r3, r7, #20
 8001ffa:	2200      	movs	r2, #0
 8001ffc:	601a      	str	r2, [r3, #0]
 8001ffe:	605a      	str	r2, [r3, #4]
 8002000:	609a      	str	r2, [r3, #8]
 8002002:	60da      	str	r2, [r3, #12]
 8002004:	611a      	str	r2, [r3, #16]
/* USER CODE BEGIN MX_GPIO_Init_1 */
/* USER CODE END MX_GPIO_Init_1 */

  /* GPIO Ports Clock Enable */
  __HAL_RCC_GPIOC_CLK_ENABLE();
 8002006:	2300      	movs	r3, #0
 8002008:	613b      	str	r3, [r7, #16]
 800200a:	4b39      	ldr	r3, [pc, #228]	@ (80020f0 <MX_GPIO_Init+0x100>)
 800200c:	6b1b      	ldr	r3, [r3, #48]	@ 0x30
 800200e:	4a38      	ldr	r2, [pc, #224]	@ (80020f0 <MX_GPIO_Init+0x100>)
 8002010:	f043 0304 	orr.w	r3, r3, #4
 8002014:	6313      	str	r3, [r2, #48]	@ 0x30
 8002016:	4b36      	ldr	r3, [pc, #216]	@ (80020f0 <MX_GPIO_Init+0x100>)
 8002018:	6b1b      	ldr	r3, [r3, #48]	@ 0x30
 800201a:	f003 0304 	and.w	r3, r3, #4
 800201e:	613b      	str	r3, [r7, #16]
 8002020:	693b      	ldr	r3, [r7, #16]
  __HAL_RCC_GPIOH_CLK_ENABLE();
 8002022:	2300      	movs	r3, #0
 8002024:	60fb      	str	r3, [r7, #12]
 8002026:	4b32      	ldr	r3, [pc, #200]	@ (80020f0 <MX_GPIO_Init+0x100>)
 8002028:	6b1b      	ldr	r3, [r3, #48]	@ 0x30
 800202a:	4a31      	ldr	r2, [pc, #196]	@ (80020f0 <MX_GPIO_Init+0x100>)
 800202c:	f043 0380 	orr.w	r3, r3, #128	@ 0x80
 8002030:	6313      	str	r3, [r2, #48]	@ 0x30
 8002032:	4b2f      	ldr	r3, [pc, #188]	@ (80020f0 <MX_GPIO_Init+0x100>)
 8002034:	6b1b      	ldr	r3, [r3, #48]	@ 0x30
 8002036:	f003 0380 	and.w	r3, r3, #128	@ 0x80
 800203a:	60fb      	str	r3, [r7, #12]
 800203c:	68fb      	ldr	r3, [r7, #12]
  __HAL_RCC_GPIOA_CLK_ENABLE();
 800203e:	2300      	movs	r3, #0
 8002040:	60bb      	str	r3, [r7, #8]
 8002042:	4b2b      	ldr	r3, [pc, #172]	@ (80020f0 <MX_GPIO_Init+0x100>)
 8002044:	6b1b      	ldr	r3, [r3, #48]	@ 0x30
 8002046:	4a2a      	ldr	r2, [pc, #168]	@ (80020f0 <MX_GPIO_Init+0x100>)
 8002048:	f043 0301 	orr.w	r3, r3, #1
 800204c:	6313      	str	r3, [r2, #48]	@ 0x30
 800204e:	4b28      	ldr	r3, [pc, #160]	@ (80020f0 <MX_GPIO_Init+0x100>)
 8002050:	6b1b      	ldr	r3, [r3, #48]	@ 0x30
 8002052:	f003 0301 	and.w	r3, r3, #1
 8002056:	60bb      	str	r3, [r7, #8]
 8002058:	68bb      	ldr	r3, [r7, #8]
  __HAL_RCC_GPIOB_CLK_ENABLE();
 800205a:	2300      	movs	r3, #0
 800205c:	607b      	str	r3, [r7, #4]
 800205e:	4b24      	ldr	r3, [pc, #144]	@ (80020f0 <MX_GPIO_Init+0x100>)
 8002060:	6b1b      	ldr	r3, [r3, #48]	@ 0x30
 8002062:	4a23      	ldr	r2, [pc, #140]	@ (80020f0 <MX_GPIO_Init+0x100>)
 8002064:	f043 0302 	orr.w	r3, r3, #2
 8002068:	6313      	str	r3, [r2, #48]	@ 0x30
 800206a:	4b21      	ldr	r3, [pc, #132]	@ (80020f0 <MX_GPIO_Init+0x100>)
 800206c:	6b1b      	ldr	r3, [r3, #48]	@ 0x30
 800206e:	f003 0302 	and.w	r3, r3, #2
 8002072:	607b      	str	r3, [r7, #4]
 8002074:	687b      	ldr	r3, [r7, #4]

  /*Configure GPIO pin Output Level */
  HAL_GPIO_WritePin(GPIOC, IVMeter_IND_Pin|RST_Pin, GPIO_PIN_RESET);
 8002076:	2200      	movs	r2, #0
 8002078:	2103      	movs	r1, #3
 800207a:	481e      	ldr	r0, [pc, #120]	@ (80020f4 <MX_GPIO_Init+0x104>)
 800207c:	f002 f978 	bl	8004370 <HAL_GPIO_WritePin>

  /*Configure GPIO pin : B1_Pin */
  GPIO_InitStruct.Pin = B1_Pin;
 8002080:	f44f 5300 	mov.w	r3, #8192	@ 0x2000
 8002084:	617b      	str	r3, [r7, #20]
  GPIO_InitStruct.Mode = GPIO_MODE_IT_FALLING;
 8002086:	f44f 1304 	mov.w	r3, #2162688	@ 0x210000
 800208a:	61bb      	str	r3, [r7, #24]
  GPIO_InitStruct.Pull = GPIO_NOPULL;
 800208c:	2300      	movs	r3, #0
 800208e:	61fb      	str	r3, [r7, #28]
  HAL_GPIO_Init(B1_GPIO_Port, &GPIO_InitStruct);
 8002090:	f107 0314 	add.w	r3, r7, #20
 8002094:	4619      	mov	r1, r3
 8002096:	4817      	ldr	r0, [pc, #92]	@ (80020f4 <MX_GPIO_Init+0x104>)
 8002098:	f001 ffd6 	bl	8004048 <HAL_GPIO_Init>

  /*Configure GPIO pins : IVMeter_IND_Pin RST_Pin */
  GPIO_InitStruct.Pin = IVMeter_IND_Pin|RST_Pin;
 800209c:	2303      	movs	r3, #3
 800209e:	617b      	str	r3, [r7, #20]
  GPIO_InitStruct.Mode = GPIO_MODE_OUTPUT_PP;
 80020a0:	2301      	movs	r3, #1
 80020a2:	61bb      	str	r3, [r7, #24]
  GPIO_InitStruct.Pull = GPIO_NOPULL;
 80020a4:	2300      	movs	r3, #0
 80020a6:	61fb      	str	r3, [r7, #28]
  GPIO_InitStruct.Speed = GPIO_SPEED_FREQ_LOW;
 80020a8:	2300      	movs	r3, #0
 80020aa:	623b      	str	r3, [r7, #32]
  HAL_GPIO_Init(GPIOC, &GPIO_InitStruct);
 80020ac:	f107 0314 	add.w	r3, r7, #20
 80020b0:	4619      	mov	r1, r3
 80020b2:	4810      	ldr	r0, [pc, #64]	@ (80020f4 <MX_GPIO_Init+0x104>)
 80020b4:	f001 ffc8 	bl	8004048 <HAL_GPIO_Init>

  /*Configure GPIO pins : IVL_Down_Pin IVTS_HALF_Pin SHUTDOWN_Pin PTS_HALF_Pin */
  GPIO_InitStruct.Pin = IVL_Down_Pin|IVTS_HALF_Pin|SHUTDOWN_Pin|PTS_HALF_Pin;
 80020b8:	23f0      	movs	r3, #240	@ 0xf0
 80020ba:	617b      	str	r3, [r7, #20]
  GPIO_InitStruct.Mode = GPIO_MODE_INPUT;
 80020bc:	2300      	movs	r3, #0
 80020be:	61bb      	str	r3, [r7, #24]
  GPIO_InitStruct.Pull = GPIO_NOPULL;
 80020c0:	2300      	movs	r3, #0
 80020c2:	61fb      	str	r3, [r7, #28]
  HAL_GPIO_Init(GPIOA, &GPIO_InitStruct);
 80020c4:	f107 0314 	add.w	r3, r7, #20
 80020c8:	4619      	mov	r1, r3
 80020ca:	480b      	ldr	r0, [pc, #44]	@ (80020f8 <MX_GPIO_Init+0x108>)
 80020cc:	f001 ffbc 	bl	8004048 <HAL_GPIO_Init>

  /*Configure GPIO pin : BTS_HALF_Pin */
  GPIO_InitStruct.Pin = BTS_HALF_Pin;
 80020d0:	2320      	movs	r3, #32
 80020d2:	617b      	str	r3, [r7, #20]
  GPIO_InitStruct.Mode = GPIO_MODE_INPUT;
 80020d4:	2300      	movs	r3, #0
 80020d6:	61bb      	str	r3, [r7, #24]
  GPIO_InitStruct.Pull = GPIO_NOPULL;
 80020d8:	2300      	movs	r3, #0
 80020da:	61fb      	str	r3, [r7, #28]
  HAL_GPIO_Init(BTS_HALF_GPIO_Port, &GPIO_InitStruct);
 80020dc:	f107 0314 	add.w	r3, r7, #20
 80020e0:	4619      	mov	r1, r3
 80020e2:	4804      	ldr	r0, [pc, #16]	@ (80020f4 <MX_GPIO_Init+0x104>)
 80020e4:	f001 ffb0 	bl	8004048 <HAL_GPIO_Init>

/* USER CODE BEGIN MX_GPIO_Init_2 */
/* USER CODE END MX_GPIO_Init_2 */
}
 80020e8:	bf00      	nop
 80020ea:	3728      	adds	r7, #40	@ 0x28
 80020ec:	46bd      	mov	sp, r7
 80020ee:	bd80      	pop	{r7, pc}
 80020f0:	40023800 	.word	0x40023800
 80020f4:	40020800 	.word	0x40020800
 80020f8:	40020000 	.word	0x40020000

080020fc <Error_Handler>:
/**
  * @brief  This function is executed in case of error occurrence.
  * @retval None
  */
void Error_Handler(void)
{
 80020fc:	b480      	push	{r7}
 80020fe:	af00      	add	r7, sp, #0
  \details Disables IRQ interrupts by setting special-purpose register PRIMASK.
           Can only be executed in Privileged modes.
 */
__STATIC_FORCEINLINE void __disable_irq(void)
{
  __ASM volatile ("cpsid i" : : : "memory");
 8002100:	b672      	cpsid	i
}
 8002102:	bf00      	nop
  /* USER CODE BEGIN Error_Handler_Debug */
  /* User can add his own implementation to report the HAL error return state */
  __disable_irq();
  while (1)
 8002104:	bf00      	nop
 8002106:	e7fd      	b.n	8002104 <Error_Handler+0x8>

08002108 <HAL_MspInit>:
/* USER CODE END 0 */
/**
  * Initializes the Global MSP.
  */
void HAL_MspInit(void)
{
 8002108:	b580      	push	{r7, lr}
 800210a:	b082      	sub	sp, #8
 800210c:	af00      	add	r7, sp, #0

  /* USER CODE BEGIN MspInit 0 */

  /* USER CODE END MspInit 0 */

  __HAL_RCC_SYSCFG_CLK_ENABLE();
 800210e:	2300      	movs	r3, #0
 8002110:	607b      	str	r3, [r7, #4]
 8002112:	4b10      	ldr	r3, [pc, #64]	@ (8002154 <HAL_MspInit+0x4c>)
 8002114:	6c5b      	ldr	r3, [r3, #68]	@ 0x44
 8002116:	4a0f      	ldr	r2, [pc, #60]	@ (8002154 <HAL_MspInit+0x4c>)
 8002118:	f443 4380 	orr.w	r3, r3, #16384	@ 0x4000
 800211c:	6453      	str	r3, [r2, #68]	@ 0x44
 800211e:	4b0d      	ldr	r3, [pc, #52]	@ (8002154 <HAL_MspInit+0x4c>)
 8002120:	6c5b      	ldr	r3, [r3, #68]	@ 0x44
 8002122:	f403 4380 	and.w	r3, r3, #16384	@ 0x4000
 8002126:	607b      	str	r3, [r7, #4]
 8002128:	687b      	ldr	r3, [r7, #4]
  __HAL_RCC_PWR_CLK_ENABLE();
 800212a:	2300      	movs	r3, #0
 800212c:	603b      	str	r3, [r7, #0]
 800212e:	4b09      	ldr	r3, [pc, #36]	@ (8002154 <HAL_MspInit+0x4c>)
 8002130:	6c1b      	ldr	r3, [r3, #64]	@ 0x40
 8002132:	4a08      	ldr	r2, [pc, #32]	@ (8002154 <HAL_MspInit+0x4c>)
 8002134:	f043 5380 	orr.w	r3, r3, #268435456	@ 0x10000000
 8002138:	6413      	str	r3, [r2, #64]	@ 0x40
 800213a:	4b06      	ldr	r3, [pc, #24]	@ (8002154 <HAL_MspInit+0x4c>)
 800213c:	6c1b      	ldr	r3, [r3, #64]	@ 0x40
 800213e:	f003 5380 	and.w	r3, r3, #268435456	@ 0x10000000
 8002142:	603b      	str	r3, [r7, #0]
 8002144:	683b      	ldr	r3, [r7, #0]

  HAL_NVIC_SetPriorityGrouping(NVIC_PRIORITYGROUP_0);
 8002146:	2007      	movs	r0, #7
 8002148:	f001 ff3c 	bl	8003fc4 <HAL_NVIC_SetPriorityGrouping>
  /* System interrupt init*/

  /* USER CODE BEGIN MspInit 1 */

  /* USER CODE END MspInit 1 */
}
 800214c:	bf00      	nop
 800214e:	3708      	adds	r7, #8
 8002150:	46bd      	mov	sp, r7
 8002152:	bd80      	pop	{r7, pc}
 8002154:	40023800 	.word	0x40023800

08002158 <HAL_ADC_MspInit>:
* This function configures the hardware resources used in this example
* @param hadc: ADC handle pointer
* @retval None
*/
void HAL_ADC_MspInit(ADC_HandleTypeDef* hadc)
{
 8002158:	b580      	push	{r7, lr}
 800215a:	b08a      	sub	sp, #40	@ 0x28
 800215c:	af00      	add	r7, sp, #0
 800215e:	6078      	str	r0, [r7, #4]
  GPIO_InitTypeDef GPIO_InitStruct = {0};
 8002160:	f107 0314 	add.w	r3, r7, #20
 8002164:	2200      	movs	r2, #0
 8002166:	601a      	str	r2, [r3, #0]
 8002168:	605a      	str	r2, [r3, #4]
 800216a:	609a      	str	r2, [r3, #8]
 800216c:	60da      	str	r2, [r3, #12]
 800216e:	611a      	str	r2, [r3, #16]
  if(hadc->Instance==ADC1)
 8002170:	687b      	ldr	r3, [r7, #4]
 8002172:	681b      	ldr	r3, [r3, #0]
 8002174:	4a24      	ldr	r2, [pc, #144]	@ (8002208 <HAL_ADC_MspInit+0xb0>)
 8002176:	4293      	cmp	r3, r2
 8002178:	d141      	bne.n	80021fe <HAL_ADC_MspInit+0xa6>
  {
  /* USER CODE BEGIN ADC1_MspInit 0 */

  /* USER CODE END ADC1_MspInit 0 */
    /* Peripheral clock enable */
    __HAL_RCC_ADC1_CLK_ENABLE();
 800217a:	2300      	movs	r3, #0
 800217c:	613b      	str	r3, [r7, #16]
 800217e:	4b23      	ldr	r3, [pc, #140]	@ (800220c <HAL_ADC_MspInit+0xb4>)
 8002180:	6c5b      	ldr	r3, [r3, #68]	@ 0x44
 8002182:	4a22      	ldr	r2, [pc, #136]	@ (800220c <HAL_ADC_MspInit+0xb4>)
 8002184:	f443 7380 	orr.w	r3, r3, #256	@ 0x100
 8002188:	6453      	str	r3, [r2, #68]	@ 0x44
 800218a:	4b20      	ldr	r3, [pc, #128]	@ (800220c <HAL_ADC_MspInit+0xb4>)
 800218c:	6c5b      	ldr	r3, [r3, #68]	@ 0x44
 800218e:	f403 7380 	and.w	r3, r3, #256	@ 0x100
 8002192:	613b      	str	r3, [r7, #16]
 8002194:	693b      	ldr	r3, [r7, #16]

    __HAL_RCC_GPIOC_CLK_ENABLE();
 8002196:	2300      	movs	r3, #0
 8002198:	60fb      	str	r3, [r7, #12]
 800219a:	4b1c      	ldr	r3, [pc, #112]	@ (800220c <HAL_ADC_MspInit+0xb4>)
 800219c:	6b1b      	ldr	r3, [r3, #48]	@ 0x30
 800219e:	4a1b      	ldr	r2, [pc, #108]	@ (800220c <HAL_ADC_MspInit+0xb4>)
 80021a0:	f043 0304 	orr.w	r3, r3, #4
 80021a4:	6313      	str	r3, [r2, #48]	@ 0x30
 80021a6:	4b19      	ldr	r3, [pc, #100]	@ (800220c <HAL_ADC_MspInit+0xb4>)
 80021a8:	6b1b      	ldr	r3, [r3, #48]	@ 0x30
 80021aa:	f003 0304 	and.w	r3, r3, #4
 80021ae:	60fb      	str	r3, [r7, #12]
 80021b0:	68fb      	ldr	r3, [r7, #12]
    __HAL_RCC_GPIOA_CLK_ENABLE();
 80021b2:	2300      	movs	r3, #0
 80021b4:	60bb      	str	r3, [r7, #8]
 80021b6:	4b15      	ldr	r3, [pc, #84]	@ (800220c <HAL_ADC_MspInit+0xb4>)
 80021b8:	6b1b      	ldr	r3, [r3, #48]	@ 0x30
 80021ba:	4a14      	ldr	r2, [pc, #80]	@ (800220c <HAL_ADC_MspInit+0xb4>)
 80021bc:	f043 0301 	orr.w	r3, r3, #1
 80021c0:	6313      	str	r3, [r2, #48]	@ 0x30
 80021c2:	4b12      	ldr	r3, [pc, #72]	@ (800220c <HAL_ADC_MspInit+0xb4>)
 80021c4:	6b1b      	ldr	r3, [r3, #48]	@ 0x30
 80021c6:	f003 0301 	and.w	r3, r3, #1
 80021ca:	60bb      	str	r3, [r7, #8]
 80021cc:	68bb      	ldr	r3, [r7, #8]
    PC3     ------> ADC1_IN13
    PA0-WKUP     ------> ADC1_IN0
    PA1     ------> ADC1_IN1
    PC4     ------> ADC1_IN14
    */
    GPIO_InitStruct.Pin = brake1_Pin|brake2_Pin|brakeIn_Pin;
 80021ce:	231c      	movs	r3, #28
 80021d0:	617b      	str	r3, [r7, #20]
    GPIO_InitStruct.Mode = GPIO_MODE_ANALOG;
 80021d2:	2303      	movs	r3, #3
 80021d4:	61bb      	str	r3, [r7, #24]
    GPIO_InitStruct.Pull = GPIO_NOPULL;
 80021d6:	2300      	movs	r3, #0
 80021d8:	61fb      	str	r3, [r7, #28]
    HAL_GPIO_Init(GPIOC, &GPIO_InitStruct);
 80021da:	f107 0314 	add.w	r3, r7, #20
 80021de:	4619      	mov	r1, r3
 80021e0:	480b      	ldr	r0, [pc, #44]	@ (8002210 <HAL_ADC_MspInit+0xb8>)
 80021e2:	f001 ff31 	bl	8004048 <HAL_GPIO_Init>

    GPIO_InitStruct.Pin = acc1_Pin|acc2_Pin;
 80021e6:	2303      	movs	r3, #3
 80021e8:	617b      	str	r3, [r7, #20]
    GPIO_InitStruct.Mode = GPIO_MODE_ANALOG;
 80021ea:	2303      	movs	r3, #3
 80021ec:	61bb      	str	r3, [r7, #24]
    GPIO_InitStruct.Pull = GPIO_NOPULL;
 80021ee:	2300      	movs	r3, #0
 80021f0:	61fb      	str	r3, [r7, #28]
    HAL_GPIO_Init(GPIOA, &GPIO_InitStruct);
 80021f2:	f107 0314 	add.w	r3, r7, #20
 80021f6:	4619      	mov	r1, r3
 80021f8:	4806      	ldr	r0, [pc, #24]	@ (8002214 <HAL_ADC_MspInit+0xbc>)
 80021fa:	f001 ff25 	bl	8004048 <HAL_GPIO_Init>

  /* USER CODE END ADC1_MspInit 1 */

  }

}
 80021fe:	bf00      	nop
 8002200:	3728      	adds	r7, #40	@ 0x28
 8002202:	46bd      	mov	sp, r7
 8002204:	bd80      	pop	{r7, pc}
 8002206:	bf00      	nop
 8002208:	40012000 	.word	0x40012000
 800220c:	40023800 	.word	0x40023800
 8002210:	40020800 	.word	0x40020800
 8002214:	40020000 	.word	0x40020000

08002218 <HAL_CAN_MspInit>:
* This function configures the hardware resources used in this example
* @param hcan: CAN handle pointer
* @retval None
*/
void HAL_CAN_MspInit(CAN_HandleTypeDef* hcan)
{
 8002218:	b580      	push	{r7, lr}
 800221a:	b08a      	sub	sp, #40	@ 0x28
 800221c:	af00      	add	r7, sp, #0
 800221e:	6078      	str	r0, [r7, #4]
  GPIO_InitTypeDef GPIO_InitStruct = {0};
 8002220:	f107 0314 	add.w	r3, r7, #20
 8002224:	2200      	movs	r2, #0
 8002226:	601a      	str	r2, [r3, #0]
 8002228:	605a      	str	r2, [r3, #4]
 800222a:	609a      	str	r2, [r3, #8]
 800222c:	60da      	str	r2, [r3, #12]
 800222e:	611a      	str	r2, [r3, #16]
  if(hcan->Instance==CAN1)
 8002230:	687b      	ldr	r3, [r7, #4]
 8002232:	681b      	ldr	r3, [r3, #0]
 8002234:	4a21      	ldr	r2, [pc, #132]	@ (80022bc <HAL_CAN_MspInit+0xa4>)
 8002236:	4293      	cmp	r3, r2
 8002238:	d13c      	bne.n	80022b4 <HAL_CAN_MspInit+0x9c>
  {
  /* USER CODE BEGIN CAN1_MspInit 0 */

  /* USER CODE END CAN1_MspInit 0 */
    /* Peripheral clock enable */
    __HAL_RCC_CAN1_CLK_ENABLE();
 800223a:	2300      	movs	r3, #0
 800223c:	613b      	str	r3, [r7, #16]
 800223e:	4b20      	ldr	r3, [pc, #128]	@ (80022c0 <HAL_CAN_MspInit+0xa8>)
 8002240:	6c1b      	ldr	r3, [r3, #64]	@ 0x40
 8002242:	4a1f      	ldr	r2, [pc, #124]	@ (80022c0 <HAL_CAN_MspInit+0xa8>)
 8002244:	f043 7300 	orr.w	r3, r3, #33554432	@ 0x2000000
 8002248:	6413      	str	r3, [r2, #64]	@ 0x40
 800224a:	4b1d      	ldr	r3, [pc, #116]	@ (80022c0 <HAL_CAN_MspInit+0xa8>)
 800224c:	6c1b      	ldr	r3, [r3, #64]	@ 0x40
 800224e:	f003 7300 	and.w	r3, r3, #33554432	@ 0x2000000
 8002252:	613b      	str	r3, [r7, #16]
 8002254:	693b      	ldr	r3, [r7, #16]

    __HAL_RCC_GPIOA_CLK_ENABLE();
 8002256:	2300      	movs	r3, #0
 8002258:	60fb      	str	r3, [r7, #12]
 800225a:	4b19      	ldr	r3, [pc, #100]	@ (80022c0 <HAL_CAN_MspInit+0xa8>)
 800225c:	6b1b      	ldr	r3, [r3, #48]	@ 0x30
 800225e:	4a18      	ldr	r2, [pc, #96]	@ (80022c0 <HAL_CAN_MspInit+0xa8>)
 8002260:	f043 0301 	orr.w	r3, r3, #1
 8002264:	6313      	str	r3, [r2, #48]	@ 0x30
 8002266:	4b16      	ldr	r3, [pc, #88]	@ (80022c0 <HAL_CAN_MspInit+0xa8>)
 8002268:	6b1b      	ldr	r3, [r3, #48]	@ 0x30
 800226a:	f003 0301 	and.w	r3, r3, #1
 800226e:	60fb      	str	r3, [r7, #12]
 8002270:	68fb      	ldr	r3, [r7, #12]
    /**CAN1 GPIO Configuration
    PA11     ------> CAN1_RX
    PA12     ------> CAN1_TX
    */
    GPIO_InitStruct.Pin = GPIO_PIN_11|GPIO_PIN_12;
 8002272:	f44f 53c0 	mov.w	r3, #6144	@ 0x1800
 8002276:	617b      	str	r3, [r7, #20]
    GPIO_InitStruct.Mode = GPIO_MODE_AF_PP;
 8002278:	2302      	movs	r3, #2
 800227a:	61bb      	str	r3, [r7, #24]
    GPIO_InitStruct.Pull = GPIO_NOPULL;
 800227c:	2300      	movs	r3, #0
 800227e:	61fb      	str	r3, [r7, #28]
    GPIO_InitStruct.Speed = GPIO_SPEED_FREQ_VERY_HIGH;
 8002280:	2303      	movs	r3, #3
 8002282:	623b      	str	r3, [r7, #32]
    GPIO_InitStruct.Alternate = GPIO_AF9_CAN1;
 8002284:	2309      	movs	r3, #9
 8002286:	627b      	str	r3, [r7, #36]	@ 0x24
    HAL_GPIO_Init(GPIOA, &GPIO_InitStruct);
 8002288:	f107 0314 	add.w	r3, r7, #20
 800228c:	4619      	mov	r1, r3
 800228e:	480d      	ldr	r0, [pc, #52]	@ (80022c4 <HAL_CAN_MspInit+0xac>)
 8002290:	f001 feda 	bl	8004048 <HAL_GPIO_Init>

    /* CAN1 interrupt Init */
    HAL_NVIC_SetPriority(CAN1_RX0_IRQn, 0, 0);
 8002294:	2200      	movs	r2, #0
 8002296:	2100      	movs	r1, #0
 8002298:	2014      	movs	r0, #20
 800229a:	f001 fe9e 	bl	8003fda <HAL_NVIC_SetPriority>
    HAL_NVIC_EnableIRQ(CAN1_RX0_IRQn);
 800229e:	2014      	movs	r0, #20
 80022a0:	f001 feb7 	bl	8004012 <HAL_NVIC_EnableIRQ>
    HAL_NVIC_SetPriority(CAN1_RX1_IRQn, 0, 0);
 80022a4:	2200      	movs	r2, #0
 80022a6:	2100      	movs	r1, #0
 80022a8:	2015      	movs	r0, #21
 80022aa:	f001 fe96 	bl	8003fda <HAL_NVIC_SetPriority>
    HAL_NVIC_EnableIRQ(CAN1_RX1_IRQn);
 80022ae:	2015      	movs	r0, #21
 80022b0:	f001 feaf 	bl	8004012 <HAL_NVIC_EnableIRQ>

  /* USER CODE END CAN1_MspInit 1 */

  }

}
 80022b4:	bf00      	nop
 80022b6:	3728      	adds	r7, #40	@ 0x28
 80022b8:	46bd      	mov	sp, r7
 80022ba:	bd80      	pop	{r7, pc}
 80022bc:	40006400 	.word	0x40006400
 80022c0:	40023800 	.word	0x40023800
 80022c4:	40020000 	.word	0x40020000

080022c8 <HAL_I2C_MspInit>:
* This function configures the hardware resources used in this example
* @param hi2c: I2C handle pointer
* @retval None
*/
void HAL_I2C_MspInit(I2C_HandleTypeDef* hi2c)
{
 80022c8:	b580      	push	{r7, lr}
 80022ca:	b08a      	sub	sp, #40	@ 0x28
 80022cc:	af00      	add	r7, sp, #0
 80022ce:	6078      	str	r0, [r7, #4]
  GPIO_InitTypeDef GPIO_InitStruct = {0};
 80022d0:	f107 0314 	add.w	r3, r7, #20
 80022d4:	2200      	movs	r2, #0
 80022d6:	601a      	str	r2, [r3, #0]
 80022d8:	605a      	str	r2, [r3, #4]
 80022da:	609a      	str	r2, [r3, #8]
 80022dc:	60da      	str	r2, [r3, #12]
 80022de:	611a      	str	r2, [r3, #16]
  if(hi2c->Instance==I2C1)
 80022e0:	687b      	ldr	r3, [r7, #4]
 80022e2:	681b      	ldr	r3, [r3, #0]
 80022e4:	4a19      	ldr	r2, [pc, #100]	@ (800234c <HAL_I2C_MspInit+0x84>)
 80022e6:	4293      	cmp	r3, r2
 80022e8:	d12b      	bne.n	8002342 <HAL_I2C_MspInit+0x7a>
  {
  /* USER CODE BEGIN I2C1_MspInit 0 */

  /* USER CODE END I2C1_MspInit 0 */

    __HAL_RCC_GPIOB_CLK_ENABLE();
 80022ea:	2300      	movs	r3, #0
 80022ec:	613b      	str	r3, [r7, #16]
 80022ee:	4b18      	ldr	r3, [pc, #96]	@ (8002350 <HAL_I2C_MspInit+0x88>)
 80022f0:	6b1b      	ldr	r3, [r3, #48]	@ 0x30
 80022f2:	4a17      	ldr	r2, [pc, #92]	@ (8002350 <HAL_I2C_MspInit+0x88>)
 80022f4:	f043 0302 	orr.w	r3, r3, #2
 80022f8:	6313      	str	r3, [r2, #48]	@ 0x30
 80022fa:	4b15      	ldr	r3, [pc, #84]	@ (8002350 <HAL_I2C_MspInit+0x88>)
 80022fc:	6b1b      	ldr	r3, [r3, #48]	@ 0x30
 80022fe:	f003 0302 	and.w	r3, r3, #2
 8002302:	613b      	str	r3, [r7, #16]
 8002304:	693b      	ldr	r3, [r7, #16]
    /**I2C1 GPIO Configuration
    PB6     ------> I2C1_SCL
    PB7     ------> I2C1_SDA
    */
    GPIO_InitStruct.Pin = GPIO_PIN_6|GPIO_PIN_7;
 8002306:	23c0      	movs	r3, #192	@ 0xc0
 8002308:	617b      	str	r3, [r7, #20]
    GPIO_InitStruct.Mode = GPIO_MODE_AF_OD;
 800230a:	2312      	movs	r3, #18
 800230c:	61bb      	str	r3, [r7, #24]
    GPIO_InitStruct.Pull = GPIO_NOPULL;
 800230e:	2300      	movs	r3, #0
 8002310:	61fb      	str	r3, [r7, #28]
    GPIO_InitStruct.Speed = GPIO_SPEED_FREQ_VERY_HIGH;
 8002312:	2303      	movs	r3, #3
 8002314:	623b      	str	r3, [r7, #32]
    GPIO_InitStruct.Alternate = GPIO_AF4_I2C1;
 8002316:	2304      	movs	r3, #4
 8002318:	627b      	str	r3, [r7, #36]	@ 0x24
    HAL_GPIO_Init(GPIOB, &GPIO_InitStruct);
 800231a:	f107 0314 	add.w	r3, r7, #20
 800231e:	4619      	mov	r1, r3
 8002320:	480c      	ldr	r0, [pc, #48]	@ (8002354 <HAL_I2C_MspInit+0x8c>)
 8002322:	f001 fe91 	bl	8004048 <HAL_GPIO_Init>

    /* Peripheral clock enable */
    __HAL_RCC_I2C1_CLK_ENABLE();
 8002326:	2300      	movs	r3, #0
 8002328:	60fb      	str	r3, [r7, #12]
 800232a:	4b09      	ldr	r3, [pc, #36]	@ (8002350 <HAL_I2C_MspInit+0x88>)
 800232c:	6c1b      	ldr	r3, [r3, #64]	@ 0x40
 800232e:	4a08      	ldr	r2, [pc, #32]	@ (8002350 <HAL_I2C_MspInit+0x88>)
 8002330:	f443 1300 	orr.w	r3, r3, #2097152	@ 0x200000
 8002334:	6413      	str	r3, [r2, #64]	@ 0x40
 8002336:	4b06      	ldr	r3, [pc, #24]	@ (8002350 <HAL_I2C_MspInit+0x88>)
 8002338:	6c1b      	ldr	r3, [r3, #64]	@ 0x40
 800233a:	f403 1300 	and.w	r3, r3, #2097152	@ 0x200000
 800233e:	60fb      	str	r3, [r7, #12]
 8002340:	68fb      	ldr	r3, [r7, #12]

  /* USER CODE END I2C1_MspInit 1 */

  }

}
 8002342:	bf00      	nop
 8002344:	3728      	adds	r7, #40	@ 0x28
 8002346:	46bd      	mov	sp, r7
 8002348:	bd80      	pop	{r7, pc}
 800234a:	bf00      	nop
 800234c:	40005400 	.word	0x40005400
 8002350:	40023800 	.word	0x40023800
 8002354:	40020400 	.word	0x40020400

08002358 <HAL_UART_MspInit>:
* This function configures the hardware resources used in this example
* @param huart: UART handle pointer
* @retval None
*/
void HAL_UART_MspInit(UART_HandleTypeDef* huart)
{
 8002358:	b580      	push	{r7, lr}
 800235a:	b08a      	sub	sp, #40	@ 0x28
 800235c:	af00      	add	r7, sp, #0
 800235e:	6078      	str	r0, [r7, #4]
  GPIO_InitTypeDef GPIO_InitStruct = {0};
 8002360:	f107 0314 	add.w	r3, r7, #20
 8002364:	2200      	movs	r2, #0
 8002366:	601a      	str	r2, [r3, #0]
 8002368:	605a      	str	r2, [r3, #4]
 800236a:	609a      	str	r2, [r3, #8]
 800236c:	60da      	str	r2, [r3, #12]
 800236e:	611a      	str	r2, [r3, #16]
  if(huart->Instance==USART2)
 8002370:	687b      	ldr	r3, [r7, #4]
 8002372:	681b      	ldr	r3, [r3, #0]
 8002374:	4a19      	ldr	r2, [pc, #100]	@ (80023dc <HAL_UART_MspInit+0x84>)
 8002376:	4293      	cmp	r3, r2
 8002378:	d12b      	bne.n	80023d2 <HAL_UART_MspInit+0x7a>
  {
  /* USER CODE BEGIN USART2_MspInit 0 */

  /* USER CODE END USART2_MspInit 0 */
    /* Peripheral clock enable */
    __HAL_RCC_USART2_CLK_ENABLE();
 800237a:	2300      	movs	r3, #0
 800237c:	613b      	str	r3, [r7, #16]
 800237e:	4b18      	ldr	r3, [pc, #96]	@ (80023e0 <HAL_UART_MspInit+0x88>)
 8002380:	6c1b      	ldr	r3, [r3, #64]	@ 0x40
 8002382:	4a17      	ldr	r2, [pc, #92]	@ (80023e0 <HAL_UART_MspInit+0x88>)
 8002384:	f443 3300 	orr.w	r3, r3, #131072	@ 0x20000
 8002388:	6413      	str	r3, [r2, #64]	@ 0x40
 800238a:	4b15      	ldr	r3, [pc, #84]	@ (80023e0 <HAL_UART_MspInit+0x88>)
 800238c:	6c1b      	ldr	r3, [r3, #64]	@ 0x40
 800238e:	f403 3300 	and.w	r3, r3, #131072	@ 0x20000
 8002392:	613b      	str	r3, [r7, #16]
 8002394:	693b      	ldr	r3, [r7, #16]

    __HAL_RCC_GPIOA_CLK_ENABLE();
 8002396:	2300      	movs	r3, #0
 8002398:	60fb      	str	r3, [r7, #12]
 800239a:	4b11      	ldr	r3, [pc, #68]	@ (80023e0 <HAL_UART_MspInit+0x88>)
 800239c:	6b1b      	ldr	r3, [r3, #48]	@ 0x30
 800239e:	4a10      	ldr	r2, [pc, #64]	@ (80023e0 <HAL_UART_MspInit+0x88>)
 80023a0:	f043 0301 	orr.w	r3, r3, #1
 80023a4:	6313      	str	r3, [r2, #48]	@ 0x30
 80023a6:	4b0e      	ldr	r3, [pc, #56]	@ (80023e0 <HAL_UART_MspInit+0x88>)
 80023a8:	6b1b      	ldr	r3, [r3, #48]	@ 0x30
 80023aa:	f003 0301 	and.w	r3, r3, #1
 80023ae:	60fb      	str	r3, [r7, #12]
 80023b0:	68fb      	ldr	r3, [r7, #12]
    /**USART2 GPIO Configuration
    PA2     ------> USART2_TX
    PA3     ------> USART2_RX
    */
    GPIO_InitStruct.Pin = USART_TX_Pin|USART_RX_Pin;
 80023b2:	230c      	movs	r3, #12
 80023b4:	617b      	str	r3, [r7, #20]
    GPIO_InitStruct.Mode = GPIO_MODE_AF_PP;
 80023b6:	2302      	movs	r3, #2
 80023b8:	61bb      	str	r3, [r7, #24]
    GPIO_InitStruct.Pull = GPIO_NOPULL;
 80023ba:	2300      	movs	r3, #0
 80023bc:	61fb      	str	r3, [r7, #28]
    GPIO_InitStruct.Speed = GPIO_SPEED_FREQ_VERY_HIGH;
 80023be:	2303      	movs	r3, #3
 80023c0:	623b      	str	r3, [r7, #32]
    GPIO_InitStruct.Alternate = GPIO_AF7_USART2;
 80023c2:	2307      	movs	r3, #7
 80023c4:	627b      	str	r3, [r7, #36]	@ 0x24
    HAL_GPIO_Init(GPIOA, &GPIO_InitStruct);
 80023c6:	f107 0314 	add.w	r3, r7, #20
 80023ca:	4619      	mov	r1, r3
 80023cc:	4805      	ldr	r0, [pc, #20]	@ (80023e4 <HAL_UART_MspInit+0x8c>)
 80023ce:	f001 fe3b 	bl	8004048 <HAL_GPIO_Init>

  /* USER CODE END USART2_MspInit 1 */

  }

}
 80023d2:	bf00      	nop
 80023d4:	3728      	adds	r7, #40	@ 0x28
 80023d6:	46bd      	mov	sp, r7
 80023d8:	bd80      	pop	{r7, pc}
 80023da:	bf00      	nop
 80023dc:	40004400 	.word	0x40004400
 80023e0:	40023800 	.word	0x40023800
 80023e4:	40020000 	.word	0x40020000

080023e8 <NMI_Handler>:
/******************************************************************************/
/**
  * @brief This function handles Non maskable interrupt.
  */
void NMI_Handler(void)
{
 80023e8:	b480      	push	{r7}
 80023ea:	af00      	add	r7, sp, #0
  /* USER CODE BEGIN NonMaskableInt_IRQn 0 */

  /* USER CODE END NonMaskableInt_IRQn 0 */
  /* USER CODE BEGIN NonMaskableInt_IRQn 1 */
   while (1)
 80023ec:	bf00      	nop
 80023ee:	e7fd      	b.n	80023ec <NMI_Handler+0x4>

080023f0 <HardFault_Handler>:

/**
  * @brief This function handles Hard fault interrupt.
  */
void HardFault_Handler(void)
{
 80023f0:	b480      	push	{r7}
 80023f2:	af00      	add	r7, sp, #0
  /* USER CODE BEGIN HardFault_IRQn 0 */

  /* USER CODE END HardFault_IRQn 0 */
  while (1)
 80023f4:	bf00      	nop
 80023f6:	e7fd      	b.n	80023f4 <HardFault_Handler+0x4>

080023f8 <MemManage_Handler>:

/**
  * @brief This function handles Memory management fault.
  */
void MemManage_Handler(void)
{
 80023f8:	b480      	push	{r7}
 80023fa:	af00      	add	r7, sp, #0
  /* USER CODE BEGIN MemoryManagement_IRQn 0 */

  /* USER CODE END MemoryManagement_IRQn 0 */
  while (1)
 80023fc:	bf00      	nop
 80023fe:	e7fd      	b.n	80023fc <MemManage_Handler+0x4>

08002400 <BusFault_Handler>:

/**
  * @brief This function handles Pre-fetch fault, memory access fault.
  */
void BusFault_Handler(void)
{
 8002400:	b480      	push	{r7}
 8002402:	af00      	add	r7, sp, #0
  /* USER CODE BEGIN BusFault_IRQn 0 */

  /* USER CODE END BusFault_IRQn 0 */
  while (1)
 8002404:	bf00      	nop
 8002406:	e7fd      	b.n	8002404 <BusFault_Handler+0x4>

08002408 <UsageFault_Handler>:

/**
  * @brief This function handles Undefined instruction or illegal state.
  */
void UsageFault_Handler(void)
{
 8002408:	b480      	push	{r7}
 800240a:	af00      	add	r7, sp, #0
  /* USER CODE BEGIN UsageFault_IRQn 0 */

  /* USER CODE END UsageFault_IRQn 0 */
  while (1)
 800240c:	bf00      	nop
 800240e:	e7fd      	b.n	800240c <UsageFault_Handler+0x4>

08002410 <SVC_Handler>:

/**
  * @brief This function handles System service call via SWI instruction.
  */
void SVC_Handler(void)
{
 8002410:	b480      	push	{r7}
 8002412:	af00      	add	r7, sp, #0

  /* USER CODE END SVCall_IRQn 0 */
  /* USER CODE BEGIN SVCall_IRQn 1 */

  /* USER CODE END SVCall_IRQn 1 */
}
 8002414:	bf00      	nop
 8002416:	46bd      	mov	sp, r7
 8002418:	f85d 7b04 	ldr.w	r7, [sp], #4
 800241c:	4770      	bx	lr

0800241e <DebugMon_Handler>:

/**
  * @brief This function handles Debug monitor.
  */
void DebugMon_Handler(void)
{
 800241e:	b480      	push	{r7}
 8002420:	af00      	add	r7, sp, #0

  /* USER CODE END DebugMonitor_IRQn 0 */
  /* USER CODE BEGIN DebugMonitor_IRQn 1 */

  /* USER CODE END DebugMonitor_IRQn 1 */
}
 8002422:	bf00      	nop
 8002424:	46bd      	mov	sp, r7
 8002426:	f85d 7b04 	ldr.w	r7, [sp], #4
 800242a:	4770      	bx	lr

0800242c <PendSV_Handler>:

/**
  * @brief This function handles Pendable request for system service.
  */
void PendSV_Handler(void)
{
 800242c:	b480      	push	{r7}
 800242e:	af00      	add	r7, sp, #0

  /* USER CODE END PendSV_IRQn 0 */
  /* USER CODE BEGIN PendSV_IRQn 1 */

  /* USER CODE END PendSV_IRQn 1 */
}
 8002430:	bf00      	nop
 8002432:	46bd      	mov	sp, r7
 8002434:	f85d 7b04 	ldr.w	r7, [sp], #4
 8002438:	4770      	bx	lr

0800243a <SysTick_Handler>:

/**
  * @brief This function handles System tick timer.
  */
void SysTick_Handler(void)
{
 800243a:	b580      	push	{r7, lr}
 800243c:	af00      	add	r7, sp, #0
  /* USER CODE BEGIN SysTick_IRQn 0 */

  /* USER CODE END SysTick_IRQn 0 */
  HAL_IncTick();
 800243e:	f000 f96b 	bl	8002718 <HAL_IncTick>
  /* USER CODE BEGIN SysTick_IRQn 1 */

  /* USER CODE END SysTick_IRQn 1 */
}
 8002442:	bf00      	nop
 8002444:	bd80      	pop	{r7, pc}
	...

08002448 <CAN1_RX0_IRQHandler>:

/**
  * @brief This function handles CAN1 RX0 interrupt.
  */
void CAN1_RX0_IRQHandler(void)
{
 8002448:	b580      	push	{r7, lr}
 800244a:	af00      	add	r7, sp, #0
  /* USER CODE BEGIN CAN1_RX0_IRQn 0 */

  /* USER CODE END CAN1_RX0_IRQn 0 */
  HAL_CAN_IRQHandler(&hcan1);
 800244c:	4802      	ldr	r0, [pc, #8]	@ (8002458 <CAN1_RX0_IRQHandler+0x10>)
 800244e:	f001 faba 	bl	80039c6 <HAL_CAN_IRQHandler>
  /* USER CODE BEGIN CAN1_RX0_IRQn 1 */

  /* USER CODE END CAN1_RX0_IRQn 1 */
}
 8002452:	bf00      	nop
 8002454:	bd80      	pop	{r7, pc}
 8002456:	bf00      	nop
 8002458:	200002a8 	.word	0x200002a8

0800245c <CAN1_RX1_IRQHandler>:

/**
  * @brief This function handles CAN1 RX1 interrupt.
  */
void CAN1_RX1_IRQHandler(void)
{
 800245c:	b580      	push	{r7, lr}
 800245e:	af00      	add	r7, sp, #0
  /* USER CODE BEGIN CAN1_RX1_IRQn 0 */

  /* USER CODE END CAN1_RX1_IRQn 0 */
  HAL_CAN_IRQHandler(&hcan1);
 8002460:	4802      	ldr	r0, [pc, #8]	@ (800246c <CAN1_RX1_IRQHandler+0x10>)
 8002462:	f001 fab0 	bl	80039c6 <HAL_CAN_IRQHandler>
  /* USER CODE BEGIN CAN1_RX1_IRQn 1 */

  /* USER CODE END CAN1_RX1_IRQn 1 */
}
 8002466:	bf00      	nop
 8002468:	bd80      	pop	{r7, pc}
 800246a:	bf00      	nop
 800246c:	200002a8 	.word	0x200002a8

08002470 <_getpid>:
void initialise_monitor_handles()
{
}

int _getpid(void)
{
 8002470:	b480      	push	{r7}
 8002472:	af00      	add	r7, sp, #0
  return 1;
 8002474:	2301      	movs	r3, #1
}
 8002476:	4618      	mov	r0, r3
 8002478:	46bd      	mov	sp, r7
 800247a:	f85d 7b04 	ldr.w	r7, [sp], #4
 800247e:	4770      	bx	lr

08002480 <_kill>:

int _kill(int pid, int sig)
{
 8002480:	b580      	push	{r7, lr}
 8002482:	b082      	sub	sp, #8
 8002484:	af00      	add	r7, sp, #0
 8002486:	6078      	str	r0, [r7, #4]
 8002488:	6039      	str	r1, [r7, #0]
  (void)pid;
  (void)sig;
  errno = EINVAL;
 800248a:	f004 f933 	bl	80066f4 <__errno>
 800248e:	4603      	mov	r3, r0
 8002490:	2216      	movs	r2, #22
 8002492:	601a      	str	r2, [r3, #0]
  return -1;
 8002494:	f04f 33ff 	mov.w	r3, #4294967295	@ 0xffffffff
}
 8002498:	4618      	mov	r0, r3
 800249a:	3708      	adds	r7, #8
 800249c:	46bd      	mov	sp, r7
 800249e:	bd80      	pop	{r7, pc}

080024a0 <_exit>:

void _exit (int status)
{
 80024a0:	b580      	push	{r7, lr}
 80024a2:	b082      	sub	sp, #8
 80024a4:	af00      	add	r7, sp, #0
 80024a6:	6078      	str	r0, [r7, #4]
  _kill(status, -1);
 80024a8:	f04f 31ff 	mov.w	r1, #4294967295	@ 0xffffffff
 80024ac:	6878      	ldr	r0, [r7, #4]
 80024ae:	f7ff ffe7 	bl	8002480 <_kill>
  while (1) {}    /* Make sure we hang here */
 80024b2:	bf00      	nop
 80024b4:	e7fd      	b.n	80024b2 <_exit+0x12>

080024b6 <_read>:
}

__attribute__((weak)) int _read(int file, char *ptr, int len)
{
 80024b6:	b580      	push	{r7, lr}
 80024b8:	b086      	sub	sp, #24
 80024ba:	af00      	add	r7, sp, #0
 80024bc:	60f8      	str	r0, [r7, #12]
 80024be:	60b9      	str	r1, [r7, #8]
 80024c0:	607a      	str	r2, [r7, #4]
  (void)file;
  int DataIdx;

  for (DataIdx = 0; DataIdx < len; DataIdx++)
 80024c2:	2300      	movs	r3, #0
 80024c4:	617b      	str	r3, [r7, #20]
 80024c6:	e00a      	b.n	80024de <_read+0x28>
  {
    *ptr++ = __io_getchar();
 80024c8:	f3af 8000 	nop.w
 80024cc:	4601      	mov	r1, r0
 80024ce:	68bb      	ldr	r3, [r7, #8]
 80024d0:	1c5a      	adds	r2, r3, #1
 80024d2:	60ba      	str	r2, [r7, #8]
 80024d4:	b2ca      	uxtb	r2, r1
 80024d6:	701a      	strb	r2, [r3, #0]
  for (DataIdx = 0; DataIdx < len; DataIdx++)
 80024d8:	697b      	ldr	r3, [r7, #20]
 80024da:	3301      	adds	r3, #1
 80024dc:	617b      	str	r3, [r7, #20]
 80024de:	697a      	ldr	r2, [r7, #20]
 80024e0:	687b      	ldr	r3, [r7, #4]
 80024e2:	429a      	cmp	r2, r3
 80024e4:	dbf0      	blt.n	80024c8 <_read+0x12>
  }

  return len;
 80024e6:	687b      	ldr	r3, [r7, #4]
}
 80024e8:	4618      	mov	r0, r3
 80024ea:	3718      	adds	r7, #24
 80024ec:	46bd      	mov	sp, r7
 80024ee:	bd80      	pop	{r7, pc}

080024f0 <_write>:

__attribute__((weak)) int _write(int file, char *ptr, int len)
{
 80024f0:	b580      	push	{r7, lr}
 80024f2:	b086      	sub	sp, #24
 80024f4:	af00      	add	r7, sp, #0
 80024f6:	60f8      	str	r0, [r7, #12]
 80024f8:	60b9      	str	r1, [r7, #8]
 80024fa:	607a      	str	r2, [r7, #4]
  (void)file;
  int DataIdx;

  for (DataIdx = 0; DataIdx < len; DataIdx++)
 80024fc:	2300      	movs	r3, #0
 80024fe:	617b      	str	r3, [r7, #20]
 8002500:	e009      	b.n	8002516 <_write+0x26>
  {
    __io_putchar(*ptr++);
 8002502:	68bb      	ldr	r3, [r7, #8]
 8002504:	1c5a      	adds	r2, r3, #1
 8002506:	60ba      	str	r2, [r7, #8]
 8002508:	781b      	ldrb	r3, [r3, #0]
 800250a:	4618      	mov	r0, r3
 800250c:	f3af 8000 	nop.w
  for (DataIdx = 0; DataIdx < len; DataIdx++)
 8002510:	697b      	ldr	r3, [r7, #20]
 8002512:	3301      	adds	r3, #1
 8002514:	617b      	str	r3, [r7, #20]
 8002516:	697a      	ldr	r2, [r7, #20]
 8002518:	687b      	ldr	r3, [r7, #4]
 800251a:	429a      	cmp	r2, r3
 800251c:	dbf1      	blt.n	8002502 <_write+0x12>
  }
  return len;
 800251e:	687b      	ldr	r3, [r7, #4]
}
 8002520:	4618      	mov	r0, r3
 8002522:	3718      	adds	r7, #24
 8002524:	46bd      	mov	sp, r7
 8002526:	bd80      	pop	{r7, pc}

08002528 <_close>:

int _close(int file)
{
 8002528:	b480      	push	{r7}
 800252a:	b083      	sub	sp, #12
 800252c:	af00      	add	r7, sp, #0
 800252e:	6078      	str	r0, [r7, #4]
  (void)file;
  return -1;
 8002530:	f04f 33ff 	mov.w	r3, #4294967295	@ 0xffffffff
}
 8002534:	4618      	mov	r0, r3
 8002536:	370c      	adds	r7, #12
 8002538:	46bd      	mov	sp, r7
 800253a:	f85d 7b04 	ldr.w	r7, [sp], #4
 800253e:	4770      	bx	lr

08002540 <_fstat>:


int _fstat(int file, struct stat *st)
{
 8002540:	b480      	push	{r7}
 8002542:	b083      	sub	sp, #12
 8002544:	af00      	add	r7, sp, #0
 8002546:	6078      	str	r0, [r7, #4]
 8002548:	6039      	str	r1, [r7, #0]
  (void)file;
  st->st_mode = S_IFCHR;
 800254a:	683b      	ldr	r3, [r7, #0]
 800254c:	f44f 5200 	mov.w	r2, #8192	@ 0x2000
 8002550:	605a      	str	r2, [r3, #4]
  return 0;
 8002552:	2300      	movs	r3, #0
}
 8002554:	4618      	mov	r0, r3
 8002556:	370c      	adds	r7, #12
 8002558:	46bd      	mov	sp, r7
 800255a:	f85d 7b04 	ldr.w	r7, [sp], #4
 800255e:	4770      	bx	lr

08002560 <_isatty>:

int _isatty(int file)
{
 8002560:	b480      	push	{r7}
 8002562:	b083      	sub	sp, #12
 8002564:	af00      	add	r7, sp, #0
 8002566:	6078      	str	r0, [r7, #4]
  (void)file;
  return 1;
 8002568:	2301      	movs	r3, #1
}
 800256a:	4618      	mov	r0, r3
 800256c:	370c      	adds	r7, #12
 800256e:	46bd      	mov	sp, r7
 8002570:	f85d 7b04 	ldr.w	r7, [sp], #4
 8002574:	4770      	bx	lr

08002576 <_lseek>:

int _lseek(int file, int ptr, int dir)
{
 8002576:	b480      	push	{r7}
 8002578:	b085      	sub	sp, #20
 800257a:	af00      	add	r7, sp, #0
 800257c:	60f8      	str	r0, [r7, #12]
 800257e:	60b9      	str	r1, [r7, #8]
 8002580:	607a      	str	r2, [r7, #4]
  (void)file;
  (void)ptr;
  (void)dir;
  return 0;
 8002582:	2300      	movs	r3, #0
}
 8002584:	4618      	mov	r0, r3
 8002586:	3714      	adds	r7, #20
 8002588:	46bd      	mov	sp, r7
 800258a:	f85d 7b04 	ldr.w	r7, [sp], #4
 800258e:	4770      	bx	lr

08002590 <_sbrk>:
 *
 * @param incr Memory size
 * @return Pointer to allocated memory
 */
void *_sbrk(ptrdiff_t incr)
{
 8002590:	b580      	push	{r7, lr}
 8002592:	b086      	sub	sp, #24
 8002594:	af00      	add	r7, sp, #0
 8002596:	6078      	str	r0, [r7, #4]
  extern uint8_t _end; /* Symbol defined in the linker script */
  extern uint8_t _estack; /* Symbol defined in the linker script */
  extern uint32_t _Min_Stack_Size; /* Symbol defined in the linker script */
  const uint32_t stack_limit = (uint32_t)&_estack - (uint32_t)&_Min_Stack_Size;
 8002598:	4a14      	ldr	r2, [pc, #80]	@ (80025ec <_sbrk+0x5c>)
 800259a:	4b15      	ldr	r3, [pc, #84]	@ (80025f0 <_sbrk+0x60>)
 800259c:	1ad3      	subs	r3, r2, r3
 800259e:	617b      	str	r3, [r7, #20]
  const uint8_t *max_heap = (uint8_t *)stack_limit;
 80025a0:	697b      	ldr	r3, [r7, #20]
 80025a2:	613b      	str	r3, [r7, #16]
  uint8_t *prev_heap_end;

  /* Initialize heap end at first call */
  if (NULL == __sbrk_heap_end)
 80025a4:	4b13      	ldr	r3, [pc, #76]	@ (80025f4 <_sbrk+0x64>)
 80025a6:	681b      	ldr	r3, [r3, #0]
 80025a8:	2b00      	cmp	r3, #0
 80025aa:	d102      	bne.n	80025b2 <_sbrk+0x22>
  {
    __sbrk_heap_end = &_end;
 80025ac:	4b11      	ldr	r3, [pc, #68]	@ (80025f4 <_sbrk+0x64>)
 80025ae:	4a12      	ldr	r2, [pc, #72]	@ (80025f8 <_sbrk+0x68>)
 80025b0:	601a      	str	r2, [r3, #0]
  }

  /* Protect heap from growing into the reserved MSP stack */
  if (__sbrk_heap_end + incr > max_heap)
 80025b2:	4b10      	ldr	r3, [pc, #64]	@ (80025f4 <_sbrk+0x64>)
 80025b4:	681a      	ldr	r2, [r3, #0]
 80025b6:	687b      	ldr	r3, [r7, #4]
 80025b8:	4413      	add	r3, r2
 80025ba:	693a      	ldr	r2, [r7, #16]
 80025bc:	429a      	cmp	r2, r3
 80025be:	d207      	bcs.n	80025d0 <_sbrk+0x40>
  {
    errno = ENOMEM;
 80025c0:	f004 f898 	bl	80066f4 <__errno>
 80025c4:	4603      	mov	r3, r0
 80025c6:	220c      	movs	r2, #12
 80025c8:	601a      	str	r2, [r3, #0]
    return (void *)-1;
 80025ca:	f04f 33ff 	mov.w	r3, #4294967295	@ 0xffffffff
 80025ce:	e009      	b.n	80025e4 <_sbrk+0x54>
  }

  prev_heap_end = __sbrk_heap_end;
 80025d0:	4b08      	ldr	r3, [pc, #32]	@ (80025f4 <_sbrk+0x64>)
 80025d2:	681b      	ldr	r3, [r3, #0]
 80025d4:	60fb      	str	r3, [r7, #12]
  __sbrk_heap_end += incr;
 80025d6:	4b07      	ldr	r3, [pc, #28]	@ (80025f4 <_sbrk+0x64>)
 80025d8:	681a      	ldr	r2, [r3, #0]
 80025da:	687b      	ldr	r3, [r7, #4]
 80025dc:	4413      	add	r3, r2
 80025de:	4a05      	ldr	r2, [pc, #20]	@ (80025f4 <_sbrk+0x64>)
 80025e0:	6013      	str	r3, [r2, #0]

  return (void *)prev_heap_end;
 80025e2:	68fb      	ldr	r3, [r7, #12]
}
 80025e4:	4618      	mov	r0, r3
 80025e6:	3718      	adds	r7, #24
 80025e8:	46bd      	mov	sp, r7
 80025ea:	bd80      	pop	{r7, pc}
 80025ec:	20020000 	.word	0x20020000
 80025f0:	00000400 	.word	0x00000400
 80025f4:	2000036c 	.word	0x2000036c
 80025f8:	200004c0 	.word	0x200004c0

080025fc <SystemInit>:
  *         configuration.
  * @param  None
  * @retval None
  */
void SystemInit(void)
{
 80025fc:	b480      	push	{r7}
 80025fe:	af00      	add	r7, sp, #0
  /* FPU settings ------------------------------------------------------------*/
  #if (__FPU_PRESENT == 1) && (__FPU_USED == 1)
    SCB->CPACR |= ((3UL << 10*2)|(3UL << 11*2));  /* set CP10 and CP11 Full Access */
 8002600:	4b06      	ldr	r3, [pc, #24]	@ (800261c <SystemInit+0x20>)
 8002602:	f8d3 3088 	ldr.w	r3, [r3, #136]	@ 0x88
 8002606:	4a05      	ldr	r2, [pc, #20]	@ (800261c <SystemInit+0x20>)
 8002608:	f443 0370 	orr.w	r3, r3, #15728640	@ 0xf00000
 800260c:	f8c2 3088 	str.w	r3, [r2, #136]	@ 0x88

  /* Configure the Vector Table location -------------------------------------*/
#if defined(USER_VECT_TAB_ADDRESS)
  SCB->VTOR = VECT_TAB_BASE_ADDRESS | VECT_TAB_OFFSET; /* Vector Table Relocation in Internal SRAM */
#endif /* USER_VECT_TAB_ADDRESS */
}
 8002610:	bf00      	nop
 8002612:	46bd      	mov	sp, r7
 8002614:	f85d 7b04 	ldr.w	r7, [sp], #4
 8002618:	4770      	bx	lr
 800261a:	bf00      	nop
 800261c:	e000ed00 	.word	0xe000ed00

08002620 <Reset_Handler>:

    .section  .text.Reset_Handler
  .weak  Reset_Handler
  .type  Reset_Handler, %function
Reset_Handler:  
  ldr   sp, =_estack      /* set stack pointer */
 8002620:	f8df d034 	ldr.w	sp, [pc, #52]	@ 8002658 <LoopFillZerobss+0xe>
  
/* Call the clock system initialization function.*/
  bl  SystemInit  
 8002624:	f7ff ffea 	bl	80025fc <SystemInit>

/* Copy the data segment initializers from flash to SRAM */  
  ldr r0, =_sdata
 8002628:	480c      	ldr	r0, [pc, #48]	@ (800265c <LoopFillZerobss+0x12>)
  ldr r1, =_edata
 800262a:	490d      	ldr	r1, [pc, #52]	@ (8002660 <LoopFillZerobss+0x16>)
  ldr r2, =_sidata
 800262c:	4a0d      	ldr	r2, [pc, #52]	@ (8002664 <LoopFillZerobss+0x1a>)
  movs r3, #0
 800262e:	2300      	movs	r3, #0
  b LoopCopyDataInit
 8002630:	e002      	b.n	8002638 <LoopCopyDataInit>

08002632 <CopyDataInit>:

CopyDataInit:
  ldr r4, [r2, r3]
 8002632:	58d4      	ldr	r4, [r2, r3]
  str r4, [r0, r3]
 8002634:	50c4      	str	r4, [r0, r3]
  adds r3, r3, #4
 8002636:	3304      	adds	r3, #4

08002638 <LoopCopyDataInit>:

LoopCopyDataInit:
  adds r4, r0, r3
 8002638:	18c4      	adds	r4, r0, r3
  cmp r4, r1
 800263a:	428c      	cmp	r4, r1
  bcc CopyDataInit
 800263c:	d3f9      	bcc.n	8002632 <CopyDataInit>
  
/* Zero fill the bss segment. */
  ldr r2, =_sbss
 800263e:	4a0a      	ldr	r2, [pc, #40]	@ (8002668 <LoopFillZerobss+0x1e>)
  ldr r4, =_ebss
 8002640:	4c0a      	ldr	r4, [pc, #40]	@ (800266c <LoopFillZerobss+0x22>)
  movs r3, #0
 8002642:	2300      	movs	r3, #0
  b LoopFillZerobss
 8002644:	e001      	b.n	800264a <LoopFillZerobss>

08002646 <FillZerobss>:

FillZerobss:
  str  r3, [r2]
 8002646:	6013      	str	r3, [r2, #0]
  adds r2, r2, #4
 8002648:	3204      	adds	r2, #4

0800264a <LoopFillZerobss>:

LoopFillZerobss:
  cmp r2, r4
 800264a:	42a2      	cmp	r2, r4
  bcc FillZerobss
 800264c:	d3fb      	bcc.n	8002646 <FillZerobss>
  
/* Call static constructors */
    bl __libc_init_array
 800264e:	f004 f857 	bl	8006700 <__libc_init_array>
/* Call the application's entry point.*/
  bl  main
 8002652:	f7ff fb65 	bl	8001d20 <main>
  bx  lr    
 8002656:	4770      	bx	lr
  ldr   sp, =_estack      /* set stack pointer */
 8002658:	20020000 	.word	0x20020000
  ldr r0, =_sdata
 800265c:	20000000 	.word	0x20000000
  ldr r1, =_edata
 8002660:	200001d4 	.word	0x200001d4
  ldr r2, =_sidata
 8002664:	08008c68 	.word	0x08008c68
  ldr r2, =_sbss
 8002668:	200001d4 	.word	0x200001d4
  ldr r4, =_ebss
 800266c:	200004c0 	.word	0x200004c0

08002670 <ADC_IRQHandler>:
 * @retval None       
*/
    .section  .text.Default_Handler,"ax",%progbits
Default_Handler:
Infinite_Loop:
  b  Infinite_Loop
 8002670:	e7fe      	b.n	8002670 <ADC_IRQHandler>
	...

08002674 <HAL_Init>:
  *         need to ensure that the SysTick time base is always set to 1 millisecond
  *         to have correct HAL operation.
  * @retval HAL status
  */
HAL_StatusTypeDef HAL_Init(void)
{
 8002674:	b580      	push	{r7, lr}
 8002676:	af00      	add	r7, sp, #0
  /* Configure Flash prefetch, Instruction cache, Data cache */ 
#if (INSTRUCTION_CACHE_ENABLE != 0U)
  __HAL_FLASH_INSTRUCTION_CACHE_ENABLE();
 8002678:	4b0e      	ldr	r3, [pc, #56]	@ (80026b4 <HAL_Init+0x40>)
 800267a:	681b      	ldr	r3, [r3, #0]
 800267c:	4a0d      	ldr	r2, [pc, #52]	@ (80026b4 <HAL_Init+0x40>)
 800267e:	f443 7300 	orr.w	r3, r3, #512	@ 0x200
 8002682:	6013      	str	r3, [r2, #0]
#endif /* INSTRUCTION_CACHE_ENABLE */

#if (DATA_CACHE_ENABLE != 0U)
  __HAL_FLASH_DATA_CACHE_ENABLE();
 8002684:	4b0b      	ldr	r3, [pc, #44]	@ (80026b4 <HAL_Init+0x40>)
 8002686:	681b      	ldr	r3, [r3, #0]
 8002688:	4a0a      	ldr	r2, [pc, #40]	@ (80026b4 <HAL_Init+0x40>)
 800268a:	f443 6380 	orr.w	r3, r3, #1024	@ 0x400
 800268e:	6013      	str	r3, [r2, #0]
#endif /* DATA_CACHE_ENABLE */

#if (PREFETCH_ENABLE != 0U)
  __HAL_FLASH_PREFETCH_BUFFER_ENABLE();
 8002690:	4b08      	ldr	r3, [pc, #32]	@ (80026b4 <HAL_Init+0x40>)
 8002692:	681b      	ldr	r3, [r3, #0]
 8002694:	4a07      	ldr	r2, [pc, #28]	@ (80026b4 <HAL_Init+0x40>)
 8002696:	f443 7380 	orr.w	r3, r3, #256	@ 0x100
 800269a:	6013      	str	r3, [r2, #0]
#endif /* PREFETCH_ENABLE */

  /* Set Interrupt Group Priority */
  HAL_NVIC_SetPriorityGrouping(NVIC_PRIORITYGROUP_4);
 800269c:	2003      	movs	r0, #3
 800269e:	f001 fc91 	bl	8003fc4 <HAL_NVIC_SetPriorityGrouping>

  /* Use systick as time base source and configure 1ms tick (default clock after Reset is HSI) */
  HAL_InitTick(TICK_INT_PRIORITY);
 80026a2:	2000      	movs	r0, #0
 80026a4:	f000 f808 	bl	80026b8 <HAL_InitTick>

  /* Init the low level hardware */
  HAL_MspInit();
 80026a8:	f7ff fd2e 	bl	8002108 <HAL_MspInit>

  /* Return function status */
  return HAL_OK;
 80026ac:	2300      	movs	r3, #0
}
 80026ae:	4618      	mov	r0, r3
 80026b0:	bd80      	pop	{r7, pc}
 80026b2:	bf00      	nop
 80026b4:	40023c00 	.word	0x40023c00

080026b8 <HAL_InitTick>:
  *       implementation  in user file.
  * @param TickPriority Tick interrupt priority.
  * @retval HAL status
  */
__weak HAL_StatusTypeDef HAL_InitTick(uint32_t TickPriority)
{
 80026b8:	b580      	push	{r7, lr}
 80026ba:	b082      	sub	sp, #8
 80026bc:	af00      	add	r7, sp, #0
 80026be:	6078      	str	r0, [r7, #4]
  /* Configure the SysTick to have interrupt in 1ms time basis*/
  if (HAL_SYSTICK_Config(SystemCoreClock / (1000U / uwTickFreq)) > 0U)
 80026c0:	4b12      	ldr	r3, [pc, #72]	@ (800270c <HAL_InitTick+0x54>)
 80026c2:	681a      	ldr	r2, [r3, #0]
 80026c4:	4b12      	ldr	r3, [pc, #72]	@ (8002710 <HAL_InitTick+0x58>)
 80026c6:	781b      	ldrb	r3, [r3, #0]
 80026c8:	4619      	mov	r1, r3
 80026ca:	f44f 737a 	mov.w	r3, #1000	@ 0x3e8
 80026ce:	fbb3 f3f1 	udiv	r3, r3, r1
 80026d2:	fbb2 f3f3 	udiv	r3, r2, r3
 80026d6:	4618      	mov	r0, r3
 80026d8:	f001 fca9 	bl	800402e <HAL_SYSTICK_Config>
 80026dc:	4603      	mov	r3, r0
 80026de:	2b00      	cmp	r3, #0
 80026e0:	d001      	beq.n	80026e6 <HAL_InitTick+0x2e>
  {
    return HAL_ERROR;
 80026e2:	2301      	movs	r3, #1
 80026e4:	e00e      	b.n	8002704 <HAL_InitTick+0x4c>
  }

  /* Configure the SysTick IRQ priority */
  if (TickPriority < (1UL << __NVIC_PRIO_BITS))
 80026e6:	687b      	ldr	r3, [r7, #4]
 80026e8:	2b0f      	cmp	r3, #15
 80026ea:	d80a      	bhi.n	8002702 <HAL_InitTick+0x4a>
  {
    HAL_NVIC_SetPriority(SysTick_IRQn, TickPriority, 0U);
 80026ec:	2200      	movs	r2, #0
 80026ee:	6879      	ldr	r1, [r7, #4]
 80026f0:	f04f 30ff 	mov.w	r0, #4294967295	@ 0xffffffff
 80026f4:	f001 fc71 	bl	8003fda <HAL_NVIC_SetPriority>
    uwTickPrio = TickPriority;
 80026f8:	4a06      	ldr	r2, [pc, #24]	@ (8002714 <HAL_InitTick+0x5c>)
 80026fa:	687b      	ldr	r3, [r7, #4]
 80026fc:	6013      	str	r3, [r2, #0]
  {
    return HAL_ERROR;
  }

  /* Return function status */
  return HAL_OK;
 80026fe:	2300      	movs	r3, #0
 8002700:	e000      	b.n	8002704 <HAL_InitTick+0x4c>
    return HAL_ERROR;
 8002702:	2301      	movs	r3, #1
}
 8002704:	4618      	mov	r0, r3
 8002706:	3708      	adds	r7, #8
 8002708:	46bd      	mov	sp, r7
 800270a:	bd80      	pop	{r7, pc}
 800270c:	20000000 	.word	0x20000000
 8002710:	20000008 	.word	0x20000008
 8002714:	20000004 	.word	0x20000004

08002718 <HAL_IncTick>:
 * @note This function is declared as __weak to be overwritten in case of other 
  *      implementations in user file.
  * @retval None
  */
__weak void HAL_IncTick(void)
{
 8002718:	b480      	push	{r7}
 800271a:	af00      	add	r7, sp, #0
  uwTick += uwTickFreq;
 800271c:	4b06      	ldr	r3, [pc, #24]	@ (8002738 <HAL_IncTick+0x20>)
 800271e:	781b      	ldrb	r3, [r3, #0]
 8002720:	461a      	mov	r2, r3
 8002722:	4b06      	ldr	r3, [pc, #24]	@ (800273c <HAL_IncTick+0x24>)
 8002724:	681b      	ldr	r3, [r3, #0]
 8002726:	4413      	add	r3, r2
 8002728:	4a04      	ldr	r2, [pc, #16]	@ (800273c <HAL_IncTick+0x24>)
 800272a:	6013      	str	r3, [r2, #0]
}
 800272c:	bf00      	nop
 800272e:	46bd      	mov	sp, r7
 8002730:	f85d 7b04 	ldr.w	r7, [sp], #4
 8002734:	4770      	bx	lr
 8002736:	bf00      	nop
 8002738:	20000008 	.word	0x20000008
 800273c:	20000370 	.word	0x20000370

08002740 <HAL_GetTick>:
  * @note This function is declared as __weak to be overwritten in case of other 
  *       implementations in user file.
  * @retval tick value
  */
__weak uint32_t HAL_GetTick(void)
{
 8002740:	b480      	push	{r7}
 8002742:	af00      	add	r7, sp, #0
  return uwTick;
 8002744:	4b03      	ldr	r3, [pc, #12]	@ (8002754 <HAL_GetTick+0x14>)
 8002746:	681b      	ldr	r3, [r3, #0]
}
 8002748:	4618      	mov	r0, r3
 800274a:	46bd      	mov	sp, r7
 800274c:	f85d 7b04 	ldr.w	r7, [sp], #4
 8002750:	4770      	bx	lr
 8002752:	bf00      	nop
 8002754:	20000370 	.word	0x20000370

08002758 <HAL_Delay>:
  *       implementations in user file.
  * @param Delay specifies the delay time length, in milliseconds.
  * @retval None
  */
__weak void HAL_Delay(uint32_t Delay)
{
 8002758:	b580      	push	{r7, lr}
 800275a:	b084      	sub	sp, #16
 800275c:	af00      	add	r7, sp, #0
 800275e:	6078      	str	r0, [r7, #4]
  uint32_t tickstart = HAL_GetTick();
 8002760:	f7ff ffee 	bl	8002740 <HAL_GetTick>
 8002764:	60b8      	str	r0, [r7, #8]
  uint32_t wait = Delay;
 8002766:	687b      	ldr	r3, [r7, #4]
 8002768:	60fb      	str	r3, [r7, #12]

  /* Add a freq to guarantee minimum wait */
  if (wait < HAL_MAX_DELAY)
 800276a:	68fb      	ldr	r3, [r7, #12]
 800276c:	f1b3 3fff 	cmp.w	r3, #4294967295	@ 0xffffffff
 8002770:	d005      	beq.n	800277e <HAL_Delay+0x26>
  {
    wait += (uint32_t)(uwTickFreq);
 8002772:	4b0a      	ldr	r3, [pc, #40]	@ (800279c <HAL_Delay+0x44>)
 8002774:	781b      	ldrb	r3, [r3, #0]
 8002776:	461a      	mov	r2, r3
 8002778:	68fb      	ldr	r3, [r7, #12]
 800277a:	4413      	add	r3, r2
 800277c:	60fb      	str	r3, [r7, #12]
  }

  while((HAL_GetTick() - tickstart) < wait)
 800277e:	bf00      	nop
 8002780:	f7ff ffde 	bl	8002740 <HAL_GetTick>
 8002784:	4602      	mov	r2, r0
 8002786:	68bb      	ldr	r3, [r7, #8]
 8002788:	1ad3      	subs	r3, r2, r3
 800278a:	68fa      	ldr	r2, [r7, #12]
 800278c:	429a      	cmp	r2, r3
 800278e:	d8f7      	bhi.n	8002780 <HAL_Delay+0x28>
  {
  }
}
 8002790:	bf00      	nop
 8002792:	bf00      	nop
 8002794:	3710      	adds	r7, #16
 8002796:	46bd      	mov	sp, r7
 8002798:	bd80      	pop	{r7, pc}
 800279a:	bf00      	nop
 800279c:	20000008 	.word	0x20000008

080027a0 <HAL_ADC_Init>:
  * @param  hadc pointer to a ADC_HandleTypeDef structure that contains
  *         the configuration information for the specified ADC.
  * @retval HAL status
  */
HAL_StatusTypeDef HAL_ADC_Init(ADC_HandleTypeDef *hadc)
{
 80027a0:	b580      	push	{r7, lr}
 80027a2:	b084      	sub	sp, #16
 80027a4:	af00      	add	r7, sp, #0
 80027a6:	6078      	str	r0, [r7, #4]
  HAL_StatusTypeDef tmp_hal_status = HAL_OK;
 80027a8:	2300      	movs	r3, #0
 80027aa:	73fb      	strb	r3, [r7, #15]

  /* Check ADC handle */
  if (hadc == NULL)
 80027ac:	687b      	ldr	r3, [r7, #4]
 80027ae:	2b00      	cmp	r3, #0
 80027b0:	d101      	bne.n	80027b6 <HAL_ADC_Init+0x16>
  {
    return HAL_ERROR;
 80027b2:	2301      	movs	r3, #1
 80027b4:	e033      	b.n	800281e <HAL_ADC_Init+0x7e>
  if (hadc->Init.ExternalTrigConv != ADC_SOFTWARE_START)
  {
    assert_param(IS_ADC_EXT_TRIG_EDGE(hadc->Init.ExternalTrigConvEdge));
  }

  if (hadc->State == HAL_ADC_STATE_RESET)
 80027b6:	687b      	ldr	r3, [r7, #4]
 80027b8:	6c1b      	ldr	r3, [r3, #64]	@ 0x40
 80027ba:	2b00      	cmp	r3, #0
 80027bc:	d109      	bne.n	80027d2 <HAL_ADC_Init+0x32>

    /* Init the low level hardware */
    hadc->MspInitCallback(hadc);
#else
    /* Init the low level hardware */
    HAL_ADC_MspInit(hadc);
 80027be:	6878      	ldr	r0, [r7, #4]
 80027c0:	f7ff fcca 	bl	8002158 <HAL_ADC_MspInit>
#endif /* USE_HAL_ADC_REGISTER_CALLBACKS */

    /* Initialize ADC error code */
    ADC_CLEAR_ERRORCODE(hadc);
 80027c4:	687b      	ldr	r3, [r7, #4]
 80027c6:	2200      	movs	r2, #0
 80027c8:	645a      	str	r2, [r3, #68]	@ 0x44

    /* Allocate lock resource and initialize it */
    hadc->Lock = HAL_UNLOCKED;
 80027ca:	687b      	ldr	r3, [r7, #4]
 80027cc:	2200      	movs	r2, #0
 80027ce:	f883 203c 	strb.w	r2, [r3, #60]	@ 0x3c
  }

  /* Configuration of ADC parameters if previous preliminary actions are      */
  /* correctly completed.                                                     */
  if (HAL_IS_BIT_CLR(hadc->State, HAL_ADC_STATE_ERROR_INTERNAL))
 80027d2:	687b      	ldr	r3, [r7, #4]
 80027d4:	6c1b      	ldr	r3, [r3, #64]	@ 0x40
 80027d6:	f003 0310 	and.w	r3, r3, #16
 80027da:	2b00      	cmp	r3, #0
 80027dc:	d118      	bne.n	8002810 <HAL_ADC_Init+0x70>
  {
    /* Set ADC state */
    ADC_STATE_CLR_SET(hadc->State,
 80027de:	687b      	ldr	r3, [r7, #4]
 80027e0:	6c1b      	ldr	r3, [r3, #64]	@ 0x40
 80027e2:	f423 5388 	bic.w	r3, r3, #4352	@ 0x1100
 80027e6:	f023 0302 	bic.w	r3, r3, #2
 80027ea:	f043 0202 	orr.w	r2, r3, #2
 80027ee:	687b      	ldr	r3, [r7, #4]
 80027f0:	641a      	str	r2, [r3, #64]	@ 0x40
                      HAL_ADC_STATE_REG_BUSY | HAL_ADC_STATE_INJ_BUSY,
                      HAL_ADC_STATE_BUSY_INTERNAL);

    /* Set ADC parameters */
    ADC_Init(hadc);
 80027f2:	6878      	ldr	r0, [r7, #4]
 80027f4:	f000 fab4 	bl	8002d60 <ADC_Init>

    /* Set ADC error code to none */
    ADC_CLEAR_ERRORCODE(hadc);
 80027f8:	687b      	ldr	r3, [r7, #4]
 80027fa:	2200      	movs	r2, #0
 80027fc:	645a      	str	r2, [r3, #68]	@ 0x44

    /* Set the ADC state */
    ADC_STATE_CLR_SET(hadc->State,
 80027fe:	687b      	ldr	r3, [r7, #4]
 8002800:	6c1b      	ldr	r3, [r3, #64]	@ 0x40
 8002802:	f023 0303 	bic.w	r3, r3, #3
 8002806:	f043 0201 	orr.w	r2, r3, #1
 800280a:	687b      	ldr	r3, [r7, #4]
 800280c:	641a      	str	r2, [r3, #64]	@ 0x40
 800280e:	e001      	b.n	8002814 <HAL_ADC_Init+0x74>
                      HAL_ADC_STATE_BUSY_INTERNAL,
                      HAL_ADC_STATE_READY);
  }
  else
  {
    tmp_hal_status = HAL_ERROR;
 8002810:	2301      	movs	r3, #1
 8002812:	73fb      	strb	r3, [r7, #15]
  }

  /* Release Lock */
  __HAL_UNLOCK(hadc);
 8002814:	687b      	ldr	r3, [r7, #4]
 8002816:	2200      	movs	r2, #0
 8002818:	f883 203c 	strb.w	r2, [r3, #60]	@ 0x3c

  /* Return function status */
  return tmp_hal_status;
 800281c:	7bfb      	ldrb	r3, [r7, #15]
}
 800281e:	4618      	mov	r0, r3
 8002820:	3710      	adds	r7, #16
 8002822:	46bd      	mov	sp, r7
 8002824:	bd80      	pop	{r7, pc}
	...

08002828 <HAL_ADC_Start>:
  * @param  hadc pointer to a ADC_HandleTypeDef structure that contains
  *         the configuration information for the specified ADC.
  * @retval HAL status
  */
HAL_StatusTypeDef HAL_ADC_Start(ADC_HandleTypeDef *hadc)
{
 8002828:	b480      	push	{r7}
 800282a:	b085      	sub	sp, #20
 800282c:	af00      	add	r7, sp, #0
 800282e:	6078      	str	r0, [r7, #4]
  __IO uint32_t counter = 0U;
 8002830:	2300      	movs	r3, #0
 8002832:	60bb      	str	r3, [r7, #8]
  /* Check the parameters */
  assert_param(IS_FUNCTIONAL_STATE(hadc->Init.ContinuousConvMode));
  assert_param(IS_ADC_EXT_TRIG_EDGE(hadc->Init.ExternalTrigConvEdge));

  /* Process locked */
  __HAL_LOCK(hadc);
 8002834:	687b      	ldr	r3, [r7, #4]
 8002836:	f893 303c 	ldrb.w	r3, [r3, #60]	@ 0x3c
 800283a:	2b01      	cmp	r3, #1
 800283c:	d101      	bne.n	8002842 <HAL_ADC_Start+0x1a>
 800283e:	2302      	movs	r3, #2
 8002840:	e0b2      	b.n	80029a8 <HAL_ADC_Start+0x180>
 8002842:	687b      	ldr	r3, [r7, #4]
 8002844:	2201      	movs	r2, #1
 8002846:	f883 203c 	strb.w	r2, [r3, #60]	@ 0x3c

  /* Enable the ADC peripheral */
  /* Check if ADC peripheral is disabled in order to enable it and wait during
  Tstab time the ADC's stabilization */
  if ((hadc->Instance->CR2 & ADC_CR2_ADON) != ADC_CR2_ADON)
 800284a:	687b      	ldr	r3, [r7, #4]
 800284c:	681b      	ldr	r3, [r3, #0]
 800284e:	689b      	ldr	r3, [r3, #8]
 8002850:	f003 0301 	and.w	r3, r3, #1
 8002854:	2b01      	cmp	r3, #1
 8002856:	d018      	beq.n	800288a <HAL_ADC_Start+0x62>
  {
    /* Enable the Peripheral */
    __HAL_ADC_ENABLE(hadc);
 8002858:	687b      	ldr	r3, [r7, #4]
 800285a:	681b      	ldr	r3, [r3, #0]
 800285c:	689a      	ldr	r2, [r3, #8]
 800285e:	687b      	ldr	r3, [r7, #4]
 8002860:	681b      	ldr	r3, [r3, #0]
 8002862:	f042 0201 	orr.w	r2, r2, #1
 8002866:	609a      	str	r2, [r3, #8]

    /* Delay for ADC stabilization time */
    /* Compute number of CPU cycles to wait for */
    counter = (ADC_STAB_DELAY_US * (SystemCoreClock / 1000000U));
 8002868:	4b52      	ldr	r3, [pc, #328]	@ (80029b4 <HAL_ADC_Start+0x18c>)
 800286a:	681b      	ldr	r3, [r3, #0]
 800286c:	4a52      	ldr	r2, [pc, #328]	@ (80029b8 <HAL_ADC_Start+0x190>)
 800286e:	fba2 2303 	umull	r2, r3, r2, r3
 8002872:	0c9a      	lsrs	r2, r3, #18
 8002874:	4613      	mov	r3, r2
 8002876:	005b      	lsls	r3, r3, #1
 8002878:	4413      	add	r3, r2
 800287a:	60bb      	str	r3, [r7, #8]
    while (counter != 0U)
 800287c:	e002      	b.n	8002884 <HAL_ADC_Start+0x5c>
    {
      counter--;
 800287e:	68bb      	ldr	r3, [r7, #8]
 8002880:	3b01      	subs	r3, #1
 8002882:	60bb      	str	r3, [r7, #8]
    while (counter != 0U)
 8002884:	68bb      	ldr	r3, [r7, #8]
 8002886:	2b00      	cmp	r3, #0
 8002888:	d1f9      	bne.n	800287e <HAL_ADC_Start+0x56>
    }
  }

  /* Start conversion if ADC is effectively enabled */
  if (HAL_IS_BIT_SET(hadc->Instance->CR2, ADC_CR2_ADON))
 800288a:	687b      	ldr	r3, [r7, #4]
 800288c:	681b      	ldr	r3, [r3, #0]
 800288e:	689b      	ldr	r3, [r3, #8]
 8002890:	f003 0301 	and.w	r3, r3, #1
 8002894:	2b01      	cmp	r3, #1
 8002896:	d17a      	bne.n	800298e <HAL_ADC_Start+0x166>
  {
    /* Set ADC state                                                          */
    /* - Clear state bitfield related to regular group conversion results     */
    /* - Set state bitfield related to regular group operation                */
    ADC_STATE_CLR_SET(hadc->State,
 8002898:	687b      	ldr	r3, [r7, #4]
 800289a:	6c1b      	ldr	r3, [r3, #64]	@ 0x40
 800289c:	f423 63e0 	bic.w	r3, r3, #1792	@ 0x700
 80028a0:	f023 0301 	bic.w	r3, r3, #1
 80028a4:	f443 7280 	orr.w	r2, r3, #256	@ 0x100
 80028a8:	687b      	ldr	r3, [r7, #4]
 80028aa:	641a      	str	r2, [r3, #64]	@ 0x40
                      HAL_ADC_STATE_READY | HAL_ADC_STATE_REG_EOC | HAL_ADC_STATE_REG_OVR,
                      HAL_ADC_STATE_REG_BUSY);

    /* If conversions on group regular are also triggering group injected,    */
    /* update ADC state.                                                      */
    if (READ_BIT(hadc->Instance->CR1, ADC_CR1_JAUTO) != RESET)
 80028ac:	687b      	ldr	r3, [r7, #4]
 80028ae:	681b      	ldr	r3, [r3, #0]
 80028b0:	685b      	ldr	r3, [r3, #4]
 80028b2:	f403 6380 	and.w	r3, r3, #1024	@ 0x400
 80028b6:	2b00      	cmp	r3, #0
 80028b8:	d007      	beq.n	80028ca <HAL_ADC_Start+0xa2>
    {
      ADC_STATE_CLR_SET(hadc->State, HAL_ADC_STATE_INJ_EOC, HAL_ADC_STATE_INJ_BUSY);
 80028ba:	687b      	ldr	r3, [r7, #4]
 80028bc:	6c1b      	ldr	r3, [r3, #64]	@ 0x40
 80028be:	f423 5340 	bic.w	r3, r3, #12288	@ 0x3000
 80028c2:	f443 5280 	orr.w	r2, r3, #4096	@ 0x1000
 80028c6:	687b      	ldr	r3, [r7, #4]
 80028c8:	641a      	str	r2, [r3, #64]	@ 0x40
    }

    /* State machine update: Check if an injected conversion is ongoing */
    if (HAL_IS_BIT_SET(hadc->State, HAL_ADC_STATE_INJ_BUSY))
 80028ca:	687b      	ldr	r3, [r7, #4]
 80028cc:	6c1b      	ldr	r3, [r3, #64]	@ 0x40
 80028ce:	f403 5380 	and.w	r3, r3, #4096	@ 0x1000
 80028d2:	f5b3 5f80 	cmp.w	r3, #4096	@ 0x1000
 80028d6:	d106      	bne.n	80028e6 <HAL_ADC_Start+0xbe>
    {
      /* Reset ADC error code fields related to conversions on group regular */
      CLEAR_BIT(hadc->ErrorCode, (HAL_ADC_ERROR_OVR | HAL_ADC_ERROR_DMA));
 80028d8:	687b      	ldr	r3, [r7, #4]
 80028da:	6c5b      	ldr	r3, [r3, #68]	@ 0x44
 80028dc:	f023 0206 	bic.w	r2, r3, #6
 80028e0:	687b      	ldr	r3, [r7, #4]
 80028e2:	645a      	str	r2, [r3, #68]	@ 0x44
 80028e4:	e002      	b.n	80028ec <HAL_ADC_Start+0xc4>
    }
    else
    {
      /* Reset ADC all error code fields */
      ADC_CLEAR_ERRORCODE(hadc);
 80028e6:	687b      	ldr	r3, [r7, #4]
 80028e8:	2200      	movs	r2, #0
 80028ea:	645a      	str	r2, [r3, #68]	@ 0x44
    }

    /* Process unlocked */
    /* Unlock before starting ADC conversions: in case of potential           */
    /* interruption, to let the process to ADC IRQ Handler.                   */
    __HAL_UNLOCK(hadc);
 80028ec:	687b      	ldr	r3, [r7, #4]
 80028ee:	2200      	movs	r2, #0
 80028f0:	f883 203c 	strb.w	r2, [r3, #60]	@ 0x3c

    /* Pointer to the common control register to which is belonging hadc    */
    /* (Depending on STM32F4 product, there may be up to 3 ADCs and 1 common */
    /* control register)                                                    */
    tmpADC_Common = ADC_COMMON_REGISTER(hadc);
 80028f4:	4b31      	ldr	r3, [pc, #196]	@ (80029bc <HAL_ADC_Start+0x194>)
 80028f6:	60fb      	str	r3, [r7, #12]

    /* Clear regular group conversion flag and overrun flag */
    /* (To ensure of no unknown state from potential previous ADC operations) */
    __HAL_ADC_CLEAR_FLAG(hadc, ADC_FLAG_EOC | ADC_FLAG_OVR);
 80028f8:	687b      	ldr	r3, [r7, #4]
 80028fa:	681b      	ldr	r3, [r3, #0]
 80028fc:	f06f 0222 	mvn.w	r2, #34	@ 0x22
 8002900:	601a      	str	r2, [r3, #0]

    /* Check if Multimode enabled */
    if (HAL_IS_BIT_CLR(tmpADC_Common->CCR, ADC_CCR_MULTI))
 8002902:	68fb      	ldr	r3, [r7, #12]
 8002904:	685b      	ldr	r3, [r3, #4]
 8002906:	f003 031f 	and.w	r3, r3, #31
 800290a:	2b00      	cmp	r3, #0
 800290c:	d12a      	bne.n	8002964 <HAL_ADC_Start+0x13c>
    {
#if defined(ADC2) && defined(ADC3)
      if ((hadc->Instance == ADC1) || ((hadc->Instance == ADC2) && ((ADC->CCR & ADC_CCR_MULTI_Msk) < ADC_CCR_MULTI_0)) \
 800290e:	687b      	ldr	r3, [r7, #4]
 8002910:	681b      	ldr	r3, [r3, #0]
 8002912:	4a2b      	ldr	r2, [pc, #172]	@ (80029c0 <HAL_ADC_Start+0x198>)
 8002914:	4293      	cmp	r3, r2
 8002916:	d015      	beq.n	8002944 <HAL_ADC_Start+0x11c>
 8002918:	687b      	ldr	r3, [r7, #4]
 800291a:	681b      	ldr	r3, [r3, #0]
 800291c:	4a29      	ldr	r2, [pc, #164]	@ (80029c4 <HAL_ADC_Start+0x19c>)
 800291e:	4293      	cmp	r3, r2
 8002920:	d105      	bne.n	800292e <HAL_ADC_Start+0x106>
 8002922:	4b26      	ldr	r3, [pc, #152]	@ (80029bc <HAL_ADC_Start+0x194>)
 8002924:	685b      	ldr	r3, [r3, #4]
 8002926:	f003 031f 	and.w	r3, r3, #31
 800292a:	2b00      	cmp	r3, #0
 800292c:	d00a      	beq.n	8002944 <HAL_ADC_Start+0x11c>
          || ((hadc->Instance == ADC3) && ((ADC->CCR & ADC_CCR_MULTI_Msk) < ADC_CCR_MULTI_4)))
 800292e:	687b      	ldr	r3, [r7, #4]
 8002930:	681b      	ldr	r3, [r3, #0]
 8002932:	4a25      	ldr	r2, [pc, #148]	@ (80029c8 <HAL_ADC_Start+0x1a0>)
 8002934:	4293      	cmp	r3, r2
 8002936:	d136      	bne.n	80029a6 <HAL_ADC_Start+0x17e>
 8002938:	4b20      	ldr	r3, [pc, #128]	@ (80029bc <HAL_ADC_Start+0x194>)
 800293a:	685b      	ldr	r3, [r3, #4]
 800293c:	f003 0310 	and.w	r3, r3, #16
 8002940:	2b00      	cmp	r3, #0
 8002942:	d130      	bne.n	80029a6 <HAL_ADC_Start+0x17e>
      {
#endif /* ADC2 || ADC3 */
        /* if no external trigger present enable software conversion of regular channels */
        if ((hadc->Instance->CR2 & ADC_CR2_EXTEN) == RESET)
 8002944:	687b      	ldr	r3, [r7, #4]
 8002946:	681b      	ldr	r3, [r3, #0]
 8002948:	689b      	ldr	r3, [r3, #8]
 800294a:	f003 5340 	and.w	r3, r3, #805306368	@ 0x30000000
 800294e:	2b00      	cmp	r3, #0
 8002950:	d129      	bne.n	80029a6 <HAL_ADC_Start+0x17e>
        {
          /* Enable the selected ADC software conversion for regular group */
          hadc->Instance->CR2 |= (uint32_t)ADC_CR2_SWSTART;
 8002952:	687b      	ldr	r3, [r7, #4]
 8002954:	681b      	ldr	r3, [r3, #0]
 8002956:	689a      	ldr	r2, [r3, #8]
 8002958:	687b      	ldr	r3, [r7, #4]
 800295a:	681b      	ldr	r3, [r3, #0]
 800295c:	f042 4280 	orr.w	r2, r2, #1073741824	@ 0x40000000
 8002960:	609a      	str	r2, [r3, #8]
 8002962:	e020      	b.n	80029a6 <HAL_ADC_Start+0x17e>
#endif /* ADC2 || ADC3 */
    }
    else
    {
      /* if instance of handle correspond to ADC1 and  no external trigger present enable software conversion of regular channels */
      if ((hadc->Instance == ADC1) && ((hadc->Instance->CR2 & ADC_CR2_EXTEN) == RESET))
 8002964:	687b      	ldr	r3, [r7, #4]
 8002966:	681b      	ldr	r3, [r3, #0]
 8002968:	4a15      	ldr	r2, [pc, #84]	@ (80029c0 <HAL_ADC_Start+0x198>)
 800296a:	4293      	cmp	r3, r2
 800296c:	d11b      	bne.n	80029a6 <HAL_ADC_Start+0x17e>
 800296e:	687b      	ldr	r3, [r7, #4]
 8002970:	681b      	ldr	r3, [r3, #0]
 8002972:	689b      	ldr	r3, [r3, #8]
 8002974:	f003 5340 	and.w	r3, r3, #805306368	@ 0x30000000
 8002978:	2b00      	cmp	r3, #0
 800297a:	d114      	bne.n	80029a6 <HAL_ADC_Start+0x17e>
      {
        /* Enable the selected ADC software conversion for regular group */
        hadc->Instance->CR2 |= (uint32_t)ADC_CR2_SWSTART;
 800297c:	687b      	ldr	r3, [r7, #4]
 800297e:	681b      	ldr	r3, [r3, #0]
 8002980:	689a      	ldr	r2, [r3, #8]
 8002982:	687b      	ldr	r3, [r7, #4]
 8002984:	681b      	ldr	r3, [r3, #0]
 8002986:	f042 4280 	orr.w	r2, r2, #1073741824	@ 0x40000000
 800298a:	609a      	str	r2, [r3, #8]
 800298c:	e00b      	b.n	80029a6 <HAL_ADC_Start+0x17e>
    }
  }
  else
  {
    /* Update ADC state machine to error */
    SET_BIT(hadc->State, HAL_ADC_STATE_ERROR_INTERNAL);
 800298e:	687b      	ldr	r3, [r7, #4]
 8002990:	6c1b      	ldr	r3, [r3, #64]	@ 0x40
 8002992:	f043 0210 	orr.w	r2, r3, #16
 8002996:	687b      	ldr	r3, [r7, #4]
 8002998:	641a      	str	r2, [r3, #64]	@ 0x40

    /* Set ADC error code to ADC IP internal error */
    SET_BIT(hadc->ErrorCode, HAL_ADC_ERROR_INTERNAL);
 800299a:	687b      	ldr	r3, [r7, #4]
 800299c:	6c5b      	ldr	r3, [r3, #68]	@ 0x44
 800299e:	f043 0201 	orr.w	r2, r3, #1
 80029a2:	687b      	ldr	r3, [r7, #4]
 80029a4:	645a      	str	r2, [r3, #68]	@ 0x44
  }

  /* Return function status */
  return HAL_OK;
 80029a6:	2300      	movs	r3, #0
}
 80029a8:	4618      	mov	r0, r3
 80029aa:	3714      	adds	r7, #20
 80029ac:	46bd      	mov	sp, r7
 80029ae:	f85d 7b04 	ldr.w	r7, [sp], #4
 80029b2:	4770      	bx	lr
 80029b4:	20000000 	.word	0x20000000
 80029b8:	431bde83 	.word	0x431bde83
 80029bc:	40012300 	.word	0x40012300
 80029c0:	40012000 	.word	0x40012000
 80029c4:	40012100 	.word	0x40012100
 80029c8:	40012200 	.word	0x40012200

080029cc <HAL_ADC_PollForConversion>:
  *         the configuration information for the specified ADC.
  * @param  Timeout Timeout value in millisecond.
  * @retval HAL status
  */
HAL_StatusTypeDef HAL_ADC_PollForConversion(ADC_HandleTypeDef *hadc, uint32_t Timeout)
{
 80029cc:	b580      	push	{r7, lr}
 80029ce:	b084      	sub	sp, #16
 80029d0:	af00      	add	r7, sp, #0
 80029d2:	6078      	str	r0, [r7, #4]
 80029d4:	6039      	str	r1, [r7, #0]
  uint32_t tickstart = 0U;
 80029d6:	2300      	movs	r3, #0
 80029d8:	60fb      	str	r3, [r7, #12]
  /* each conversion:                                                       */
  /* Particular case is ADC configured in DMA mode and ADC sequencer with   */
  /* several ranks and polling for end of each conversion.                  */
  /* For code simplicity sake, this particular case is generalized to       */
  /* ADC configured in DMA mode and polling for end of each conversion.     */
  if (HAL_IS_BIT_SET(hadc->Instance->CR2, ADC_CR2_EOCS) &&
 80029da:	687b      	ldr	r3, [r7, #4]
 80029dc:	681b      	ldr	r3, [r3, #0]
 80029de:	689b      	ldr	r3, [r3, #8]
 80029e0:	f403 6380 	and.w	r3, r3, #1024	@ 0x400
 80029e4:	f5b3 6f80 	cmp.w	r3, #1024	@ 0x400
 80029e8:	d113      	bne.n	8002a12 <HAL_ADC_PollForConversion+0x46>
      HAL_IS_BIT_SET(hadc->Instance->CR2, ADC_CR2_DMA))
 80029ea:	687b      	ldr	r3, [r7, #4]
 80029ec:	681b      	ldr	r3, [r3, #0]
 80029ee:	689b      	ldr	r3, [r3, #8]
 80029f0:	f403 7380 	and.w	r3, r3, #256	@ 0x100
  if (HAL_IS_BIT_SET(hadc->Instance->CR2, ADC_CR2_EOCS) &&
 80029f4:	f5b3 7f80 	cmp.w	r3, #256	@ 0x100
 80029f8:	d10b      	bne.n	8002a12 <HAL_ADC_PollForConversion+0x46>
  {
    /* Update ADC state machine to error */
    SET_BIT(hadc->State, HAL_ADC_STATE_ERROR_CONFIG);
 80029fa:	687b      	ldr	r3, [r7, #4]
 80029fc:	6c1b      	ldr	r3, [r3, #64]	@ 0x40
 80029fe:	f043 0220 	orr.w	r2, r3, #32
 8002a02:	687b      	ldr	r3, [r7, #4]
 8002a04:	641a      	str	r2, [r3, #64]	@ 0x40

    /* Process unlocked */
    __HAL_UNLOCK(hadc);
 8002a06:	687b      	ldr	r3, [r7, #4]
 8002a08:	2200      	movs	r2, #0
 8002a0a:	f883 203c 	strb.w	r2, [r3, #60]	@ 0x3c

    return HAL_ERROR;
 8002a0e:	2301      	movs	r3, #1
 8002a10:	e063      	b.n	8002ada <HAL_ADC_PollForConversion+0x10e>
  }

  /* Get tick */
  tickstart = HAL_GetTick();
 8002a12:	f7ff fe95 	bl	8002740 <HAL_GetTick>
 8002a16:	60f8      	str	r0, [r7, #12]

  /* Check End of conversion flag */
  while (!(__HAL_ADC_GET_FLAG(hadc, ADC_FLAG_EOC)))
 8002a18:	e021      	b.n	8002a5e <HAL_ADC_PollForConversion+0x92>
  {
    /* Check if timeout is disabled (set to infinite wait) */
    if (Timeout != HAL_MAX_DELAY)
 8002a1a:	683b      	ldr	r3, [r7, #0]
 8002a1c:	f1b3 3fff 	cmp.w	r3, #4294967295	@ 0xffffffff
 8002a20:	d01d      	beq.n	8002a5e <HAL_ADC_PollForConversion+0x92>
    {
      if ((Timeout == 0U) || ((HAL_GetTick() - tickstart) > Timeout))
 8002a22:	683b      	ldr	r3, [r7, #0]
 8002a24:	2b00      	cmp	r3, #0
 8002a26:	d007      	beq.n	8002a38 <HAL_ADC_PollForConversion+0x6c>
 8002a28:	f7ff fe8a 	bl	8002740 <HAL_GetTick>
 8002a2c:	4602      	mov	r2, r0
 8002a2e:	68fb      	ldr	r3, [r7, #12]
 8002a30:	1ad3      	subs	r3, r2, r3
 8002a32:	683a      	ldr	r2, [r7, #0]
 8002a34:	429a      	cmp	r2, r3
 8002a36:	d212      	bcs.n	8002a5e <HAL_ADC_PollForConversion+0x92>
      {
        /* New check to avoid false timeout detection in case of preemption */
        if (!(__HAL_ADC_GET_FLAG(hadc, ADC_FLAG_EOC)))
 8002a38:	687b      	ldr	r3, [r7, #4]
 8002a3a:	681b      	ldr	r3, [r3, #0]
 8002a3c:	681b      	ldr	r3, [r3, #0]
 8002a3e:	f003 0302 	and.w	r3, r3, #2
 8002a42:	2b02      	cmp	r3, #2
 8002a44:	d00b      	beq.n	8002a5e <HAL_ADC_PollForConversion+0x92>
        {
          /* Update ADC state machine to timeout */
          SET_BIT(hadc->State, HAL_ADC_STATE_TIMEOUT);
 8002a46:	687b      	ldr	r3, [r7, #4]
 8002a48:	6c1b      	ldr	r3, [r3, #64]	@ 0x40
 8002a4a:	f043 0204 	orr.w	r2, r3, #4
 8002a4e:	687b      	ldr	r3, [r7, #4]
 8002a50:	641a      	str	r2, [r3, #64]	@ 0x40

          /* Process unlocked */
          __HAL_UNLOCK(hadc);
 8002a52:	687b      	ldr	r3, [r7, #4]
 8002a54:	2200      	movs	r2, #0
 8002a56:	f883 203c 	strb.w	r2, [r3, #60]	@ 0x3c

          return HAL_TIMEOUT;
 8002a5a:	2303      	movs	r3, #3
 8002a5c:	e03d      	b.n	8002ada <HAL_ADC_PollForConversion+0x10e>
  while (!(__HAL_ADC_GET_FLAG(hadc, ADC_FLAG_EOC)))
 8002a5e:	687b      	ldr	r3, [r7, #4]
 8002a60:	681b      	ldr	r3, [r3, #0]
 8002a62:	681b      	ldr	r3, [r3, #0]
 8002a64:	f003 0302 	and.w	r3, r3, #2
 8002a68:	2b02      	cmp	r3, #2
 8002a6a:	d1d6      	bne.n	8002a1a <HAL_ADC_PollForConversion+0x4e>
      }
    }
  }

  /* Clear regular group conversion flag */
  __HAL_ADC_CLEAR_FLAG(hadc, ADC_FLAG_STRT | ADC_FLAG_EOC);
 8002a6c:	687b      	ldr	r3, [r7, #4]
 8002a6e:	681b      	ldr	r3, [r3, #0]
 8002a70:	f06f 0212 	mvn.w	r2, #18
 8002a74:	601a      	str	r2, [r3, #0]

  /* Update ADC state machine */
  SET_BIT(hadc->State, HAL_ADC_STATE_REG_EOC);
 8002a76:	687b      	ldr	r3, [r7, #4]
 8002a78:	6c1b      	ldr	r3, [r3, #64]	@ 0x40
 8002a7a:	f443 7200 	orr.w	r2, r3, #512	@ 0x200
 8002a7e:	687b      	ldr	r3, [r7, #4]
 8002a80:	641a      	str	r2, [r3, #64]	@ 0x40
  /* by external trigger, continuous mode or scan sequence on going.          */
  /* Note: On STM32F4, there is no independent flag of end of sequence.       */
  /*       The test of scan sequence on going is done either with scan        */
  /*       sequence disabled or with end of conversion flag set to            */
  /*       of end of sequence.                                                */
  if (ADC_IS_SOFTWARE_START_REGULAR(hadc)                   &&
 8002a82:	687b      	ldr	r3, [r7, #4]
 8002a84:	681b      	ldr	r3, [r3, #0]
 8002a86:	689b      	ldr	r3, [r3, #8]
 8002a88:	f003 5340 	and.w	r3, r3, #805306368	@ 0x30000000
 8002a8c:	2b00      	cmp	r3, #0
 8002a8e:	d123      	bne.n	8002ad8 <HAL_ADC_PollForConversion+0x10c>
      (hadc->Init.ContinuousConvMode == DISABLE)            &&
 8002a90:	687b      	ldr	r3, [r7, #4]
 8002a92:	7e1b      	ldrb	r3, [r3, #24]
  if (ADC_IS_SOFTWARE_START_REGULAR(hadc)                   &&
 8002a94:	2b00      	cmp	r3, #0
 8002a96:	d11f      	bne.n	8002ad8 <HAL_ADC_PollForConversion+0x10c>
      (HAL_IS_BIT_CLR(hadc->Instance->SQR1, ADC_SQR1_L) ||
 8002a98:	687b      	ldr	r3, [r7, #4]
 8002a9a:	681b      	ldr	r3, [r3, #0]
 8002a9c:	6adb      	ldr	r3, [r3, #44]	@ 0x2c
 8002a9e:	f403 0370 	and.w	r3, r3, #15728640	@ 0xf00000
      (hadc->Init.ContinuousConvMode == DISABLE)            &&
 8002aa2:	2b00      	cmp	r3, #0
 8002aa4:	d006      	beq.n	8002ab4 <HAL_ADC_PollForConversion+0xe8>
       HAL_IS_BIT_CLR(hadc->Instance->CR2, ADC_CR2_EOCS)))
 8002aa6:	687b      	ldr	r3, [r7, #4]
 8002aa8:	681b      	ldr	r3, [r3, #0]
 8002aaa:	689b      	ldr	r3, [r3, #8]
 8002aac:	f403 6380 	and.w	r3, r3, #1024	@ 0x400
      (HAL_IS_BIT_CLR(hadc->Instance->SQR1, ADC_SQR1_L) ||
 8002ab0:	2b00      	cmp	r3, #0
 8002ab2:	d111      	bne.n	8002ad8 <HAL_ADC_PollForConversion+0x10c>
  {
    /* Set ADC state */
    CLEAR_BIT(hadc->State, HAL_ADC_STATE_REG_BUSY);
 8002ab4:	687b      	ldr	r3, [r7, #4]
 8002ab6:	6c1b      	ldr	r3, [r3, #64]	@ 0x40
 8002ab8:	f423 7280 	bic.w	r2, r3, #256	@ 0x100
 8002abc:	687b      	ldr	r3, [r7, #4]
 8002abe:	641a      	str	r2, [r3, #64]	@ 0x40

    if (HAL_IS_BIT_CLR(hadc->State, HAL_ADC_STATE_INJ_BUSY))
 8002ac0:	687b      	ldr	r3, [r7, #4]
 8002ac2:	6c1b      	ldr	r3, [r3, #64]	@ 0x40
 8002ac4:	f403 5380 	and.w	r3, r3, #4096	@ 0x1000
 8002ac8:	2b00      	cmp	r3, #0
 8002aca:	d105      	bne.n	8002ad8 <HAL_ADC_PollForConversion+0x10c>
    {
      SET_BIT(hadc->State, HAL_ADC_STATE_READY);
 8002acc:	687b      	ldr	r3, [r7, #4]
 8002ace:	6c1b      	ldr	r3, [r3, #64]	@ 0x40
 8002ad0:	f043 0201 	orr.w	r2, r3, #1
 8002ad4:	687b      	ldr	r3, [r7, #4]
 8002ad6:	641a      	str	r2, [r3, #64]	@ 0x40
    }
  }

  /* Return ADC state */
  return HAL_OK;
 8002ad8:	2300      	movs	r3, #0
}
 8002ada:	4618      	mov	r0, r3
 8002adc:	3710      	adds	r7, #16
 8002ade:	46bd      	mov	sp, r7
 8002ae0:	bd80      	pop	{r7, pc}

08002ae2 <HAL_ADC_GetValue>:
  * @param  hadc pointer to a ADC_HandleTypeDef structure that contains
  *         the configuration information for the specified ADC.
  * @retval Converted value
  */
uint32_t HAL_ADC_GetValue(ADC_HandleTypeDef *hadc)
{
 8002ae2:	b480      	push	{r7}
 8002ae4:	b083      	sub	sp, #12
 8002ae6:	af00      	add	r7, sp, #0
 8002ae8:	6078      	str	r0, [r7, #4]
  /* Return the selected ADC converted value */
  return hadc->Instance->DR;
 8002aea:	687b      	ldr	r3, [r7, #4]
 8002aec:	681b      	ldr	r3, [r3, #0]
 8002aee:	6cdb      	ldr	r3, [r3, #76]	@ 0x4c
}
 8002af0:	4618      	mov	r0, r3
 8002af2:	370c      	adds	r7, #12
 8002af4:	46bd      	mov	sp, r7
 8002af6:	f85d 7b04 	ldr.w	r7, [sp], #4
 8002afa:	4770      	bx	lr

08002afc <HAL_ADC_ConfigChannel>:
*         the configuration information for the specified ADC.
* @param  sConfig ADC configuration structure.
* @retval HAL status
*/
HAL_StatusTypeDef HAL_ADC_ConfigChannel(ADC_HandleTypeDef *hadc, ADC_ChannelConfTypeDef *sConfig)
{
 8002afc:	b480      	push	{r7}
 8002afe:	b085      	sub	sp, #20
 8002b00:	af00      	add	r7, sp, #0
 8002b02:	6078      	str	r0, [r7, #4]
 8002b04:	6039      	str	r1, [r7, #0]
  __IO uint32_t counter = 0U;
 8002b06:	2300      	movs	r3, #0
 8002b08:	60bb      	str	r3, [r7, #8]
  assert_param(IS_ADC_CHANNEL(sConfig->Channel));
  assert_param(IS_ADC_REGULAR_RANK(sConfig->Rank));
  assert_param(IS_ADC_SAMPLE_TIME(sConfig->SamplingTime));

  /* Process locked */
  __HAL_LOCK(hadc);
 8002b0a:	687b      	ldr	r3, [r7, #4]
 8002b0c:	f893 303c 	ldrb.w	r3, [r3, #60]	@ 0x3c
 8002b10:	2b01      	cmp	r3, #1
 8002b12:	d101      	bne.n	8002b18 <HAL_ADC_ConfigChannel+0x1c>
 8002b14:	2302      	movs	r3, #2
 8002b16:	e113      	b.n	8002d40 <HAL_ADC_ConfigChannel+0x244>
 8002b18:	687b      	ldr	r3, [r7, #4]
 8002b1a:	2201      	movs	r2, #1
 8002b1c:	f883 203c 	strb.w	r2, [r3, #60]	@ 0x3c

  /* if ADC_Channel_10 ... ADC_Channel_18 is selected */
  if (sConfig->Channel > ADC_CHANNEL_9)
 8002b20:	683b      	ldr	r3, [r7, #0]
 8002b22:	681b      	ldr	r3, [r3, #0]
 8002b24:	2b09      	cmp	r3, #9
 8002b26:	d925      	bls.n	8002b74 <HAL_ADC_ConfigChannel+0x78>
  {
    /* Clear the old sample time */
    hadc->Instance->SMPR1 &= ~ADC_SMPR1(ADC_SMPR1_SMP10, sConfig->Channel);
 8002b28:	687b      	ldr	r3, [r7, #4]
 8002b2a:	681b      	ldr	r3, [r3, #0]
 8002b2c:	68d9      	ldr	r1, [r3, #12]
 8002b2e:	683b      	ldr	r3, [r7, #0]
 8002b30:	681b      	ldr	r3, [r3, #0]
 8002b32:	b29b      	uxth	r3, r3
 8002b34:	461a      	mov	r2, r3
 8002b36:	4613      	mov	r3, r2
 8002b38:	005b      	lsls	r3, r3, #1
 8002b3a:	4413      	add	r3, r2
 8002b3c:	3b1e      	subs	r3, #30
 8002b3e:	2207      	movs	r2, #7
 8002b40:	fa02 f303 	lsl.w	r3, r2, r3
 8002b44:	43da      	mvns	r2, r3
 8002b46:	687b      	ldr	r3, [r7, #4]
 8002b48:	681b      	ldr	r3, [r3, #0]
 8002b4a:	400a      	ands	r2, r1
 8002b4c:	60da      	str	r2, [r3, #12]

    /* Set the new sample time */
    hadc->Instance->SMPR1 |= ADC_SMPR1(sConfig->SamplingTime, sConfig->Channel);
 8002b4e:	687b      	ldr	r3, [r7, #4]
 8002b50:	681b      	ldr	r3, [r3, #0]
 8002b52:	68d9      	ldr	r1, [r3, #12]
 8002b54:	683b      	ldr	r3, [r7, #0]
 8002b56:	689a      	ldr	r2, [r3, #8]
 8002b58:	683b      	ldr	r3, [r7, #0]
 8002b5a:	681b      	ldr	r3, [r3, #0]
 8002b5c:	b29b      	uxth	r3, r3
 8002b5e:	4618      	mov	r0, r3
 8002b60:	4603      	mov	r3, r0
 8002b62:	005b      	lsls	r3, r3, #1
 8002b64:	4403      	add	r3, r0
 8002b66:	3b1e      	subs	r3, #30
 8002b68:	409a      	lsls	r2, r3
 8002b6a:	687b      	ldr	r3, [r7, #4]
 8002b6c:	681b      	ldr	r3, [r3, #0]
 8002b6e:	430a      	orrs	r2, r1
 8002b70:	60da      	str	r2, [r3, #12]
 8002b72:	e022      	b.n	8002bba <HAL_ADC_ConfigChannel+0xbe>
  }
  else /* ADC_Channel include in ADC_Channel_[0..9] */
  {
    /* Clear the old sample time */
    hadc->Instance->SMPR2 &= ~ADC_SMPR2(ADC_SMPR2_SMP0, sConfig->Channel);
 8002b74:	687b      	ldr	r3, [r7, #4]
 8002b76:	681b      	ldr	r3, [r3, #0]
 8002b78:	6919      	ldr	r1, [r3, #16]
 8002b7a:	683b      	ldr	r3, [r7, #0]
 8002b7c:	681b      	ldr	r3, [r3, #0]
 8002b7e:	b29b      	uxth	r3, r3
 8002b80:	461a      	mov	r2, r3
 8002b82:	4613      	mov	r3, r2
 8002b84:	005b      	lsls	r3, r3, #1
 8002b86:	4413      	add	r3, r2
 8002b88:	2207      	movs	r2, #7
 8002b8a:	fa02 f303 	lsl.w	r3, r2, r3
 8002b8e:	43da      	mvns	r2, r3
 8002b90:	687b      	ldr	r3, [r7, #4]
 8002b92:	681b      	ldr	r3, [r3, #0]
 8002b94:	400a      	ands	r2, r1
 8002b96:	611a      	str	r2, [r3, #16]

    /* Set the new sample time */
    hadc->Instance->SMPR2 |= ADC_SMPR2(sConfig->SamplingTime, sConfig->Channel);
 8002b98:	687b      	ldr	r3, [r7, #4]
 8002b9a:	681b      	ldr	r3, [r3, #0]
 8002b9c:	6919      	ldr	r1, [r3, #16]
 8002b9e:	683b      	ldr	r3, [r7, #0]
 8002ba0:	689a      	ldr	r2, [r3, #8]
 8002ba2:	683b      	ldr	r3, [r7, #0]
 8002ba4:	681b      	ldr	r3, [r3, #0]
 8002ba6:	b29b      	uxth	r3, r3
 8002ba8:	4618      	mov	r0, r3
 8002baa:	4603      	mov	r3, r0
 8002bac:	005b      	lsls	r3, r3, #1
 8002bae:	4403      	add	r3, r0
 8002bb0:	409a      	lsls	r2, r3
 8002bb2:	687b      	ldr	r3, [r7, #4]
 8002bb4:	681b      	ldr	r3, [r3, #0]
 8002bb6:	430a      	orrs	r2, r1
 8002bb8:	611a      	str	r2, [r3, #16]
  }

  /* For Rank 1 to 6 */
  if (sConfig->Rank < 7U)
 8002bba:	683b      	ldr	r3, [r7, #0]
 8002bbc:	685b      	ldr	r3, [r3, #4]
 8002bbe:	2b06      	cmp	r3, #6
 8002bc0:	d824      	bhi.n	8002c0c <HAL_ADC_ConfigChannel+0x110>
  {
    /* Clear the old SQx bits for the selected rank */
    hadc->Instance->SQR3 &= ~ADC_SQR3_RK(ADC_SQR3_SQ1, sConfig->Rank);
 8002bc2:	687b      	ldr	r3, [r7, #4]
 8002bc4:	681b      	ldr	r3, [r3, #0]
 8002bc6:	6b59      	ldr	r1, [r3, #52]	@ 0x34
 8002bc8:	683b      	ldr	r3, [r7, #0]
 8002bca:	685a      	ldr	r2, [r3, #4]
 8002bcc:	4613      	mov	r3, r2
 8002bce:	009b      	lsls	r3, r3, #2
 8002bd0:	4413      	add	r3, r2
 8002bd2:	3b05      	subs	r3, #5
 8002bd4:	221f      	movs	r2, #31
 8002bd6:	fa02 f303 	lsl.w	r3, r2, r3
 8002bda:	43da      	mvns	r2, r3
 8002bdc:	687b      	ldr	r3, [r7, #4]
 8002bde:	681b      	ldr	r3, [r3, #0]
 8002be0:	400a      	ands	r2, r1
 8002be2:	635a      	str	r2, [r3, #52]	@ 0x34

    /* Set the SQx bits for the selected rank */
    hadc->Instance->SQR3 |= ADC_SQR3_RK(sConfig->Channel, sConfig->Rank);
 8002be4:	687b      	ldr	r3, [r7, #4]
 8002be6:	681b      	ldr	r3, [r3, #0]
 8002be8:	6b59      	ldr	r1, [r3, #52]	@ 0x34
 8002bea:	683b      	ldr	r3, [r7, #0]
 8002bec:	681b      	ldr	r3, [r3, #0]
 8002bee:	b29b      	uxth	r3, r3
 8002bf0:	4618      	mov	r0, r3
 8002bf2:	683b      	ldr	r3, [r7, #0]
 8002bf4:	685a      	ldr	r2, [r3, #4]
 8002bf6:	4613      	mov	r3, r2
 8002bf8:	009b      	lsls	r3, r3, #2
 8002bfa:	4413      	add	r3, r2
 8002bfc:	3b05      	subs	r3, #5
 8002bfe:	fa00 f203 	lsl.w	r2, r0, r3
 8002c02:	687b      	ldr	r3, [r7, #4]
 8002c04:	681b      	ldr	r3, [r3, #0]
 8002c06:	430a      	orrs	r2, r1
 8002c08:	635a      	str	r2, [r3, #52]	@ 0x34
 8002c0a:	e04c      	b.n	8002ca6 <HAL_ADC_ConfigChannel+0x1aa>
  }
  /* For Rank 7 to 12 */
  else if (sConfig->Rank < 13U)
 8002c0c:	683b      	ldr	r3, [r7, #0]
 8002c0e:	685b      	ldr	r3, [r3, #4]
 8002c10:	2b0c      	cmp	r3, #12
 8002c12:	d824      	bhi.n	8002c5e <HAL_ADC_ConfigChannel+0x162>
  {
    /* Clear the old SQx bits for the selected rank */
    hadc->Instance->SQR2 &= ~ADC_SQR2_RK(ADC_SQR2_SQ7, sConfig->Rank);
 8002c14:	687b      	ldr	r3, [r7, #4]
 8002c16:	681b      	ldr	r3, [r3, #0]
 8002c18:	6b19      	ldr	r1, [r3, #48]	@ 0x30
 8002c1a:	683b      	ldr	r3, [r7, #0]
 8002c1c:	685a      	ldr	r2, [r3, #4]
 8002c1e:	4613      	mov	r3, r2
 8002c20:	009b      	lsls	r3, r3, #2
 8002c22:	4413      	add	r3, r2
 8002c24:	3b23      	subs	r3, #35	@ 0x23
 8002c26:	221f      	movs	r2, #31
 8002c28:	fa02 f303 	lsl.w	r3, r2, r3
 8002c2c:	43da      	mvns	r2, r3
 8002c2e:	687b      	ldr	r3, [r7, #4]
 8002c30:	681b      	ldr	r3, [r3, #0]
 8002c32:	400a      	ands	r2, r1
 8002c34:	631a      	str	r2, [r3, #48]	@ 0x30

    /* Set the SQx bits for the selected rank */
    hadc->Instance->SQR2 |= ADC_SQR2_RK(sConfig->Channel, sConfig->Rank);
 8002c36:	687b      	ldr	r3, [r7, #4]
 8002c38:	681b      	ldr	r3, [r3, #0]
 8002c3a:	6b19      	ldr	r1, [r3, #48]	@ 0x30
 8002c3c:	683b      	ldr	r3, [r7, #0]
 8002c3e:	681b      	ldr	r3, [r3, #0]
 8002c40:	b29b      	uxth	r3, r3
 8002c42:	4618      	mov	r0, r3
 8002c44:	683b      	ldr	r3, [r7, #0]
 8002c46:	685a      	ldr	r2, [r3, #4]
 8002c48:	4613      	mov	r3, r2
 8002c4a:	009b      	lsls	r3, r3, #2
 8002c4c:	4413      	add	r3, r2
 8002c4e:	3b23      	subs	r3, #35	@ 0x23
 8002c50:	fa00 f203 	lsl.w	r2, r0, r3
 8002c54:	687b      	ldr	r3, [r7, #4]
 8002c56:	681b      	ldr	r3, [r3, #0]
 8002c58:	430a      	orrs	r2, r1
 8002c5a:	631a      	str	r2, [r3, #48]	@ 0x30
 8002c5c:	e023      	b.n	8002ca6 <HAL_ADC_ConfigChannel+0x1aa>
  }
  /* For Rank 13 to 16 */
  else
  {
    /* Clear the old SQx bits for the selected rank */
    hadc->Instance->SQR1 &= ~ADC_SQR1_RK(ADC_SQR1_SQ13, sConfig->Rank);
 8002c5e:	687b      	ldr	r3, [r7, #4]
 8002c60:	681b      	ldr	r3, [r3, #0]
 8002c62:	6ad9      	ldr	r1, [r3, #44]	@ 0x2c
 8002c64:	683b      	ldr	r3, [r7, #0]
 8002c66:	685a      	ldr	r2, [r3, #4]
 8002c68:	4613      	mov	r3, r2
 8002c6a:	009b      	lsls	r3, r3, #2
 8002c6c:	4413      	add	r3, r2
 8002c6e:	3b41      	subs	r3, #65	@ 0x41
 8002c70:	221f      	movs	r2, #31
 8002c72:	fa02 f303 	lsl.w	r3, r2, r3
 8002c76:	43da      	mvns	r2, r3
 8002c78:	687b      	ldr	r3, [r7, #4]
 8002c7a:	681b      	ldr	r3, [r3, #0]
 8002c7c:	400a      	ands	r2, r1
 8002c7e:	62da      	str	r2, [r3, #44]	@ 0x2c

    /* Set the SQx bits for the selected rank */
    hadc->Instance->SQR1 |= ADC_SQR1_RK(sConfig->Channel, sConfig->Rank);
 8002c80:	687b      	ldr	r3, [r7, #4]
 8002c82:	681b      	ldr	r3, [r3, #0]
 8002c84:	6ad9      	ldr	r1, [r3, #44]	@ 0x2c
 8002c86:	683b      	ldr	r3, [r7, #0]
 8002c88:	681b      	ldr	r3, [r3, #0]
 8002c8a:	b29b      	uxth	r3, r3
 8002c8c:	4618      	mov	r0, r3
 8002c8e:	683b      	ldr	r3, [r7, #0]
 8002c90:	685a      	ldr	r2, [r3, #4]
 8002c92:	4613      	mov	r3, r2
 8002c94:	009b      	lsls	r3, r3, #2
 8002c96:	4413      	add	r3, r2
 8002c98:	3b41      	subs	r3, #65	@ 0x41
 8002c9a:	fa00 f203 	lsl.w	r2, r0, r3
 8002c9e:	687b      	ldr	r3, [r7, #4]
 8002ca0:	681b      	ldr	r3, [r3, #0]
 8002ca2:	430a      	orrs	r2, r1
 8002ca4:	62da      	str	r2, [r3, #44]	@ 0x2c
  }

  /* Pointer to the common control register to which is belonging hadc    */
  /* (Depending on STM32F4 product, there may be up to 3 ADCs and 1 common */
  /* control register)                                                    */
  tmpADC_Common = ADC_COMMON_REGISTER(hadc);
 8002ca6:	4b29      	ldr	r3, [pc, #164]	@ (8002d4c <HAL_ADC_ConfigChannel+0x250>)
 8002ca8:	60fb      	str	r3, [r7, #12]

  /* if ADC1 Channel_18 is selected for VBAT Channel ennable VBATE */
  if ((hadc->Instance == ADC1) && (sConfig->Channel == ADC_CHANNEL_VBAT))
 8002caa:	687b      	ldr	r3, [r7, #4]
 8002cac:	681b      	ldr	r3, [r3, #0]
 8002cae:	4a28      	ldr	r2, [pc, #160]	@ (8002d50 <HAL_ADC_ConfigChannel+0x254>)
 8002cb0:	4293      	cmp	r3, r2
 8002cb2:	d10f      	bne.n	8002cd4 <HAL_ADC_ConfigChannel+0x1d8>
 8002cb4:	683b      	ldr	r3, [r7, #0]
 8002cb6:	681b      	ldr	r3, [r3, #0]
 8002cb8:	2b12      	cmp	r3, #18
 8002cba:	d10b      	bne.n	8002cd4 <HAL_ADC_ConfigChannel+0x1d8>
  {
    /* Disable the TEMPSENSOR channel in case of using board with multiplixed ADC_CHANNEL_VBAT & ADC_CHANNEL_TEMPSENSOR*/
    if ((uint16_t)ADC_CHANNEL_TEMPSENSOR == (uint16_t)ADC_CHANNEL_VBAT)
    {
      tmpADC_Common->CCR &= ~ADC_CCR_TSVREFE;
 8002cbc:	68fb      	ldr	r3, [r7, #12]
 8002cbe:	685b      	ldr	r3, [r3, #4]
 8002cc0:	f423 0200 	bic.w	r2, r3, #8388608	@ 0x800000
 8002cc4:	68fb      	ldr	r3, [r7, #12]
 8002cc6:	605a      	str	r2, [r3, #4]
    }
    /* Enable the VBAT channel*/
    tmpADC_Common->CCR |= ADC_CCR_VBATE;
 8002cc8:	68fb      	ldr	r3, [r7, #12]
 8002cca:	685b      	ldr	r3, [r3, #4]
 8002ccc:	f443 0280 	orr.w	r2, r3, #4194304	@ 0x400000
 8002cd0:	68fb      	ldr	r3, [r7, #12]
 8002cd2:	605a      	str	r2, [r3, #4]
  }

  /* if ADC1 Channel_16 or Channel_18 is selected for Temperature sensor or
     Channel_17 is selected for VREFINT enable TSVREFE */
  if ((hadc->Instance == ADC1) && ((sConfig->Channel == ADC_CHANNEL_TEMPSENSOR) || (sConfig->Channel == ADC_CHANNEL_VREFINT)))
 8002cd4:	687b      	ldr	r3, [r7, #4]
 8002cd6:	681b      	ldr	r3, [r3, #0]
 8002cd8:	4a1d      	ldr	r2, [pc, #116]	@ (8002d50 <HAL_ADC_ConfigChannel+0x254>)
 8002cda:	4293      	cmp	r3, r2
 8002cdc:	d12b      	bne.n	8002d36 <HAL_ADC_ConfigChannel+0x23a>
 8002cde:	683b      	ldr	r3, [r7, #0]
 8002ce0:	681b      	ldr	r3, [r3, #0]
 8002ce2:	4a1c      	ldr	r2, [pc, #112]	@ (8002d54 <HAL_ADC_ConfigChannel+0x258>)
 8002ce4:	4293      	cmp	r3, r2
 8002ce6:	d003      	beq.n	8002cf0 <HAL_ADC_ConfigChannel+0x1f4>
 8002ce8:	683b      	ldr	r3, [r7, #0]
 8002cea:	681b      	ldr	r3, [r3, #0]
 8002cec:	2b11      	cmp	r3, #17
 8002cee:	d122      	bne.n	8002d36 <HAL_ADC_ConfigChannel+0x23a>
  {
    /* Disable the VBAT channel in case of using board with multiplixed ADC_CHANNEL_VBAT & ADC_CHANNEL_TEMPSENSOR*/
    if ((uint16_t)ADC_CHANNEL_TEMPSENSOR == (uint16_t)ADC_CHANNEL_VBAT)
    {
      tmpADC_Common->CCR &= ~ADC_CCR_VBATE;
 8002cf0:	68fb      	ldr	r3, [r7, #12]
 8002cf2:	685b      	ldr	r3, [r3, #4]
 8002cf4:	f423 0280 	bic.w	r2, r3, #4194304	@ 0x400000
 8002cf8:	68fb      	ldr	r3, [r7, #12]
 8002cfa:	605a      	str	r2, [r3, #4]
    }
    /* Enable the Temperature sensor and VREFINT channel*/
    tmpADC_Common->CCR |= ADC_CCR_TSVREFE;
 8002cfc:	68fb      	ldr	r3, [r7, #12]
 8002cfe:	685b      	ldr	r3, [r3, #4]
 8002d00:	f443 0200 	orr.w	r2, r3, #8388608	@ 0x800000
 8002d04:	68fb      	ldr	r3, [r7, #12]
 8002d06:	605a      	str	r2, [r3, #4]

    if (sConfig->Channel == ADC_CHANNEL_TEMPSENSOR)
 8002d08:	683b      	ldr	r3, [r7, #0]
 8002d0a:	681b      	ldr	r3, [r3, #0]
 8002d0c:	4a11      	ldr	r2, [pc, #68]	@ (8002d54 <HAL_ADC_ConfigChannel+0x258>)
 8002d0e:	4293      	cmp	r3, r2
 8002d10:	d111      	bne.n	8002d36 <HAL_ADC_ConfigChannel+0x23a>
    {
      /* Delay for temperature sensor stabilization time */
      /* Compute number of CPU cycles to wait for */
      counter = (ADC_TEMPSENSOR_DELAY_US * (SystemCoreClock / 1000000U));
 8002d12:	4b11      	ldr	r3, [pc, #68]	@ (8002d58 <HAL_ADC_ConfigChannel+0x25c>)
 8002d14:	681b      	ldr	r3, [r3, #0]
 8002d16:	4a11      	ldr	r2, [pc, #68]	@ (8002d5c <HAL_ADC_ConfigChannel+0x260>)
 8002d18:	fba2 2303 	umull	r2, r3, r2, r3
 8002d1c:	0c9a      	lsrs	r2, r3, #18
 8002d1e:	4613      	mov	r3, r2
 8002d20:	009b      	lsls	r3, r3, #2
 8002d22:	4413      	add	r3, r2
 8002d24:	005b      	lsls	r3, r3, #1
 8002d26:	60bb      	str	r3, [r7, #8]
      while (counter != 0U)
 8002d28:	e002      	b.n	8002d30 <HAL_ADC_ConfigChannel+0x234>
      {
        counter--;
 8002d2a:	68bb      	ldr	r3, [r7, #8]
 8002d2c:	3b01      	subs	r3, #1
 8002d2e:	60bb      	str	r3, [r7, #8]
      while (counter != 0U)
 8002d30:	68bb      	ldr	r3, [r7, #8]
 8002d32:	2b00      	cmp	r3, #0
 8002d34:	d1f9      	bne.n	8002d2a <HAL_ADC_ConfigChannel+0x22e>
      }
    }
  }

  /* Process unlocked */
  __HAL_UNLOCK(hadc);
 8002d36:	687b      	ldr	r3, [r7, #4]
 8002d38:	2200      	movs	r2, #0
 8002d3a:	f883 203c 	strb.w	r2, [r3, #60]	@ 0x3c

  /* Return function status */
  return HAL_OK;
 8002d3e:	2300      	movs	r3, #0
}
 8002d40:	4618      	mov	r0, r3
 8002d42:	3714      	adds	r7, #20
 8002d44:	46bd      	mov	sp, r7
 8002d46:	f85d 7b04 	ldr.w	r7, [sp], #4
 8002d4a:	4770      	bx	lr
 8002d4c:	40012300 	.word	0x40012300
 8002d50:	40012000 	.word	0x40012000
 8002d54:	10000012 	.word	0x10000012
 8002d58:	20000000 	.word	0x20000000
 8002d5c:	431bde83 	.word	0x431bde83

08002d60 <ADC_Init>:
  * @param  hadc pointer to a ADC_HandleTypeDef structure that contains
  *         the configuration information for the specified ADC.
  * @retval None
  */
static void ADC_Init(ADC_HandleTypeDef *hadc)
{
 8002d60:	b480      	push	{r7}
 8002d62:	b085      	sub	sp, #20
 8002d64:	af00      	add	r7, sp, #0
 8002d66:	6078      	str	r0, [r7, #4]

  /* Set ADC parameters */
  /* Pointer to the common control register to which is belonging hadc    */
  /* (Depending on STM32F4 product, there may be up to 3 ADCs and 1 common */
  /* control register)                                                    */
  tmpADC_Common = ADC_COMMON_REGISTER(hadc);
 8002d68:	4b79      	ldr	r3, [pc, #484]	@ (8002f50 <ADC_Init+0x1f0>)
 8002d6a:	60fb      	str	r3, [r7, #12]

  /* Set the ADC clock prescaler */
  tmpADC_Common->CCR &= ~(ADC_CCR_ADCPRE);
 8002d6c:	68fb      	ldr	r3, [r7, #12]
 8002d6e:	685b      	ldr	r3, [r3, #4]
 8002d70:	f423 3240 	bic.w	r2, r3, #196608	@ 0x30000
 8002d74:	68fb      	ldr	r3, [r7, #12]
 8002d76:	605a      	str	r2, [r3, #4]
  tmpADC_Common->CCR |=  hadc->Init.ClockPrescaler;
 8002d78:	68fb      	ldr	r3, [r7, #12]
 8002d7a:	685a      	ldr	r2, [r3, #4]
 8002d7c:	687b      	ldr	r3, [r7, #4]
 8002d7e:	685b      	ldr	r3, [r3, #4]
 8002d80:	431a      	orrs	r2, r3
 8002d82:	68fb      	ldr	r3, [r7, #12]
 8002d84:	605a      	str	r2, [r3, #4]

  /* Set ADC scan mode */
  hadc->Instance->CR1 &= ~(ADC_CR1_SCAN);
 8002d86:	687b      	ldr	r3, [r7, #4]
 8002d88:	681b      	ldr	r3, [r3, #0]
 8002d8a:	685a      	ldr	r2, [r3, #4]
 8002d8c:	687b      	ldr	r3, [r7, #4]
 8002d8e:	681b      	ldr	r3, [r3, #0]
 8002d90:	f422 7280 	bic.w	r2, r2, #256	@ 0x100
 8002d94:	605a      	str	r2, [r3, #4]
  hadc->Instance->CR1 |=  ADC_CR1_SCANCONV(hadc->Init.ScanConvMode);
 8002d96:	687b      	ldr	r3, [r7, #4]
 8002d98:	681b      	ldr	r3, [r3, #0]
 8002d9a:	6859      	ldr	r1, [r3, #4]
 8002d9c:	687b      	ldr	r3, [r7, #4]
 8002d9e:	691b      	ldr	r3, [r3, #16]
 8002da0:	021a      	lsls	r2, r3, #8
 8002da2:	687b      	ldr	r3, [r7, #4]
 8002da4:	681b      	ldr	r3, [r3, #0]
 8002da6:	430a      	orrs	r2, r1
 8002da8:	605a      	str	r2, [r3, #4]

  /* Set ADC resolution */
  hadc->Instance->CR1 &= ~(ADC_CR1_RES);
 8002daa:	687b      	ldr	r3, [r7, #4]
 8002dac:	681b      	ldr	r3, [r3, #0]
 8002dae:	685a      	ldr	r2, [r3, #4]
 8002db0:	687b      	ldr	r3, [r7, #4]
 8002db2:	681b      	ldr	r3, [r3, #0]
 8002db4:	f022 7240 	bic.w	r2, r2, #50331648	@ 0x3000000
 8002db8:	605a      	str	r2, [r3, #4]
  hadc->Instance->CR1 |=  hadc->Init.Resolution;
 8002dba:	687b      	ldr	r3, [r7, #4]
 8002dbc:	681b      	ldr	r3, [r3, #0]
 8002dbe:	6859      	ldr	r1, [r3, #4]
 8002dc0:	687b      	ldr	r3, [r7, #4]
 8002dc2:	689a      	ldr	r2, [r3, #8]
 8002dc4:	687b      	ldr	r3, [r7, #4]
 8002dc6:	681b      	ldr	r3, [r3, #0]
 8002dc8:	430a      	orrs	r2, r1
 8002dca:	605a      	str	r2, [r3, #4]

  /* Set ADC data alignment */
  hadc->Instance->CR2 &= ~(ADC_CR2_ALIGN);
 8002dcc:	687b      	ldr	r3, [r7, #4]
 8002dce:	681b      	ldr	r3, [r3, #0]
 8002dd0:	689a      	ldr	r2, [r3, #8]
 8002dd2:	687b      	ldr	r3, [r7, #4]
 8002dd4:	681b      	ldr	r3, [r3, #0]
 8002dd6:	f422 6200 	bic.w	r2, r2, #2048	@ 0x800
 8002dda:	609a      	str	r2, [r3, #8]
  hadc->Instance->CR2 |= hadc->Init.DataAlign;
 8002ddc:	687b      	ldr	r3, [r7, #4]
 8002dde:	681b      	ldr	r3, [r3, #0]
 8002de0:	6899      	ldr	r1, [r3, #8]
 8002de2:	687b      	ldr	r3, [r7, #4]
 8002de4:	68da      	ldr	r2, [r3, #12]
 8002de6:	687b      	ldr	r3, [r7, #4]
 8002de8:	681b      	ldr	r3, [r3, #0]
 8002dea:	430a      	orrs	r2, r1
 8002dec:	609a      	str	r2, [r3, #8]
  /* Enable external trigger if trigger selection is different of software  */
  /* start.                                                                 */
  /* Note: This configuration keeps the hardware feature of parameter       */
  /*       ExternalTrigConvEdge "trigger edge none" equivalent to           */
  /*       software start.                                                  */
  if (hadc->Init.ExternalTrigConv != ADC_SOFTWARE_START)
 8002dee:	687b      	ldr	r3, [r7, #4]
 8002df0:	6a9b      	ldr	r3, [r3, #40]	@ 0x28
 8002df2:	4a58      	ldr	r2, [pc, #352]	@ (8002f54 <ADC_Init+0x1f4>)
 8002df4:	4293      	cmp	r3, r2
 8002df6:	d022      	beq.n	8002e3e <ADC_Init+0xde>
  {
    /* Select external trigger to start conversion */
    hadc->Instance->CR2 &= ~(ADC_CR2_EXTSEL);
 8002df8:	687b      	ldr	r3, [r7, #4]
 8002dfa:	681b      	ldr	r3, [r3, #0]
 8002dfc:	689a      	ldr	r2, [r3, #8]
 8002dfe:	687b      	ldr	r3, [r7, #4]
 8002e00:	681b      	ldr	r3, [r3, #0]
 8002e02:	f022 6270 	bic.w	r2, r2, #251658240	@ 0xf000000
 8002e06:	609a      	str	r2, [r3, #8]
    hadc->Instance->CR2 |= hadc->Init.ExternalTrigConv;
 8002e08:	687b      	ldr	r3, [r7, #4]
 8002e0a:	681b      	ldr	r3, [r3, #0]
 8002e0c:	6899      	ldr	r1, [r3, #8]
 8002e0e:	687b      	ldr	r3, [r7, #4]
 8002e10:	6a9a      	ldr	r2, [r3, #40]	@ 0x28
 8002e12:	687b      	ldr	r3, [r7, #4]
 8002e14:	681b      	ldr	r3, [r3, #0]
 8002e16:	430a      	orrs	r2, r1
 8002e18:	609a      	str	r2, [r3, #8]

    /* Select external trigger polarity */
    hadc->Instance->CR2 &= ~(ADC_CR2_EXTEN);
 8002e1a:	687b      	ldr	r3, [r7, #4]
 8002e1c:	681b      	ldr	r3, [r3, #0]
 8002e1e:	689a      	ldr	r2, [r3, #8]
 8002e20:	687b      	ldr	r3, [r7, #4]
 8002e22:	681b      	ldr	r3, [r3, #0]
 8002e24:	f022 5240 	bic.w	r2, r2, #805306368	@ 0x30000000
 8002e28:	609a      	str	r2, [r3, #8]
    hadc->Instance->CR2 |= hadc->Init.ExternalTrigConvEdge;
 8002e2a:	687b      	ldr	r3, [r7, #4]
 8002e2c:	681b      	ldr	r3, [r3, #0]
 8002e2e:	6899      	ldr	r1, [r3, #8]
 8002e30:	687b      	ldr	r3, [r7, #4]
 8002e32:	6ada      	ldr	r2, [r3, #44]	@ 0x2c
 8002e34:	687b      	ldr	r3, [r7, #4]
 8002e36:	681b      	ldr	r3, [r3, #0]
 8002e38:	430a      	orrs	r2, r1
 8002e3a:	609a      	str	r2, [r3, #8]
 8002e3c:	e00f      	b.n	8002e5e <ADC_Init+0xfe>
  }
  else
  {
    /* Reset the external trigger */
    hadc->Instance->CR2 &= ~(ADC_CR2_EXTSEL);
 8002e3e:	687b      	ldr	r3, [r7, #4]
 8002e40:	681b      	ldr	r3, [r3, #0]
 8002e42:	689a      	ldr	r2, [r3, #8]
 8002e44:	687b      	ldr	r3, [r7, #4]
 8002e46:	681b      	ldr	r3, [r3, #0]
 8002e48:	f022 6270 	bic.w	r2, r2, #251658240	@ 0xf000000
 8002e4c:	609a      	str	r2, [r3, #8]
    hadc->Instance->CR2 &= ~(ADC_CR2_EXTEN);
 8002e4e:	687b      	ldr	r3, [r7, #4]
 8002e50:	681b      	ldr	r3, [r3, #0]
 8002e52:	689a      	ldr	r2, [r3, #8]
 8002e54:	687b      	ldr	r3, [r7, #4]
 8002e56:	681b      	ldr	r3, [r3, #0]
 8002e58:	f022 5240 	bic.w	r2, r2, #805306368	@ 0x30000000
 8002e5c:	609a      	str	r2, [r3, #8]
  }

  /* Enable or disable ADC continuous conversion mode */
  hadc->Instance->CR2 &= ~(ADC_CR2_CONT);
 8002e5e:	687b      	ldr	r3, [r7, #4]
 8002e60:	681b      	ldr	r3, [r3, #0]
 8002e62:	689a      	ldr	r2, [r3, #8]
 8002e64:	687b      	ldr	r3, [r7, #4]
 8002e66:	681b      	ldr	r3, [r3, #0]
 8002e68:	f022 0202 	bic.w	r2, r2, #2
 8002e6c:	609a      	str	r2, [r3, #8]
  hadc->Instance->CR2 |= ADC_CR2_CONTINUOUS((uint32_t)hadc->Init.ContinuousConvMode);
 8002e6e:	687b      	ldr	r3, [r7, #4]
 8002e70:	681b      	ldr	r3, [r3, #0]
 8002e72:	6899      	ldr	r1, [r3, #8]
 8002e74:	687b      	ldr	r3, [r7, #4]
 8002e76:	7e1b      	ldrb	r3, [r3, #24]
 8002e78:	005a      	lsls	r2, r3, #1
 8002e7a:	687b      	ldr	r3, [r7, #4]
 8002e7c:	681b      	ldr	r3, [r3, #0]
 8002e7e:	430a      	orrs	r2, r1
 8002e80:	609a      	str	r2, [r3, #8]

  if (hadc->Init.DiscontinuousConvMode != DISABLE)
 8002e82:	687b      	ldr	r3, [r7, #4]
 8002e84:	f893 3020 	ldrb.w	r3, [r3, #32]
 8002e88:	2b00      	cmp	r3, #0
 8002e8a:	d01b      	beq.n	8002ec4 <ADC_Init+0x164>
  {
    assert_param(IS_ADC_REGULAR_DISC_NUMBER(hadc->Init.NbrOfDiscConversion));

    /* Enable the selected ADC regular discontinuous mode */
    hadc->Instance->CR1 |= (uint32_t)ADC_CR1_DISCEN;
 8002e8c:	687b      	ldr	r3, [r7, #4]
 8002e8e:	681b      	ldr	r3, [r3, #0]
 8002e90:	685a      	ldr	r2, [r3, #4]
 8002e92:	687b      	ldr	r3, [r7, #4]
 8002e94:	681b      	ldr	r3, [r3, #0]
 8002e96:	f442 6200 	orr.w	r2, r2, #2048	@ 0x800
 8002e9a:	605a      	str	r2, [r3, #4]

    /* Set the number of channels to be converted in discontinuous mode */
    hadc->Instance->CR1 &= ~(ADC_CR1_DISCNUM);
 8002e9c:	687b      	ldr	r3, [r7, #4]
 8002e9e:	681b      	ldr	r3, [r3, #0]
 8002ea0:	685a      	ldr	r2, [r3, #4]
 8002ea2:	687b      	ldr	r3, [r7, #4]
 8002ea4:	681b      	ldr	r3, [r3, #0]
 8002ea6:	f422 4260 	bic.w	r2, r2, #57344	@ 0xe000
 8002eaa:	605a      	str	r2, [r3, #4]
    hadc->Instance->CR1 |=  ADC_CR1_DISCONTINUOUS(hadc->Init.NbrOfDiscConversion);
 8002eac:	687b      	ldr	r3, [r7, #4]
 8002eae:	681b      	ldr	r3, [r3, #0]
 8002eb0:	6859      	ldr	r1, [r3, #4]
 8002eb2:	687b      	ldr	r3, [r7, #4]
 8002eb4:	6a5b      	ldr	r3, [r3, #36]	@ 0x24
 8002eb6:	3b01      	subs	r3, #1
 8002eb8:	035a      	lsls	r2, r3, #13
 8002eba:	687b      	ldr	r3, [r7, #4]
 8002ebc:	681b      	ldr	r3, [r3, #0]
 8002ebe:	430a      	orrs	r2, r1
 8002ec0:	605a      	str	r2, [r3, #4]
 8002ec2:	e007      	b.n	8002ed4 <ADC_Init+0x174>
  }
  else
  {
    /* Disable the selected ADC regular discontinuous mode */
    hadc->Instance->CR1 &= ~(ADC_CR1_DISCEN);
 8002ec4:	687b      	ldr	r3, [r7, #4]
 8002ec6:	681b      	ldr	r3, [r3, #0]
 8002ec8:	685a      	ldr	r2, [r3, #4]
 8002eca:	687b      	ldr	r3, [r7, #4]
 8002ecc:	681b      	ldr	r3, [r3, #0]
 8002ece:	f422 6200 	bic.w	r2, r2, #2048	@ 0x800
 8002ed2:	605a      	str	r2, [r3, #4]
  }

  /* Set ADC number of conversion */
  hadc->Instance->SQR1 &= ~(ADC_SQR1_L);
 8002ed4:	687b      	ldr	r3, [r7, #4]
 8002ed6:	681b      	ldr	r3, [r3, #0]
 8002ed8:	6ada      	ldr	r2, [r3, #44]	@ 0x2c
 8002eda:	687b      	ldr	r3, [r7, #4]
 8002edc:	681b      	ldr	r3, [r3, #0]
 8002ede:	f422 0270 	bic.w	r2, r2, #15728640	@ 0xf00000
 8002ee2:	62da      	str	r2, [r3, #44]	@ 0x2c
  hadc->Instance->SQR1 |=  ADC_SQR1(hadc->Init.NbrOfConversion);
 8002ee4:	687b      	ldr	r3, [r7, #4]
 8002ee6:	681b      	ldr	r3, [r3, #0]
 8002ee8:	6ad9      	ldr	r1, [r3, #44]	@ 0x2c
 8002eea:	687b      	ldr	r3, [r7, #4]
 8002eec:	69db      	ldr	r3, [r3, #28]
 8002eee:	3b01      	subs	r3, #1
 8002ef0:	051a      	lsls	r2, r3, #20
 8002ef2:	687b      	ldr	r3, [r7, #4]
 8002ef4:	681b      	ldr	r3, [r3, #0]
 8002ef6:	430a      	orrs	r2, r1
 8002ef8:	62da      	str	r2, [r3, #44]	@ 0x2c

  /* Enable or disable ADC DMA continuous request */
  hadc->Instance->CR2 &= ~(ADC_CR2_DDS);
 8002efa:	687b      	ldr	r3, [r7, #4]
 8002efc:	681b      	ldr	r3, [r3, #0]
 8002efe:	689a      	ldr	r2, [r3, #8]
 8002f00:	687b      	ldr	r3, [r7, #4]
 8002f02:	681b      	ldr	r3, [r3, #0]
 8002f04:	f422 7200 	bic.w	r2, r2, #512	@ 0x200
 8002f08:	609a      	str	r2, [r3, #8]
  hadc->Instance->CR2 |= ADC_CR2_DMAContReq((uint32_t)hadc->Init.DMAContinuousRequests);
 8002f0a:	687b      	ldr	r3, [r7, #4]
 8002f0c:	681b      	ldr	r3, [r3, #0]
 8002f0e:	6899      	ldr	r1, [r3, #8]
 8002f10:	687b      	ldr	r3, [r7, #4]
 8002f12:	f893 3030 	ldrb.w	r3, [r3, #48]	@ 0x30
 8002f16:	025a      	lsls	r2, r3, #9
 8002f18:	687b      	ldr	r3, [r7, #4]
 8002f1a:	681b      	ldr	r3, [r3, #0]
 8002f1c:	430a      	orrs	r2, r1
 8002f1e:	609a      	str	r2, [r3, #8]

  /* Enable or disable ADC end of conversion selection */
  hadc->Instance->CR2 &= ~(ADC_CR2_EOCS);
 8002f20:	687b      	ldr	r3, [r7, #4]
 8002f22:	681b      	ldr	r3, [r3, #0]
 8002f24:	689a      	ldr	r2, [r3, #8]
 8002f26:	687b      	ldr	r3, [r7, #4]
 8002f28:	681b      	ldr	r3, [r3, #0]
 8002f2a:	f422 6280 	bic.w	r2, r2, #1024	@ 0x400
 8002f2e:	609a      	str	r2, [r3, #8]
  hadc->Instance->CR2 |= ADC_CR2_EOCSelection(hadc->Init.EOCSelection);
 8002f30:	687b      	ldr	r3, [r7, #4]
 8002f32:	681b      	ldr	r3, [r3, #0]
 8002f34:	6899      	ldr	r1, [r3, #8]
 8002f36:	687b      	ldr	r3, [r7, #4]
 8002f38:	695b      	ldr	r3, [r3, #20]
 8002f3a:	029a      	lsls	r2, r3, #10
 8002f3c:	687b      	ldr	r3, [r7, #4]
 8002f3e:	681b      	ldr	r3, [r3, #0]
 8002f40:	430a      	orrs	r2, r1
 8002f42:	609a      	str	r2, [r3, #8]
}
 8002f44:	bf00      	nop
 8002f46:	3714      	adds	r7, #20
 8002f48:	46bd      	mov	sp, r7
 8002f4a:	f85d 7b04 	ldr.w	r7, [sp], #4
 8002f4e:	4770      	bx	lr
 8002f50:	40012300 	.word	0x40012300
 8002f54:	0f000001 	.word	0x0f000001

08002f58 <HAL_ADCEx_InjectedStart>:
  * @param  hadc pointer to a ADC_HandleTypeDef structure that contains
  *         the configuration information for the specified ADC.
  * @retval HAL status
  */
HAL_StatusTypeDef HAL_ADCEx_InjectedStart(ADC_HandleTypeDef *hadc)
{
 8002f58:	b480      	push	{r7}
 8002f5a:	b087      	sub	sp, #28
 8002f5c:	af00      	add	r7, sp, #0
 8002f5e:	6078      	str	r0, [r7, #4]
  __IO uint32_t counter = 0U;
 8002f60:	2300      	movs	r3, #0
 8002f62:	60bb      	str	r3, [r7, #8]
  uint32_t tmp1 = 0U, tmp2 = 0U;
 8002f64:	2300      	movs	r3, #0
 8002f66:	617b      	str	r3, [r7, #20]
 8002f68:	2300      	movs	r3, #0
 8002f6a:	613b      	str	r3, [r7, #16]
  ADC_Common_TypeDef *tmpADC_Common;

  /* Process locked */
  __HAL_LOCK(hadc);
 8002f6c:	687b      	ldr	r3, [r7, #4]
 8002f6e:	f893 303c 	ldrb.w	r3, [r3, #60]	@ 0x3c
 8002f72:	2b01      	cmp	r3, #1
 8002f74:	d101      	bne.n	8002f7a <HAL_ADCEx_InjectedStart+0x22>
 8002f76:	2302      	movs	r3, #2
 8002f78:	e0aa      	b.n	80030d0 <HAL_ADCEx_InjectedStart+0x178>
 8002f7a:	687b      	ldr	r3, [r7, #4]
 8002f7c:	2201      	movs	r2, #1
 8002f7e:	f883 203c 	strb.w	r2, [r3, #60]	@ 0x3c

  /* Enable the ADC peripheral */

  /* Check if ADC peripheral is disabled in order to enable it and wait during
     Tstab time the ADC's stabilization */
  if ((hadc->Instance->CR2 & ADC_CR2_ADON) != ADC_CR2_ADON)
 8002f82:	687b      	ldr	r3, [r7, #4]
 8002f84:	681b      	ldr	r3, [r3, #0]
 8002f86:	689b      	ldr	r3, [r3, #8]
 8002f88:	f003 0301 	and.w	r3, r3, #1
 8002f8c:	2b01      	cmp	r3, #1
 8002f8e:	d018      	beq.n	8002fc2 <HAL_ADCEx_InjectedStart+0x6a>
  {
    /* Enable the Peripheral */
    __HAL_ADC_ENABLE(hadc);
 8002f90:	687b      	ldr	r3, [r7, #4]
 8002f92:	681b      	ldr	r3, [r3, #0]
 8002f94:	689a      	ldr	r2, [r3, #8]
 8002f96:	687b      	ldr	r3, [r7, #4]
 8002f98:	681b      	ldr	r3, [r3, #0]
 8002f9a:	f042 0201 	orr.w	r2, r2, #1
 8002f9e:	609a      	str	r2, [r3, #8]

    /* Delay for ADC stabilization time */
    /* Compute number of CPU cycles to wait for */
    counter = (ADC_STAB_DELAY_US * (SystemCoreClock / 1000000U));
 8002fa0:	4b4e      	ldr	r3, [pc, #312]	@ (80030dc <HAL_ADCEx_InjectedStart+0x184>)
 8002fa2:	681b      	ldr	r3, [r3, #0]
 8002fa4:	4a4e      	ldr	r2, [pc, #312]	@ (80030e0 <HAL_ADCEx_InjectedStart+0x188>)
 8002fa6:	fba2 2303 	umull	r2, r3, r2, r3
 8002faa:	0c9a      	lsrs	r2, r3, #18
 8002fac:	4613      	mov	r3, r2
 8002fae:	005b      	lsls	r3, r3, #1
 8002fb0:	4413      	add	r3, r2
 8002fb2:	60bb      	str	r3, [r7, #8]
    while (counter != 0U)
 8002fb4:	e002      	b.n	8002fbc <HAL_ADCEx_InjectedStart+0x64>
    {
      counter--;
 8002fb6:	68bb      	ldr	r3, [r7, #8]
 8002fb8:	3b01      	subs	r3, #1
 8002fba:	60bb      	str	r3, [r7, #8]
    while (counter != 0U)
 8002fbc:	68bb      	ldr	r3, [r7, #8]
 8002fbe:	2b00      	cmp	r3, #0
 8002fc0:	d1f9      	bne.n	8002fb6 <HAL_ADCEx_InjectedStart+0x5e>
    }
  }

  /* Start conversion if ADC is effectively enabled */
  if (HAL_IS_BIT_SET(hadc->Instance->CR2, ADC_CR2_ADON))
 8002fc2:	687b      	ldr	r3, [r7, #4]
 8002fc4:	681b      	ldr	r3, [r3, #0]
 8002fc6:	689b      	ldr	r3, [r3, #8]
 8002fc8:	f003 0301 	and.w	r3, r3, #1
 8002fcc:	2b01      	cmp	r3, #1
 8002fce:	d172      	bne.n	80030b6 <HAL_ADCEx_InjectedStart+0x15e>
  {
    /* Set ADC state                                                          */
    /* - Clear state bitfield related to injected group conversion results    */
    /* - Set state bitfield related to injected operation                     */
    ADC_STATE_CLR_SET(hadc->State,
 8002fd0:	687b      	ldr	r3, [r7, #4]
 8002fd2:	6c1b      	ldr	r3, [r3, #64]	@ 0x40
 8002fd4:	f423 5340 	bic.w	r3, r3, #12288	@ 0x3000
 8002fd8:	f023 0301 	bic.w	r3, r3, #1
 8002fdc:	f443 5280 	orr.w	r2, r3, #4096	@ 0x1000
 8002fe0:	687b      	ldr	r3, [r7, #4]
 8002fe2:	641a      	str	r2, [r3, #64]	@ 0x40

    /* Check if a regular conversion is ongoing */
    /* Note: On this device, there is no ADC error code fields related to     */
    /*       conversions on group injected only. In case of conversion on     */
    /*       going on group regular, no error code is reset.                  */
    if (HAL_IS_BIT_CLR(hadc->State, HAL_ADC_STATE_REG_BUSY))
 8002fe4:	687b      	ldr	r3, [r7, #4]
 8002fe6:	6c1b      	ldr	r3, [r3, #64]	@ 0x40
 8002fe8:	f403 7380 	and.w	r3, r3, #256	@ 0x100
 8002fec:	2b00      	cmp	r3, #0
 8002fee:	d102      	bne.n	8002ff6 <HAL_ADCEx_InjectedStart+0x9e>
    {
      /* Reset ADC all error code fields */
      ADC_CLEAR_ERRORCODE(hadc);
 8002ff0:	687b      	ldr	r3, [r7, #4]
 8002ff2:	2200      	movs	r2, #0
 8002ff4:	645a      	str	r2, [r3, #68]	@ 0x44
    }

    /* Process unlocked */
    /* Unlock before starting ADC conversions: in case of potential           */
    /* interruption, to let the process to ADC IRQ Handler.                   */
    __HAL_UNLOCK(hadc);
 8002ff6:	687b      	ldr	r3, [r7, #4]
 8002ff8:	2200      	movs	r2, #0
 8002ffa:	f883 203c 	strb.w	r2, [r3, #60]	@ 0x3c

    /* Clear injected group conversion flag */
    /* (To ensure of no unknown state from potential previous ADC operations) */
    __HAL_ADC_CLEAR_FLAG(hadc, ADC_FLAG_JEOC);
 8002ffe:	687b      	ldr	r3, [r7, #4]
 8003000:	681b      	ldr	r3, [r3, #0]
 8003002:	f06f 0204 	mvn.w	r2, #4
 8003006:	601a      	str	r2, [r3, #0]

    /* Pointer to the common control register to which is belonging hadc    */
    /* (Depending on STM32F4 product, there may be up to 3 ADC and 1 common */
    /* control register)                                                    */
    tmpADC_Common = ADC_COMMON_REGISTER(hadc);
 8003008:	4b36      	ldr	r3, [pc, #216]	@ (80030e4 <HAL_ADCEx_InjectedStart+0x18c>)
 800300a:	60fb      	str	r3, [r7, #12]

    /* Check if Multimode enabled */
    if (HAL_IS_BIT_CLR(tmpADC_Common->CCR, ADC_CCR_MULTI))
 800300c:	68fb      	ldr	r3, [r7, #12]
 800300e:	685b      	ldr	r3, [r3, #4]
 8003010:	f003 031f 	and.w	r3, r3, #31
 8003014:	2b00      	cmp	r3, #0
 8003016:	d124      	bne.n	8003062 <HAL_ADCEx_InjectedStart+0x10a>
    {
      tmp1 = HAL_IS_BIT_CLR(hadc->Instance->CR2, ADC_CR2_JEXTEN);
 8003018:	687b      	ldr	r3, [r7, #4]
 800301a:	681b      	ldr	r3, [r3, #0]
 800301c:	689b      	ldr	r3, [r3, #8]
 800301e:	f403 1340 	and.w	r3, r3, #3145728	@ 0x300000
 8003022:	2b00      	cmp	r3, #0
 8003024:	bf0c      	ite	eq
 8003026:	2301      	moveq	r3, #1
 8003028:	2300      	movne	r3, #0
 800302a:	b2db      	uxtb	r3, r3
 800302c:	617b      	str	r3, [r7, #20]
      tmp2 = HAL_IS_BIT_CLR(hadc->Instance->CR1, ADC_CR1_JAUTO);
 800302e:	687b      	ldr	r3, [r7, #4]
 8003030:	681b      	ldr	r3, [r3, #0]
 8003032:	685b      	ldr	r3, [r3, #4]
 8003034:	f403 6380 	and.w	r3, r3, #1024	@ 0x400
 8003038:	2b00      	cmp	r3, #0
 800303a:	bf0c      	ite	eq
 800303c:	2301      	moveq	r3, #1
 800303e:	2300      	movne	r3, #0
 8003040:	b2db      	uxtb	r3, r3
 8003042:	613b      	str	r3, [r7, #16]
      if (tmp1 && tmp2)
 8003044:	697b      	ldr	r3, [r7, #20]
 8003046:	2b00      	cmp	r3, #0
 8003048:	d041      	beq.n	80030ce <HAL_ADCEx_InjectedStart+0x176>
 800304a:	693b      	ldr	r3, [r7, #16]
 800304c:	2b00      	cmp	r3, #0
 800304e:	d03e      	beq.n	80030ce <HAL_ADCEx_InjectedStart+0x176>
      {
        /* Enable the selected ADC software conversion for injected group */
        hadc->Instance->CR2 |= ADC_CR2_JSWSTART;
 8003050:	687b      	ldr	r3, [r7, #4]
 8003052:	681b      	ldr	r3, [r3, #0]
 8003054:	689a      	ldr	r2, [r3, #8]
 8003056:	687b      	ldr	r3, [r7, #4]
 8003058:	681b      	ldr	r3, [r3, #0]
 800305a:	f442 0280 	orr.w	r2, r2, #4194304	@ 0x400000
 800305e:	609a      	str	r2, [r3, #8]
 8003060:	e035      	b.n	80030ce <HAL_ADCEx_InjectedStart+0x176>
      }
    }
    else
    {
      tmp1 = HAL_IS_BIT_CLR(hadc->Instance->CR2, ADC_CR2_JEXTEN);
 8003062:	687b      	ldr	r3, [r7, #4]
 8003064:	681b      	ldr	r3, [r3, #0]
 8003066:	689b      	ldr	r3, [r3, #8]
 8003068:	f403 1340 	and.w	r3, r3, #3145728	@ 0x300000
 800306c:	2b00      	cmp	r3, #0
 800306e:	bf0c      	ite	eq
 8003070:	2301      	moveq	r3, #1
 8003072:	2300      	movne	r3, #0
 8003074:	b2db      	uxtb	r3, r3
 8003076:	617b      	str	r3, [r7, #20]
      tmp2 = HAL_IS_BIT_CLR(hadc->Instance->CR1, ADC_CR1_JAUTO);
 8003078:	687b      	ldr	r3, [r7, #4]
 800307a:	681b      	ldr	r3, [r3, #0]
 800307c:	685b      	ldr	r3, [r3, #4]
 800307e:	f403 6380 	and.w	r3, r3, #1024	@ 0x400
 8003082:	2b00      	cmp	r3, #0
 8003084:	bf0c      	ite	eq
 8003086:	2301      	moveq	r3, #1
 8003088:	2300      	movne	r3, #0
 800308a:	b2db      	uxtb	r3, r3
 800308c:	613b      	str	r3, [r7, #16]
      if ((hadc->Instance == ADC1) && tmp1 && tmp2)
 800308e:	687b      	ldr	r3, [r7, #4]
 8003090:	681b      	ldr	r3, [r3, #0]
 8003092:	4a15      	ldr	r2, [pc, #84]	@ (80030e8 <HAL_ADCEx_InjectedStart+0x190>)
 8003094:	4293      	cmp	r3, r2
 8003096:	d11a      	bne.n	80030ce <HAL_ADCEx_InjectedStart+0x176>
 8003098:	697b      	ldr	r3, [r7, #20]
 800309a:	2b00      	cmp	r3, #0
 800309c:	d017      	beq.n	80030ce <HAL_ADCEx_InjectedStart+0x176>
 800309e:	693b      	ldr	r3, [r7, #16]
 80030a0:	2b00      	cmp	r3, #0
 80030a2:	d014      	beq.n	80030ce <HAL_ADCEx_InjectedStart+0x176>
      {
        /* Enable the selected ADC software conversion for injected group */
        hadc->Instance->CR2 |= ADC_CR2_JSWSTART;
 80030a4:	687b      	ldr	r3, [r7, #4]
 80030a6:	681b      	ldr	r3, [r3, #0]
 80030a8:	689a      	ldr	r2, [r3, #8]
 80030aa:	687b      	ldr	r3, [r7, #4]
 80030ac:	681b      	ldr	r3, [r3, #0]
 80030ae:	f442 0280 	orr.w	r2, r2, #4194304	@ 0x400000
 80030b2:	609a      	str	r2, [r3, #8]
 80030b4:	e00b      	b.n	80030ce <HAL_ADCEx_InjectedStart+0x176>
    }
  }
  else
  {
    /* Update ADC state machine to error */
    SET_BIT(hadc->State, HAL_ADC_STATE_ERROR_INTERNAL);
 80030b6:	687b      	ldr	r3, [r7, #4]
 80030b8:	6c1b      	ldr	r3, [r3, #64]	@ 0x40
 80030ba:	f043 0210 	orr.w	r2, r3, #16
 80030be:	687b      	ldr	r3, [r7, #4]
 80030c0:	641a      	str	r2, [r3, #64]	@ 0x40

    /* Set ADC error code to ADC IP internal error */
    SET_BIT(hadc->ErrorCode, HAL_ADC_ERROR_INTERNAL);
 80030c2:	687b      	ldr	r3, [r7, #4]
 80030c4:	6c5b      	ldr	r3, [r3, #68]	@ 0x44
 80030c6:	f043 0201 	orr.w	r2, r3, #1
 80030ca:	687b      	ldr	r3, [r7, #4]
 80030cc:	645a      	str	r2, [r3, #68]	@ 0x44
  }

  /* Return function status */
  return HAL_OK;
 80030ce:	2300      	movs	r3, #0
}
 80030d0:	4618      	mov	r0, r3
 80030d2:	371c      	adds	r7, #28
 80030d4:	46bd      	mov	sp, r7
 80030d6:	f85d 7b04 	ldr.w	r7, [sp], #4
 80030da:	4770      	bx	lr
 80030dc:	20000000 	.word	0x20000000
 80030e0:	431bde83 	.word	0x431bde83
 80030e4:	40012300 	.word	0x40012300
 80030e8:	40012000 	.word	0x40012000

080030ec <HAL_CAN_Init>:
  * @param  hcan pointer to a CAN_HandleTypeDef structure that contains
  *         the configuration information for the specified CAN.
  * @retval HAL status
  */
HAL_StatusTypeDef HAL_CAN_Init(CAN_HandleTypeDef *hcan)
{
 80030ec:	b580      	push	{r7, lr}
 80030ee:	b084      	sub	sp, #16
 80030f0:	af00      	add	r7, sp, #0
 80030f2:	6078      	str	r0, [r7, #4]
  uint32_t tickstart;

  /* Check CAN handle */
  if (hcan == NULL)
 80030f4:	687b      	ldr	r3, [r7, #4]
 80030f6:	2b00      	cmp	r3, #0
 80030f8:	d101      	bne.n	80030fe <HAL_CAN_Init+0x12>
  {
    return HAL_ERROR;
 80030fa:	2301      	movs	r3, #1
 80030fc:	e0ed      	b.n	80032da <HAL_CAN_Init+0x1ee>
    /* Init the low level hardware: CLOCK, NVIC */
    hcan->MspInitCallback(hcan);
  }

#else
  if (hcan->State == HAL_CAN_STATE_RESET)
 80030fe:	687b      	ldr	r3, [r7, #4]
 8003100:	f893 3020 	ldrb.w	r3, [r3, #32]
 8003104:	b2db      	uxtb	r3, r3
 8003106:	2b00      	cmp	r3, #0
 8003108:	d102      	bne.n	8003110 <HAL_CAN_Init+0x24>
  {
    /* Init the low level hardware: CLOCK, NVIC */
    HAL_CAN_MspInit(hcan);
 800310a:	6878      	ldr	r0, [r7, #4]
 800310c:	f7ff f884 	bl	8002218 <HAL_CAN_MspInit>
  }
#endif /* USE_HAL_CAN_REGISTER_CALLBACKS */

  /* Request initialisation */
  SET_BIT(hcan->Instance->MCR, CAN_MCR_INRQ);
 8003110:	687b      	ldr	r3, [r7, #4]
 8003112:	681b      	ldr	r3, [r3, #0]
 8003114:	681a      	ldr	r2, [r3, #0]
 8003116:	687b      	ldr	r3, [r7, #4]
 8003118:	681b      	ldr	r3, [r3, #0]
 800311a:	f042 0201 	orr.w	r2, r2, #1
 800311e:	601a      	str	r2, [r3, #0]

  /* Get tick */
  tickstart = HAL_GetTick();
 8003120:	f7ff fb0e 	bl	8002740 <HAL_GetTick>
 8003124:	60f8      	str	r0, [r7, #12]

  /* Wait initialisation acknowledge */
  while ((hcan->Instance->MSR & CAN_MSR_INAK) == 0U)
 8003126:	e012      	b.n	800314e <HAL_CAN_Init+0x62>
  {
    if ((HAL_GetTick() - tickstart) > CAN_TIMEOUT_VALUE)
 8003128:	f7ff fb0a 	bl	8002740 <HAL_GetTick>
 800312c:	4602      	mov	r2, r0
 800312e:	68fb      	ldr	r3, [r7, #12]
 8003130:	1ad3      	subs	r3, r2, r3
 8003132:	2b0a      	cmp	r3, #10
 8003134:	d90b      	bls.n	800314e <HAL_CAN_Init+0x62>
    {
      /* Update error code */
      hcan->ErrorCode |= HAL_CAN_ERROR_TIMEOUT;
 8003136:	687b      	ldr	r3, [r7, #4]
 8003138:	6a5b      	ldr	r3, [r3, #36]	@ 0x24
 800313a:	f443 3200 	orr.w	r2, r3, #131072	@ 0x20000
 800313e:	687b      	ldr	r3, [r7, #4]
 8003140:	625a      	str	r2, [r3, #36]	@ 0x24

      /* Change CAN state */
      hcan->State = HAL_CAN_STATE_ERROR;
 8003142:	687b      	ldr	r3, [r7, #4]
 8003144:	2205      	movs	r2, #5
 8003146:	f883 2020 	strb.w	r2, [r3, #32]

      return HAL_ERROR;
 800314a:	2301      	movs	r3, #1
 800314c:	e0c5      	b.n	80032da <HAL_CAN_Init+0x1ee>
  while ((hcan->Instance->MSR & CAN_MSR_INAK) == 0U)
 800314e:	687b      	ldr	r3, [r7, #4]
 8003150:	681b      	ldr	r3, [r3, #0]
 8003152:	685b      	ldr	r3, [r3, #4]
 8003154:	f003 0301 	and.w	r3, r3, #1
 8003158:	2b00      	cmp	r3, #0
 800315a:	d0e5      	beq.n	8003128 <HAL_CAN_Init+0x3c>
    }
  }

  /* Exit from sleep mode */
  CLEAR_BIT(hcan->Instance->MCR, CAN_MCR_SLEEP);
 800315c:	687b      	ldr	r3, [r7, #4]
 800315e:	681b      	ldr	r3, [r3, #0]
 8003160:	681a      	ldr	r2, [r3, #0]
 8003162:	687b      	ldr	r3, [r7, #4]
 8003164:	681b      	ldr	r3, [r3, #0]
 8003166:	f022 0202 	bic.w	r2, r2, #2
 800316a:	601a      	str	r2, [r3, #0]

  /* Get tick */
  tickstart = HAL_GetTick();
 800316c:	f7ff fae8 	bl	8002740 <HAL_GetTick>
 8003170:	60f8      	str	r0, [r7, #12]

  /* Check Sleep mode leave acknowledge */
  while ((hcan->Instance->MSR & CAN_MSR_SLAK) != 0U)
 8003172:	e012      	b.n	800319a <HAL_CAN_Init+0xae>
  {
    if ((HAL_GetTick() - tickstart) > CAN_TIMEOUT_VALUE)
 8003174:	f7ff fae4 	bl	8002740 <HAL_GetTick>
 8003178:	4602      	mov	r2, r0
 800317a:	68fb      	ldr	r3, [r7, #12]
 800317c:	1ad3      	subs	r3, r2, r3
 800317e:	2b0a      	cmp	r3, #10
 8003180:	d90b      	bls.n	800319a <HAL_CAN_Init+0xae>
    {
      /* Update error code */
      hcan->ErrorCode |= HAL_CAN_ERROR_TIMEOUT;
 8003182:	687b      	ldr	r3, [r7, #4]
 8003184:	6a5b      	ldr	r3, [r3, #36]	@ 0x24
 8003186:	f443 3200 	orr.w	r2, r3, #131072	@ 0x20000
 800318a:	687b      	ldr	r3, [r7, #4]
 800318c:	625a      	str	r2, [r3, #36]	@ 0x24

      /* Change CAN state */
      hcan->State = HAL_CAN_STATE_ERROR;
 800318e:	687b      	ldr	r3, [r7, #4]
 8003190:	2205      	movs	r2, #5
 8003192:	f883 2020 	strb.w	r2, [r3, #32]

      return HAL_ERROR;
 8003196:	2301      	movs	r3, #1
 8003198:	e09f      	b.n	80032da <HAL_CAN_Init+0x1ee>
  while ((hcan->Instance->MSR & CAN_MSR_SLAK) != 0U)
 800319a:	687b      	ldr	r3, [r7, #4]
 800319c:	681b      	ldr	r3, [r3, #0]
 800319e:	685b      	ldr	r3, [r3, #4]
 80031a0:	f003 0302 	and.w	r3, r3, #2
 80031a4:	2b00      	cmp	r3, #0
 80031a6:	d1e5      	bne.n	8003174 <HAL_CAN_Init+0x88>
    }
  }

  /* Set the time triggered communication mode */
  if (hcan->Init.TimeTriggeredMode == ENABLE)
 80031a8:	687b      	ldr	r3, [r7, #4]
 80031aa:	7e1b      	ldrb	r3, [r3, #24]
 80031ac:	2b01      	cmp	r3, #1
 80031ae:	d108      	bne.n	80031c2 <HAL_CAN_Init+0xd6>
  {
    SET_BIT(hcan->Instance->MCR, CAN_MCR_TTCM);
 80031b0:	687b      	ldr	r3, [r7, #4]
 80031b2:	681b      	ldr	r3, [r3, #0]
 80031b4:	681a      	ldr	r2, [r3, #0]
 80031b6:	687b      	ldr	r3, [r7, #4]
 80031b8:	681b      	ldr	r3, [r3, #0]
 80031ba:	f042 0280 	orr.w	r2, r2, #128	@ 0x80
 80031be:	601a      	str	r2, [r3, #0]
 80031c0:	e007      	b.n	80031d2 <HAL_CAN_Init+0xe6>
  }
  else
  {
    CLEAR_BIT(hcan->Instance->MCR, CAN_MCR_TTCM);
 80031c2:	687b      	ldr	r3, [r7, #4]
 80031c4:	681b      	ldr	r3, [r3, #0]
 80031c6:	681a      	ldr	r2, [r3, #0]
 80031c8:	687b      	ldr	r3, [r7, #4]
 80031ca:	681b      	ldr	r3, [r3, #0]
 80031cc:	f022 0280 	bic.w	r2, r2, #128	@ 0x80
 80031d0:	601a      	str	r2, [r3, #0]
  }

  /* Set the automatic bus-off management */
  if (hcan->Init.AutoBusOff == ENABLE)
 80031d2:	687b      	ldr	r3, [r7, #4]
 80031d4:	7e5b      	ldrb	r3, [r3, #25]
 80031d6:	2b01      	cmp	r3, #1
 80031d8:	d108      	bne.n	80031ec <HAL_CAN_Init+0x100>
  {
    SET_BIT(hcan->Instance->MCR, CAN_MCR_ABOM);
 80031da:	687b      	ldr	r3, [r7, #4]
 80031dc:	681b      	ldr	r3, [r3, #0]
 80031de:	681a      	ldr	r2, [r3, #0]
 80031e0:	687b      	ldr	r3, [r7, #4]
 80031e2:	681b      	ldr	r3, [r3, #0]
 80031e4:	f042 0240 	orr.w	r2, r2, #64	@ 0x40
 80031e8:	601a      	str	r2, [r3, #0]
 80031ea:	e007      	b.n	80031fc <HAL_CAN_Init+0x110>
  }
  else
  {
    CLEAR_BIT(hcan->Instance->MCR, CAN_MCR_ABOM);
 80031ec:	687b      	ldr	r3, [r7, #4]
 80031ee:	681b      	ldr	r3, [r3, #0]
 80031f0:	681a      	ldr	r2, [r3, #0]
 80031f2:	687b      	ldr	r3, [r7, #4]
 80031f4:	681b      	ldr	r3, [r3, #0]
 80031f6:	f022 0240 	bic.w	r2, r2, #64	@ 0x40
 80031fa:	601a      	str	r2, [r3, #0]
  }

  /* Set the automatic wake-up mode */
  if (hcan->Init.AutoWakeUp == ENABLE)
 80031fc:	687b      	ldr	r3, [r7, #4]
 80031fe:	7e9b      	ldrb	r3, [r3, #26]
 8003200:	2b01      	cmp	r3, #1
 8003202:	d108      	bne.n	8003216 <HAL_CAN_Init+0x12a>
  {
    SET_BIT(hcan->Instance->MCR, CAN_MCR_AWUM);
 8003204:	687b      	ldr	r3, [r7, #4]
 8003206:	681b      	ldr	r3, [r3, #0]
 8003208:	681a      	ldr	r2, [r3, #0]
 800320a:	687b      	ldr	r3, [r7, #4]
 800320c:	681b      	ldr	r3, [r3, #0]
 800320e:	f042 0220 	orr.w	r2, r2, #32
 8003212:	601a      	str	r2, [r3, #0]
 8003214:	e007      	b.n	8003226 <HAL_CAN_Init+0x13a>
  }
  else
  {
    CLEAR_BIT(hcan->Instance->MCR, CAN_MCR_AWUM);
 8003216:	687b      	ldr	r3, [r7, #4]
 8003218:	681b      	ldr	r3, [r3, #0]
 800321a:	681a      	ldr	r2, [r3, #0]
 800321c:	687b      	ldr	r3, [r7, #4]
 800321e:	681b      	ldr	r3, [r3, #0]
 8003220:	f022 0220 	bic.w	r2, r2, #32
 8003224:	601a      	str	r2, [r3, #0]
  }

  /* Set the automatic retransmission */
  if (hcan->Init.AutoRetransmission == ENABLE)
 8003226:	687b      	ldr	r3, [r7, #4]
 8003228:	7edb      	ldrb	r3, [r3, #27]
 800322a:	2b01      	cmp	r3, #1
 800322c:	d108      	bne.n	8003240 <HAL_CAN_Init+0x154>
  {
    CLEAR_BIT(hcan->Instance->MCR, CAN_MCR_NART);
 800322e:	687b      	ldr	r3, [r7, #4]
 8003230:	681b      	ldr	r3, [r3, #0]
 8003232:	681a      	ldr	r2, [r3, #0]
 8003234:	687b      	ldr	r3, [r7, #4]
 8003236:	681b      	ldr	r3, [r3, #0]
 8003238:	f022 0210 	bic.w	r2, r2, #16
 800323c:	601a      	str	r2, [r3, #0]
 800323e:	e007      	b.n	8003250 <HAL_CAN_Init+0x164>
  }
  else
  {
    SET_BIT(hcan->Instance->MCR, CAN_MCR_NART);
 8003240:	687b      	ldr	r3, [r7, #4]
 8003242:	681b      	ldr	r3, [r3, #0]
 8003244:	681a      	ldr	r2, [r3, #0]
 8003246:	687b      	ldr	r3, [r7, #4]
 8003248:	681b      	ldr	r3, [r3, #0]
 800324a:	f042 0210 	orr.w	r2, r2, #16
 800324e:	601a      	str	r2, [r3, #0]
  }

  /* Set the receive FIFO locked mode */
  if (hcan->Init.ReceiveFifoLocked == ENABLE)
 8003250:	687b      	ldr	r3, [r7, #4]
 8003252:	7f1b      	ldrb	r3, [r3, #28]
 8003254:	2b01      	cmp	r3, #1
 8003256:	d108      	bne.n	800326a <HAL_CAN_Init+0x17e>
  {
    SET_BIT(hcan->Instance->MCR, CAN_MCR_RFLM);
 8003258:	687b      	ldr	r3, [r7, #4]
 800325a:	681b      	ldr	r3, [r3, #0]
 800325c:	681a      	ldr	r2, [r3, #0]
 800325e:	687b      	ldr	r3, [r7, #4]
 8003260:	681b      	ldr	r3, [r3, #0]
 8003262:	f042 0208 	orr.w	r2, r2, #8
 8003266:	601a      	str	r2, [r3, #0]
 8003268:	e007      	b.n	800327a <HAL_CAN_Init+0x18e>
  }
  else
  {
    CLEAR_BIT(hcan->Instance->MCR, CAN_MCR_RFLM);
 800326a:	687b      	ldr	r3, [r7, #4]
 800326c:	681b      	ldr	r3, [r3, #0]
 800326e:	681a      	ldr	r2, [r3, #0]
 8003270:	687b      	ldr	r3, [r7, #4]
 8003272:	681b      	ldr	r3, [r3, #0]
 8003274:	f022 0208 	bic.w	r2, r2, #8
 8003278:	601a      	str	r2, [r3, #0]
  }

  /* Set the transmit FIFO priority */
  if (hcan->Init.TransmitFifoPriority == ENABLE)
 800327a:	687b      	ldr	r3, [r7, #4]
 800327c:	7f5b      	ldrb	r3, [r3, #29]
 800327e:	2b01      	cmp	r3, #1
 8003280:	d108      	bne.n	8003294 <HAL_CAN_Init+0x1a8>
  {
    SET_BIT(hcan->Instance->MCR, CAN_MCR_TXFP);
 8003282:	687b      	ldr	r3, [r7, #4]
 8003284:	681b      	ldr	r3, [r3, #0]
 8003286:	681a      	ldr	r2, [r3, #0]
 8003288:	687b      	ldr	r3, [r7, #4]
 800328a:	681b      	ldr	r3, [r3, #0]
 800328c:	f042 0204 	orr.w	r2, r2, #4
 8003290:	601a      	str	r2, [r3, #0]
 8003292:	e007      	b.n	80032a4 <HAL_CAN_Init+0x1b8>
  }
  else
  {
    CLEAR_BIT(hcan->Instance->MCR, CAN_MCR_TXFP);
 8003294:	687b      	ldr	r3, [r7, #4]
 8003296:	681b      	ldr	r3, [r3, #0]
 8003298:	681a      	ldr	r2, [r3, #0]
 800329a:	687b      	ldr	r3, [r7, #4]
 800329c:	681b      	ldr	r3, [r3, #0]
 800329e:	f022 0204 	bic.w	r2, r2, #4
 80032a2:	601a      	str	r2, [r3, #0]
  }

  /* Set the bit timing register */
  WRITE_REG(hcan->Instance->BTR, (uint32_t)(hcan->Init.Mode           |
 80032a4:	687b      	ldr	r3, [r7, #4]
 80032a6:	689a      	ldr	r2, [r3, #8]
 80032a8:	687b      	ldr	r3, [r7, #4]
 80032aa:	68db      	ldr	r3, [r3, #12]
 80032ac:	431a      	orrs	r2, r3
 80032ae:	687b      	ldr	r3, [r7, #4]
 80032b0:	691b      	ldr	r3, [r3, #16]
 80032b2:	431a      	orrs	r2, r3
 80032b4:	687b      	ldr	r3, [r7, #4]
 80032b6:	695b      	ldr	r3, [r3, #20]
 80032b8:	ea42 0103 	orr.w	r1, r2, r3
 80032bc:	687b      	ldr	r3, [r7, #4]
 80032be:	685b      	ldr	r3, [r3, #4]
 80032c0:	1e5a      	subs	r2, r3, #1
 80032c2:	687b      	ldr	r3, [r7, #4]
 80032c4:	681b      	ldr	r3, [r3, #0]
 80032c6:	430a      	orrs	r2, r1
 80032c8:	61da      	str	r2, [r3, #28]
                                            hcan->Init.TimeSeg1       |
                                            hcan->Init.TimeSeg2       |
                                            (hcan->Init.Prescaler - 1U)));

  /* Initialize the error code */
  hcan->ErrorCode = HAL_CAN_ERROR_NONE;
 80032ca:	687b      	ldr	r3, [r7, #4]
 80032cc:	2200      	movs	r2, #0
 80032ce:	625a      	str	r2, [r3, #36]	@ 0x24

  /* Initialize the CAN state */
  hcan->State = HAL_CAN_STATE_READY;
 80032d0:	687b      	ldr	r3, [r7, #4]
 80032d2:	2201      	movs	r2, #1
 80032d4:	f883 2020 	strb.w	r2, [r3, #32]

  /* Return function status */
  return HAL_OK;
 80032d8:	2300      	movs	r3, #0
}
 80032da:	4618      	mov	r0, r3
 80032dc:	3710      	adds	r7, #16
 80032de:	46bd      	mov	sp, r7
 80032e0:	bd80      	pop	{r7, pc}
	...

080032e4 <HAL_CAN_ConfigFilter>:
  * @param  sFilterConfig pointer to a CAN_FilterTypeDef structure that
  *         contains the filter configuration information.
  * @retval None
  */
HAL_StatusTypeDef HAL_CAN_ConfigFilter(CAN_HandleTypeDef *hcan, const CAN_FilterTypeDef *sFilterConfig)
{
 80032e4:	b480      	push	{r7}
 80032e6:	b087      	sub	sp, #28
 80032e8:	af00      	add	r7, sp, #0
 80032ea:	6078      	str	r0, [r7, #4]
 80032ec:	6039      	str	r1, [r7, #0]
  uint32_t filternbrbitpos;
  CAN_TypeDef *can_ip = hcan->Instance;
 80032ee:	687b      	ldr	r3, [r7, #4]
 80032f0:	681b      	ldr	r3, [r3, #0]
 80032f2:	617b      	str	r3, [r7, #20]
  HAL_CAN_StateTypeDef state = hcan->State;
 80032f4:	687b      	ldr	r3, [r7, #4]
 80032f6:	f893 3020 	ldrb.w	r3, [r3, #32]
 80032fa:	74fb      	strb	r3, [r7, #19]

  if ((state == HAL_CAN_STATE_READY) ||
 80032fc:	7cfb      	ldrb	r3, [r7, #19]
 80032fe:	2b01      	cmp	r3, #1
 8003300:	d003      	beq.n	800330a <HAL_CAN_ConfigFilter+0x26>
 8003302:	7cfb      	ldrb	r3, [r7, #19]
 8003304:	2b02      	cmp	r3, #2
 8003306:	f040 80be 	bne.w	8003486 <HAL_CAN_ConfigFilter+0x1a2>
      assert_param(IS_CAN_FILTER_BANK_DUAL(sFilterConfig->SlaveStartFilterBank));
    }
#elif defined(CAN2)
    /* CAN1 and CAN2 are dual instances with 28 common filters banks */
    /* Select master instance to access the filter banks */
    can_ip = CAN1;
 800330a:	4b65      	ldr	r3, [pc, #404]	@ (80034a0 <HAL_CAN_ConfigFilter+0x1bc>)
 800330c:	617b      	str	r3, [r7, #20]
    /* Check the parameters */
    assert_param(IS_CAN_FILTER_BANK_SINGLE(sFilterConfig->FilterBank));
#endif /* CAN3 */

    /* Initialisation mode for the filter */
    SET_BIT(can_ip->FMR, CAN_FMR_FINIT);
 800330e:	697b      	ldr	r3, [r7, #20]
 8003310:	f8d3 3200 	ldr.w	r3, [r3, #512]	@ 0x200
 8003314:	f043 0201 	orr.w	r2, r3, #1
 8003318:	697b      	ldr	r3, [r7, #20]
 800331a:	f8c3 2200 	str.w	r2, [r3, #512]	@ 0x200
      SET_BIT(can_ip->FMR, sFilterConfig->SlaveStartFilterBank << CAN_FMR_CAN2SB_Pos);
    }

#elif defined(CAN2)
    /* Select the start filter number of CAN2 slave instance */
    CLEAR_BIT(can_ip->FMR, CAN_FMR_CAN2SB);
 800331e:	697b      	ldr	r3, [r7, #20]
 8003320:	f8d3 3200 	ldr.w	r3, [r3, #512]	@ 0x200
 8003324:	f423 527c 	bic.w	r2, r3, #16128	@ 0x3f00
 8003328:	697b      	ldr	r3, [r7, #20]
 800332a:	f8c3 2200 	str.w	r2, [r3, #512]	@ 0x200
    SET_BIT(can_ip->FMR, sFilterConfig->SlaveStartFilterBank << CAN_FMR_CAN2SB_Pos);
 800332e:	697b      	ldr	r3, [r7, #20]
 8003330:	f8d3 2200 	ldr.w	r2, [r3, #512]	@ 0x200
 8003334:	683b      	ldr	r3, [r7, #0]
 8003336:	6a5b      	ldr	r3, [r3, #36]	@ 0x24
 8003338:	021b      	lsls	r3, r3, #8
 800333a:	431a      	orrs	r2, r3
 800333c:	697b      	ldr	r3, [r7, #20]
 800333e:	f8c3 2200 	str.w	r2, [r3, #512]	@ 0x200

#endif /* CAN3 */
    /* Convert filter number into bit position */
    filternbrbitpos = (uint32_t)1 << (sFilterConfig->FilterBank & 0x1FU);
 8003342:	683b      	ldr	r3, [r7, #0]
 8003344:	695b      	ldr	r3, [r3, #20]
 8003346:	f003 031f 	and.w	r3, r3, #31
 800334a:	2201      	movs	r2, #1
 800334c:	fa02 f303 	lsl.w	r3, r2, r3
 8003350:	60fb      	str	r3, [r7, #12]

    /* Filter Deactivation */
    CLEAR_BIT(can_ip->FA1R, filternbrbitpos);
 8003352:	697b      	ldr	r3, [r7, #20]
 8003354:	f8d3 221c 	ldr.w	r2, [r3, #540]	@ 0x21c
 8003358:	68fb      	ldr	r3, [r7, #12]
 800335a:	43db      	mvns	r3, r3
 800335c:	401a      	ands	r2, r3
 800335e:	697b      	ldr	r3, [r7, #20]
 8003360:	f8c3 221c 	str.w	r2, [r3, #540]	@ 0x21c

    /* Filter Scale */
    if (sFilterConfig->FilterScale == CAN_FILTERSCALE_16BIT)
 8003364:	683b      	ldr	r3, [r7, #0]
 8003366:	69db      	ldr	r3, [r3, #28]
 8003368:	2b00      	cmp	r3, #0
 800336a:	d123      	bne.n	80033b4 <HAL_CAN_ConfigFilter+0xd0>
    {
      /* 16-bit scale for the filter */
      CLEAR_BIT(can_ip->FS1R, filternbrbitpos);
 800336c:	697b      	ldr	r3, [r7, #20]
 800336e:	f8d3 220c 	ldr.w	r2, [r3, #524]	@ 0x20c
 8003372:	68fb      	ldr	r3, [r7, #12]
 8003374:	43db      	mvns	r3, r3
 8003376:	401a      	ands	r2, r3
 8003378:	697b      	ldr	r3, [r7, #20]
 800337a:	f8c3 220c 	str.w	r2, [r3, #524]	@ 0x20c

      /* First 16-bit identifier and First 16-bit mask */
      /* Or First 16-bit identifier and Second 16-bit identifier */
      can_ip->sFilterRegister[sFilterConfig->FilterBank].FR1 =
        ((0x0000FFFFU & (uint32_t)sFilterConfig->FilterMaskIdLow) << 16U) |
 800337e:	683b      	ldr	r3, [r7, #0]
 8003380:	68db      	ldr	r3, [r3, #12]
 8003382:	0419      	lsls	r1, r3, #16
        (0x0000FFFFU & (uint32_t)sFilterConfig->FilterIdLow);
 8003384:	683b      	ldr	r3, [r7, #0]
 8003386:	685b      	ldr	r3, [r3, #4]
 8003388:	b29b      	uxth	r3, r3
      can_ip->sFilterRegister[sFilterConfig->FilterBank].FR1 =
 800338a:	683a      	ldr	r2, [r7, #0]
 800338c:	6952      	ldr	r2, [r2, #20]
        ((0x0000FFFFU & (uint32_t)sFilterConfig->FilterMaskIdLow) << 16U) |
 800338e:	4319      	orrs	r1, r3
      can_ip->sFilterRegister[sFilterConfig->FilterBank].FR1 =
 8003390:	697b      	ldr	r3, [r7, #20]
 8003392:	3248      	adds	r2, #72	@ 0x48
 8003394:	f843 1032 	str.w	r1, [r3, r2, lsl #3]

      /* Second 16-bit identifier and Second 16-bit mask */
      /* Or Third 16-bit identifier and Fourth 16-bit identifier */
      can_ip->sFilterRegister[sFilterConfig->FilterBank].FR2 =
        ((0x0000FFFFU & (uint32_t)sFilterConfig->FilterMaskIdHigh) << 16U) |
 8003398:	683b      	ldr	r3, [r7, #0]
 800339a:	689b      	ldr	r3, [r3, #8]
 800339c:	0419      	lsls	r1, r3, #16
        (0x0000FFFFU & (uint32_t)sFilterConfig->FilterIdHigh);
 800339e:	683b      	ldr	r3, [r7, #0]
 80033a0:	681b      	ldr	r3, [r3, #0]
 80033a2:	b29a      	uxth	r2, r3
      can_ip->sFilterRegister[sFilterConfig->FilterBank].FR2 =
 80033a4:	683b      	ldr	r3, [r7, #0]
 80033a6:	695b      	ldr	r3, [r3, #20]
        ((0x0000FFFFU & (uint32_t)sFilterConfig->FilterMaskIdHigh) << 16U) |
 80033a8:	430a      	orrs	r2, r1
      can_ip->sFilterRegister[sFilterConfig->FilterBank].FR2 =
 80033aa:	6979      	ldr	r1, [r7, #20]
 80033ac:	3348      	adds	r3, #72	@ 0x48
 80033ae:	00db      	lsls	r3, r3, #3
 80033b0:	440b      	add	r3, r1
 80033b2:	605a      	str	r2, [r3, #4]
    }

    if (sFilterConfig->FilterScale == CAN_FILTERSCALE_32BIT)
 80033b4:	683b      	ldr	r3, [r7, #0]
 80033b6:	69db      	ldr	r3, [r3, #28]
 80033b8:	2b01      	cmp	r3, #1
 80033ba:	d122      	bne.n	8003402 <HAL_CAN_ConfigFilter+0x11e>
    {
      /* 32-bit scale for the filter */
      SET_BIT(can_ip->FS1R, filternbrbitpos);
 80033bc:	697b      	ldr	r3, [r7, #20]
 80033be:	f8d3 220c 	ldr.w	r2, [r3, #524]	@ 0x20c
 80033c2:	68fb      	ldr	r3, [r7, #12]
 80033c4:	431a      	orrs	r2, r3
 80033c6:	697b      	ldr	r3, [r7, #20]
 80033c8:	f8c3 220c 	str.w	r2, [r3, #524]	@ 0x20c

      /* 32-bit identifier or First 32-bit identifier */
      can_ip->sFilterRegister[sFilterConfig->FilterBank].FR1 =
        ((0x0000FFFFU & (uint32_t)sFilterConfig->FilterIdHigh) << 16U) |
 80033cc:	683b      	ldr	r3, [r7, #0]
 80033ce:	681b      	ldr	r3, [r3, #0]
 80033d0:	0419      	lsls	r1, r3, #16
        (0x0000FFFFU & (uint32_t)sFilterConfig->FilterIdLow);
 80033d2:	683b      	ldr	r3, [r7, #0]
 80033d4:	685b      	ldr	r3, [r3, #4]
 80033d6:	b29b      	uxth	r3, r3
      can_ip->sFilterRegister[sFilterConfig->FilterBank].FR1 =
 80033d8:	683a      	ldr	r2, [r7, #0]
 80033da:	6952      	ldr	r2, [r2, #20]
        ((0x0000FFFFU & (uint32_t)sFilterConfig->FilterIdHigh) << 16U) |
 80033dc:	4319      	orrs	r1, r3
      can_ip->sFilterRegister[sFilterConfig->FilterBank].FR1 =
 80033de:	697b      	ldr	r3, [r7, #20]
 80033e0:	3248      	adds	r2, #72	@ 0x48
 80033e2:	f843 1032 	str.w	r1, [r3, r2, lsl #3]

      /* 32-bit mask or Second 32-bit identifier */
      can_ip->sFilterRegister[sFilterConfig->FilterBank].FR2 =
        ((0x0000FFFFU & (uint32_t)sFilterConfig->FilterMaskIdHigh) << 16U) |
 80033e6:	683b      	ldr	r3, [r7, #0]
 80033e8:	689b      	ldr	r3, [r3, #8]
 80033ea:	0419      	lsls	r1, r3, #16
        (0x0000FFFFU & (uint32_t)sFilterConfig->FilterMaskIdLow);
 80033ec:	683b      	ldr	r3, [r7, #0]
 80033ee:	68db      	ldr	r3, [r3, #12]
 80033f0:	b29a      	uxth	r2, r3
      can_ip->sFilterRegister[sFilterConfig->FilterBank].FR2 =
 80033f2:	683b      	ldr	r3, [r7, #0]
 80033f4:	695b      	ldr	r3, [r3, #20]
        ((0x0000FFFFU & (uint32_t)sFilterConfig->FilterMaskIdHigh) << 16U) |
 80033f6:	430a      	orrs	r2, r1
      can_ip->sFilterRegister[sFilterConfig->FilterBank].FR2 =
 80033f8:	6979      	ldr	r1, [r7, #20]
 80033fa:	3348      	adds	r3, #72	@ 0x48
 80033fc:	00db      	lsls	r3, r3, #3
 80033fe:	440b      	add	r3, r1
 8003400:	605a      	str	r2, [r3, #4]
    }

    /* Filter Mode */
    if (sFilterConfig->FilterMode == CAN_FILTERMODE_IDMASK)
 8003402:	683b      	ldr	r3, [r7, #0]
 8003404:	699b      	ldr	r3, [r3, #24]
 8003406:	2b00      	cmp	r3, #0
 8003408:	d109      	bne.n	800341e <HAL_CAN_ConfigFilter+0x13a>
    {
      /* Id/Mask mode for the filter*/
      CLEAR_BIT(can_ip->FM1R, filternbrbitpos);
 800340a:	697b      	ldr	r3, [r7, #20]
 800340c:	f8d3 2204 	ldr.w	r2, [r3, #516]	@ 0x204
 8003410:	68fb      	ldr	r3, [r7, #12]
 8003412:	43db      	mvns	r3, r3
 8003414:	401a      	ands	r2, r3
 8003416:	697b      	ldr	r3, [r7, #20]
 8003418:	f8c3 2204 	str.w	r2, [r3, #516]	@ 0x204
 800341c:	e007      	b.n	800342e <HAL_CAN_ConfigFilter+0x14a>
    }
    else /* CAN_FilterInitStruct->CAN_FilterMode == CAN_FilterMode_IdList */
    {
      /* Identifier list mode for the filter*/
      SET_BIT(can_ip->FM1R, filternbrbitpos);
 800341e:	697b      	ldr	r3, [r7, #20]
 8003420:	f8d3 2204 	ldr.w	r2, [r3, #516]	@ 0x204
 8003424:	68fb      	ldr	r3, [r7, #12]
 8003426:	431a      	orrs	r2, r3
 8003428:	697b      	ldr	r3, [r7, #20]
 800342a:	f8c3 2204 	str.w	r2, [r3, #516]	@ 0x204
    }

    /* Filter FIFO assignment */
    if (sFilterConfig->FilterFIFOAssignment == CAN_FILTER_FIFO0)
 800342e:	683b      	ldr	r3, [r7, #0]
 8003430:	691b      	ldr	r3, [r3, #16]
 8003432:	2b00      	cmp	r3, #0
 8003434:	d109      	bne.n	800344a <HAL_CAN_ConfigFilter+0x166>
    {
      /* FIFO 0 assignation for the filter */
      CLEAR_BIT(can_ip->FFA1R, filternbrbitpos);
 8003436:	697b      	ldr	r3, [r7, #20]
 8003438:	f8d3 2214 	ldr.w	r2, [r3, #532]	@ 0x214
 800343c:	68fb      	ldr	r3, [r7, #12]
 800343e:	43db      	mvns	r3, r3
 8003440:	401a      	ands	r2, r3
 8003442:	697b      	ldr	r3, [r7, #20]
 8003444:	f8c3 2214 	str.w	r2, [r3, #532]	@ 0x214
 8003448:	e007      	b.n	800345a <HAL_CAN_ConfigFilter+0x176>
    }
    else
    {
      /* FIFO 1 assignation for the filter */
      SET_BIT(can_ip->FFA1R, filternbrbitpos);
 800344a:	697b      	ldr	r3, [r7, #20]
 800344c:	f8d3 2214 	ldr.w	r2, [r3, #532]	@ 0x214
 8003450:	68fb      	ldr	r3, [r7, #12]
 8003452:	431a      	orrs	r2, r3
 8003454:	697b      	ldr	r3, [r7, #20]
 8003456:	f8c3 2214 	str.w	r2, [r3, #532]	@ 0x214
    }

    /* Filter activation */
    if (sFilterConfig->FilterActivation == CAN_FILTER_ENABLE)
 800345a:	683b      	ldr	r3, [r7, #0]
 800345c:	6a1b      	ldr	r3, [r3, #32]
 800345e:	2b01      	cmp	r3, #1
 8003460:	d107      	bne.n	8003472 <HAL_CAN_ConfigFilter+0x18e>
    {
      SET_BIT(can_ip->FA1R, filternbrbitpos);
 8003462:	697b      	ldr	r3, [r7, #20]
 8003464:	f8d3 221c 	ldr.w	r2, [r3, #540]	@ 0x21c
 8003468:	68fb      	ldr	r3, [r7, #12]
 800346a:	431a      	orrs	r2, r3
 800346c:	697b      	ldr	r3, [r7, #20]
 800346e:	f8c3 221c 	str.w	r2, [r3, #540]	@ 0x21c
    }

    /* Leave the initialisation mode for the filter */
    CLEAR_BIT(can_ip->FMR, CAN_FMR_FINIT);
 8003472:	697b      	ldr	r3, [r7, #20]
 8003474:	f8d3 3200 	ldr.w	r3, [r3, #512]	@ 0x200
 8003478:	f023 0201 	bic.w	r2, r3, #1
 800347c:	697b      	ldr	r3, [r7, #20]
 800347e:	f8c3 2200 	str.w	r2, [r3, #512]	@ 0x200

    /* Return function status */
    return HAL_OK;
 8003482:	2300      	movs	r3, #0
 8003484:	e006      	b.n	8003494 <HAL_CAN_ConfigFilter+0x1b0>
  }
  else
  {
    /* Update error code */
    hcan->ErrorCode |= HAL_CAN_ERROR_NOT_INITIALIZED;
 8003486:	687b      	ldr	r3, [r7, #4]
 8003488:	6a5b      	ldr	r3, [r3, #36]	@ 0x24
 800348a:	f443 2280 	orr.w	r2, r3, #262144	@ 0x40000
 800348e:	687b      	ldr	r3, [r7, #4]
 8003490:	625a      	str	r2, [r3, #36]	@ 0x24

    return HAL_ERROR;
 8003492:	2301      	movs	r3, #1
  }
}
 8003494:	4618      	mov	r0, r3
 8003496:	371c      	adds	r7, #28
 8003498:	46bd      	mov	sp, r7
 800349a:	f85d 7b04 	ldr.w	r7, [sp], #4
 800349e:	4770      	bx	lr
 80034a0:	40006400 	.word	0x40006400

080034a4 <HAL_CAN_Start>:
  * @param  hcan pointer to an CAN_HandleTypeDef structure that contains
  *         the configuration information for the specified CAN.
  * @retval HAL status
  */
HAL_StatusTypeDef HAL_CAN_Start(CAN_HandleTypeDef *hcan)
{
 80034a4:	b580      	push	{r7, lr}
 80034a6:	b084      	sub	sp, #16
 80034a8:	af00      	add	r7, sp, #0
 80034aa:	6078      	str	r0, [r7, #4]
  uint32_t tickstart;

  if (hcan->State == HAL_CAN_STATE_READY)
 80034ac:	687b      	ldr	r3, [r7, #4]
 80034ae:	f893 3020 	ldrb.w	r3, [r3, #32]
 80034b2:	b2db      	uxtb	r3, r3
 80034b4:	2b01      	cmp	r3, #1
 80034b6:	d12e      	bne.n	8003516 <HAL_CAN_Start+0x72>
  {
    /* Change CAN peripheral state */
    hcan->State = HAL_CAN_STATE_LISTENING;
 80034b8:	687b      	ldr	r3, [r7, #4]
 80034ba:	2202      	movs	r2, #2
 80034bc:	f883 2020 	strb.w	r2, [r3, #32]

    /* Request leave initialisation */
    CLEAR_BIT(hcan->Instance->MCR, CAN_MCR_INRQ);
 80034c0:	687b      	ldr	r3, [r7, #4]
 80034c2:	681b      	ldr	r3, [r3, #0]
 80034c4:	681a      	ldr	r2, [r3, #0]
 80034c6:	687b      	ldr	r3, [r7, #4]
 80034c8:	681b      	ldr	r3, [r3, #0]
 80034ca:	f022 0201 	bic.w	r2, r2, #1
 80034ce:	601a      	str	r2, [r3, #0]

    /* Get tick */
    tickstart = HAL_GetTick();
 80034d0:	f7ff f936 	bl	8002740 <HAL_GetTick>
 80034d4:	60f8      	str	r0, [r7, #12]

    /* Wait the acknowledge */
    while ((hcan->Instance->MSR & CAN_MSR_INAK) != 0U)
 80034d6:	e012      	b.n	80034fe <HAL_CAN_Start+0x5a>
    {
      /* Check for the Timeout */
      if ((HAL_GetTick() - tickstart) > CAN_TIMEOUT_VALUE)
 80034d8:	f7ff f932 	bl	8002740 <HAL_GetTick>
 80034dc:	4602      	mov	r2, r0
 80034de:	68fb      	ldr	r3, [r7, #12]
 80034e0:	1ad3      	subs	r3, r2, r3
 80034e2:	2b0a      	cmp	r3, #10
 80034e4:	d90b      	bls.n	80034fe <HAL_CAN_Start+0x5a>
      {
        /* Update error code */
        hcan->ErrorCode |= HAL_CAN_ERROR_TIMEOUT;
 80034e6:	687b      	ldr	r3, [r7, #4]
 80034e8:	6a5b      	ldr	r3, [r3, #36]	@ 0x24
 80034ea:	f443 3200 	orr.w	r2, r3, #131072	@ 0x20000
 80034ee:	687b      	ldr	r3, [r7, #4]
 80034f0:	625a      	str	r2, [r3, #36]	@ 0x24

        /* Change CAN state */
        hcan->State = HAL_CAN_STATE_ERROR;
 80034f2:	687b      	ldr	r3, [r7, #4]
 80034f4:	2205      	movs	r2, #5
 80034f6:	f883 2020 	strb.w	r2, [r3, #32]

        return HAL_ERROR;
 80034fa:	2301      	movs	r3, #1
 80034fc:	e012      	b.n	8003524 <HAL_CAN_Start+0x80>
    while ((hcan->Instance->MSR & CAN_MSR_INAK) != 0U)
 80034fe:	687b      	ldr	r3, [r7, #4]
 8003500:	681b      	ldr	r3, [r3, #0]
 8003502:	685b      	ldr	r3, [r3, #4]
 8003504:	f003 0301 	and.w	r3, r3, #1
 8003508:	2b00      	cmp	r3, #0
 800350a:	d1e5      	bne.n	80034d8 <HAL_CAN_Start+0x34>
      }
    }

    /* Reset the CAN ErrorCode */
    hcan->ErrorCode = HAL_CAN_ERROR_NONE;
 800350c:	687b      	ldr	r3, [r7, #4]
 800350e:	2200      	movs	r2, #0
 8003510:	625a      	str	r2, [r3, #36]	@ 0x24

    /* Return function status */
    return HAL_OK;
 8003512:	2300      	movs	r3, #0
 8003514:	e006      	b.n	8003524 <HAL_CAN_Start+0x80>
  }
  else
  {
    /* Update error code */
    hcan->ErrorCode |= HAL_CAN_ERROR_NOT_READY;
 8003516:	687b      	ldr	r3, [r7, #4]
 8003518:	6a5b      	ldr	r3, [r3, #36]	@ 0x24
 800351a:	f443 2200 	orr.w	r2, r3, #524288	@ 0x80000
 800351e:	687b      	ldr	r3, [r7, #4]
 8003520:	625a      	str	r2, [r3, #36]	@ 0x24

    return HAL_ERROR;
 8003522:	2301      	movs	r3, #1
  }
}
 8003524:	4618      	mov	r0, r3
 8003526:	3710      	adds	r7, #16
 8003528:	46bd      	mov	sp, r7
 800352a:	bd80      	pop	{r7, pc}

0800352c <HAL_CAN_AddTxMessage>:
  *         This parameter can be a value of @arg CAN_Tx_Mailboxes.
  * @retval HAL status
  */
HAL_StatusTypeDef HAL_CAN_AddTxMessage(CAN_HandleTypeDef *hcan, const CAN_TxHeaderTypeDef *pHeader,
                                       const uint8_t aData[], uint32_t *pTxMailbox)
{
 800352c:	b480      	push	{r7}
 800352e:	b089      	sub	sp, #36	@ 0x24
 8003530:	af00      	add	r7, sp, #0
 8003532:	60f8      	str	r0, [r7, #12]
 8003534:	60b9      	str	r1, [r7, #8]
 8003536:	607a      	str	r2, [r7, #4]
 8003538:	603b      	str	r3, [r7, #0]
  uint32_t transmitmailbox;
  HAL_CAN_StateTypeDef state = hcan->State;
 800353a:	68fb      	ldr	r3, [r7, #12]
 800353c:	f893 3020 	ldrb.w	r3, [r3, #32]
 8003540:	77fb      	strb	r3, [r7, #31]
  uint32_t tsr = READ_REG(hcan->Instance->TSR);
 8003542:	68fb      	ldr	r3, [r7, #12]
 8003544:	681b      	ldr	r3, [r3, #0]
 8003546:	689b      	ldr	r3, [r3, #8]
 8003548:	61bb      	str	r3, [r7, #24]
  {
    assert_param(IS_CAN_EXTID(pHeader->ExtId));
  }
  assert_param(IS_FUNCTIONAL_STATE(pHeader->TransmitGlobalTime));

  if ((state == HAL_CAN_STATE_READY) ||
 800354a:	7ffb      	ldrb	r3, [r7, #31]
 800354c:	2b01      	cmp	r3, #1
 800354e:	d003      	beq.n	8003558 <HAL_CAN_AddTxMessage+0x2c>
 8003550:	7ffb      	ldrb	r3, [r7, #31]
 8003552:	2b02      	cmp	r3, #2
 8003554:	f040 80ad 	bne.w	80036b2 <HAL_CAN_AddTxMessage+0x186>
      (state == HAL_CAN_STATE_LISTENING))
  {
    /* Check that all the Tx mailboxes are not full */
    if (((tsr & CAN_TSR_TME0) != 0U) ||
 8003558:	69bb      	ldr	r3, [r7, #24]
 800355a:	f003 6380 	and.w	r3, r3, #67108864	@ 0x4000000
 800355e:	2b00      	cmp	r3, #0
 8003560:	d10a      	bne.n	8003578 <HAL_CAN_AddTxMessage+0x4c>
        ((tsr & CAN_TSR_TME1) != 0U) ||
 8003562:	69bb      	ldr	r3, [r7, #24]
 8003564:	f003 6300 	and.w	r3, r3, #134217728	@ 0x8000000
    if (((tsr & CAN_TSR_TME0) != 0U) ||
 8003568:	2b00      	cmp	r3, #0
 800356a:	d105      	bne.n	8003578 <HAL_CAN_AddTxMessage+0x4c>
        ((tsr & CAN_TSR_TME2) != 0U))
 800356c:	69bb      	ldr	r3, [r7, #24]
 800356e:	f003 5380 	and.w	r3, r3, #268435456	@ 0x10000000
        ((tsr & CAN_TSR_TME1) != 0U) ||
 8003572:	2b00      	cmp	r3, #0
 8003574:	f000 8095 	beq.w	80036a2 <HAL_CAN_AddTxMessage+0x176>
    {
      /* Select an empty transmit mailbox */
      transmitmailbox = (tsr & CAN_TSR_CODE) >> CAN_TSR_CODE_Pos;
 8003578:	69bb      	ldr	r3, [r7, #24]
 800357a:	0e1b      	lsrs	r3, r3, #24
 800357c:	f003 0303 	and.w	r3, r3, #3
 8003580:	617b      	str	r3, [r7, #20]

      /* Store the Tx mailbox */
      *pTxMailbox = (uint32_t)1 << transmitmailbox;
 8003582:	2201      	movs	r2, #1
 8003584:	697b      	ldr	r3, [r7, #20]
 8003586:	409a      	lsls	r2, r3
 8003588:	683b      	ldr	r3, [r7, #0]
 800358a:	601a      	str	r2, [r3, #0]

      /* Set up the Id */
      if (pHeader->IDE == CAN_ID_STD)
 800358c:	68bb      	ldr	r3, [r7, #8]
 800358e:	689b      	ldr	r3, [r3, #8]
 8003590:	2b00      	cmp	r3, #0
 8003592:	d10d      	bne.n	80035b0 <HAL_CAN_AddTxMessage+0x84>
      {
        hcan->Instance->sTxMailBox[transmitmailbox].TIR = ((pHeader->StdId << CAN_TI0R_STID_Pos) |
 8003594:	68bb      	ldr	r3, [r7, #8]
 8003596:	681b      	ldr	r3, [r3, #0]
 8003598:	055a      	lsls	r2, r3, #21
                                                           pHeader->RTR);
 800359a:	68bb      	ldr	r3, [r7, #8]
 800359c:	68db      	ldr	r3, [r3, #12]
        hcan->Instance->sTxMailBox[transmitmailbox].TIR = ((pHeader->StdId << CAN_TI0R_STID_Pos) |
 800359e:	68f9      	ldr	r1, [r7, #12]
 80035a0:	6809      	ldr	r1, [r1, #0]
 80035a2:	431a      	orrs	r2, r3
 80035a4:	697b      	ldr	r3, [r7, #20]
 80035a6:	3318      	adds	r3, #24
 80035a8:	011b      	lsls	r3, r3, #4
 80035aa:	440b      	add	r3, r1
 80035ac:	601a      	str	r2, [r3, #0]
 80035ae:	e00f      	b.n	80035d0 <HAL_CAN_AddTxMessage+0xa4>
      }
      else
      {
        hcan->Instance->sTxMailBox[transmitmailbox].TIR = ((pHeader->ExtId << CAN_TI0R_EXID_Pos) |
 80035b0:	68bb      	ldr	r3, [r7, #8]
 80035b2:	685b      	ldr	r3, [r3, #4]
 80035b4:	00da      	lsls	r2, r3, #3
                                                           pHeader->IDE |
 80035b6:	68bb      	ldr	r3, [r7, #8]
 80035b8:	689b      	ldr	r3, [r3, #8]
        hcan->Instance->sTxMailBox[transmitmailbox].TIR = ((pHeader->ExtId << CAN_TI0R_EXID_Pos) |
 80035ba:	431a      	orrs	r2, r3
                                                           pHeader->RTR);
 80035bc:	68bb      	ldr	r3, [r7, #8]
 80035be:	68db      	ldr	r3, [r3, #12]
        hcan->Instance->sTxMailBox[transmitmailbox].TIR = ((pHeader->ExtId << CAN_TI0R_EXID_Pos) |
 80035c0:	68f9      	ldr	r1, [r7, #12]
 80035c2:	6809      	ldr	r1, [r1, #0]
                                                           pHeader->IDE |
 80035c4:	431a      	orrs	r2, r3
        hcan->Instance->sTxMailBox[transmitmailbox].TIR = ((pHeader->ExtId << CAN_TI0R_EXID_Pos) |
 80035c6:	697b      	ldr	r3, [r7, #20]
 80035c8:	3318      	adds	r3, #24
 80035ca:	011b      	lsls	r3, r3, #4
 80035cc:	440b      	add	r3, r1
 80035ce:	601a      	str	r2, [r3, #0]
      }

      /* Set up the DLC */
      hcan->Instance->sTxMailBox[transmitmailbox].TDTR = (pHeader->DLC);
 80035d0:	68fb      	ldr	r3, [r7, #12]
 80035d2:	6819      	ldr	r1, [r3, #0]
 80035d4:	68bb      	ldr	r3, [r7, #8]
 80035d6:	691a      	ldr	r2, [r3, #16]
 80035d8:	697b      	ldr	r3, [r7, #20]
 80035da:	3318      	adds	r3, #24
 80035dc:	011b      	lsls	r3, r3, #4
 80035de:	440b      	add	r3, r1
 80035e0:	3304      	adds	r3, #4
 80035e2:	601a      	str	r2, [r3, #0]

      /* Set up the Transmit Global Time mode */
      if (pHeader->TransmitGlobalTime == ENABLE)
 80035e4:	68bb      	ldr	r3, [r7, #8]
 80035e6:	7d1b      	ldrb	r3, [r3, #20]
 80035e8:	2b01      	cmp	r3, #1
 80035ea:	d111      	bne.n	8003610 <HAL_CAN_AddTxMessage+0xe4>
      {
        SET_BIT(hcan->Instance->sTxMailBox[transmitmailbox].TDTR, CAN_TDT0R_TGT);
 80035ec:	68fb      	ldr	r3, [r7, #12]
 80035ee:	681a      	ldr	r2, [r3, #0]
 80035f0:	697b      	ldr	r3, [r7, #20]
 80035f2:	3318      	adds	r3, #24
 80035f4:	011b      	lsls	r3, r3, #4
 80035f6:	4413      	add	r3, r2
 80035f8:	3304      	adds	r3, #4
 80035fa:	681b      	ldr	r3, [r3, #0]
 80035fc:	68fa      	ldr	r2, [r7, #12]
 80035fe:	6811      	ldr	r1, [r2, #0]
 8003600:	f443 7280 	orr.w	r2, r3, #256	@ 0x100
 8003604:	697b      	ldr	r3, [r7, #20]
 8003606:	3318      	adds	r3, #24
 8003608:	011b      	lsls	r3, r3, #4
 800360a:	440b      	add	r3, r1
 800360c:	3304      	adds	r3, #4
 800360e:	601a      	str	r2, [r3, #0]
      }

      /* Set up the data field */
      WRITE_REG(hcan->Instance->sTxMailBox[transmitmailbox].TDHR,
 8003610:	687b      	ldr	r3, [r7, #4]
 8003612:	3307      	adds	r3, #7
 8003614:	781b      	ldrb	r3, [r3, #0]
 8003616:	061a      	lsls	r2, r3, #24
 8003618:	687b      	ldr	r3, [r7, #4]
 800361a:	3306      	adds	r3, #6
 800361c:	781b      	ldrb	r3, [r3, #0]
 800361e:	041b      	lsls	r3, r3, #16
 8003620:	431a      	orrs	r2, r3
 8003622:	687b      	ldr	r3, [r7, #4]
 8003624:	3305      	adds	r3, #5
 8003626:	781b      	ldrb	r3, [r3, #0]
 8003628:	021b      	lsls	r3, r3, #8
 800362a:	4313      	orrs	r3, r2
 800362c:	687a      	ldr	r2, [r7, #4]
 800362e:	3204      	adds	r2, #4
 8003630:	7812      	ldrb	r2, [r2, #0]
 8003632:	4610      	mov	r0, r2
 8003634:	68fa      	ldr	r2, [r7, #12]
 8003636:	6811      	ldr	r1, [r2, #0]
 8003638:	ea43 0200 	orr.w	r2, r3, r0
 800363c:	697b      	ldr	r3, [r7, #20]
 800363e:	011b      	lsls	r3, r3, #4
 8003640:	440b      	add	r3, r1
 8003642:	f503 73c6 	add.w	r3, r3, #396	@ 0x18c
 8003646:	601a      	str	r2, [r3, #0]
                ((uint32_t)aData[7] << CAN_TDH0R_DATA7_Pos) |
                ((uint32_t)aData[6] << CAN_TDH0R_DATA6_Pos) |
                ((uint32_t)aData[5] << CAN_TDH0R_DATA5_Pos) |
                ((uint32_t)aData[4] << CAN_TDH0R_DATA4_Pos));
      WRITE_REG(hcan->Instance->sTxMailBox[transmitmailbox].TDLR,
 8003648:	687b      	ldr	r3, [r7, #4]
 800364a:	3303      	adds	r3, #3
 800364c:	781b      	ldrb	r3, [r3, #0]
 800364e:	061a      	lsls	r2, r3, #24
 8003650:	687b      	ldr	r3, [r7, #4]
 8003652:	3302      	adds	r3, #2
 8003654:	781b      	ldrb	r3, [r3, #0]
 8003656:	041b      	lsls	r3, r3, #16
 8003658:	431a      	orrs	r2, r3
 800365a:	687b      	ldr	r3, [r7, #4]
 800365c:	3301      	adds	r3, #1
 800365e:	781b      	ldrb	r3, [r3, #0]
 8003660:	021b      	lsls	r3, r3, #8
 8003662:	4313      	orrs	r3, r2
 8003664:	687a      	ldr	r2, [r7, #4]
 8003666:	7812      	ldrb	r2, [r2, #0]
 8003668:	4610      	mov	r0, r2
 800366a:	68fa      	ldr	r2, [r7, #12]
 800366c:	6811      	ldr	r1, [r2, #0]
 800366e:	ea43 0200 	orr.w	r2, r3, r0
 8003672:	697b      	ldr	r3, [r7, #20]
 8003674:	011b      	lsls	r3, r3, #4
 8003676:	440b      	add	r3, r1
 8003678:	f503 73c4 	add.w	r3, r3, #392	@ 0x188
 800367c:	601a      	str	r2, [r3, #0]
                ((uint32_t)aData[2] << CAN_TDL0R_DATA2_Pos) |
                ((uint32_t)aData[1] << CAN_TDL0R_DATA1_Pos) |
                ((uint32_t)aData[0] << CAN_TDL0R_DATA0_Pos));

      /* Request transmission */
      SET_BIT(hcan->Instance->sTxMailBox[transmitmailbox].TIR, CAN_TI0R_TXRQ);
 800367e:	68fb      	ldr	r3, [r7, #12]
 8003680:	681a      	ldr	r2, [r3, #0]
 8003682:	697b      	ldr	r3, [r7, #20]
 8003684:	3318      	adds	r3, #24
 8003686:	011b      	lsls	r3, r3, #4
 8003688:	4413      	add	r3, r2
 800368a:	681b      	ldr	r3, [r3, #0]
 800368c:	68fa      	ldr	r2, [r7, #12]
 800368e:	6811      	ldr	r1, [r2, #0]
 8003690:	f043 0201 	orr.w	r2, r3, #1
 8003694:	697b      	ldr	r3, [r7, #20]
 8003696:	3318      	adds	r3, #24
 8003698:	011b      	lsls	r3, r3, #4
 800369a:	440b      	add	r3, r1
 800369c:	601a      	str	r2, [r3, #0]

      /* Return function status */
      return HAL_OK;
 800369e:	2300      	movs	r3, #0
 80036a0:	e00e      	b.n	80036c0 <HAL_CAN_AddTxMessage+0x194>
    }
    else
    {
      /* Update error code */
      hcan->ErrorCode |= HAL_CAN_ERROR_PARAM;
 80036a2:	68fb      	ldr	r3, [r7, #12]
 80036a4:	6a5b      	ldr	r3, [r3, #36]	@ 0x24
 80036a6:	f443 1200 	orr.w	r2, r3, #2097152	@ 0x200000
 80036aa:	68fb      	ldr	r3, [r7, #12]
 80036ac:	625a      	str	r2, [r3, #36]	@ 0x24

      return HAL_ERROR;
 80036ae:	2301      	movs	r3, #1
 80036b0:	e006      	b.n	80036c0 <HAL_CAN_AddTxMessage+0x194>
    }
  }
  else
  {
    /* Update error code */
    hcan->ErrorCode |= HAL_CAN_ERROR_NOT_INITIALIZED;
 80036b2:	68fb      	ldr	r3, [r7, #12]
 80036b4:	6a5b      	ldr	r3, [r3, #36]	@ 0x24
 80036b6:	f443 2280 	orr.w	r2, r3, #262144	@ 0x40000
 80036ba:	68fb      	ldr	r3, [r7, #12]
 80036bc:	625a      	str	r2, [r3, #36]	@ 0x24

    return HAL_ERROR;
 80036be:	2301      	movs	r3, #1
  }
}
 80036c0:	4618      	mov	r0, r3
 80036c2:	3724      	adds	r7, #36	@ 0x24
 80036c4:	46bd      	mov	sp, r7
 80036c6:	f85d 7b04 	ldr.w	r7, [sp], #4
 80036ca:	4770      	bx	lr

080036cc <HAL_CAN_GetTxMailboxesFreeLevel>:
  * @param  hcan pointer to a CAN_HandleTypeDef structure that contains
  *         the configuration information for the specified CAN.
  * @retval Number of free Tx Mailboxes.
  */
uint32_t HAL_CAN_GetTxMailboxesFreeLevel(const CAN_HandleTypeDef *hcan)
{
 80036cc:	b480      	push	{r7}
 80036ce:	b085      	sub	sp, #20
 80036d0:	af00      	add	r7, sp, #0
 80036d2:	6078      	str	r0, [r7, #4]
  uint32_t freelevel = 0U;
 80036d4:	2300      	movs	r3, #0
 80036d6:	60fb      	str	r3, [r7, #12]
  HAL_CAN_StateTypeDef state = hcan->State;
 80036d8:	687b      	ldr	r3, [r7, #4]
 80036da:	f893 3020 	ldrb.w	r3, [r3, #32]
 80036de:	72fb      	strb	r3, [r7, #11]

  if ((state == HAL_CAN_STATE_READY) ||
 80036e0:	7afb      	ldrb	r3, [r7, #11]
 80036e2:	2b01      	cmp	r3, #1
 80036e4:	d002      	beq.n	80036ec <HAL_CAN_GetTxMailboxesFreeLevel+0x20>
 80036e6:	7afb      	ldrb	r3, [r7, #11]
 80036e8:	2b02      	cmp	r3, #2
 80036ea:	d11d      	bne.n	8003728 <HAL_CAN_GetTxMailboxesFreeLevel+0x5c>
      (state == HAL_CAN_STATE_LISTENING))
  {
    /* Check Tx Mailbox 0 status */
    if ((hcan->Instance->TSR & CAN_TSR_TME0) != 0U)
 80036ec:	687b      	ldr	r3, [r7, #4]
 80036ee:	681b      	ldr	r3, [r3, #0]
 80036f0:	689b      	ldr	r3, [r3, #8]
 80036f2:	f003 6380 	and.w	r3, r3, #67108864	@ 0x4000000
 80036f6:	2b00      	cmp	r3, #0
 80036f8:	d002      	beq.n	8003700 <HAL_CAN_GetTxMailboxesFreeLevel+0x34>
    {
      freelevel++;
 80036fa:	68fb      	ldr	r3, [r7, #12]
 80036fc:	3301      	adds	r3, #1
 80036fe:	60fb      	str	r3, [r7, #12]
    }

    /* Check Tx Mailbox 1 status */
    if ((hcan->Instance->TSR & CAN_TSR_TME1) != 0U)
 8003700:	687b      	ldr	r3, [r7, #4]
 8003702:	681b      	ldr	r3, [r3, #0]
 8003704:	689b      	ldr	r3, [r3, #8]
 8003706:	f003 6300 	and.w	r3, r3, #134217728	@ 0x8000000
 800370a:	2b00      	cmp	r3, #0
 800370c:	d002      	beq.n	8003714 <HAL_CAN_GetTxMailboxesFreeLevel+0x48>
    {
      freelevel++;
 800370e:	68fb      	ldr	r3, [r7, #12]
 8003710:	3301      	adds	r3, #1
 8003712:	60fb      	str	r3, [r7, #12]
    }

    /* Check Tx Mailbox 2 status */
    if ((hcan->Instance->TSR & CAN_TSR_TME2) != 0U)
 8003714:	687b      	ldr	r3, [r7, #4]
 8003716:	681b      	ldr	r3, [r3, #0]
 8003718:	689b      	ldr	r3, [r3, #8]
 800371a:	f003 5380 	and.w	r3, r3, #268435456	@ 0x10000000
 800371e:	2b00      	cmp	r3, #0
 8003720:	d002      	beq.n	8003728 <HAL_CAN_GetTxMailboxesFreeLevel+0x5c>
    {
      freelevel++;
 8003722:	68fb      	ldr	r3, [r7, #12]
 8003724:	3301      	adds	r3, #1
 8003726:	60fb      	str	r3, [r7, #12]
    }
  }

  /* Return Tx Mailboxes free level */
  return freelevel;
 8003728:	68fb      	ldr	r3, [r7, #12]
}
 800372a:	4618      	mov	r0, r3
 800372c:	3714      	adds	r7, #20
 800372e:	46bd      	mov	sp, r7
 8003730:	f85d 7b04 	ldr.w	r7, [sp], #4
 8003734:	4770      	bx	lr

08003736 <HAL_CAN_GetRxMessage>:
  * @param  aData array where the payload of the Rx frame will be stored.
  * @retval HAL status
  */
HAL_StatusTypeDef HAL_CAN_GetRxMessage(CAN_HandleTypeDef *hcan, uint32_t RxFifo,
                                       CAN_RxHeaderTypeDef *pHeader, uint8_t aData[])
{
 8003736:	b480      	push	{r7}
 8003738:	b087      	sub	sp, #28
 800373a:	af00      	add	r7, sp, #0
 800373c:	60f8      	str	r0, [r7, #12]
 800373e:	60b9      	str	r1, [r7, #8]
 8003740:	607a      	str	r2, [r7, #4]
 8003742:	603b      	str	r3, [r7, #0]
  HAL_CAN_StateTypeDef state = hcan->State;
 8003744:	68fb      	ldr	r3, [r7, #12]
 8003746:	f893 3020 	ldrb.w	r3, [r3, #32]
 800374a:	75fb      	strb	r3, [r7, #23]

  assert_param(IS_CAN_RX_FIFO(RxFifo));

  if ((state == HAL_CAN_STATE_READY) ||
 800374c:	7dfb      	ldrb	r3, [r7, #23]
 800374e:	2b01      	cmp	r3, #1
 8003750:	d003      	beq.n	800375a <HAL_CAN_GetRxMessage+0x24>
 8003752:	7dfb      	ldrb	r3, [r7, #23]
 8003754:	2b02      	cmp	r3, #2
 8003756:	f040 8103 	bne.w	8003960 <HAL_CAN_GetRxMessage+0x22a>
      (state == HAL_CAN_STATE_LISTENING))
  {
    /* Check the Rx FIFO */
    if (RxFifo == CAN_RX_FIFO0) /* Rx element is assigned to Rx FIFO 0 */
 800375a:	68bb      	ldr	r3, [r7, #8]
 800375c:	2b00      	cmp	r3, #0
 800375e:	d10e      	bne.n	800377e <HAL_CAN_GetRxMessage+0x48>
    {
      /* Check that the Rx FIFO 0 is not empty */
      if ((hcan->Instance->RF0R & CAN_RF0R_FMP0) == 0U)
 8003760:	68fb      	ldr	r3, [r7, #12]
 8003762:	681b      	ldr	r3, [r3, #0]
 8003764:	68db      	ldr	r3, [r3, #12]
 8003766:	f003 0303 	and.w	r3, r3, #3
 800376a:	2b00      	cmp	r3, #0
 800376c:	d116      	bne.n	800379c <HAL_CAN_GetRxMessage+0x66>
      {
        /* Update error code */
        hcan->ErrorCode |= HAL_CAN_ERROR_PARAM;
 800376e:	68fb      	ldr	r3, [r7, #12]
 8003770:	6a5b      	ldr	r3, [r3, #36]	@ 0x24
 8003772:	f443 1200 	orr.w	r2, r3, #2097152	@ 0x200000
 8003776:	68fb      	ldr	r3, [r7, #12]
 8003778:	625a      	str	r2, [r3, #36]	@ 0x24

        return HAL_ERROR;
 800377a:	2301      	movs	r3, #1
 800377c:	e0f7      	b.n	800396e <HAL_CAN_GetRxMessage+0x238>
      }
    }
    else /* Rx element is assigned to Rx FIFO 1 */
    {
      /* Check that the Rx FIFO 1 is not empty */
      if ((hcan->Instance->RF1R & CAN_RF1R_FMP1) == 0U)
 800377e:	68fb      	ldr	r3, [r7, #12]
 8003780:	681b      	ldr	r3, [r3, #0]
 8003782:	691b      	ldr	r3, [r3, #16]
 8003784:	f003 0303 	and.w	r3, r3, #3
 8003788:	2b00      	cmp	r3, #0
 800378a:	d107      	bne.n	800379c <HAL_CAN_GetRxMessage+0x66>
      {
        /* Update error code */
        hcan->ErrorCode |= HAL_CAN_ERROR_PARAM;
 800378c:	68fb      	ldr	r3, [r7, #12]
 800378e:	6a5b      	ldr	r3, [r3, #36]	@ 0x24
 8003790:	f443 1200 	orr.w	r2, r3, #2097152	@ 0x200000
 8003794:	68fb      	ldr	r3, [r7, #12]
 8003796:	625a      	str	r2, [r3, #36]	@ 0x24

        return HAL_ERROR;
 8003798:	2301      	movs	r3, #1
 800379a:	e0e8      	b.n	800396e <HAL_CAN_GetRxMessage+0x238>
      }
    }

    /* Get the header */
    pHeader->IDE = CAN_RI0R_IDE & hcan->Instance->sFIFOMailBox[RxFifo].RIR;
 800379c:	68fb      	ldr	r3, [r7, #12]
 800379e:	681a      	ldr	r2, [r3, #0]
 80037a0:	68bb      	ldr	r3, [r7, #8]
 80037a2:	331b      	adds	r3, #27
 80037a4:	011b      	lsls	r3, r3, #4
 80037a6:	4413      	add	r3, r2
 80037a8:	681b      	ldr	r3, [r3, #0]
 80037aa:	f003 0204 	and.w	r2, r3, #4
 80037ae:	687b      	ldr	r3, [r7, #4]
 80037b0:	609a      	str	r2, [r3, #8]
    if (pHeader->IDE == CAN_ID_STD)
 80037b2:	687b      	ldr	r3, [r7, #4]
 80037b4:	689b      	ldr	r3, [r3, #8]
 80037b6:	2b00      	cmp	r3, #0
 80037b8:	d10c      	bne.n	80037d4 <HAL_CAN_GetRxMessage+0x9e>
    {
      pHeader->StdId = (CAN_RI0R_STID & hcan->Instance->sFIFOMailBox[RxFifo].RIR) >> CAN_TI0R_STID_Pos;
 80037ba:	68fb      	ldr	r3, [r7, #12]
 80037bc:	681a      	ldr	r2, [r3, #0]
 80037be:	68bb      	ldr	r3, [r7, #8]
 80037c0:	331b      	adds	r3, #27
 80037c2:	011b      	lsls	r3, r3, #4
 80037c4:	4413      	add	r3, r2
 80037c6:	681b      	ldr	r3, [r3, #0]
 80037c8:	0d5b      	lsrs	r3, r3, #21
 80037ca:	f3c3 020a 	ubfx	r2, r3, #0, #11
 80037ce:	687b      	ldr	r3, [r7, #4]
 80037d0:	601a      	str	r2, [r3, #0]
 80037d2:	e00b      	b.n	80037ec <HAL_CAN_GetRxMessage+0xb6>
    }
    else
    {
      pHeader->ExtId = ((CAN_RI0R_EXID | CAN_RI0R_STID) &
                        hcan->Instance->sFIFOMailBox[RxFifo].RIR) >> CAN_RI0R_EXID_Pos;
 80037d4:	68fb      	ldr	r3, [r7, #12]
 80037d6:	681a      	ldr	r2, [r3, #0]
 80037d8:	68bb      	ldr	r3, [r7, #8]
 80037da:	331b      	adds	r3, #27
 80037dc:	011b      	lsls	r3, r3, #4
 80037de:	4413      	add	r3, r2
 80037e0:	681b      	ldr	r3, [r3, #0]
 80037e2:	08db      	lsrs	r3, r3, #3
 80037e4:	f023 4260 	bic.w	r2, r3, #3758096384	@ 0xe0000000
      pHeader->ExtId = ((CAN_RI0R_EXID | CAN_RI0R_STID) &
 80037e8:	687b      	ldr	r3, [r7, #4]
 80037ea:	605a      	str	r2, [r3, #4]
    }
    pHeader->RTR = (CAN_RI0R_RTR & hcan->Instance->sFIFOMailBox[RxFifo].RIR);
 80037ec:	68fb      	ldr	r3, [r7, #12]
 80037ee:	681a      	ldr	r2, [r3, #0]
 80037f0:	68bb      	ldr	r3, [r7, #8]
 80037f2:	331b      	adds	r3, #27
 80037f4:	011b      	lsls	r3, r3, #4
 80037f6:	4413      	add	r3, r2
 80037f8:	681b      	ldr	r3, [r3, #0]
 80037fa:	f003 0202 	and.w	r2, r3, #2
 80037fe:	687b      	ldr	r3, [r7, #4]
 8003800:	60da      	str	r2, [r3, #12]
    if (((CAN_RDT0R_DLC & hcan->Instance->sFIFOMailBox[RxFifo].RDTR) >> CAN_RDT0R_DLC_Pos) >= 8U)
 8003802:	68fb      	ldr	r3, [r7, #12]
 8003804:	681a      	ldr	r2, [r3, #0]
 8003806:	68bb      	ldr	r3, [r7, #8]
 8003808:	331b      	adds	r3, #27
 800380a:	011b      	lsls	r3, r3, #4
 800380c:	4413      	add	r3, r2
 800380e:	3304      	adds	r3, #4
 8003810:	681b      	ldr	r3, [r3, #0]
 8003812:	f003 0308 	and.w	r3, r3, #8
 8003816:	2b00      	cmp	r3, #0
 8003818:	d003      	beq.n	8003822 <HAL_CAN_GetRxMessage+0xec>
    {
      /* Truncate DLC to 8 if received field is over range */
      pHeader->DLC = 8U;
 800381a:	687b      	ldr	r3, [r7, #4]
 800381c:	2208      	movs	r2, #8
 800381e:	611a      	str	r2, [r3, #16]
 8003820:	e00b      	b.n	800383a <HAL_CAN_GetRxMessage+0x104>
    }
    else
    {
      pHeader->DLC = (CAN_RDT0R_DLC & hcan->Instance->sFIFOMailBox[RxFifo].RDTR) >> CAN_RDT0R_DLC_Pos;
 8003822:	68fb      	ldr	r3, [r7, #12]
 8003824:	681a      	ldr	r2, [r3, #0]
 8003826:	68bb      	ldr	r3, [r7, #8]
 8003828:	331b      	adds	r3, #27
 800382a:	011b      	lsls	r3, r3, #4
 800382c:	4413      	add	r3, r2
 800382e:	3304      	adds	r3, #4
 8003830:	681b      	ldr	r3, [r3, #0]
 8003832:	f003 020f 	and.w	r2, r3, #15
 8003836:	687b      	ldr	r3, [r7, #4]
 8003838:	611a      	str	r2, [r3, #16]
    }
    pHeader->FilterMatchIndex = (CAN_RDT0R_FMI & hcan->Instance->sFIFOMailBox[RxFifo].RDTR) >> CAN_RDT0R_FMI_Pos;
 800383a:	68fb      	ldr	r3, [r7, #12]
 800383c:	681a      	ldr	r2, [r3, #0]
 800383e:	68bb      	ldr	r3, [r7, #8]
 8003840:	331b      	adds	r3, #27
 8003842:	011b      	lsls	r3, r3, #4
 8003844:	4413      	add	r3, r2
 8003846:	3304      	adds	r3, #4
 8003848:	681b      	ldr	r3, [r3, #0]
 800384a:	0a1b      	lsrs	r3, r3, #8
 800384c:	b2da      	uxtb	r2, r3
 800384e:	687b      	ldr	r3, [r7, #4]
 8003850:	619a      	str	r2, [r3, #24]
    pHeader->Timestamp = (CAN_RDT0R_TIME & hcan->Instance->sFIFOMailBox[RxFifo].RDTR) >> CAN_RDT0R_TIME_Pos;
 8003852:	68fb      	ldr	r3, [r7, #12]
 8003854:	681a      	ldr	r2, [r3, #0]
 8003856:	68bb      	ldr	r3, [r7, #8]
 8003858:	331b      	adds	r3, #27
 800385a:	011b      	lsls	r3, r3, #4
 800385c:	4413      	add	r3, r2
 800385e:	3304      	adds	r3, #4
 8003860:	681b      	ldr	r3, [r3, #0]
 8003862:	0c1b      	lsrs	r3, r3, #16
 8003864:	b29a      	uxth	r2, r3
 8003866:	687b      	ldr	r3, [r7, #4]
 8003868:	615a      	str	r2, [r3, #20]

    /* Get the data */
    aData[0] = (uint8_t)((CAN_RDL0R_DATA0 & hcan->Instance->sFIFOMailBox[RxFifo].RDLR) >> CAN_RDL0R_DATA0_Pos);
 800386a:	68fb      	ldr	r3, [r7, #12]
 800386c:	681a      	ldr	r2, [r3, #0]
 800386e:	68bb      	ldr	r3, [r7, #8]
 8003870:	011b      	lsls	r3, r3, #4
 8003872:	4413      	add	r3, r2
 8003874:	f503 73dc 	add.w	r3, r3, #440	@ 0x1b8
 8003878:	681b      	ldr	r3, [r3, #0]
 800387a:	b2da      	uxtb	r2, r3
 800387c:	683b      	ldr	r3, [r7, #0]
 800387e:	701a      	strb	r2, [r3, #0]
    aData[1] = (uint8_t)((CAN_RDL0R_DATA1 & hcan->Instance->sFIFOMailBox[RxFifo].RDLR) >> CAN_RDL0R_DATA1_Pos);
 8003880:	68fb      	ldr	r3, [r7, #12]
 8003882:	681a      	ldr	r2, [r3, #0]
 8003884:	68bb      	ldr	r3, [r7, #8]
 8003886:	011b      	lsls	r3, r3, #4
 8003888:	4413      	add	r3, r2
 800388a:	f503 73dc 	add.w	r3, r3, #440	@ 0x1b8
 800388e:	681b      	ldr	r3, [r3, #0]
 8003890:	0a1a      	lsrs	r2, r3, #8
 8003892:	683b      	ldr	r3, [r7, #0]
 8003894:	3301      	adds	r3, #1
 8003896:	b2d2      	uxtb	r2, r2
 8003898:	701a      	strb	r2, [r3, #0]
    aData[2] = (uint8_t)((CAN_RDL0R_DATA2 & hcan->Instance->sFIFOMailBox[RxFifo].RDLR) >> CAN_RDL0R_DATA2_Pos);
 800389a:	68fb      	ldr	r3, [r7, #12]
 800389c:	681a      	ldr	r2, [r3, #0]
 800389e:	68bb      	ldr	r3, [r7, #8]
 80038a0:	011b      	lsls	r3, r3, #4
 80038a2:	4413      	add	r3, r2
 80038a4:	f503 73dc 	add.w	r3, r3, #440	@ 0x1b8
 80038a8:	681b      	ldr	r3, [r3, #0]
 80038aa:	0c1a      	lsrs	r2, r3, #16
 80038ac:	683b      	ldr	r3, [r7, #0]
 80038ae:	3302      	adds	r3, #2
 80038b0:	b2d2      	uxtb	r2, r2
 80038b2:	701a      	strb	r2, [r3, #0]
    aData[3] = (uint8_t)((CAN_RDL0R_DATA3 & hcan->Instance->sFIFOMailBox[RxFifo].RDLR) >> CAN_RDL0R_DATA3_Pos);
 80038b4:	68fb      	ldr	r3, [r7, #12]
 80038b6:	681a      	ldr	r2, [r3, #0]
 80038b8:	68bb      	ldr	r3, [r7, #8]
 80038ba:	011b      	lsls	r3, r3, #4
 80038bc:	4413      	add	r3, r2
 80038be:	f503 73dc 	add.w	r3, r3, #440	@ 0x1b8
 80038c2:	681b      	ldr	r3, [r3, #0]
 80038c4:	0e1a      	lsrs	r2, r3, #24
 80038c6:	683b      	ldr	r3, [r7, #0]
 80038c8:	3303      	adds	r3, #3
 80038ca:	b2d2      	uxtb	r2, r2
 80038cc:	701a      	strb	r2, [r3, #0]
    aData[4] = (uint8_t)((CAN_RDH0R_DATA4 & hcan->Instance->sFIFOMailBox[RxFifo].RDHR) >> CAN_RDH0R_DATA4_Pos);
 80038ce:	68fb      	ldr	r3, [r7, #12]
 80038d0:	681a      	ldr	r2, [r3, #0]
 80038d2:	68bb      	ldr	r3, [r7, #8]
 80038d4:	011b      	lsls	r3, r3, #4
 80038d6:	4413      	add	r3, r2
 80038d8:	f503 73de 	add.w	r3, r3, #444	@ 0x1bc
 80038dc:	681a      	ldr	r2, [r3, #0]
 80038de:	683b      	ldr	r3, [r7, #0]
 80038e0:	3304      	adds	r3, #4
 80038e2:	b2d2      	uxtb	r2, r2
 80038e4:	701a      	strb	r2, [r3, #0]
    aData[5] = (uint8_t)((CAN_RDH0R_DATA5 & hcan->Instance->sFIFOMailBox[RxFifo].RDHR) >> CAN_RDH0R_DATA5_Pos);
 80038e6:	68fb      	ldr	r3, [r7, #12]
 80038e8:	681a      	ldr	r2, [r3, #0]
 80038ea:	68bb      	ldr	r3, [r7, #8]
 80038ec:	011b      	lsls	r3, r3, #4
 80038ee:	4413      	add	r3, r2
 80038f0:	f503 73de 	add.w	r3, r3, #444	@ 0x1bc
 80038f4:	681b      	ldr	r3, [r3, #0]
 80038f6:	0a1a      	lsrs	r2, r3, #8
 80038f8:	683b      	ldr	r3, [r7, #0]
 80038fa:	3305      	adds	r3, #5
 80038fc:	b2d2      	uxtb	r2, r2
 80038fe:	701a      	strb	r2, [r3, #0]
    aData[6] = (uint8_t)((CAN_RDH0R_DATA6 & hcan->Instance->sFIFOMailBox[RxFifo].RDHR) >> CAN_RDH0R_DATA6_Pos);
 8003900:	68fb      	ldr	r3, [r7, #12]
 8003902:	681a      	ldr	r2, [r3, #0]
 8003904:	68bb      	ldr	r3, [r7, #8]
 8003906:	011b      	lsls	r3, r3, #4
 8003908:	4413      	add	r3, r2
 800390a:	f503 73de 	add.w	r3, r3, #444	@ 0x1bc
 800390e:	681b      	ldr	r3, [r3, #0]
 8003910:	0c1a      	lsrs	r2, r3, #16
 8003912:	683b      	ldr	r3, [r7, #0]
 8003914:	3306      	adds	r3, #6
 8003916:	b2d2      	uxtb	r2, r2
 8003918:	701a      	strb	r2, [r3, #0]
    aData[7] = (uint8_t)((CAN_RDH0R_DATA7 & hcan->Instance->sFIFOMailBox[RxFifo].RDHR) >> CAN_RDH0R_DATA7_Pos);
 800391a:	68fb      	ldr	r3, [r7, #12]
 800391c:	681a      	ldr	r2, [r3, #0]
 800391e:	68bb      	ldr	r3, [r7, #8]
 8003920:	011b      	lsls	r3, r3, #4
 8003922:	4413      	add	r3, r2
 8003924:	f503 73de 	add.w	r3, r3, #444	@ 0x1bc
 8003928:	681b      	ldr	r3, [r3, #0]
 800392a:	0e1a      	lsrs	r2, r3, #24
 800392c:	683b      	ldr	r3, [r7, #0]
 800392e:	3307      	adds	r3, #7
 8003930:	b2d2      	uxtb	r2, r2
 8003932:	701a      	strb	r2, [r3, #0]

    /* Release the FIFO */
    if (RxFifo == CAN_RX_FIFO0) /* Rx element is assigned to Rx FIFO 0 */
 8003934:	68bb      	ldr	r3, [r7, #8]
 8003936:	2b00      	cmp	r3, #0
 8003938:	d108      	bne.n	800394c <HAL_CAN_GetRxMessage+0x216>
    {
      /* Release RX FIFO 0 */
      SET_BIT(hcan->Instance->RF0R, CAN_RF0R_RFOM0);
 800393a:	68fb      	ldr	r3, [r7, #12]
 800393c:	681b      	ldr	r3, [r3, #0]
 800393e:	68da      	ldr	r2, [r3, #12]
 8003940:	68fb      	ldr	r3, [r7, #12]
 8003942:	681b      	ldr	r3, [r3, #0]
 8003944:	f042 0220 	orr.w	r2, r2, #32
 8003948:	60da      	str	r2, [r3, #12]
 800394a:	e007      	b.n	800395c <HAL_CAN_GetRxMessage+0x226>
    }
    else /* Rx element is assigned to Rx FIFO 1 */
    {
      /* Release RX FIFO 1 */
      SET_BIT(hcan->Instance->RF1R, CAN_RF1R_RFOM1);
 800394c:	68fb      	ldr	r3, [r7, #12]
 800394e:	681b      	ldr	r3, [r3, #0]
 8003950:	691a      	ldr	r2, [r3, #16]
 8003952:	68fb      	ldr	r3, [r7, #12]
 8003954:	681b      	ldr	r3, [r3, #0]
 8003956:	f042 0220 	orr.w	r2, r2, #32
 800395a:	611a      	str	r2, [r3, #16]
    }

    /* Return function status */
    return HAL_OK;
 800395c:	2300      	movs	r3, #0
 800395e:	e006      	b.n	800396e <HAL_CAN_GetRxMessage+0x238>
  }
  else
  {
    /* Update error code */
    hcan->ErrorCode |= HAL_CAN_ERROR_NOT_INITIALIZED;
 8003960:	68fb      	ldr	r3, [r7, #12]
 8003962:	6a5b      	ldr	r3, [r3, #36]	@ 0x24
 8003964:	f443 2280 	orr.w	r2, r3, #262144	@ 0x40000
 8003968:	68fb      	ldr	r3, [r7, #12]
 800396a:	625a      	str	r2, [r3, #36]	@ 0x24

    return HAL_ERROR;
 800396c:	2301      	movs	r3, #1
  }
}
 800396e:	4618      	mov	r0, r3
 8003970:	371c      	adds	r7, #28
 8003972:	46bd      	mov	sp, r7
 8003974:	f85d 7b04 	ldr.w	r7, [sp], #4
 8003978:	4770      	bx	lr

0800397a <HAL_CAN_ActivateNotification>:
  * @param  ActiveITs indicates which interrupts will be enabled.
  *         This parameter can be any combination of @arg CAN_Interrupts.
  * @retval HAL status
  */
HAL_StatusTypeDef HAL_CAN_ActivateNotification(CAN_HandleTypeDef *hcan, uint32_t ActiveITs)
{
 800397a:	b480      	push	{r7}
 800397c:	b085      	sub	sp, #20
 800397e:	af00      	add	r7, sp, #0
 8003980:	6078      	str	r0, [r7, #4]
 8003982:	6039      	str	r1, [r7, #0]
  HAL_CAN_StateTypeDef state = hcan->State;
 8003984:	687b      	ldr	r3, [r7, #4]
 8003986:	f893 3020 	ldrb.w	r3, [r3, #32]
 800398a:	73fb      	strb	r3, [r7, #15]

  /* Check function parameters */
  assert_param(IS_CAN_IT(ActiveITs));

  if ((state == HAL_CAN_STATE_READY) ||
 800398c:	7bfb      	ldrb	r3, [r7, #15]
 800398e:	2b01      	cmp	r3, #1
 8003990:	d002      	beq.n	8003998 <HAL_CAN_ActivateNotification+0x1e>
 8003992:	7bfb      	ldrb	r3, [r7, #15]
 8003994:	2b02      	cmp	r3, #2
 8003996:	d109      	bne.n	80039ac <HAL_CAN_ActivateNotification+0x32>
      (state == HAL_CAN_STATE_LISTENING))
  {
    /* Enable the selected interrupts */
    __HAL_CAN_ENABLE_IT(hcan, ActiveITs);
 8003998:	687b      	ldr	r3, [r7, #4]
 800399a:	681b      	ldr	r3, [r3, #0]
 800399c:	6959      	ldr	r1, [r3, #20]
 800399e:	687b      	ldr	r3, [r7, #4]
 80039a0:	681b      	ldr	r3, [r3, #0]
 80039a2:	683a      	ldr	r2, [r7, #0]
 80039a4:	430a      	orrs	r2, r1
 80039a6:	615a      	str	r2, [r3, #20]

    /* Return function status */
    return HAL_OK;
 80039a8:	2300      	movs	r3, #0
 80039aa:	e006      	b.n	80039ba <HAL_CAN_ActivateNotification+0x40>
  }
  else
  {
    /* Update error code */
    hcan->ErrorCode |= HAL_CAN_ERROR_NOT_INITIALIZED;
 80039ac:	687b      	ldr	r3, [r7, #4]
 80039ae:	6a5b      	ldr	r3, [r3, #36]	@ 0x24
 80039b0:	f443 2280 	orr.w	r2, r3, #262144	@ 0x40000
 80039b4:	687b      	ldr	r3, [r7, #4]
 80039b6:	625a      	str	r2, [r3, #36]	@ 0x24

    return HAL_ERROR;
 80039b8:	2301      	movs	r3, #1
  }
}
 80039ba:	4618      	mov	r0, r3
 80039bc:	3714      	adds	r7, #20
 80039be:	46bd      	mov	sp, r7
 80039c0:	f85d 7b04 	ldr.w	r7, [sp], #4
 80039c4:	4770      	bx	lr

080039c6 <HAL_CAN_IRQHandler>:
  * @param  hcan pointer to a CAN_HandleTypeDef structure that contains
  *         the configuration information for the specified CAN.
  * @retval None
  */
void HAL_CAN_IRQHandler(CAN_HandleTypeDef *hcan)
{
 80039c6:	b580      	push	{r7, lr}
 80039c8:	b08a      	sub	sp, #40	@ 0x28
 80039ca:	af00      	add	r7, sp, #0
 80039cc:	6078      	str	r0, [r7, #4]
  uint32_t errorcode = HAL_CAN_ERROR_NONE;
 80039ce:	2300      	movs	r3, #0
 80039d0:	627b      	str	r3, [r7, #36]	@ 0x24
  uint32_t interrupts = READ_REG(hcan->Instance->IER);
 80039d2:	687b      	ldr	r3, [r7, #4]
 80039d4:	681b      	ldr	r3, [r3, #0]
 80039d6:	695b      	ldr	r3, [r3, #20]
 80039d8:	623b      	str	r3, [r7, #32]
  uint32_t msrflags = READ_REG(hcan->Instance->MSR);
 80039da:	687b      	ldr	r3, [r7, #4]
 80039dc:	681b      	ldr	r3, [r3, #0]
 80039de:	685b      	ldr	r3, [r3, #4]
 80039e0:	61fb      	str	r3, [r7, #28]
  uint32_t tsrflags = READ_REG(hcan->Instance->TSR);
 80039e2:	687b      	ldr	r3, [r7, #4]
 80039e4:	681b      	ldr	r3, [r3, #0]
 80039e6:	689b      	ldr	r3, [r3, #8]
 80039e8:	61bb      	str	r3, [r7, #24]
  uint32_t rf0rflags = READ_REG(hcan->Instance->RF0R);
 80039ea:	687b      	ldr	r3, [r7, #4]
 80039ec:	681b      	ldr	r3, [r3, #0]
 80039ee:	68db      	ldr	r3, [r3, #12]
 80039f0:	617b      	str	r3, [r7, #20]
  uint32_t rf1rflags = READ_REG(hcan->Instance->RF1R);
 80039f2:	687b      	ldr	r3, [r7, #4]
 80039f4:	681b      	ldr	r3, [r3, #0]
 80039f6:	691b      	ldr	r3, [r3, #16]
 80039f8:	613b      	str	r3, [r7, #16]
  uint32_t esrflags = READ_REG(hcan->Instance->ESR);
 80039fa:	687b      	ldr	r3, [r7, #4]
 80039fc:	681b      	ldr	r3, [r3, #0]
 80039fe:	699b      	ldr	r3, [r3, #24]
 8003a00:	60fb      	str	r3, [r7, #12]

  /* Transmit Mailbox empty interrupt management *****************************/
  if ((interrupts & CAN_IT_TX_MAILBOX_EMPTY) != 0U)
 8003a02:	6a3b      	ldr	r3, [r7, #32]
 8003a04:	f003 0301 	and.w	r3, r3, #1
 8003a08:	2b00      	cmp	r3, #0
 8003a0a:	d07c      	beq.n	8003b06 <HAL_CAN_IRQHandler+0x140>
  {
    /* Transmit Mailbox 0 management *****************************************/
    if ((tsrflags & CAN_TSR_RQCP0) != 0U)
 8003a0c:	69bb      	ldr	r3, [r7, #24]
 8003a0e:	f003 0301 	and.w	r3, r3, #1
 8003a12:	2b00      	cmp	r3, #0
 8003a14:	d023      	beq.n	8003a5e <HAL_CAN_IRQHandler+0x98>
    {
      /* Clear the Transmission Complete flag (and TXOK0,ALST0,TERR0 bits) */
      __HAL_CAN_CLEAR_FLAG(hcan, CAN_FLAG_RQCP0);
 8003a16:	687b      	ldr	r3, [r7, #4]
 8003a18:	681b      	ldr	r3, [r3, #0]
 8003a1a:	2201      	movs	r2, #1
 8003a1c:	609a      	str	r2, [r3, #8]

      if ((tsrflags & CAN_TSR_TXOK0) != 0U)
 8003a1e:	69bb      	ldr	r3, [r7, #24]
 8003a20:	f003 0302 	and.w	r3, r3, #2
 8003a24:	2b00      	cmp	r3, #0
 8003a26:	d003      	beq.n	8003a30 <HAL_CAN_IRQHandler+0x6a>
#if USE_HAL_CAN_REGISTER_CALLBACKS == 1
        /* Call registered callback*/
        hcan->TxMailbox0CompleteCallback(hcan);
#else
        /* Call weak (surcharged) callback */
        HAL_CAN_TxMailbox0CompleteCallback(hcan);
 8003a28:	6878      	ldr	r0, [r7, #4]
 8003a2a:	f000 f983 	bl	8003d34 <HAL_CAN_TxMailbox0CompleteCallback>
 8003a2e:	e016      	b.n	8003a5e <HAL_CAN_IRQHandler+0x98>
#endif /* USE_HAL_CAN_REGISTER_CALLBACKS */
      }
      else
      {
        if ((tsrflags & CAN_TSR_ALST0) != 0U)
 8003a30:	69bb      	ldr	r3, [r7, #24]
 8003a32:	f003 0304 	and.w	r3, r3, #4
 8003a36:	2b00      	cmp	r3, #0
 8003a38:	d004      	beq.n	8003a44 <HAL_CAN_IRQHandler+0x7e>
        {
          /* Update error code */
          errorcode |= HAL_CAN_ERROR_TX_ALST0;
 8003a3a:	6a7b      	ldr	r3, [r7, #36]	@ 0x24
 8003a3c:	f443 6300 	orr.w	r3, r3, #2048	@ 0x800
 8003a40:	627b      	str	r3, [r7, #36]	@ 0x24
 8003a42:	e00c      	b.n	8003a5e <HAL_CAN_IRQHandler+0x98>
        }
        else if ((tsrflags & CAN_TSR_TERR0) != 0U)
 8003a44:	69bb      	ldr	r3, [r7, #24]
 8003a46:	f003 0308 	and.w	r3, r3, #8
 8003a4a:	2b00      	cmp	r3, #0
 8003a4c:	d004      	beq.n	8003a58 <HAL_CAN_IRQHandler+0x92>
        {
          /* Update error code */
          errorcode |= HAL_CAN_ERROR_TX_TERR0;
 8003a4e:	6a7b      	ldr	r3, [r7, #36]	@ 0x24
 8003a50:	f443 5380 	orr.w	r3, r3, #4096	@ 0x1000
 8003a54:	627b      	str	r3, [r7, #36]	@ 0x24
 8003a56:	e002      	b.n	8003a5e <HAL_CAN_IRQHandler+0x98>
#if USE_HAL_CAN_REGISTER_CALLBACKS == 1
          /* Call registered callback*/
          hcan->TxMailbox0AbortCallback(hcan);
#else
          /* Call weak (surcharged) callback */
          HAL_CAN_TxMailbox0AbortCallback(hcan);
 8003a58:	6878      	ldr	r0, [r7, #4]
 8003a5a:	f000 f989 	bl	8003d70 <HAL_CAN_TxMailbox0AbortCallback>
        }
      }
    }

    /* Transmit Mailbox 1 management *****************************************/
    if ((tsrflags & CAN_TSR_RQCP1) != 0U)
 8003a5e:	69bb      	ldr	r3, [r7, #24]
 8003a60:	f403 7380 	and.w	r3, r3, #256	@ 0x100
 8003a64:	2b00      	cmp	r3, #0
 8003a66:	d024      	beq.n	8003ab2 <HAL_CAN_IRQHandler+0xec>
    {
      /* Clear the Transmission Complete flag (and TXOK1,ALST1,TERR1 bits) */
      __HAL_CAN_CLEAR_FLAG(hcan, CAN_FLAG_RQCP1);
 8003a68:	687b      	ldr	r3, [r7, #4]
 8003a6a:	681b      	ldr	r3, [r3, #0]
 8003a6c:	f44f 7280 	mov.w	r2, #256	@ 0x100
 8003a70:	609a      	str	r2, [r3, #8]

      if ((tsrflags & CAN_TSR_TXOK1) != 0U)
 8003a72:	69bb      	ldr	r3, [r7, #24]
 8003a74:	f403 7300 	and.w	r3, r3, #512	@ 0x200
 8003a78:	2b00      	cmp	r3, #0
 8003a7a:	d003      	beq.n	8003a84 <HAL_CAN_IRQHandler+0xbe>
#if USE_HAL_CAN_REGISTER_CALLBACKS == 1
        /* Call registered callback*/
        hcan->TxMailbox1CompleteCallback(hcan);
#else
        /* Call weak (surcharged) callback */
        HAL_CAN_TxMailbox1CompleteCallback(hcan);
 8003a7c:	6878      	ldr	r0, [r7, #4]
 8003a7e:	f000 f963 	bl	8003d48 <HAL_CAN_TxMailbox1CompleteCallback>
 8003a82:	e016      	b.n	8003ab2 <HAL_CAN_IRQHandler+0xec>
#endif /* USE_HAL_CAN_REGISTER_CALLBACKS */
      }
      else
      {
        if ((tsrflags & CAN_TSR_ALST1) != 0U)
 8003a84:	69bb      	ldr	r3, [r7, #24]
 8003a86:	f403 6380 	and.w	r3, r3, #1024	@ 0x400
 8003a8a:	2b00      	cmp	r3, #0
 8003a8c:	d004      	beq.n	8003a98 <HAL_CAN_IRQHandler+0xd2>
        {
          /* Update error code */
          errorcode |= HAL_CAN_ERROR_TX_ALST1;
 8003a8e:	6a7b      	ldr	r3, [r7, #36]	@ 0x24
 8003a90:	f443 5300 	orr.w	r3, r3, #8192	@ 0x2000
 8003a94:	627b      	str	r3, [r7, #36]	@ 0x24
 8003a96:	e00c      	b.n	8003ab2 <HAL_CAN_IRQHandler+0xec>
        }
        else if ((tsrflags & CAN_TSR_TERR1) != 0U)
 8003a98:	69bb      	ldr	r3, [r7, #24]
 8003a9a:	f403 6300 	and.w	r3, r3, #2048	@ 0x800
 8003a9e:	2b00      	cmp	r3, #0
 8003aa0:	d004      	beq.n	8003aac <HAL_CAN_IRQHandler+0xe6>
        {
          /* Update error code */
          errorcode |= HAL_CAN_ERROR_TX_TERR1;
 8003aa2:	6a7b      	ldr	r3, [r7, #36]	@ 0x24
 8003aa4:	f443 4380 	orr.w	r3, r3, #16384	@ 0x4000
 8003aa8:	627b      	str	r3, [r7, #36]	@ 0x24
 8003aaa:	e002      	b.n	8003ab2 <HAL_CAN_IRQHandler+0xec>
#if USE_HAL_CAN_REGISTER_CALLBACKS == 1
          /* Call registered callback*/
          hcan->TxMailbox1AbortCallback(hcan);
#else
          /* Call weak (surcharged) callback */
          HAL_CAN_TxMailbox1AbortCallback(hcan);
 8003aac:	6878      	ldr	r0, [r7, #4]
 8003aae:	f000 f969 	bl	8003d84 <HAL_CAN_TxMailbox1AbortCallback>
        }
      }
    }

    /* Transmit Mailbox 2 management *****************************************/
    if ((tsrflags & CAN_TSR_RQCP2) != 0U)
 8003ab2:	69bb      	ldr	r3, [r7, #24]
 8003ab4:	f403 3380 	and.w	r3, r3, #65536	@ 0x10000
 8003ab8:	2b00      	cmp	r3, #0
 8003aba:	d024      	beq.n	8003b06 <HAL_CAN_IRQHandler+0x140>
    {
      /* Clear the Transmission Complete flag (and TXOK2,ALST2,TERR2 bits) */
      __HAL_CAN_CLEAR_FLAG(hcan, CAN_FLAG_RQCP2);
 8003abc:	687b      	ldr	r3, [r7, #4]
 8003abe:	681b      	ldr	r3, [r3, #0]
 8003ac0:	f44f 3280 	mov.w	r2, #65536	@ 0x10000
 8003ac4:	609a      	str	r2, [r3, #8]

      if ((tsrflags & CAN_TSR_TXOK2) != 0U)
 8003ac6:	69bb      	ldr	r3, [r7, #24]
 8003ac8:	f403 3300 	and.w	r3, r3, #131072	@ 0x20000
 8003acc:	2b00      	cmp	r3, #0
 8003ace:	d003      	beq.n	8003ad8 <HAL_CAN_IRQHandler+0x112>
#if USE_HAL_CAN_REGISTER_CALLBACKS == 1
        /* Call registered callback*/
        hcan->TxMailbox2CompleteCallback(hcan);
#else
        /* Call weak (surcharged) callback */
        HAL_CAN_TxMailbox2CompleteCallback(hcan);
 8003ad0:	6878      	ldr	r0, [r7, #4]
 8003ad2:	f000 f943 	bl	8003d5c <HAL_CAN_TxMailbox2CompleteCallback>
 8003ad6:	e016      	b.n	8003b06 <HAL_CAN_IRQHandler+0x140>
#endif /* USE_HAL_CAN_REGISTER_CALLBACKS */
      }
      else
      {
        if ((tsrflags & CAN_TSR_ALST2) != 0U)
 8003ad8:	69bb      	ldr	r3, [r7, #24]
 8003ada:	f403 2380 	and.w	r3, r3, #262144	@ 0x40000
 8003ade:	2b00      	cmp	r3, #0
 8003ae0:	d004      	beq.n	8003aec <HAL_CAN_IRQHandler+0x126>
        {
          /* Update error code */
          errorcode |= HAL_CAN_ERROR_TX_ALST2;
 8003ae2:	6a7b      	ldr	r3, [r7, #36]	@ 0x24
 8003ae4:	f443 4300 	orr.w	r3, r3, #32768	@ 0x8000
 8003ae8:	627b      	str	r3, [r7, #36]	@ 0x24
 8003aea:	e00c      	b.n	8003b06 <HAL_CAN_IRQHandler+0x140>
        }
        else if ((tsrflags & CAN_TSR_TERR2) != 0U)
 8003aec:	69bb      	ldr	r3, [r7, #24]
 8003aee:	f403 2300 	and.w	r3, r3, #524288	@ 0x80000
 8003af2:	2b00      	cmp	r3, #0
 8003af4:	d004      	beq.n	8003b00 <HAL_CAN_IRQHandler+0x13a>
        {
          /* Update error code */
          errorcode |= HAL_CAN_ERROR_TX_TERR2;
 8003af6:	6a7b      	ldr	r3, [r7, #36]	@ 0x24
 8003af8:	f443 3380 	orr.w	r3, r3, #65536	@ 0x10000
 8003afc:	627b      	str	r3, [r7, #36]	@ 0x24
 8003afe:	e002      	b.n	8003b06 <HAL_CAN_IRQHandler+0x140>
#if USE_HAL_CAN_REGISTER_CALLBACKS == 1
          /* Call registered callback*/
          hcan->TxMailbox2AbortCallback(hcan);
#else
          /* Call weak (surcharged) callback */
          HAL_CAN_TxMailbox2AbortCallback(hcan);
 8003b00:	6878      	ldr	r0, [r7, #4]
 8003b02:	f000 f949 	bl	8003d98 <HAL_CAN_TxMailbox2AbortCallback>
      }
    }
  }

  /* Receive FIFO 0 overrun interrupt management *****************************/
  if ((interrupts & CAN_IT_RX_FIFO0_OVERRUN) != 0U)
 8003b06:	6a3b      	ldr	r3, [r7, #32]
 8003b08:	f003 0308 	and.w	r3, r3, #8
 8003b0c:	2b00      	cmp	r3, #0
 8003b0e:	d00c      	beq.n	8003b2a <HAL_CAN_IRQHandler+0x164>
  {
    if ((rf0rflags & CAN_RF0R_FOVR0) != 0U)
 8003b10:	697b      	ldr	r3, [r7, #20]
 8003b12:	f003 0310 	and.w	r3, r3, #16
 8003b16:	2b00      	cmp	r3, #0
 8003b18:	d007      	beq.n	8003b2a <HAL_CAN_IRQHandler+0x164>
    {
      /* Set CAN error code to Rx Fifo 0 overrun error */
      errorcode |= HAL_CAN_ERROR_RX_FOV0;
 8003b1a:	6a7b      	ldr	r3, [r7, #36]	@ 0x24
 8003b1c:	f443 7300 	orr.w	r3, r3, #512	@ 0x200
 8003b20:	627b      	str	r3, [r7, #36]	@ 0x24

      /* Clear FIFO0 Overrun Flag */
      __HAL_CAN_CLEAR_FLAG(hcan, CAN_FLAG_FOV0);
 8003b22:	687b      	ldr	r3, [r7, #4]
 8003b24:	681b      	ldr	r3, [r3, #0]
 8003b26:	2210      	movs	r2, #16
 8003b28:	60da      	str	r2, [r3, #12]
    }
  }

  /* Receive FIFO 0 full interrupt management ********************************/
  if ((interrupts & CAN_IT_RX_FIFO0_FULL) != 0U)
 8003b2a:	6a3b      	ldr	r3, [r7, #32]
 8003b2c:	f003 0304 	and.w	r3, r3, #4
 8003b30:	2b00      	cmp	r3, #0
 8003b32:	d00b      	beq.n	8003b4c <HAL_CAN_IRQHandler+0x186>
  {
    if ((rf0rflags & CAN_RF0R_FULL0) != 0U)
 8003b34:	697b      	ldr	r3, [r7, #20]
 8003b36:	f003 0308 	and.w	r3, r3, #8
 8003b3a:	2b00      	cmp	r3, #0
 8003b3c:	d006      	beq.n	8003b4c <HAL_CAN_IRQHandler+0x186>
    {
      /* Clear FIFO 0 full Flag */
      __HAL_CAN_CLEAR_FLAG(hcan, CAN_FLAG_FF0);
 8003b3e:	687b      	ldr	r3, [r7, #4]
 8003b40:	681b      	ldr	r3, [r3, #0]
 8003b42:	2208      	movs	r2, #8
 8003b44:	60da      	str	r2, [r3, #12]
#if USE_HAL_CAN_REGISTER_CALLBACKS == 1
      /* Call registered callback*/
      hcan->RxFifo0FullCallback(hcan);
#else
      /* Call weak (surcharged) callback */
      HAL_CAN_RxFifo0FullCallback(hcan);
 8003b46:	6878      	ldr	r0, [r7, #4]
 8003b48:	f000 f930 	bl	8003dac <HAL_CAN_RxFifo0FullCallback>
#endif /* USE_HAL_CAN_REGISTER_CALLBACKS */
    }
  }

  /* Receive FIFO 0 message pending interrupt management *********************/
  if ((interrupts & CAN_IT_RX_FIFO0_MSG_PENDING) != 0U)
 8003b4c:	6a3b      	ldr	r3, [r7, #32]
 8003b4e:	f003 0302 	and.w	r3, r3, #2
 8003b52:	2b00      	cmp	r3, #0
 8003b54:	d009      	beq.n	8003b6a <HAL_CAN_IRQHandler+0x1a4>
  {
    /* Check if message is still pending */
    if ((hcan->Instance->RF0R & CAN_RF0R_FMP0) != 0U)
 8003b56:	687b      	ldr	r3, [r7, #4]
 8003b58:	681b      	ldr	r3, [r3, #0]
 8003b5a:	68db      	ldr	r3, [r3, #12]
 8003b5c:	f003 0303 	and.w	r3, r3, #3
 8003b60:	2b00      	cmp	r3, #0
 8003b62:	d002      	beq.n	8003b6a <HAL_CAN_IRQHandler+0x1a4>
#if USE_HAL_CAN_REGISTER_CALLBACKS == 1
      /* Call registered callback*/
      hcan->RxFifo0MsgPendingCallback(hcan);
#else
      /* Call weak (surcharged) callback */
      HAL_CAN_RxFifo0MsgPendingCallback(hcan);
 8003b64:	6878      	ldr	r0, [r7, #4]
 8003b66:	f7fe f8b9 	bl	8001cdc <HAL_CAN_RxFifo0MsgPendingCallback>
#endif /* USE_HAL_CAN_REGISTER_CALLBACKS */
    }
  }

  /* Receive FIFO 1 overrun interrupt management *****************************/
  if ((interrupts & CAN_IT_RX_FIFO1_OVERRUN) != 0U)
 8003b6a:	6a3b      	ldr	r3, [r7, #32]
 8003b6c:	f003 0340 	and.w	r3, r3, #64	@ 0x40
 8003b70:	2b00      	cmp	r3, #0
 8003b72:	d00c      	beq.n	8003b8e <HAL_CAN_IRQHandler+0x1c8>
  {
    if ((rf1rflags & CAN_RF1R_FOVR1) != 0U)
 8003b74:	693b      	ldr	r3, [r7, #16]
 8003b76:	f003 0310 	and.w	r3, r3, #16
 8003b7a:	2b00      	cmp	r3, #0
 8003b7c:	d007      	beq.n	8003b8e <HAL_CAN_IRQHandler+0x1c8>
    {
      /* Set CAN error code to Rx Fifo 1 overrun error */
      errorcode |= HAL_CAN_ERROR_RX_FOV1;
 8003b7e:	6a7b      	ldr	r3, [r7, #36]	@ 0x24
 8003b80:	f443 6380 	orr.w	r3, r3, #1024	@ 0x400
 8003b84:	627b      	str	r3, [r7, #36]	@ 0x24

      /* Clear FIFO1 Overrun Flag */
      __HAL_CAN_CLEAR_FLAG(hcan, CAN_FLAG_FOV1);
 8003b86:	687b      	ldr	r3, [r7, #4]
 8003b88:	681b      	ldr	r3, [r3, #0]
 8003b8a:	2210      	movs	r2, #16
 8003b8c:	611a      	str	r2, [r3, #16]
    }
  }

  /* Receive FIFO 1 full interrupt management ********************************/
  if ((interrupts & CAN_IT_RX_FIFO1_FULL) != 0U)
 8003b8e:	6a3b      	ldr	r3, [r7, #32]
 8003b90:	f003 0320 	and.w	r3, r3, #32
 8003b94:	2b00      	cmp	r3, #0
 8003b96:	d00b      	beq.n	8003bb0 <HAL_CAN_IRQHandler+0x1ea>
  {
    if ((rf1rflags & CAN_RF1R_FULL1) != 0U)
 8003b98:	693b      	ldr	r3, [r7, #16]
 8003b9a:	f003 0308 	and.w	r3, r3, #8
 8003b9e:	2b00      	cmp	r3, #0
 8003ba0:	d006      	beq.n	8003bb0 <HAL_CAN_IRQHandler+0x1ea>
    {
      /* Clear FIFO 1 full Flag */
      __HAL_CAN_CLEAR_FLAG(hcan, CAN_FLAG_FF1);
 8003ba2:	687b      	ldr	r3, [r7, #4]
 8003ba4:	681b      	ldr	r3, [r3, #0]
 8003ba6:	2208      	movs	r2, #8
 8003ba8:	611a      	str	r2, [r3, #16]
#if USE_HAL_CAN_REGISTER_CALLBACKS == 1
      /* Call registered callback*/
      hcan->RxFifo1FullCallback(hcan);
#else
      /* Call weak (surcharged) callback */
      HAL_CAN_RxFifo1FullCallback(hcan);
 8003baa:	6878      	ldr	r0, [r7, #4]
 8003bac:	f000 f912 	bl	8003dd4 <HAL_CAN_RxFifo1FullCallback>
#endif /* USE_HAL_CAN_REGISTER_CALLBACKS */
    }
  }

  /* Receive FIFO 1 message pending interrupt management *********************/
  if ((interrupts & CAN_IT_RX_FIFO1_MSG_PENDING) != 0U)
 8003bb0:	6a3b      	ldr	r3, [r7, #32]
 8003bb2:	f003 0310 	and.w	r3, r3, #16
 8003bb6:	2b00      	cmp	r3, #0
 8003bb8:	d009      	beq.n	8003bce <HAL_CAN_IRQHandler+0x208>
  {
    /* Check if message is still pending */
    if ((hcan->Instance->RF1R & CAN_RF1R_FMP1) != 0U)
 8003bba:	687b      	ldr	r3, [r7, #4]
 8003bbc:	681b      	ldr	r3, [r3, #0]
 8003bbe:	691b      	ldr	r3, [r3, #16]
 8003bc0:	f003 0303 	and.w	r3, r3, #3
 8003bc4:	2b00      	cmp	r3, #0
 8003bc6:	d002      	beq.n	8003bce <HAL_CAN_IRQHandler+0x208>
#if USE_HAL_CAN_REGISTER_CALLBACKS == 1
      /* Call registered callback*/
      hcan->RxFifo1MsgPendingCallback(hcan);
#else
      /* Call weak (surcharged) callback */
      HAL_CAN_RxFifo1MsgPendingCallback(hcan);
 8003bc8:	6878      	ldr	r0, [r7, #4]
 8003bca:	f000 f8f9 	bl	8003dc0 <HAL_CAN_RxFifo1MsgPendingCallback>
#endif /* USE_HAL_CAN_REGISTER_CALLBACKS */
    }
  }

  /* Sleep interrupt management *********************************************/
  if ((interrupts & CAN_IT_SLEEP_ACK) != 0U)
 8003bce:	6a3b      	ldr	r3, [r7, #32]
 8003bd0:	f403 3300 	and.w	r3, r3, #131072	@ 0x20000
 8003bd4:	2b00      	cmp	r3, #0
 8003bd6:	d00b      	beq.n	8003bf0 <HAL_CAN_IRQHandler+0x22a>
  {
    if ((msrflags & CAN_MSR_SLAKI) != 0U)
 8003bd8:	69fb      	ldr	r3, [r7, #28]
 8003bda:	f003 0310 	and.w	r3, r3, #16
 8003bde:	2b00      	cmp	r3, #0
 8003be0:	d006      	beq.n	8003bf0 <HAL_CAN_IRQHandler+0x22a>
    {
      /* Clear Sleep interrupt Flag */
      __HAL_CAN_CLEAR_FLAG(hcan, CAN_FLAG_SLAKI);
 8003be2:	687b      	ldr	r3, [r7, #4]
 8003be4:	681b      	ldr	r3, [r3, #0]
 8003be6:	2210      	movs	r2, #16
 8003be8:	605a      	str	r2, [r3, #4]
#if USE_HAL_CAN_REGISTER_CALLBACKS == 1
      /* Call registered callback*/
      hcan->SleepCallback(hcan);
#else
      /* Call weak (surcharged) callback */
      HAL_CAN_SleepCallback(hcan);
 8003bea:	6878      	ldr	r0, [r7, #4]
 8003bec:	f000 f8fc 	bl	8003de8 <HAL_CAN_SleepCallback>
#endif /* USE_HAL_CAN_REGISTER_CALLBACKS */
    }
  }

  /* WakeUp interrupt management *********************************************/
  if ((interrupts & CAN_IT_WAKEUP) != 0U)
 8003bf0:	6a3b      	ldr	r3, [r7, #32]
 8003bf2:	f403 3380 	and.w	r3, r3, #65536	@ 0x10000
 8003bf6:	2b00      	cmp	r3, #0
 8003bf8:	d00b      	beq.n	8003c12 <HAL_CAN_IRQHandler+0x24c>
  {
    if ((msrflags & CAN_MSR_WKUI) != 0U)
 8003bfa:	69fb      	ldr	r3, [r7, #28]
 8003bfc:	f003 0308 	and.w	r3, r3, #8
 8003c00:	2b00      	cmp	r3, #0
 8003c02:	d006      	beq.n	8003c12 <HAL_CAN_IRQHandler+0x24c>
    {
      /* Clear WakeUp Flag */
      __HAL_CAN_CLEAR_FLAG(hcan, CAN_FLAG_WKU);
 8003c04:	687b      	ldr	r3, [r7, #4]
 8003c06:	681b      	ldr	r3, [r3, #0]
 8003c08:	2208      	movs	r2, #8
 8003c0a:	605a      	str	r2, [r3, #4]
#if USE_HAL_CAN_REGISTER_CALLBACKS == 1
      /* Call registered callback*/
      hcan->WakeUpFromRxMsgCallback(hcan);
#else
      /* Call weak (surcharged) callback */
      HAL_CAN_WakeUpFromRxMsgCallback(hcan);
 8003c0c:	6878      	ldr	r0, [r7, #4]
 8003c0e:	f000 f8f5 	bl	8003dfc <HAL_CAN_WakeUpFromRxMsgCallback>
#endif /* USE_HAL_CAN_REGISTER_CALLBACKS */
    }
  }

  /* Error interrupts management *********************************************/
  if ((interrupts & CAN_IT_ERROR) != 0U)
 8003c12:	6a3b      	ldr	r3, [r7, #32]
 8003c14:	f403 4300 	and.w	r3, r3, #32768	@ 0x8000
 8003c18:	2b00      	cmp	r3, #0
 8003c1a:	d07b      	beq.n	8003d14 <HAL_CAN_IRQHandler+0x34e>
  {
    if ((msrflags & CAN_MSR_ERRI) != 0U)
 8003c1c:	69fb      	ldr	r3, [r7, #28]
 8003c1e:	f003 0304 	and.w	r3, r3, #4
 8003c22:	2b00      	cmp	r3, #0
 8003c24:	d072      	beq.n	8003d0c <HAL_CAN_IRQHandler+0x346>
    {
      /* Check Error Warning Flag */
      if (((interrupts & CAN_IT_ERROR_WARNING) != 0U) &&
 8003c26:	6a3b      	ldr	r3, [r7, #32]
 8003c28:	f403 7380 	and.w	r3, r3, #256	@ 0x100
 8003c2c:	2b00      	cmp	r3, #0
 8003c2e:	d008      	beq.n	8003c42 <HAL_CAN_IRQHandler+0x27c>
          ((esrflags & CAN_ESR_EWGF) != 0U))
 8003c30:	68fb      	ldr	r3, [r7, #12]
 8003c32:	f003 0301 	and.w	r3, r3, #1
      if (((interrupts & CAN_IT_ERROR_WARNING) != 0U) &&
 8003c36:	2b00      	cmp	r3, #0
 8003c38:	d003      	beq.n	8003c42 <HAL_CAN_IRQHandler+0x27c>
      {
        /* Set CAN error code to Error Warning */
        errorcode |= HAL_CAN_ERROR_EWG;
 8003c3a:	6a7b      	ldr	r3, [r7, #36]	@ 0x24
 8003c3c:	f043 0301 	orr.w	r3, r3, #1
 8003c40:	627b      	str	r3, [r7, #36]	@ 0x24

        /* No need for clear of Error Warning Flag as read-only */
      }

      /* Check Error Passive Flag */
      if (((interrupts & CAN_IT_ERROR_PASSIVE) != 0U) &&
 8003c42:	6a3b      	ldr	r3, [r7, #32]
 8003c44:	f403 7300 	and.w	r3, r3, #512	@ 0x200
 8003c48:	2b00      	cmp	r3, #0
 8003c4a:	d008      	beq.n	8003c5e <HAL_CAN_IRQHandler+0x298>
          ((esrflags & CAN_ESR_EPVF) != 0U))
 8003c4c:	68fb      	ldr	r3, [r7, #12]
 8003c4e:	f003 0302 	and.w	r3, r3, #2
      if (((interrupts & CAN_IT_ERROR_PASSIVE) != 0U) &&
 8003c52:	2b00      	cmp	r3, #0
 8003c54:	d003      	beq.n	8003c5e <HAL_CAN_IRQHandler+0x298>
      {
        /* Set CAN error code to Error Passive */
        errorcode |= HAL_CAN_ERROR_EPV;
 8003c56:	6a7b      	ldr	r3, [r7, #36]	@ 0x24
 8003c58:	f043 0302 	orr.w	r3, r3, #2
 8003c5c:	627b      	str	r3, [r7, #36]	@ 0x24

        /* No need for clear of Error Passive Flag as read-only */
      }

      /* Check Bus-off Flag */
      if (((interrupts & CAN_IT_BUSOFF) != 0U) &&
 8003c5e:	6a3b      	ldr	r3, [r7, #32]
 8003c60:	f403 6380 	and.w	r3, r3, #1024	@ 0x400
 8003c64:	2b00      	cmp	r3, #0
 8003c66:	d008      	beq.n	8003c7a <HAL_CAN_IRQHandler+0x2b4>
          ((esrflags & CAN_ESR_BOFF) != 0U))
 8003c68:	68fb      	ldr	r3, [r7, #12]
 8003c6a:	f003 0304 	and.w	r3, r3, #4
      if (((interrupts & CAN_IT_BUSOFF) != 0U) &&
 8003c6e:	2b00      	cmp	r3, #0
 8003c70:	d003      	beq.n	8003c7a <HAL_CAN_IRQHandler+0x2b4>
      {
        /* Set CAN error code to Bus-Off */
        errorcode |= HAL_CAN_ERROR_BOF;
 8003c72:	6a7b      	ldr	r3, [r7, #36]	@ 0x24
 8003c74:	f043 0304 	orr.w	r3, r3, #4
 8003c78:	627b      	str	r3, [r7, #36]	@ 0x24

        /* No need for clear of Error Bus-Off as read-only */
      }

      /* Check Last Error Code Flag */
      if (((interrupts & CAN_IT_LAST_ERROR_CODE) != 0U) &&
 8003c7a:	6a3b      	ldr	r3, [r7, #32]
 8003c7c:	f403 6300 	and.w	r3, r3, #2048	@ 0x800
 8003c80:	2b00      	cmp	r3, #0
 8003c82:	d043      	beq.n	8003d0c <HAL_CAN_IRQHandler+0x346>
          ((esrflags & CAN_ESR_LEC) != 0U))
 8003c84:	68fb      	ldr	r3, [r7, #12]
 8003c86:	f003 0370 	and.w	r3, r3, #112	@ 0x70
      if (((interrupts & CAN_IT_LAST_ERROR_CODE) != 0U) &&
 8003c8a:	2b00      	cmp	r3, #0
 8003c8c:	d03e      	beq.n	8003d0c <HAL_CAN_IRQHandler+0x346>
      {
        switch (esrflags & CAN_ESR_LEC)
 8003c8e:	68fb      	ldr	r3, [r7, #12]
 8003c90:	f003 0370 	and.w	r3, r3, #112	@ 0x70
 8003c94:	2b60      	cmp	r3, #96	@ 0x60
 8003c96:	d02b      	beq.n	8003cf0 <HAL_CAN_IRQHandler+0x32a>
 8003c98:	2b60      	cmp	r3, #96	@ 0x60
 8003c9a:	d82e      	bhi.n	8003cfa <HAL_CAN_IRQHandler+0x334>
 8003c9c:	2b50      	cmp	r3, #80	@ 0x50
 8003c9e:	d022      	beq.n	8003ce6 <HAL_CAN_IRQHandler+0x320>
 8003ca0:	2b50      	cmp	r3, #80	@ 0x50
 8003ca2:	d82a      	bhi.n	8003cfa <HAL_CAN_IRQHandler+0x334>
 8003ca4:	2b40      	cmp	r3, #64	@ 0x40
 8003ca6:	d019      	beq.n	8003cdc <HAL_CAN_IRQHandler+0x316>
 8003ca8:	2b40      	cmp	r3, #64	@ 0x40
 8003caa:	d826      	bhi.n	8003cfa <HAL_CAN_IRQHandler+0x334>
 8003cac:	2b30      	cmp	r3, #48	@ 0x30
 8003cae:	d010      	beq.n	8003cd2 <HAL_CAN_IRQHandler+0x30c>
 8003cb0:	2b30      	cmp	r3, #48	@ 0x30
 8003cb2:	d822      	bhi.n	8003cfa <HAL_CAN_IRQHandler+0x334>
 8003cb4:	2b10      	cmp	r3, #16
 8003cb6:	d002      	beq.n	8003cbe <HAL_CAN_IRQHandler+0x2f8>
 8003cb8:	2b20      	cmp	r3, #32
 8003cba:	d005      	beq.n	8003cc8 <HAL_CAN_IRQHandler+0x302>
          case (CAN_ESR_LEC_2 | CAN_ESR_LEC_1):
            /* Set CAN error code to CRC error */
            errorcode |= HAL_CAN_ERROR_CRC;
            break;
          default:
            break;
 8003cbc:	e01d      	b.n	8003cfa <HAL_CAN_IRQHandler+0x334>
            errorcode |= HAL_CAN_ERROR_STF;
 8003cbe:	6a7b      	ldr	r3, [r7, #36]	@ 0x24
 8003cc0:	f043 0308 	orr.w	r3, r3, #8
 8003cc4:	627b      	str	r3, [r7, #36]	@ 0x24
            break;
 8003cc6:	e019      	b.n	8003cfc <HAL_CAN_IRQHandler+0x336>
            errorcode |= HAL_CAN_ERROR_FOR;
 8003cc8:	6a7b      	ldr	r3, [r7, #36]	@ 0x24
 8003cca:	f043 0310 	orr.w	r3, r3, #16
 8003cce:	627b      	str	r3, [r7, #36]	@ 0x24
            break;
 8003cd0:	e014      	b.n	8003cfc <HAL_CAN_IRQHandler+0x336>
            errorcode |= HAL_CAN_ERROR_ACK;
 8003cd2:	6a7b      	ldr	r3, [r7, #36]	@ 0x24
 8003cd4:	f043 0320 	orr.w	r3, r3, #32
 8003cd8:	627b      	str	r3, [r7, #36]	@ 0x24
            break;
 8003cda:	e00f      	b.n	8003cfc <HAL_CAN_IRQHandler+0x336>
            errorcode |= HAL_CAN_ERROR_BR;
 8003cdc:	6a7b      	ldr	r3, [r7, #36]	@ 0x24
 8003cde:	f043 0340 	orr.w	r3, r3, #64	@ 0x40
 8003ce2:	627b      	str	r3, [r7, #36]	@ 0x24
            break;
 8003ce4:	e00a      	b.n	8003cfc <HAL_CAN_IRQHandler+0x336>
            errorcode |= HAL_CAN_ERROR_BD;
 8003ce6:	6a7b      	ldr	r3, [r7, #36]	@ 0x24
 8003ce8:	f043 0380 	orr.w	r3, r3, #128	@ 0x80
 8003cec:	627b      	str	r3, [r7, #36]	@ 0x24
            break;
 8003cee:	e005      	b.n	8003cfc <HAL_CAN_IRQHandler+0x336>
            errorcode |= HAL_CAN_ERROR_CRC;
 8003cf0:	6a7b      	ldr	r3, [r7, #36]	@ 0x24
 8003cf2:	f443 7380 	orr.w	r3, r3, #256	@ 0x100
 8003cf6:	627b      	str	r3, [r7, #36]	@ 0x24
            break;
 8003cf8:	e000      	b.n	8003cfc <HAL_CAN_IRQHandler+0x336>
            break;
 8003cfa:	bf00      	nop
        }

        /* Clear Last error code Flag */
        CLEAR_BIT(hcan->Instance->ESR, CAN_ESR_LEC);
 8003cfc:	687b      	ldr	r3, [r7, #4]
 8003cfe:	681b      	ldr	r3, [r3, #0]
 8003d00:	699a      	ldr	r2, [r3, #24]
 8003d02:	687b      	ldr	r3, [r7, #4]
 8003d04:	681b      	ldr	r3, [r3, #0]
 8003d06:	f022 0270 	bic.w	r2, r2, #112	@ 0x70
 8003d0a:	619a      	str	r2, [r3, #24]
      }
    }

    /* Clear ERRI Flag */
    __HAL_CAN_CLEAR_FLAG(hcan, CAN_FLAG_ERRI);
 8003d0c:	687b      	ldr	r3, [r7, #4]
 8003d0e:	681b      	ldr	r3, [r3, #0]
 8003d10:	2204      	movs	r2, #4
 8003d12:	605a      	str	r2, [r3, #4]
  }

  /* Call the Error call Back in case of Errors */
  if (errorcode != HAL_CAN_ERROR_NONE)
 8003d14:	6a7b      	ldr	r3, [r7, #36]	@ 0x24
 8003d16:	2b00      	cmp	r3, #0
 8003d18:	d008      	beq.n	8003d2c <HAL_CAN_IRQHandler+0x366>
  {
    /* Update error code in handle */
    hcan->ErrorCode |= errorcode;
 8003d1a:	687b      	ldr	r3, [r7, #4]
 8003d1c:	6a5a      	ldr	r2, [r3, #36]	@ 0x24
 8003d1e:	6a7b      	ldr	r3, [r7, #36]	@ 0x24
 8003d20:	431a      	orrs	r2, r3
 8003d22:	687b      	ldr	r3, [r7, #4]
 8003d24:	625a      	str	r2, [r3, #36]	@ 0x24
#if USE_HAL_CAN_REGISTER_CALLBACKS == 1
    /* Call registered callback*/
    hcan->ErrorCallback(hcan);
#else
    /* Call weak (surcharged) callback */
    HAL_CAN_ErrorCallback(hcan);
 8003d26:	6878      	ldr	r0, [r7, #4]
 8003d28:	f000 f872 	bl	8003e10 <HAL_CAN_ErrorCallback>
#endif /* USE_HAL_CAN_REGISTER_CALLBACKS */
  }
}
 8003d2c:	bf00      	nop
 8003d2e:	3728      	adds	r7, #40	@ 0x28
 8003d30:	46bd      	mov	sp, r7
 8003d32:	bd80      	pop	{r7, pc}

08003d34 <HAL_CAN_TxMailbox0CompleteCallback>:
  * @param  hcan pointer to a CAN_HandleTypeDef structure that contains
  *         the configuration information for the specified CAN.
  * @retval None
  */
__weak void HAL_CAN_TxMailbox0CompleteCallback(CAN_HandleTypeDef *hcan)
{
 8003d34:	b480      	push	{r7}
 8003d36:	b083      	sub	sp, #12
 8003d38:	af00      	add	r7, sp, #0
 8003d3a:	6078      	str	r0, [r7, #4]

  /* NOTE : This function Should not be modified, when the callback is needed,
            the HAL_CAN_TxMailbox0CompleteCallback could be implemented in the
            user file
   */
}
 8003d3c:	bf00      	nop
 8003d3e:	370c      	adds	r7, #12
 8003d40:	46bd      	mov	sp, r7
 8003d42:	f85d 7b04 	ldr.w	r7, [sp], #4
 8003d46:	4770      	bx	lr

08003d48 <HAL_CAN_TxMailbox1CompleteCallback>:
  * @param  hcan pointer to a CAN_HandleTypeDef structure that contains
  *         the configuration information for the specified CAN.
  * @retval None
  */
__weak void HAL_CAN_TxMailbox1CompleteCallback(CAN_HandleTypeDef *hcan)
{
 8003d48:	b480      	push	{r7}
 8003d4a:	b083      	sub	sp, #12
 8003d4c:	af00      	add	r7, sp, #0
 8003d4e:	6078      	str	r0, [r7, #4]

  /* NOTE : This function Should not be modified, when the callback is needed,
            the HAL_CAN_TxMailbox1CompleteCallback could be implemented in the
            user file
   */
}
 8003d50:	bf00      	nop
 8003d52:	370c      	adds	r7, #12
 8003d54:	46bd      	mov	sp, r7
 8003d56:	f85d 7b04 	ldr.w	r7, [sp], #4
 8003d5a:	4770      	bx	lr

08003d5c <HAL_CAN_TxMailbox2CompleteCallback>:
  * @param  hcan pointer to a CAN_HandleTypeDef structure that contains
  *         the configuration information for the specified CAN.
  * @retval None
  */
__weak void HAL_CAN_TxMailbox2CompleteCallback(CAN_HandleTypeDef *hcan)
{
 8003d5c:	b480      	push	{r7}
 8003d5e:	b083      	sub	sp, #12
 8003d60:	af00      	add	r7, sp, #0
 8003d62:	6078      	str	r0, [r7, #4]

  /* NOTE : This function Should not be modified, when the callback is needed,
            the HAL_CAN_TxMailbox2CompleteCallback could be implemented in the
            user file
   */
}
 8003d64:	bf00      	nop
 8003d66:	370c      	adds	r7, #12
 8003d68:	46bd      	mov	sp, r7
 8003d6a:	f85d 7b04 	ldr.w	r7, [sp], #4
 8003d6e:	4770      	bx	lr

08003d70 <HAL_CAN_TxMailbox0AbortCallback>:
  * @param  hcan pointer to an CAN_HandleTypeDef structure that contains
  *         the configuration information for the specified CAN.
  * @retval None
  */
__weak void HAL_CAN_TxMailbox0AbortCallback(CAN_HandleTypeDef *hcan)
{
 8003d70:	b480      	push	{r7}
 8003d72:	b083      	sub	sp, #12
 8003d74:	af00      	add	r7, sp, #0
 8003d76:	6078      	str	r0, [r7, #4]

  /* NOTE : This function Should not be modified, when the callback is needed,
            the HAL_CAN_TxMailbox0AbortCallback could be implemented in the
            user file
   */
}
 8003d78:	bf00      	nop
 8003d7a:	370c      	adds	r7, #12
 8003d7c:	46bd      	mov	sp, r7
 8003d7e:	f85d 7b04 	ldr.w	r7, [sp], #4
 8003d82:	4770      	bx	lr

08003d84 <HAL_CAN_TxMailbox1AbortCallback>:
  * @param  hcan pointer to an CAN_HandleTypeDef structure that contains
  *         the configuration information for the specified CAN.
  * @retval None
  */
__weak void HAL_CAN_TxMailbox1AbortCallback(CAN_HandleTypeDef *hcan)
{
 8003d84:	b480      	push	{r7}
 8003d86:	b083      	sub	sp, #12
 8003d88:	af00      	add	r7, sp, #0
 8003d8a:	6078      	str	r0, [r7, #4]

  /* NOTE : This function Should not be modified, when the callback is needed,
            the HAL_CAN_TxMailbox1AbortCallback could be implemented in the
            user file
   */
}
 8003d8c:	bf00      	nop
 8003d8e:	370c      	adds	r7, #12
 8003d90:	46bd      	mov	sp, r7
 8003d92:	f85d 7b04 	ldr.w	r7, [sp], #4
 8003d96:	4770      	bx	lr

08003d98 <HAL_CAN_TxMailbox2AbortCallback>:
  * @param  hcan pointer to an CAN_HandleTypeDef structure that contains
  *         the configuration information for the specified CAN.
  * @retval None
  */
__weak void HAL_CAN_TxMailbox2AbortCallback(CAN_HandleTypeDef *hcan)
{
 8003d98:	b480      	push	{r7}
 8003d9a:	b083      	sub	sp, #12
 8003d9c:	af00      	add	r7, sp, #0
 8003d9e:	6078      	str	r0, [r7, #4]

  /* NOTE : This function Should not be modified, when the callback is needed,
            the HAL_CAN_TxMailbox2AbortCallback could be implemented in the
            user file
   */
}
 8003da0:	bf00      	nop
 8003da2:	370c      	adds	r7, #12
 8003da4:	46bd      	mov	sp, r7
 8003da6:	f85d 7b04 	ldr.w	r7, [sp], #4
 8003daa:	4770      	bx	lr

08003dac <HAL_CAN_RxFifo0FullCallback>:
  * @param  hcan pointer to a CAN_HandleTypeDef structure that contains
  *         the configuration information for the specified CAN.
  * @retval None
  */
__weak void HAL_CAN_RxFifo0FullCallback(CAN_HandleTypeDef *hcan)
{
 8003dac:	b480      	push	{r7}
 8003dae:	b083      	sub	sp, #12
 8003db0:	af00      	add	r7, sp, #0
 8003db2:	6078      	str	r0, [r7, #4]

  /* NOTE : This function Should not be modified, when the callback is needed,
            the HAL_CAN_RxFifo0FullCallback could be implemented in the user
            file
   */
}
 8003db4:	bf00      	nop
 8003db6:	370c      	adds	r7, #12
 8003db8:	46bd      	mov	sp, r7
 8003dba:	f85d 7b04 	ldr.w	r7, [sp], #4
 8003dbe:	4770      	bx	lr

08003dc0 <HAL_CAN_RxFifo1MsgPendingCallback>:
  * @param  hcan pointer to a CAN_HandleTypeDef structure that contains
  *         the configuration information for the specified CAN.
  * @retval None
  */
__weak void HAL_CAN_RxFifo1MsgPendingCallback(CAN_HandleTypeDef *hcan)
{
 8003dc0:	b480      	push	{r7}
 8003dc2:	b083      	sub	sp, #12
 8003dc4:	af00      	add	r7, sp, #0
 8003dc6:	6078      	str	r0, [r7, #4]

  /* NOTE : This function Should not be modified, when the callback is needed,
            the HAL_CAN_RxFifo1MsgPendingCallback could be implemented in the
            user file
   */
}
 8003dc8:	bf00      	nop
 8003dca:	370c      	adds	r7, #12
 8003dcc:	46bd      	mov	sp, r7
 8003dce:	f85d 7b04 	ldr.w	r7, [sp], #4
 8003dd2:	4770      	bx	lr

08003dd4 <HAL_CAN_RxFifo1FullCallback>:
  * @param  hcan pointer to a CAN_HandleTypeDef structure that contains
  *         the configuration information for the specified CAN.
  * @retval None
  */
__weak void HAL_CAN_RxFifo1FullCallback(CAN_HandleTypeDef *hcan)
{
 8003dd4:	b480      	push	{r7}
 8003dd6:	b083      	sub	sp, #12
 8003dd8:	af00      	add	r7, sp, #0
 8003dda:	6078      	str	r0, [r7, #4]

  /* NOTE : This function Should not be modified, when the callback is needed,
            the HAL_CAN_RxFifo1FullCallback could be implemented in the user
            file
   */
}
 8003ddc:	bf00      	nop
 8003dde:	370c      	adds	r7, #12
 8003de0:	46bd      	mov	sp, r7
 8003de2:	f85d 7b04 	ldr.w	r7, [sp], #4
 8003de6:	4770      	bx	lr

08003de8 <HAL_CAN_SleepCallback>:
  * @param  hcan pointer to a CAN_HandleTypeDef structure that contains
  *         the configuration information for the specified CAN.
  * @retval None
  */
__weak void HAL_CAN_SleepCallback(CAN_HandleTypeDef *hcan)
{
 8003de8:	b480      	push	{r7}
 8003dea:	b083      	sub	sp, #12
 8003dec:	af00      	add	r7, sp, #0
 8003dee:	6078      	str	r0, [r7, #4]
  UNUSED(hcan);

  /* NOTE : This function Should not be modified, when the callback is needed,
            the HAL_CAN_SleepCallback could be implemented in the user file
   */
}
 8003df0:	bf00      	nop
 8003df2:	370c      	adds	r7, #12
 8003df4:	46bd      	mov	sp, r7
 8003df6:	f85d 7b04 	ldr.w	r7, [sp], #4
 8003dfa:	4770      	bx	lr

08003dfc <HAL_CAN_WakeUpFromRxMsgCallback>:
  * @param  hcan pointer to a CAN_HandleTypeDef structure that contains
  *         the configuration information for the specified CAN.
  * @retval None
  */
__weak void HAL_CAN_WakeUpFromRxMsgCallback(CAN_HandleTypeDef *hcan)
{
 8003dfc:	b480      	push	{r7}
 8003dfe:	b083      	sub	sp, #12
 8003e00:	af00      	add	r7, sp, #0
 8003e02:	6078      	str	r0, [r7, #4]

  /* NOTE : This function Should not be modified, when the callback is needed,
            the HAL_CAN_WakeUpFromRxMsgCallback could be implemented in the
            user file
   */
}
 8003e04:	bf00      	nop
 8003e06:	370c      	adds	r7, #12
 8003e08:	46bd      	mov	sp, r7
 8003e0a:	f85d 7b04 	ldr.w	r7, [sp], #4
 8003e0e:	4770      	bx	lr

08003e10 <HAL_CAN_ErrorCallback>:
  * @param  hcan pointer to a CAN_HandleTypeDef structure that contains
  *         the configuration information for the specified CAN.
  * @retval None
  */
__weak void HAL_CAN_ErrorCallback(CAN_HandleTypeDef *hcan)
{
 8003e10:	b480      	push	{r7}
 8003e12:	b083      	sub	sp, #12
 8003e14:	af00      	add	r7, sp, #0
 8003e16:	6078      	str	r0, [r7, #4]
  UNUSED(hcan);

  /* NOTE : This function Should not be modified, when the callback is needed,
            the HAL_CAN_ErrorCallback could be implemented in the user file
   */
}
 8003e18:	bf00      	nop
 8003e1a:	370c      	adds	r7, #12
 8003e1c:	46bd      	mov	sp, r7
 8003e1e:	f85d 7b04 	ldr.w	r7, [sp], #4
 8003e22:	4770      	bx	lr

08003e24 <__NVIC_SetPriorityGrouping>:
           In case of a conflict between priority grouping and available
           priority bits (__NVIC_PRIO_BITS), the smallest possible priority group is set.
  \param [in]      PriorityGroup  Priority grouping field.
 */
__STATIC_INLINE void __NVIC_SetPriorityGrouping(uint32_t PriorityGroup)
{
 8003e24:	b480      	push	{r7}
 8003e26:	b085      	sub	sp, #20
 8003e28:	af00      	add	r7, sp, #0
 8003e2a:	6078      	str	r0, [r7, #4]
  uint32_t reg_value;
  uint32_t PriorityGroupTmp = (PriorityGroup & (uint32_t)0x07UL);             /* only values 0..7 are used          */
 8003e2c:	687b      	ldr	r3, [r7, #4]
 8003e2e:	f003 0307 	and.w	r3, r3, #7
 8003e32:	60fb      	str	r3, [r7, #12]

  reg_value  =  SCB->AIRCR;                                                   /* read old register configuration    */
 8003e34:	4b0c      	ldr	r3, [pc, #48]	@ (8003e68 <__NVIC_SetPriorityGrouping+0x44>)
 8003e36:	68db      	ldr	r3, [r3, #12]
 8003e38:	60bb      	str	r3, [r7, #8]
  reg_value &= ~((uint32_t)(SCB_AIRCR_VECTKEY_Msk | SCB_AIRCR_PRIGROUP_Msk)); /* clear bits to change               */
 8003e3a:	68ba      	ldr	r2, [r7, #8]
 8003e3c:	f64f 03ff 	movw	r3, #63743	@ 0xf8ff
 8003e40:	4013      	ands	r3, r2
 8003e42:	60bb      	str	r3, [r7, #8]
  reg_value  =  (reg_value                                   |
                ((uint32_t)0x5FAUL << SCB_AIRCR_VECTKEY_Pos) |
                (PriorityGroupTmp << SCB_AIRCR_PRIGROUP_Pos)  );              /* Insert write key and priority group */
 8003e44:	68fb      	ldr	r3, [r7, #12]
 8003e46:	021a      	lsls	r2, r3, #8
                ((uint32_t)0x5FAUL << SCB_AIRCR_VECTKEY_Pos) |
 8003e48:	68bb      	ldr	r3, [r7, #8]
 8003e4a:	4313      	orrs	r3, r2
  reg_value  =  (reg_value                                   |
 8003e4c:	f043 63bf 	orr.w	r3, r3, #100139008	@ 0x5f80000
 8003e50:	f443 3300 	orr.w	r3, r3, #131072	@ 0x20000
 8003e54:	60bb      	str	r3, [r7, #8]
  SCB->AIRCR =  reg_value;
 8003e56:	4a04      	ldr	r2, [pc, #16]	@ (8003e68 <__NVIC_SetPriorityGrouping+0x44>)
 8003e58:	68bb      	ldr	r3, [r7, #8]
 8003e5a:	60d3      	str	r3, [r2, #12]
}
 8003e5c:	bf00      	nop
 8003e5e:	3714      	adds	r7, #20
 8003e60:	46bd      	mov	sp, r7
 8003e62:	f85d 7b04 	ldr.w	r7, [sp], #4
 8003e66:	4770      	bx	lr
 8003e68:	e000ed00 	.word	0xe000ed00

08003e6c <__NVIC_GetPriorityGrouping>:
  \brief   Get Priority Grouping
  \details Reads the priority grouping field from the NVIC Interrupt Controller.
  \return                Priority grouping field (SCB->AIRCR [10:8] PRIGROUP field).
 */
__STATIC_INLINE uint32_t __NVIC_GetPriorityGrouping(void)
{
 8003e6c:	b480      	push	{r7}
 8003e6e:	af00      	add	r7, sp, #0
  return ((uint32_t)((SCB->AIRCR & SCB_AIRCR_PRIGROUP_Msk) >> SCB_AIRCR_PRIGROUP_Pos));
 8003e70:	4b04      	ldr	r3, [pc, #16]	@ (8003e84 <__NVIC_GetPriorityGrouping+0x18>)
 8003e72:	68db      	ldr	r3, [r3, #12]
 8003e74:	0a1b      	lsrs	r3, r3, #8
 8003e76:	f003 0307 	and.w	r3, r3, #7
}
 8003e7a:	4618      	mov	r0, r3
 8003e7c:	46bd      	mov	sp, r7
 8003e7e:	f85d 7b04 	ldr.w	r7, [sp], #4
 8003e82:	4770      	bx	lr
 8003e84:	e000ed00 	.word	0xe000ed00

08003e88 <__NVIC_EnableIRQ>:
  \details Enables a device specific interrupt in the NVIC interrupt controller.
  \param [in]      IRQn  Device specific interrupt number.
  \note    IRQn must not be negative.
 */
__STATIC_INLINE void __NVIC_EnableIRQ(IRQn_Type IRQn)
{
 8003e88:	b480      	push	{r7}
 8003e8a:	b083      	sub	sp, #12
 8003e8c:	af00      	add	r7, sp, #0
 8003e8e:	4603      	mov	r3, r0
 8003e90:	71fb      	strb	r3, [r7, #7]
  if ((int32_t)(IRQn) >= 0)
 8003e92:	f997 3007 	ldrsb.w	r3, [r7, #7]
 8003e96:	2b00      	cmp	r3, #0
 8003e98:	db0b      	blt.n	8003eb2 <__NVIC_EnableIRQ+0x2a>
  {
    __COMPILER_BARRIER();
    NVIC->ISER[(((uint32_t)IRQn) >> 5UL)] = (uint32_t)(1UL << (((uint32_t)IRQn) & 0x1FUL));
 8003e9a:	79fb      	ldrb	r3, [r7, #7]
 8003e9c:	f003 021f 	and.w	r2, r3, #31
 8003ea0:	4907      	ldr	r1, [pc, #28]	@ (8003ec0 <__NVIC_EnableIRQ+0x38>)
 8003ea2:	f997 3007 	ldrsb.w	r3, [r7, #7]
 8003ea6:	095b      	lsrs	r3, r3, #5
 8003ea8:	2001      	movs	r0, #1
 8003eaa:	fa00 f202 	lsl.w	r2, r0, r2
 8003eae:	f841 2023 	str.w	r2, [r1, r3, lsl #2]
    __COMPILER_BARRIER();
  }
}
 8003eb2:	bf00      	nop
 8003eb4:	370c      	adds	r7, #12
 8003eb6:	46bd      	mov	sp, r7
 8003eb8:	f85d 7b04 	ldr.w	r7, [sp], #4
 8003ebc:	4770      	bx	lr
 8003ebe:	bf00      	nop
 8003ec0:	e000e100 	.word	0xe000e100

08003ec4 <__NVIC_SetPriority>:
  \param [in]      IRQn  Interrupt number.
  \param [in]  priority  Priority to set.
  \note    The priority cannot be set for every processor exception.
 */
__STATIC_INLINE void __NVIC_SetPriority(IRQn_Type IRQn, uint32_t priority)
{
 8003ec4:	b480      	push	{r7}
 8003ec6:	b083      	sub	sp, #12
 8003ec8:	af00      	add	r7, sp, #0
 8003eca:	4603      	mov	r3, r0
 8003ecc:	6039      	str	r1, [r7, #0]
 8003ece:	71fb      	strb	r3, [r7, #7]
  if ((int32_t)(IRQn) >= 0)
 8003ed0:	f997 3007 	ldrsb.w	r3, [r7, #7]
 8003ed4:	2b00      	cmp	r3, #0
 8003ed6:	db0a      	blt.n	8003eee <__NVIC_SetPriority+0x2a>
  {
    NVIC->IP[((uint32_t)IRQn)]               = (uint8_t)((priority << (8U - __NVIC_PRIO_BITS)) & (uint32_t)0xFFUL);
 8003ed8:	683b      	ldr	r3, [r7, #0]
 8003eda:	b2da      	uxtb	r2, r3
 8003edc:	490c      	ldr	r1, [pc, #48]	@ (8003f10 <__NVIC_SetPriority+0x4c>)
 8003ede:	f997 3007 	ldrsb.w	r3, [r7, #7]
 8003ee2:	0112      	lsls	r2, r2, #4
 8003ee4:	b2d2      	uxtb	r2, r2
 8003ee6:	440b      	add	r3, r1
 8003ee8:	f883 2300 	strb.w	r2, [r3, #768]	@ 0x300
  }
  else
  {
    SCB->SHP[(((uint32_t)IRQn) & 0xFUL)-4UL] = (uint8_t)((priority << (8U - __NVIC_PRIO_BITS)) & (uint32_t)0xFFUL);
  }
}
 8003eec:	e00a      	b.n	8003f04 <__NVIC_SetPriority+0x40>
    SCB->SHP[(((uint32_t)IRQn) & 0xFUL)-4UL] = (uint8_t)((priority << (8U - __NVIC_PRIO_BITS)) & (uint32_t)0xFFUL);
 8003eee:	683b      	ldr	r3, [r7, #0]
 8003ef0:	b2da      	uxtb	r2, r3
 8003ef2:	4908      	ldr	r1, [pc, #32]	@ (8003f14 <__NVIC_SetPriority+0x50>)
 8003ef4:	79fb      	ldrb	r3, [r7, #7]
 8003ef6:	f003 030f 	and.w	r3, r3, #15
 8003efa:	3b04      	subs	r3, #4
 8003efc:	0112      	lsls	r2, r2, #4
 8003efe:	b2d2      	uxtb	r2, r2
 8003f00:	440b      	add	r3, r1
 8003f02:	761a      	strb	r2, [r3, #24]
}
 8003f04:	bf00      	nop
 8003f06:	370c      	adds	r7, #12
 8003f08:	46bd      	mov	sp, r7
 8003f0a:	f85d 7b04 	ldr.w	r7, [sp], #4
 8003f0e:	4770      	bx	lr
 8003f10:	e000e100 	.word	0xe000e100
 8003f14:	e000ed00 	.word	0xe000ed00

08003f18 <NVIC_EncodePriority>:
  \param [in]   PreemptPriority  Preemptive priority value (starting from 0).
  \param [in]       SubPriority  Subpriority value (starting from 0).
  \return                        Encoded priority. Value can be used in the function \ref NVIC_SetPriority().
 */
__STATIC_INLINE uint32_t NVIC_EncodePriority (uint32_t PriorityGroup, uint32_t PreemptPriority, uint32_t SubPriority)
{
 8003f18:	b480      	push	{r7}
 8003f1a:	b089      	sub	sp, #36	@ 0x24
 8003f1c:	af00      	add	r7, sp, #0
 8003f1e:	60f8      	str	r0, [r7, #12]
 8003f20:	60b9      	str	r1, [r7, #8]
 8003f22:	607a      	str	r2, [r7, #4]
  uint32_t PriorityGroupTmp = (PriorityGroup & (uint32_t)0x07UL);   /* only values 0..7 are used          */
 8003f24:	68fb      	ldr	r3, [r7, #12]
 8003f26:	f003 0307 	and.w	r3, r3, #7
 8003f2a:	61fb      	str	r3, [r7, #28]
  uint32_t PreemptPriorityBits;
  uint32_t SubPriorityBits;

  PreemptPriorityBits = ((7UL - PriorityGroupTmp) > (uint32_t)(__NVIC_PRIO_BITS)) ? (uint32_t)(__NVIC_PRIO_BITS) : (uint32_t)(7UL - PriorityGroupTmp);
 8003f2c:	69fb      	ldr	r3, [r7, #28]
 8003f2e:	f1c3 0307 	rsb	r3, r3, #7
 8003f32:	2b04      	cmp	r3, #4
 8003f34:	bf28      	it	cs
 8003f36:	2304      	movcs	r3, #4
 8003f38:	61bb      	str	r3, [r7, #24]
  SubPriorityBits     = ((PriorityGroupTmp + (uint32_t)(__NVIC_PRIO_BITS)) < (uint32_t)7UL) ? (uint32_t)0UL : (uint32_t)((PriorityGroupTmp - 7UL) + (uint32_t)(__NVIC_PRIO_BITS));
 8003f3a:	69fb      	ldr	r3, [r7, #28]
 8003f3c:	3304      	adds	r3, #4
 8003f3e:	2b06      	cmp	r3, #6
 8003f40:	d902      	bls.n	8003f48 <NVIC_EncodePriority+0x30>
 8003f42:	69fb      	ldr	r3, [r7, #28]
 8003f44:	3b03      	subs	r3, #3
 8003f46:	e000      	b.n	8003f4a <NVIC_EncodePriority+0x32>
 8003f48:	2300      	movs	r3, #0
 8003f4a:	617b      	str	r3, [r7, #20]

  return (
           ((PreemptPriority & (uint32_t)((1UL << (PreemptPriorityBits)) - 1UL)) << SubPriorityBits) |
 8003f4c:	f04f 32ff 	mov.w	r2, #4294967295	@ 0xffffffff
 8003f50:	69bb      	ldr	r3, [r7, #24]
 8003f52:	fa02 f303 	lsl.w	r3, r2, r3
 8003f56:	43da      	mvns	r2, r3
 8003f58:	68bb      	ldr	r3, [r7, #8]
 8003f5a:	401a      	ands	r2, r3
 8003f5c:	697b      	ldr	r3, [r7, #20]
 8003f5e:	409a      	lsls	r2, r3
           ((SubPriority     & (uint32_t)((1UL << (SubPriorityBits    )) - 1UL)))
 8003f60:	f04f 31ff 	mov.w	r1, #4294967295	@ 0xffffffff
 8003f64:	697b      	ldr	r3, [r7, #20]
 8003f66:	fa01 f303 	lsl.w	r3, r1, r3
 8003f6a:	43d9      	mvns	r1, r3
 8003f6c:	687b      	ldr	r3, [r7, #4]
 8003f6e:	400b      	ands	r3, r1
           ((PreemptPriority & (uint32_t)((1UL << (PreemptPriorityBits)) - 1UL)) << SubPriorityBits) |
 8003f70:	4313      	orrs	r3, r2
         );
}
 8003f72:	4618      	mov	r0, r3
 8003f74:	3724      	adds	r7, #36	@ 0x24
 8003f76:	46bd      	mov	sp, r7
 8003f78:	f85d 7b04 	ldr.w	r7, [sp], #4
 8003f7c:	4770      	bx	lr
	...

08003f80 <SysTick_Config>:
  \note    When the variable <b>__Vendor_SysTickConfig</b> is set to 1, then the
           function <b>SysTick_Config</b> is not included. In this case, the file <b><i>device</i>.h</b>
           must contain a vendor-specific implementation of this function.
 */
__STATIC_INLINE uint32_t SysTick_Config(uint32_t ticks)
{
 8003f80:	b580      	push	{r7, lr}
 8003f82:	b082      	sub	sp, #8
 8003f84:	af00      	add	r7, sp, #0
 8003f86:	6078      	str	r0, [r7, #4]
  if ((ticks - 1UL) > SysTick_LOAD_RELOAD_Msk)
 8003f88:	687b      	ldr	r3, [r7, #4]
 8003f8a:	3b01      	subs	r3, #1
 8003f8c:	f1b3 7f80 	cmp.w	r3, #16777216	@ 0x1000000
 8003f90:	d301      	bcc.n	8003f96 <SysTick_Config+0x16>
  {
    return (1UL);                                                   /* Reload value impossible */
 8003f92:	2301      	movs	r3, #1
 8003f94:	e00f      	b.n	8003fb6 <SysTick_Config+0x36>
  }

  SysTick->LOAD  = (uint32_t)(ticks - 1UL);                         /* set reload register */
 8003f96:	4a0a      	ldr	r2, [pc, #40]	@ (8003fc0 <SysTick_Config+0x40>)
 8003f98:	687b      	ldr	r3, [r7, #4]
 8003f9a:	3b01      	subs	r3, #1
 8003f9c:	6053      	str	r3, [r2, #4]
  NVIC_SetPriority (SysTick_IRQn, (1UL << __NVIC_PRIO_BITS) - 1UL); /* set Priority for Systick Interrupt */
 8003f9e:	210f      	movs	r1, #15
 8003fa0:	f04f 30ff 	mov.w	r0, #4294967295	@ 0xffffffff
 8003fa4:	f7ff ff8e 	bl	8003ec4 <__NVIC_SetPriority>
  SysTick->VAL   = 0UL;                                             /* Load the SysTick Counter Value */
 8003fa8:	4b05      	ldr	r3, [pc, #20]	@ (8003fc0 <SysTick_Config+0x40>)
 8003faa:	2200      	movs	r2, #0
 8003fac:	609a      	str	r2, [r3, #8]
  SysTick->CTRL  = SysTick_CTRL_CLKSOURCE_Msk |
 8003fae:	4b04      	ldr	r3, [pc, #16]	@ (8003fc0 <SysTick_Config+0x40>)
 8003fb0:	2207      	movs	r2, #7
 8003fb2:	601a      	str	r2, [r3, #0]
                   SysTick_CTRL_TICKINT_Msk   |
                   SysTick_CTRL_ENABLE_Msk;                         /* Enable SysTick IRQ and SysTick Timer */
  return (0UL);                                                     /* Function successful */
 8003fb4:	2300      	movs	r3, #0
}
 8003fb6:	4618      	mov	r0, r3
 8003fb8:	3708      	adds	r7, #8
 8003fba:	46bd      	mov	sp, r7
 8003fbc:	bd80      	pop	{r7, pc}
 8003fbe:	bf00      	nop
 8003fc0:	e000e010 	.word	0xe000e010

08003fc4 <HAL_NVIC_SetPriorityGrouping>:
  * @note   When the NVIC_PriorityGroup_0 is selected, IRQ preemption is no more possible. 
  *         The pending IRQ priority will be managed only by the subpriority. 
  * @retval None
  */
void HAL_NVIC_SetPriorityGrouping(uint32_t PriorityGroup)
{
 8003fc4:	b580      	push	{r7, lr}
 8003fc6:	b082      	sub	sp, #8
 8003fc8:	af00      	add	r7, sp, #0
 8003fca:	6078      	str	r0, [r7, #4]
  /* Check the parameters */
  assert_param(IS_NVIC_PRIORITY_GROUP(PriorityGroup));
  
  /* Set the PRIGROUP[10:8] bits according to the PriorityGroup parameter value */
  NVIC_SetPriorityGrouping(PriorityGroup);
 8003fcc:	6878      	ldr	r0, [r7, #4]
 8003fce:	f7ff ff29 	bl	8003e24 <__NVIC_SetPriorityGrouping>
}
 8003fd2:	bf00      	nop
 8003fd4:	3708      	adds	r7, #8
 8003fd6:	46bd      	mov	sp, r7
 8003fd8:	bd80      	pop	{r7, pc}

08003fda <HAL_NVIC_SetPriority>:
  *         This parameter can be a value between 0 and 15
  *         A lower priority value indicates a higher priority.          
  * @retval None
  */
void HAL_NVIC_SetPriority(IRQn_Type IRQn, uint32_t PreemptPriority, uint32_t SubPriority)
{ 
 8003fda:	b580      	push	{r7, lr}
 8003fdc:	b086      	sub	sp, #24
 8003fde:	af00      	add	r7, sp, #0
 8003fe0:	4603      	mov	r3, r0
 8003fe2:	60b9      	str	r1, [r7, #8]
 8003fe4:	607a      	str	r2, [r7, #4]
 8003fe6:	73fb      	strb	r3, [r7, #15]
  uint32_t prioritygroup = 0x00U;
 8003fe8:	2300      	movs	r3, #0
 8003fea:	617b      	str	r3, [r7, #20]
  
  /* Check the parameters */
  assert_param(IS_NVIC_SUB_PRIORITY(SubPriority));
  assert_param(IS_NVIC_PREEMPTION_PRIORITY(PreemptPriority));
  
  prioritygroup = NVIC_GetPriorityGrouping();
 8003fec:	f7ff ff3e 	bl	8003e6c <__NVIC_GetPriorityGrouping>
 8003ff0:	6178      	str	r0, [r7, #20]
  
  NVIC_SetPriority(IRQn, NVIC_EncodePriority(prioritygroup, PreemptPriority, SubPriority));
 8003ff2:	687a      	ldr	r2, [r7, #4]
 8003ff4:	68b9      	ldr	r1, [r7, #8]
 8003ff6:	6978      	ldr	r0, [r7, #20]
 8003ff8:	f7ff ff8e 	bl	8003f18 <NVIC_EncodePriority>
 8003ffc:	4602      	mov	r2, r0
 8003ffe:	f997 300f 	ldrsb.w	r3, [r7, #15]
 8004002:	4611      	mov	r1, r2
 8004004:	4618      	mov	r0, r3
 8004006:	f7ff ff5d 	bl	8003ec4 <__NVIC_SetPriority>
}
 800400a:	bf00      	nop
 800400c:	3718      	adds	r7, #24
 800400e:	46bd      	mov	sp, r7
 8004010:	bd80      	pop	{r7, pc}

08004012 <HAL_NVIC_EnableIRQ>:
  *         This parameter can be an enumerator of IRQn_Type enumeration
  *         (For the complete STM32 Devices IRQ Channels list, please refer to the appropriate CMSIS device file (stm32f4xxxx.h))
  * @retval None
  */
void HAL_NVIC_EnableIRQ(IRQn_Type IRQn)
{
 8004012:	b580      	push	{r7, lr}
 8004014:	b082      	sub	sp, #8
 8004016:	af00      	add	r7, sp, #0
 8004018:	4603      	mov	r3, r0
 800401a:	71fb      	strb	r3, [r7, #7]
  /* Check the parameters */
  assert_param(IS_NVIC_DEVICE_IRQ(IRQn));
  
  /* Enable interrupt */
  NVIC_EnableIRQ(IRQn);
 800401c:	f997 3007 	ldrsb.w	r3, [r7, #7]
 8004020:	4618      	mov	r0, r3
 8004022:	f7ff ff31 	bl	8003e88 <__NVIC_EnableIRQ>
}
 8004026:	bf00      	nop
 8004028:	3708      	adds	r7, #8
 800402a:	46bd      	mov	sp, r7
 800402c:	bd80      	pop	{r7, pc}

0800402e <HAL_SYSTICK_Config>:
  * @param  TicksNumb Specifies the ticks Number of ticks between two interrupts.
  * @retval status:  - 0  Function succeeded.
  *                  - 1  Function failed.
  */
uint32_t HAL_SYSTICK_Config(uint32_t TicksNumb)
{
 800402e:	b580      	push	{r7, lr}
 8004030:	b082      	sub	sp, #8
 8004032:	af00      	add	r7, sp, #0
 8004034:	6078      	str	r0, [r7, #4]
   return SysTick_Config(TicksNumb);
 8004036:	6878      	ldr	r0, [r7, #4]
 8004038:	f7ff ffa2 	bl	8003f80 <SysTick_Config>
 800403c:	4603      	mov	r3, r0
}
 800403e:	4618      	mov	r0, r3
 8004040:	3708      	adds	r7, #8
 8004042:	46bd      	mov	sp, r7
 8004044:	bd80      	pop	{r7, pc}
	...

08004048 <HAL_GPIO_Init>:
  * @param  GPIO_Init pointer to a GPIO_InitTypeDef structure that contains
  *         the configuration information for the specified GPIO peripheral.
  * @retval None
  */
void HAL_GPIO_Init(GPIO_TypeDef  *GPIOx, GPIO_InitTypeDef *GPIO_Init)
{
 8004048:	b480      	push	{r7}
 800404a:	b089      	sub	sp, #36	@ 0x24
 800404c:	af00      	add	r7, sp, #0
 800404e:	6078      	str	r0, [r7, #4]
 8004050:	6039      	str	r1, [r7, #0]
  uint32_t position;
  uint32_t ioposition = 0x00U;
 8004052:	2300      	movs	r3, #0
 8004054:	617b      	str	r3, [r7, #20]
  uint32_t iocurrent = 0x00U;
 8004056:	2300      	movs	r3, #0
 8004058:	613b      	str	r3, [r7, #16]
  uint32_t temp = 0x00U;
 800405a:	2300      	movs	r3, #0
 800405c:	61bb      	str	r3, [r7, #24]
  assert_param(IS_GPIO_ALL_INSTANCE(GPIOx));
  assert_param(IS_GPIO_PIN(GPIO_Init->Pin));
  assert_param(IS_GPIO_MODE(GPIO_Init->Mode));

  /* Configure the port pins */
  for(position = 0U; position < GPIO_NUMBER; position++)
 800405e:	2300      	movs	r3, #0
 8004060:	61fb      	str	r3, [r7, #28]
 8004062:	e165      	b.n	8004330 <HAL_GPIO_Init+0x2e8>
  {
    /* Get the IO position */
    ioposition = 0x01U << position;
 8004064:	2201      	movs	r2, #1
 8004066:	69fb      	ldr	r3, [r7, #28]
 8004068:	fa02 f303 	lsl.w	r3, r2, r3
 800406c:	617b      	str	r3, [r7, #20]
    /* Get the current IO position */
    iocurrent = (uint32_t)(GPIO_Init->Pin) & ioposition;
 800406e:	683b      	ldr	r3, [r7, #0]
 8004070:	681b      	ldr	r3, [r3, #0]
 8004072:	697a      	ldr	r2, [r7, #20]
 8004074:	4013      	ands	r3, r2
 8004076:	613b      	str	r3, [r7, #16]

    if(iocurrent == ioposition)
 8004078:	693a      	ldr	r2, [r7, #16]
 800407a:	697b      	ldr	r3, [r7, #20]
 800407c:	429a      	cmp	r2, r3
 800407e:	f040 8154 	bne.w	800432a <HAL_GPIO_Init+0x2e2>
    {
      /*--------------------- GPIO Mode Configuration ------------------------*/
      /* In case of Output or Alternate function mode selection */
      if(((GPIO_Init->Mode & GPIO_MODE) == MODE_OUTPUT) || \
 8004082:	683b      	ldr	r3, [r7, #0]
 8004084:	685b      	ldr	r3, [r3, #4]
 8004086:	f003 0303 	and.w	r3, r3, #3
 800408a:	2b01      	cmp	r3, #1
 800408c:	d005      	beq.n	800409a <HAL_GPIO_Init+0x52>
          (GPIO_Init->Mode & GPIO_MODE) == MODE_AF)
 800408e:	683b      	ldr	r3, [r7, #0]
 8004090:	685b      	ldr	r3, [r3, #4]
 8004092:	f003 0303 	and.w	r3, r3, #3
      if(((GPIO_Init->Mode & GPIO_MODE) == MODE_OUTPUT) || \
 8004096:	2b02      	cmp	r3, #2
 8004098:	d130      	bne.n	80040fc <HAL_GPIO_Init+0xb4>
      {
        /* Check the Speed parameter */
        assert_param(IS_GPIO_SPEED(GPIO_Init->Speed));
        /* Configure the IO Speed */
        temp = GPIOx->OSPEEDR; 
 800409a:	687b      	ldr	r3, [r7, #4]
 800409c:	689b      	ldr	r3, [r3, #8]
 800409e:	61bb      	str	r3, [r7, #24]
        temp &= ~(GPIO_OSPEEDER_OSPEEDR0 << (position * 2U));
 80040a0:	69fb      	ldr	r3, [r7, #28]
 80040a2:	005b      	lsls	r3, r3, #1
 80040a4:	2203      	movs	r2, #3
 80040a6:	fa02 f303 	lsl.w	r3, r2, r3
 80040aa:	43db      	mvns	r3, r3
 80040ac:	69ba      	ldr	r2, [r7, #24]
 80040ae:	4013      	ands	r3, r2
 80040b0:	61bb      	str	r3, [r7, #24]
        temp |= (GPIO_Init->Speed << (position * 2U));
 80040b2:	683b      	ldr	r3, [r7, #0]
 80040b4:	68da      	ldr	r2, [r3, #12]
 80040b6:	69fb      	ldr	r3, [r7, #28]
 80040b8:	005b      	lsls	r3, r3, #1
 80040ba:	fa02 f303 	lsl.w	r3, r2, r3
 80040be:	69ba      	ldr	r2, [r7, #24]
 80040c0:	4313      	orrs	r3, r2
 80040c2:	61bb      	str	r3, [r7, #24]
        GPIOx->OSPEEDR = temp;
 80040c4:	687b      	ldr	r3, [r7, #4]
 80040c6:	69ba      	ldr	r2, [r7, #24]
 80040c8:	609a      	str	r2, [r3, #8]

        /* Configure the IO Output Type */
        temp = GPIOx->OTYPER;
 80040ca:	687b      	ldr	r3, [r7, #4]
 80040cc:	685b      	ldr	r3, [r3, #4]
 80040ce:	61bb      	str	r3, [r7, #24]
        temp &= ~(GPIO_OTYPER_OT_0 << position) ;
 80040d0:	2201      	movs	r2, #1
 80040d2:	69fb      	ldr	r3, [r7, #28]
 80040d4:	fa02 f303 	lsl.w	r3, r2, r3
 80040d8:	43db      	mvns	r3, r3
 80040da:	69ba      	ldr	r2, [r7, #24]
 80040dc:	4013      	ands	r3, r2
 80040de:	61bb      	str	r3, [r7, #24]
        temp |= (((GPIO_Init->Mode & OUTPUT_TYPE) >> OUTPUT_TYPE_Pos) << position);
 80040e0:	683b      	ldr	r3, [r7, #0]
 80040e2:	685b      	ldr	r3, [r3, #4]
 80040e4:	091b      	lsrs	r3, r3, #4
 80040e6:	f003 0201 	and.w	r2, r3, #1
 80040ea:	69fb      	ldr	r3, [r7, #28]
 80040ec:	fa02 f303 	lsl.w	r3, r2, r3
 80040f0:	69ba      	ldr	r2, [r7, #24]
 80040f2:	4313      	orrs	r3, r2
 80040f4:	61bb      	str	r3, [r7, #24]
        GPIOx->OTYPER = temp;
 80040f6:	687b      	ldr	r3, [r7, #4]
 80040f8:	69ba      	ldr	r2, [r7, #24]
 80040fa:	605a      	str	r2, [r3, #4]
       }

      if((GPIO_Init->Mode & GPIO_MODE) != MODE_ANALOG)
 80040fc:	683b      	ldr	r3, [r7, #0]
 80040fe:	685b      	ldr	r3, [r3, #4]
 8004100:	f003 0303 	and.w	r3, r3, #3
 8004104:	2b03      	cmp	r3, #3
 8004106:	d017      	beq.n	8004138 <HAL_GPIO_Init+0xf0>
      {
        /* Check the parameters */
        assert_param(IS_GPIO_PULL(GPIO_Init->Pull));
        
        /* Activate the Pull-up or Pull down resistor for the current IO */
        temp = GPIOx->PUPDR;
 8004108:	687b      	ldr	r3, [r7, #4]
 800410a:	68db      	ldr	r3, [r3, #12]
 800410c:	61bb      	str	r3, [r7, #24]
        temp &= ~(GPIO_PUPDR_PUPDR0 << (position * 2U));
 800410e:	69fb      	ldr	r3, [r7, #28]
 8004110:	005b      	lsls	r3, r3, #1
 8004112:	2203      	movs	r2, #3
 8004114:	fa02 f303 	lsl.w	r3, r2, r3
 8004118:	43db      	mvns	r3, r3
 800411a:	69ba      	ldr	r2, [r7, #24]
 800411c:	4013      	ands	r3, r2
 800411e:	61bb      	str	r3, [r7, #24]
        temp |= ((GPIO_Init->Pull) << (position * 2U));
 8004120:	683b      	ldr	r3, [r7, #0]
 8004122:	689a      	ldr	r2, [r3, #8]
 8004124:	69fb      	ldr	r3, [r7, #28]
 8004126:	005b      	lsls	r3, r3, #1
 8004128:	fa02 f303 	lsl.w	r3, r2, r3
 800412c:	69ba      	ldr	r2, [r7, #24]
 800412e:	4313      	orrs	r3, r2
 8004130:	61bb      	str	r3, [r7, #24]
        GPIOx->PUPDR = temp;
 8004132:	687b      	ldr	r3, [r7, #4]
 8004134:	69ba      	ldr	r2, [r7, #24]
 8004136:	60da      	str	r2, [r3, #12]
      }

      /* In case of Alternate function mode selection */
      if((GPIO_Init->Mode & GPIO_MODE) == MODE_AF)
 8004138:	683b      	ldr	r3, [r7, #0]
 800413a:	685b      	ldr	r3, [r3, #4]
 800413c:	f003 0303 	and.w	r3, r3, #3
 8004140:	2b02      	cmp	r3, #2
 8004142:	d123      	bne.n	800418c <HAL_GPIO_Init+0x144>
      {
        /* Check the Alternate function parameter */
        assert_param(IS_GPIO_AF(GPIO_Init->Alternate));
        /* Configure Alternate function mapped with the current IO */
        temp = GPIOx->AFR[position >> 3U];
 8004144:	69fb      	ldr	r3, [r7, #28]
 8004146:	08da      	lsrs	r2, r3, #3
 8004148:	687b      	ldr	r3, [r7, #4]
 800414a:	3208      	adds	r2, #8
 800414c:	f853 3022 	ldr.w	r3, [r3, r2, lsl #2]
 8004150:	61bb      	str	r3, [r7, #24]
        temp &= ~(0xFU << ((uint32_t)(position & 0x07U) * 4U)) ;
 8004152:	69fb      	ldr	r3, [r7, #28]
 8004154:	f003 0307 	and.w	r3, r3, #7
 8004158:	009b      	lsls	r3, r3, #2
 800415a:	220f      	movs	r2, #15
 800415c:	fa02 f303 	lsl.w	r3, r2, r3
 8004160:	43db      	mvns	r3, r3
 8004162:	69ba      	ldr	r2, [r7, #24]
 8004164:	4013      	ands	r3, r2
 8004166:	61bb      	str	r3, [r7, #24]
        temp |= ((uint32_t)(GPIO_Init->Alternate) << (((uint32_t)position & 0x07U) * 4U));
 8004168:	683b      	ldr	r3, [r7, #0]
 800416a:	691a      	ldr	r2, [r3, #16]
 800416c:	69fb      	ldr	r3, [r7, #28]
 800416e:	f003 0307 	and.w	r3, r3, #7
 8004172:	009b      	lsls	r3, r3, #2
 8004174:	fa02 f303 	lsl.w	r3, r2, r3
 8004178:	69ba      	ldr	r2, [r7, #24]
 800417a:	4313      	orrs	r3, r2
 800417c:	61bb      	str	r3, [r7, #24]
        GPIOx->AFR[position >> 3U] = temp;
 800417e:	69fb      	ldr	r3, [r7, #28]
 8004180:	08da      	lsrs	r2, r3, #3
 8004182:	687b      	ldr	r3, [r7, #4]
 8004184:	3208      	adds	r2, #8
 8004186:	69b9      	ldr	r1, [r7, #24]
 8004188:	f843 1022 	str.w	r1, [r3, r2, lsl #2]
      }

      /* Configure IO Direction mode (Input, Output, Alternate or Analog) */
      temp = GPIOx->MODER;
 800418c:	687b      	ldr	r3, [r7, #4]
 800418e:	681b      	ldr	r3, [r3, #0]
 8004190:	61bb      	str	r3, [r7, #24]
      temp &= ~(GPIO_MODER_MODER0 << (position * 2U));
 8004192:	69fb      	ldr	r3, [r7, #28]
 8004194:	005b      	lsls	r3, r3, #1
 8004196:	2203      	movs	r2, #3
 8004198:	fa02 f303 	lsl.w	r3, r2, r3
 800419c:	43db      	mvns	r3, r3
 800419e:	69ba      	ldr	r2, [r7, #24]
 80041a0:	4013      	ands	r3, r2
 80041a2:	61bb      	str	r3, [r7, #24]
      temp |= ((GPIO_Init->Mode & GPIO_MODE) << (position * 2U));
 80041a4:	683b      	ldr	r3, [r7, #0]
 80041a6:	685b      	ldr	r3, [r3, #4]
 80041a8:	f003 0203 	and.w	r2, r3, #3
 80041ac:	69fb      	ldr	r3, [r7, #28]
 80041ae:	005b      	lsls	r3, r3, #1
 80041b0:	fa02 f303 	lsl.w	r3, r2, r3
 80041b4:	69ba      	ldr	r2, [r7, #24]
 80041b6:	4313      	orrs	r3, r2
 80041b8:	61bb      	str	r3, [r7, #24]
      GPIOx->MODER = temp;
 80041ba:	687b      	ldr	r3, [r7, #4]
 80041bc:	69ba      	ldr	r2, [r7, #24]
 80041be:	601a      	str	r2, [r3, #0]

      /*--------------------- EXTI Mode Configuration ------------------------*/
      /* Configure the External Interrupt or event for the current IO */
      if((GPIO_Init->Mode & EXTI_MODE) != 0x00U)
 80041c0:	683b      	ldr	r3, [r7, #0]
 80041c2:	685b      	ldr	r3, [r3, #4]
 80041c4:	f403 3340 	and.w	r3, r3, #196608	@ 0x30000
 80041c8:	2b00      	cmp	r3, #0
 80041ca:	f000 80ae 	beq.w	800432a <HAL_GPIO_Init+0x2e2>
      {
        /* Enable SYSCFG Clock */
        __HAL_RCC_SYSCFG_CLK_ENABLE();
 80041ce:	2300      	movs	r3, #0
 80041d0:	60fb      	str	r3, [r7, #12]
 80041d2:	4b5d      	ldr	r3, [pc, #372]	@ (8004348 <HAL_GPIO_Init+0x300>)
 80041d4:	6c5b      	ldr	r3, [r3, #68]	@ 0x44
 80041d6:	4a5c      	ldr	r2, [pc, #368]	@ (8004348 <HAL_GPIO_Init+0x300>)
 80041d8:	f443 4380 	orr.w	r3, r3, #16384	@ 0x4000
 80041dc:	6453      	str	r3, [r2, #68]	@ 0x44
 80041de:	4b5a      	ldr	r3, [pc, #360]	@ (8004348 <HAL_GPIO_Init+0x300>)
 80041e0:	6c5b      	ldr	r3, [r3, #68]	@ 0x44
 80041e2:	f403 4380 	and.w	r3, r3, #16384	@ 0x4000
 80041e6:	60fb      	str	r3, [r7, #12]
 80041e8:	68fb      	ldr	r3, [r7, #12]

        temp = SYSCFG->EXTICR[position >> 2U];
 80041ea:	4a58      	ldr	r2, [pc, #352]	@ (800434c <HAL_GPIO_Init+0x304>)
 80041ec:	69fb      	ldr	r3, [r7, #28]
 80041ee:	089b      	lsrs	r3, r3, #2
 80041f0:	3302      	adds	r3, #2
 80041f2:	f852 3023 	ldr.w	r3, [r2, r3, lsl #2]
 80041f6:	61bb      	str	r3, [r7, #24]
        temp &= ~(0x0FU << (4U * (position & 0x03U)));
 80041f8:	69fb      	ldr	r3, [r7, #28]
 80041fa:	f003 0303 	and.w	r3, r3, #3
 80041fe:	009b      	lsls	r3, r3, #2
 8004200:	220f      	movs	r2, #15
 8004202:	fa02 f303 	lsl.w	r3, r2, r3
 8004206:	43db      	mvns	r3, r3
 8004208:	69ba      	ldr	r2, [r7, #24]
 800420a:	4013      	ands	r3, r2
 800420c:	61bb      	str	r3, [r7, #24]
        temp |= ((uint32_t)(GPIO_GET_INDEX(GPIOx)) << (4U * (position & 0x03U)));
 800420e:	687b      	ldr	r3, [r7, #4]
 8004210:	4a4f      	ldr	r2, [pc, #316]	@ (8004350 <HAL_GPIO_Init+0x308>)
 8004212:	4293      	cmp	r3, r2
 8004214:	d025      	beq.n	8004262 <HAL_GPIO_Init+0x21a>
 8004216:	687b      	ldr	r3, [r7, #4]
 8004218:	4a4e      	ldr	r2, [pc, #312]	@ (8004354 <HAL_GPIO_Init+0x30c>)
 800421a:	4293      	cmp	r3, r2
 800421c:	d01f      	beq.n	800425e <HAL_GPIO_Init+0x216>
 800421e:	687b      	ldr	r3, [r7, #4]
 8004220:	4a4d      	ldr	r2, [pc, #308]	@ (8004358 <HAL_GPIO_Init+0x310>)
 8004222:	4293      	cmp	r3, r2
 8004224:	d019      	beq.n	800425a <HAL_GPIO_Init+0x212>
 8004226:	687b      	ldr	r3, [r7, #4]
 8004228:	4a4c      	ldr	r2, [pc, #304]	@ (800435c <HAL_GPIO_Init+0x314>)
 800422a:	4293      	cmp	r3, r2
 800422c:	d013      	beq.n	8004256 <HAL_GPIO_Init+0x20e>
 800422e:	687b      	ldr	r3, [r7, #4]
 8004230:	4a4b      	ldr	r2, [pc, #300]	@ (8004360 <HAL_GPIO_Init+0x318>)
 8004232:	4293      	cmp	r3, r2
 8004234:	d00d      	beq.n	8004252 <HAL_GPIO_Init+0x20a>
 8004236:	687b      	ldr	r3, [r7, #4]
 8004238:	4a4a      	ldr	r2, [pc, #296]	@ (8004364 <HAL_GPIO_Init+0x31c>)
 800423a:	4293      	cmp	r3, r2
 800423c:	d007      	beq.n	800424e <HAL_GPIO_Init+0x206>
 800423e:	687b      	ldr	r3, [r7, #4]
 8004240:	4a49      	ldr	r2, [pc, #292]	@ (8004368 <HAL_GPIO_Init+0x320>)
 8004242:	4293      	cmp	r3, r2
 8004244:	d101      	bne.n	800424a <HAL_GPIO_Init+0x202>
 8004246:	2306      	movs	r3, #6
 8004248:	e00c      	b.n	8004264 <HAL_GPIO_Init+0x21c>
 800424a:	2307      	movs	r3, #7
 800424c:	e00a      	b.n	8004264 <HAL_GPIO_Init+0x21c>
 800424e:	2305      	movs	r3, #5
 8004250:	e008      	b.n	8004264 <HAL_GPIO_Init+0x21c>
 8004252:	2304      	movs	r3, #4
 8004254:	e006      	b.n	8004264 <HAL_GPIO_Init+0x21c>
 8004256:	2303      	movs	r3, #3
 8004258:	e004      	b.n	8004264 <HAL_GPIO_Init+0x21c>
 800425a:	2302      	movs	r3, #2
 800425c:	e002      	b.n	8004264 <HAL_GPIO_Init+0x21c>
 800425e:	2301      	movs	r3, #1
 8004260:	e000      	b.n	8004264 <HAL_GPIO_Init+0x21c>
 8004262:	2300      	movs	r3, #0
 8004264:	69fa      	ldr	r2, [r7, #28]
 8004266:	f002 0203 	and.w	r2, r2, #3
 800426a:	0092      	lsls	r2, r2, #2
 800426c:	4093      	lsls	r3, r2
 800426e:	69ba      	ldr	r2, [r7, #24]
 8004270:	4313      	orrs	r3, r2
 8004272:	61bb      	str	r3, [r7, #24]
        SYSCFG->EXTICR[position >> 2U] = temp;
 8004274:	4935      	ldr	r1, [pc, #212]	@ (800434c <HAL_GPIO_Init+0x304>)
 8004276:	69fb      	ldr	r3, [r7, #28]
 8004278:	089b      	lsrs	r3, r3, #2
 800427a:	3302      	adds	r3, #2
 800427c:	69ba      	ldr	r2, [r7, #24]
 800427e:	f841 2023 	str.w	r2, [r1, r3, lsl #2]

        /* Clear Rising Falling edge configuration */
        temp = EXTI->RTSR;
 8004282:	4b3a      	ldr	r3, [pc, #232]	@ (800436c <HAL_GPIO_Init+0x324>)
 8004284:	689b      	ldr	r3, [r3, #8]
 8004286:	61bb      	str	r3, [r7, #24]
        temp &= ~((uint32_t)iocurrent);
 8004288:	693b      	ldr	r3, [r7, #16]
 800428a:	43db      	mvns	r3, r3
 800428c:	69ba      	ldr	r2, [r7, #24]
 800428e:	4013      	ands	r3, r2
 8004290:	61bb      	str	r3, [r7, #24]
        if((GPIO_Init->Mode & TRIGGER_RISING) != 0x00U)
 8004292:	683b      	ldr	r3, [r7, #0]
 8004294:	685b      	ldr	r3, [r3, #4]
 8004296:	f403 1380 	and.w	r3, r3, #1048576	@ 0x100000
 800429a:	2b00      	cmp	r3, #0
 800429c:	d003      	beq.n	80042a6 <HAL_GPIO_Init+0x25e>
        {
          temp |= iocurrent;
 800429e:	69ba      	ldr	r2, [r7, #24]
 80042a0:	693b      	ldr	r3, [r7, #16]
 80042a2:	4313      	orrs	r3, r2
 80042a4:	61bb      	str	r3, [r7, #24]
        }
        EXTI->RTSR = temp;
 80042a6:	4a31      	ldr	r2, [pc, #196]	@ (800436c <HAL_GPIO_Init+0x324>)
 80042a8:	69bb      	ldr	r3, [r7, #24]
 80042aa:	6093      	str	r3, [r2, #8]

        temp = EXTI->FTSR;
 80042ac:	4b2f      	ldr	r3, [pc, #188]	@ (800436c <HAL_GPIO_Init+0x324>)
 80042ae:	68db      	ldr	r3, [r3, #12]
 80042b0:	61bb      	str	r3, [r7, #24]
        temp &= ~((uint32_t)iocurrent);
 80042b2:	693b      	ldr	r3, [r7, #16]
 80042b4:	43db      	mvns	r3, r3
 80042b6:	69ba      	ldr	r2, [r7, #24]
 80042b8:	4013      	ands	r3, r2
 80042ba:	61bb      	str	r3, [r7, #24]
        if((GPIO_Init->Mode & TRIGGER_FALLING) != 0x00U)
 80042bc:	683b      	ldr	r3, [r7, #0]
 80042be:	685b      	ldr	r3, [r3, #4]
 80042c0:	f403 1300 	and.w	r3, r3, #2097152	@ 0x200000
 80042c4:	2b00      	cmp	r3, #0
 80042c6:	d003      	beq.n	80042d0 <HAL_GPIO_Init+0x288>
        {
          temp |= iocurrent;
 80042c8:	69ba      	ldr	r2, [r7, #24]
 80042ca:	693b      	ldr	r3, [r7, #16]
 80042cc:	4313      	orrs	r3, r2
 80042ce:	61bb      	str	r3, [r7, #24]
        }
        EXTI->FTSR = temp;
 80042d0:	4a26      	ldr	r2, [pc, #152]	@ (800436c <HAL_GPIO_Init+0x324>)
 80042d2:	69bb      	ldr	r3, [r7, #24]
 80042d4:	60d3      	str	r3, [r2, #12]

        temp = EXTI->EMR;
 80042d6:	4b25      	ldr	r3, [pc, #148]	@ (800436c <HAL_GPIO_Init+0x324>)
 80042d8:	685b      	ldr	r3, [r3, #4]
 80042da:	61bb      	str	r3, [r7, #24]
        temp &= ~((uint32_t)iocurrent);
 80042dc:	693b      	ldr	r3, [r7, #16]
 80042de:	43db      	mvns	r3, r3
 80042e0:	69ba      	ldr	r2, [r7, #24]
 80042e2:	4013      	ands	r3, r2
 80042e4:	61bb      	str	r3, [r7, #24]
        if((GPIO_Init->Mode & EXTI_EVT) != 0x00U)
 80042e6:	683b      	ldr	r3, [r7, #0]
 80042e8:	685b      	ldr	r3, [r3, #4]
 80042ea:	f403 3300 	and.w	r3, r3, #131072	@ 0x20000
 80042ee:	2b00      	cmp	r3, #0
 80042f0:	d003      	beq.n	80042fa <HAL_GPIO_Init+0x2b2>
        {
          temp |= iocurrent;
 80042f2:	69ba      	ldr	r2, [r7, #24]
 80042f4:	693b      	ldr	r3, [r7, #16]
 80042f6:	4313      	orrs	r3, r2
 80042f8:	61bb      	str	r3, [r7, #24]
        }
        EXTI->EMR = temp;
 80042fa:	4a1c      	ldr	r2, [pc, #112]	@ (800436c <HAL_GPIO_Init+0x324>)
 80042fc:	69bb      	ldr	r3, [r7, #24]
 80042fe:	6053      	str	r3, [r2, #4]

        /* Clear EXTI line configuration */
        temp = EXTI->IMR;
 8004300:	4b1a      	ldr	r3, [pc, #104]	@ (800436c <HAL_GPIO_Init+0x324>)
 8004302:	681b      	ldr	r3, [r3, #0]
 8004304:	61bb      	str	r3, [r7, #24]
        temp &= ~((uint32_t)iocurrent);
 8004306:	693b      	ldr	r3, [r7, #16]
 8004308:	43db      	mvns	r3, r3
 800430a:	69ba      	ldr	r2, [r7, #24]
 800430c:	4013      	ands	r3, r2
 800430e:	61bb      	str	r3, [r7, #24]
        if((GPIO_Init->Mode & EXTI_IT) != 0x00U)
 8004310:	683b      	ldr	r3, [r7, #0]
 8004312:	685b      	ldr	r3, [r3, #4]
 8004314:	f403 3380 	and.w	r3, r3, #65536	@ 0x10000
 8004318:	2b00      	cmp	r3, #0
 800431a:	d003      	beq.n	8004324 <HAL_GPIO_Init+0x2dc>
        {
          temp |= iocurrent;
 800431c:	69ba      	ldr	r2, [r7, #24]
 800431e:	693b      	ldr	r3, [r7, #16]
 8004320:	4313      	orrs	r3, r2
 8004322:	61bb      	str	r3, [r7, #24]
        }
        EXTI->IMR = temp;
 8004324:	4a11      	ldr	r2, [pc, #68]	@ (800436c <HAL_GPIO_Init+0x324>)
 8004326:	69bb      	ldr	r3, [r7, #24]
 8004328:	6013      	str	r3, [r2, #0]
  for(position = 0U; position < GPIO_NUMBER; position++)
 800432a:	69fb      	ldr	r3, [r7, #28]
 800432c:	3301      	adds	r3, #1
 800432e:	61fb      	str	r3, [r7, #28]
 8004330:	69fb      	ldr	r3, [r7, #28]
 8004332:	2b0f      	cmp	r3, #15
 8004334:	f67f ae96 	bls.w	8004064 <HAL_GPIO_Init+0x1c>
      }
    }
  }
}
 8004338:	bf00      	nop
 800433a:	bf00      	nop
 800433c:	3724      	adds	r7, #36	@ 0x24
 800433e:	46bd      	mov	sp, r7
 8004340:	f85d 7b04 	ldr.w	r7, [sp], #4
 8004344:	4770      	bx	lr
 8004346:	bf00      	nop
 8004348:	40023800 	.word	0x40023800
 800434c:	40013800 	.word	0x40013800
 8004350:	40020000 	.word	0x40020000
 8004354:	40020400 	.word	0x40020400
 8004358:	40020800 	.word	0x40020800
 800435c:	40020c00 	.word	0x40020c00
 8004360:	40021000 	.word	0x40021000
 8004364:	40021400 	.word	0x40021400
 8004368:	40021800 	.word	0x40021800
 800436c:	40013c00 	.word	0x40013c00

08004370 <HAL_GPIO_WritePin>:
  *            @arg GPIO_PIN_RESET: to clear the port pin
  *            @arg GPIO_PIN_SET: to set the port pin
  * @retval None
  */
void HAL_GPIO_WritePin(GPIO_TypeDef* GPIOx, uint16_t GPIO_Pin, GPIO_PinState PinState)
{
 8004370:	b480      	push	{r7}
 8004372:	b083      	sub	sp, #12
 8004374:	af00      	add	r7, sp, #0
 8004376:	6078      	str	r0, [r7, #4]
 8004378:	460b      	mov	r3, r1
 800437a:	807b      	strh	r3, [r7, #2]
 800437c:	4613      	mov	r3, r2
 800437e:	707b      	strb	r3, [r7, #1]
  /* Check the parameters */
  assert_param(IS_GPIO_PIN(GPIO_Pin));
  assert_param(IS_GPIO_PIN_ACTION(PinState));

  if(PinState != GPIO_PIN_RESET)
 8004380:	787b      	ldrb	r3, [r7, #1]
 8004382:	2b00      	cmp	r3, #0
 8004384:	d003      	beq.n	800438e <HAL_GPIO_WritePin+0x1e>
  {
    GPIOx->BSRR = GPIO_Pin;
 8004386:	887a      	ldrh	r2, [r7, #2]
 8004388:	687b      	ldr	r3, [r7, #4]
 800438a:	619a      	str	r2, [r3, #24]
  }
  else
  {
    GPIOx->BSRR = (uint32_t)GPIO_Pin << 16U;
  }
}
 800438c:	e003      	b.n	8004396 <HAL_GPIO_WritePin+0x26>
    GPIOx->BSRR = (uint32_t)GPIO_Pin << 16U;
 800438e:	887b      	ldrh	r3, [r7, #2]
 8004390:	041a      	lsls	r2, r3, #16
 8004392:	687b      	ldr	r3, [r7, #4]
 8004394:	619a      	str	r2, [r3, #24]
}
 8004396:	bf00      	nop
 8004398:	370c      	adds	r7, #12
 800439a:	46bd      	mov	sp, r7
 800439c:	f85d 7b04 	ldr.w	r7, [sp], #4
 80043a0:	4770      	bx	lr
	...

080043a4 <HAL_I2C_Init>:
  * @param  hi2c Pointer to a I2C_HandleTypeDef structure that contains
  *                the configuration information for the specified I2C.
  * @retval HAL status
  */
HAL_StatusTypeDef HAL_I2C_Init(I2C_HandleTypeDef *hi2c)
{
 80043a4:	b580      	push	{r7, lr}
 80043a6:	b084      	sub	sp, #16
 80043a8:	af00      	add	r7, sp, #0
 80043aa:	6078      	str	r0, [r7, #4]
  uint32_t freqrange;
  uint32_t pclk1;

  /* Check the I2C handle allocation */
  if (hi2c == NULL)
 80043ac:	687b      	ldr	r3, [r7, #4]
 80043ae:	2b00      	cmp	r3, #0
 80043b0:	d101      	bne.n	80043b6 <HAL_I2C_Init+0x12>
  {
    return HAL_ERROR;
 80043b2:	2301      	movs	r3, #1
 80043b4:	e12b      	b.n	800460e <HAL_I2C_Init+0x26a>
  assert_param(IS_I2C_DUAL_ADDRESS(hi2c->Init.DualAddressMode));
  assert_param(IS_I2C_OWN_ADDRESS2(hi2c->Init.OwnAddress2));
  assert_param(IS_I2C_GENERAL_CALL(hi2c->Init.GeneralCallMode));
  assert_param(IS_I2C_NO_STRETCH(hi2c->Init.NoStretchMode));

  if (hi2c->State == HAL_I2C_STATE_RESET)
 80043b6:	687b      	ldr	r3, [r7, #4]
 80043b8:	f893 303d 	ldrb.w	r3, [r3, #61]	@ 0x3d
 80043bc:	b2db      	uxtb	r3, r3
 80043be:	2b00      	cmp	r3, #0
 80043c0:	d106      	bne.n	80043d0 <HAL_I2C_Init+0x2c>
  {
    /* Allocate lock resource and initialize it */
    hi2c->Lock = HAL_UNLOCKED;
 80043c2:	687b      	ldr	r3, [r7, #4]
 80043c4:	2200      	movs	r2, #0
 80043c6:	f883 203c 	strb.w	r2, [r3, #60]	@ 0x3c

    /* Init the low level hardware : GPIO, CLOCK, NVIC */
    hi2c->MspInitCallback(hi2c);
#else
    /* Init the low level hardware : GPIO, CLOCK, NVIC */
    HAL_I2C_MspInit(hi2c);
 80043ca:	6878      	ldr	r0, [r7, #4]
 80043cc:	f7fd ff7c 	bl	80022c8 <HAL_I2C_MspInit>
#endif /* USE_HAL_I2C_REGISTER_CALLBACKS */
  }

  hi2c->State = HAL_I2C_STATE_BUSY;
 80043d0:	687b      	ldr	r3, [r7, #4]
 80043d2:	2224      	movs	r2, #36	@ 0x24
 80043d4:	f883 203d 	strb.w	r2, [r3, #61]	@ 0x3d

  /* Disable the selected I2C peripheral */
  __HAL_I2C_DISABLE(hi2c);
 80043d8:	687b      	ldr	r3, [r7, #4]
 80043da:	681b      	ldr	r3, [r3, #0]
 80043dc:	681a      	ldr	r2, [r3, #0]
 80043de:	687b      	ldr	r3, [r7, #4]
 80043e0:	681b      	ldr	r3, [r3, #0]
 80043e2:	f022 0201 	bic.w	r2, r2, #1
 80043e6:	601a      	str	r2, [r3, #0]

  /*Reset I2C*/
  hi2c->Instance->CR1 |= I2C_CR1_SWRST;
 80043e8:	687b      	ldr	r3, [r7, #4]
 80043ea:	681b      	ldr	r3, [r3, #0]
 80043ec:	681a      	ldr	r2, [r3, #0]
 80043ee:	687b      	ldr	r3, [r7, #4]
 80043f0:	681b      	ldr	r3, [r3, #0]
 80043f2:	f442 4200 	orr.w	r2, r2, #32768	@ 0x8000
 80043f6:	601a      	str	r2, [r3, #0]
  hi2c->Instance->CR1 &= ~I2C_CR1_SWRST;
 80043f8:	687b      	ldr	r3, [r7, #4]
 80043fa:	681b      	ldr	r3, [r3, #0]
 80043fc:	681a      	ldr	r2, [r3, #0]
 80043fe:	687b      	ldr	r3, [r7, #4]
 8004400:	681b      	ldr	r3, [r3, #0]
 8004402:	f422 4200 	bic.w	r2, r2, #32768	@ 0x8000
 8004406:	601a      	str	r2, [r3, #0]

  /* Get PCLK1 frequency */
  pclk1 = HAL_RCC_GetPCLK1Freq();
 8004408:	f000 fa52 	bl	80048b0 <HAL_RCC_GetPCLK1Freq>
 800440c:	60f8      	str	r0, [r7, #12]

  /* Check the minimum allowed PCLK1 frequency */
  if (I2C_MIN_PCLK_FREQ(pclk1, hi2c->Init.ClockSpeed) == 1U)
 800440e:	687b      	ldr	r3, [r7, #4]
 8004410:	685b      	ldr	r3, [r3, #4]
 8004412:	4a81      	ldr	r2, [pc, #516]	@ (8004618 <HAL_I2C_Init+0x274>)
 8004414:	4293      	cmp	r3, r2
 8004416:	d807      	bhi.n	8004428 <HAL_I2C_Init+0x84>
 8004418:	68fb      	ldr	r3, [r7, #12]
 800441a:	4a80      	ldr	r2, [pc, #512]	@ (800461c <HAL_I2C_Init+0x278>)
 800441c:	4293      	cmp	r3, r2
 800441e:	bf94      	ite	ls
 8004420:	2301      	movls	r3, #1
 8004422:	2300      	movhi	r3, #0
 8004424:	b2db      	uxtb	r3, r3
 8004426:	e006      	b.n	8004436 <HAL_I2C_Init+0x92>
 8004428:	68fb      	ldr	r3, [r7, #12]
 800442a:	4a7d      	ldr	r2, [pc, #500]	@ (8004620 <HAL_I2C_Init+0x27c>)
 800442c:	4293      	cmp	r3, r2
 800442e:	bf94      	ite	ls
 8004430:	2301      	movls	r3, #1
 8004432:	2300      	movhi	r3, #0
 8004434:	b2db      	uxtb	r3, r3
 8004436:	2b00      	cmp	r3, #0
 8004438:	d001      	beq.n	800443e <HAL_I2C_Init+0x9a>
  {
    return HAL_ERROR;
 800443a:	2301      	movs	r3, #1
 800443c:	e0e7      	b.n	800460e <HAL_I2C_Init+0x26a>
  }

  /* Calculate frequency range */
  freqrange = I2C_FREQRANGE(pclk1);
 800443e:	68fb      	ldr	r3, [r7, #12]
 8004440:	4a78      	ldr	r2, [pc, #480]	@ (8004624 <HAL_I2C_Init+0x280>)
 8004442:	fba2 2303 	umull	r2, r3, r2, r3
 8004446:	0c9b      	lsrs	r3, r3, #18
 8004448:	60bb      	str	r3, [r7, #8]

  /*---------------------------- I2Cx CR2 Configuration ----------------------*/
  /* Configure I2Cx: Frequency range */
  MODIFY_REG(hi2c->Instance->CR2, I2C_CR2_FREQ, freqrange);
 800444a:	687b      	ldr	r3, [r7, #4]
 800444c:	681b      	ldr	r3, [r3, #0]
 800444e:	685b      	ldr	r3, [r3, #4]
 8004450:	f023 013f 	bic.w	r1, r3, #63	@ 0x3f
 8004454:	687b      	ldr	r3, [r7, #4]
 8004456:	681b      	ldr	r3, [r3, #0]
 8004458:	68ba      	ldr	r2, [r7, #8]
 800445a:	430a      	orrs	r2, r1
 800445c:	605a      	str	r2, [r3, #4]

  /*---------------------------- I2Cx TRISE Configuration --------------------*/
  /* Configure I2Cx: Rise Time */
  MODIFY_REG(hi2c->Instance->TRISE, I2C_TRISE_TRISE, I2C_RISE_TIME(freqrange, hi2c->Init.ClockSpeed));
 800445e:	687b      	ldr	r3, [r7, #4]
 8004460:	681b      	ldr	r3, [r3, #0]
 8004462:	6a1b      	ldr	r3, [r3, #32]
 8004464:	f023 013f 	bic.w	r1, r3, #63	@ 0x3f
 8004468:	687b      	ldr	r3, [r7, #4]
 800446a:	685b      	ldr	r3, [r3, #4]
 800446c:	4a6a      	ldr	r2, [pc, #424]	@ (8004618 <HAL_I2C_Init+0x274>)
 800446e:	4293      	cmp	r3, r2
 8004470:	d802      	bhi.n	8004478 <HAL_I2C_Init+0xd4>
 8004472:	68bb      	ldr	r3, [r7, #8]
 8004474:	3301      	adds	r3, #1
 8004476:	e009      	b.n	800448c <HAL_I2C_Init+0xe8>
 8004478:	68bb      	ldr	r3, [r7, #8]
 800447a:	f44f 7296 	mov.w	r2, #300	@ 0x12c
 800447e:	fb02 f303 	mul.w	r3, r2, r3
 8004482:	4a69      	ldr	r2, [pc, #420]	@ (8004628 <HAL_I2C_Init+0x284>)
 8004484:	fba2 2303 	umull	r2, r3, r2, r3
 8004488:	099b      	lsrs	r3, r3, #6
 800448a:	3301      	adds	r3, #1
 800448c:	687a      	ldr	r2, [r7, #4]
 800448e:	6812      	ldr	r2, [r2, #0]
 8004490:	430b      	orrs	r3, r1
 8004492:	6213      	str	r3, [r2, #32]

  /*---------------------------- I2Cx CCR Configuration ----------------------*/
  /* Configure I2Cx: Speed */
  MODIFY_REG(hi2c->Instance->CCR, (I2C_CCR_FS | I2C_CCR_DUTY | I2C_CCR_CCR), I2C_SPEED(pclk1, hi2c->Init.ClockSpeed, hi2c->Init.DutyCycle));
 8004494:	687b      	ldr	r3, [r7, #4]
 8004496:	681b      	ldr	r3, [r3, #0]
 8004498:	69db      	ldr	r3, [r3, #28]
 800449a:	f423 424f 	bic.w	r2, r3, #52992	@ 0xcf00
 800449e:	f022 02ff 	bic.w	r2, r2, #255	@ 0xff
 80044a2:	687b      	ldr	r3, [r7, #4]
 80044a4:	685b      	ldr	r3, [r3, #4]
 80044a6:	495c      	ldr	r1, [pc, #368]	@ (8004618 <HAL_I2C_Init+0x274>)
 80044a8:	428b      	cmp	r3, r1
 80044aa:	d819      	bhi.n	80044e0 <HAL_I2C_Init+0x13c>
 80044ac:	68fb      	ldr	r3, [r7, #12]
 80044ae:	1e59      	subs	r1, r3, #1
 80044b0:	687b      	ldr	r3, [r7, #4]
 80044b2:	685b      	ldr	r3, [r3, #4]
 80044b4:	005b      	lsls	r3, r3, #1
 80044b6:	fbb1 f3f3 	udiv	r3, r1, r3
 80044ba:	1c59      	adds	r1, r3, #1
 80044bc:	f640 73fc 	movw	r3, #4092	@ 0xffc
 80044c0:	400b      	ands	r3, r1
 80044c2:	2b00      	cmp	r3, #0
 80044c4:	d00a      	beq.n	80044dc <HAL_I2C_Init+0x138>
 80044c6:	68fb      	ldr	r3, [r7, #12]
 80044c8:	1e59      	subs	r1, r3, #1
 80044ca:	687b      	ldr	r3, [r7, #4]
 80044cc:	685b      	ldr	r3, [r3, #4]
 80044ce:	005b      	lsls	r3, r3, #1
 80044d0:	fbb1 f3f3 	udiv	r3, r1, r3
 80044d4:	3301      	adds	r3, #1
 80044d6:	f3c3 030b 	ubfx	r3, r3, #0, #12
 80044da:	e051      	b.n	8004580 <HAL_I2C_Init+0x1dc>
 80044dc:	2304      	movs	r3, #4
 80044de:	e04f      	b.n	8004580 <HAL_I2C_Init+0x1dc>
 80044e0:	687b      	ldr	r3, [r7, #4]
 80044e2:	689b      	ldr	r3, [r3, #8]
 80044e4:	2b00      	cmp	r3, #0
 80044e6:	d111      	bne.n	800450c <HAL_I2C_Init+0x168>
 80044e8:	68fb      	ldr	r3, [r7, #12]
 80044ea:	1e58      	subs	r0, r3, #1
 80044ec:	687b      	ldr	r3, [r7, #4]
 80044ee:	6859      	ldr	r1, [r3, #4]
 80044f0:	460b      	mov	r3, r1
 80044f2:	005b      	lsls	r3, r3, #1
 80044f4:	440b      	add	r3, r1
 80044f6:	fbb0 f3f3 	udiv	r3, r0, r3
 80044fa:	3301      	adds	r3, #1
 80044fc:	f3c3 030b 	ubfx	r3, r3, #0, #12
 8004500:	2b00      	cmp	r3, #0
 8004502:	bf0c      	ite	eq
 8004504:	2301      	moveq	r3, #1
 8004506:	2300      	movne	r3, #0
 8004508:	b2db      	uxtb	r3, r3
 800450a:	e012      	b.n	8004532 <HAL_I2C_Init+0x18e>
 800450c:	68fb      	ldr	r3, [r7, #12]
 800450e:	1e58      	subs	r0, r3, #1
 8004510:	687b      	ldr	r3, [r7, #4]
 8004512:	6859      	ldr	r1, [r3, #4]
 8004514:	460b      	mov	r3, r1
 8004516:	009b      	lsls	r3, r3, #2
 8004518:	440b      	add	r3, r1
 800451a:	0099      	lsls	r1, r3, #2
 800451c:	440b      	add	r3, r1
 800451e:	fbb0 f3f3 	udiv	r3, r0, r3
 8004522:	3301      	adds	r3, #1
 8004524:	f3c3 030b 	ubfx	r3, r3, #0, #12
 8004528:	2b00      	cmp	r3, #0
 800452a:	bf0c      	ite	eq
 800452c:	2301      	moveq	r3, #1
 800452e:	2300      	movne	r3, #0
 8004530:	b2db      	uxtb	r3, r3
 8004532:	2b00      	cmp	r3, #0
 8004534:	d001      	beq.n	800453a <HAL_I2C_Init+0x196>
 8004536:	2301      	movs	r3, #1
 8004538:	e022      	b.n	8004580 <HAL_I2C_Init+0x1dc>
 800453a:	687b      	ldr	r3, [r7, #4]
 800453c:	689b      	ldr	r3, [r3, #8]
 800453e:	2b00      	cmp	r3, #0
 8004540:	d10e      	bne.n	8004560 <HAL_I2C_Init+0x1bc>
 8004542:	68fb      	ldr	r3, [r7, #12]
 8004544:	1e58      	subs	r0, r3, #1
 8004546:	687b      	ldr	r3, [r7, #4]
 8004548:	6859      	ldr	r1, [r3, #4]
 800454a:	460b      	mov	r3, r1
 800454c:	005b      	lsls	r3, r3, #1
 800454e:	440b      	add	r3, r1
 8004550:	fbb0 f3f3 	udiv	r3, r0, r3
 8004554:	3301      	adds	r3, #1
 8004556:	f3c3 030b 	ubfx	r3, r3, #0, #12
 800455a:	f443 4300 	orr.w	r3, r3, #32768	@ 0x8000
 800455e:	e00f      	b.n	8004580 <HAL_I2C_Init+0x1dc>
 8004560:	68fb      	ldr	r3, [r7, #12]
 8004562:	1e58      	subs	r0, r3, #1
 8004564:	687b      	ldr	r3, [r7, #4]
 8004566:	6859      	ldr	r1, [r3, #4]
 8004568:	460b      	mov	r3, r1
 800456a:	009b      	lsls	r3, r3, #2
 800456c:	440b      	add	r3, r1
 800456e:	0099      	lsls	r1, r3, #2
 8004570:	440b      	add	r3, r1
 8004572:	fbb0 f3f3 	udiv	r3, r0, r3
 8004576:	3301      	adds	r3, #1
 8004578:	f3c3 030b 	ubfx	r3, r3, #0, #12
 800457c:	f443 4340 	orr.w	r3, r3, #49152	@ 0xc000
 8004580:	6879      	ldr	r1, [r7, #4]
 8004582:	6809      	ldr	r1, [r1, #0]
 8004584:	4313      	orrs	r3, r2
 8004586:	61cb      	str	r3, [r1, #28]

  /*---------------------------- I2Cx CR1 Configuration ----------------------*/
  /* Configure I2Cx: Generalcall and NoStretch mode */
  MODIFY_REG(hi2c->Instance->CR1, (I2C_CR1_ENGC | I2C_CR1_NOSTRETCH), (hi2c->Init.GeneralCallMode | hi2c->Init.NoStretchMode));
 8004588:	687b      	ldr	r3, [r7, #4]
 800458a:	681b      	ldr	r3, [r3, #0]
 800458c:	681b      	ldr	r3, [r3, #0]
 800458e:	f023 01c0 	bic.w	r1, r3, #192	@ 0xc0
 8004592:	687b      	ldr	r3, [r7, #4]
 8004594:	69da      	ldr	r2, [r3, #28]
 8004596:	687b      	ldr	r3, [r7, #4]
 8004598:	6a1b      	ldr	r3, [r3, #32]
 800459a:	431a      	orrs	r2, r3
 800459c:	687b      	ldr	r3, [r7, #4]
 800459e:	681b      	ldr	r3, [r3, #0]
 80045a0:	430a      	orrs	r2, r1
 80045a2:	601a      	str	r2, [r3, #0]

  /*---------------------------- I2Cx OAR1 Configuration ---------------------*/
  /* Configure I2Cx: Own Address1 and addressing mode */
  MODIFY_REG(hi2c->Instance->OAR1, (I2C_OAR1_ADDMODE | I2C_OAR1_ADD8_9 | I2C_OAR1_ADD1_7 | I2C_OAR1_ADD0), (hi2c->Init.AddressingMode | hi2c->Init.OwnAddress1));
 80045a4:	687b      	ldr	r3, [r7, #4]
 80045a6:	681b      	ldr	r3, [r3, #0]
 80045a8:	689b      	ldr	r3, [r3, #8]
 80045aa:	f423 4303 	bic.w	r3, r3, #33536	@ 0x8300
 80045ae:	f023 03ff 	bic.w	r3, r3, #255	@ 0xff
 80045b2:	687a      	ldr	r2, [r7, #4]
 80045b4:	6911      	ldr	r1, [r2, #16]
 80045b6:	687a      	ldr	r2, [r7, #4]
 80045b8:	68d2      	ldr	r2, [r2, #12]
 80045ba:	4311      	orrs	r1, r2
 80045bc:	687a      	ldr	r2, [r7, #4]
 80045be:	6812      	ldr	r2, [r2, #0]
 80045c0:	430b      	orrs	r3, r1
 80045c2:	6093      	str	r3, [r2, #8]

  /*---------------------------- I2Cx OAR2 Configuration ---------------------*/
  /* Configure I2Cx: Dual mode and Own Address2 */
  MODIFY_REG(hi2c->Instance->OAR2, (I2C_OAR2_ENDUAL | I2C_OAR2_ADD2), (hi2c->Init.DualAddressMode | hi2c->Init.OwnAddress2));
 80045c4:	687b      	ldr	r3, [r7, #4]
 80045c6:	681b      	ldr	r3, [r3, #0]
 80045c8:	68db      	ldr	r3, [r3, #12]
 80045ca:	f023 01ff 	bic.w	r1, r3, #255	@ 0xff
 80045ce:	687b      	ldr	r3, [r7, #4]
 80045d0:	695a      	ldr	r2, [r3, #20]
 80045d2:	687b      	ldr	r3, [r7, #4]
 80045d4:	699b      	ldr	r3, [r3, #24]
 80045d6:	431a      	orrs	r2, r3
 80045d8:	687b      	ldr	r3, [r7, #4]
 80045da:	681b      	ldr	r3, [r3, #0]
 80045dc:	430a      	orrs	r2, r1
 80045de:	60da      	str	r2, [r3, #12]

  /* Enable the selected I2C peripheral */
  __HAL_I2C_ENABLE(hi2c);
 80045e0:	687b      	ldr	r3, [r7, #4]
 80045e2:	681b      	ldr	r3, [r3, #0]
 80045e4:	681a      	ldr	r2, [r3, #0]
 80045e6:	687b      	ldr	r3, [r7, #4]
 80045e8:	681b      	ldr	r3, [r3, #0]
 80045ea:	f042 0201 	orr.w	r2, r2, #1
 80045ee:	601a      	str	r2, [r3, #0]

  hi2c->ErrorCode = HAL_I2C_ERROR_NONE;
 80045f0:	687b      	ldr	r3, [r7, #4]
 80045f2:	2200      	movs	r2, #0
 80045f4:	641a      	str	r2, [r3, #64]	@ 0x40
  hi2c->State = HAL_I2C_STATE_READY;
 80045f6:	687b      	ldr	r3, [r7, #4]
 80045f8:	2220      	movs	r2, #32
 80045fa:	f883 203d 	strb.w	r2, [r3, #61]	@ 0x3d
  hi2c->PreviousState = I2C_STATE_NONE;
 80045fe:	687b      	ldr	r3, [r7, #4]
 8004600:	2200      	movs	r2, #0
 8004602:	631a      	str	r2, [r3, #48]	@ 0x30
  hi2c->Mode = HAL_I2C_MODE_NONE;
 8004604:	687b      	ldr	r3, [r7, #4]
 8004606:	2200      	movs	r2, #0
 8004608:	f883 203e 	strb.w	r2, [r3, #62]	@ 0x3e

  return HAL_OK;
 800460c:	2300      	movs	r3, #0
}
 800460e:	4618      	mov	r0, r3
 8004610:	3710      	adds	r7, #16
 8004612:	46bd      	mov	sp, r7
 8004614:	bd80      	pop	{r7, pc}
 8004616:	bf00      	nop
 8004618:	000186a0 	.word	0x000186a0
 800461c:	001e847f 	.word	0x001e847f
 8004620:	003d08ff 	.word	0x003d08ff
 8004624:	431bde83 	.word	0x431bde83
 8004628:	10624dd3 	.word	0x10624dd3

0800462c <HAL_PWREx_EnableOverDrive>:
  *         During the Over-drive switch activation, no peripheral clocks should be enabled.   
  *         The peripheral clocks must be enabled once the Over-drive mode is activated.   
  * @retval HAL status
  */
HAL_StatusTypeDef HAL_PWREx_EnableOverDrive(void)
{
 800462c:	b580      	push	{r7, lr}
 800462e:	b082      	sub	sp, #8
 8004630:	af00      	add	r7, sp, #0
  uint32_t tickstart = 0U;
 8004632:	2300      	movs	r3, #0
 8004634:	607b      	str	r3, [r7, #4]

  __HAL_RCC_PWR_CLK_ENABLE();
 8004636:	2300      	movs	r3, #0
 8004638:	603b      	str	r3, [r7, #0]
 800463a:	4b20      	ldr	r3, [pc, #128]	@ (80046bc <HAL_PWREx_EnableOverDrive+0x90>)
 800463c:	6c1b      	ldr	r3, [r3, #64]	@ 0x40
 800463e:	4a1f      	ldr	r2, [pc, #124]	@ (80046bc <HAL_PWREx_EnableOverDrive+0x90>)
 8004640:	f043 5380 	orr.w	r3, r3, #268435456	@ 0x10000000
 8004644:	6413      	str	r3, [r2, #64]	@ 0x40
 8004646:	4b1d      	ldr	r3, [pc, #116]	@ (80046bc <HAL_PWREx_EnableOverDrive+0x90>)
 8004648:	6c1b      	ldr	r3, [r3, #64]	@ 0x40
 800464a:	f003 5380 	and.w	r3, r3, #268435456	@ 0x10000000
 800464e:	603b      	str	r3, [r7, #0]
 8004650:	683b      	ldr	r3, [r7, #0]
  
  /* Enable the Over-drive to extend the clock frequency to 180 Mhz */
  __HAL_PWR_OVERDRIVE_ENABLE();
 8004652:	4b1b      	ldr	r3, [pc, #108]	@ (80046c0 <HAL_PWREx_EnableOverDrive+0x94>)
 8004654:	2201      	movs	r2, #1
 8004656:	601a      	str	r2, [r3, #0]

  /* Get tick */
  tickstart = HAL_GetTick();
 8004658:	f7fe f872 	bl	8002740 <HAL_GetTick>
 800465c:	6078      	str	r0, [r7, #4]

  while(!__HAL_PWR_GET_FLAG(PWR_FLAG_ODRDY))
 800465e:	e009      	b.n	8004674 <HAL_PWREx_EnableOverDrive+0x48>
  {
    if((HAL_GetTick() - tickstart) > PWR_OVERDRIVE_TIMEOUT_VALUE)
 8004660:	f7fe f86e 	bl	8002740 <HAL_GetTick>
 8004664:	4602      	mov	r2, r0
 8004666:	687b      	ldr	r3, [r7, #4]
 8004668:	1ad3      	subs	r3, r2, r3
 800466a:	f5b3 7f7a 	cmp.w	r3, #1000	@ 0x3e8
 800466e:	d901      	bls.n	8004674 <HAL_PWREx_EnableOverDrive+0x48>
    {
      return HAL_TIMEOUT;
 8004670:	2303      	movs	r3, #3
 8004672:	e01f      	b.n	80046b4 <HAL_PWREx_EnableOverDrive+0x88>
  while(!__HAL_PWR_GET_FLAG(PWR_FLAG_ODRDY))
 8004674:	4b13      	ldr	r3, [pc, #76]	@ (80046c4 <HAL_PWREx_EnableOverDrive+0x98>)
 8004676:	685b      	ldr	r3, [r3, #4]
 8004678:	f403 3380 	and.w	r3, r3, #65536	@ 0x10000
 800467c:	f5b3 3f80 	cmp.w	r3, #65536	@ 0x10000
 8004680:	d1ee      	bne.n	8004660 <HAL_PWREx_EnableOverDrive+0x34>
    }
  }
  
  /* Enable the Over-drive switch */
  __HAL_PWR_OVERDRIVESWITCHING_ENABLE();
 8004682:	4b11      	ldr	r3, [pc, #68]	@ (80046c8 <HAL_PWREx_EnableOverDrive+0x9c>)
 8004684:	2201      	movs	r2, #1
 8004686:	601a      	str	r2, [r3, #0]

  /* Get tick */
  tickstart = HAL_GetTick();
 8004688:	f7fe f85a 	bl	8002740 <HAL_GetTick>
 800468c:	6078      	str	r0, [r7, #4]

  while(!__HAL_PWR_GET_FLAG(PWR_FLAG_ODSWRDY))
 800468e:	e009      	b.n	80046a4 <HAL_PWREx_EnableOverDrive+0x78>
  {
    if((HAL_GetTick() - tickstart ) > PWR_OVERDRIVE_TIMEOUT_VALUE)
 8004690:	f7fe f856 	bl	8002740 <HAL_GetTick>
 8004694:	4602      	mov	r2, r0
 8004696:	687b      	ldr	r3, [r7, #4]
 8004698:	1ad3      	subs	r3, r2, r3
 800469a:	f5b3 7f7a 	cmp.w	r3, #1000	@ 0x3e8
 800469e:	d901      	bls.n	80046a4 <HAL_PWREx_EnableOverDrive+0x78>
    {
      return HAL_TIMEOUT;
 80046a0:	2303      	movs	r3, #3
 80046a2:	e007      	b.n	80046b4 <HAL_PWREx_EnableOverDrive+0x88>
  while(!__HAL_PWR_GET_FLAG(PWR_FLAG_ODSWRDY))
 80046a4:	4b07      	ldr	r3, [pc, #28]	@ (80046c4 <HAL_PWREx_EnableOverDrive+0x98>)
 80046a6:	685b      	ldr	r3, [r3, #4]
 80046a8:	f403 3300 	and.w	r3, r3, #131072	@ 0x20000
 80046ac:	f5b3 3f00 	cmp.w	r3, #131072	@ 0x20000
 80046b0:	d1ee      	bne.n	8004690 <HAL_PWREx_EnableOverDrive+0x64>
    }
  } 
  return HAL_OK;
 80046b2:	2300      	movs	r3, #0
}
 80046b4:	4618      	mov	r0, r3
 80046b6:	3708      	adds	r7, #8
 80046b8:	46bd      	mov	sp, r7
 80046ba:	bd80      	pop	{r7, pc}
 80046bc:	40023800 	.word	0x40023800
 80046c0:	420e0040 	.word	0x420e0040
 80046c4:	40007000 	.word	0x40007000
 80046c8:	420e0044 	.word	0x420e0044

080046cc <HAL_RCC_ClockConfig>:
  *         HPRE[3:0] bits to ensure that HCLK not exceed the maximum allowed frequency
  *         (for more details refer to section above "Initialization/de-initialization functions")
  * @retval None
  */
HAL_StatusTypeDef HAL_RCC_ClockConfig(RCC_ClkInitTypeDef  *RCC_ClkInitStruct, uint32_t FLatency)
{
 80046cc:	b580      	push	{r7, lr}
 80046ce:	b084      	sub	sp, #16
 80046d0:	af00      	add	r7, sp, #0
 80046d2:	6078      	str	r0, [r7, #4]
 80046d4:	6039      	str	r1, [r7, #0]
  uint32_t tickstart;

  /* Check Null pointer */
  if (RCC_ClkInitStruct == NULL)
 80046d6:	687b      	ldr	r3, [r7, #4]
 80046d8:	2b00      	cmp	r3, #0
 80046da:	d101      	bne.n	80046e0 <HAL_RCC_ClockConfig+0x14>
  {
    return HAL_ERROR;
 80046dc:	2301      	movs	r3, #1
 80046de:	e0cc      	b.n	800487a <HAL_RCC_ClockConfig+0x1ae>
  /* To correctly read data from FLASH memory, the number of wait states (LATENCY)
    must be correctly programmed according to the frequency of the CPU clock
    (HCLK) and the supply voltage of the device. */

  /* Increasing the number of wait states because of higher CPU frequency */
  if (FLatency > __HAL_FLASH_GET_LATENCY())
 80046e0:	4b68      	ldr	r3, [pc, #416]	@ (8004884 <HAL_RCC_ClockConfig+0x1b8>)
 80046e2:	681b      	ldr	r3, [r3, #0]
 80046e4:	f003 030f 	and.w	r3, r3, #15
 80046e8:	683a      	ldr	r2, [r7, #0]
 80046ea:	429a      	cmp	r2, r3
 80046ec:	d90c      	bls.n	8004708 <HAL_RCC_ClockConfig+0x3c>
  {
    /* Program the new number of wait states to the LATENCY bits in the FLASH_ACR register */
    __HAL_FLASH_SET_LATENCY(FLatency);
 80046ee:	4b65      	ldr	r3, [pc, #404]	@ (8004884 <HAL_RCC_ClockConfig+0x1b8>)
 80046f0:	683a      	ldr	r2, [r7, #0]
 80046f2:	b2d2      	uxtb	r2, r2
 80046f4:	701a      	strb	r2, [r3, #0]

    /* Check that the new number of wait states is taken into account to access the Flash
    memory by reading the FLASH_ACR register */
    if (__HAL_FLASH_GET_LATENCY() != FLatency)
 80046f6:	4b63      	ldr	r3, [pc, #396]	@ (8004884 <HAL_RCC_ClockConfig+0x1b8>)
 80046f8:	681b      	ldr	r3, [r3, #0]
 80046fa:	f003 030f 	and.w	r3, r3, #15
 80046fe:	683a      	ldr	r2, [r7, #0]
 8004700:	429a      	cmp	r2, r3
 8004702:	d001      	beq.n	8004708 <HAL_RCC_ClockConfig+0x3c>
    {
      return HAL_ERROR;
 8004704:	2301      	movs	r3, #1
 8004706:	e0b8      	b.n	800487a <HAL_RCC_ClockConfig+0x1ae>
    }
  }

  /*-------------------------- HCLK Configuration --------------------------*/
  if (((RCC_ClkInitStruct->ClockType) & RCC_CLOCKTYPE_HCLK) == RCC_CLOCKTYPE_HCLK)
 8004708:	687b      	ldr	r3, [r7, #4]
 800470a:	681b      	ldr	r3, [r3, #0]
 800470c:	f003 0302 	and.w	r3, r3, #2
 8004710:	2b00      	cmp	r3, #0
 8004712:	d020      	beq.n	8004756 <HAL_RCC_ClockConfig+0x8a>
  {
    /* Set the highest APBx dividers in order to ensure that we do not go through
       a non-spec phase whatever we decrease or increase HCLK. */
    if (((RCC_ClkInitStruct->ClockType) & RCC_CLOCKTYPE_PCLK1) == RCC_CLOCKTYPE_PCLK1)
 8004714:	687b      	ldr	r3, [r7, #4]
 8004716:	681b      	ldr	r3, [r3, #0]
 8004718:	f003 0304 	and.w	r3, r3, #4
 800471c:	2b00      	cmp	r3, #0
 800471e:	d005      	beq.n	800472c <HAL_RCC_ClockConfig+0x60>
    {
      MODIFY_REG(RCC->CFGR, RCC_CFGR_PPRE1, RCC_HCLK_DIV16);
 8004720:	4b59      	ldr	r3, [pc, #356]	@ (8004888 <HAL_RCC_ClockConfig+0x1bc>)
 8004722:	689b      	ldr	r3, [r3, #8]
 8004724:	4a58      	ldr	r2, [pc, #352]	@ (8004888 <HAL_RCC_ClockConfig+0x1bc>)
 8004726:	f443 53e0 	orr.w	r3, r3, #7168	@ 0x1c00
 800472a:	6093      	str	r3, [r2, #8]
    }

    if (((RCC_ClkInitStruct->ClockType) & RCC_CLOCKTYPE_PCLK2) == RCC_CLOCKTYPE_PCLK2)
 800472c:	687b      	ldr	r3, [r7, #4]
 800472e:	681b      	ldr	r3, [r3, #0]
 8004730:	f003 0308 	and.w	r3, r3, #8
 8004734:	2b00      	cmp	r3, #0
 8004736:	d005      	beq.n	8004744 <HAL_RCC_ClockConfig+0x78>
    {
      MODIFY_REG(RCC->CFGR, RCC_CFGR_PPRE2, (RCC_HCLK_DIV16 << 3));
 8004738:	4b53      	ldr	r3, [pc, #332]	@ (8004888 <HAL_RCC_ClockConfig+0x1bc>)
 800473a:	689b      	ldr	r3, [r3, #8]
 800473c:	4a52      	ldr	r2, [pc, #328]	@ (8004888 <HAL_RCC_ClockConfig+0x1bc>)
 800473e:	f443 4360 	orr.w	r3, r3, #57344	@ 0xe000
 8004742:	6093      	str	r3, [r2, #8]
    }

    assert_param(IS_RCC_HCLK(RCC_ClkInitStruct->AHBCLKDivider));
    MODIFY_REG(RCC->CFGR, RCC_CFGR_HPRE, RCC_ClkInitStruct->AHBCLKDivider);
 8004744:	4b50      	ldr	r3, [pc, #320]	@ (8004888 <HAL_RCC_ClockConfig+0x1bc>)
 8004746:	689b      	ldr	r3, [r3, #8]
 8004748:	f023 02f0 	bic.w	r2, r3, #240	@ 0xf0
 800474c:	687b      	ldr	r3, [r7, #4]
 800474e:	689b      	ldr	r3, [r3, #8]
 8004750:	494d      	ldr	r1, [pc, #308]	@ (8004888 <HAL_RCC_ClockConfig+0x1bc>)
 8004752:	4313      	orrs	r3, r2
 8004754:	608b      	str	r3, [r1, #8]
  }

  /*------------------------- SYSCLK Configuration ---------------------------*/
  if (((RCC_ClkInitStruct->ClockType) & RCC_CLOCKTYPE_SYSCLK) == RCC_CLOCKTYPE_SYSCLK)
 8004756:	687b      	ldr	r3, [r7, #4]
 8004758:	681b      	ldr	r3, [r3, #0]
 800475a:	f003 0301 	and.w	r3, r3, #1
 800475e:	2b00      	cmp	r3, #0
 8004760:	d044      	beq.n	80047ec <HAL_RCC_ClockConfig+0x120>
  {
    assert_param(IS_RCC_SYSCLKSOURCE(RCC_ClkInitStruct->SYSCLKSource));

    /* HSE is selected as System Clock Source */
    if (RCC_ClkInitStruct->SYSCLKSource == RCC_SYSCLKSOURCE_HSE)
 8004762:	687b      	ldr	r3, [r7, #4]
 8004764:	685b      	ldr	r3, [r3, #4]
 8004766:	2b01      	cmp	r3, #1
 8004768:	d107      	bne.n	800477a <HAL_RCC_ClockConfig+0xae>
    {
      /* Check the HSE ready flag */
      if (__HAL_RCC_GET_FLAG(RCC_FLAG_HSERDY) == RESET)
 800476a:	4b47      	ldr	r3, [pc, #284]	@ (8004888 <HAL_RCC_ClockConfig+0x1bc>)
 800476c:	681b      	ldr	r3, [r3, #0]
 800476e:	f403 3300 	and.w	r3, r3, #131072	@ 0x20000
 8004772:	2b00      	cmp	r3, #0
 8004774:	d119      	bne.n	80047aa <HAL_RCC_ClockConfig+0xde>
      {
        return HAL_ERROR;
 8004776:	2301      	movs	r3, #1
 8004778:	e07f      	b.n	800487a <HAL_RCC_ClockConfig+0x1ae>
      }
    }
    /* PLL is selected as System Clock Source */
    else if ((RCC_ClkInitStruct->SYSCLKSource == RCC_SYSCLKSOURCE_PLLCLK)   ||
 800477a:	687b      	ldr	r3, [r7, #4]
 800477c:	685b      	ldr	r3, [r3, #4]
 800477e:	2b02      	cmp	r3, #2
 8004780:	d003      	beq.n	800478a <HAL_RCC_ClockConfig+0xbe>
             (RCC_ClkInitStruct->SYSCLKSource == RCC_SYSCLKSOURCE_PLLRCLK))
 8004782:	687b      	ldr	r3, [r7, #4]
 8004784:	685b      	ldr	r3, [r3, #4]
    else if ((RCC_ClkInitStruct->SYSCLKSource == RCC_SYSCLKSOURCE_PLLCLK)   ||
 8004786:	2b03      	cmp	r3, #3
 8004788:	d107      	bne.n	800479a <HAL_RCC_ClockConfig+0xce>
    {
      /* Check the PLL ready flag */
      if (__HAL_RCC_GET_FLAG(RCC_FLAG_PLLRDY) == RESET)
 800478a:	4b3f      	ldr	r3, [pc, #252]	@ (8004888 <HAL_RCC_ClockConfig+0x1bc>)
 800478c:	681b      	ldr	r3, [r3, #0]
 800478e:	f003 7300 	and.w	r3, r3, #33554432	@ 0x2000000
 8004792:	2b00      	cmp	r3, #0
 8004794:	d109      	bne.n	80047aa <HAL_RCC_ClockConfig+0xde>
      {
        return HAL_ERROR;
 8004796:	2301      	movs	r3, #1
 8004798:	e06f      	b.n	800487a <HAL_RCC_ClockConfig+0x1ae>
    }
    /* HSI is selected as System Clock Source */
    else
    {
      /* Check the HSI ready flag */
      if (__HAL_RCC_GET_FLAG(RCC_FLAG_HSIRDY) == RESET)
 800479a:	4b3b      	ldr	r3, [pc, #236]	@ (8004888 <HAL_RCC_ClockConfig+0x1bc>)
 800479c:	681b      	ldr	r3, [r3, #0]
 800479e:	f003 0302 	and.w	r3, r3, #2
 80047a2:	2b00      	cmp	r3, #0
 80047a4:	d101      	bne.n	80047aa <HAL_RCC_ClockConfig+0xde>
      {
        return HAL_ERROR;
 80047a6:	2301      	movs	r3, #1
 80047a8:	e067      	b.n	800487a <HAL_RCC_ClockConfig+0x1ae>
      }
    }

    __HAL_RCC_SYSCLK_CONFIG(RCC_ClkInitStruct->SYSCLKSource);
 80047aa:	4b37      	ldr	r3, [pc, #220]	@ (8004888 <HAL_RCC_ClockConfig+0x1bc>)
 80047ac:	689b      	ldr	r3, [r3, #8]
 80047ae:	f023 0203 	bic.w	r2, r3, #3
 80047b2:	687b      	ldr	r3, [r7, #4]
 80047b4:	685b      	ldr	r3, [r3, #4]
 80047b6:	4934      	ldr	r1, [pc, #208]	@ (8004888 <HAL_RCC_ClockConfig+0x1bc>)
 80047b8:	4313      	orrs	r3, r2
 80047ba:	608b      	str	r3, [r1, #8]

    /* Get Start Tick */
    tickstart = HAL_GetTick();
 80047bc:	f7fd ffc0 	bl	8002740 <HAL_GetTick>
 80047c0:	60f8      	str	r0, [r7, #12]

    while (__HAL_RCC_GET_SYSCLK_SOURCE() != (RCC_ClkInitStruct->SYSCLKSource << RCC_CFGR_SWS_Pos))
 80047c2:	e00a      	b.n	80047da <HAL_RCC_ClockConfig+0x10e>
    {
      if ((HAL_GetTick() - tickstart) > CLOCKSWITCH_TIMEOUT_VALUE)
 80047c4:	f7fd ffbc 	bl	8002740 <HAL_GetTick>
 80047c8:	4602      	mov	r2, r0
 80047ca:	68fb      	ldr	r3, [r7, #12]
 80047cc:	1ad3      	subs	r3, r2, r3
 80047ce:	f241 3288 	movw	r2, #5000	@ 0x1388
 80047d2:	4293      	cmp	r3, r2
 80047d4:	d901      	bls.n	80047da <HAL_RCC_ClockConfig+0x10e>
      {
        return HAL_TIMEOUT;
 80047d6:	2303      	movs	r3, #3
 80047d8:	e04f      	b.n	800487a <HAL_RCC_ClockConfig+0x1ae>
    while (__HAL_RCC_GET_SYSCLK_SOURCE() != (RCC_ClkInitStruct->SYSCLKSource << RCC_CFGR_SWS_Pos))
 80047da:	4b2b      	ldr	r3, [pc, #172]	@ (8004888 <HAL_RCC_ClockConfig+0x1bc>)
 80047dc:	689b      	ldr	r3, [r3, #8]
 80047de:	f003 020c 	and.w	r2, r3, #12
 80047e2:	687b      	ldr	r3, [r7, #4]
 80047e4:	685b      	ldr	r3, [r3, #4]
 80047e6:	009b      	lsls	r3, r3, #2
 80047e8:	429a      	cmp	r2, r3
 80047ea:	d1eb      	bne.n	80047c4 <HAL_RCC_ClockConfig+0xf8>
      }
    }
  }

  /* Decreasing the number of wait states because of lower CPU frequency */
  if (FLatency < __HAL_FLASH_GET_LATENCY())
 80047ec:	4b25      	ldr	r3, [pc, #148]	@ (8004884 <HAL_RCC_ClockConfig+0x1b8>)
 80047ee:	681b      	ldr	r3, [r3, #0]
 80047f0:	f003 030f 	and.w	r3, r3, #15
 80047f4:	683a      	ldr	r2, [r7, #0]
 80047f6:	429a      	cmp	r2, r3
 80047f8:	d20c      	bcs.n	8004814 <HAL_RCC_ClockConfig+0x148>
  {
    /* Program the new number of wait states to the LATENCY bits in the FLASH_ACR register */
    __HAL_FLASH_SET_LATENCY(FLatency);
 80047fa:	4b22      	ldr	r3, [pc, #136]	@ (8004884 <HAL_RCC_ClockConfig+0x1b8>)
 80047fc:	683a      	ldr	r2, [r7, #0]
 80047fe:	b2d2      	uxtb	r2, r2
 8004800:	701a      	strb	r2, [r3, #0]

    /* Check that the new number of wait states is taken into account to access the Flash
    memory by reading the FLASH_ACR register */
    if (__HAL_FLASH_GET_LATENCY() != FLatency)
 8004802:	4b20      	ldr	r3, [pc, #128]	@ (8004884 <HAL_RCC_ClockConfig+0x1b8>)
 8004804:	681b      	ldr	r3, [r3, #0]
 8004806:	f003 030f 	and.w	r3, r3, #15
 800480a:	683a      	ldr	r2, [r7, #0]
 800480c:	429a      	cmp	r2, r3
 800480e:	d001      	beq.n	8004814 <HAL_RCC_ClockConfig+0x148>
    {
      return HAL_ERROR;
 8004810:	2301      	movs	r3, #1
 8004812:	e032      	b.n	800487a <HAL_RCC_ClockConfig+0x1ae>
    }
  }

  /*-------------------------- PCLK1 Configuration ---------------------------*/
  if (((RCC_ClkInitStruct->ClockType) & RCC_CLOCKTYPE_PCLK1) == RCC_CLOCKTYPE_PCLK1)
 8004814:	687b      	ldr	r3, [r7, #4]
 8004816:	681b      	ldr	r3, [r3, #0]
 8004818:	f003 0304 	and.w	r3, r3, #4
 800481c:	2b00      	cmp	r3, #0
 800481e:	d008      	beq.n	8004832 <HAL_RCC_ClockConfig+0x166>
  {
    assert_param(IS_RCC_PCLK(RCC_ClkInitStruct->APB1CLKDivider));
    MODIFY_REG(RCC->CFGR, RCC_CFGR_PPRE1, RCC_ClkInitStruct->APB1CLKDivider);
 8004820:	4b19      	ldr	r3, [pc, #100]	@ (8004888 <HAL_RCC_ClockConfig+0x1bc>)
 8004822:	689b      	ldr	r3, [r3, #8]
 8004824:	f423 52e0 	bic.w	r2, r3, #7168	@ 0x1c00
 8004828:	687b      	ldr	r3, [r7, #4]
 800482a:	68db      	ldr	r3, [r3, #12]
 800482c:	4916      	ldr	r1, [pc, #88]	@ (8004888 <HAL_RCC_ClockConfig+0x1bc>)
 800482e:	4313      	orrs	r3, r2
 8004830:	608b      	str	r3, [r1, #8]
  }

  /*-------------------------- PCLK2 Configuration ---------------------------*/
  if (((RCC_ClkInitStruct->ClockType) & RCC_CLOCKTYPE_PCLK2) == RCC_CLOCKTYPE_PCLK2)
 8004832:	687b      	ldr	r3, [r7, #4]
 8004834:	681b      	ldr	r3, [r3, #0]
 8004836:	f003 0308 	and.w	r3, r3, #8
 800483a:	2b00      	cmp	r3, #0
 800483c:	d009      	beq.n	8004852 <HAL_RCC_ClockConfig+0x186>
  {
    assert_param(IS_RCC_PCLK(RCC_ClkInitStruct->APB2CLKDivider));
    MODIFY_REG(RCC->CFGR, RCC_CFGR_PPRE2, ((RCC_ClkInitStruct->APB2CLKDivider) << 3U));
 800483e:	4b12      	ldr	r3, [pc, #72]	@ (8004888 <HAL_RCC_ClockConfig+0x1bc>)
 8004840:	689b      	ldr	r3, [r3, #8]
 8004842:	f423 4260 	bic.w	r2, r3, #57344	@ 0xe000
 8004846:	687b      	ldr	r3, [r7, #4]
 8004848:	691b      	ldr	r3, [r3, #16]
 800484a:	00db      	lsls	r3, r3, #3
 800484c:	490e      	ldr	r1, [pc, #56]	@ (8004888 <HAL_RCC_ClockConfig+0x1bc>)
 800484e:	4313      	orrs	r3, r2
 8004850:	608b      	str	r3, [r1, #8]
  }

  /* Update the SystemCoreClock global variable */
  SystemCoreClock = HAL_RCC_GetSysClockFreq() >> AHBPrescTable[(RCC->CFGR & RCC_CFGR_HPRE) >> RCC_CFGR_HPRE_Pos];
 8004852:	f000 f855 	bl	8004900 <HAL_RCC_GetSysClockFreq>
 8004856:	4602      	mov	r2, r0
 8004858:	4b0b      	ldr	r3, [pc, #44]	@ (8004888 <HAL_RCC_ClockConfig+0x1bc>)
 800485a:	689b      	ldr	r3, [r3, #8]
 800485c:	091b      	lsrs	r3, r3, #4
 800485e:	f003 030f 	and.w	r3, r3, #15
 8004862:	490a      	ldr	r1, [pc, #40]	@ (800488c <HAL_RCC_ClockConfig+0x1c0>)
 8004864:	5ccb      	ldrb	r3, [r1, r3]
 8004866:	fa22 f303 	lsr.w	r3, r2, r3
 800486a:	4a09      	ldr	r2, [pc, #36]	@ (8004890 <HAL_RCC_ClockConfig+0x1c4>)
 800486c:	6013      	str	r3, [r2, #0]

  /* Configure the source of time base considering new system clocks settings */
  HAL_InitTick(uwTickPrio);
 800486e:	4b09      	ldr	r3, [pc, #36]	@ (8004894 <HAL_RCC_ClockConfig+0x1c8>)
 8004870:	681b      	ldr	r3, [r3, #0]
 8004872:	4618      	mov	r0, r3
 8004874:	f7fd ff20 	bl	80026b8 <HAL_InitTick>

  return HAL_OK;
 8004878:	2300      	movs	r3, #0
}
 800487a:	4618      	mov	r0, r3
 800487c:	3710      	adds	r7, #16
 800487e:	46bd      	mov	sp, r7
 8004880:	bd80      	pop	{r7, pc}
 8004882:	bf00      	nop
 8004884:	40023c00 	.word	0x40023c00
 8004888:	40023800 	.word	0x40023800
 800488c:	080088d0 	.word	0x080088d0
 8004890:	20000000 	.word	0x20000000
 8004894:	20000004 	.word	0x20000004

08004898 <HAL_RCC_GetHCLKFreq>:
  * @note   The SystemCoreClock CMSIS variable is used to store System Clock Frequency
  *         and updated within this function
  * @retval HCLK frequency
  */
uint32_t HAL_RCC_GetHCLKFreq(void)
{
 8004898:	b480      	push	{r7}
 800489a:	af00      	add	r7, sp, #0
  return SystemCoreClock;
 800489c:	4b03      	ldr	r3, [pc, #12]	@ (80048ac <HAL_RCC_GetHCLKFreq+0x14>)
 800489e:	681b      	ldr	r3, [r3, #0]
}
 80048a0:	4618      	mov	r0, r3
 80048a2:	46bd      	mov	sp, r7
 80048a4:	f85d 7b04 	ldr.w	r7, [sp], #4
 80048a8:	4770      	bx	lr
 80048aa:	bf00      	nop
 80048ac:	20000000 	.word	0x20000000

080048b0 <HAL_RCC_GetPCLK1Freq>:
  * @note   Each time PCLK1 changes, this function must be called to update the
  *         right PCLK1 value. Otherwise, any configuration based on this function will be incorrect.
  * @retval PCLK1 frequency
  */
uint32_t HAL_RCC_GetPCLK1Freq(void)
{
 80048b0:	b580      	push	{r7, lr}
 80048b2:	af00      	add	r7, sp, #0
  /* Get HCLK source and Compute PCLK1 frequency ---------------------------*/
  return (HAL_RCC_GetHCLKFreq() >> APBPrescTable[(RCC->CFGR & RCC_CFGR_PPRE1) >> RCC_CFGR_PPRE1_Pos]);
 80048b4:	f7ff fff0 	bl	8004898 <HAL_RCC_GetHCLKFreq>
 80048b8:	4602      	mov	r2, r0
 80048ba:	4b05      	ldr	r3, [pc, #20]	@ (80048d0 <HAL_RCC_GetPCLK1Freq+0x20>)
 80048bc:	689b      	ldr	r3, [r3, #8]
 80048be:	0a9b      	lsrs	r3, r3, #10
 80048c0:	f003 0307 	and.w	r3, r3, #7
 80048c4:	4903      	ldr	r1, [pc, #12]	@ (80048d4 <HAL_RCC_GetPCLK1Freq+0x24>)
 80048c6:	5ccb      	ldrb	r3, [r1, r3]
 80048c8:	fa22 f303 	lsr.w	r3, r2, r3
}
 80048cc:	4618      	mov	r0, r3
 80048ce:	bd80      	pop	{r7, pc}
 80048d0:	40023800 	.word	0x40023800
 80048d4:	080088e0 	.word	0x080088e0

080048d8 <HAL_RCC_GetPCLK2Freq>:
  * @note   Each time PCLK2 changes, this function must be called to update the
  *         right PCLK2 value. Otherwise, any configuration based on this function will be incorrect.
  * @retval PCLK2 frequency
  */
uint32_t HAL_RCC_GetPCLK2Freq(void)
{
 80048d8:	b580      	push	{r7, lr}
 80048da:	af00      	add	r7, sp, #0
  /* Get HCLK source and Compute PCLK2 frequency ---------------------------*/
  return (HAL_RCC_GetHCLKFreq() >> APBPrescTable[(RCC->CFGR & RCC_CFGR_PPRE2) >> RCC_CFGR_PPRE2_Pos]);
 80048dc:	f7ff ffdc 	bl	8004898 <HAL_RCC_GetHCLKFreq>
 80048e0:	4602      	mov	r2, r0
 80048e2:	4b05      	ldr	r3, [pc, #20]	@ (80048f8 <HAL_RCC_GetPCLK2Freq+0x20>)
 80048e4:	689b      	ldr	r3, [r3, #8]
 80048e6:	0b5b      	lsrs	r3, r3, #13
 80048e8:	f003 0307 	and.w	r3, r3, #7
 80048ec:	4903      	ldr	r1, [pc, #12]	@ (80048fc <HAL_RCC_GetPCLK2Freq+0x24>)
 80048ee:	5ccb      	ldrb	r3, [r1, r3]
 80048f0:	fa22 f303 	lsr.w	r3, r2, r3
}
 80048f4:	4618      	mov	r0, r3
 80048f6:	bd80      	pop	{r7, pc}
 80048f8:	40023800 	.word	0x40023800
 80048fc:	080088e0 	.word	0x080088e0

08004900 <HAL_RCC_GetSysClockFreq>:
  *
  *
  * @retval SYSCLK frequency
  */
uint32_t HAL_RCC_GetSysClockFreq(void)
{
 8004900:	e92d 4fb0 	stmdb	sp!, {r4, r5, r7, r8, r9, sl, fp, lr}
 8004904:	b0ae      	sub	sp, #184	@ 0xb8
 8004906:	af00      	add	r7, sp, #0
  uint32_t pllm = 0U;
 8004908:	2300      	movs	r3, #0
 800490a:	f8c7 30ac 	str.w	r3, [r7, #172]	@ 0xac
  uint32_t pllvco = 0U;
 800490e:	2300      	movs	r3, #0
 8004910:	f8c7 30b4 	str.w	r3, [r7, #180]	@ 0xb4
  uint32_t pllp = 0U;
 8004914:	2300      	movs	r3, #0
 8004916:	f8c7 30a8 	str.w	r3, [r7, #168]	@ 0xa8
  uint32_t pllr = 0U;
 800491a:	2300      	movs	r3, #0
 800491c:	f8c7 30a4 	str.w	r3, [r7, #164]	@ 0xa4
  uint32_t sysclockfreq = 0U;
 8004920:	2300      	movs	r3, #0
 8004922:	f8c7 30b0 	str.w	r3, [r7, #176]	@ 0xb0

  /* Get SYSCLK source -------------------------------------------------------*/
  switch (RCC->CFGR & RCC_CFGR_SWS)
 8004926:	4bcb      	ldr	r3, [pc, #812]	@ (8004c54 <HAL_RCC_GetSysClockFreq+0x354>)
 8004928:	689b      	ldr	r3, [r3, #8]
 800492a:	f003 030c 	and.w	r3, r3, #12
 800492e:	2b0c      	cmp	r3, #12
 8004930:	f200 8206 	bhi.w	8004d40 <HAL_RCC_GetSysClockFreq+0x440>
 8004934:	a201      	add	r2, pc, #4	@ (adr r2, 800493c <HAL_RCC_GetSysClockFreq+0x3c>)
 8004936:	f852 f023 	ldr.w	pc, [r2, r3, lsl #2]
 800493a:	bf00      	nop
 800493c:	08004971 	.word	0x08004971
 8004940:	08004d41 	.word	0x08004d41
 8004944:	08004d41 	.word	0x08004d41
 8004948:	08004d41 	.word	0x08004d41
 800494c:	08004979 	.word	0x08004979
 8004950:	08004d41 	.word	0x08004d41
 8004954:	08004d41 	.word	0x08004d41
 8004958:	08004d41 	.word	0x08004d41
 800495c:	08004981 	.word	0x08004981
 8004960:	08004d41 	.word	0x08004d41
 8004964:	08004d41 	.word	0x08004d41
 8004968:	08004d41 	.word	0x08004d41
 800496c:	08004b71 	.word	0x08004b71
  {
    case RCC_CFGR_SWS_HSI:  /* HSI used as system clock source */
    {
      sysclockfreq = HSI_VALUE;
 8004970:	4bb9      	ldr	r3, [pc, #740]	@ (8004c58 <HAL_RCC_GetSysClockFreq+0x358>)
 8004972:	f8c7 30b0 	str.w	r3, [r7, #176]	@ 0xb0
      break;
 8004976:	e1e7      	b.n	8004d48 <HAL_RCC_GetSysClockFreq+0x448>
    }
    case RCC_CFGR_SWS_HSE:  /* HSE used as system clock  source */
    {
      sysclockfreq = HSE_VALUE;
 8004978:	4bb8      	ldr	r3, [pc, #736]	@ (8004c5c <HAL_RCC_GetSysClockFreq+0x35c>)
 800497a:	f8c7 30b0 	str.w	r3, [r7, #176]	@ 0xb0
      break;
 800497e:	e1e3      	b.n	8004d48 <HAL_RCC_GetSysClockFreq+0x448>
    }
    case RCC_CFGR_SWS_PLL:  /* PLL/PLLP used as system clock  source */
    {
      /* PLL_VCO = (HSE_VALUE or HSI_VALUE / PLLM) * PLLN
      SYSCLK = PLL_VCO / PLLP */
      pllm = RCC->PLLCFGR & RCC_PLLCFGR_PLLM;
 8004980:	4bb4      	ldr	r3, [pc, #720]	@ (8004c54 <HAL_RCC_GetSysClockFreq+0x354>)
 8004982:	685b      	ldr	r3, [r3, #4]
 8004984:	f003 033f 	and.w	r3, r3, #63	@ 0x3f
 8004988:	f8c7 30ac 	str.w	r3, [r7, #172]	@ 0xac
      if (__HAL_RCC_GET_PLL_OSCSOURCE() != RCC_PLLSOURCE_HSI)
 800498c:	4bb1      	ldr	r3, [pc, #708]	@ (8004c54 <HAL_RCC_GetSysClockFreq+0x354>)
 800498e:	685b      	ldr	r3, [r3, #4]
 8004990:	f403 0380 	and.w	r3, r3, #4194304	@ 0x400000
 8004994:	2b00      	cmp	r3, #0
 8004996:	d071      	beq.n	8004a7c <HAL_RCC_GetSysClockFreq+0x17c>
      {
        /* HSE used as PLL clock source */
        pllvco = (uint32_t)((((uint64_t) HSE_VALUE * ((uint64_t)((RCC->PLLCFGR & RCC_PLLCFGR_PLLN) >> RCC_PLLCFGR_PLLN_Pos)))) / (uint64_t)pllm);
 8004998:	4bae      	ldr	r3, [pc, #696]	@ (8004c54 <HAL_RCC_GetSysClockFreq+0x354>)
 800499a:	685b      	ldr	r3, [r3, #4]
 800499c:	099b      	lsrs	r3, r3, #6
 800499e:	2200      	movs	r2, #0
 80049a0:	f8c7 3098 	str.w	r3, [r7, #152]	@ 0x98
 80049a4:	f8c7 209c 	str.w	r2, [r7, #156]	@ 0x9c
 80049a8:	f8d7 3098 	ldr.w	r3, [r7, #152]	@ 0x98
 80049ac:	f3c3 0308 	ubfx	r3, r3, #0, #9
 80049b0:	f8c7 3090 	str.w	r3, [r7, #144]	@ 0x90
 80049b4:	2300      	movs	r3, #0
 80049b6:	f8c7 3094 	str.w	r3, [r7, #148]	@ 0x94
 80049ba:	e9d7 4524 	ldrd	r4, r5, [r7, #144]	@ 0x90
 80049be:	4622      	mov	r2, r4
 80049c0:	462b      	mov	r3, r5
 80049c2:	f04f 0000 	mov.w	r0, #0
 80049c6:	f04f 0100 	mov.w	r1, #0
 80049ca:	0159      	lsls	r1, r3, #5
 80049cc:	ea41 61d2 	orr.w	r1, r1, r2, lsr #27
 80049d0:	0150      	lsls	r0, r2, #5
 80049d2:	4602      	mov	r2, r0
 80049d4:	460b      	mov	r3, r1
 80049d6:	4621      	mov	r1, r4
 80049d8:	1a51      	subs	r1, r2, r1
 80049da:	6439      	str	r1, [r7, #64]	@ 0x40
 80049dc:	4629      	mov	r1, r5
 80049de:	eb63 0301 	sbc.w	r3, r3, r1
 80049e2:	647b      	str	r3, [r7, #68]	@ 0x44
 80049e4:	f04f 0200 	mov.w	r2, #0
 80049e8:	f04f 0300 	mov.w	r3, #0
 80049ec:	e9d7 8910 	ldrd	r8, r9, [r7, #64]	@ 0x40
 80049f0:	4649      	mov	r1, r9
 80049f2:	018b      	lsls	r3, r1, #6
 80049f4:	4641      	mov	r1, r8
 80049f6:	ea43 6391 	orr.w	r3, r3, r1, lsr #26
 80049fa:	4641      	mov	r1, r8
 80049fc:	018a      	lsls	r2, r1, #6
 80049fe:	4641      	mov	r1, r8
 8004a00:	1a51      	subs	r1, r2, r1
 8004a02:	63b9      	str	r1, [r7, #56]	@ 0x38
 8004a04:	4649      	mov	r1, r9
 8004a06:	eb63 0301 	sbc.w	r3, r3, r1
 8004a0a:	63fb      	str	r3, [r7, #60]	@ 0x3c
 8004a0c:	f04f 0200 	mov.w	r2, #0
 8004a10:	f04f 0300 	mov.w	r3, #0
 8004a14:	e9d7 890e 	ldrd	r8, r9, [r7, #56]	@ 0x38
 8004a18:	4649      	mov	r1, r9
 8004a1a:	00cb      	lsls	r3, r1, #3
 8004a1c:	4641      	mov	r1, r8
 8004a1e:	ea43 7351 	orr.w	r3, r3, r1, lsr #29
 8004a22:	4641      	mov	r1, r8
 8004a24:	00ca      	lsls	r2, r1, #3
 8004a26:	4610      	mov	r0, r2
 8004a28:	4619      	mov	r1, r3
 8004a2a:	4603      	mov	r3, r0
 8004a2c:	4622      	mov	r2, r4
 8004a2e:	189b      	adds	r3, r3, r2
 8004a30:	633b      	str	r3, [r7, #48]	@ 0x30
 8004a32:	462b      	mov	r3, r5
 8004a34:	460a      	mov	r2, r1
 8004a36:	eb42 0303 	adc.w	r3, r2, r3
 8004a3a:	637b      	str	r3, [r7, #52]	@ 0x34
 8004a3c:	f04f 0200 	mov.w	r2, #0
 8004a40:	f04f 0300 	mov.w	r3, #0
 8004a44:	e9d7 450c 	ldrd	r4, r5, [r7, #48]	@ 0x30
 8004a48:	4629      	mov	r1, r5
 8004a4a:	024b      	lsls	r3, r1, #9
 8004a4c:	4621      	mov	r1, r4
 8004a4e:	ea43 53d1 	orr.w	r3, r3, r1, lsr #23
 8004a52:	4621      	mov	r1, r4
 8004a54:	024a      	lsls	r2, r1, #9
 8004a56:	4610      	mov	r0, r2
 8004a58:	4619      	mov	r1, r3
 8004a5a:	f8d7 30ac 	ldr.w	r3, [r7, #172]	@ 0xac
 8004a5e:	2200      	movs	r2, #0
 8004a60:	f8c7 3088 	str.w	r3, [r7, #136]	@ 0x88
 8004a64:	f8c7 208c 	str.w	r2, [r7, #140]	@ 0x8c
 8004a68:	e9d7 2322 	ldrd	r2, r3, [r7, #136]	@ 0x88
 8004a6c:	f7fc f90c 	bl	8000c88 <__aeabi_uldivmod>
 8004a70:	4602      	mov	r2, r0
 8004a72:	460b      	mov	r3, r1
 8004a74:	4613      	mov	r3, r2
 8004a76:	f8c7 30b4 	str.w	r3, [r7, #180]	@ 0xb4
 8004a7a:	e067      	b.n	8004b4c <HAL_RCC_GetSysClockFreq+0x24c>
      }
      else
      {
        /* HSI used as PLL clock source */
        pllvco = (uint32_t)((((uint64_t) HSI_VALUE * ((uint64_t)((RCC->PLLCFGR & RCC_PLLCFGR_PLLN) >> RCC_PLLCFGR_PLLN_Pos)))) / (uint64_t)pllm);
 8004a7c:	4b75      	ldr	r3, [pc, #468]	@ (8004c54 <HAL_RCC_GetSysClockFreq+0x354>)
 8004a7e:	685b      	ldr	r3, [r3, #4]
 8004a80:	099b      	lsrs	r3, r3, #6
 8004a82:	2200      	movs	r2, #0
 8004a84:	f8c7 3080 	str.w	r3, [r7, #128]	@ 0x80
 8004a88:	f8c7 2084 	str.w	r2, [r7, #132]	@ 0x84
 8004a8c:	f8d7 3080 	ldr.w	r3, [r7, #128]	@ 0x80
 8004a90:	f3c3 0308 	ubfx	r3, r3, #0, #9
 8004a94:	67bb      	str	r3, [r7, #120]	@ 0x78
 8004a96:	2300      	movs	r3, #0
 8004a98:	67fb      	str	r3, [r7, #124]	@ 0x7c
 8004a9a:	e9d7 451e 	ldrd	r4, r5, [r7, #120]	@ 0x78
 8004a9e:	4622      	mov	r2, r4
 8004aa0:	462b      	mov	r3, r5
 8004aa2:	f04f 0000 	mov.w	r0, #0
 8004aa6:	f04f 0100 	mov.w	r1, #0
 8004aaa:	0159      	lsls	r1, r3, #5
 8004aac:	ea41 61d2 	orr.w	r1, r1, r2, lsr #27
 8004ab0:	0150      	lsls	r0, r2, #5
 8004ab2:	4602      	mov	r2, r0
 8004ab4:	460b      	mov	r3, r1
 8004ab6:	4621      	mov	r1, r4
 8004ab8:	1a51      	subs	r1, r2, r1
 8004aba:	62b9      	str	r1, [r7, #40]	@ 0x28
 8004abc:	4629      	mov	r1, r5
 8004abe:	eb63 0301 	sbc.w	r3, r3, r1
 8004ac2:	62fb      	str	r3, [r7, #44]	@ 0x2c
 8004ac4:	f04f 0200 	mov.w	r2, #0
 8004ac8:	f04f 0300 	mov.w	r3, #0
 8004acc:	e9d7 890a 	ldrd	r8, r9, [r7, #40]	@ 0x28
 8004ad0:	4649      	mov	r1, r9
 8004ad2:	018b      	lsls	r3, r1, #6
 8004ad4:	4641      	mov	r1, r8
 8004ad6:	ea43 6391 	orr.w	r3, r3, r1, lsr #26
 8004ada:	4641      	mov	r1, r8
 8004adc:	018a      	lsls	r2, r1, #6
 8004ade:	4641      	mov	r1, r8
 8004ae0:	ebb2 0a01 	subs.w	sl, r2, r1
 8004ae4:	4649      	mov	r1, r9
 8004ae6:	eb63 0b01 	sbc.w	fp, r3, r1
 8004aea:	f04f 0200 	mov.w	r2, #0
 8004aee:	f04f 0300 	mov.w	r3, #0
 8004af2:	ea4f 03cb 	mov.w	r3, fp, lsl #3
 8004af6:	ea43 735a 	orr.w	r3, r3, sl, lsr #29
 8004afa:	ea4f 02ca 	mov.w	r2, sl, lsl #3
 8004afe:	4692      	mov	sl, r2
 8004b00:	469b      	mov	fp, r3
 8004b02:	4623      	mov	r3, r4
 8004b04:	eb1a 0303 	adds.w	r3, sl, r3
 8004b08:	623b      	str	r3, [r7, #32]
 8004b0a:	462b      	mov	r3, r5
 8004b0c:	eb4b 0303 	adc.w	r3, fp, r3
 8004b10:	627b      	str	r3, [r7, #36]	@ 0x24
 8004b12:	f04f 0200 	mov.w	r2, #0
 8004b16:	f04f 0300 	mov.w	r3, #0
 8004b1a:	e9d7 4508 	ldrd	r4, r5, [r7, #32]
 8004b1e:	4629      	mov	r1, r5
 8004b20:	028b      	lsls	r3, r1, #10
 8004b22:	4621      	mov	r1, r4
 8004b24:	ea43 5391 	orr.w	r3, r3, r1, lsr #22
 8004b28:	4621      	mov	r1, r4
 8004b2a:	028a      	lsls	r2, r1, #10
 8004b2c:	4610      	mov	r0, r2
 8004b2e:	4619      	mov	r1, r3
 8004b30:	f8d7 30ac 	ldr.w	r3, [r7, #172]	@ 0xac
 8004b34:	2200      	movs	r2, #0
 8004b36:	673b      	str	r3, [r7, #112]	@ 0x70
 8004b38:	677a      	str	r2, [r7, #116]	@ 0x74
 8004b3a:	e9d7 231c 	ldrd	r2, r3, [r7, #112]	@ 0x70
 8004b3e:	f7fc f8a3 	bl	8000c88 <__aeabi_uldivmod>
 8004b42:	4602      	mov	r2, r0
 8004b44:	460b      	mov	r3, r1
 8004b46:	4613      	mov	r3, r2
 8004b48:	f8c7 30b4 	str.w	r3, [r7, #180]	@ 0xb4
      }
      pllp = ((((RCC->PLLCFGR & RCC_PLLCFGR_PLLP) >> RCC_PLLCFGR_PLLP_Pos) + 1U) * 2U);
 8004b4c:	4b41      	ldr	r3, [pc, #260]	@ (8004c54 <HAL_RCC_GetSysClockFreq+0x354>)
 8004b4e:	685b      	ldr	r3, [r3, #4]
 8004b50:	0c1b      	lsrs	r3, r3, #16
 8004b52:	f003 0303 	and.w	r3, r3, #3
 8004b56:	3301      	adds	r3, #1
 8004b58:	005b      	lsls	r3, r3, #1
 8004b5a:	f8c7 30a8 	str.w	r3, [r7, #168]	@ 0xa8

      sysclockfreq = pllvco / pllp;
 8004b5e:	f8d7 20b4 	ldr.w	r2, [r7, #180]	@ 0xb4
 8004b62:	f8d7 30a8 	ldr.w	r3, [r7, #168]	@ 0xa8
 8004b66:	fbb2 f3f3 	udiv	r3, r2, r3
 8004b6a:	f8c7 30b0 	str.w	r3, [r7, #176]	@ 0xb0
      break;
 8004b6e:	e0eb      	b.n	8004d48 <HAL_RCC_GetSysClockFreq+0x448>
    }
    case RCC_CFGR_SWS_PLLR:  /* PLL/PLLR used as system clock  source */
    {
      /* PLL_VCO = (HSE_VALUE or HSI_VALUE / PLLM) * PLLN
      SYSCLK = PLL_VCO / PLLR */
      pllm = RCC->PLLCFGR & RCC_PLLCFGR_PLLM;
 8004b70:	4b38      	ldr	r3, [pc, #224]	@ (8004c54 <HAL_RCC_GetSysClockFreq+0x354>)
 8004b72:	685b      	ldr	r3, [r3, #4]
 8004b74:	f003 033f 	and.w	r3, r3, #63	@ 0x3f
 8004b78:	f8c7 30ac 	str.w	r3, [r7, #172]	@ 0xac
      if (__HAL_RCC_GET_PLL_OSCSOURCE() != RCC_PLLSOURCE_HSI)
 8004b7c:	4b35      	ldr	r3, [pc, #212]	@ (8004c54 <HAL_RCC_GetSysClockFreq+0x354>)
 8004b7e:	685b      	ldr	r3, [r3, #4]
 8004b80:	f403 0380 	and.w	r3, r3, #4194304	@ 0x400000
 8004b84:	2b00      	cmp	r3, #0
 8004b86:	d06b      	beq.n	8004c60 <HAL_RCC_GetSysClockFreq+0x360>
      {
        /* HSE used as PLL clock source */
        pllvco = (uint32_t)((((uint64_t) HSE_VALUE * ((uint64_t)((RCC->PLLCFGR & RCC_PLLCFGR_PLLN) >> RCC_PLLCFGR_PLLN_Pos)))) / (uint64_t)pllm);
 8004b88:	4b32      	ldr	r3, [pc, #200]	@ (8004c54 <HAL_RCC_GetSysClockFreq+0x354>)
 8004b8a:	685b      	ldr	r3, [r3, #4]
 8004b8c:	099b      	lsrs	r3, r3, #6
 8004b8e:	2200      	movs	r2, #0
 8004b90:	66bb      	str	r3, [r7, #104]	@ 0x68
 8004b92:	66fa      	str	r2, [r7, #108]	@ 0x6c
 8004b94:	6ebb      	ldr	r3, [r7, #104]	@ 0x68
 8004b96:	f3c3 0308 	ubfx	r3, r3, #0, #9
 8004b9a:	663b      	str	r3, [r7, #96]	@ 0x60
 8004b9c:	2300      	movs	r3, #0
 8004b9e:	667b      	str	r3, [r7, #100]	@ 0x64
 8004ba0:	e9d7 4518 	ldrd	r4, r5, [r7, #96]	@ 0x60
 8004ba4:	4622      	mov	r2, r4
 8004ba6:	462b      	mov	r3, r5
 8004ba8:	f04f 0000 	mov.w	r0, #0
 8004bac:	f04f 0100 	mov.w	r1, #0
 8004bb0:	0159      	lsls	r1, r3, #5
 8004bb2:	ea41 61d2 	orr.w	r1, r1, r2, lsr #27
 8004bb6:	0150      	lsls	r0, r2, #5
 8004bb8:	4602      	mov	r2, r0
 8004bba:	460b      	mov	r3, r1
 8004bbc:	4621      	mov	r1, r4
 8004bbe:	1a51      	subs	r1, r2, r1
 8004bc0:	61b9      	str	r1, [r7, #24]
 8004bc2:	4629      	mov	r1, r5
 8004bc4:	eb63 0301 	sbc.w	r3, r3, r1
 8004bc8:	61fb      	str	r3, [r7, #28]
 8004bca:	f04f 0200 	mov.w	r2, #0
 8004bce:	f04f 0300 	mov.w	r3, #0
 8004bd2:	e9d7 ab06 	ldrd	sl, fp, [r7, #24]
 8004bd6:	4659      	mov	r1, fp
 8004bd8:	018b      	lsls	r3, r1, #6
 8004bda:	4651      	mov	r1, sl
 8004bdc:	ea43 6391 	orr.w	r3, r3, r1, lsr #26
 8004be0:	4651      	mov	r1, sl
 8004be2:	018a      	lsls	r2, r1, #6
 8004be4:	4651      	mov	r1, sl
 8004be6:	ebb2 0801 	subs.w	r8, r2, r1
 8004bea:	4659      	mov	r1, fp
 8004bec:	eb63 0901 	sbc.w	r9, r3, r1
 8004bf0:	f04f 0200 	mov.w	r2, #0
 8004bf4:	f04f 0300 	mov.w	r3, #0
 8004bf8:	ea4f 03c9 	mov.w	r3, r9, lsl #3
 8004bfc:	ea43 7358 	orr.w	r3, r3, r8, lsr #29
 8004c00:	ea4f 02c8 	mov.w	r2, r8, lsl #3
 8004c04:	4690      	mov	r8, r2
 8004c06:	4699      	mov	r9, r3
 8004c08:	4623      	mov	r3, r4
 8004c0a:	eb18 0303 	adds.w	r3, r8, r3
 8004c0e:	613b      	str	r3, [r7, #16]
 8004c10:	462b      	mov	r3, r5
 8004c12:	eb49 0303 	adc.w	r3, r9, r3
 8004c16:	617b      	str	r3, [r7, #20]
 8004c18:	f04f 0200 	mov.w	r2, #0
 8004c1c:	f04f 0300 	mov.w	r3, #0
 8004c20:	e9d7 4504 	ldrd	r4, r5, [r7, #16]
 8004c24:	4629      	mov	r1, r5
 8004c26:	024b      	lsls	r3, r1, #9
 8004c28:	4621      	mov	r1, r4
 8004c2a:	ea43 53d1 	orr.w	r3, r3, r1, lsr #23
 8004c2e:	4621      	mov	r1, r4
 8004c30:	024a      	lsls	r2, r1, #9
 8004c32:	4610      	mov	r0, r2
 8004c34:	4619      	mov	r1, r3
 8004c36:	f8d7 30ac 	ldr.w	r3, [r7, #172]	@ 0xac
 8004c3a:	2200      	movs	r2, #0
 8004c3c:	65bb      	str	r3, [r7, #88]	@ 0x58
 8004c3e:	65fa      	str	r2, [r7, #92]	@ 0x5c
 8004c40:	e9d7 2316 	ldrd	r2, r3, [r7, #88]	@ 0x58
 8004c44:	f7fc f820 	bl	8000c88 <__aeabi_uldivmod>
 8004c48:	4602      	mov	r2, r0
 8004c4a:	460b      	mov	r3, r1
 8004c4c:	4613      	mov	r3, r2
 8004c4e:	f8c7 30b4 	str.w	r3, [r7, #180]	@ 0xb4
 8004c52:	e065      	b.n	8004d20 <HAL_RCC_GetSysClockFreq+0x420>
 8004c54:	40023800 	.word	0x40023800
 8004c58:	00f42400 	.word	0x00f42400
 8004c5c:	007a1200 	.word	0x007a1200
      }
      else
      {
        /* HSI used as PLL clock source */
        pllvco = (uint32_t)((((uint64_t) HSI_VALUE * ((uint64_t)((RCC->PLLCFGR & RCC_PLLCFGR_PLLN) >> RCC_PLLCFGR_PLLN_Pos)))) / (uint64_t)pllm);
 8004c60:	4b3d      	ldr	r3, [pc, #244]	@ (8004d58 <HAL_RCC_GetSysClockFreq+0x458>)
 8004c62:	685b      	ldr	r3, [r3, #4]
 8004c64:	099b      	lsrs	r3, r3, #6
 8004c66:	2200      	movs	r2, #0
 8004c68:	4618      	mov	r0, r3
 8004c6a:	4611      	mov	r1, r2
 8004c6c:	f3c0 0308 	ubfx	r3, r0, #0, #9
 8004c70:	653b      	str	r3, [r7, #80]	@ 0x50
 8004c72:	2300      	movs	r3, #0
 8004c74:	657b      	str	r3, [r7, #84]	@ 0x54
 8004c76:	e9d7 8914 	ldrd	r8, r9, [r7, #80]	@ 0x50
 8004c7a:	4642      	mov	r2, r8
 8004c7c:	464b      	mov	r3, r9
 8004c7e:	f04f 0000 	mov.w	r0, #0
 8004c82:	f04f 0100 	mov.w	r1, #0
 8004c86:	0159      	lsls	r1, r3, #5
 8004c88:	ea41 61d2 	orr.w	r1, r1, r2, lsr #27
 8004c8c:	0150      	lsls	r0, r2, #5
 8004c8e:	4602      	mov	r2, r0
 8004c90:	460b      	mov	r3, r1
 8004c92:	4641      	mov	r1, r8
 8004c94:	1a51      	subs	r1, r2, r1
 8004c96:	60b9      	str	r1, [r7, #8]
 8004c98:	4649      	mov	r1, r9
 8004c9a:	eb63 0301 	sbc.w	r3, r3, r1
 8004c9e:	60fb      	str	r3, [r7, #12]
 8004ca0:	f04f 0200 	mov.w	r2, #0
 8004ca4:	f04f 0300 	mov.w	r3, #0
 8004ca8:	e9d7 ab02 	ldrd	sl, fp, [r7, #8]
 8004cac:	4659      	mov	r1, fp
 8004cae:	018b      	lsls	r3, r1, #6
 8004cb0:	4651      	mov	r1, sl
 8004cb2:	ea43 6391 	orr.w	r3, r3, r1, lsr #26
 8004cb6:	4651      	mov	r1, sl
 8004cb8:	018a      	lsls	r2, r1, #6
 8004cba:	4651      	mov	r1, sl
 8004cbc:	1a54      	subs	r4, r2, r1
 8004cbe:	4659      	mov	r1, fp
 8004cc0:	eb63 0501 	sbc.w	r5, r3, r1
 8004cc4:	f04f 0200 	mov.w	r2, #0
 8004cc8:	f04f 0300 	mov.w	r3, #0
 8004ccc:	00eb      	lsls	r3, r5, #3
 8004cce:	ea43 7354 	orr.w	r3, r3, r4, lsr #29
 8004cd2:	00e2      	lsls	r2, r4, #3
 8004cd4:	4614      	mov	r4, r2
 8004cd6:	461d      	mov	r5, r3
 8004cd8:	4643      	mov	r3, r8
 8004cda:	18e3      	adds	r3, r4, r3
 8004cdc:	603b      	str	r3, [r7, #0]
 8004cde:	464b      	mov	r3, r9
 8004ce0:	eb45 0303 	adc.w	r3, r5, r3
 8004ce4:	607b      	str	r3, [r7, #4]
 8004ce6:	f04f 0200 	mov.w	r2, #0
 8004cea:	f04f 0300 	mov.w	r3, #0
 8004cee:	e9d7 4500 	ldrd	r4, r5, [r7]
 8004cf2:	4629      	mov	r1, r5
 8004cf4:	028b      	lsls	r3, r1, #10
 8004cf6:	4621      	mov	r1, r4
 8004cf8:	ea43 5391 	orr.w	r3, r3, r1, lsr #22
 8004cfc:	4621      	mov	r1, r4
 8004cfe:	028a      	lsls	r2, r1, #10
 8004d00:	4610      	mov	r0, r2
 8004d02:	4619      	mov	r1, r3
 8004d04:	f8d7 30ac 	ldr.w	r3, [r7, #172]	@ 0xac
 8004d08:	2200      	movs	r2, #0
 8004d0a:	64bb      	str	r3, [r7, #72]	@ 0x48
 8004d0c:	64fa      	str	r2, [r7, #76]	@ 0x4c
 8004d0e:	e9d7 2312 	ldrd	r2, r3, [r7, #72]	@ 0x48
 8004d12:	f7fb ffb9 	bl	8000c88 <__aeabi_uldivmod>
 8004d16:	4602      	mov	r2, r0
 8004d18:	460b      	mov	r3, r1
 8004d1a:	4613      	mov	r3, r2
 8004d1c:	f8c7 30b4 	str.w	r3, [r7, #180]	@ 0xb4
      }
      pllr = ((RCC->PLLCFGR & RCC_PLLCFGR_PLLR) >> RCC_PLLCFGR_PLLR_Pos);
 8004d20:	4b0d      	ldr	r3, [pc, #52]	@ (8004d58 <HAL_RCC_GetSysClockFreq+0x458>)
 8004d22:	685b      	ldr	r3, [r3, #4]
 8004d24:	0f1b      	lsrs	r3, r3, #28
 8004d26:	f003 0307 	and.w	r3, r3, #7
 8004d2a:	f8c7 30a4 	str.w	r3, [r7, #164]	@ 0xa4

      sysclockfreq = pllvco / pllr;
 8004d2e:	f8d7 20b4 	ldr.w	r2, [r7, #180]	@ 0xb4
 8004d32:	f8d7 30a4 	ldr.w	r3, [r7, #164]	@ 0xa4
 8004d36:	fbb2 f3f3 	udiv	r3, r2, r3
 8004d3a:	f8c7 30b0 	str.w	r3, [r7, #176]	@ 0xb0
      break;
 8004d3e:	e003      	b.n	8004d48 <HAL_RCC_GetSysClockFreq+0x448>
    }
    default:
    {
      sysclockfreq = HSI_VALUE;
 8004d40:	4b06      	ldr	r3, [pc, #24]	@ (8004d5c <HAL_RCC_GetSysClockFreq+0x45c>)
 8004d42:	f8c7 30b0 	str.w	r3, [r7, #176]	@ 0xb0
      break;
 8004d46:	bf00      	nop
    }
  }
  return sysclockfreq;
 8004d48:	f8d7 30b0 	ldr.w	r3, [r7, #176]	@ 0xb0
}
 8004d4c:	4618      	mov	r0, r3
 8004d4e:	37b8      	adds	r7, #184	@ 0xb8
 8004d50:	46bd      	mov	sp, r7
 8004d52:	e8bd 8fb0 	ldmia.w	sp!, {r4, r5, r7, r8, r9, sl, fp, pc}
 8004d56:	bf00      	nop
 8004d58:	40023800 	.word	0x40023800
 8004d5c:	00f42400 	.word	0x00f42400

08004d60 <HAL_RCC_OscConfig>:
  * @note   This function add the PLL/PLLR factor management during PLL configuration this feature
  *         is only available in STM32F410xx/STM32F446xx/STM32F469xx/STM32F479xx/STM32F412Zx/STM32F412Vx/STM32F412Rx/STM32F412Cx devices
  * @retval HAL status
  */
HAL_StatusTypeDef HAL_RCC_OscConfig(RCC_OscInitTypeDef  *RCC_OscInitStruct)
{
 8004d60:	b580      	push	{r7, lr}
 8004d62:	b086      	sub	sp, #24
 8004d64:	af00      	add	r7, sp, #0
 8004d66:	6078      	str	r0, [r7, #4]
  uint32_t tickstart;
  uint32_t pll_config;

  /* Check Null pointer */
  if (RCC_OscInitStruct == NULL)
 8004d68:	687b      	ldr	r3, [r7, #4]
 8004d6a:	2b00      	cmp	r3, #0
 8004d6c:	d101      	bne.n	8004d72 <HAL_RCC_OscConfig+0x12>
  {
    return HAL_ERROR;
 8004d6e:	2301      	movs	r3, #1
 8004d70:	e28d      	b.n	800528e <HAL_RCC_OscConfig+0x52e>
  }

  /* Check the parameters */
  assert_param(IS_RCC_OSCILLATORTYPE(RCC_OscInitStruct->OscillatorType));
  /*------------------------------- HSE Configuration ------------------------*/
  if (((RCC_OscInitStruct->OscillatorType) & RCC_OSCILLATORTYPE_HSE) == RCC_OSCILLATORTYPE_HSE)
 8004d72:	687b      	ldr	r3, [r7, #4]
 8004d74:	681b      	ldr	r3, [r3, #0]
 8004d76:	f003 0301 	and.w	r3, r3, #1
 8004d7a:	2b00      	cmp	r3, #0
 8004d7c:	f000 8083 	beq.w	8004e86 <HAL_RCC_OscConfig+0x126>
  {
    /* Check the parameters */
    assert_param(IS_RCC_HSE(RCC_OscInitStruct->HSEState));
    /* When the HSE is used as system clock or clock source for PLL in these cases HSE will not disabled */
#if defined(STM32F446xx)
    if ((__HAL_RCC_GET_SYSCLK_SOURCE() == RCC_CFGR_SWS_HSE)
 8004d80:	4b94      	ldr	r3, [pc, #592]	@ (8004fd4 <HAL_RCC_OscConfig+0x274>)
 8004d82:	689b      	ldr	r3, [r3, #8]
 8004d84:	f003 030c 	and.w	r3, r3, #12
 8004d88:	2b04      	cmp	r3, #4
 8004d8a:	d019      	beq.n	8004dc0 <HAL_RCC_OscConfig+0x60>
        || \
        ((__HAL_RCC_GET_SYSCLK_SOURCE() == RCC_CFGR_SWS_PLL) && ((RCC->PLLCFGR & RCC_PLLCFGR_PLLSRC) == RCC_PLLCFGR_PLLSRC_HSE)) || \
 8004d8c:	4b91      	ldr	r3, [pc, #580]	@ (8004fd4 <HAL_RCC_OscConfig+0x274>)
 8004d8e:	689b      	ldr	r3, [r3, #8]
 8004d90:	f003 030c 	and.w	r3, r3, #12
        || \
 8004d94:	2b08      	cmp	r3, #8
 8004d96:	d106      	bne.n	8004da6 <HAL_RCC_OscConfig+0x46>
        ((__HAL_RCC_GET_SYSCLK_SOURCE() == RCC_CFGR_SWS_PLL) && ((RCC->PLLCFGR & RCC_PLLCFGR_PLLSRC) == RCC_PLLCFGR_PLLSRC_HSE)) || \
 8004d98:	4b8e      	ldr	r3, [pc, #568]	@ (8004fd4 <HAL_RCC_OscConfig+0x274>)
 8004d9a:	685b      	ldr	r3, [r3, #4]
 8004d9c:	f403 0380 	and.w	r3, r3, #4194304	@ 0x400000
 8004da0:	f5b3 0f80 	cmp.w	r3, #4194304	@ 0x400000
 8004da4:	d00c      	beq.n	8004dc0 <HAL_RCC_OscConfig+0x60>
        ((__HAL_RCC_GET_SYSCLK_SOURCE() == RCC_CFGR_SWS_PLLR) && ((RCC->PLLCFGR & RCC_PLLCFGR_PLLSRC) == RCC_PLLCFGR_PLLSRC_HSE)))
 8004da6:	4b8b      	ldr	r3, [pc, #556]	@ (8004fd4 <HAL_RCC_OscConfig+0x274>)
 8004da8:	689b      	ldr	r3, [r3, #8]
 8004daa:	f003 030c 	and.w	r3, r3, #12
        ((__HAL_RCC_GET_SYSCLK_SOURCE() == RCC_CFGR_SWS_PLL) && ((RCC->PLLCFGR & RCC_PLLCFGR_PLLSRC) == RCC_PLLCFGR_PLLSRC_HSE)) || \
 8004dae:	2b0c      	cmp	r3, #12
 8004db0:	d112      	bne.n	8004dd8 <HAL_RCC_OscConfig+0x78>
        ((__HAL_RCC_GET_SYSCLK_SOURCE() == RCC_CFGR_SWS_PLLR) && ((RCC->PLLCFGR & RCC_PLLCFGR_PLLSRC) == RCC_PLLCFGR_PLLSRC_HSE)))
 8004db2:	4b88      	ldr	r3, [pc, #544]	@ (8004fd4 <HAL_RCC_OscConfig+0x274>)
 8004db4:	685b      	ldr	r3, [r3, #4]
 8004db6:	f403 0380 	and.w	r3, r3, #4194304	@ 0x400000
 8004dba:	f5b3 0f80 	cmp.w	r3, #4194304	@ 0x400000
 8004dbe:	d10b      	bne.n	8004dd8 <HAL_RCC_OscConfig+0x78>
    if ((__HAL_RCC_GET_SYSCLK_SOURCE() == RCC_CFGR_SWS_HSE)
        || \
        ((__HAL_RCC_GET_SYSCLK_SOURCE() == RCC_CFGR_SWS_PLL) && ((RCC->PLLCFGR & RCC_PLLCFGR_PLLSRC) == RCC_PLLCFGR_PLLSRC_HSE)))
#endif /* STM32F446xx */
    {
      if ((__HAL_RCC_GET_FLAG(RCC_FLAG_HSERDY) != RESET) && (RCC_OscInitStruct->HSEState == RCC_HSE_OFF))
 8004dc0:	4b84      	ldr	r3, [pc, #528]	@ (8004fd4 <HAL_RCC_OscConfig+0x274>)
 8004dc2:	681b      	ldr	r3, [r3, #0]
 8004dc4:	f403 3300 	and.w	r3, r3, #131072	@ 0x20000
 8004dc8:	2b00      	cmp	r3, #0
 8004dca:	d05b      	beq.n	8004e84 <HAL_RCC_OscConfig+0x124>
 8004dcc:	687b      	ldr	r3, [r7, #4]
 8004dce:	685b      	ldr	r3, [r3, #4]
 8004dd0:	2b00      	cmp	r3, #0
 8004dd2:	d157      	bne.n	8004e84 <HAL_RCC_OscConfig+0x124>
      {
        return HAL_ERROR;
 8004dd4:	2301      	movs	r3, #1
 8004dd6:	e25a      	b.n	800528e <HAL_RCC_OscConfig+0x52e>
      }
    }
    else
    {
      /* Set the new HSE configuration ---------------------------------------*/
      __HAL_RCC_HSE_CONFIG(RCC_OscInitStruct->HSEState);
 8004dd8:	687b      	ldr	r3, [r7, #4]
 8004dda:	685b      	ldr	r3, [r3, #4]
 8004ddc:	f5b3 3f80 	cmp.w	r3, #65536	@ 0x10000
 8004de0:	d106      	bne.n	8004df0 <HAL_RCC_OscConfig+0x90>
 8004de2:	4b7c      	ldr	r3, [pc, #496]	@ (8004fd4 <HAL_RCC_OscConfig+0x274>)
 8004de4:	681b      	ldr	r3, [r3, #0]
 8004de6:	4a7b      	ldr	r2, [pc, #492]	@ (8004fd4 <HAL_RCC_OscConfig+0x274>)
 8004de8:	f443 3380 	orr.w	r3, r3, #65536	@ 0x10000
 8004dec:	6013      	str	r3, [r2, #0]
 8004dee:	e01d      	b.n	8004e2c <HAL_RCC_OscConfig+0xcc>
 8004df0:	687b      	ldr	r3, [r7, #4]
 8004df2:	685b      	ldr	r3, [r3, #4]
 8004df4:	f5b3 2fa0 	cmp.w	r3, #327680	@ 0x50000
 8004df8:	d10c      	bne.n	8004e14 <HAL_RCC_OscConfig+0xb4>
 8004dfa:	4b76      	ldr	r3, [pc, #472]	@ (8004fd4 <HAL_RCC_OscConfig+0x274>)
 8004dfc:	681b      	ldr	r3, [r3, #0]
 8004dfe:	4a75      	ldr	r2, [pc, #468]	@ (8004fd4 <HAL_RCC_OscConfig+0x274>)
 8004e00:	f443 2380 	orr.w	r3, r3, #262144	@ 0x40000
 8004e04:	6013      	str	r3, [r2, #0]
 8004e06:	4b73      	ldr	r3, [pc, #460]	@ (8004fd4 <HAL_RCC_OscConfig+0x274>)
 8004e08:	681b      	ldr	r3, [r3, #0]
 8004e0a:	4a72      	ldr	r2, [pc, #456]	@ (8004fd4 <HAL_RCC_OscConfig+0x274>)
 8004e0c:	f443 3380 	orr.w	r3, r3, #65536	@ 0x10000
 8004e10:	6013      	str	r3, [r2, #0]
 8004e12:	e00b      	b.n	8004e2c <HAL_RCC_OscConfig+0xcc>
 8004e14:	4b6f      	ldr	r3, [pc, #444]	@ (8004fd4 <HAL_RCC_OscConfig+0x274>)
 8004e16:	681b      	ldr	r3, [r3, #0]
 8004e18:	4a6e      	ldr	r2, [pc, #440]	@ (8004fd4 <HAL_RCC_OscConfig+0x274>)
 8004e1a:	f423 3380 	bic.w	r3, r3, #65536	@ 0x10000
 8004e1e:	6013      	str	r3, [r2, #0]
 8004e20:	4b6c      	ldr	r3, [pc, #432]	@ (8004fd4 <HAL_RCC_OscConfig+0x274>)
 8004e22:	681b      	ldr	r3, [r3, #0]
 8004e24:	4a6b      	ldr	r2, [pc, #428]	@ (8004fd4 <HAL_RCC_OscConfig+0x274>)
 8004e26:	f423 2380 	bic.w	r3, r3, #262144	@ 0x40000
 8004e2a:	6013      	str	r3, [r2, #0]

      /* Check the HSE State */
      if ((RCC_OscInitStruct->HSEState) != RCC_HSE_OFF)
 8004e2c:	687b      	ldr	r3, [r7, #4]
 8004e2e:	685b      	ldr	r3, [r3, #4]
 8004e30:	2b00      	cmp	r3, #0
 8004e32:	d013      	beq.n	8004e5c <HAL_RCC_OscConfig+0xfc>
      {
        /* Get Start Tick*/
        tickstart = HAL_GetTick();
 8004e34:	f7fd fc84 	bl	8002740 <HAL_GetTick>
 8004e38:	6138      	str	r0, [r7, #16]

        /* Wait till HSE is ready */
        while (__HAL_RCC_GET_FLAG(RCC_FLAG_HSERDY) == RESET)
 8004e3a:	e008      	b.n	8004e4e <HAL_RCC_OscConfig+0xee>
        {
          if ((HAL_GetTick() - tickstart) > HSE_TIMEOUT_VALUE)
 8004e3c:	f7fd fc80 	bl	8002740 <HAL_GetTick>
 8004e40:	4602      	mov	r2, r0
 8004e42:	693b      	ldr	r3, [r7, #16]
 8004e44:	1ad3      	subs	r3, r2, r3
 8004e46:	2b64      	cmp	r3, #100	@ 0x64
 8004e48:	d901      	bls.n	8004e4e <HAL_RCC_OscConfig+0xee>
          {
            return HAL_TIMEOUT;
 8004e4a:	2303      	movs	r3, #3
 8004e4c:	e21f      	b.n	800528e <HAL_RCC_OscConfig+0x52e>
        while (__HAL_RCC_GET_FLAG(RCC_FLAG_HSERDY) == RESET)
 8004e4e:	4b61      	ldr	r3, [pc, #388]	@ (8004fd4 <HAL_RCC_OscConfig+0x274>)
 8004e50:	681b      	ldr	r3, [r3, #0]
 8004e52:	f403 3300 	and.w	r3, r3, #131072	@ 0x20000
 8004e56:	2b00      	cmp	r3, #0
 8004e58:	d0f0      	beq.n	8004e3c <HAL_RCC_OscConfig+0xdc>
 8004e5a:	e014      	b.n	8004e86 <HAL_RCC_OscConfig+0x126>
        }
      }
      else
      {
        /* Get Start Tick*/
        tickstart = HAL_GetTick();
 8004e5c:	f7fd fc70 	bl	8002740 <HAL_GetTick>
 8004e60:	6138      	str	r0, [r7, #16]

        /* Wait till HSE is bypassed or disabled */
        while (__HAL_RCC_GET_FLAG(RCC_FLAG_HSERDY) != RESET)
 8004e62:	e008      	b.n	8004e76 <HAL_RCC_OscConfig+0x116>
        {
          if ((HAL_GetTick() - tickstart) > HSE_TIMEOUT_VALUE)
 8004e64:	f7fd fc6c 	bl	8002740 <HAL_GetTick>
 8004e68:	4602      	mov	r2, r0
 8004e6a:	693b      	ldr	r3, [r7, #16]
 8004e6c:	1ad3      	subs	r3, r2, r3
 8004e6e:	2b64      	cmp	r3, #100	@ 0x64
 8004e70:	d901      	bls.n	8004e76 <HAL_RCC_OscConfig+0x116>
          {
            return HAL_TIMEOUT;
 8004e72:	2303      	movs	r3, #3
 8004e74:	e20b      	b.n	800528e <HAL_RCC_OscConfig+0x52e>
        while (__HAL_RCC_GET_FLAG(RCC_FLAG_HSERDY) != RESET)
 8004e76:	4b57      	ldr	r3, [pc, #348]	@ (8004fd4 <HAL_RCC_OscConfig+0x274>)
 8004e78:	681b      	ldr	r3, [r3, #0]
 8004e7a:	f403 3300 	and.w	r3, r3, #131072	@ 0x20000
 8004e7e:	2b00      	cmp	r3, #0
 8004e80:	d1f0      	bne.n	8004e64 <HAL_RCC_OscConfig+0x104>
 8004e82:	e000      	b.n	8004e86 <HAL_RCC_OscConfig+0x126>
      if ((__HAL_RCC_GET_FLAG(RCC_FLAG_HSERDY) != RESET) && (RCC_OscInitStruct->HSEState == RCC_HSE_OFF))
 8004e84:	bf00      	nop
        }
      }
    }
  }
  /*----------------------------- HSI Configuration --------------------------*/
  if (((RCC_OscInitStruct->OscillatorType) & RCC_OSCILLATORTYPE_HSI) == RCC_OSCILLATORTYPE_HSI)
 8004e86:	687b      	ldr	r3, [r7, #4]
 8004e88:	681b      	ldr	r3, [r3, #0]
 8004e8a:	f003 0302 	and.w	r3, r3, #2
 8004e8e:	2b00      	cmp	r3, #0
 8004e90:	d06f      	beq.n	8004f72 <HAL_RCC_OscConfig+0x212>
    assert_param(IS_RCC_HSI(RCC_OscInitStruct->HSIState));
    assert_param(IS_RCC_CALIBRATION_VALUE(RCC_OscInitStruct->HSICalibrationValue));

    /* Check if HSI is used as system clock or as PLL source when PLL is selected as system clock */
#if defined(STM32F446xx)
    if ((__HAL_RCC_GET_SYSCLK_SOURCE() == RCC_CFGR_SWS_HSI)
 8004e92:	4b50      	ldr	r3, [pc, #320]	@ (8004fd4 <HAL_RCC_OscConfig+0x274>)
 8004e94:	689b      	ldr	r3, [r3, #8]
 8004e96:	f003 030c 	and.w	r3, r3, #12
 8004e9a:	2b00      	cmp	r3, #0
 8004e9c:	d017      	beq.n	8004ece <HAL_RCC_OscConfig+0x16e>
        || \
        ((__HAL_RCC_GET_SYSCLK_SOURCE() == RCC_CFGR_SWS_PLL) && ((RCC->PLLCFGR & RCC_PLLCFGR_PLLSRC) == RCC_PLLCFGR_PLLSRC_HSI)) || \
 8004e9e:	4b4d      	ldr	r3, [pc, #308]	@ (8004fd4 <HAL_RCC_OscConfig+0x274>)
 8004ea0:	689b      	ldr	r3, [r3, #8]
 8004ea2:	f003 030c 	and.w	r3, r3, #12
        || \
 8004ea6:	2b08      	cmp	r3, #8
 8004ea8:	d105      	bne.n	8004eb6 <HAL_RCC_OscConfig+0x156>
        ((__HAL_RCC_GET_SYSCLK_SOURCE() == RCC_CFGR_SWS_PLL) && ((RCC->PLLCFGR & RCC_PLLCFGR_PLLSRC) == RCC_PLLCFGR_PLLSRC_HSI)) || \
 8004eaa:	4b4a      	ldr	r3, [pc, #296]	@ (8004fd4 <HAL_RCC_OscConfig+0x274>)
 8004eac:	685b      	ldr	r3, [r3, #4]
 8004eae:	f403 0380 	and.w	r3, r3, #4194304	@ 0x400000
 8004eb2:	2b00      	cmp	r3, #0
 8004eb4:	d00b      	beq.n	8004ece <HAL_RCC_OscConfig+0x16e>
        ((__HAL_RCC_GET_SYSCLK_SOURCE() == RCC_CFGR_SWS_PLLR) && ((RCC->PLLCFGR & RCC_PLLCFGR_PLLSRC) == RCC_PLLCFGR_PLLSRC_HSI)))
 8004eb6:	4b47      	ldr	r3, [pc, #284]	@ (8004fd4 <HAL_RCC_OscConfig+0x274>)
 8004eb8:	689b      	ldr	r3, [r3, #8]
 8004eba:	f003 030c 	and.w	r3, r3, #12
        ((__HAL_RCC_GET_SYSCLK_SOURCE() == RCC_CFGR_SWS_PLL) && ((RCC->PLLCFGR & RCC_PLLCFGR_PLLSRC) == RCC_PLLCFGR_PLLSRC_HSI)) || \
 8004ebe:	2b0c      	cmp	r3, #12
 8004ec0:	d11c      	bne.n	8004efc <HAL_RCC_OscConfig+0x19c>
        ((__HAL_RCC_GET_SYSCLK_SOURCE() == RCC_CFGR_SWS_PLLR) && ((RCC->PLLCFGR & RCC_PLLCFGR_PLLSRC) == RCC_PLLCFGR_PLLSRC_HSI)))
 8004ec2:	4b44      	ldr	r3, [pc, #272]	@ (8004fd4 <HAL_RCC_OscConfig+0x274>)
 8004ec4:	685b      	ldr	r3, [r3, #4]
 8004ec6:	f403 0380 	and.w	r3, r3, #4194304	@ 0x400000
 8004eca:	2b00      	cmp	r3, #0
 8004ecc:	d116      	bne.n	8004efc <HAL_RCC_OscConfig+0x19c>
        || \
        ((__HAL_RCC_GET_SYSCLK_SOURCE() == RCC_CFGR_SWS_PLL) && ((RCC->PLLCFGR & RCC_PLLCFGR_PLLSRC) == RCC_PLLCFGR_PLLSRC_HSI)))
#endif /* STM32F446xx */
    {
      /* When HSI is used as system clock it will not disabled */
      if ((__HAL_RCC_GET_FLAG(RCC_FLAG_HSIRDY) != RESET) && (RCC_OscInitStruct->HSIState != RCC_HSI_ON))
 8004ece:	4b41      	ldr	r3, [pc, #260]	@ (8004fd4 <HAL_RCC_OscConfig+0x274>)
 8004ed0:	681b      	ldr	r3, [r3, #0]
 8004ed2:	f003 0302 	and.w	r3, r3, #2
 8004ed6:	2b00      	cmp	r3, #0
 8004ed8:	d005      	beq.n	8004ee6 <HAL_RCC_OscConfig+0x186>
 8004eda:	687b      	ldr	r3, [r7, #4]
 8004edc:	68db      	ldr	r3, [r3, #12]
 8004ede:	2b01      	cmp	r3, #1
 8004ee0:	d001      	beq.n	8004ee6 <HAL_RCC_OscConfig+0x186>
      {
        return HAL_ERROR;
 8004ee2:	2301      	movs	r3, #1
 8004ee4:	e1d3      	b.n	800528e <HAL_RCC_OscConfig+0x52e>
      }
      /* Otherwise, just the calibration is allowed */
      else
      {
        /* Adjusts the Internal High Speed oscillator (HSI) calibration value.*/
        __HAL_RCC_HSI_CALIBRATIONVALUE_ADJUST(RCC_OscInitStruct->HSICalibrationValue);
 8004ee6:	4b3b      	ldr	r3, [pc, #236]	@ (8004fd4 <HAL_RCC_OscConfig+0x274>)
 8004ee8:	681b      	ldr	r3, [r3, #0]
 8004eea:	f023 02f8 	bic.w	r2, r3, #248	@ 0xf8
 8004eee:	687b      	ldr	r3, [r7, #4]
 8004ef0:	691b      	ldr	r3, [r3, #16]
 8004ef2:	00db      	lsls	r3, r3, #3
 8004ef4:	4937      	ldr	r1, [pc, #220]	@ (8004fd4 <HAL_RCC_OscConfig+0x274>)
 8004ef6:	4313      	orrs	r3, r2
 8004ef8:	600b      	str	r3, [r1, #0]
      if ((__HAL_RCC_GET_FLAG(RCC_FLAG_HSIRDY) != RESET) && (RCC_OscInitStruct->HSIState != RCC_HSI_ON))
 8004efa:	e03a      	b.n	8004f72 <HAL_RCC_OscConfig+0x212>
      }
    }
    else
    {
      /* Check the HSI State */
      if ((RCC_OscInitStruct->HSIState) != RCC_HSI_OFF)
 8004efc:	687b      	ldr	r3, [r7, #4]
 8004efe:	68db      	ldr	r3, [r3, #12]
 8004f00:	2b00      	cmp	r3, #0
 8004f02:	d020      	beq.n	8004f46 <HAL_RCC_OscConfig+0x1e6>
      {
        /* Enable the Internal High Speed oscillator (HSI). */
        __HAL_RCC_HSI_ENABLE();
 8004f04:	4b34      	ldr	r3, [pc, #208]	@ (8004fd8 <HAL_RCC_OscConfig+0x278>)
 8004f06:	2201      	movs	r2, #1
 8004f08:	601a      	str	r2, [r3, #0]

        /* Get Start Tick*/
        tickstart = HAL_GetTick();
 8004f0a:	f7fd fc19 	bl	8002740 <HAL_GetTick>
 8004f0e:	6138      	str	r0, [r7, #16]

        /* Wait till HSI is ready */
        while (__HAL_RCC_GET_FLAG(RCC_FLAG_HSIRDY) == RESET)
 8004f10:	e008      	b.n	8004f24 <HAL_RCC_OscConfig+0x1c4>
        {
          if ((HAL_GetTick() - tickstart) > HSI_TIMEOUT_VALUE)
 8004f12:	f7fd fc15 	bl	8002740 <HAL_GetTick>
 8004f16:	4602      	mov	r2, r0
 8004f18:	693b      	ldr	r3, [r7, #16]
 8004f1a:	1ad3      	subs	r3, r2, r3
 8004f1c:	2b02      	cmp	r3, #2
 8004f1e:	d901      	bls.n	8004f24 <HAL_RCC_OscConfig+0x1c4>
          {
            return HAL_TIMEOUT;
 8004f20:	2303      	movs	r3, #3
 8004f22:	e1b4      	b.n	800528e <HAL_RCC_OscConfig+0x52e>
        while (__HAL_RCC_GET_FLAG(RCC_FLAG_HSIRDY) == RESET)
 8004f24:	4b2b      	ldr	r3, [pc, #172]	@ (8004fd4 <HAL_RCC_OscConfig+0x274>)
 8004f26:	681b      	ldr	r3, [r3, #0]
 8004f28:	f003 0302 	and.w	r3, r3, #2
 8004f2c:	2b00      	cmp	r3, #0
 8004f2e:	d0f0      	beq.n	8004f12 <HAL_RCC_OscConfig+0x1b2>
          }
        }

        /* Adjusts the Internal High Speed oscillator (HSI) calibration value.*/
        __HAL_RCC_HSI_CALIBRATIONVALUE_ADJUST(RCC_OscInitStruct->HSICalibrationValue);
 8004f30:	4b28      	ldr	r3, [pc, #160]	@ (8004fd4 <HAL_RCC_OscConfig+0x274>)
 8004f32:	681b      	ldr	r3, [r3, #0]
 8004f34:	f023 02f8 	bic.w	r2, r3, #248	@ 0xf8
 8004f38:	687b      	ldr	r3, [r7, #4]
 8004f3a:	691b      	ldr	r3, [r3, #16]
 8004f3c:	00db      	lsls	r3, r3, #3
 8004f3e:	4925      	ldr	r1, [pc, #148]	@ (8004fd4 <HAL_RCC_OscConfig+0x274>)
 8004f40:	4313      	orrs	r3, r2
 8004f42:	600b      	str	r3, [r1, #0]
 8004f44:	e015      	b.n	8004f72 <HAL_RCC_OscConfig+0x212>
      }
      else
      {
        /* Disable the Internal High Speed oscillator (HSI). */
        __HAL_RCC_HSI_DISABLE();
 8004f46:	4b24      	ldr	r3, [pc, #144]	@ (8004fd8 <HAL_RCC_OscConfig+0x278>)
 8004f48:	2200      	movs	r2, #0
 8004f4a:	601a      	str	r2, [r3, #0]

        /* Get Start Tick*/
        tickstart = HAL_GetTick();
 8004f4c:	f7fd fbf8 	bl	8002740 <HAL_GetTick>
 8004f50:	6138      	str	r0, [r7, #16]

        /* Wait till HSI is ready */
        while (__HAL_RCC_GET_FLAG(RCC_FLAG_HSIRDY) != RESET)
 8004f52:	e008      	b.n	8004f66 <HAL_RCC_OscConfig+0x206>
        {
          if ((HAL_GetTick() - tickstart) > HSI_TIMEOUT_VALUE)
 8004f54:	f7fd fbf4 	bl	8002740 <HAL_GetTick>
 8004f58:	4602      	mov	r2, r0
 8004f5a:	693b      	ldr	r3, [r7, #16]
 8004f5c:	1ad3      	subs	r3, r2, r3
 8004f5e:	2b02      	cmp	r3, #2
 8004f60:	d901      	bls.n	8004f66 <HAL_RCC_OscConfig+0x206>
          {
            return HAL_TIMEOUT;
 8004f62:	2303      	movs	r3, #3
 8004f64:	e193      	b.n	800528e <HAL_RCC_OscConfig+0x52e>
        while (__HAL_RCC_GET_FLAG(RCC_FLAG_HSIRDY) != RESET)
 8004f66:	4b1b      	ldr	r3, [pc, #108]	@ (8004fd4 <HAL_RCC_OscConfig+0x274>)
 8004f68:	681b      	ldr	r3, [r3, #0]
 8004f6a:	f003 0302 	and.w	r3, r3, #2
 8004f6e:	2b00      	cmp	r3, #0
 8004f70:	d1f0      	bne.n	8004f54 <HAL_RCC_OscConfig+0x1f4>
        }
      }
    }
  }
  /*------------------------------ LSI Configuration -------------------------*/
  if (((RCC_OscInitStruct->OscillatorType) & RCC_OSCILLATORTYPE_LSI) == RCC_OSCILLATORTYPE_LSI)
 8004f72:	687b      	ldr	r3, [r7, #4]
 8004f74:	681b      	ldr	r3, [r3, #0]
 8004f76:	f003 0308 	and.w	r3, r3, #8
 8004f7a:	2b00      	cmp	r3, #0
 8004f7c:	d036      	beq.n	8004fec <HAL_RCC_OscConfig+0x28c>
  {
    /* Check the parameters */
    assert_param(IS_RCC_LSI(RCC_OscInitStruct->LSIState));

    /* Check the LSI State */
    if ((RCC_OscInitStruct->LSIState) != RCC_LSI_OFF)
 8004f7e:	687b      	ldr	r3, [r7, #4]
 8004f80:	695b      	ldr	r3, [r3, #20]
 8004f82:	2b00      	cmp	r3, #0
 8004f84:	d016      	beq.n	8004fb4 <HAL_RCC_OscConfig+0x254>
    {
      /* Enable the Internal Low Speed oscillator (LSI). */
      __HAL_RCC_LSI_ENABLE();
 8004f86:	4b15      	ldr	r3, [pc, #84]	@ (8004fdc <HAL_RCC_OscConfig+0x27c>)
 8004f88:	2201      	movs	r2, #1
 8004f8a:	601a      	str	r2, [r3, #0]

      /* Get Start Tick*/
      tickstart = HAL_GetTick();
 8004f8c:	f7fd fbd8 	bl	8002740 <HAL_GetTick>
 8004f90:	6138      	str	r0, [r7, #16]

      /* Wait till LSI is ready */
      while (__HAL_RCC_GET_FLAG(RCC_FLAG_LSIRDY) == RESET)
 8004f92:	e008      	b.n	8004fa6 <HAL_RCC_OscConfig+0x246>
      {
        if ((HAL_GetTick() - tickstart) > LSI_TIMEOUT_VALUE)
 8004f94:	f7fd fbd4 	bl	8002740 <HAL_GetTick>
 8004f98:	4602      	mov	r2, r0
 8004f9a:	693b      	ldr	r3, [r7, #16]
 8004f9c:	1ad3      	subs	r3, r2, r3
 8004f9e:	2b02      	cmp	r3, #2
 8004fa0:	d901      	bls.n	8004fa6 <HAL_RCC_OscConfig+0x246>
        {
          return HAL_TIMEOUT;
 8004fa2:	2303      	movs	r3, #3
 8004fa4:	e173      	b.n	800528e <HAL_RCC_OscConfig+0x52e>
      while (__HAL_RCC_GET_FLAG(RCC_FLAG_LSIRDY) == RESET)
 8004fa6:	4b0b      	ldr	r3, [pc, #44]	@ (8004fd4 <HAL_RCC_OscConfig+0x274>)
 8004fa8:	6f5b      	ldr	r3, [r3, #116]	@ 0x74
 8004faa:	f003 0302 	and.w	r3, r3, #2
 8004fae:	2b00      	cmp	r3, #0
 8004fb0:	d0f0      	beq.n	8004f94 <HAL_RCC_OscConfig+0x234>
 8004fb2:	e01b      	b.n	8004fec <HAL_RCC_OscConfig+0x28c>
      }
    }
    else
    {
      /* Disable the Internal Low Speed oscillator (LSI). */
      __HAL_RCC_LSI_DISABLE();
 8004fb4:	4b09      	ldr	r3, [pc, #36]	@ (8004fdc <HAL_RCC_OscConfig+0x27c>)
 8004fb6:	2200      	movs	r2, #0
 8004fb8:	601a      	str	r2, [r3, #0]

      /* Get Start Tick*/
      tickstart = HAL_GetTick();
 8004fba:	f7fd fbc1 	bl	8002740 <HAL_GetTick>
 8004fbe:	6138      	str	r0, [r7, #16]

      /* Wait till LSI is ready */
      while (__HAL_RCC_GET_FLAG(RCC_FLAG_LSIRDY) != RESET)
 8004fc0:	e00e      	b.n	8004fe0 <HAL_RCC_OscConfig+0x280>
      {
        if ((HAL_GetTick() - tickstart) > LSI_TIMEOUT_VALUE)
 8004fc2:	f7fd fbbd 	bl	8002740 <HAL_GetTick>
 8004fc6:	4602      	mov	r2, r0
 8004fc8:	693b      	ldr	r3, [r7, #16]
 8004fca:	1ad3      	subs	r3, r2, r3
 8004fcc:	2b02      	cmp	r3, #2
 8004fce:	d907      	bls.n	8004fe0 <HAL_RCC_OscConfig+0x280>
        {
          return HAL_TIMEOUT;
 8004fd0:	2303      	movs	r3, #3
 8004fd2:	e15c      	b.n	800528e <HAL_RCC_OscConfig+0x52e>
 8004fd4:	40023800 	.word	0x40023800
 8004fd8:	42470000 	.word	0x42470000
 8004fdc:	42470e80 	.word	0x42470e80
      while (__HAL_RCC_GET_FLAG(RCC_FLAG_LSIRDY) != RESET)
 8004fe0:	4b8a      	ldr	r3, [pc, #552]	@ (800520c <HAL_RCC_OscConfig+0x4ac>)
 8004fe2:	6f5b      	ldr	r3, [r3, #116]	@ 0x74
 8004fe4:	f003 0302 	and.w	r3, r3, #2
 8004fe8:	2b00      	cmp	r3, #0
 8004fea:	d1ea      	bne.n	8004fc2 <HAL_RCC_OscConfig+0x262>
        }
      }
    }
  }
  /*------------------------------ LSE Configuration -------------------------*/
  if (((RCC_OscInitStruct->OscillatorType) & RCC_OSCILLATORTYPE_LSE) == RCC_OSCILLATORTYPE_LSE)
 8004fec:	687b      	ldr	r3, [r7, #4]
 8004fee:	681b      	ldr	r3, [r3, #0]
 8004ff0:	f003 0304 	and.w	r3, r3, #4
 8004ff4:	2b00      	cmp	r3, #0
 8004ff6:	f000 8097 	beq.w	8005128 <HAL_RCC_OscConfig+0x3c8>
  {
    FlagStatus       pwrclkchanged = RESET;
 8004ffa:	2300      	movs	r3, #0
 8004ffc:	75fb      	strb	r3, [r7, #23]
    /* Check the parameters */
    assert_param(IS_RCC_LSE(RCC_OscInitStruct->LSEState));

    /* Update LSE configuration in Backup Domain control register    */
    /* Requires to enable write access to Backup Domain of necessary */
    if (__HAL_RCC_PWR_IS_CLK_DISABLED())
 8004ffe:	4b83      	ldr	r3, [pc, #524]	@ (800520c <HAL_RCC_OscConfig+0x4ac>)
 8005000:	6c1b      	ldr	r3, [r3, #64]	@ 0x40
 8005002:	f003 5380 	and.w	r3, r3, #268435456	@ 0x10000000
 8005006:	2b00      	cmp	r3, #0
 8005008:	d10f      	bne.n	800502a <HAL_RCC_OscConfig+0x2ca>
    {
      __HAL_RCC_PWR_CLK_ENABLE();
 800500a:	2300      	movs	r3, #0
 800500c:	60bb      	str	r3, [r7, #8]
 800500e:	4b7f      	ldr	r3, [pc, #508]	@ (800520c <HAL_RCC_OscConfig+0x4ac>)
 8005010:	6c1b      	ldr	r3, [r3, #64]	@ 0x40
 8005012:	4a7e      	ldr	r2, [pc, #504]	@ (800520c <HAL_RCC_OscConfig+0x4ac>)
 8005014:	f043 5380 	orr.w	r3, r3, #268435456	@ 0x10000000
 8005018:	6413      	str	r3, [r2, #64]	@ 0x40
 800501a:	4b7c      	ldr	r3, [pc, #496]	@ (800520c <HAL_RCC_OscConfig+0x4ac>)
 800501c:	6c1b      	ldr	r3, [r3, #64]	@ 0x40
 800501e:	f003 5380 	and.w	r3, r3, #268435456	@ 0x10000000
 8005022:	60bb      	str	r3, [r7, #8]
 8005024:	68bb      	ldr	r3, [r7, #8]
      pwrclkchanged = SET;
 8005026:	2301      	movs	r3, #1
 8005028:	75fb      	strb	r3, [r7, #23]
    }

    if (HAL_IS_BIT_CLR(PWR->CR, PWR_CR_DBP))
 800502a:	4b79      	ldr	r3, [pc, #484]	@ (8005210 <HAL_RCC_OscConfig+0x4b0>)
 800502c:	681b      	ldr	r3, [r3, #0]
 800502e:	f403 7380 	and.w	r3, r3, #256	@ 0x100
 8005032:	2b00      	cmp	r3, #0
 8005034:	d118      	bne.n	8005068 <HAL_RCC_OscConfig+0x308>
    {
      /* Enable write access to Backup domain */
      SET_BIT(PWR->CR, PWR_CR_DBP);
 8005036:	4b76      	ldr	r3, [pc, #472]	@ (8005210 <HAL_RCC_OscConfig+0x4b0>)
 8005038:	681b      	ldr	r3, [r3, #0]
 800503a:	4a75      	ldr	r2, [pc, #468]	@ (8005210 <HAL_RCC_OscConfig+0x4b0>)
 800503c:	f443 7380 	orr.w	r3, r3, #256	@ 0x100
 8005040:	6013      	str	r3, [r2, #0]

      /* Wait for Backup domain Write protection disable */
      tickstart = HAL_GetTick();
 8005042:	f7fd fb7d 	bl	8002740 <HAL_GetTick>
 8005046:	6138      	str	r0, [r7, #16]

      while (HAL_IS_BIT_CLR(PWR->CR, PWR_CR_DBP))
 8005048:	e008      	b.n	800505c <HAL_RCC_OscConfig+0x2fc>
      {
        if ((HAL_GetTick() - tickstart) > RCC_DBP_TIMEOUT_VALUE)
 800504a:	f7fd fb79 	bl	8002740 <HAL_GetTick>
 800504e:	4602      	mov	r2, r0
 8005050:	693b      	ldr	r3, [r7, #16]
 8005052:	1ad3      	subs	r3, r2, r3
 8005054:	2b02      	cmp	r3, #2
 8005056:	d901      	bls.n	800505c <HAL_RCC_OscConfig+0x2fc>
        {
          return HAL_TIMEOUT;
 8005058:	2303      	movs	r3, #3
 800505a:	e118      	b.n	800528e <HAL_RCC_OscConfig+0x52e>
      while (HAL_IS_BIT_CLR(PWR->CR, PWR_CR_DBP))
 800505c:	4b6c      	ldr	r3, [pc, #432]	@ (8005210 <HAL_RCC_OscConfig+0x4b0>)
 800505e:	681b      	ldr	r3, [r3, #0]
 8005060:	f403 7380 	and.w	r3, r3, #256	@ 0x100
 8005064:	2b00      	cmp	r3, #0
 8005066:	d0f0      	beq.n	800504a <HAL_RCC_OscConfig+0x2ea>
        }
      }
    }

    /* Set the new LSE configuration -----------------------------------------*/
    __HAL_RCC_LSE_CONFIG(RCC_OscInitStruct->LSEState);
 8005068:	687b      	ldr	r3, [r7, #4]
 800506a:	689b      	ldr	r3, [r3, #8]
 800506c:	2b01      	cmp	r3, #1
 800506e:	d106      	bne.n	800507e <HAL_RCC_OscConfig+0x31e>
 8005070:	4b66      	ldr	r3, [pc, #408]	@ (800520c <HAL_RCC_OscConfig+0x4ac>)
 8005072:	6f1b      	ldr	r3, [r3, #112]	@ 0x70
 8005074:	4a65      	ldr	r2, [pc, #404]	@ (800520c <HAL_RCC_OscConfig+0x4ac>)
 8005076:	f043 0301 	orr.w	r3, r3, #1
 800507a:	6713      	str	r3, [r2, #112]	@ 0x70
 800507c:	e01c      	b.n	80050b8 <HAL_RCC_OscConfig+0x358>
 800507e:	687b      	ldr	r3, [r7, #4]
 8005080:	689b      	ldr	r3, [r3, #8]
 8005082:	2b05      	cmp	r3, #5
 8005084:	d10c      	bne.n	80050a0 <HAL_RCC_OscConfig+0x340>
 8005086:	4b61      	ldr	r3, [pc, #388]	@ (800520c <HAL_RCC_OscConfig+0x4ac>)
 8005088:	6f1b      	ldr	r3, [r3, #112]	@ 0x70
 800508a:	4a60      	ldr	r2, [pc, #384]	@ (800520c <HAL_RCC_OscConfig+0x4ac>)
 800508c:	f043 0304 	orr.w	r3, r3, #4
 8005090:	6713      	str	r3, [r2, #112]	@ 0x70
 8005092:	4b5e      	ldr	r3, [pc, #376]	@ (800520c <HAL_RCC_OscConfig+0x4ac>)
 8005094:	6f1b      	ldr	r3, [r3, #112]	@ 0x70
 8005096:	4a5d      	ldr	r2, [pc, #372]	@ (800520c <HAL_RCC_OscConfig+0x4ac>)
 8005098:	f043 0301 	orr.w	r3, r3, #1
 800509c:	6713      	str	r3, [r2, #112]	@ 0x70
 800509e:	e00b      	b.n	80050b8 <HAL_RCC_OscConfig+0x358>
 80050a0:	4b5a      	ldr	r3, [pc, #360]	@ (800520c <HAL_RCC_OscConfig+0x4ac>)
 80050a2:	6f1b      	ldr	r3, [r3, #112]	@ 0x70
 80050a4:	4a59      	ldr	r2, [pc, #356]	@ (800520c <HAL_RCC_OscConfig+0x4ac>)
 80050a6:	f023 0301 	bic.w	r3, r3, #1
 80050aa:	6713      	str	r3, [r2, #112]	@ 0x70
 80050ac:	4b57      	ldr	r3, [pc, #348]	@ (800520c <HAL_RCC_OscConfig+0x4ac>)
 80050ae:	6f1b      	ldr	r3, [r3, #112]	@ 0x70
 80050b0:	4a56      	ldr	r2, [pc, #344]	@ (800520c <HAL_RCC_OscConfig+0x4ac>)
 80050b2:	f023 0304 	bic.w	r3, r3, #4
 80050b6:	6713      	str	r3, [r2, #112]	@ 0x70
    /* Check the LSE State */
    if ((RCC_OscInitStruct->LSEState) != RCC_LSE_OFF)
 80050b8:	687b      	ldr	r3, [r7, #4]
 80050ba:	689b      	ldr	r3, [r3, #8]
 80050bc:	2b00      	cmp	r3, #0
 80050be:	d015      	beq.n	80050ec <HAL_RCC_OscConfig+0x38c>
    {
      /* Get Start Tick*/
      tickstart = HAL_GetTick();
 80050c0:	f7fd fb3e 	bl	8002740 <HAL_GetTick>
 80050c4:	6138      	str	r0, [r7, #16]

      /* Wait till LSE is ready */
      while (__HAL_RCC_GET_FLAG(RCC_FLAG_LSERDY) == RESET)
 80050c6:	e00a      	b.n	80050de <HAL_RCC_OscConfig+0x37e>
      {
        if ((HAL_GetTick() - tickstart) > RCC_LSE_TIMEOUT_VALUE)
 80050c8:	f7fd fb3a 	bl	8002740 <HAL_GetTick>
 80050cc:	4602      	mov	r2, r0
 80050ce:	693b      	ldr	r3, [r7, #16]
 80050d0:	1ad3      	subs	r3, r2, r3
 80050d2:	f241 3288 	movw	r2, #5000	@ 0x1388
 80050d6:	4293      	cmp	r3, r2
 80050d8:	d901      	bls.n	80050de <HAL_RCC_OscConfig+0x37e>
        {
          return HAL_TIMEOUT;
 80050da:	2303      	movs	r3, #3
 80050dc:	e0d7      	b.n	800528e <HAL_RCC_OscConfig+0x52e>
      while (__HAL_RCC_GET_FLAG(RCC_FLAG_LSERDY) == RESET)
 80050de:	4b4b      	ldr	r3, [pc, #300]	@ (800520c <HAL_RCC_OscConfig+0x4ac>)
 80050e0:	6f1b      	ldr	r3, [r3, #112]	@ 0x70
 80050e2:	f003 0302 	and.w	r3, r3, #2
 80050e6:	2b00      	cmp	r3, #0
 80050e8:	d0ee      	beq.n	80050c8 <HAL_RCC_OscConfig+0x368>
 80050ea:	e014      	b.n	8005116 <HAL_RCC_OscConfig+0x3b6>
      }
    }
    else
    {
      /* Get Start Tick*/
      tickstart = HAL_GetTick();
 80050ec:	f7fd fb28 	bl	8002740 <HAL_GetTick>
 80050f0:	6138      	str	r0, [r7, #16]

      /* Wait till LSE is ready */
      while (__HAL_RCC_GET_FLAG(RCC_FLAG_LSERDY) != RESET)
 80050f2:	e00a      	b.n	800510a <HAL_RCC_OscConfig+0x3aa>
      {
        if ((HAL_GetTick() - tickstart) > RCC_LSE_TIMEOUT_VALUE)
 80050f4:	f7fd fb24 	bl	8002740 <HAL_GetTick>
 80050f8:	4602      	mov	r2, r0
 80050fa:	693b      	ldr	r3, [r7, #16]
 80050fc:	1ad3      	subs	r3, r2, r3
 80050fe:	f241 3288 	movw	r2, #5000	@ 0x1388
 8005102:	4293      	cmp	r3, r2
 8005104:	d901      	bls.n	800510a <HAL_RCC_OscConfig+0x3aa>
        {
          return HAL_TIMEOUT;
 8005106:	2303      	movs	r3, #3
 8005108:	e0c1      	b.n	800528e <HAL_RCC_OscConfig+0x52e>
      while (__HAL_RCC_GET_FLAG(RCC_FLAG_LSERDY) != RESET)
 800510a:	4b40      	ldr	r3, [pc, #256]	@ (800520c <HAL_RCC_OscConfig+0x4ac>)
 800510c:	6f1b      	ldr	r3, [r3, #112]	@ 0x70
 800510e:	f003 0302 	and.w	r3, r3, #2
 8005112:	2b00      	cmp	r3, #0
 8005114:	d1ee      	bne.n	80050f4 <HAL_RCC_OscConfig+0x394>
        }
      }
    }

    /* Restore clock configuration if changed */
    if (pwrclkchanged == SET)
 8005116:	7dfb      	ldrb	r3, [r7, #23]
 8005118:	2b01      	cmp	r3, #1
 800511a:	d105      	bne.n	8005128 <HAL_RCC_OscConfig+0x3c8>
    {
      __HAL_RCC_PWR_CLK_DISABLE();
 800511c:	4b3b      	ldr	r3, [pc, #236]	@ (800520c <HAL_RCC_OscConfig+0x4ac>)
 800511e:	6c1b      	ldr	r3, [r3, #64]	@ 0x40
 8005120:	4a3a      	ldr	r2, [pc, #232]	@ (800520c <HAL_RCC_OscConfig+0x4ac>)
 8005122:	f023 5380 	bic.w	r3, r3, #268435456	@ 0x10000000
 8005126:	6413      	str	r3, [r2, #64]	@ 0x40
    }
  }
  /*-------------------------------- PLL Configuration -----------------------*/
  /* Check the parameters */
  assert_param(IS_RCC_PLL(RCC_OscInitStruct->PLL.PLLState));
  if ((RCC_OscInitStruct->PLL.PLLState) != RCC_PLL_NONE)
 8005128:	687b      	ldr	r3, [r7, #4]
 800512a:	699b      	ldr	r3, [r3, #24]
 800512c:	2b00      	cmp	r3, #0
 800512e:	f000 80ad 	beq.w	800528c <HAL_RCC_OscConfig+0x52c>
  {
    /* Check if the PLL is used as system clock or not */
    if (__HAL_RCC_GET_SYSCLK_SOURCE() != RCC_CFGR_SWS_PLL)
 8005132:	4b36      	ldr	r3, [pc, #216]	@ (800520c <HAL_RCC_OscConfig+0x4ac>)
 8005134:	689b      	ldr	r3, [r3, #8]
 8005136:	f003 030c 	and.w	r3, r3, #12
 800513a:	2b08      	cmp	r3, #8
 800513c:	d060      	beq.n	8005200 <HAL_RCC_OscConfig+0x4a0>
    {
      if ((RCC_OscInitStruct->PLL.PLLState) == RCC_PLL_ON)
 800513e:	687b      	ldr	r3, [r7, #4]
 8005140:	699b      	ldr	r3, [r3, #24]
 8005142:	2b02      	cmp	r3, #2
 8005144:	d145      	bne.n	80051d2 <HAL_RCC_OscConfig+0x472>
        assert_param(IS_RCC_PLLP_VALUE(RCC_OscInitStruct->PLL.PLLP));
        assert_param(IS_RCC_PLLQ_VALUE(RCC_OscInitStruct->PLL.PLLQ));
        assert_param(IS_RCC_PLLR_VALUE(RCC_OscInitStruct->PLL.PLLR));

        /* Disable the main PLL. */
        __HAL_RCC_PLL_DISABLE();
 8005146:	4b33      	ldr	r3, [pc, #204]	@ (8005214 <HAL_RCC_OscConfig+0x4b4>)
 8005148:	2200      	movs	r2, #0
 800514a:	601a      	str	r2, [r3, #0]

        /* Get Start Tick*/
        tickstart = HAL_GetTick();
 800514c:	f7fd faf8 	bl	8002740 <HAL_GetTick>
 8005150:	6138      	str	r0, [r7, #16]

        /* Wait till PLL is ready */
        while (__HAL_RCC_GET_FLAG(RCC_FLAG_PLLRDY) != RESET)
 8005152:	e008      	b.n	8005166 <HAL_RCC_OscConfig+0x406>
        {
          if ((HAL_GetTick() - tickstart) > PLL_TIMEOUT_VALUE)
 8005154:	f7fd faf4 	bl	8002740 <HAL_GetTick>
 8005158:	4602      	mov	r2, r0
 800515a:	693b      	ldr	r3, [r7, #16]
 800515c:	1ad3      	subs	r3, r2, r3
 800515e:	2b02      	cmp	r3, #2
 8005160:	d901      	bls.n	8005166 <HAL_RCC_OscConfig+0x406>
          {
            return HAL_TIMEOUT;
 8005162:	2303      	movs	r3, #3
 8005164:	e093      	b.n	800528e <HAL_RCC_OscConfig+0x52e>
        while (__HAL_RCC_GET_FLAG(RCC_FLAG_PLLRDY) != RESET)
 8005166:	4b29      	ldr	r3, [pc, #164]	@ (800520c <HAL_RCC_OscConfig+0x4ac>)
 8005168:	681b      	ldr	r3, [r3, #0]
 800516a:	f003 7300 	and.w	r3, r3, #33554432	@ 0x2000000
 800516e:	2b00      	cmp	r3, #0
 8005170:	d1f0      	bne.n	8005154 <HAL_RCC_OscConfig+0x3f4>
          }
        }

        /* Configure the main PLL clock source, multiplication and division factors. */
        WRITE_REG(RCC->PLLCFGR, (RCC_OscInitStruct->PLL.PLLSource                                            | \
 8005172:	687b      	ldr	r3, [r7, #4]
 8005174:	69da      	ldr	r2, [r3, #28]
 8005176:	687b      	ldr	r3, [r7, #4]
 8005178:	6a1b      	ldr	r3, [r3, #32]
 800517a:	431a      	orrs	r2, r3
 800517c:	687b      	ldr	r3, [r7, #4]
 800517e:	6a5b      	ldr	r3, [r3, #36]	@ 0x24
 8005180:	019b      	lsls	r3, r3, #6
 8005182:	431a      	orrs	r2, r3
 8005184:	687b      	ldr	r3, [r7, #4]
 8005186:	6a9b      	ldr	r3, [r3, #40]	@ 0x28
 8005188:	085b      	lsrs	r3, r3, #1
 800518a:	3b01      	subs	r3, #1
 800518c:	041b      	lsls	r3, r3, #16
 800518e:	431a      	orrs	r2, r3
 8005190:	687b      	ldr	r3, [r7, #4]
 8005192:	6adb      	ldr	r3, [r3, #44]	@ 0x2c
 8005194:	061b      	lsls	r3, r3, #24
 8005196:	431a      	orrs	r2, r3
 8005198:	687b      	ldr	r3, [r7, #4]
 800519a:	6b1b      	ldr	r3, [r3, #48]	@ 0x30
 800519c:	071b      	lsls	r3, r3, #28
 800519e:	491b      	ldr	r1, [pc, #108]	@ (800520c <HAL_RCC_OscConfig+0x4ac>)
 80051a0:	4313      	orrs	r3, r2
 80051a2:	604b      	str	r3, [r1, #4]
                                 (RCC_OscInitStruct->PLL.PLLN << RCC_PLLCFGR_PLLN_Pos)                       | \
                                 (((RCC_OscInitStruct->PLL.PLLP >> 1U) - 1U) << RCC_PLLCFGR_PLLP_Pos)        | \
                                 (RCC_OscInitStruct->PLL.PLLQ << RCC_PLLCFGR_PLLQ_Pos)                       | \
                                 (RCC_OscInitStruct->PLL.PLLR << RCC_PLLCFGR_PLLR_Pos)));
        /* Enable the main PLL. */
        __HAL_RCC_PLL_ENABLE();
 80051a4:	4b1b      	ldr	r3, [pc, #108]	@ (8005214 <HAL_RCC_OscConfig+0x4b4>)
 80051a6:	2201      	movs	r2, #1
 80051a8:	601a      	str	r2, [r3, #0]

        /* Get Start Tick*/
        tickstart = HAL_GetTick();
 80051aa:	f7fd fac9 	bl	8002740 <HAL_GetTick>
 80051ae:	6138      	str	r0, [r7, #16]

        /* Wait till PLL is ready */
        while (__HAL_RCC_GET_FLAG(RCC_FLAG_PLLRDY) == RESET)
 80051b0:	e008      	b.n	80051c4 <HAL_RCC_OscConfig+0x464>
        {
          if ((HAL_GetTick() - tickstart) > PLL_TIMEOUT_VALUE)
 80051b2:	f7fd fac5 	bl	8002740 <HAL_GetTick>
 80051b6:	4602      	mov	r2, r0
 80051b8:	693b      	ldr	r3, [r7, #16]
 80051ba:	1ad3      	subs	r3, r2, r3
 80051bc:	2b02      	cmp	r3, #2
 80051be:	d901      	bls.n	80051c4 <HAL_RCC_OscConfig+0x464>
          {
            return HAL_TIMEOUT;
 80051c0:	2303      	movs	r3, #3
 80051c2:	e064      	b.n	800528e <HAL_RCC_OscConfig+0x52e>
        while (__HAL_RCC_GET_FLAG(RCC_FLAG_PLLRDY) == RESET)
 80051c4:	4b11      	ldr	r3, [pc, #68]	@ (800520c <HAL_RCC_OscConfig+0x4ac>)
 80051c6:	681b      	ldr	r3, [r3, #0]
 80051c8:	f003 7300 	and.w	r3, r3, #33554432	@ 0x2000000
 80051cc:	2b00      	cmp	r3, #0
 80051ce:	d0f0      	beq.n	80051b2 <HAL_RCC_OscConfig+0x452>
 80051d0:	e05c      	b.n	800528c <HAL_RCC_OscConfig+0x52c>
        }
      }
      else
      {
        /* Disable the main PLL. */
        __HAL_RCC_PLL_DISABLE();
 80051d2:	4b10      	ldr	r3, [pc, #64]	@ (8005214 <HAL_RCC_OscConfig+0x4b4>)
 80051d4:	2200      	movs	r2, #0
 80051d6:	601a      	str	r2, [r3, #0]

        /* Get Start Tick*/
        tickstart = HAL_GetTick();
 80051d8:	f7fd fab2 	bl	8002740 <HAL_GetTick>
 80051dc:	6138      	str	r0, [r7, #16]

        /* Wait till PLL is ready */
        while (__HAL_RCC_GET_FLAG(RCC_FLAG_PLLRDY) != RESET)
 80051de:	e008      	b.n	80051f2 <HAL_RCC_OscConfig+0x492>
        {
          if ((HAL_GetTick() - tickstart) > PLL_TIMEOUT_VALUE)
 80051e0:	f7fd faae 	bl	8002740 <HAL_GetTick>
 80051e4:	4602      	mov	r2, r0
 80051e6:	693b      	ldr	r3, [r7, #16]
 80051e8:	1ad3      	subs	r3, r2, r3
 80051ea:	2b02      	cmp	r3, #2
 80051ec:	d901      	bls.n	80051f2 <HAL_RCC_OscConfig+0x492>
          {
            return HAL_TIMEOUT;
 80051ee:	2303      	movs	r3, #3
 80051f0:	e04d      	b.n	800528e <HAL_RCC_OscConfig+0x52e>
        while (__HAL_RCC_GET_FLAG(RCC_FLAG_PLLRDY) != RESET)
 80051f2:	4b06      	ldr	r3, [pc, #24]	@ (800520c <HAL_RCC_OscConfig+0x4ac>)
 80051f4:	681b      	ldr	r3, [r3, #0]
 80051f6:	f003 7300 	and.w	r3, r3, #33554432	@ 0x2000000
 80051fa:	2b00      	cmp	r3, #0
 80051fc:	d1f0      	bne.n	80051e0 <HAL_RCC_OscConfig+0x480>
 80051fe:	e045      	b.n	800528c <HAL_RCC_OscConfig+0x52c>
      }
    }
    else
    {
      /* Check if there is a request to disable the PLL used as System clock source */
      if ((RCC_OscInitStruct->PLL.PLLState) == RCC_PLL_OFF)
 8005200:	687b      	ldr	r3, [r7, #4]
 8005202:	699b      	ldr	r3, [r3, #24]
 8005204:	2b01      	cmp	r3, #1
 8005206:	d107      	bne.n	8005218 <HAL_RCC_OscConfig+0x4b8>
      {
        return HAL_ERROR;
 8005208:	2301      	movs	r3, #1
 800520a:	e040      	b.n	800528e <HAL_RCC_OscConfig+0x52e>
 800520c:	40023800 	.word	0x40023800
 8005210:	40007000 	.word	0x40007000
 8005214:	42470060 	.word	0x42470060
      }
      else
      {
        /* Do not return HAL_ERROR if request repeats the current configuration */
        pll_config = RCC->PLLCFGR;
 8005218:	4b1f      	ldr	r3, [pc, #124]	@ (8005298 <HAL_RCC_OscConfig+0x538>)
 800521a:	685b      	ldr	r3, [r3, #4]
 800521c:	60fb      	str	r3, [r7, #12]
#if defined (RCC_PLLCFGR_PLLR)
        if (((RCC_OscInitStruct->PLL.PLLState) == RCC_PLL_OFF) ||
 800521e:	687b      	ldr	r3, [r7, #4]
 8005220:	699b      	ldr	r3, [r3, #24]
 8005222:	2b01      	cmp	r3, #1
 8005224:	d030      	beq.n	8005288 <HAL_RCC_OscConfig+0x528>
            (READ_BIT(pll_config, RCC_PLLCFGR_PLLSRC) != RCC_OscInitStruct->PLL.PLLSource) ||
 8005226:	68fb      	ldr	r3, [r7, #12]
 8005228:	f403 0280 	and.w	r2, r3, #4194304	@ 0x400000
 800522c:	687b      	ldr	r3, [r7, #4]
 800522e:	69db      	ldr	r3, [r3, #28]
        if (((RCC_OscInitStruct->PLL.PLLState) == RCC_PLL_OFF) ||
 8005230:	429a      	cmp	r2, r3
 8005232:	d129      	bne.n	8005288 <HAL_RCC_OscConfig+0x528>
            (READ_BIT(pll_config, RCC_PLLCFGR_PLLM) != (RCC_OscInitStruct->PLL.PLLM) << RCC_PLLCFGR_PLLM_Pos) ||
 8005234:	68fb      	ldr	r3, [r7, #12]
 8005236:	f003 023f 	and.w	r2, r3, #63	@ 0x3f
 800523a:	687b      	ldr	r3, [r7, #4]
 800523c:	6a1b      	ldr	r3, [r3, #32]
            (READ_BIT(pll_config, RCC_PLLCFGR_PLLSRC) != RCC_OscInitStruct->PLL.PLLSource) ||
 800523e:	429a      	cmp	r2, r3
 8005240:	d122      	bne.n	8005288 <HAL_RCC_OscConfig+0x528>
            (READ_BIT(pll_config, RCC_PLLCFGR_PLLN) != (RCC_OscInitStruct->PLL.PLLN) << RCC_PLLCFGR_PLLN_Pos) ||
 8005242:	68fa      	ldr	r2, [r7, #12]
 8005244:	f647 73c0 	movw	r3, #32704	@ 0x7fc0
 8005248:	4013      	ands	r3, r2
 800524a:	687a      	ldr	r2, [r7, #4]
 800524c:	6a52      	ldr	r2, [r2, #36]	@ 0x24
 800524e:	0192      	lsls	r2, r2, #6
            (READ_BIT(pll_config, RCC_PLLCFGR_PLLM) != (RCC_OscInitStruct->PLL.PLLM) << RCC_PLLCFGR_PLLM_Pos) ||
 8005250:	4293      	cmp	r3, r2
 8005252:	d119      	bne.n	8005288 <HAL_RCC_OscConfig+0x528>
            (READ_BIT(pll_config, RCC_PLLCFGR_PLLP) != (((RCC_OscInitStruct->PLL.PLLP >> 1U) - 1U)) << RCC_PLLCFGR_PLLP_Pos) ||
 8005254:	68fb      	ldr	r3, [r7, #12]
 8005256:	f403 3240 	and.w	r2, r3, #196608	@ 0x30000
 800525a:	687b      	ldr	r3, [r7, #4]
 800525c:	6a9b      	ldr	r3, [r3, #40]	@ 0x28
 800525e:	085b      	lsrs	r3, r3, #1
 8005260:	3b01      	subs	r3, #1
 8005262:	041b      	lsls	r3, r3, #16
            (READ_BIT(pll_config, RCC_PLLCFGR_PLLN) != (RCC_OscInitStruct->PLL.PLLN) << RCC_PLLCFGR_PLLN_Pos) ||
 8005264:	429a      	cmp	r2, r3
 8005266:	d10f      	bne.n	8005288 <HAL_RCC_OscConfig+0x528>
            (READ_BIT(pll_config, RCC_PLLCFGR_PLLQ) != (RCC_OscInitStruct->PLL.PLLQ << RCC_PLLCFGR_PLLQ_Pos)) ||
 8005268:	68fb      	ldr	r3, [r7, #12]
 800526a:	f003 6270 	and.w	r2, r3, #251658240	@ 0xf000000
 800526e:	687b      	ldr	r3, [r7, #4]
 8005270:	6adb      	ldr	r3, [r3, #44]	@ 0x2c
 8005272:	061b      	lsls	r3, r3, #24
            (READ_BIT(pll_config, RCC_PLLCFGR_PLLP) != (((RCC_OscInitStruct->PLL.PLLP >> 1U) - 1U)) << RCC_PLLCFGR_PLLP_Pos) ||
 8005274:	429a      	cmp	r2, r3
 8005276:	d107      	bne.n	8005288 <HAL_RCC_OscConfig+0x528>
            (READ_BIT(pll_config, RCC_PLLCFGR_PLLR) != (RCC_OscInitStruct->PLL.PLLR << RCC_PLLCFGR_PLLR_Pos)))
 8005278:	68fb      	ldr	r3, [r7, #12]
 800527a:	f003 42e0 	and.w	r2, r3, #1879048192	@ 0x70000000
 800527e:	687b      	ldr	r3, [r7, #4]
 8005280:	6b1b      	ldr	r3, [r3, #48]	@ 0x30
 8005282:	071b      	lsls	r3, r3, #28
            (READ_BIT(pll_config, RCC_PLLCFGR_PLLQ) != (RCC_OscInitStruct->PLL.PLLQ << RCC_PLLCFGR_PLLQ_Pos)) ||
 8005284:	429a      	cmp	r2, r3
 8005286:	d001      	beq.n	800528c <HAL_RCC_OscConfig+0x52c>
            (READ_BIT(pll_config, RCC_PLLCFGR_PLLN) != (RCC_OscInitStruct->PLL.PLLN) << RCC_PLLCFGR_PLLN_Pos) ||
            (READ_BIT(pll_config, RCC_PLLCFGR_PLLP) != (((RCC_OscInitStruct->PLL.PLLP >> 1U) - 1U)) << RCC_PLLCFGR_PLLP_Pos) ||
            (READ_BIT(pll_config, RCC_PLLCFGR_PLLQ) != (RCC_OscInitStruct->PLL.PLLQ << RCC_PLLCFGR_PLLQ_Pos)))
#endif /* RCC_PLLCFGR_PLLR */
        {
          return HAL_ERROR;
 8005288:	2301      	movs	r3, #1
 800528a:	e000      	b.n	800528e <HAL_RCC_OscConfig+0x52e>
        }
      }
    }
  }
  return HAL_OK;
 800528c:	2300      	movs	r3, #0
}
 800528e:	4618      	mov	r0, r3
 8005290:	3718      	adds	r7, #24
 8005292:	46bd      	mov	sp, r7
 8005294:	bd80      	pop	{r7, pc}
 8005296:	bf00      	nop
 8005298:	40023800 	.word	0x40023800

0800529c <HAL_UART_Init>:
  * @param  huart  Pointer to a UART_HandleTypeDef structure that contains
  *                the configuration information for the specified UART module.
  * @retval HAL status
  */
HAL_StatusTypeDef HAL_UART_Init(UART_HandleTypeDef *huart)
{
 800529c:	b580      	push	{r7, lr}
 800529e:	b082      	sub	sp, #8
 80052a0:	af00      	add	r7, sp, #0
 80052a2:	6078      	str	r0, [r7, #4]
  /* Check the UART handle allocation */
  if (huart == NULL)
 80052a4:	687b      	ldr	r3, [r7, #4]
 80052a6:	2b00      	cmp	r3, #0
 80052a8:	d101      	bne.n	80052ae <HAL_UART_Init+0x12>
  {
    return HAL_ERROR;
 80052aa:	2301      	movs	r3, #1
 80052ac:	e042      	b.n	8005334 <HAL_UART_Init+0x98>
    assert_param(IS_UART_INSTANCE(huart->Instance));
  }
  assert_param(IS_UART_WORD_LENGTH(huart->Init.WordLength));
  assert_param(IS_UART_OVERSAMPLING(huart->Init.OverSampling));

  if (huart->gState == HAL_UART_STATE_RESET)
 80052ae:	687b      	ldr	r3, [r7, #4]
 80052b0:	f893 3041 	ldrb.w	r3, [r3, #65]	@ 0x41
 80052b4:	b2db      	uxtb	r3, r3
 80052b6:	2b00      	cmp	r3, #0
 80052b8:	d106      	bne.n	80052c8 <HAL_UART_Init+0x2c>
  {
    /* Allocate lock resource and initialize it */
    huart->Lock = HAL_UNLOCKED;
 80052ba:	687b      	ldr	r3, [r7, #4]
 80052bc:	2200      	movs	r2, #0
 80052be:	f883 2040 	strb.w	r2, [r3, #64]	@ 0x40

    /* Init the low level hardware */
    huart->MspInitCallback(huart);
#else
    /* Init the low level hardware : GPIO, CLOCK */
    HAL_UART_MspInit(huart);
 80052c2:	6878      	ldr	r0, [r7, #4]
 80052c4:	f7fd f848 	bl	8002358 <HAL_UART_MspInit>
#endif /* (USE_HAL_UART_REGISTER_CALLBACKS) */
  }

  huart->gState = HAL_UART_STATE_BUSY;
 80052c8:	687b      	ldr	r3, [r7, #4]
 80052ca:	2224      	movs	r2, #36	@ 0x24
 80052cc:	f883 2041 	strb.w	r2, [r3, #65]	@ 0x41

  /* Disable the peripheral */
  __HAL_UART_DISABLE(huart);
 80052d0:	687b      	ldr	r3, [r7, #4]
 80052d2:	681b      	ldr	r3, [r3, #0]
 80052d4:	68da      	ldr	r2, [r3, #12]
 80052d6:	687b      	ldr	r3, [r7, #4]
 80052d8:	681b      	ldr	r3, [r3, #0]
 80052da:	f422 5200 	bic.w	r2, r2, #8192	@ 0x2000
 80052de:	60da      	str	r2, [r3, #12]

  /* Set the UART Communication parameters */
  UART_SetConfig(huart);
 80052e0:	6878      	ldr	r0, [r7, #4]
 80052e2:	f000 f973 	bl	80055cc <UART_SetConfig>

  /* In asynchronous mode, the following bits must be kept cleared:
     - LINEN and CLKEN bits in the USART_CR2 register,
     - SCEN, HDSEL and IREN  bits in the USART_CR3 register.*/
  CLEAR_BIT(huart->Instance->CR2, (USART_CR2_LINEN | USART_CR2_CLKEN));
 80052e6:	687b      	ldr	r3, [r7, #4]
 80052e8:	681b      	ldr	r3, [r3, #0]
 80052ea:	691a      	ldr	r2, [r3, #16]
 80052ec:	687b      	ldr	r3, [r7, #4]
 80052ee:	681b      	ldr	r3, [r3, #0]
 80052f0:	f422 4290 	bic.w	r2, r2, #18432	@ 0x4800
 80052f4:	611a      	str	r2, [r3, #16]
  CLEAR_BIT(huart->Instance->CR3, (USART_CR3_SCEN | USART_CR3_HDSEL | USART_CR3_IREN));
 80052f6:	687b      	ldr	r3, [r7, #4]
 80052f8:	681b      	ldr	r3, [r3, #0]
 80052fa:	695a      	ldr	r2, [r3, #20]
 80052fc:	687b      	ldr	r3, [r7, #4]
 80052fe:	681b      	ldr	r3, [r3, #0]
 8005300:	f022 022a 	bic.w	r2, r2, #42	@ 0x2a
 8005304:	615a      	str	r2, [r3, #20]

  /* Enable the peripheral */
  __HAL_UART_ENABLE(huart);
 8005306:	687b      	ldr	r3, [r7, #4]
 8005308:	681b      	ldr	r3, [r3, #0]
 800530a:	68da      	ldr	r2, [r3, #12]
 800530c:	687b      	ldr	r3, [r7, #4]
 800530e:	681b      	ldr	r3, [r3, #0]
 8005310:	f442 5200 	orr.w	r2, r2, #8192	@ 0x2000
 8005314:	60da      	str	r2, [r3, #12]

  /* Initialize the UART state */
  huart->ErrorCode = HAL_UART_ERROR_NONE;
 8005316:	687b      	ldr	r3, [r7, #4]
 8005318:	2200      	movs	r2, #0
 800531a:	645a      	str	r2, [r3, #68]	@ 0x44
  huart->gState = HAL_UART_STATE_READY;
 800531c:	687b      	ldr	r3, [r7, #4]
 800531e:	2220      	movs	r2, #32
 8005320:	f883 2041 	strb.w	r2, [r3, #65]	@ 0x41
  huart->RxState = HAL_UART_STATE_READY;
 8005324:	687b      	ldr	r3, [r7, #4]
 8005326:	2220      	movs	r2, #32
 8005328:	f883 2042 	strb.w	r2, [r3, #66]	@ 0x42
  huart->RxEventType = HAL_UART_RXEVENT_TC;
 800532c:	687b      	ldr	r3, [r7, #4]
 800532e:	2200      	movs	r2, #0
 8005330:	635a      	str	r2, [r3, #52]	@ 0x34

  return HAL_OK;
 8005332:	2300      	movs	r3, #0
}
 8005334:	4618      	mov	r0, r3
 8005336:	3708      	adds	r7, #8
 8005338:	46bd      	mov	sp, r7
 800533a:	bd80      	pop	{r7, pc}

0800533c <HAL_UART_Transmit>:
  * @param  Size  Amount of data elements (u8 or u16) to be sent
  * @param  Timeout Timeout duration
  * @retval HAL status
  */
HAL_StatusTypeDef HAL_UART_Transmit(UART_HandleTypeDef *huart, const uint8_t *pData, uint16_t Size, uint32_t Timeout)
{
 800533c:	b580      	push	{r7, lr}
 800533e:	b08a      	sub	sp, #40	@ 0x28
 8005340:	af02      	add	r7, sp, #8
 8005342:	60f8      	str	r0, [r7, #12]
 8005344:	60b9      	str	r1, [r7, #8]
 8005346:	603b      	str	r3, [r7, #0]
 8005348:	4613      	mov	r3, r2
 800534a:	80fb      	strh	r3, [r7, #6]
  const uint8_t  *pdata8bits;
  const uint16_t *pdata16bits;
  uint32_t tickstart = 0U;
 800534c:	2300      	movs	r3, #0
 800534e:	617b      	str	r3, [r7, #20]

  /* Check that a Tx process is not already ongoing */
  if (huart->gState == HAL_UART_STATE_READY)
 8005350:	68fb      	ldr	r3, [r7, #12]
 8005352:	f893 3041 	ldrb.w	r3, [r3, #65]	@ 0x41
 8005356:	b2db      	uxtb	r3, r3
 8005358:	2b20      	cmp	r3, #32
 800535a:	d175      	bne.n	8005448 <HAL_UART_Transmit+0x10c>
  {
    if ((pData == NULL) || (Size == 0U))
 800535c:	68bb      	ldr	r3, [r7, #8]
 800535e:	2b00      	cmp	r3, #0
 8005360:	d002      	beq.n	8005368 <HAL_UART_Transmit+0x2c>
 8005362:	88fb      	ldrh	r3, [r7, #6]
 8005364:	2b00      	cmp	r3, #0
 8005366:	d101      	bne.n	800536c <HAL_UART_Transmit+0x30>
    {
      return  HAL_ERROR;
 8005368:	2301      	movs	r3, #1
 800536a:	e06e      	b.n	800544a <HAL_UART_Transmit+0x10e>
    }

    huart->ErrorCode = HAL_UART_ERROR_NONE;
 800536c:	68fb      	ldr	r3, [r7, #12]
 800536e:	2200      	movs	r2, #0
 8005370:	645a      	str	r2, [r3, #68]	@ 0x44
    huart->gState = HAL_UART_STATE_BUSY_TX;
 8005372:	68fb      	ldr	r3, [r7, #12]
 8005374:	2221      	movs	r2, #33	@ 0x21
 8005376:	f883 2041 	strb.w	r2, [r3, #65]	@ 0x41

    /* Init tickstart for timeout management */
    tickstart = HAL_GetTick();
 800537a:	f7fd f9e1 	bl	8002740 <HAL_GetTick>
 800537e:	6178      	str	r0, [r7, #20]

    huart->TxXferSize = Size;
 8005380:	68fb      	ldr	r3, [r7, #12]
 8005382:	88fa      	ldrh	r2, [r7, #6]
 8005384:	849a      	strh	r2, [r3, #36]	@ 0x24
    huart->TxXferCount = Size;
 8005386:	68fb      	ldr	r3, [r7, #12]
 8005388:	88fa      	ldrh	r2, [r7, #6]
 800538a:	84da      	strh	r2, [r3, #38]	@ 0x26

    /* In case of 9bits/No Parity transfer, pData needs to be handled as a uint16_t pointer */
    if ((huart->Init.WordLength == UART_WORDLENGTH_9B) && (huart->Init.Parity == UART_PARITY_NONE))
 800538c:	68fb      	ldr	r3, [r7, #12]
 800538e:	689b      	ldr	r3, [r3, #8]
 8005390:	f5b3 5f80 	cmp.w	r3, #4096	@ 0x1000
 8005394:	d108      	bne.n	80053a8 <HAL_UART_Transmit+0x6c>
 8005396:	68fb      	ldr	r3, [r7, #12]
 8005398:	691b      	ldr	r3, [r3, #16]
 800539a:	2b00      	cmp	r3, #0
 800539c:	d104      	bne.n	80053a8 <HAL_UART_Transmit+0x6c>
    {
      pdata8bits  = NULL;
 800539e:	2300      	movs	r3, #0
 80053a0:	61fb      	str	r3, [r7, #28]
      pdata16bits = (const uint16_t *) pData;
 80053a2:	68bb      	ldr	r3, [r7, #8]
 80053a4:	61bb      	str	r3, [r7, #24]
 80053a6:	e003      	b.n	80053b0 <HAL_UART_Transmit+0x74>
    }
    else
    {
      pdata8bits  = pData;
 80053a8:	68bb      	ldr	r3, [r7, #8]
 80053aa:	61fb      	str	r3, [r7, #28]
      pdata16bits = NULL;
 80053ac:	2300      	movs	r3, #0
 80053ae:	61bb      	str	r3, [r7, #24]
    }

    while (huart->TxXferCount > 0U)
 80053b0:	e02e      	b.n	8005410 <HAL_UART_Transmit+0xd4>
    {
      if (UART_WaitOnFlagUntilTimeout(huart, UART_FLAG_TXE, RESET, tickstart, Timeout) != HAL_OK)
 80053b2:	683b      	ldr	r3, [r7, #0]
 80053b4:	9300      	str	r3, [sp, #0]
 80053b6:	697b      	ldr	r3, [r7, #20]
 80053b8:	2200      	movs	r2, #0
 80053ba:	2180      	movs	r1, #128	@ 0x80
 80053bc:	68f8      	ldr	r0, [r7, #12]
 80053be:	f000 f848 	bl	8005452 <UART_WaitOnFlagUntilTimeout>
 80053c2:	4603      	mov	r3, r0
 80053c4:	2b00      	cmp	r3, #0
 80053c6:	d005      	beq.n	80053d4 <HAL_UART_Transmit+0x98>
      {
        huart->gState = HAL_UART_STATE_READY;
 80053c8:	68fb      	ldr	r3, [r7, #12]
 80053ca:	2220      	movs	r2, #32
 80053cc:	f883 2041 	strb.w	r2, [r3, #65]	@ 0x41

        return HAL_TIMEOUT;
 80053d0:	2303      	movs	r3, #3
 80053d2:	e03a      	b.n	800544a <HAL_UART_Transmit+0x10e>
      }
      if (pdata8bits == NULL)
 80053d4:	69fb      	ldr	r3, [r7, #28]
 80053d6:	2b00      	cmp	r3, #0
 80053d8:	d10b      	bne.n	80053f2 <HAL_UART_Transmit+0xb6>
      {
        huart->Instance->DR = (uint16_t)(*pdata16bits & 0x01FFU);
 80053da:	69bb      	ldr	r3, [r7, #24]
 80053dc:	881b      	ldrh	r3, [r3, #0]
 80053de:	461a      	mov	r2, r3
 80053e0:	68fb      	ldr	r3, [r7, #12]
 80053e2:	681b      	ldr	r3, [r3, #0]
 80053e4:	f3c2 0208 	ubfx	r2, r2, #0, #9
 80053e8:	605a      	str	r2, [r3, #4]
        pdata16bits++;
 80053ea:	69bb      	ldr	r3, [r7, #24]
 80053ec:	3302      	adds	r3, #2
 80053ee:	61bb      	str	r3, [r7, #24]
 80053f0:	e007      	b.n	8005402 <HAL_UART_Transmit+0xc6>
      }
      else
      {
        huart->Instance->DR = (uint8_t)(*pdata8bits & 0xFFU);
 80053f2:	69fb      	ldr	r3, [r7, #28]
 80053f4:	781a      	ldrb	r2, [r3, #0]
 80053f6:	68fb      	ldr	r3, [r7, #12]
 80053f8:	681b      	ldr	r3, [r3, #0]
 80053fa:	605a      	str	r2, [r3, #4]
        pdata8bits++;
 80053fc:	69fb      	ldr	r3, [r7, #28]
 80053fe:	3301      	adds	r3, #1
 8005400:	61fb      	str	r3, [r7, #28]
      }
      huart->TxXferCount--;
 8005402:	68fb      	ldr	r3, [r7, #12]
 8005404:	8cdb      	ldrh	r3, [r3, #38]	@ 0x26
 8005406:	b29b      	uxth	r3, r3
 8005408:	3b01      	subs	r3, #1
 800540a:	b29a      	uxth	r2, r3
 800540c:	68fb      	ldr	r3, [r7, #12]
 800540e:	84da      	strh	r2, [r3, #38]	@ 0x26
    while (huart->TxXferCount > 0U)
 8005410:	68fb      	ldr	r3, [r7, #12]
 8005412:	8cdb      	ldrh	r3, [r3, #38]	@ 0x26
 8005414:	b29b      	uxth	r3, r3
 8005416:	2b00      	cmp	r3, #0
 8005418:	d1cb      	bne.n	80053b2 <HAL_UART_Transmit+0x76>
    }

    if (UART_WaitOnFlagUntilTimeout(huart, UART_FLAG_TC, RESET, tickstart, Timeout) != HAL_OK)
 800541a:	683b      	ldr	r3, [r7, #0]
 800541c:	9300      	str	r3, [sp, #0]
 800541e:	697b      	ldr	r3, [r7, #20]
 8005420:	2200      	movs	r2, #0
 8005422:	2140      	movs	r1, #64	@ 0x40
 8005424:	68f8      	ldr	r0, [r7, #12]
 8005426:	f000 f814 	bl	8005452 <UART_WaitOnFlagUntilTimeout>
 800542a:	4603      	mov	r3, r0
 800542c:	2b00      	cmp	r3, #0
 800542e:	d005      	beq.n	800543c <HAL_UART_Transmit+0x100>
    {
      huart->gState = HAL_UART_STATE_READY;
 8005430:	68fb      	ldr	r3, [r7, #12]
 8005432:	2220      	movs	r2, #32
 8005434:	f883 2041 	strb.w	r2, [r3, #65]	@ 0x41

      return HAL_TIMEOUT;
 8005438:	2303      	movs	r3, #3
 800543a:	e006      	b.n	800544a <HAL_UART_Transmit+0x10e>
    }

    /* At end of Tx process, restore huart->gState to Ready */
    huart->gState = HAL_UART_STATE_READY;
 800543c:	68fb      	ldr	r3, [r7, #12]
 800543e:	2220      	movs	r2, #32
 8005440:	f883 2041 	strb.w	r2, [r3, #65]	@ 0x41

    return HAL_OK;
 8005444:	2300      	movs	r3, #0
 8005446:	e000      	b.n	800544a <HAL_UART_Transmit+0x10e>
  }
  else
  {
    return HAL_BUSY;
 8005448:	2302      	movs	r3, #2
  }
}
 800544a:	4618      	mov	r0, r3
 800544c:	3720      	adds	r7, #32
 800544e:	46bd      	mov	sp, r7
 8005450:	bd80      	pop	{r7, pc}

08005452 <UART_WaitOnFlagUntilTimeout>:
  * @param  Timeout Timeout duration
  * @retval HAL status
  */
static HAL_StatusTypeDef UART_WaitOnFlagUntilTimeout(UART_HandleTypeDef *huart, uint32_t Flag, FlagStatus Status,
                                                     uint32_t Tickstart, uint32_t Timeout)
{
 8005452:	b580      	push	{r7, lr}
 8005454:	b086      	sub	sp, #24
 8005456:	af00      	add	r7, sp, #0
 8005458:	60f8      	str	r0, [r7, #12]
 800545a:	60b9      	str	r1, [r7, #8]
 800545c:	603b      	str	r3, [r7, #0]
 800545e:	4613      	mov	r3, r2
 8005460:	71fb      	strb	r3, [r7, #7]
  /* Wait until flag is set */
  while ((__HAL_UART_GET_FLAG(huart, Flag) ? SET : RESET) == Status)
 8005462:	e03b      	b.n	80054dc <UART_WaitOnFlagUntilTimeout+0x8a>
  {
    /* Check for the Timeout */
    if (Timeout != HAL_MAX_DELAY)
 8005464:	6a3b      	ldr	r3, [r7, #32]
 8005466:	f1b3 3fff 	cmp.w	r3, #4294967295	@ 0xffffffff
 800546a:	d037      	beq.n	80054dc <UART_WaitOnFlagUntilTimeout+0x8a>
    {
      if (((HAL_GetTick() - Tickstart) > Timeout) || (Timeout == 0U))
 800546c:	f7fd f968 	bl	8002740 <HAL_GetTick>
 8005470:	4602      	mov	r2, r0
 8005472:	683b      	ldr	r3, [r7, #0]
 8005474:	1ad3      	subs	r3, r2, r3
 8005476:	6a3a      	ldr	r2, [r7, #32]
 8005478:	429a      	cmp	r2, r3
 800547a:	d302      	bcc.n	8005482 <UART_WaitOnFlagUntilTimeout+0x30>
 800547c:	6a3b      	ldr	r3, [r7, #32]
 800547e:	2b00      	cmp	r3, #0
 8005480:	d101      	bne.n	8005486 <UART_WaitOnFlagUntilTimeout+0x34>
      {

        return HAL_TIMEOUT;
 8005482:	2303      	movs	r3, #3
 8005484:	e03a      	b.n	80054fc <UART_WaitOnFlagUntilTimeout+0xaa>
      }

      if ((READ_BIT(huart->Instance->CR1, USART_CR1_RE) != 0U) && (Flag != UART_FLAG_TXE) && (Flag != UART_FLAG_TC))
 8005486:	68fb      	ldr	r3, [r7, #12]
 8005488:	681b      	ldr	r3, [r3, #0]
 800548a:	68db      	ldr	r3, [r3, #12]
 800548c:	f003 0304 	and.w	r3, r3, #4
 8005490:	2b00      	cmp	r3, #0
 8005492:	d023      	beq.n	80054dc <UART_WaitOnFlagUntilTimeout+0x8a>
 8005494:	68bb      	ldr	r3, [r7, #8]
 8005496:	2b80      	cmp	r3, #128	@ 0x80
 8005498:	d020      	beq.n	80054dc <UART_WaitOnFlagUntilTimeout+0x8a>
 800549a:	68bb      	ldr	r3, [r7, #8]
 800549c:	2b40      	cmp	r3, #64	@ 0x40
 800549e:	d01d      	beq.n	80054dc <UART_WaitOnFlagUntilTimeout+0x8a>
      {
        if (__HAL_UART_GET_FLAG(huart, UART_FLAG_ORE) == SET)
 80054a0:	68fb      	ldr	r3, [r7, #12]
 80054a2:	681b      	ldr	r3, [r3, #0]
 80054a4:	681b      	ldr	r3, [r3, #0]
 80054a6:	f003 0308 	and.w	r3, r3, #8
 80054aa:	2b08      	cmp	r3, #8
 80054ac:	d116      	bne.n	80054dc <UART_WaitOnFlagUntilTimeout+0x8a>
        {
          /* Clear Overrun Error flag*/
          __HAL_UART_CLEAR_OREFLAG(huart);
 80054ae:	2300      	movs	r3, #0
 80054b0:	617b      	str	r3, [r7, #20]
 80054b2:	68fb      	ldr	r3, [r7, #12]
 80054b4:	681b      	ldr	r3, [r3, #0]
 80054b6:	681b      	ldr	r3, [r3, #0]
 80054b8:	617b      	str	r3, [r7, #20]
 80054ba:	68fb      	ldr	r3, [r7, #12]
 80054bc:	681b      	ldr	r3, [r3, #0]
 80054be:	685b      	ldr	r3, [r3, #4]
 80054c0:	617b      	str	r3, [r7, #20]
 80054c2:	697b      	ldr	r3, [r7, #20]

          /* Blocking error : transfer is aborted
          Set the UART state ready to be able to start again the process,
          Disable Rx Interrupts if ongoing */
          UART_EndRxTransfer(huart);
 80054c4:	68f8      	ldr	r0, [r7, #12]
 80054c6:	f000 f81d 	bl	8005504 <UART_EndRxTransfer>

          huart->ErrorCode = HAL_UART_ERROR_ORE;
 80054ca:	68fb      	ldr	r3, [r7, #12]
 80054cc:	2208      	movs	r2, #8
 80054ce:	645a      	str	r2, [r3, #68]	@ 0x44

          /* Process Unlocked */
          __HAL_UNLOCK(huart);
 80054d0:	68fb      	ldr	r3, [r7, #12]
 80054d2:	2200      	movs	r2, #0
 80054d4:	f883 2040 	strb.w	r2, [r3, #64]	@ 0x40

          return HAL_ERROR;
 80054d8:	2301      	movs	r3, #1
 80054da:	e00f      	b.n	80054fc <UART_WaitOnFlagUntilTimeout+0xaa>
  while ((__HAL_UART_GET_FLAG(huart, Flag) ? SET : RESET) == Status)
 80054dc:	68fb      	ldr	r3, [r7, #12]
 80054de:	681b      	ldr	r3, [r3, #0]
 80054e0:	681a      	ldr	r2, [r3, #0]
 80054e2:	68bb      	ldr	r3, [r7, #8]
 80054e4:	4013      	ands	r3, r2
 80054e6:	68ba      	ldr	r2, [r7, #8]
 80054e8:	429a      	cmp	r2, r3
 80054ea:	bf0c      	ite	eq
 80054ec:	2301      	moveq	r3, #1
 80054ee:	2300      	movne	r3, #0
 80054f0:	b2db      	uxtb	r3, r3
 80054f2:	461a      	mov	r2, r3
 80054f4:	79fb      	ldrb	r3, [r7, #7]
 80054f6:	429a      	cmp	r2, r3
 80054f8:	d0b4      	beq.n	8005464 <UART_WaitOnFlagUntilTimeout+0x12>
        }
      }
    }
  }
  return HAL_OK;
 80054fa:	2300      	movs	r3, #0
}
 80054fc:	4618      	mov	r0, r3
 80054fe:	3718      	adds	r7, #24
 8005500:	46bd      	mov	sp, r7
 8005502:	bd80      	pop	{r7, pc}

08005504 <UART_EndRxTransfer>:
  * @brief  End ongoing Rx transfer on UART peripheral (following error detection or Reception completion).
  * @param  huart UART handle.
  * @retval None
  */
static void UART_EndRxTransfer(UART_HandleTypeDef *huart)
{
 8005504:	b480      	push	{r7}
 8005506:	b095      	sub	sp, #84	@ 0x54
 8005508:	af00      	add	r7, sp, #0
 800550a:	6078      	str	r0, [r7, #4]
  /* Disable RXNE, PE and ERR (Frame error, noise error, overrun error) interrupts */
  ATOMIC_CLEAR_BIT(huart->Instance->CR1, (USART_CR1_RXNEIE | USART_CR1_PEIE));
 800550c:	687b      	ldr	r3, [r7, #4]
 800550e:	681b      	ldr	r3, [r3, #0]
 8005510:	330c      	adds	r3, #12
 8005512:	637b      	str	r3, [r7, #52]	@ 0x34
   __ASM volatile ("ldrex %0, %1" : "=r" (result) : "Q" (*addr) );
 8005514:	6b7b      	ldr	r3, [r7, #52]	@ 0x34
 8005516:	e853 3f00 	ldrex	r3, [r3]
 800551a:	633b      	str	r3, [r7, #48]	@ 0x30
   return(result);
 800551c:	6b3b      	ldr	r3, [r7, #48]	@ 0x30
 800551e:	f423 7390 	bic.w	r3, r3, #288	@ 0x120
 8005522:	64fb      	str	r3, [r7, #76]	@ 0x4c
 8005524:	687b      	ldr	r3, [r7, #4]
 8005526:	681b      	ldr	r3, [r3, #0]
 8005528:	330c      	adds	r3, #12
 800552a:	6cfa      	ldr	r2, [r7, #76]	@ 0x4c
 800552c:	643a      	str	r2, [r7, #64]	@ 0x40
 800552e:	63fb      	str	r3, [r7, #60]	@ 0x3c
   __ASM volatile ("strex %0, %2, %1" : "=&r" (result), "=Q" (*addr) : "r" (value) );
 8005530:	6bf9      	ldr	r1, [r7, #60]	@ 0x3c
 8005532:	6c3a      	ldr	r2, [r7, #64]	@ 0x40
 8005534:	e841 2300 	strex	r3, r2, [r1]
 8005538:	63bb      	str	r3, [r7, #56]	@ 0x38
   return(result);
 800553a:	6bbb      	ldr	r3, [r7, #56]	@ 0x38
 800553c:	2b00      	cmp	r3, #0
 800553e:	d1e5      	bne.n	800550c <UART_EndRxTransfer+0x8>
  ATOMIC_CLEAR_BIT(huart->Instance->CR3, USART_CR3_EIE);
 8005540:	687b      	ldr	r3, [r7, #4]
 8005542:	681b      	ldr	r3, [r3, #0]
 8005544:	3314      	adds	r3, #20
 8005546:	623b      	str	r3, [r7, #32]
   __ASM volatile ("ldrex %0, %1" : "=r" (result) : "Q" (*addr) );
 8005548:	6a3b      	ldr	r3, [r7, #32]
 800554a:	e853 3f00 	ldrex	r3, [r3]
 800554e:	61fb      	str	r3, [r7, #28]
   return(result);
 8005550:	69fb      	ldr	r3, [r7, #28]
 8005552:	f023 0301 	bic.w	r3, r3, #1
 8005556:	64bb      	str	r3, [r7, #72]	@ 0x48
 8005558:	687b      	ldr	r3, [r7, #4]
 800555a:	681b      	ldr	r3, [r3, #0]
 800555c:	3314      	adds	r3, #20
 800555e:	6cba      	ldr	r2, [r7, #72]	@ 0x48
 8005560:	62fa      	str	r2, [r7, #44]	@ 0x2c
 8005562:	62bb      	str	r3, [r7, #40]	@ 0x28
   __ASM volatile ("strex %0, %2, %1" : "=&r" (result), "=Q" (*addr) : "r" (value) );
 8005564:	6ab9      	ldr	r1, [r7, #40]	@ 0x28
 8005566:	6afa      	ldr	r2, [r7, #44]	@ 0x2c
 8005568:	e841 2300 	strex	r3, r2, [r1]
 800556c:	627b      	str	r3, [r7, #36]	@ 0x24
   return(result);
 800556e:	6a7b      	ldr	r3, [r7, #36]	@ 0x24
 8005570:	2b00      	cmp	r3, #0
 8005572:	d1e5      	bne.n	8005540 <UART_EndRxTransfer+0x3c>

  /* In case of reception waiting for IDLE event, disable also the IDLE IE interrupt source */
  if (huart->ReceptionType == HAL_UART_RECEPTION_TOIDLE)
 8005574:	687b      	ldr	r3, [r7, #4]
 8005576:	6b1b      	ldr	r3, [r3, #48]	@ 0x30
 8005578:	2b01      	cmp	r3, #1
 800557a:	d119      	bne.n	80055b0 <UART_EndRxTransfer+0xac>
  {
    ATOMIC_CLEAR_BIT(huart->Instance->CR1, USART_CR1_IDLEIE);
 800557c:	687b      	ldr	r3, [r7, #4]
 800557e:	681b      	ldr	r3, [r3, #0]
 8005580:	330c      	adds	r3, #12
 8005582:	60fb      	str	r3, [r7, #12]
   __ASM volatile ("ldrex %0, %1" : "=r" (result) : "Q" (*addr) );
 8005584:	68fb      	ldr	r3, [r7, #12]
 8005586:	e853 3f00 	ldrex	r3, [r3]
 800558a:	60bb      	str	r3, [r7, #8]
   return(result);
 800558c:	68bb      	ldr	r3, [r7, #8]
 800558e:	f023 0310 	bic.w	r3, r3, #16
 8005592:	647b      	str	r3, [r7, #68]	@ 0x44
 8005594:	687b      	ldr	r3, [r7, #4]
 8005596:	681b      	ldr	r3, [r3, #0]
 8005598:	330c      	adds	r3, #12
 800559a:	6c7a      	ldr	r2, [r7, #68]	@ 0x44
 800559c:	61ba      	str	r2, [r7, #24]
 800559e:	617b      	str	r3, [r7, #20]
   __ASM volatile ("strex %0, %2, %1" : "=&r" (result), "=Q" (*addr) : "r" (value) );
 80055a0:	6979      	ldr	r1, [r7, #20]
 80055a2:	69ba      	ldr	r2, [r7, #24]
 80055a4:	e841 2300 	strex	r3, r2, [r1]
 80055a8:	613b      	str	r3, [r7, #16]
   return(result);
 80055aa:	693b      	ldr	r3, [r7, #16]
 80055ac:	2b00      	cmp	r3, #0
 80055ae:	d1e5      	bne.n	800557c <UART_EndRxTransfer+0x78>
  }

  /* At end of Rx process, restore huart->RxState to Ready */
  huart->RxState = HAL_UART_STATE_READY;
 80055b0:	687b      	ldr	r3, [r7, #4]
 80055b2:	2220      	movs	r2, #32
 80055b4:	f883 2042 	strb.w	r2, [r3, #66]	@ 0x42
  huart->ReceptionType = HAL_UART_RECEPTION_STANDARD;
 80055b8:	687b      	ldr	r3, [r7, #4]
 80055ba:	2200      	movs	r2, #0
 80055bc:	631a      	str	r2, [r3, #48]	@ 0x30
}
 80055be:	bf00      	nop
 80055c0:	3754      	adds	r7, #84	@ 0x54
 80055c2:	46bd      	mov	sp, r7
 80055c4:	f85d 7b04 	ldr.w	r7, [sp], #4
 80055c8:	4770      	bx	lr
	...

080055cc <UART_SetConfig>:
  * @param  huart  Pointer to a UART_HandleTypeDef structure that contains
  *                the configuration information for the specified UART module.
  * @retval None
  */
static void UART_SetConfig(UART_HandleTypeDef *huart)
{
 80055cc:	e92d 4fb0 	stmdb	sp!, {r4, r5, r7, r8, r9, sl, fp, lr}
 80055d0:	b0c0      	sub	sp, #256	@ 0x100
 80055d2:	af00      	add	r7, sp, #0
 80055d4:	f8c7 00f4 	str.w	r0, [r7, #244]	@ 0xf4
  assert_param(IS_UART_MODE(huart->Init.Mode));

  /*-------------------------- USART CR2 Configuration -----------------------*/
  /* Configure the UART Stop Bits: Set STOP[13:12] bits
     according to huart->Init.StopBits value */
  MODIFY_REG(huart->Instance->CR2, USART_CR2_STOP, huart->Init.StopBits);
 80055d8:	f8d7 30f4 	ldr.w	r3, [r7, #244]	@ 0xf4
 80055dc:	681b      	ldr	r3, [r3, #0]
 80055de:	691b      	ldr	r3, [r3, #16]
 80055e0:	f423 5040 	bic.w	r0, r3, #12288	@ 0x3000
 80055e4:	f8d7 30f4 	ldr.w	r3, [r7, #244]	@ 0xf4
 80055e8:	68d9      	ldr	r1, [r3, #12]
 80055ea:	f8d7 30f4 	ldr.w	r3, [r7, #244]	@ 0xf4
 80055ee:	681a      	ldr	r2, [r3, #0]
 80055f0:	ea40 0301 	orr.w	r3, r0, r1
 80055f4:	6113      	str	r3, [r2, #16]
     Set the M bits according to huart->Init.WordLength value
     Set PCE and PS bits according to huart->Init.Parity value
     Set TE and RE bits according to huart->Init.Mode value
     Set OVER8 bit according to huart->Init.OverSampling value */

  tmpreg = (uint32_t)huart->Init.WordLength | huart->Init.Parity | huart->Init.Mode | huart->Init.OverSampling;
 80055f6:	f8d7 30f4 	ldr.w	r3, [r7, #244]	@ 0xf4
 80055fa:	689a      	ldr	r2, [r3, #8]
 80055fc:	f8d7 30f4 	ldr.w	r3, [r7, #244]	@ 0xf4
 8005600:	691b      	ldr	r3, [r3, #16]
 8005602:	431a      	orrs	r2, r3
 8005604:	f8d7 30f4 	ldr.w	r3, [r7, #244]	@ 0xf4
 8005608:	695b      	ldr	r3, [r3, #20]
 800560a:	431a      	orrs	r2, r3
 800560c:	f8d7 30f4 	ldr.w	r3, [r7, #244]	@ 0xf4
 8005610:	69db      	ldr	r3, [r3, #28]
 8005612:	4313      	orrs	r3, r2
 8005614:	f8c7 30f8 	str.w	r3, [r7, #248]	@ 0xf8
  MODIFY_REG(huart->Instance->CR1,
 8005618:	f8d7 30f4 	ldr.w	r3, [r7, #244]	@ 0xf4
 800561c:	681b      	ldr	r3, [r3, #0]
 800561e:	68db      	ldr	r3, [r3, #12]
 8005620:	f423 4116 	bic.w	r1, r3, #38400	@ 0x9600
 8005624:	f021 010c 	bic.w	r1, r1, #12
 8005628:	f8d7 30f4 	ldr.w	r3, [r7, #244]	@ 0xf4
 800562c:	681a      	ldr	r2, [r3, #0]
 800562e:	f8d7 30f8 	ldr.w	r3, [r7, #248]	@ 0xf8
 8005632:	430b      	orrs	r3, r1
 8005634:	60d3      	str	r3, [r2, #12]
             (uint32_t)(USART_CR1_M | USART_CR1_PCE | USART_CR1_PS | USART_CR1_TE | USART_CR1_RE | USART_CR1_OVER8),
             tmpreg);

  /*-------------------------- USART CR3 Configuration -----------------------*/
  /* Configure the UART HFC: Set CTSE and RTSE bits according to huart->Init.HwFlowCtl value */
  MODIFY_REG(huart->Instance->CR3, (USART_CR3_RTSE | USART_CR3_CTSE), huart->Init.HwFlowCtl);
 8005636:	f8d7 30f4 	ldr.w	r3, [r7, #244]	@ 0xf4
 800563a:	681b      	ldr	r3, [r3, #0]
 800563c:	695b      	ldr	r3, [r3, #20]
 800563e:	f423 7040 	bic.w	r0, r3, #768	@ 0x300
 8005642:	f8d7 30f4 	ldr.w	r3, [r7, #244]	@ 0xf4
 8005646:	6999      	ldr	r1, [r3, #24]
 8005648:	f8d7 30f4 	ldr.w	r3, [r7, #244]	@ 0xf4
 800564c:	681a      	ldr	r2, [r3, #0]
 800564e:	ea40 0301 	orr.w	r3, r0, r1
 8005652:	6153      	str	r3, [r2, #20]
    if ((huart->Instance == USART1) || (huart->Instance == USART6) || (huart->Instance == UART9) || (huart->Instance == UART10))
    {
      pclk = HAL_RCC_GetPCLK2Freq();
    }
#elif defined(USART6)
    if ((huart->Instance == USART1) || (huart->Instance == USART6))
 8005654:	f8d7 30f4 	ldr.w	r3, [r7, #244]	@ 0xf4
 8005658:	681a      	ldr	r2, [r3, #0]
 800565a:	4b8f      	ldr	r3, [pc, #572]	@ (8005898 <UART_SetConfig+0x2cc>)
 800565c:	429a      	cmp	r2, r3
 800565e:	d005      	beq.n	800566c <UART_SetConfig+0xa0>
 8005660:	f8d7 30f4 	ldr.w	r3, [r7, #244]	@ 0xf4
 8005664:	681a      	ldr	r2, [r3, #0]
 8005666:	4b8d      	ldr	r3, [pc, #564]	@ (800589c <UART_SetConfig+0x2d0>)
 8005668:	429a      	cmp	r2, r3
 800566a:	d104      	bne.n	8005676 <UART_SetConfig+0xaa>
    {
      pclk = HAL_RCC_GetPCLK2Freq();
 800566c:	f7ff f934 	bl	80048d8 <HAL_RCC_GetPCLK2Freq>
 8005670:	f8c7 00fc 	str.w	r0, [r7, #252]	@ 0xfc
 8005674:	e003      	b.n	800567e <UART_SetConfig+0xb2>
      pclk = HAL_RCC_GetPCLK2Freq();
    }
#endif /* USART6 */
    else
    {
      pclk = HAL_RCC_GetPCLK1Freq();
 8005676:	f7ff f91b 	bl	80048b0 <HAL_RCC_GetPCLK1Freq>
 800567a:	f8c7 00fc 	str.w	r0, [r7, #252]	@ 0xfc
    }
  /*-------------------------- USART BRR Configuration ---------------------*/
  if (huart->Init.OverSampling == UART_OVERSAMPLING_8)
 800567e:	f8d7 30f4 	ldr.w	r3, [r7, #244]	@ 0xf4
 8005682:	69db      	ldr	r3, [r3, #28]
 8005684:	f5b3 4f00 	cmp.w	r3, #32768	@ 0x8000
 8005688:	f040 810c 	bne.w	80058a4 <UART_SetConfig+0x2d8>
  {
    huart->Instance->BRR = UART_BRR_SAMPLING8(pclk, huart->Init.BaudRate);
 800568c:	f8d7 30fc 	ldr.w	r3, [r7, #252]	@ 0xfc
 8005690:	2200      	movs	r2, #0
 8005692:	f8c7 30e8 	str.w	r3, [r7, #232]	@ 0xe8
 8005696:	f8c7 20ec 	str.w	r2, [r7, #236]	@ 0xec
 800569a:	e9d7 453a 	ldrd	r4, r5, [r7, #232]	@ 0xe8
 800569e:	4622      	mov	r2, r4
 80056a0:	462b      	mov	r3, r5
 80056a2:	1891      	adds	r1, r2, r2
 80056a4:	65b9      	str	r1, [r7, #88]	@ 0x58
 80056a6:	415b      	adcs	r3, r3
 80056a8:	65fb      	str	r3, [r7, #92]	@ 0x5c
 80056aa:	e9d7 2316 	ldrd	r2, r3, [r7, #88]	@ 0x58
 80056ae:	4621      	mov	r1, r4
 80056b0:	eb12 0801 	adds.w	r8, r2, r1
 80056b4:	4629      	mov	r1, r5
 80056b6:	eb43 0901 	adc.w	r9, r3, r1
 80056ba:	f04f 0200 	mov.w	r2, #0
 80056be:	f04f 0300 	mov.w	r3, #0
 80056c2:	ea4f 03c9 	mov.w	r3, r9, lsl #3
 80056c6:	ea43 7358 	orr.w	r3, r3, r8, lsr #29
 80056ca:	ea4f 02c8 	mov.w	r2, r8, lsl #3
 80056ce:	4690      	mov	r8, r2
 80056d0:	4699      	mov	r9, r3
 80056d2:	4623      	mov	r3, r4
 80056d4:	eb18 0303 	adds.w	r3, r8, r3
 80056d8:	f8c7 30e0 	str.w	r3, [r7, #224]	@ 0xe0
 80056dc:	462b      	mov	r3, r5
 80056de:	eb49 0303 	adc.w	r3, r9, r3
 80056e2:	f8c7 30e4 	str.w	r3, [r7, #228]	@ 0xe4
 80056e6:	f8d7 30f4 	ldr.w	r3, [r7, #244]	@ 0xf4
 80056ea:	685b      	ldr	r3, [r3, #4]
 80056ec:	2200      	movs	r2, #0
 80056ee:	f8c7 30d8 	str.w	r3, [r7, #216]	@ 0xd8
 80056f2:	f8c7 20dc 	str.w	r2, [r7, #220]	@ 0xdc
 80056f6:	e9d7 1236 	ldrd	r1, r2, [r7, #216]	@ 0xd8
 80056fa:	460b      	mov	r3, r1
 80056fc:	18db      	adds	r3, r3, r3
 80056fe:	653b      	str	r3, [r7, #80]	@ 0x50
 8005700:	4613      	mov	r3, r2
 8005702:	eb42 0303 	adc.w	r3, r2, r3
 8005706:	657b      	str	r3, [r7, #84]	@ 0x54
 8005708:	e9d7 2314 	ldrd	r2, r3, [r7, #80]	@ 0x50
 800570c:	e9d7 0138 	ldrd	r0, r1, [r7, #224]	@ 0xe0
 8005710:	f7fb faba 	bl	8000c88 <__aeabi_uldivmod>
 8005714:	4602      	mov	r2, r0
 8005716:	460b      	mov	r3, r1
 8005718:	4b61      	ldr	r3, [pc, #388]	@ (80058a0 <UART_SetConfig+0x2d4>)
 800571a:	fba3 2302 	umull	r2, r3, r3, r2
 800571e:	095b      	lsrs	r3, r3, #5
 8005720:	011c      	lsls	r4, r3, #4
 8005722:	f8d7 30fc 	ldr.w	r3, [r7, #252]	@ 0xfc
 8005726:	2200      	movs	r2, #0
 8005728:	f8c7 30d0 	str.w	r3, [r7, #208]	@ 0xd0
 800572c:	f8c7 20d4 	str.w	r2, [r7, #212]	@ 0xd4
 8005730:	e9d7 8934 	ldrd	r8, r9, [r7, #208]	@ 0xd0
 8005734:	4642      	mov	r2, r8
 8005736:	464b      	mov	r3, r9
 8005738:	1891      	adds	r1, r2, r2
 800573a:	64b9      	str	r1, [r7, #72]	@ 0x48
 800573c:	415b      	adcs	r3, r3
 800573e:	64fb      	str	r3, [r7, #76]	@ 0x4c
 8005740:	e9d7 2312 	ldrd	r2, r3, [r7, #72]	@ 0x48
 8005744:	4641      	mov	r1, r8
 8005746:	eb12 0a01 	adds.w	sl, r2, r1
 800574a:	4649      	mov	r1, r9
 800574c:	eb43 0b01 	adc.w	fp, r3, r1
 8005750:	f04f 0200 	mov.w	r2, #0
 8005754:	f04f 0300 	mov.w	r3, #0
 8005758:	ea4f 03cb 	mov.w	r3, fp, lsl #3
 800575c:	ea43 735a 	orr.w	r3, r3, sl, lsr #29
 8005760:	ea4f 02ca 	mov.w	r2, sl, lsl #3
 8005764:	4692      	mov	sl, r2
 8005766:	469b      	mov	fp, r3
 8005768:	4643      	mov	r3, r8
 800576a:	eb1a 0303 	adds.w	r3, sl, r3
 800576e:	f8c7 30c8 	str.w	r3, [r7, #200]	@ 0xc8
 8005772:	464b      	mov	r3, r9
 8005774:	eb4b 0303 	adc.w	r3, fp, r3
 8005778:	f8c7 30cc 	str.w	r3, [r7, #204]	@ 0xcc
 800577c:	f8d7 30f4 	ldr.w	r3, [r7, #244]	@ 0xf4
 8005780:	685b      	ldr	r3, [r3, #4]
 8005782:	2200      	movs	r2, #0
 8005784:	f8c7 30c0 	str.w	r3, [r7, #192]	@ 0xc0
 8005788:	f8c7 20c4 	str.w	r2, [r7, #196]	@ 0xc4
 800578c:	e9d7 1230 	ldrd	r1, r2, [r7, #192]	@ 0xc0
 8005790:	460b      	mov	r3, r1
 8005792:	18db      	adds	r3, r3, r3
 8005794:	643b      	str	r3, [r7, #64]	@ 0x40
 8005796:	4613      	mov	r3, r2
 8005798:	eb42 0303 	adc.w	r3, r2, r3
 800579c:	647b      	str	r3, [r7, #68]	@ 0x44
 800579e:	e9d7 2310 	ldrd	r2, r3, [r7, #64]	@ 0x40
 80057a2:	e9d7 0132 	ldrd	r0, r1, [r7, #200]	@ 0xc8
 80057a6:	f7fb fa6f 	bl	8000c88 <__aeabi_uldivmod>
 80057aa:	4602      	mov	r2, r0
 80057ac:	460b      	mov	r3, r1
 80057ae:	4611      	mov	r1, r2
 80057b0:	4b3b      	ldr	r3, [pc, #236]	@ (80058a0 <UART_SetConfig+0x2d4>)
 80057b2:	fba3 2301 	umull	r2, r3, r3, r1
 80057b6:	095b      	lsrs	r3, r3, #5
 80057b8:	2264      	movs	r2, #100	@ 0x64
 80057ba:	fb02 f303 	mul.w	r3, r2, r3
 80057be:	1acb      	subs	r3, r1, r3
 80057c0:	00db      	lsls	r3, r3, #3
 80057c2:	f103 0232 	add.w	r2, r3, #50	@ 0x32
 80057c6:	4b36      	ldr	r3, [pc, #216]	@ (80058a0 <UART_SetConfig+0x2d4>)
 80057c8:	fba3 2302 	umull	r2, r3, r3, r2
 80057cc:	095b      	lsrs	r3, r3, #5
 80057ce:	005b      	lsls	r3, r3, #1
 80057d0:	f403 73f8 	and.w	r3, r3, #496	@ 0x1f0
 80057d4:	441c      	add	r4, r3
 80057d6:	f8d7 30fc 	ldr.w	r3, [r7, #252]	@ 0xfc
 80057da:	2200      	movs	r2, #0
 80057dc:	f8c7 30b8 	str.w	r3, [r7, #184]	@ 0xb8
 80057e0:	f8c7 20bc 	str.w	r2, [r7, #188]	@ 0xbc
 80057e4:	e9d7 892e 	ldrd	r8, r9, [r7, #184]	@ 0xb8
 80057e8:	4642      	mov	r2, r8
 80057ea:	464b      	mov	r3, r9
 80057ec:	1891      	adds	r1, r2, r2
 80057ee:	63b9      	str	r1, [r7, #56]	@ 0x38
 80057f0:	415b      	adcs	r3, r3
 80057f2:	63fb      	str	r3, [r7, #60]	@ 0x3c
 80057f4:	e9d7 230e 	ldrd	r2, r3, [r7, #56]	@ 0x38
 80057f8:	4641      	mov	r1, r8
 80057fa:	1851      	adds	r1, r2, r1
 80057fc:	6339      	str	r1, [r7, #48]	@ 0x30
 80057fe:	4649      	mov	r1, r9
 8005800:	414b      	adcs	r3, r1
 8005802:	637b      	str	r3, [r7, #52]	@ 0x34
 8005804:	f04f 0200 	mov.w	r2, #0
 8005808:	f04f 0300 	mov.w	r3, #0
 800580c:	e9d7 ab0c 	ldrd	sl, fp, [r7, #48]	@ 0x30
 8005810:	4659      	mov	r1, fp
 8005812:	00cb      	lsls	r3, r1, #3
 8005814:	4651      	mov	r1, sl
 8005816:	ea43 7351 	orr.w	r3, r3, r1, lsr #29
 800581a:	4651      	mov	r1, sl
 800581c:	00ca      	lsls	r2, r1, #3
 800581e:	4610      	mov	r0, r2
 8005820:	4619      	mov	r1, r3
 8005822:	4603      	mov	r3, r0
 8005824:	4642      	mov	r2, r8
 8005826:	189b      	adds	r3, r3, r2
 8005828:	f8c7 30b0 	str.w	r3, [r7, #176]	@ 0xb0
 800582c:	464b      	mov	r3, r9
 800582e:	460a      	mov	r2, r1
 8005830:	eb42 0303 	adc.w	r3, r2, r3
 8005834:	f8c7 30b4 	str.w	r3, [r7, #180]	@ 0xb4
 8005838:	f8d7 30f4 	ldr.w	r3, [r7, #244]	@ 0xf4
 800583c:	685b      	ldr	r3, [r3, #4]
 800583e:	2200      	movs	r2, #0
 8005840:	f8c7 30a8 	str.w	r3, [r7, #168]	@ 0xa8
 8005844:	f8c7 20ac 	str.w	r2, [r7, #172]	@ 0xac
 8005848:	e9d7 122a 	ldrd	r1, r2, [r7, #168]	@ 0xa8
 800584c:	460b      	mov	r3, r1
 800584e:	18db      	adds	r3, r3, r3
 8005850:	62bb      	str	r3, [r7, #40]	@ 0x28
 8005852:	4613      	mov	r3, r2
 8005854:	eb42 0303 	adc.w	r3, r2, r3
 8005858:	62fb      	str	r3, [r7, #44]	@ 0x2c
 800585a:	e9d7 230a 	ldrd	r2, r3, [r7, #40]	@ 0x28
 800585e:	e9d7 012c 	ldrd	r0, r1, [r7, #176]	@ 0xb0
 8005862:	f7fb fa11 	bl	8000c88 <__aeabi_uldivmod>
 8005866:	4602      	mov	r2, r0
 8005868:	460b      	mov	r3, r1
 800586a:	4b0d      	ldr	r3, [pc, #52]	@ (80058a0 <UART_SetConfig+0x2d4>)
 800586c:	fba3 1302 	umull	r1, r3, r3, r2
 8005870:	095b      	lsrs	r3, r3, #5
 8005872:	2164      	movs	r1, #100	@ 0x64
 8005874:	fb01 f303 	mul.w	r3, r1, r3
 8005878:	1ad3      	subs	r3, r2, r3
 800587a:	00db      	lsls	r3, r3, #3
 800587c:	3332      	adds	r3, #50	@ 0x32
 800587e:	4a08      	ldr	r2, [pc, #32]	@ (80058a0 <UART_SetConfig+0x2d4>)
 8005880:	fba2 2303 	umull	r2, r3, r2, r3
 8005884:	095b      	lsrs	r3, r3, #5
 8005886:	f003 0207 	and.w	r2, r3, #7
 800588a:	f8d7 30f4 	ldr.w	r3, [r7, #244]	@ 0xf4
 800588e:	681b      	ldr	r3, [r3, #0]
 8005890:	4422      	add	r2, r4
 8005892:	609a      	str	r2, [r3, #8]
  }
  else
  {
    huart->Instance->BRR = UART_BRR_SAMPLING16(pclk, huart->Init.BaudRate);
  }
}
 8005894:	e106      	b.n	8005aa4 <UART_SetConfig+0x4d8>
 8005896:	bf00      	nop
 8005898:	40011000 	.word	0x40011000
 800589c:	40011400 	.word	0x40011400
 80058a0:	51eb851f 	.word	0x51eb851f
    huart->Instance->BRR = UART_BRR_SAMPLING16(pclk, huart->Init.BaudRate);
 80058a4:	f8d7 30fc 	ldr.w	r3, [r7, #252]	@ 0xfc
 80058a8:	2200      	movs	r2, #0
 80058aa:	f8c7 30a0 	str.w	r3, [r7, #160]	@ 0xa0
 80058ae:	f8c7 20a4 	str.w	r2, [r7, #164]	@ 0xa4
 80058b2:	e9d7 8928 	ldrd	r8, r9, [r7, #160]	@ 0xa0
 80058b6:	4642      	mov	r2, r8
 80058b8:	464b      	mov	r3, r9
 80058ba:	1891      	adds	r1, r2, r2
 80058bc:	6239      	str	r1, [r7, #32]
 80058be:	415b      	adcs	r3, r3
 80058c0:	627b      	str	r3, [r7, #36]	@ 0x24
 80058c2:	e9d7 2308 	ldrd	r2, r3, [r7, #32]
 80058c6:	4641      	mov	r1, r8
 80058c8:	1854      	adds	r4, r2, r1
 80058ca:	4649      	mov	r1, r9
 80058cc:	eb43 0501 	adc.w	r5, r3, r1
 80058d0:	f04f 0200 	mov.w	r2, #0
 80058d4:	f04f 0300 	mov.w	r3, #0
 80058d8:	00eb      	lsls	r3, r5, #3
 80058da:	ea43 7354 	orr.w	r3, r3, r4, lsr #29
 80058de:	00e2      	lsls	r2, r4, #3
 80058e0:	4614      	mov	r4, r2
 80058e2:	461d      	mov	r5, r3
 80058e4:	4643      	mov	r3, r8
 80058e6:	18e3      	adds	r3, r4, r3
 80058e8:	f8c7 3098 	str.w	r3, [r7, #152]	@ 0x98
 80058ec:	464b      	mov	r3, r9
 80058ee:	eb45 0303 	adc.w	r3, r5, r3
 80058f2:	f8c7 309c 	str.w	r3, [r7, #156]	@ 0x9c
 80058f6:	f8d7 30f4 	ldr.w	r3, [r7, #244]	@ 0xf4
 80058fa:	685b      	ldr	r3, [r3, #4]
 80058fc:	2200      	movs	r2, #0
 80058fe:	f8c7 3090 	str.w	r3, [r7, #144]	@ 0x90
 8005902:	f8c7 2094 	str.w	r2, [r7, #148]	@ 0x94
 8005906:	f04f 0200 	mov.w	r2, #0
 800590a:	f04f 0300 	mov.w	r3, #0
 800590e:	e9d7 4524 	ldrd	r4, r5, [r7, #144]	@ 0x90
 8005912:	4629      	mov	r1, r5
 8005914:	008b      	lsls	r3, r1, #2
 8005916:	4621      	mov	r1, r4
 8005918:	ea43 7391 	orr.w	r3, r3, r1, lsr #30
 800591c:	4621      	mov	r1, r4
 800591e:	008a      	lsls	r2, r1, #2
 8005920:	e9d7 0126 	ldrd	r0, r1, [r7, #152]	@ 0x98
 8005924:	f7fb f9b0 	bl	8000c88 <__aeabi_uldivmod>
 8005928:	4602      	mov	r2, r0
 800592a:	460b      	mov	r3, r1
 800592c:	4b60      	ldr	r3, [pc, #384]	@ (8005ab0 <UART_SetConfig+0x4e4>)
 800592e:	fba3 2302 	umull	r2, r3, r3, r2
 8005932:	095b      	lsrs	r3, r3, #5
 8005934:	011c      	lsls	r4, r3, #4
 8005936:	f8d7 30fc 	ldr.w	r3, [r7, #252]	@ 0xfc
 800593a:	2200      	movs	r2, #0
 800593c:	f8c7 3088 	str.w	r3, [r7, #136]	@ 0x88
 8005940:	f8c7 208c 	str.w	r2, [r7, #140]	@ 0x8c
 8005944:	e9d7 8922 	ldrd	r8, r9, [r7, #136]	@ 0x88
 8005948:	4642      	mov	r2, r8
 800594a:	464b      	mov	r3, r9
 800594c:	1891      	adds	r1, r2, r2
 800594e:	61b9      	str	r1, [r7, #24]
 8005950:	415b      	adcs	r3, r3
 8005952:	61fb      	str	r3, [r7, #28]
 8005954:	e9d7 2306 	ldrd	r2, r3, [r7, #24]
 8005958:	4641      	mov	r1, r8
 800595a:	1851      	adds	r1, r2, r1
 800595c:	6139      	str	r1, [r7, #16]
 800595e:	4649      	mov	r1, r9
 8005960:	414b      	adcs	r3, r1
 8005962:	617b      	str	r3, [r7, #20]
 8005964:	f04f 0200 	mov.w	r2, #0
 8005968:	f04f 0300 	mov.w	r3, #0
 800596c:	e9d7 ab04 	ldrd	sl, fp, [r7, #16]
 8005970:	4659      	mov	r1, fp
 8005972:	00cb      	lsls	r3, r1, #3
 8005974:	4651      	mov	r1, sl
 8005976:	ea43 7351 	orr.w	r3, r3, r1, lsr #29
 800597a:	4651      	mov	r1, sl
 800597c:	00ca      	lsls	r2, r1, #3
 800597e:	4610      	mov	r0, r2
 8005980:	4619      	mov	r1, r3
 8005982:	4603      	mov	r3, r0
 8005984:	4642      	mov	r2, r8
 8005986:	189b      	adds	r3, r3, r2
 8005988:	f8c7 3080 	str.w	r3, [r7, #128]	@ 0x80
 800598c:	464b      	mov	r3, r9
 800598e:	460a      	mov	r2, r1
 8005990:	eb42 0303 	adc.w	r3, r2, r3
 8005994:	f8c7 3084 	str.w	r3, [r7, #132]	@ 0x84
 8005998:	f8d7 30f4 	ldr.w	r3, [r7, #244]	@ 0xf4
 800599c:	685b      	ldr	r3, [r3, #4]
 800599e:	2200      	movs	r2, #0
 80059a0:	67bb      	str	r3, [r7, #120]	@ 0x78
 80059a2:	67fa      	str	r2, [r7, #124]	@ 0x7c
 80059a4:	f04f 0200 	mov.w	r2, #0
 80059a8:	f04f 0300 	mov.w	r3, #0
 80059ac:	e9d7 891e 	ldrd	r8, r9, [r7, #120]	@ 0x78
 80059b0:	4649      	mov	r1, r9
 80059b2:	008b      	lsls	r3, r1, #2
 80059b4:	4641      	mov	r1, r8
 80059b6:	ea43 7391 	orr.w	r3, r3, r1, lsr #30
 80059ba:	4641      	mov	r1, r8
 80059bc:	008a      	lsls	r2, r1, #2
 80059be:	e9d7 0120 	ldrd	r0, r1, [r7, #128]	@ 0x80
 80059c2:	f7fb f961 	bl	8000c88 <__aeabi_uldivmod>
 80059c6:	4602      	mov	r2, r0
 80059c8:	460b      	mov	r3, r1
 80059ca:	4611      	mov	r1, r2
 80059cc:	4b38      	ldr	r3, [pc, #224]	@ (8005ab0 <UART_SetConfig+0x4e4>)
 80059ce:	fba3 2301 	umull	r2, r3, r3, r1
 80059d2:	095b      	lsrs	r3, r3, #5
 80059d4:	2264      	movs	r2, #100	@ 0x64
 80059d6:	fb02 f303 	mul.w	r3, r2, r3
 80059da:	1acb      	subs	r3, r1, r3
 80059dc:	011b      	lsls	r3, r3, #4
 80059de:	3332      	adds	r3, #50	@ 0x32
 80059e0:	4a33      	ldr	r2, [pc, #204]	@ (8005ab0 <UART_SetConfig+0x4e4>)
 80059e2:	fba2 2303 	umull	r2, r3, r2, r3
 80059e6:	095b      	lsrs	r3, r3, #5
 80059e8:	f003 03f0 	and.w	r3, r3, #240	@ 0xf0
 80059ec:	441c      	add	r4, r3
 80059ee:	f8d7 30fc 	ldr.w	r3, [r7, #252]	@ 0xfc
 80059f2:	2200      	movs	r2, #0
 80059f4:	673b      	str	r3, [r7, #112]	@ 0x70
 80059f6:	677a      	str	r2, [r7, #116]	@ 0x74
 80059f8:	e9d7 891c 	ldrd	r8, r9, [r7, #112]	@ 0x70
 80059fc:	4642      	mov	r2, r8
 80059fe:	464b      	mov	r3, r9
 8005a00:	1891      	adds	r1, r2, r2
 8005a02:	60b9      	str	r1, [r7, #8]
 8005a04:	415b      	adcs	r3, r3
 8005a06:	60fb      	str	r3, [r7, #12]
 8005a08:	e9d7 2302 	ldrd	r2, r3, [r7, #8]
 8005a0c:	4641      	mov	r1, r8
 8005a0e:	1851      	adds	r1, r2, r1
 8005a10:	6039      	str	r1, [r7, #0]
 8005a12:	4649      	mov	r1, r9
 8005a14:	414b      	adcs	r3, r1
 8005a16:	607b      	str	r3, [r7, #4]
 8005a18:	f04f 0200 	mov.w	r2, #0
 8005a1c:	f04f 0300 	mov.w	r3, #0
 8005a20:	e9d7 ab00 	ldrd	sl, fp, [r7]
 8005a24:	4659      	mov	r1, fp
 8005a26:	00cb      	lsls	r3, r1, #3
 8005a28:	4651      	mov	r1, sl
 8005a2a:	ea43 7351 	orr.w	r3, r3, r1, lsr #29
 8005a2e:	4651      	mov	r1, sl
 8005a30:	00ca      	lsls	r2, r1, #3
 8005a32:	4610      	mov	r0, r2
 8005a34:	4619      	mov	r1, r3
 8005a36:	4603      	mov	r3, r0
 8005a38:	4642      	mov	r2, r8
 8005a3a:	189b      	adds	r3, r3, r2
 8005a3c:	66bb      	str	r3, [r7, #104]	@ 0x68
 8005a3e:	464b      	mov	r3, r9
 8005a40:	460a      	mov	r2, r1
 8005a42:	eb42 0303 	adc.w	r3, r2, r3
 8005a46:	66fb      	str	r3, [r7, #108]	@ 0x6c
 8005a48:	f8d7 30f4 	ldr.w	r3, [r7, #244]	@ 0xf4
 8005a4c:	685b      	ldr	r3, [r3, #4]
 8005a4e:	2200      	movs	r2, #0
 8005a50:	663b      	str	r3, [r7, #96]	@ 0x60
 8005a52:	667a      	str	r2, [r7, #100]	@ 0x64
 8005a54:	f04f 0200 	mov.w	r2, #0
 8005a58:	f04f 0300 	mov.w	r3, #0
 8005a5c:	e9d7 8918 	ldrd	r8, r9, [r7, #96]	@ 0x60
 8005a60:	4649      	mov	r1, r9
 8005a62:	008b      	lsls	r3, r1, #2
 8005a64:	4641      	mov	r1, r8
 8005a66:	ea43 7391 	orr.w	r3, r3, r1, lsr #30
 8005a6a:	4641      	mov	r1, r8
 8005a6c:	008a      	lsls	r2, r1, #2
 8005a6e:	e9d7 011a 	ldrd	r0, r1, [r7, #104]	@ 0x68
 8005a72:	f7fb f909 	bl	8000c88 <__aeabi_uldivmod>
 8005a76:	4602      	mov	r2, r0
 8005a78:	460b      	mov	r3, r1
 8005a7a:	4b0d      	ldr	r3, [pc, #52]	@ (8005ab0 <UART_SetConfig+0x4e4>)
 8005a7c:	fba3 1302 	umull	r1, r3, r3, r2
 8005a80:	095b      	lsrs	r3, r3, #5
 8005a82:	2164      	movs	r1, #100	@ 0x64
 8005a84:	fb01 f303 	mul.w	r3, r1, r3
 8005a88:	1ad3      	subs	r3, r2, r3
 8005a8a:	011b      	lsls	r3, r3, #4
 8005a8c:	3332      	adds	r3, #50	@ 0x32
 8005a8e:	4a08      	ldr	r2, [pc, #32]	@ (8005ab0 <UART_SetConfig+0x4e4>)
 8005a90:	fba2 2303 	umull	r2, r3, r2, r3
 8005a94:	095b      	lsrs	r3, r3, #5
 8005a96:	f003 020f 	and.w	r2, r3, #15
 8005a9a:	f8d7 30f4 	ldr.w	r3, [r7, #244]	@ 0xf4
 8005a9e:	681b      	ldr	r3, [r3, #0]
 8005aa0:	4422      	add	r2, r4
 8005aa2:	609a      	str	r2, [r3, #8]
}
 8005aa4:	bf00      	nop
 8005aa6:	f507 7780 	add.w	r7, r7, #256	@ 0x100
 8005aaa:	46bd      	mov	sp, r7
 8005aac:	e8bd 8fb0 	ldmia.w	sp!, {r4, r5, r7, r8, r9, sl, fp, pc}
 8005ab0:	51eb851f 	.word	0x51eb851f

08005ab4 <_calloc_r>:
 8005ab4:	b570      	push	{r4, r5, r6, lr}
 8005ab6:	fba1 5402 	umull	r5, r4, r1, r2
 8005aba:	b93c      	cbnz	r4, 8005acc <_calloc_r+0x18>
 8005abc:	4629      	mov	r1, r5
 8005abe:	f000 fb01 	bl	80060c4 <_malloc_r>
 8005ac2:	4606      	mov	r6, r0
 8005ac4:	b928      	cbnz	r0, 8005ad2 <_calloc_r+0x1e>
 8005ac6:	2600      	movs	r6, #0
 8005ac8:	4630      	mov	r0, r6
 8005aca:	bd70      	pop	{r4, r5, r6, pc}
 8005acc:	220c      	movs	r2, #12
 8005ace:	6002      	str	r2, [r0, #0]
 8005ad0:	e7f9      	b.n	8005ac6 <_calloc_r+0x12>
 8005ad2:	462a      	mov	r2, r5
 8005ad4:	4621      	mov	r1, r4
 8005ad6:	f000 fdf1 	bl	80066bc <memset>
 8005ada:	e7f5      	b.n	8005ac8 <_calloc_r+0x14>

08005adc <__cvt>:
 8005adc:	e92d 47ff 	stmdb	sp!, {r0, r1, r2, r3, r4, r5, r6, r7, r8, r9, sl, lr}
 8005ae0:	ec57 6b10 	vmov	r6, r7, d0
 8005ae4:	2f00      	cmp	r7, #0
 8005ae6:	460c      	mov	r4, r1
 8005ae8:	4619      	mov	r1, r3
 8005aea:	463b      	mov	r3, r7
 8005aec:	bfbb      	ittet	lt
 8005aee:	f107 4300 	addlt.w	r3, r7, #2147483648	@ 0x80000000
 8005af2:	461f      	movlt	r7, r3
 8005af4:	2300      	movge	r3, #0
 8005af6:	232d      	movlt	r3, #45	@ 0x2d
 8005af8:	700b      	strb	r3, [r1, #0]
 8005afa:	9b0d      	ldr	r3, [sp, #52]	@ 0x34
 8005afc:	f8dd a030 	ldr.w	sl, [sp, #48]	@ 0x30
 8005b00:	4691      	mov	r9, r2
 8005b02:	f023 0820 	bic.w	r8, r3, #32
 8005b06:	bfbc      	itt	lt
 8005b08:	4632      	movlt	r2, r6
 8005b0a:	4616      	movlt	r6, r2
 8005b0c:	f1b8 0f46 	cmp.w	r8, #70	@ 0x46
 8005b10:	d005      	beq.n	8005b1e <__cvt+0x42>
 8005b12:	f1b8 0f45 	cmp.w	r8, #69	@ 0x45
 8005b16:	d100      	bne.n	8005b1a <__cvt+0x3e>
 8005b18:	3401      	adds	r4, #1
 8005b1a:	2102      	movs	r1, #2
 8005b1c:	e000      	b.n	8005b20 <__cvt+0x44>
 8005b1e:	2103      	movs	r1, #3
 8005b20:	ab03      	add	r3, sp, #12
 8005b22:	9301      	str	r3, [sp, #4]
 8005b24:	ab02      	add	r3, sp, #8
 8005b26:	9300      	str	r3, [sp, #0]
 8005b28:	ec47 6b10 	vmov	d0, r6, r7
 8005b2c:	4653      	mov	r3, sl
 8005b2e:	4622      	mov	r2, r4
 8005b30:	f000 fe96 	bl	8006860 <_dtoa_r>
 8005b34:	f1b8 0f47 	cmp.w	r8, #71	@ 0x47
 8005b38:	4605      	mov	r5, r0
 8005b3a:	d119      	bne.n	8005b70 <__cvt+0x94>
 8005b3c:	f019 0f01 	tst.w	r9, #1
 8005b40:	d00e      	beq.n	8005b60 <__cvt+0x84>
 8005b42:	eb00 0904 	add.w	r9, r0, r4
 8005b46:	2200      	movs	r2, #0
 8005b48:	2300      	movs	r3, #0
 8005b4a:	4630      	mov	r0, r6
 8005b4c:	4639      	mov	r1, r7
 8005b4e:	f7fa ffdb 	bl	8000b08 <__aeabi_dcmpeq>
 8005b52:	b108      	cbz	r0, 8005b58 <__cvt+0x7c>
 8005b54:	f8cd 900c 	str.w	r9, [sp, #12]
 8005b58:	2230      	movs	r2, #48	@ 0x30
 8005b5a:	9b03      	ldr	r3, [sp, #12]
 8005b5c:	454b      	cmp	r3, r9
 8005b5e:	d31e      	bcc.n	8005b9e <__cvt+0xc2>
 8005b60:	9b03      	ldr	r3, [sp, #12]
 8005b62:	9a0e      	ldr	r2, [sp, #56]	@ 0x38
 8005b64:	1b5b      	subs	r3, r3, r5
 8005b66:	4628      	mov	r0, r5
 8005b68:	6013      	str	r3, [r2, #0]
 8005b6a:	b004      	add	sp, #16
 8005b6c:	e8bd 87f0 	ldmia.w	sp!, {r4, r5, r6, r7, r8, r9, sl, pc}
 8005b70:	f1b8 0f46 	cmp.w	r8, #70	@ 0x46
 8005b74:	eb00 0904 	add.w	r9, r0, r4
 8005b78:	d1e5      	bne.n	8005b46 <__cvt+0x6a>
 8005b7a:	7803      	ldrb	r3, [r0, #0]
 8005b7c:	2b30      	cmp	r3, #48	@ 0x30
 8005b7e:	d10a      	bne.n	8005b96 <__cvt+0xba>
 8005b80:	2200      	movs	r2, #0
 8005b82:	2300      	movs	r3, #0
 8005b84:	4630      	mov	r0, r6
 8005b86:	4639      	mov	r1, r7
 8005b88:	f7fa ffbe 	bl	8000b08 <__aeabi_dcmpeq>
 8005b8c:	b918      	cbnz	r0, 8005b96 <__cvt+0xba>
 8005b8e:	f1c4 0401 	rsb	r4, r4, #1
 8005b92:	f8ca 4000 	str.w	r4, [sl]
 8005b96:	f8da 3000 	ldr.w	r3, [sl]
 8005b9a:	4499      	add	r9, r3
 8005b9c:	e7d3      	b.n	8005b46 <__cvt+0x6a>
 8005b9e:	1c59      	adds	r1, r3, #1
 8005ba0:	9103      	str	r1, [sp, #12]
 8005ba2:	701a      	strb	r2, [r3, #0]
 8005ba4:	e7d9      	b.n	8005b5a <__cvt+0x7e>

08005ba6 <__exponent>:
 8005ba6:	b5f7      	push	{r0, r1, r2, r4, r5, r6, r7, lr}
 8005ba8:	2900      	cmp	r1, #0
 8005baa:	bfba      	itte	lt
 8005bac:	4249      	neglt	r1, r1
 8005bae:	232d      	movlt	r3, #45	@ 0x2d
 8005bb0:	232b      	movge	r3, #43	@ 0x2b
 8005bb2:	2909      	cmp	r1, #9
 8005bb4:	7002      	strb	r2, [r0, #0]
 8005bb6:	7043      	strb	r3, [r0, #1]
 8005bb8:	dd29      	ble.n	8005c0e <__exponent+0x68>
 8005bba:	f10d 0307 	add.w	r3, sp, #7
 8005bbe:	461d      	mov	r5, r3
 8005bc0:	270a      	movs	r7, #10
 8005bc2:	461a      	mov	r2, r3
 8005bc4:	fbb1 f6f7 	udiv	r6, r1, r7
 8005bc8:	fb07 1416 	mls	r4, r7, r6, r1
 8005bcc:	3430      	adds	r4, #48	@ 0x30
 8005bce:	f802 4c01 	strb.w	r4, [r2, #-1]
 8005bd2:	460c      	mov	r4, r1
 8005bd4:	2c63      	cmp	r4, #99	@ 0x63
 8005bd6:	f103 33ff 	add.w	r3, r3, #4294967295	@ 0xffffffff
 8005bda:	4631      	mov	r1, r6
 8005bdc:	dcf1      	bgt.n	8005bc2 <__exponent+0x1c>
 8005bde:	3130      	adds	r1, #48	@ 0x30
 8005be0:	1e94      	subs	r4, r2, #2
 8005be2:	f803 1c01 	strb.w	r1, [r3, #-1]
 8005be6:	1c41      	adds	r1, r0, #1
 8005be8:	4623      	mov	r3, r4
 8005bea:	42ab      	cmp	r3, r5
 8005bec:	d30a      	bcc.n	8005c04 <__exponent+0x5e>
 8005bee:	f10d 0309 	add.w	r3, sp, #9
 8005bf2:	1a9b      	subs	r3, r3, r2
 8005bf4:	42ac      	cmp	r4, r5
 8005bf6:	bf88      	it	hi
 8005bf8:	2300      	movhi	r3, #0
 8005bfa:	3302      	adds	r3, #2
 8005bfc:	4403      	add	r3, r0
 8005bfe:	1a18      	subs	r0, r3, r0
 8005c00:	b003      	add	sp, #12
 8005c02:	bdf0      	pop	{r4, r5, r6, r7, pc}
 8005c04:	f813 6b01 	ldrb.w	r6, [r3], #1
 8005c08:	f801 6f01 	strb.w	r6, [r1, #1]!
 8005c0c:	e7ed      	b.n	8005bea <__exponent+0x44>
 8005c0e:	2330      	movs	r3, #48	@ 0x30
 8005c10:	3130      	adds	r1, #48	@ 0x30
 8005c12:	7083      	strb	r3, [r0, #2]
 8005c14:	70c1      	strb	r1, [r0, #3]
 8005c16:	1d03      	adds	r3, r0, #4
 8005c18:	e7f1      	b.n	8005bfe <__exponent+0x58>
	...

08005c1c <_printf_float>:
 8005c1c:	e92d 4ff0 	stmdb	sp!, {r4, r5, r6, r7, r8, r9, sl, fp, lr}
 8005c20:	b08d      	sub	sp, #52	@ 0x34
 8005c22:	460c      	mov	r4, r1
 8005c24:	f8dd 8058 	ldr.w	r8, [sp, #88]	@ 0x58
 8005c28:	4616      	mov	r6, r2
 8005c2a:	461f      	mov	r7, r3
 8005c2c:	4605      	mov	r5, r0
 8005c2e:	f000 fd4d 	bl	80066cc <_localeconv_r>
 8005c32:	6803      	ldr	r3, [r0, #0]
 8005c34:	9304      	str	r3, [sp, #16]
 8005c36:	4618      	mov	r0, r3
 8005c38:	f7fa fb3a 	bl	80002b0 <strlen>
 8005c3c:	2300      	movs	r3, #0
 8005c3e:	930a      	str	r3, [sp, #40]	@ 0x28
 8005c40:	f8d8 3000 	ldr.w	r3, [r8]
 8005c44:	9005      	str	r0, [sp, #20]
 8005c46:	3307      	adds	r3, #7
 8005c48:	f023 0307 	bic.w	r3, r3, #7
 8005c4c:	f103 0208 	add.w	r2, r3, #8
 8005c50:	f894 a018 	ldrb.w	sl, [r4, #24]
 8005c54:	f8d4 b000 	ldr.w	fp, [r4]
 8005c58:	f8c8 2000 	str.w	r2, [r8]
 8005c5c:	e9d3 8900 	ldrd	r8, r9, [r3]
 8005c60:	f029 4300 	bic.w	r3, r9, #2147483648	@ 0x80000000
 8005c64:	9307      	str	r3, [sp, #28]
 8005c66:	f8cd 8018 	str.w	r8, [sp, #24]
 8005c6a:	e9c4 8912 	strd	r8, r9, [r4, #72]	@ 0x48
 8005c6e:	e9dd 0106 	ldrd	r0, r1, [sp, #24]
 8005c72:	4b9c      	ldr	r3, [pc, #624]	@ (8005ee4 <_printf_float+0x2c8>)
 8005c74:	f04f 32ff 	mov.w	r2, #4294967295	@ 0xffffffff
 8005c78:	f7fa ff78 	bl	8000b6c <__aeabi_dcmpun>
 8005c7c:	bb70      	cbnz	r0, 8005cdc <_printf_float+0xc0>
 8005c7e:	e9dd 0106 	ldrd	r0, r1, [sp, #24]
 8005c82:	4b98      	ldr	r3, [pc, #608]	@ (8005ee4 <_printf_float+0x2c8>)
 8005c84:	f04f 32ff 	mov.w	r2, #4294967295	@ 0xffffffff
 8005c88:	f7fa ff52 	bl	8000b30 <__aeabi_dcmple>
 8005c8c:	bb30      	cbnz	r0, 8005cdc <_printf_float+0xc0>
 8005c8e:	2200      	movs	r2, #0
 8005c90:	2300      	movs	r3, #0
 8005c92:	4640      	mov	r0, r8
 8005c94:	4649      	mov	r1, r9
 8005c96:	f7fa ff41 	bl	8000b1c <__aeabi_dcmplt>
 8005c9a:	b110      	cbz	r0, 8005ca2 <_printf_float+0x86>
 8005c9c:	232d      	movs	r3, #45	@ 0x2d
 8005c9e:	f884 3043 	strb.w	r3, [r4, #67]	@ 0x43
 8005ca2:	4a91      	ldr	r2, [pc, #580]	@ (8005ee8 <_printf_float+0x2cc>)
 8005ca4:	4b91      	ldr	r3, [pc, #580]	@ (8005eec <_printf_float+0x2d0>)
 8005ca6:	f1ba 0f47 	cmp.w	sl, #71	@ 0x47
 8005caa:	bf94      	ite	ls
 8005cac:	4690      	movls	r8, r2
 8005cae:	4698      	movhi	r8, r3
 8005cb0:	2303      	movs	r3, #3
 8005cb2:	6123      	str	r3, [r4, #16]
 8005cb4:	f02b 0304 	bic.w	r3, fp, #4
 8005cb8:	6023      	str	r3, [r4, #0]
 8005cba:	f04f 0900 	mov.w	r9, #0
 8005cbe:	9700      	str	r7, [sp, #0]
 8005cc0:	4633      	mov	r3, r6
 8005cc2:	aa0b      	add	r2, sp, #44	@ 0x2c
 8005cc4:	4621      	mov	r1, r4
 8005cc6:	4628      	mov	r0, r5
 8005cc8:	f000 fa7c 	bl	80061c4 <_printf_common>
 8005ccc:	3001      	adds	r0, #1
 8005cce:	f040 808d 	bne.w	8005dec <_printf_float+0x1d0>
 8005cd2:	f04f 30ff 	mov.w	r0, #4294967295	@ 0xffffffff
 8005cd6:	b00d      	add	sp, #52	@ 0x34
 8005cd8:	e8bd 8ff0 	ldmia.w	sp!, {r4, r5, r6, r7, r8, r9, sl, fp, pc}
 8005cdc:	4642      	mov	r2, r8
 8005cde:	464b      	mov	r3, r9
 8005ce0:	4640      	mov	r0, r8
 8005ce2:	4649      	mov	r1, r9
 8005ce4:	f7fa ff42 	bl	8000b6c <__aeabi_dcmpun>
 8005ce8:	b140      	cbz	r0, 8005cfc <_printf_float+0xe0>
 8005cea:	464b      	mov	r3, r9
 8005cec:	2b00      	cmp	r3, #0
 8005cee:	bfbc      	itt	lt
 8005cf0:	232d      	movlt	r3, #45	@ 0x2d
 8005cf2:	f884 3043 	strblt.w	r3, [r4, #67]	@ 0x43
 8005cf6:	4a7e      	ldr	r2, [pc, #504]	@ (8005ef0 <_printf_float+0x2d4>)
 8005cf8:	4b7e      	ldr	r3, [pc, #504]	@ (8005ef4 <_printf_float+0x2d8>)
 8005cfa:	e7d4      	b.n	8005ca6 <_printf_float+0x8a>
 8005cfc:	6863      	ldr	r3, [r4, #4]
 8005cfe:	f00a 02df 	and.w	r2, sl, #223	@ 0xdf
 8005d02:	9206      	str	r2, [sp, #24]
 8005d04:	1c5a      	adds	r2, r3, #1
 8005d06:	d13b      	bne.n	8005d80 <_printf_float+0x164>
 8005d08:	2306      	movs	r3, #6
 8005d0a:	6063      	str	r3, [r4, #4]
 8005d0c:	f44b 6280 	orr.w	r2, fp, #1024	@ 0x400
 8005d10:	2300      	movs	r3, #0
 8005d12:	6022      	str	r2, [r4, #0]
 8005d14:	9303      	str	r3, [sp, #12]
 8005d16:	ab0a      	add	r3, sp, #40	@ 0x28
 8005d18:	e9cd a301 	strd	sl, r3, [sp, #4]
 8005d1c:	ab09      	add	r3, sp, #36	@ 0x24
 8005d1e:	9300      	str	r3, [sp, #0]
 8005d20:	6861      	ldr	r1, [r4, #4]
 8005d22:	ec49 8b10 	vmov	d0, r8, r9
 8005d26:	f10d 0323 	add.w	r3, sp, #35	@ 0x23
 8005d2a:	4628      	mov	r0, r5
 8005d2c:	f7ff fed6 	bl	8005adc <__cvt>
 8005d30:	9b06      	ldr	r3, [sp, #24]
 8005d32:	9909      	ldr	r1, [sp, #36]	@ 0x24
 8005d34:	2b47      	cmp	r3, #71	@ 0x47
 8005d36:	4680      	mov	r8, r0
 8005d38:	d129      	bne.n	8005d8e <_printf_float+0x172>
 8005d3a:	1cc8      	adds	r0, r1, #3
 8005d3c:	db02      	blt.n	8005d44 <_printf_float+0x128>
 8005d3e:	6863      	ldr	r3, [r4, #4]
 8005d40:	4299      	cmp	r1, r3
 8005d42:	dd41      	ble.n	8005dc8 <_printf_float+0x1ac>
 8005d44:	f1aa 0a02 	sub.w	sl, sl, #2
 8005d48:	fa5f fa8a 	uxtb.w	sl, sl
 8005d4c:	3901      	subs	r1, #1
 8005d4e:	4652      	mov	r2, sl
 8005d50:	f104 0050 	add.w	r0, r4, #80	@ 0x50
 8005d54:	9109      	str	r1, [sp, #36]	@ 0x24
 8005d56:	f7ff ff26 	bl	8005ba6 <__exponent>
 8005d5a:	9a0a      	ldr	r2, [sp, #40]	@ 0x28
 8005d5c:	1813      	adds	r3, r2, r0
 8005d5e:	2a01      	cmp	r2, #1
 8005d60:	4681      	mov	r9, r0
 8005d62:	6123      	str	r3, [r4, #16]
 8005d64:	dc02      	bgt.n	8005d6c <_printf_float+0x150>
 8005d66:	6822      	ldr	r2, [r4, #0]
 8005d68:	07d2      	lsls	r2, r2, #31
 8005d6a:	d501      	bpl.n	8005d70 <_printf_float+0x154>
 8005d6c:	3301      	adds	r3, #1
 8005d6e:	6123      	str	r3, [r4, #16]
 8005d70:	f89d 3023 	ldrb.w	r3, [sp, #35]	@ 0x23
 8005d74:	2b00      	cmp	r3, #0
 8005d76:	d0a2      	beq.n	8005cbe <_printf_float+0xa2>
 8005d78:	232d      	movs	r3, #45	@ 0x2d
 8005d7a:	f884 3043 	strb.w	r3, [r4, #67]	@ 0x43
 8005d7e:	e79e      	b.n	8005cbe <_printf_float+0xa2>
 8005d80:	9a06      	ldr	r2, [sp, #24]
 8005d82:	2a47      	cmp	r2, #71	@ 0x47
 8005d84:	d1c2      	bne.n	8005d0c <_printf_float+0xf0>
 8005d86:	2b00      	cmp	r3, #0
 8005d88:	d1c0      	bne.n	8005d0c <_printf_float+0xf0>
 8005d8a:	2301      	movs	r3, #1
 8005d8c:	e7bd      	b.n	8005d0a <_printf_float+0xee>
 8005d8e:	f1ba 0f65 	cmp.w	sl, #101	@ 0x65
 8005d92:	d9db      	bls.n	8005d4c <_printf_float+0x130>
 8005d94:	f1ba 0f66 	cmp.w	sl, #102	@ 0x66
 8005d98:	d118      	bne.n	8005dcc <_printf_float+0x1b0>
 8005d9a:	2900      	cmp	r1, #0
 8005d9c:	6863      	ldr	r3, [r4, #4]
 8005d9e:	dd0b      	ble.n	8005db8 <_printf_float+0x19c>
 8005da0:	6121      	str	r1, [r4, #16]
 8005da2:	b913      	cbnz	r3, 8005daa <_printf_float+0x18e>
 8005da4:	6822      	ldr	r2, [r4, #0]
 8005da6:	07d0      	lsls	r0, r2, #31
 8005da8:	d502      	bpl.n	8005db0 <_printf_float+0x194>
 8005daa:	3301      	adds	r3, #1
 8005dac:	440b      	add	r3, r1
 8005dae:	6123      	str	r3, [r4, #16]
 8005db0:	65a1      	str	r1, [r4, #88]	@ 0x58
 8005db2:	f04f 0900 	mov.w	r9, #0
 8005db6:	e7db      	b.n	8005d70 <_printf_float+0x154>
 8005db8:	b913      	cbnz	r3, 8005dc0 <_printf_float+0x1a4>
 8005dba:	6822      	ldr	r2, [r4, #0]
 8005dbc:	07d2      	lsls	r2, r2, #31
 8005dbe:	d501      	bpl.n	8005dc4 <_printf_float+0x1a8>
 8005dc0:	3302      	adds	r3, #2
 8005dc2:	e7f4      	b.n	8005dae <_printf_float+0x192>
 8005dc4:	2301      	movs	r3, #1
 8005dc6:	e7f2      	b.n	8005dae <_printf_float+0x192>
 8005dc8:	f04f 0a67 	mov.w	sl, #103	@ 0x67
 8005dcc:	9b0a      	ldr	r3, [sp, #40]	@ 0x28
 8005dce:	4299      	cmp	r1, r3
 8005dd0:	db05      	blt.n	8005dde <_printf_float+0x1c2>
 8005dd2:	6823      	ldr	r3, [r4, #0]
 8005dd4:	6121      	str	r1, [r4, #16]
 8005dd6:	07d8      	lsls	r0, r3, #31
 8005dd8:	d5ea      	bpl.n	8005db0 <_printf_float+0x194>
 8005dda:	1c4b      	adds	r3, r1, #1
 8005ddc:	e7e7      	b.n	8005dae <_printf_float+0x192>
 8005dde:	2900      	cmp	r1, #0
 8005de0:	bfd4      	ite	le
 8005de2:	f1c1 0202 	rsble	r2, r1, #2
 8005de6:	2201      	movgt	r2, #1
 8005de8:	4413      	add	r3, r2
 8005dea:	e7e0      	b.n	8005dae <_printf_float+0x192>
 8005dec:	6823      	ldr	r3, [r4, #0]
 8005dee:	055a      	lsls	r2, r3, #21
 8005df0:	d407      	bmi.n	8005e02 <_printf_float+0x1e6>
 8005df2:	6923      	ldr	r3, [r4, #16]
 8005df4:	4642      	mov	r2, r8
 8005df6:	4631      	mov	r1, r6
 8005df8:	4628      	mov	r0, r5
 8005dfa:	47b8      	blx	r7
 8005dfc:	3001      	adds	r0, #1
 8005dfe:	d12b      	bne.n	8005e58 <_printf_float+0x23c>
 8005e00:	e767      	b.n	8005cd2 <_printf_float+0xb6>
 8005e02:	f1ba 0f65 	cmp.w	sl, #101	@ 0x65
 8005e06:	f240 80dd 	bls.w	8005fc4 <_printf_float+0x3a8>
 8005e0a:	e9d4 0112 	ldrd	r0, r1, [r4, #72]	@ 0x48
 8005e0e:	2200      	movs	r2, #0
 8005e10:	2300      	movs	r3, #0
 8005e12:	f7fa fe79 	bl	8000b08 <__aeabi_dcmpeq>
 8005e16:	2800      	cmp	r0, #0
 8005e18:	d033      	beq.n	8005e82 <_printf_float+0x266>
 8005e1a:	4a37      	ldr	r2, [pc, #220]	@ (8005ef8 <_printf_float+0x2dc>)
 8005e1c:	2301      	movs	r3, #1
 8005e1e:	4631      	mov	r1, r6
 8005e20:	4628      	mov	r0, r5
 8005e22:	47b8      	blx	r7
 8005e24:	3001      	adds	r0, #1
 8005e26:	f43f af54 	beq.w	8005cd2 <_printf_float+0xb6>
 8005e2a:	e9dd 3809 	ldrd	r3, r8, [sp, #36]	@ 0x24
 8005e2e:	4543      	cmp	r3, r8
 8005e30:	db02      	blt.n	8005e38 <_printf_float+0x21c>
 8005e32:	6823      	ldr	r3, [r4, #0]
 8005e34:	07d8      	lsls	r0, r3, #31
 8005e36:	d50f      	bpl.n	8005e58 <_printf_float+0x23c>
 8005e38:	e9dd 2304 	ldrd	r2, r3, [sp, #16]
 8005e3c:	4631      	mov	r1, r6
 8005e3e:	4628      	mov	r0, r5
 8005e40:	47b8      	blx	r7
 8005e42:	3001      	adds	r0, #1
 8005e44:	f43f af45 	beq.w	8005cd2 <_printf_float+0xb6>
 8005e48:	f04f 0900 	mov.w	r9, #0
 8005e4c:	f108 38ff 	add.w	r8, r8, #4294967295	@ 0xffffffff
 8005e50:	f104 0a1a 	add.w	sl, r4, #26
 8005e54:	45c8      	cmp	r8, r9
 8005e56:	dc09      	bgt.n	8005e6c <_printf_float+0x250>
 8005e58:	6823      	ldr	r3, [r4, #0]
 8005e5a:	079b      	lsls	r3, r3, #30
 8005e5c:	f100 8103 	bmi.w	8006066 <_printf_float+0x44a>
 8005e60:	68e0      	ldr	r0, [r4, #12]
 8005e62:	9b0b      	ldr	r3, [sp, #44]	@ 0x2c
 8005e64:	4298      	cmp	r0, r3
 8005e66:	bfb8      	it	lt
 8005e68:	4618      	movlt	r0, r3
 8005e6a:	e734      	b.n	8005cd6 <_printf_float+0xba>
 8005e6c:	2301      	movs	r3, #1
 8005e6e:	4652      	mov	r2, sl
 8005e70:	4631      	mov	r1, r6
 8005e72:	4628      	mov	r0, r5
 8005e74:	47b8      	blx	r7
 8005e76:	3001      	adds	r0, #1
 8005e78:	f43f af2b 	beq.w	8005cd2 <_printf_float+0xb6>
 8005e7c:	f109 0901 	add.w	r9, r9, #1
 8005e80:	e7e8      	b.n	8005e54 <_printf_float+0x238>
 8005e82:	9b09      	ldr	r3, [sp, #36]	@ 0x24
 8005e84:	2b00      	cmp	r3, #0
 8005e86:	dc39      	bgt.n	8005efc <_printf_float+0x2e0>
 8005e88:	4a1b      	ldr	r2, [pc, #108]	@ (8005ef8 <_printf_float+0x2dc>)
 8005e8a:	2301      	movs	r3, #1
 8005e8c:	4631      	mov	r1, r6
 8005e8e:	4628      	mov	r0, r5
 8005e90:	47b8      	blx	r7
 8005e92:	3001      	adds	r0, #1
 8005e94:	f43f af1d 	beq.w	8005cd2 <_printf_float+0xb6>
 8005e98:	e9dd 3909 	ldrd	r3, r9, [sp, #36]	@ 0x24
 8005e9c:	ea59 0303 	orrs.w	r3, r9, r3
 8005ea0:	d102      	bne.n	8005ea8 <_printf_float+0x28c>
 8005ea2:	6823      	ldr	r3, [r4, #0]
 8005ea4:	07d9      	lsls	r1, r3, #31
 8005ea6:	d5d7      	bpl.n	8005e58 <_printf_float+0x23c>
 8005ea8:	e9dd 2304 	ldrd	r2, r3, [sp, #16]
 8005eac:	4631      	mov	r1, r6
 8005eae:	4628      	mov	r0, r5
 8005eb0:	47b8      	blx	r7
 8005eb2:	3001      	adds	r0, #1
 8005eb4:	f43f af0d 	beq.w	8005cd2 <_printf_float+0xb6>
 8005eb8:	f04f 0a00 	mov.w	sl, #0
 8005ebc:	f104 0b1a 	add.w	fp, r4, #26
 8005ec0:	9b09      	ldr	r3, [sp, #36]	@ 0x24
 8005ec2:	425b      	negs	r3, r3
 8005ec4:	4553      	cmp	r3, sl
 8005ec6:	dc01      	bgt.n	8005ecc <_printf_float+0x2b0>
 8005ec8:	464b      	mov	r3, r9
 8005eca:	e793      	b.n	8005df4 <_printf_float+0x1d8>
 8005ecc:	2301      	movs	r3, #1
 8005ece:	465a      	mov	r2, fp
 8005ed0:	4631      	mov	r1, r6
 8005ed2:	4628      	mov	r0, r5
 8005ed4:	47b8      	blx	r7
 8005ed6:	3001      	adds	r0, #1
 8005ed8:	f43f aefb 	beq.w	8005cd2 <_printf_float+0xb6>
 8005edc:	f10a 0a01 	add.w	sl, sl, #1
 8005ee0:	e7ee      	b.n	8005ec0 <_printf_float+0x2a4>
 8005ee2:	bf00      	nop
 8005ee4:	7fefffff 	.word	0x7fefffff
 8005ee8:	080088e8 	.word	0x080088e8
 8005eec:	080088ec 	.word	0x080088ec
 8005ef0:	080088f0 	.word	0x080088f0
 8005ef4:	080088f4 	.word	0x080088f4
 8005ef8:	080088f8 	.word	0x080088f8
 8005efc:	6da3      	ldr	r3, [r4, #88]	@ 0x58
 8005efe:	f8dd a028 	ldr.w	sl, [sp, #40]	@ 0x28
 8005f02:	4553      	cmp	r3, sl
 8005f04:	bfa8      	it	ge
 8005f06:	4653      	movge	r3, sl
 8005f08:	2b00      	cmp	r3, #0
 8005f0a:	4699      	mov	r9, r3
 8005f0c:	dc36      	bgt.n	8005f7c <_printf_float+0x360>
 8005f0e:	f04f 0b00 	mov.w	fp, #0
 8005f12:	ea29 79e9 	bic.w	r9, r9, r9, asr #31
 8005f16:	f104 021a 	add.w	r2, r4, #26
 8005f1a:	6da3      	ldr	r3, [r4, #88]	@ 0x58
 8005f1c:	9306      	str	r3, [sp, #24]
 8005f1e:	eba3 0309 	sub.w	r3, r3, r9
 8005f22:	455b      	cmp	r3, fp
 8005f24:	dc31      	bgt.n	8005f8a <_printf_float+0x36e>
 8005f26:	9b09      	ldr	r3, [sp, #36]	@ 0x24
 8005f28:	459a      	cmp	sl, r3
 8005f2a:	dc3a      	bgt.n	8005fa2 <_printf_float+0x386>
 8005f2c:	6823      	ldr	r3, [r4, #0]
 8005f2e:	07da      	lsls	r2, r3, #31
 8005f30:	d437      	bmi.n	8005fa2 <_printf_float+0x386>
 8005f32:	9b09      	ldr	r3, [sp, #36]	@ 0x24
 8005f34:	ebaa 0903 	sub.w	r9, sl, r3
 8005f38:	9b06      	ldr	r3, [sp, #24]
 8005f3a:	ebaa 0303 	sub.w	r3, sl, r3
 8005f3e:	4599      	cmp	r9, r3
 8005f40:	bfa8      	it	ge
 8005f42:	4699      	movge	r9, r3
 8005f44:	f1b9 0f00 	cmp.w	r9, #0
 8005f48:	dc33      	bgt.n	8005fb2 <_printf_float+0x396>
 8005f4a:	f04f 0800 	mov.w	r8, #0
 8005f4e:	ea29 79e9 	bic.w	r9, r9, r9, asr #31
 8005f52:	f104 0b1a 	add.w	fp, r4, #26
 8005f56:	9b09      	ldr	r3, [sp, #36]	@ 0x24
 8005f58:	ebaa 0303 	sub.w	r3, sl, r3
 8005f5c:	eba3 0309 	sub.w	r3, r3, r9
 8005f60:	4543      	cmp	r3, r8
 8005f62:	f77f af79 	ble.w	8005e58 <_printf_float+0x23c>
 8005f66:	2301      	movs	r3, #1
 8005f68:	465a      	mov	r2, fp
 8005f6a:	4631      	mov	r1, r6
 8005f6c:	4628      	mov	r0, r5
 8005f6e:	47b8      	blx	r7
 8005f70:	3001      	adds	r0, #1
 8005f72:	f43f aeae 	beq.w	8005cd2 <_printf_float+0xb6>
 8005f76:	f108 0801 	add.w	r8, r8, #1
 8005f7a:	e7ec      	b.n	8005f56 <_printf_float+0x33a>
 8005f7c:	4642      	mov	r2, r8
 8005f7e:	4631      	mov	r1, r6
 8005f80:	4628      	mov	r0, r5
 8005f82:	47b8      	blx	r7
 8005f84:	3001      	adds	r0, #1
 8005f86:	d1c2      	bne.n	8005f0e <_printf_float+0x2f2>
 8005f88:	e6a3      	b.n	8005cd2 <_printf_float+0xb6>
 8005f8a:	2301      	movs	r3, #1
 8005f8c:	4631      	mov	r1, r6
 8005f8e:	4628      	mov	r0, r5
 8005f90:	9206      	str	r2, [sp, #24]
 8005f92:	47b8      	blx	r7
 8005f94:	3001      	adds	r0, #1
 8005f96:	f43f ae9c 	beq.w	8005cd2 <_printf_float+0xb6>
 8005f9a:	9a06      	ldr	r2, [sp, #24]
 8005f9c:	f10b 0b01 	add.w	fp, fp, #1
 8005fa0:	e7bb      	b.n	8005f1a <_printf_float+0x2fe>
 8005fa2:	e9dd 2304 	ldrd	r2, r3, [sp, #16]
 8005fa6:	4631      	mov	r1, r6
 8005fa8:	4628      	mov	r0, r5
 8005faa:	47b8      	blx	r7
 8005fac:	3001      	adds	r0, #1
 8005fae:	d1c0      	bne.n	8005f32 <_printf_float+0x316>
 8005fb0:	e68f      	b.n	8005cd2 <_printf_float+0xb6>
 8005fb2:	9a06      	ldr	r2, [sp, #24]
 8005fb4:	464b      	mov	r3, r9
 8005fb6:	4442      	add	r2, r8
 8005fb8:	4631      	mov	r1, r6
 8005fba:	4628      	mov	r0, r5
 8005fbc:	47b8      	blx	r7
 8005fbe:	3001      	adds	r0, #1
 8005fc0:	d1c3      	bne.n	8005f4a <_printf_float+0x32e>
 8005fc2:	e686      	b.n	8005cd2 <_printf_float+0xb6>
 8005fc4:	f8dd a028 	ldr.w	sl, [sp, #40]	@ 0x28
 8005fc8:	f1ba 0f01 	cmp.w	sl, #1
 8005fcc:	dc01      	bgt.n	8005fd2 <_printf_float+0x3b6>
 8005fce:	07db      	lsls	r3, r3, #31
 8005fd0:	d536      	bpl.n	8006040 <_printf_float+0x424>
 8005fd2:	2301      	movs	r3, #1
 8005fd4:	4642      	mov	r2, r8
 8005fd6:	4631      	mov	r1, r6
 8005fd8:	4628      	mov	r0, r5
 8005fda:	47b8      	blx	r7
 8005fdc:	3001      	adds	r0, #1
 8005fde:	f43f ae78 	beq.w	8005cd2 <_printf_float+0xb6>
 8005fe2:	e9dd 2304 	ldrd	r2, r3, [sp, #16]
 8005fe6:	4631      	mov	r1, r6
 8005fe8:	4628      	mov	r0, r5
 8005fea:	47b8      	blx	r7
 8005fec:	3001      	adds	r0, #1
 8005fee:	f43f ae70 	beq.w	8005cd2 <_printf_float+0xb6>
 8005ff2:	e9d4 0112 	ldrd	r0, r1, [r4, #72]	@ 0x48
 8005ff6:	2200      	movs	r2, #0
 8005ff8:	2300      	movs	r3, #0
 8005ffa:	f10a 3aff 	add.w	sl, sl, #4294967295	@ 0xffffffff
 8005ffe:	f7fa fd83 	bl	8000b08 <__aeabi_dcmpeq>
 8006002:	b9c0      	cbnz	r0, 8006036 <_printf_float+0x41a>
 8006004:	4653      	mov	r3, sl
 8006006:	f108 0201 	add.w	r2, r8, #1
 800600a:	4631      	mov	r1, r6
 800600c:	4628      	mov	r0, r5
 800600e:	47b8      	blx	r7
 8006010:	3001      	adds	r0, #1
 8006012:	d10c      	bne.n	800602e <_printf_float+0x412>
 8006014:	e65d      	b.n	8005cd2 <_printf_float+0xb6>
 8006016:	2301      	movs	r3, #1
 8006018:	465a      	mov	r2, fp
 800601a:	4631      	mov	r1, r6
 800601c:	4628      	mov	r0, r5
 800601e:	47b8      	blx	r7
 8006020:	3001      	adds	r0, #1
 8006022:	f43f ae56 	beq.w	8005cd2 <_printf_float+0xb6>
 8006026:	f108 0801 	add.w	r8, r8, #1
 800602a:	45d0      	cmp	r8, sl
 800602c:	dbf3      	blt.n	8006016 <_printf_float+0x3fa>
 800602e:	464b      	mov	r3, r9
 8006030:	f104 0250 	add.w	r2, r4, #80	@ 0x50
 8006034:	e6df      	b.n	8005df6 <_printf_float+0x1da>
 8006036:	f04f 0800 	mov.w	r8, #0
 800603a:	f104 0b1a 	add.w	fp, r4, #26
 800603e:	e7f4      	b.n	800602a <_printf_float+0x40e>
 8006040:	2301      	movs	r3, #1
 8006042:	4642      	mov	r2, r8
 8006044:	e7e1      	b.n	800600a <_printf_float+0x3ee>
 8006046:	2301      	movs	r3, #1
 8006048:	464a      	mov	r2, r9
 800604a:	4631      	mov	r1, r6
 800604c:	4628      	mov	r0, r5
 800604e:	47b8      	blx	r7
 8006050:	3001      	adds	r0, #1
 8006052:	f43f ae3e 	beq.w	8005cd2 <_printf_float+0xb6>
 8006056:	f108 0801 	add.w	r8, r8, #1
 800605a:	68e3      	ldr	r3, [r4, #12]
 800605c:	990b      	ldr	r1, [sp, #44]	@ 0x2c
 800605e:	1a5b      	subs	r3, r3, r1
 8006060:	4543      	cmp	r3, r8
 8006062:	dcf0      	bgt.n	8006046 <_printf_float+0x42a>
 8006064:	e6fc      	b.n	8005e60 <_printf_float+0x244>
 8006066:	f04f 0800 	mov.w	r8, #0
 800606a:	f104 0919 	add.w	r9, r4, #25
 800606e:	e7f4      	b.n	800605a <_printf_float+0x43e>

08006070 <malloc>:
 8006070:	4b02      	ldr	r3, [pc, #8]	@ (800607c <malloc+0xc>)
 8006072:	4601      	mov	r1, r0
 8006074:	6818      	ldr	r0, [r3, #0]
 8006076:	f000 b825 	b.w	80060c4 <_malloc_r>
 800607a:	bf00      	nop
 800607c:	20000018 	.word	0x20000018

08006080 <sbrk_aligned>:
 8006080:	b570      	push	{r4, r5, r6, lr}
 8006082:	4e0f      	ldr	r6, [pc, #60]	@ (80060c0 <sbrk_aligned+0x40>)
 8006084:	460c      	mov	r4, r1
 8006086:	6831      	ldr	r1, [r6, #0]
 8006088:	4605      	mov	r5, r0
 800608a:	b911      	cbnz	r1, 8006092 <sbrk_aligned+0x12>
 800608c:	f000 fb22 	bl	80066d4 <_sbrk_r>
 8006090:	6030      	str	r0, [r6, #0]
 8006092:	4621      	mov	r1, r4
 8006094:	4628      	mov	r0, r5
 8006096:	f000 fb1d 	bl	80066d4 <_sbrk_r>
 800609a:	1c43      	adds	r3, r0, #1
 800609c:	d103      	bne.n	80060a6 <sbrk_aligned+0x26>
 800609e:	f04f 34ff 	mov.w	r4, #4294967295	@ 0xffffffff
 80060a2:	4620      	mov	r0, r4
 80060a4:	bd70      	pop	{r4, r5, r6, pc}
 80060a6:	1cc4      	adds	r4, r0, #3
 80060a8:	f024 0403 	bic.w	r4, r4, #3
 80060ac:	42a0      	cmp	r0, r4
 80060ae:	d0f8      	beq.n	80060a2 <sbrk_aligned+0x22>
 80060b0:	1a21      	subs	r1, r4, r0
 80060b2:	4628      	mov	r0, r5
 80060b4:	f000 fb0e 	bl	80066d4 <_sbrk_r>
 80060b8:	3001      	adds	r0, #1
 80060ba:	d1f2      	bne.n	80060a2 <sbrk_aligned+0x22>
 80060bc:	e7ef      	b.n	800609e <sbrk_aligned+0x1e>
 80060be:	bf00      	nop
 80060c0:	20000374 	.word	0x20000374

080060c4 <_malloc_r>:
 80060c4:	e92d 43f8 	stmdb	sp!, {r3, r4, r5, r6, r7, r8, r9, lr}
 80060c8:	1ccd      	adds	r5, r1, #3
 80060ca:	f025 0503 	bic.w	r5, r5, #3
 80060ce:	3508      	adds	r5, #8
 80060d0:	2d0c      	cmp	r5, #12
 80060d2:	bf38      	it	cc
 80060d4:	250c      	movcc	r5, #12
 80060d6:	2d00      	cmp	r5, #0
 80060d8:	4606      	mov	r6, r0
 80060da:	db01      	blt.n	80060e0 <_malloc_r+0x1c>
 80060dc:	42a9      	cmp	r1, r5
 80060de:	d904      	bls.n	80060ea <_malloc_r+0x26>
 80060e0:	230c      	movs	r3, #12
 80060e2:	6033      	str	r3, [r6, #0]
 80060e4:	2000      	movs	r0, #0
 80060e6:	e8bd 83f8 	ldmia.w	sp!, {r3, r4, r5, r6, r7, r8, r9, pc}
 80060ea:	f8df 80d4 	ldr.w	r8, [pc, #212]	@ 80061c0 <_malloc_r+0xfc>
 80060ee:	f000 f9f7 	bl	80064e0 <__malloc_lock>
 80060f2:	f8d8 3000 	ldr.w	r3, [r8]
 80060f6:	461c      	mov	r4, r3
 80060f8:	bb44      	cbnz	r4, 800614c <_malloc_r+0x88>
 80060fa:	4629      	mov	r1, r5
 80060fc:	4630      	mov	r0, r6
 80060fe:	f7ff ffbf 	bl	8006080 <sbrk_aligned>
 8006102:	1c43      	adds	r3, r0, #1
 8006104:	4604      	mov	r4, r0
 8006106:	d158      	bne.n	80061ba <_malloc_r+0xf6>
 8006108:	f8d8 4000 	ldr.w	r4, [r8]
 800610c:	4627      	mov	r7, r4
 800610e:	2f00      	cmp	r7, #0
 8006110:	d143      	bne.n	800619a <_malloc_r+0xd6>
 8006112:	2c00      	cmp	r4, #0
 8006114:	d04b      	beq.n	80061ae <_malloc_r+0xea>
 8006116:	6823      	ldr	r3, [r4, #0]
 8006118:	4639      	mov	r1, r7
 800611a:	4630      	mov	r0, r6
 800611c:	eb04 0903 	add.w	r9, r4, r3
 8006120:	f000 fad8 	bl	80066d4 <_sbrk_r>
 8006124:	4581      	cmp	r9, r0
 8006126:	d142      	bne.n	80061ae <_malloc_r+0xea>
 8006128:	6821      	ldr	r1, [r4, #0]
 800612a:	1a6d      	subs	r5, r5, r1
 800612c:	4629      	mov	r1, r5
 800612e:	4630      	mov	r0, r6
 8006130:	f7ff ffa6 	bl	8006080 <sbrk_aligned>
 8006134:	3001      	adds	r0, #1
 8006136:	d03a      	beq.n	80061ae <_malloc_r+0xea>
 8006138:	6823      	ldr	r3, [r4, #0]
 800613a:	442b      	add	r3, r5
 800613c:	6023      	str	r3, [r4, #0]
 800613e:	f8d8 3000 	ldr.w	r3, [r8]
 8006142:	685a      	ldr	r2, [r3, #4]
 8006144:	bb62      	cbnz	r2, 80061a0 <_malloc_r+0xdc>
 8006146:	f8c8 7000 	str.w	r7, [r8]
 800614a:	e00f      	b.n	800616c <_malloc_r+0xa8>
 800614c:	6822      	ldr	r2, [r4, #0]
 800614e:	1b52      	subs	r2, r2, r5
 8006150:	d420      	bmi.n	8006194 <_malloc_r+0xd0>
 8006152:	2a0b      	cmp	r2, #11
 8006154:	d917      	bls.n	8006186 <_malloc_r+0xc2>
 8006156:	1961      	adds	r1, r4, r5
 8006158:	42a3      	cmp	r3, r4
 800615a:	6025      	str	r5, [r4, #0]
 800615c:	bf18      	it	ne
 800615e:	6059      	strne	r1, [r3, #4]
 8006160:	6863      	ldr	r3, [r4, #4]
 8006162:	bf08      	it	eq
 8006164:	f8c8 1000 	streq.w	r1, [r8]
 8006168:	5162      	str	r2, [r4, r5]
 800616a:	604b      	str	r3, [r1, #4]
 800616c:	4630      	mov	r0, r6
 800616e:	f000 f9bd 	bl	80064ec <__malloc_unlock>
 8006172:	f104 000b 	add.w	r0, r4, #11
 8006176:	1d23      	adds	r3, r4, #4
 8006178:	f020 0007 	bic.w	r0, r0, #7
 800617c:	1ac2      	subs	r2, r0, r3
 800617e:	bf1c      	itt	ne
 8006180:	1a1b      	subne	r3, r3, r0
 8006182:	50a3      	strne	r3, [r4, r2]
 8006184:	e7af      	b.n	80060e6 <_malloc_r+0x22>
 8006186:	6862      	ldr	r2, [r4, #4]
 8006188:	42a3      	cmp	r3, r4
 800618a:	bf0c      	ite	eq
 800618c:	f8c8 2000 	streq.w	r2, [r8]
 8006190:	605a      	strne	r2, [r3, #4]
 8006192:	e7eb      	b.n	800616c <_malloc_r+0xa8>
 8006194:	4623      	mov	r3, r4
 8006196:	6864      	ldr	r4, [r4, #4]
 8006198:	e7ae      	b.n	80060f8 <_malloc_r+0x34>
 800619a:	463c      	mov	r4, r7
 800619c:	687f      	ldr	r7, [r7, #4]
 800619e:	e7b6      	b.n	800610e <_malloc_r+0x4a>
 80061a0:	461a      	mov	r2, r3
 80061a2:	685b      	ldr	r3, [r3, #4]
 80061a4:	42a3      	cmp	r3, r4
 80061a6:	d1fb      	bne.n	80061a0 <_malloc_r+0xdc>
 80061a8:	2300      	movs	r3, #0
 80061aa:	6053      	str	r3, [r2, #4]
 80061ac:	e7de      	b.n	800616c <_malloc_r+0xa8>
 80061ae:	230c      	movs	r3, #12
 80061b0:	6033      	str	r3, [r6, #0]
 80061b2:	4630      	mov	r0, r6
 80061b4:	f000 f99a 	bl	80064ec <__malloc_unlock>
 80061b8:	e794      	b.n	80060e4 <_malloc_r+0x20>
 80061ba:	6005      	str	r5, [r0, #0]
 80061bc:	e7d6      	b.n	800616c <_malloc_r+0xa8>
 80061be:	bf00      	nop
 80061c0:	20000378 	.word	0x20000378

080061c4 <_printf_common>:
 80061c4:	e92d 47f0 	stmdb	sp!, {r4, r5, r6, r7, r8, r9, sl, lr}
 80061c8:	4616      	mov	r6, r2
 80061ca:	4698      	mov	r8, r3
 80061cc:	688a      	ldr	r2, [r1, #8]
 80061ce:	690b      	ldr	r3, [r1, #16]
 80061d0:	f8dd 9020 	ldr.w	r9, [sp, #32]
 80061d4:	4293      	cmp	r3, r2
 80061d6:	bfb8      	it	lt
 80061d8:	4613      	movlt	r3, r2
 80061da:	6033      	str	r3, [r6, #0]
 80061dc:	f891 2043 	ldrb.w	r2, [r1, #67]	@ 0x43
 80061e0:	4607      	mov	r7, r0
 80061e2:	460c      	mov	r4, r1
 80061e4:	b10a      	cbz	r2, 80061ea <_printf_common+0x26>
 80061e6:	3301      	adds	r3, #1
 80061e8:	6033      	str	r3, [r6, #0]
 80061ea:	6823      	ldr	r3, [r4, #0]
 80061ec:	0699      	lsls	r1, r3, #26
 80061ee:	bf42      	ittt	mi
 80061f0:	6833      	ldrmi	r3, [r6, #0]
 80061f2:	3302      	addmi	r3, #2
 80061f4:	6033      	strmi	r3, [r6, #0]
 80061f6:	6825      	ldr	r5, [r4, #0]
 80061f8:	f015 0506 	ands.w	r5, r5, #6
 80061fc:	d106      	bne.n	800620c <_printf_common+0x48>
 80061fe:	f104 0a19 	add.w	sl, r4, #25
 8006202:	68e3      	ldr	r3, [r4, #12]
 8006204:	6832      	ldr	r2, [r6, #0]
 8006206:	1a9b      	subs	r3, r3, r2
 8006208:	42ab      	cmp	r3, r5
 800620a:	dc26      	bgt.n	800625a <_printf_common+0x96>
 800620c:	f894 3043 	ldrb.w	r3, [r4, #67]	@ 0x43
 8006210:	6822      	ldr	r2, [r4, #0]
 8006212:	3b00      	subs	r3, #0
 8006214:	bf18      	it	ne
 8006216:	2301      	movne	r3, #1
 8006218:	0692      	lsls	r2, r2, #26
 800621a:	d42b      	bmi.n	8006274 <_printf_common+0xb0>
 800621c:	f104 0243 	add.w	r2, r4, #67	@ 0x43
 8006220:	4641      	mov	r1, r8
 8006222:	4638      	mov	r0, r7
 8006224:	47c8      	blx	r9
 8006226:	3001      	adds	r0, #1
 8006228:	d01e      	beq.n	8006268 <_printf_common+0xa4>
 800622a:	6823      	ldr	r3, [r4, #0]
 800622c:	6922      	ldr	r2, [r4, #16]
 800622e:	f003 0306 	and.w	r3, r3, #6
 8006232:	2b04      	cmp	r3, #4
 8006234:	bf02      	ittt	eq
 8006236:	68e5      	ldreq	r5, [r4, #12]
 8006238:	6833      	ldreq	r3, [r6, #0]
 800623a:	1aed      	subeq	r5, r5, r3
 800623c:	68a3      	ldr	r3, [r4, #8]
 800623e:	bf0c      	ite	eq
 8006240:	ea25 75e5 	biceq.w	r5, r5, r5, asr #31
 8006244:	2500      	movne	r5, #0
 8006246:	4293      	cmp	r3, r2
 8006248:	bfc4      	itt	gt
 800624a:	1a9b      	subgt	r3, r3, r2
 800624c:	18ed      	addgt	r5, r5, r3
 800624e:	2600      	movs	r6, #0
 8006250:	341a      	adds	r4, #26
 8006252:	42b5      	cmp	r5, r6
 8006254:	d11a      	bne.n	800628c <_printf_common+0xc8>
 8006256:	2000      	movs	r0, #0
 8006258:	e008      	b.n	800626c <_printf_common+0xa8>
 800625a:	2301      	movs	r3, #1
 800625c:	4652      	mov	r2, sl
 800625e:	4641      	mov	r1, r8
 8006260:	4638      	mov	r0, r7
 8006262:	47c8      	blx	r9
 8006264:	3001      	adds	r0, #1
 8006266:	d103      	bne.n	8006270 <_printf_common+0xac>
 8006268:	f04f 30ff 	mov.w	r0, #4294967295	@ 0xffffffff
 800626c:	e8bd 87f0 	ldmia.w	sp!, {r4, r5, r6, r7, r8, r9, sl, pc}
 8006270:	3501      	adds	r5, #1
 8006272:	e7c6      	b.n	8006202 <_printf_common+0x3e>
 8006274:	18e1      	adds	r1, r4, r3
 8006276:	1c5a      	adds	r2, r3, #1
 8006278:	2030      	movs	r0, #48	@ 0x30
 800627a:	f881 0043 	strb.w	r0, [r1, #67]	@ 0x43
 800627e:	4422      	add	r2, r4
 8006280:	f894 1045 	ldrb.w	r1, [r4, #69]	@ 0x45
 8006284:	f882 1043 	strb.w	r1, [r2, #67]	@ 0x43
 8006288:	3302      	adds	r3, #2
 800628a:	e7c7      	b.n	800621c <_printf_common+0x58>
 800628c:	2301      	movs	r3, #1
 800628e:	4622      	mov	r2, r4
 8006290:	4641      	mov	r1, r8
 8006292:	4638      	mov	r0, r7
 8006294:	47c8      	blx	r9
 8006296:	3001      	adds	r0, #1
 8006298:	d0e6      	beq.n	8006268 <_printf_common+0xa4>
 800629a:	3601      	adds	r6, #1
 800629c:	e7d9      	b.n	8006252 <_printf_common+0x8e>
	...

080062a0 <_printf_i>:
 80062a0:	e92d 47ff 	stmdb	sp!, {r0, r1, r2, r3, r4, r5, r6, r7, r8, r9, sl, lr}
 80062a4:	7e0f      	ldrb	r7, [r1, #24]
 80062a6:	9e0c      	ldr	r6, [sp, #48]	@ 0x30
 80062a8:	2f78      	cmp	r7, #120	@ 0x78
 80062aa:	4691      	mov	r9, r2
 80062ac:	4680      	mov	r8, r0
 80062ae:	460c      	mov	r4, r1
 80062b0:	469a      	mov	sl, r3
 80062b2:	f101 0243 	add.w	r2, r1, #67	@ 0x43
 80062b6:	d807      	bhi.n	80062c8 <_printf_i+0x28>
 80062b8:	2f62      	cmp	r7, #98	@ 0x62
 80062ba:	d80a      	bhi.n	80062d2 <_printf_i+0x32>
 80062bc:	2f00      	cmp	r7, #0
 80062be:	f000 80d2 	beq.w	8006466 <_printf_i+0x1c6>
 80062c2:	2f58      	cmp	r7, #88	@ 0x58
 80062c4:	f000 80b9 	beq.w	800643a <_printf_i+0x19a>
 80062c8:	f104 0642 	add.w	r6, r4, #66	@ 0x42
 80062cc:	f884 7042 	strb.w	r7, [r4, #66]	@ 0x42
 80062d0:	e03a      	b.n	8006348 <_printf_i+0xa8>
 80062d2:	f1a7 0363 	sub.w	r3, r7, #99	@ 0x63
 80062d6:	2b15      	cmp	r3, #21
 80062d8:	d8f6      	bhi.n	80062c8 <_printf_i+0x28>
 80062da:	a101      	add	r1, pc, #4	@ (adr r1, 80062e0 <_printf_i+0x40>)
 80062dc:	f851 f023 	ldr.w	pc, [r1, r3, lsl #2]
 80062e0:	08006339 	.word	0x08006339
 80062e4:	0800634d 	.word	0x0800634d
 80062e8:	080062c9 	.word	0x080062c9
 80062ec:	080062c9 	.word	0x080062c9
 80062f0:	080062c9 	.word	0x080062c9
 80062f4:	080062c9 	.word	0x080062c9
 80062f8:	0800634d 	.word	0x0800634d
 80062fc:	080062c9 	.word	0x080062c9
 8006300:	080062c9 	.word	0x080062c9
 8006304:	080062c9 	.word	0x080062c9
 8006308:	080062c9 	.word	0x080062c9
 800630c:	0800644d 	.word	0x0800644d
 8006310:	08006377 	.word	0x08006377
 8006314:	08006407 	.word	0x08006407
 8006318:	080062c9 	.word	0x080062c9
 800631c:	080062c9 	.word	0x080062c9
 8006320:	0800646f 	.word	0x0800646f
 8006324:	080062c9 	.word	0x080062c9
 8006328:	08006377 	.word	0x08006377
 800632c:	080062c9 	.word	0x080062c9
 8006330:	080062c9 	.word	0x080062c9
 8006334:	0800640f 	.word	0x0800640f
 8006338:	6833      	ldr	r3, [r6, #0]
 800633a:	1d1a      	adds	r2, r3, #4
 800633c:	681b      	ldr	r3, [r3, #0]
 800633e:	6032      	str	r2, [r6, #0]
 8006340:	f104 0642 	add.w	r6, r4, #66	@ 0x42
 8006344:	f884 3042 	strb.w	r3, [r4, #66]	@ 0x42
 8006348:	2301      	movs	r3, #1
 800634a:	e09d      	b.n	8006488 <_printf_i+0x1e8>
 800634c:	6833      	ldr	r3, [r6, #0]
 800634e:	6820      	ldr	r0, [r4, #0]
 8006350:	1d19      	adds	r1, r3, #4
 8006352:	6031      	str	r1, [r6, #0]
 8006354:	0606      	lsls	r6, r0, #24
 8006356:	d501      	bpl.n	800635c <_printf_i+0xbc>
 8006358:	681d      	ldr	r5, [r3, #0]
 800635a:	e003      	b.n	8006364 <_printf_i+0xc4>
 800635c:	0645      	lsls	r5, r0, #25
 800635e:	d5fb      	bpl.n	8006358 <_printf_i+0xb8>
 8006360:	f9b3 5000 	ldrsh.w	r5, [r3]
 8006364:	2d00      	cmp	r5, #0
 8006366:	da03      	bge.n	8006370 <_printf_i+0xd0>
 8006368:	232d      	movs	r3, #45	@ 0x2d
 800636a:	426d      	negs	r5, r5
 800636c:	f884 3043 	strb.w	r3, [r4, #67]	@ 0x43
 8006370:	4859      	ldr	r0, [pc, #356]	@ (80064d8 <_printf_i+0x238>)
 8006372:	230a      	movs	r3, #10
 8006374:	e011      	b.n	800639a <_printf_i+0xfa>
 8006376:	6821      	ldr	r1, [r4, #0]
 8006378:	6833      	ldr	r3, [r6, #0]
 800637a:	0608      	lsls	r0, r1, #24
 800637c:	f853 5b04 	ldr.w	r5, [r3], #4
 8006380:	d402      	bmi.n	8006388 <_printf_i+0xe8>
 8006382:	0649      	lsls	r1, r1, #25
 8006384:	bf48      	it	mi
 8006386:	b2ad      	uxthmi	r5, r5
 8006388:	2f6f      	cmp	r7, #111	@ 0x6f
 800638a:	4853      	ldr	r0, [pc, #332]	@ (80064d8 <_printf_i+0x238>)
 800638c:	6033      	str	r3, [r6, #0]
 800638e:	bf14      	ite	ne
 8006390:	230a      	movne	r3, #10
 8006392:	2308      	moveq	r3, #8
 8006394:	2100      	movs	r1, #0
 8006396:	f884 1043 	strb.w	r1, [r4, #67]	@ 0x43
 800639a:	6866      	ldr	r6, [r4, #4]
 800639c:	60a6      	str	r6, [r4, #8]
 800639e:	2e00      	cmp	r6, #0
 80063a0:	bfa2      	ittt	ge
 80063a2:	6821      	ldrge	r1, [r4, #0]
 80063a4:	f021 0104 	bicge.w	r1, r1, #4
 80063a8:	6021      	strge	r1, [r4, #0]
 80063aa:	b90d      	cbnz	r5, 80063b0 <_printf_i+0x110>
 80063ac:	2e00      	cmp	r6, #0
 80063ae:	d04b      	beq.n	8006448 <_printf_i+0x1a8>
 80063b0:	4616      	mov	r6, r2
 80063b2:	fbb5 f1f3 	udiv	r1, r5, r3
 80063b6:	fb03 5711 	mls	r7, r3, r1, r5
 80063ba:	5dc7      	ldrb	r7, [r0, r7]
 80063bc:	f806 7d01 	strb.w	r7, [r6, #-1]!
 80063c0:	462f      	mov	r7, r5
 80063c2:	42bb      	cmp	r3, r7
 80063c4:	460d      	mov	r5, r1
 80063c6:	d9f4      	bls.n	80063b2 <_printf_i+0x112>
 80063c8:	2b08      	cmp	r3, #8
 80063ca:	d10b      	bne.n	80063e4 <_printf_i+0x144>
 80063cc:	6823      	ldr	r3, [r4, #0]
 80063ce:	07df      	lsls	r7, r3, #31
 80063d0:	d508      	bpl.n	80063e4 <_printf_i+0x144>
 80063d2:	6923      	ldr	r3, [r4, #16]
 80063d4:	6861      	ldr	r1, [r4, #4]
 80063d6:	4299      	cmp	r1, r3
 80063d8:	bfde      	ittt	le
 80063da:	2330      	movle	r3, #48	@ 0x30
 80063dc:	f806 3c01 	strble.w	r3, [r6, #-1]
 80063e0:	f106 36ff 	addle.w	r6, r6, #4294967295	@ 0xffffffff
 80063e4:	1b92      	subs	r2, r2, r6
 80063e6:	6122      	str	r2, [r4, #16]
 80063e8:	f8cd a000 	str.w	sl, [sp]
 80063ec:	464b      	mov	r3, r9
 80063ee:	aa03      	add	r2, sp, #12
 80063f0:	4621      	mov	r1, r4
 80063f2:	4640      	mov	r0, r8
 80063f4:	f7ff fee6 	bl	80061c4 <_printf_common>
 80063f8:	3001      	adds	r0, #1
 80063fa:	d14a      	bne.n	8006492 <_printf_i+0x1f2>
 80063fc:	f04f 30ff 	mov.w	r0, #4294967295	@ 0xffffffff
 8006400:	b004      	add	sp, #16
 8006402:	e8bd 87f0 	ldmia.w	sp!, {r4, r5, r6, r7, r8, r9, sl, pc}
 8006406:	6823      	ldr	r3, [r4, #0]
 8006408:	f043 0320 	orr.w	r3, r3, #32
 800640c:	6023      	str	r3, [r4, #0]
 800640e:	4833      	ldr	r0, [pc, #204]	@ (80064dc <_printf_i+0x23c>)
 8006410:	2778      	movs	r7, #120	@ 0x78
 8006412:	f884 7045 	strb.w	r7, [r4, #69]	@ 0x45
 8006416:	6823      	ldr	r3, [r4, #0]
 8006418:	6831      	ldr	r1, [r6, #0]
 800641a:	061f      	lsls	r7, r3, #24
 800641c:	f851 5b04 	ldr.w	r5, [r1], #4
 8006420:	d402      	bmi.n	8006428 <_printf_i+0x188>
 8006422:	065f      	lsls	r7, r3, #25
 8006424:	bf48      	it	mi
 8006426:	b2ad      	uxthmi	r5, r5
 8006428:	6031      	str	r1, [r6, #0]
 800642a:	07d9      	lsls	r1, r3, #31
 800642c:	bf44      	itt	mi
 800642e:	f043 0320 	orrmi.w	r3, r3, #32
 8006432:	6023      	strmi	r3, [r4, #0]
 8006434:	b11d      	cbz	r5, 800643e <_printf_i+0x19e>
 8006436:	2310      	movs	r3, #16
 8006438:	e7ac      	b.n	8006394 <_printf_i+0xf4>
 800643a:	4827      	ldr	r0, [pc, #156]	@ (80064d8 <_printf_i+0x238>)
 800643c:	e7e9      	b.n	8006412 <_printf_i+0x172>
 800643e:	6823      	ldr	r3, [r4, #0]
 8006440:	f023 0320 	bic.w	r3, r3, #32
 8006444:	6023      	str	r3, [r4, #0]
 8006446:	e7f6      	b.n	8006436 <_printf_i+0x196>
 8006448:	4616      	mov	r6, r2
 800644a:	e7bd      	b.n	80063c8 <_printf_i+0x128>
 800644c:	6833      	ldr	r3, [r6, #0]
 800644e:	6825      	ldr	r5, [r4, #0]
 8006450:	6961      	ldr	r1, [r4, #20]
 8006452:	1d18      	adds	r0, r3, #4
 8006454:	6030      	str	r0, [r6, #0]
 8006456:	062e      	lsls	r6, r5, #24
 8006458:	681b      	ldr	r3, [r3, #0]
 800645a:	d501      	bpl.n	8006460 <_printf_i+0x1c0>
 800645c:	6019      	str	r1, [r3, #0]
 800645e:	e002      	b.n	8006466 <_printf_i+0x1c6>
 8006460:	0668      	lsls	r0, r5, #25
 8006462:	d5fb      	bpl.n	800645c <_printf_i+0x1bc>
 8006464:	8019      	strh	r1, [r3, #0]
 8006466:	2300      	movs	r3, #0
 8006468:	6123      	str	r3, [r4, #16]
 800646a:	4616      	mov	r6, r2
 800646c:	e7bc      	b.n	80063e8 <_printf_i+0x148>
 800646e:	6833      	ldr	r3, [r6, #0]
 8006470:	1d1a      	adds	r2, r3, #4
 8006472:	6032      	str	r2, [r6, #0]
 8006474:	681e      	ldr	r6, [r3, #0]
 8006476:	6862      	ldr	r2, [r4, #4]
 8006478:	2100      	movs	r1, #0
 800647a:	4630      	mov	r0, r6
 800647c:	f7f9 fec8 	bl	8000210 <memchr>
 8006480:	b108      	cbz	r0, 8006486 <_printf_i+0x1e6>
 8006482:	1b80      	subs	r0, r0, r6
 8006484:	6060      	str	r0, [r4, #4]
 8006486:	6863      	ldr	r3, [r4, #4]
 8006488:	6123      	str	r3, [r4, #16]
 800648a:	2300      	movs	r3, #0
 800648c:	f884 3043 	strb.w	r3, [r4, #67]	@ 0x43
 8006490:	e7aa      	b.n	80063e8 <_printf_i+0x148>
 8006492:	6923      	ldr	r3, [r4, #16]
 8006494:	4632      	mov	r2, r6
 8006496:	4649      	mov	r1, r9
 8006498:	4640      	mov	r0, r8
 800649a:	47d0      	blx	sl
 800649c:	3001      	adds	r0, #1
 800649e:	d0ad      	beq.n	80063fc <_printf_i+0x15c>
 80064a0:	6823      	ldr	r3, [r4, #0]
 80064a2:	079b      	lsls	r3, r3, #30
 80064a4:	d413      	bmi.n	80064ce <_printf_i+0x22e>
 80064a6:	68e0      	ldr	r0, [r4, #12]
 80064a8:	9b03      	ldr	r3, [sp, #12]
 80064aa:	4298      	cmp	r0, r3
 80064ac:	bfb8      	it	lt
 80064ae:	4618      	movlt	r0, r3
 80064b0:	e7a6      	b.n	8006400 <_printf_i+0x160>
 80064b2:	2301      	movs	r3, #1
 80064b4:	4632      	mov	r2, r6
 80064b6:	4649      	mov	r1, r9
 80064b8:	4640      	mov	r0, r8
 80064ba:	47d0      	blx	sl
 80064bc:	3001      	adds	r0, #1
 80064be:	d09d      	beq.n	80063fc <_printf_i+0x15c>
 80064c0:	3501      	adds	r5, #1
 80064c2:	68e3      	ldr	r3, [r4, #12]
 80064c4:	9903      	ldr	r1, [sp, #12]
 80064c6:	1a5b      	subs	r3, r3, r1
 80064c8:	42ab      	cmp	r3, r5
 80064ca:	dcf2      	bgt.n	80064b2 <_printf_i+0x212>
 80064cc:	e7eb      	b.n	80064a6 <_printf_i+0x206>
 80064ce:	2500      	movs	r5, #0
 80064d0:	f104 0619 	add.w	r6, r4, #25
 80064d4:	e7f5      	b.n	80064c2 <_printf_i+0x222>
 80064d6:	bf00      	nop
 80064d8:	080088fa 	.word	0x080088fa
 80064dc:	0800890b 	.word	0x0800890b

080064e0 <__malloc_lock>:
 80064e0:	4801      	ldr	r0, [pc, #4]	@ (80064e8 <__malloc_lock+0x8>)
 80064e2:	f000 b932 	b.w	800674a <__retarget_lock_acquire_recursive>
 80064e6:	bf00      	nop
 80064e8:	200004b8 	.word	0x200004b8

080064ec <__malloc_unlock>:
 80064ec:	4801      	ldr	r0, [pc, #4]	@ (80064f4 <__malloc_unlock+0x8>)
 80064ee:	f000 b92d 	b.w	800674c <__retarget_lock_release_recursive>
 80064f2:	bf00      	nop
 80064f4:	200004b8 	.word	0x200004b8

080064f8 <siprintf>:
 80064f8:	b40e      	push	{r1, r2, r3}
 80064fa:	b500      	push	{lr}
 80064fc:	b09c      	sub	sp, #112	@ 0x70
 80064fe:	ab1d      	add	r3, sp, #116	@ 0x74
 8006500:	9002      	str	r0, [sp, #8]
 8006502:	9006      	str	r0, [sp, #24]
 8006504:	f06f 4100 	mvn.w	r1, #2147483648	@ 0x80000000
 8006508:	4809      	ldr	r0, [pc, #36]	@ (8006530 <siprintf+0x38>)
 800650a:	9107      	str	r1, [sp, #28]
 800650c:	9104      	str	r1, [sp, #16]
 800650e:	4909      	ldr	r1, [pc, #36]	@ (8006534 <siprintf+0x3c>)
 8006510:	f853 2b04 	ldr.w	r2, [r3], #4
 8006514:	9105      	str	r1, [sp, #20]
 8006516:	6800      	ldr	r0, [r0, #0]
 8006518:	9301      	str	r3, [sp, #4]
 800651a:	a902      	add	r1, sp, #8
 800651c:	f001 f80a 	bl	8007534 <_svfiprintf_r>
 8006520:	9b02      	ldr	r3, [sp, #8]
 8006522:	2200      	movs	r2, #0
 8006524:	701a      	strb	r2, [r3, #0]
 8006526:	b01c      	add	sp, #112	@ 0x70
 8006528:	f85d eb04 	ldr.w	lr, [sp], #4
 800652c:	b003      	add	sp, #12
 800652e:	4770      	bx	lr
 8006530:	20000018 	.word	0x20000018
 8006534:	ffff0208 	.word	0xffff0208

08006538 <std>:
 8006538:	2300      	movs	r3, #0
 800653a:	b510      	push	{r4, lr}
 800653c:	4604      	mov	r4, r0
 800653e:	e9c0 3300 	strd	r3, r3, [r0]
 8006542:	e9c0 3304 	strd	r3, r3, [r0, #16]
 8006546:	6083      	str	r3, [r0, #8]
 8006548:	8181      	strh	r1, [r0, #12]
 800654a:	6643      	str	r3, [r0, #100]	@ 0x64
 800654c:	81c2      	strh	r2, [r0, #14]
 800654e:	6183      	str	r3, [r0, #24]
 8006550:	4619      	mov	r1, r3
 8006552:	2208      	movs	r2, #8
 8006554:	305c      	adds	r0, #92	@ 0x5c
 8006556:	f000 f8b1 	bl	80066bc <memset>
 800655a:	4b0d      	ldr	r3, [pc, #52]	@ (8006590 <std+0x58>)
 800655c:	6263      	str	r3, [r4, #36]	@ 0x24
 800655e:	4b0d      	ldr	r3, [pc, #52]	@ (8006594 <std+0x5c>)
 8006560:	62a3      	str	r3, [r4, #40]	@ 0x28
 8006562:	4b0d      	ldr	r3, [pc, #52]	@ (8006598 <std+0x60>)
 8006564:	62e3      	str	r3, [r4, #44]	@ 0x2c
 8006566:	4b0d      	ldr	r3, [pc, #52]	@ (800659c <std+0x64>)
 8006568:	6323      	str	r3, [r4, #48]	@ 0x30
 800656a:	4b0d      	ldr	r3, [pc, #52]	@ (80065a0 <std+0x68>)
 800656c:	6224      	str	r4, [r4, #32]
 800656e:	429c      	cmp	r4, r3
 8006570:	d006      	beq.n	8006580 <std+0x48>
 8006572:	f103 0268 	add.w	r2, r3, #104	@ 0x68
 8006576:	4294      	cmp	r4, r2
 8006578:	d002      	beq.n	8006580 <std+0x48>
 800657a:	33d0      	adds	r3, #208	@ 0xd0
 800657c:	429c      	cmp	r4, r3
 800657e:	d105      	bne.n	800658c <std+0x54>
 8006580:	f104 0058 	add.w	r0, r4, #88	@ 0x58
 8006584:	e8bd 4010 	ldmia.w	sp!, {r4, lr}
 8006588:	f000 b8de 	b.w	8006748 <__retarget_lock_init_recursive>
 800658c:	bd10      	pop	{r4, pc}
 800658e:	bf00      	nop
 8006590:	08007f89 	.word	0x08007f89
 8006594:	08007fab 	.word	0x08007fab
 8006598:	08007fe3 	.word	0x08007fe3
 800659c:	08008007 	.word	0x08008007
 80065a0:	2000037c 	.word	0x2000037c

080065a4 <stdio_exit_handler>:
 80065a4:	4a02      	ldr	r2, [pc, #8]	@ (80065b0 <stdio_exit_handler+0xc>)
 80065a6:	4903      	ldr	r1, [pc, #12]	@ (80065b4 <stdio_exit_handler+0x10>)
 80065a8:	4803      	ldr	r0, [pc, #12]	@ (80065b8 <stdio_exit_handler+0x14>)
 80065aa:	f000 b869 	b.w	8006680 <_fwalk_sglue>
 80065ae:	bf00      	nop
 80065b0:	2000000c 	.word	0x2000000c
 80065b4:	08007835 	.word	0x08007835
 80065b8:	2000001c 	.word	0x2000001c

080065bc <cleanup_stdio>:
 80065bc:	6841      	ldr	r1, [r0, #4]
 80065be:	4b0c      	ldr	r3, [pc, #48]	@ (80065f0 <cleanup_stdio+0x34>)
 80065c0:	4299      	cmp	r1, r3
 80065c2:	b510      	push	{r4, lr}
 80065c4:	4604      	mov	r4, r0
 80065c6:	d001      	beq.n	80065cc <cleanup_stdio+0x10>
 80065c8:	f001 f934 	bl	8007834 <_fflush_r>
 80065cc:	68a1      	ldr	r1, [r4, #8]
 80065ce:	4b09      	ldr	r3, [pc, #36]	@ (80065f4 <cleanup_stdio+0x38>)
 80065d0:	4299      	cmp	r1, r3
 80065d2:	d002      	beq.n	80065da <cleanup_stdio+0x1e>
 80065d4:	4620      	mov	r0, r4
 80065d6:	f001 f92d 	bl	8007834 <_fflush_r>
 80065da:	68e1      	ldr	r1, [r4, #12]
 80065dc:	4b06      	ldr	r3, [pc, #24]	@ (80065f8 <cleanup_stdio+0x3c>)
 80065de:	4299      	cmp	r1, r3
 80065e0:	d004      	beq.n	80065ec <cleanup_stdio+0x30>
 80065e2:	4620      	mov	r0, r4
 80065e4:	e8bd 4010 	ldmia.w	sp!, {r4, lr}
 80065e8:	f001 b924 	b.w	8007834 <_fflush_r>
 80065ec:	bd10      	pop	{r4, pc}
 80065ee:	bf00      	nop
 80065f0:	2000037c 	.word	0x2000037c
 80065f4:	200003e4 	.word	0x200003e4
 80065f8:	2000044c 	.word	0x2000044c

080065fc <global_stdio_init.part.0>:
 80065fc:	b510      	push	{r4, lr}
 80065fe:	4b0b      	ldr	r3, [pc, #44]	@ (800662c <global_stdio_init.part.0+0x30>)
 8006600:	4c0b      	ldr	r4, [pc, #44]	@ (8006630 <global_stdio_init.part.0+0x34>)
 8006602:	4a0c      	ldr	r2, [pc, #48]	@ (8006634 <global_stdio_init.part.0+0x38>)
 8006604:	601a      	str	r2, [r3, #0]
 8006606:	4620      	mov	r0, r4
 8006608:	2200      	movs	r2, #0
 800660a:	2104      	movs	r1, #4
 800660c:	f7ff ff94 	bl	8006538 <std>
 8006610:	f104 0068 	add.w	r0, r4, #104	@ 0x68
 8006614:	2201      	movs	r2, #1
 8006616:	2109      	movs	r1, #9
 8006618:	f7ff ff8e 	bl	8006538 <std>
 800661c:	f104 00d0 	add.w	r0, r4, #208	@ 0xd0
 8006620:	2202      	movs	r2, #2
 8006622:	e8bd 4010 	ldmia.w	sp!, {r4, lr}
 8006626:	2112      	movs	r1, #18
 8006628:	f7ff bf86 	b.w	8006538 <std>
 800662c:	200004b4 	.word	0x200004b4
 8006630:	2000037c 	.word	0x2000037c
 8006634:	080065a5 	.word	0x080065a5

08006638 <__sfp_lock_acquire>:
 8006638:	4801      	ldr	r0, [pc, #4]	@ (8006640 <__sfp_lock_acquire+0x8>)
 800663a:	f000 b886 	b.w	800674a <__retarget_lock_acquire_recursive>
 800663e:	bf00      	nop
 8006640:	200004b9 	.word	0x200004b9

08006644 <__sfp_lock_release>:
 8006644:	4801      	ldr	r0, [pc, #4]	@ (800664c <__sfp_lock_release+0x8>)
 8006646:	f000 b881 	b.w	800674c <__retarget_lock_release_recursive>
 800664a:	bf00      	nop
 800664c:	200004b9 	.word	0x200004b9

08006650 <__sinit>:
 8006650:	b510      	push	{r4, lr}
 8006652:	4604      	mov	r4, r0
 8006654:	f7ff fff0 	bl	8006638 <__sfp_lock_acquire>
 8006658:	6a23      	ldr	r3, [r4, #32]
 800665a:	b11b      	cbz	r3, 8006664 <__sinit+0x14>
 800665c:	e8bd 4010 	ldmia.w	sp!, {r4, lr}
 8006660:	f7ff bff0 	b.w	8006644 <__sfp_lock_release>
 8006664:	4b04      	ldr	r3, [pc, #16]	@ (8006678 <__sinit+0x28>)
 8006666:	6223      	str	r3, [r4, #32]
 8006668:	4b04      	ldr	r3, [pc, #16]	@ (800667c <__sinit+0x2c>)
 800666a:	681b      	ldr	r3, [r3, #0]
 800666c:	2b00      	cmp	r3, #0
 800666e:	d1f5      	bne.n	800665c <__sinit+0xc>
 8006670:	f7ff ffc4 	bl	80065fc <global_stdio_init.part.0>
 8006674:	e7f2      	b.n	800665c <__sinit+0xc>
 8006676:	bf00      	nop
 8006678:	080065bd 	.word	0x080065bd
 800667c:	200004b4 	.word	0x200004b4

08006680 <_fwalk_sglue>:
 8006680:	e92d 43f8 	stmdb	sp!, {r3, r4, r5, r6, r7, r8, r9, lr}
 8006684:	4607      	mov	r7, r0
 8006686:	4688      	mov	r8, r1
 8006688:	4614      	mov	r4, r2
 800668a:	2600      	movs	r6, #0
 800668c:	e9d4 9501 	ldrd	r9, r5, [r4, #4]
 8006690:	f1b9 0901 	subs.w	r9, r9, #1
 8006694:	d505      	bpl.n	80066a2 <_fwalk_sglue+0x22>
 8006696:	6824      	ldr	r4, [r4, #0]
 8006698:	2c00      	cmp	r4, #0
 800669a:	d1f7      	bne.n	800668c <_fwalk_sglue+0xc>
 800669c:	4630      	mov	r0, r6
 800669e:	e8bd 83f8 	ldmia.w	sp!, {r3, r4, r5, r6, r7, r8, r9, pc}
 80066a2:	89ab      	ldrh	r3, [r5, #12]
 80066a4:	2b01      	cmp	r3, #1
 80066a6:	d907      	bls.n	80066b8 <_fwalk_sglue+0x38>
 80066a8:	f9b5 300e 	ldrsh.w	r3, [r5, #14]
 80066ac:	3301      	adds	r3, #1
 80066ae:	d003      	beq.n	80066b8 <_fwalk_sglue+0x38>
 80066b0:	4629      	mov	r1, r5
 80066b2:	4638      	mov	r0, r7
 80066b4:	47c0      	blx	r8
 80066b6:	4306      	orrs	r6, r0
 80066b8:	3568      	adds	r5, #104	@ 0x68
 80066ba:	e7e9      	b.n	8006690 <_fwalk_sglue+0x10>

080066bc <memset>:
 80066bc:	4402      	add	r2, r0
 80066be:	4603      	mov	r3, r0
 80066c0:	4293      	cmp	r3, r2
 80066c2:	d100      	bne.n	80066c6 <memset+0xa>
 80066c4:	4770      	bx	lr
 80066c6:	f803 1b01 	strb.w	r1, [r3], #1
 80066ca:	e7f9      	b.n	80066c0 <memset+0x4>

080066cc <_localeconv_r>:
 80066cc:	4800      	ldr	r0, [pc, #0]	@ (80066d0 <_localeconv_r+0x4>)
 80066ce:	4770      	bx	lr
 80066d0:	20000158 	.word	0x20000158

080066d4 <_sbrk_r>:
 80066d4:	b538      	push	{r3, r4, r5, lr}
 80066d6:	4d06      	ldr	r5, [pc, #24]	@ (80066f0 <_sbrk_r+0x1c>)
 80066d8:	2300      	movs	r3, #0
 80066da:	4604      	mov	r4, r0
 80066dc:	4608      	mov	r0, r1
 80066de:	602b      	str	r3, [r5, #0]
 80066e0:	f7fb ff56 	bl	8002590 <_sbrk>
 80066e4:	1c43      	adds	r3, r0, #1
 80066e6:	d102      	bne.n	80066ee <_sbrk_r+0x1a>
 80066e8:	682b      	ldr	r3, [r5, #0]
 80066ea:	b103      	cbz	r3, 80066ee <_sbrk_r+0x1a>
 80066ec:	6023      	str	r3, [r4, #0]
 80066ee:	bd38      	pop	{r3, r4, r5, pc}
 80066f0:	200004bc 	.word	0x200004bc

080066f4 <__errno>:
 80066f4:	4b01      	ldr	r3, [pc, #4]	@ (80066fc <__errno+0x8>)
 80066f6:	6818      	ldr	r0, [r3, #0]
 80066f8:	4770      	bx	lr
 80066fa:	bf00      	nop
 80066fc:	20000018 	.word	0x20000018

08006700 <__libc_init_array>:
 8006700:	b570      	push	{r4, r5, r6, lr}
 8006702:	4d0d      	ldr	r5, [pc, #52]	@ (8006738 <__libc_init_array+0x38>)
 8006704:	4c0d      	ldr	r4, [pc, #52]	@ (800673c <__libc_init_array+0x3c>)
 8006706:	1b64      	subs	r4, r4, r5
 8006708:	10a4      	asrs	r4, r4, #2
 800670a:	2600      	movs	r6, #0
 800670c:	42a6      	cmp	r6, r4
 800670e:	d109      	bne.n	8006724 <__libc_init_array+0x24>
 8006710:	4d0b      	ldr	r5, [pc, #44]	@ (8006740 <__libc_init_array+0x40>)
 8006712:	4c0c      	ldr	r4, [pc, #48]	@ (8006744 <__libc_init_array+0x44>)
 8006714:	f002 f814 	bl	8008740 <_init>
 8006718:	1b64      	subs	r4, r4, r5
 800671a:	10a4      	asrs	r4, r4, #2
 800671c:	2600      	movs	r6, #0
 800671e:	42a6      	cmp	r6, r4
 8006720:	d105      	bne.n	800672e <__libc_init_array+0x2e>
 8006722:	bd70      	pop	{r4, r5, r6, pc}
 8006724:	f855 3b04 	ldr.w	r3, [r5], #4
 8006728:	4798      	blx	r3
 800672a:	3601      	adds	r6, #1
 800672c:	e7ee      	b.n	800670c <__libc_init_array+0xc>
 800672e:	f855 3b04 	ldr.w	r3, [r5], #4
 8006732:	4798      	blx	r3
 8006734:	3601      	adds	r6, #1
 8006736:	e7f2      	b.n	800671e <__libc_init_array+0x1e>
 8006738:	08008c60 	.word	0x08008c60
 800673c:	08008c60 	.word	0x08008c60
 8006740:	08008c60 	.word	0x08008c60
 8006744:	08008c64 	.word	0x08008c64

08006748 <__retarget_lock_init_recursive>:
 8006748:	4770      	bx	lr

0800674a <__retarget_lock_acquire_recursive>:
 800674a:	4770      	bx	lr

0800674c <__retarget_lock_release_recursive>:
 800674c:	4770      	bx	lr

0800674e <quorem>:
 800674e:	e92d 4ff7 	stmdb	sp!, {r0, r1, r2, r4, r5, r6, r7, r8, r9, sl, fp, lr}
 8006752:	6903      	ldr	r3, [r0, #16]
 8006754:	690c      	ldr	r4, [r1, #16]
 8006756:	42a3      	cmp	r3, r4
 8006758:	4607      	mov	r7, r0
 800675a:	db7e      	blt.n	800685a <quorem+0x10c>
 800675c:	3c01      	subs	r4, #1
 800675e:	f101 0814 	add.w	r8, r1, #20
 8006762:	00a3      	lsls	r3, r4, #2
 8006764:	f100 0514 	add.w	r5, r0, #20
 8006768:	9300      	str	r3, [sp, #0]
 800676a:	eb05 0384 	add.w	r3, r5, r4, lsl #2
 800676e:	9301      	str	r3, [sp, #4]
 8006770:	f858 3024 	ldr.w	r3, [r8, r4, lsl #2]
 8006774:	f855 2024 	ldr.w	r2, [r5, r4, lsl #2]
 8006778:	3301      	adds	r3, #1
 800677a:	429a      	cmp	r2, r3
 800677c:	eb08 0984 	add.w	r9, r8, r4, lsl #2
 8006780:	fbb2 f6f3 	udiv	r6, r2, r3
 8006784:	d32e      	bcc.n	80067e4 <quorem+0x96>
 8006786:	f04f 0a00 	mov.w	sl, #0
 800678a:	46c4      	mov	ip, r8
 800678c:	46ae      	mov	lr, r5
 800678e:	46d3      	mov	fp, sl
 8006790:	f85c 3b04 	ldr.w	r3, [ip], #4
 8006794:	b298      	uxth	r0, r3
 8006796:	fb06 a000 	mla	r0, r6, r0, sl
 800679a:	0c02      	lsrs	r2, r0, #16
 800679c:	0c1b      	lsrs	r3, r3, #16
 800679e:	fb06 2303 	mla	r3, r6, r3, r2
 80067a2:	f8de 2000 	ldr.w	r2, [lr]
 80067a6:	b280      	uxth	r0, r0
 80067a8:	b292      	uxth	r2, r2
 80067aa:	1a12      	subs	r2, r2, r0
 80067ac:	445a      	add	r2, fp
 80067ae:	f8de 0000 	ldr.w	r0, [lr]
 80067b2:	ea4f 4a13 	mov.w	sl, r3, lsr #16
 80067b6:	b29b      	uxth	r3, r3
 80067b8:	ebc3 4322 	rsb	r3, r3, r2, asr #16
 80067bc:	eb03 4310 	add.w	r3, r3, r0, lsr #16
 80067c0:	b292      	uxth	r2, r2
 80067c2:	ea42 4203 	orr.w	r2, r2, r3, lsl #16
 80067c6:	45e1      	cmp	r9, ip
 80067c8:	f84e 2b04 	str.w	r2, [lr], #4
 80067cc:	ea4f 4b23 	mov.w	fp, r3, asr #16
 80067d0:	d2de      	bcs.n	8006790 <quorem+0x42>
 80067d2:	9b00      	ldr	r3, [sp, #0]
 80067d4:	58eb      	ldr	r3, [r5, r3]
 80067d6:	b92b      	cbnz	r3, 80067e4 <quorem+0x96>
 80067d8:	9b01      	ldr	r3, [sp, #4]
 80067da:	3b04      	subs	r3, #4
 80067dc:	429d      	cmp	r5, r3
 80067de:	461a      	mov	r2, r3
 80067e0:	d32f      	bcc.n	8006842 <quorem+0xf4>
 80067e2:	613c      	str	r4, [r7, #16]
 80067e4:	4638      	mov	r0, r7
 80067e6:	f001 fac7 	bl	8007d78 <__mcmp>
 80067ea:	2800      	cmp	r0, #0
 80067ec:	db25      	blt.n	800683a <quorem+0xec>
 80067ee:	4629      	mov	r1, r5
 80067f0:	2000      	movs	r0, #0
 80067f2:	f858 2b04 	ldr.w	r2, [r8], #4
 80067f6:	f8d1 c000 	ldr.w	ip, [r1]
 80067fa:	fa1f fe82 	uxth.w	lr, r2
 80067fe:	fa1f f38c 	uxth.w	r3, ip
 8006802:	eba3 030e 	sub.w	r3, r3, lr
 8006806:	4403      	add	r3, r0
 8006808:	0c12      	lsrs	r2, r2, #16
 800680a:	ebc2 4223 	rsb	r2, r2, r3, asr #16
 800680e:	eb02 421c 	add.w	r2, r2, ip, lsr #16
 8006812:	b29b      	uxth	r3, r3
 8006814:	ea43 4302 	orr.w	r3, r3, r2, lsl #16
 8006818:	45c1      	cmp	r9, r8
 800681a:	f841 3b04 	str.w	r3, [r1], #4
 800681e:	ea4f 4022 	mov.w	r0, r2, asr #16
 8006822:	d2e6      	bcs.n	80067f2 <quorem+0xa4>
 8006824:	f855 2024 	ldr.w	r2, [r5, r4, lsl #2]
 8006828:	eb05 0384 	add.w	r3, r5, r4, lsl #2
 800682c:	b922      	cbnz	r2, 8006838 <quorem+0xea>
 800682e:	3b04      	subs	r3, #4
 8006830:	429d      	cmp	r5, r3
 8006832:	461a      	mov	r2, r3
 8006834:	d30b      	bcc.n	800684e <quorem+0x100>
 8006836:	613c      	str	r4, [r7, #16]
 8006838:	3601      	adds	r6, #1
 800683a:	4630      	mov	r0, r6
 800683c:	b003      	add	sp, #12
 800683e:	e8bd 8ff0 	ldmia.w	sp!, {r4, r5, r6, r7, r8, r9, sl, fp, pc}
 8006842:	6812      	ldr	r2, [r2, #0]
 8006844:	3b04      	subs	r3, #4
 8006846:	2a00      	cmp	r2, #0
 8006848:	d1cb      	bne.n	80067e2 <quorem+0x94>
 800684a:	3c01      	subs	r4, #1
 800684c:	e7c6      	b.n	80067dc <quorem+0x8e>
 800684e:	6812      	ldr	r2, [r2, #0]
 8006850:	3b04      	subs	r3, #4
 8006852:	2a00      	cmp	r2, #0
 8006854:	d1ef      	bne.n	8006836 <quorem+0xe8>
 8006856:	3c01      	subs	r4, #1
 8006858:	e7ea      	b.n	8006830 <quorem+0xe2>
 800685a:	2000      	movs	r0, #0
 800685c:	e7ee      	b.n	800683c <quorem+0xee>
	...

08006860 <_dtoa_r>:
 8006860:	e92d 4ff0 	stmdb	sp!, {r4, r5, r6, r7, r8, r9, sl, fp, lr}
 8006864:	69c7      	ldr	r7, [r0, #28]
 8006866:	b099      	sub	sp, #100	@ 0x64
 8006868:	ed8d 0b02 	vstr	d0, [sp, #8]
 800686c:	ec55 4b10 	vmov	r4, r5, d0
 8006870:	9e22      	ldr	r6, [sp, #136]	@ 0x88
 8006872:	9109      	str	r1, [sp, #36]	@ 0x24
 8006874:	4683      	mov	fp, r0
 8006876:	920e      	str	r2, [sp, #56]	@ 0x38
 8006878:	9313      	str	r3, [sp, #76]	@ 0x4c
 800687a:	b97f      	cbnz	r7, 800689c <_dtoa_r+0x3c>
 800687c:	2010      	movs	r0, #16
 800687e:	f7ff fbf7 	bl	8006070 <malloc>
 8006882:	4602      	mov	r2, r0
 8006884:	f8cb 001c 	str.w	r0, [fp, #28]
 8006888:	b920      	cbnz	r0, 8006894 <_dtoa_r+0x34>
 800688a:	4ba7      	ldr	r3, [pc, #668]	@ (8006b28 <_dtoa_r+0x2c8>)
 800688c:	21ef      	movs	r1, #239	@ 0xef
 800688e:	48a7      	ldr	r0, [pc, #668]	@ (8006b2c <_dtoa_r+0x2cc>)
 8006890:	f001 fc5a 	bl	8008148 <__assert_func>
 8006894:	e9c0 7701 	strd	r7, r7, [r0, #4]
 8006898:	6007      	str	r7, [r0, #0]
 800689a:	60c7      	str	r7, [r0, #12]
 800689c:	f8db 301c 	ldr.w	r3, [fp, #28]
 80068a0:	6819      	ldr	r1, [r3, #0]
 80068a2:	b159      	cbz	r1, 80068bc <_dtoa_r+0x5c>
 80068a4:	685a      	ldr	r2, [r3, #4]
 80068a6:	604a      	str	r2, [r1, #4]
 80068a8:	2301      	movs	r3, #1
 80068aa:	4093      	lsls	r3, r2
 80068ac:	608b      	str	r3, [r1, #8]
 80068ae:	4658      	mov	r0, fp
 80068b0:	f001 f828 	bl	8007904 <_Bfree>
 80068b4:	f8db 301c 	ldr.w	r3, [fp, #28]
 80068b8:	2200      	movs	r2, #0
 80068ba:	601a      	str	r2, [r3, #0]
 80068bc:	1e2b      	subs	r3, r5, #0
 80068be:	bfb9      	ittee	lt
 80068c0:	f023 4300 	biclt.w	r3, r3, #2147483648	@ 0x80000000
 80068c4:	9303      	strlt	r3, [sp, #12]
 80068c6:	2300      	movge	r3, #0
 80068c8:	6033      	strge	r3, [r6, #0]
 80068ca:	9f03      	ldr	r7, [sp, #12]
 80068cc:	4b98      	ldr	r3, [pc, #608]	@ (8006b30 <_dtoa_r+0x2d0>)
 80068ce:	bfbc      	itt	lt
 80068d0:	2201      	movlt	r2, #1
 80068d2:	6032      	strlt	r2, [r6, #0]
 80068d4:	43bb      	bics	r3, r7
 80068d6:	d112      	bne.n	80068fe <_dtoa_r+0x9e>
 80068d8:	9a13      	ldr	r2, [sp, #76]	@ 0x4c
 80068da:	f242 730f 	movw	r3, #9999	@ 0x270f
 80068de:	6013      	str	r3, [r2, #0]
 80068e0:	f3c7 0313 	ubfx	r3, r7, #0, #20
 80068e4:	4323      	orrs	r3, r4
 80068e6:	f000 854d 	beq.w	8007384 <_dtoa_r+0xb24>
 80068ea:	9b23      	ldr	r3, [sp, #140]	@ 0x8c
 80068ec:	f8df a254 	ldr.w	sl, [pc, #596]	@ 8006b44 <_dtoa_r+0x2e4>
 80068f0:	2b00      	cmp	r3, #0
 80068f2:	f000 854f 	beq.w	8007394 <_dtoa_r+0xb34>
 80068f6:	f10a 0303 	add.w	r3, sl, #3
 80068fa:	f000 bd49 	b.w	8007390 <_dtoa_r+0xb30>
 80068fe:	ed9d 7b02 	vldr	d7, [sp, #8]
 8006902:	2200      	movs	r2, #0
 8006904:	ec51 0b17 	vmov	r0, r1, d7
 8006908:	2300      	movs	r3, #0
 800690a:	ed8d 7b0c 	vstr	d7, [sp, #48]	@ 0x30
 800690e:	f7fa f8fb 	bl	8000b08 <__aeabi_dcmpeq>
 8006912:	4680      	mov	r8, r0
 8006914:	b158      	cbz	r0, 800692e <_dtoa_r+0xce>
 8006916:	9a13      	ldr	r2, [sp, #76]	@ 0x4c
 8006918:	2301      	movs	r3, #1
 800691a:	6013      	str	r3, [r2, #0]
 800691c:	9b23      	ldr	r3, [sp, #140]	@ 0x8c
 800691e:	b113      	cbz	r3, 8006926 <_dtoa_r+0xc6>
 8006920:	9a23      	ldr	r2, [sp, #140]	@ 0x8c
 8006922:	4b84      	ldr	r3, [pc, #528]	@ (8006b34 <_dtoa_r+0x2d4>)
 8006924:	6013      	str	r3, [r2, #0]
 8006926:	f8df a220 	ldr.w	sl, [pc, #544]	@ 8006b48 <_dtoa_r+0x2e8>
 800692a:	f000 bd33 	b.w	8007394 <_dtoa_r+0xb34>
 800692e:	ed9d 0b0c 	vldr	d0, [sp, #48]	@ 0x30
 8006932:	aa16      	add	r2, sp, #88	@ 0x58
 8006934:	a917      	add	r1, sp, #92	@ 0x5c
 8006936:	4658      	mov	r0, fp
 8006938:	f001 face 	bl	8007ed8 <__d2b>
 800693c:	f3c7 560a 	ubfx	r6, r7, #20, #11
 8006940:	4681      	mov	r9, r0
 8006942:	2e00      	cmp	r6, #0
 8006944:	d077      	beq.n	8006a36 <_dtoa_r+0x1d6>
 8006946:	9b0d      	ldr	r3, [sp, #52]	@ 0x34
 8006948:	f8cd 8050 	str.w	r8, [sp, #80]	@ 0x50
 800694c:	f3c3 0313 	ubfx	r3, r3, #0, #20
 8006950:	e9dd 010c 	ldrd	r0, r1, [sp, #48]	@ 0x30
 8006954:	f043 537f 	orr.w	r3, r3, #1069547520	@ 0x3fc00000
 8006958:	f443 1340 	orr.w	r3, r3, #3145728	@ 0x300000
 800695c:	f2a6 36ff 	subw	r6, r6, #1023	@ 0x3ff
 8006960:	4619      	mov	r1, r3
 8006962:	2200      	movs	r2, #0
 8006964:	4b74      	ldr	r3, [pc, #464]	@ (8006b38 <_dtoa_r+0x2d8>)
 8006966:	f7f9 fcaf 	bl	80002c8 <__aeabi_dsub>
 800696a:	a369      	add	r3, pc, #420	@ (adr r3, 8006b10 <_dtoa_r+0x2b0>)
 800696c:	e9d3 2300 	ldrd	r2, r3, [r3]
 8006970:	f7f9 fe62 	bl	8000638 <__aeabi_dmul>
 8006974:	a368      	add	r3, pc, #416	@ (adr r3, 8006b18 <_dtoa_r+0x2b8>)
 8006976:	e9d3 2300 	ldrd	r2, r3, [r3]
 800697a:	f7f9 fca7 	bl	80002cc <__adddf3>
 800697e:	4604      	mov	r4, r0
 8006980:	4630      	mov	r0, r6
 8006982:	460d      	mov	r5, r1
 8006984:	f7f9 fdee 	bl	8000564 <__aeabi_i2d>
 8006988:	a365      	add	r3, pc, #404	@ (adr r3, 8006b20 <_dtoa_r+0x2c0>)
 800698a:	e9d3 2300 	ldrd	r2, r3, [r3]
 800698e:	f7f9 fe53 	bl	8000638 <__aeabi_dmul>
 8006992:	4602      	mov	r2, r0
 8006994:	460b      	mov	r3, r1
 8006996:	4620      	mov	r0, r4
 8006998:	4629      	mov	r1, r5
 800699a:	f7f9 fc97 	bl	80002cc <__adddf3>
 800699e:	4604      	mov	r4, r0
 80069a0:	460d      	mov	r5, r1
 80069a2:	f7fa f8f9 	bl	8000b98 <__aeabi_d2iz>
 80069a6:	2200      	movs	r2, #0
 80069a8:	4607      	mov	r7, r0
 80069aa:	2300      	movs	r3, #0
 80069ac:	4620      	mov	r0, r4
 80069ae:	4629      	mov	r1, r5
 80069b0:	f7fa f8b4 	bl	8000b1c <__aeabi_dcmplt>
 80069b4:	b140      	cbz	r0, 80069c8 <_dtoa_r+0x168>
 80069b6:	4638      	mov	r0, r7
 80069b8:	f7f9 fdd4 	bl	8000564 <__aeabi_i2d>
 80069bc:	4622      	mov	r2, r4
 80069be:	462b      	mov	r3, r5
 80069c0:	f7fa f8a2 	bl	8000b08 <__aeabi_dcmpeq>
 80069c4:	b900      	cbnz	r0, 80069c8 <_dtoa_r+0x168>
 80069c6:	3f01      	subs	r7, #1
 80069c8:	2f16      	cmp	r7, #22
 80069ca:	d851      	bhi.n	8006a70 <_dtoa_r+0x210>
 80069cc:	4b5b      	ldr	r3, [pc, #364]	@ (8006b3c <_dtoa_r+0x2dc>)
 80069ce:	eb03 03c7 	add.w	r3, r3, r7, lsl #3
 80069d2:	e9d3 2300 	ldrd	r2, r3, [r3]
 80069d6:	e9dd 010c 	ldrd	r0, r1, [sp, #48]	@ 0x30
 80069da:	f7fa f89f 	bl	8000b1c <__aeabi_dcmplt>
 80069de:	2800      	cmp	r0, #0
 80069e0:	d048      	beq.n	8006a74 <_dtoa_r+0x214>
 80069e2:	3f01      	subs	r7, #1
 80069e4:	2300      	movs	r3, #0
 80069e6:	9312      	str	r3, [sp, #72]	@ 0x48
 80069e8:	9b16      	ldr	r3, [sp, #88]	@ 0x58
 80069ea:	1b9b      	subs	r3, r3, r6
 80069ec:	1e5a      	subs	r2, r3, #1
 80069ee:	bf44      	itt	mi
 80069f0:	f1c3 0801 	rsbmi	r8, r3, #1
 80069f4:	2300      	movmi	r3, #0
 80069f6:	9208      	str	r2, [sp, #32]
 80069f8:	bf54      	ite	pl
 80069fa:	f04f 0800 	movpl.w	r8, #0
 80069fe:	9308      	strmi	r3, [sp, #32]
 8006a00:	2f00      	cmp	r7, #0
 8006a02:	db39      	blt.n	8006a78 <_dtoa_r+0x218>
 8006a04:	9b08      	ldr	r3, [sp, #32]
 8006a06:	970f      	str	r7, [sp, #60]	@ 0x3c
 8006a08:	443b      	add	r3, r7
 8006a0a:	9308      	str	r3, [sp, #32]
 8006a0c:	2300      	movs	r3, #0
 8006a0e:	930a      	str	r3, [sp, #40]	@ 0x28
 8006a10:	9b09      	ldr	r3, [sp, #36]	@ 0x24
 8006a12:	2b09      	cmp	r3, #9
 8006a14:	d864      	bhi.n	8006ae0 <_dtoa_r+0x280>
 8006a16:	2b05      	cmp	r3, #5
 8006a18:	bfc4      	itt	gt
 8006a1a:	3b04      	subgt	r3, #4
 8006a1c:	9309      	strgt	r3, [sp, #36]	@ 0x24
 8006a1e:	9b09      	ldr	r3, [sp, #36]	@ 0x24
 8006a20:	f1a3 0302 	sub.w	r3, r3, #2
 8006a24:	bfcc      	ite	gt
 8006a26:	2400      	movgt	r4, #0
 8006a28:	2401      	movle	r4, #1
 8006a2a:	2b03      	cmp	r3, #3
 8006a2c:	d863      	bhi.n	8006af6 <_dtoa_r+0x296>
 8006a2e:	e8df f003 	tbb	[pc, r3]
 8006a32:	372a      	.short	0x372a
 8006a34:	5535      	.short	0x5535
 8006a36:	e9dd 6316 	ldrd	r6, r3, [sp, #88]	@ 0x58
 8006a3a:	441e      	add	r6, r3
 8006a3c:	f206 4332 	addw	r3, r6, #1074	@ 0x432
 8006a40:	2b20      	cmp	r3, #32
 8006a42:	bfc1      	itttt	gt
 8006a44:	f1c3 0340 	rsbgt	r3, r3, #64	@ 0x40
 8006a48:	409f      	lslgt	r7, r3
 8006a4a:	f206 4312 	addwgt	r3, r6, #1042	@ 0x412
 8006a4e:	fa24 f303 	lsrgt.w	r3, r4, r3
 8006a52:	bfd6      	itet	le
 8006a54:	f1c3 0320 	rsble	r3, r3, #32
 8006a58:	ea47 0003 	orrgt.w	r0, r7, r3
 8006a5c:	fa04 f003 	lslle.w	r0, r4, r3
 8006a60:	f7f9 fd70 	bl	8000544 <__aeabi_ui2d>
 8006a64:	2201      	movs	r2, #1
 8006a66:	f1a1 73f8 	sub.w	r3, r1, #32505856	@ 0x1f00000
 8006a6a:	3e01      	subs	r6, #1
 8006a6c:	9214      	str	r2, [sp, #80]	@ 0x50
 8006a6e:	e777      	b.n	8006960 <_dtoa_r+0x100>
 8006a70:	2301      	movs	r3, #1
 8006a72:	e7b8      	b.n	80069e6 <_dtoa_r+0x186>
 8006a74:	9012      	str	r0, [sp, #72]	@ 0x48
 8006a76:	e7b7      	b.n	80069e8 <_dtoa_r+0x188>
 8006a78:	427b      	negs	r3, r7
 8006a7a:	930a      	str	r3, [sp, #40]	@ 0x28
 8006a7c:	2300      	movs	r3, #0
 8006a7e:	eba8 0807 	sub.w	r8, r8, r7
 8006a82:	930f      	str	r3, [sp, #60]	@ 0x3c
 8006a84:	e7c4      	b.n	8006a10 <_dtoa_r+0x1b0>
 8006a86:	2300      	movs	r3, #0
 8006a88:	930b      	str	r3, [sp, #44]	@ 0x2c
 8006a8a:	9b0e      	ldr	r3, [sp, #56]	@ 0x38
 8006a8c:	2b00      	cmp	r3, #0
 8006a8e:	dc35      	bgt.n	8006afc <_dtoa_r+0x29c>
 8006a90:	2301      	movs	r3, #1
 8006a92:	9300      	str	r3, [sp, #0]
 8006a94:	9307      	str	r3, [sp, #28]
 8006a96:	461a      	mov	r2, r3
 8006a98:	920e      	str	r2, [sp, #56]	@ 0x38
 8006a9a:	e00b      	b.n	8006ab4 <_dtoa_r+0x254>
 8006a9c:	2301      	movs	r3, #1
 8006a9e:	e7f3      	b.n	8006a88 <_dtoa_r+0x228>
 8006aa0:	2300      	movs	r3, #0
 8006aa2:	930b      	str	r3, [sp, #44]	@ 0x2c
 8006aa4:	9b0e      	ldr	r3, [sp, #56]	@ 0x38
 8006aa6:	18fb      	adds	r3, r7, r3
 8006aa8:	9300      	str	r3, [sp, #0]
 8006aaa:	3301      	adds	r3, #1
 8006aac:	2b01      	cmp	r3, #1
 8006aae:	9307      	str	r3, [sp, #28]
 8006ab0:	bfb8      	it	lt
 8006ab2:	2301      	movlt	r3, #1
 8006ab4:	f8db 001c 	ldr.w	r0, [fp, #28]
 8006ab8:	2100      	movs	r1, #0
 8006aba:	2204      	movs	r2, #4
 8006abc:	f102 0514 	add.w	r5, r2, #20
 8006ac0:	429d      	cmp	r5, r3
 8006ac2:	d91f      	bls.n	8006b04 <_dtoa_r+0x2a4>
 8006ac4:	6041      	str	r1, [r0, #4]
 8006ac6:	4658      	mov	r0, fp
 8006ac8:	f000 fedc 	bl	8007884 <_Balloc>
 8006acc:	4682      	mov	sl, r0
 8006ace:	2800      	cmp	r0, #0
 8006ad0:	d13c      	bne.n	8006b4c <_dtoa_r+0x2ec>
 8006ad2:	4b1b      	ldr	r3, [pc, #108]	@ (8006b40 <_dtoa_r+0x2e0>)
 8006ad4:	4602      	mov	r2, r0
 8006ad6:	f240 11af 	movw	r1, #431	@ 0x1af
 8006ada:	e6d8      	b.n	800688e <_dtoa_r+0x2e>
 8006adc:	2301      	movs	r3, #1
 8006ade:	e7e0      	b.n	8006aa2 <_dtoa_r+0x242>
 8006ae0:	2401      	movs	r4, #1
 8006ae2:	2300      	movs	r3, #0
 8006ae4:	9309      	str	r3, [sp, #36]	@ 0x24
 8006ae6:	940b      	str	r4, [sp, #44]	@ 0x2c
 8006ae8:	f04f 33ff 	mov.w	r3, #4294967295	@ 0xffffffff
 8006aec:	9300      	str	r3, [sp, #0]
 8006aee:	9307      	str	r3, [sp, #28]
 8006af0:	2200      	movs	r2, #0
 8006af2:	2312      	movs	r3, #18
 8006af4:	e7d0      	b.n	8006a98 <_dtoa_r+0x238>
 8006af6:	2301      	movs	r3, #1
 8006af8:	930b      	str	r3, [sp, #44]	@ 0x2c
 8006afa:	e7f5      	b.n	8006ae8 <_dtoa_r+0x288>
 8006afc:	9b0e      	ldr	r3, [sp, #56]	@ 0x38
 8006afe:	9300      	str	r3, [sp, #0]
 8006b00:	9307      	str	r3, [sp, #28]
 8006b02:	e7d7      	b.n	8006ab4 <_dtoa_r+0x254>
 8006b04:	3101      	adds	r1, #1
 8006b06:	0052      	lsls	r2, r2, #1
 8006b08:	e7d8      	b.n	8006abc <_dtoa_r+0x25c>
 8006b0a:	bf00      	nop
 8006b0c:	f3af 8000 	nop.w
 8006b10:	636f4361 	.word	0x636f4361
 8006b14:	3fd287a7 	.word	0x3fd287a7
 8006b18:	8b60c8b3 	.word	0x8b60c8b3
 8006b1c:	3fc68a28 	.word	0x3fc68a28
 8006b20:	509f79fb 	.word	0x509f79fb
 8006b24:	3fd34413 	.word	0x3fd34413
 8006b28:	08008929 	.word	0x08008929
 8006b2c:	08008940 	.word	0x08008940
 8006b30:	7ff00000 	.word	0x7ff00000
 8006b34:	080088f9 	.word	0x080088f9
 8006b38:	3ff80000 	.word	0x3ff80000
 8006b3c:	08008a48 	.word	0x08008a48
 8006b40:	08008998 	.word	0x08008998
 8006b44:	08008925 	.word	0x08008925
 8006b48:	080088f8 	.word	0x080088f8
 8006b4c:	f8db 301c 	ldr.w	r3, [fp, #28]
 8006b50:	6018      	str	r0, [r3, #0]
 8006b52:	9b07      	ldr	r3, [sp, #28]
 8006b54:	2b0e      	cmp	r3, #14
 8006b56:	f200 80a4 	bhi.w	8006ca2 <_dtoa_r+0x442>
 8006b5a:	2c00      	cmp	r4, #0
 8006b5c:	f000 80a1 	beq.w	8006ca2 <_dtoa_r+0x442>
 8006b60:	2f00      	cmp	r7, #0
 8006b62:	dd33      	ble.n	8006bcc <_dtoa_r+0x36c>
 8006b64:	4bad      	ldr	r3, [pc, #692]	@ (8006e1c <_dtoa_r+0x5bc>)
 8006b66:	f007 020f 	and.w	r2, r7, #15
 8006b6a:	eb03 03c2 	add.w	r3, r3, r2, lsl #3
 8006b6e:	ed93 7b00 	vldr	d7, [r3]
 8006b72:	05f8      	lsls	r0, r7, #23
 8006b74:	ed8d 7b04 	vstr	d7, [sp, #16]
 8006b78:	ea4f 1427 	mov.w	r4, r7, asr #4
 8006b7c:	d516      	bpl.n	8006bac <_dtoa_r+0x34c>
 8006b7e:	4ba8      	ldr	r3, [pc, #672]	@ (8006e20 <_dtoa_r+0x5c0>)
 8006b80:	e9dd 010c 	ldrd	r0, r1, [sp, #48]	@ 0x30
 8006b84:	e9d3 2308 	ldrd	r2, r3, [r3, #32]
 8006b88:	f7f9 fe80 	bl	800088c <__aeabi_ddiv>
 8006b8c:	e9cd 0102 	strd	r0, r1, [sp, #8]
 8006b90:	f004 040f 	and.w	r4, r4, #15
 8006b94:	2603      	movs	r6, #3
 8006b96:	4da2      	ldr	r5, [pc, #648]	@ (8006e20 <_dtoa_r+0x5c0>)
 8006b98:	b954      	cbnz	r4, 8006bb0 <_dtoa_r+0x350>
 8006b9a:	e9dd 2304 	ldrd	r2, r3, [sp, #16]
 8006b9e:	e9dd 0102 	ldrd	r0, r1, [sp, #8]
 8006ba2:	f7f9 fe73 	bl	800088c <__aeabi_ddiv>
 8006ba6:	e9cd 0102 	strd	r0, r1, [sp, #8]
 8006baa:	e028      	b.n	8006bfe <_dtoa_r+0x39e>
 8006bac:	2602      	movs	r6, #2
 8006bae:	e7f2      	b.n	8006b96 <_dtoa_r+0x336>
 8006bb0:	07e1      	lsls	r1, r4, #31
 8006bb2:	d508      	bpl.n	8006bc6 <_dtoa_r+0x366>
 8006bb4:	e9dd 0104 	ldrd	r0, r1, [sp, #16]
 8006bb8:	e9d5 2300 	ldrd	r2, r3, [r5]
 8006bbc:	f7f9 fd3c 	bl	8000638 <__aeabi_dmul>
 8006bc0:	e9cd 0104 	strd	r0, r1, [sp, #16]
 8006bc4:	3601      	adds	r6, #1
 8006bc6:	1064      	asrs	r4, r4, #1
 8006bc8:	3508      	adds	r5, #8
 8006bca:	e7e5      	b.n	8006b98 <_dtoa_r+0x338>
 8006bcc:	f000 80d2 	beq.w	8006d74 <_dtoa_r+0x514>
 8006bd0:	427c      	negs	r4, r7
 8006bd2:	4b92      	ldr	r3, [pc, #584]	@ (8006e1c <_dtoa_r+0x5bc>)
 8006bd4:	4d92      	ldr	r5, [pc, #584]	@ (8006e20 <_dtoa_r+0x5c0>)
 8006bd6:	f004 020f 	and.w	r2, r4, #15
 8006bda:	eb03 03c2 	add.w	r3, r3, r2, lsl #3
 8006bde:	e9d3 2300 	ldrd	r2, r3, [r3]
 8006be2:	e9dd 010c 	ldrd	r0, r1, [sp, #48]	@ 0x30
 8006be6:	f7f9 fd27 	bl	8000638 <__aeabi_dmul>
 8006bea:	e9cd 0102 	strd	r0, r1, [sp, #8]
 8006bee:	1124      	asrs	r4, r4, #4
 8006bf0:	2300      	movs	r3, #0
 8006bf2:	2602      	movs	r6, #2
 8006bf4:	2c00      	cmp	r4, #0
 8006bf6:	f040 80b2 	bne.w	8006d5e <_dtoa_r+0x4fe>
 8006bfa:	2b00      	cmp	r3, #0
 8006bfc:	d1d3      	bne.n	8006ba6 <_dtoa_r+0x346>
 8006bfe:	9b12      	ldr	r3, [sp, #72]	@ 0x48
 8006c00:	e9dd 4502 	ldrd	r4, r5, [sp, #8]
 8006c04:	2b00      	cmp	r3, #0
 8006c06:	f000 80b7 	beq.w	8006d78 <_dtoa_r+0x518>
 8006c0a:	4b86      	ldr	r3, [pc, #536]	@ (8006e24 <_dtoa_r+0x5c4>)
 8006c0c:	2200      	movs	r2, #0
 8006c0e:	4620      	mov	r0, r4
 8006c10:	4629      	mov	r1, r5
 8006c12:	f7f9 ff83 	bl	8000b1c <__aeabi_dcmplt>
 8006c16:	2800      	cmp	r0, #0
 8006c18:	f000 80ae 	beq.w	8006d78 <_dtoa_r+0x518>
 8006c1c:	9b07      	ldr	r3, [sp, #28]
 8006c1e:	2b00      	cmp	r3, #0
 8006c20:	f000 80aa 	beq.w	8006d78 <_dtoa_r+0x518>
 8006c24:	9b00      	ldr	r3, [sp, #0]
 8006c26:	2b00      	cmp	r3, #0
 8006c28:	dd37      	ble.n	8006c9a <_dtoa_r+0x43a>
 8006c2a:	1e7b      	subs	r3, r7, #1
 8006c2c:	9304      	str	r3, [sp, #16]
 8006c2e:	4620      	mov	r0, r4
 8006c30:	4b7d      	ldr	r3, [pc, #500]	@ (8006e28 <_dtoa_r+0x5c8>)
 8006c32:	2200      	movs	r2, #0
 8006c34:	4629      	mov	r1, r5
 8006c36:	f7f9 fcff 	bl	8000638 <__aeabi_dmul>
 8006c3a:	e9cd 0102 	strd	r0, r1, [sp, #8]
 8006c3e:	9c00      	ldr	r4, [sp, #0]
 8006c40:	3601      	adds	r6, #1
 8006c42:	4630      	mov	r0, r6
 8006c44:	f7f9 fc8e 	bl	8000564 <__aeabi_i2d>
 8006c48:	e9dd 2302 	ldrd	r2, r3, [sp, #8]
 8006c4c:	f7f9 fcf4 	bl	8000638 <__aeabi_dmul>
 8006c50:	4b76      	ldr	r3, [pc, #472]	@ (8006e2c <_dtoa_r+0x5cc>)
 8006c52:	2200      	movs	r2, #0
 8006c54:	f7f9 fb3a 	bl	80002cc <__adddf3>
 8006c58:	4605      	mov	r5, r0
 8006c5a:	f1a1 7650 	sub.w	r6, r1, #54525952	@ 0x3400000
 8006c5e:	2c00      	cmp	r4, #0
 8006c60:	f040 808d 	bne.w	8006d7e <_dtoa_r+0x51e>
 8006c64:	e9dd 0102 	ldrd	r0, r1, [sp, #8]
 8006c68:	4b71      	ldr	r3, [pc, #452]	@ (8006e30 <_dtoa_r+0x5d0>)
 8006c6a:	2200      	movs	r2, #0
 8006c6c:	f7f9 fb2c 	bl	80002c8 <__aeabi_dsub>
 8006c70:	4602      	mov	r2, r0
 8006c72:	460b      	mov	r3, r1
 8006c74:	e9cd 2302 	strd	r2, r3, [sp, #8]
 8006c78:	462a      	mov	r2, r5
 8006c7a:	4633      	mov	r3, r6
 8006c7c:	f7f9 ff6c 	bl	8000b58 <__aeabi_dcmpgt>
 8006c80:	2800      	cmp	r0, #0
 8006c82:	f040 828b 	bne.w	800719c <_dtoa_r+0x93c>
 8006c86:	e9dd 0102 	ldrd	r0, r1, [sp, #8]
 8006c8a:	462a      	mov	r2, r5
 8006c8c:	f106 4300 	add.w	r3, r6, #2147483648	@ 0x80000000
 8006c90:	f7f9 ff44 	bl	8000b1c <__aeabi_dcmplt>
 8006c94:	2800      	cmp	r0, #0
 8006c96:	f040 8128 	bne.w	8006eea <_dtoa_r+0x68a>
 8006c9a:	e9dd 340c 	ldrd	r3, r4, [sp, #48]	@ 0x30
 8006c9e:	e9cd 3402 	strd	r3, r4, [sp, #8]
 8006ca2:	9b17      	ldr	r3, [sp, #92]	@ 0x5c
 8006ca4:	2b00      	cmp	r3, #0
 8006ca6:	f2c0 815a 	blt.w	8006f5e <_dtoa_r+0x6fe>
 8006caa:	2f0e      	cmp	r7, #14
 8006cac:	f300 8157 	bgt.w	8006f5e <_dtoa_r+0x6fe>
 8006cb0:	4b5a      	ldr	r3, [pc, #360]	@ (8006e1c <_dtoa_r+0x5bc>)
 8006cb2:	eb03 03c7 	add.w	r3, r3, r7, lsl #3
 8006cb6:	ed93 7b00 	vldr	d7, [r3]
 8006cba:	9b0e      	ldr	r3, [sp, #56]	@ 0x38
 8006cbc:	2b00      	cmp	r3, #0
 8006cbe:	ed8d 7b00 	vstr	d7, [sp]
 8006cc2:	da03      	bge.n	8006ccc <_dtoa_r+0x46c>
 8006cc4:	9b07      	ldr	r3, [sp, #28]
 8006cc6:	2b00      	cmp	r3, #0
 8006cc8:	f340 8101 	ble.w	8006ece <_dtoa_r+0x66e>
 8006ccc:	e9dd 4502 	ldrd	r4, r5, [sp, #8]
 8006cd0:	4656      	mov	r6, sl
 8006cd2:	e9dd 2300 	ldrd	r2, r3, [sp]
 8006cd6:	4620      	mov	r0, r4
 8006cd8:	4629      	mov	r1, r5
 8006cda:	f7f9 fdd7 	bl	800088c <__aeabi_ddiv>
 8006cde:	f7f9 ff5b 	bl	8000b98 <__aeabi_d2iz>
 8006ce2:	4680      	mov	r8, r0
 8006ce4:	f7f9 fc3e 	bl	8000564 <__aeabi_i2d>
 8006ce8:	e9dd 2300 	ldrd	r2, r3, [sp]
 8006cec:	f7f9 fca4 	bl	8000638 <__aeabi_dmul>
 8006cf0:	4602      	mov	r2, r0
 8006cf2:	460b      	mov	r3, r1
 8006cf4:	4620      	mov	r0, r4
 8006cf6:	4629      	mov	r1, r5
 8006cf8:	f108 0430 	add.w	r4, r8, #48	@ 0x30
 8006cfc:	f7f9 fae4 	bl	80002c8 <__aeabi_dsub>
 8006d00:	f806 4b01 	strb.w	r4, [r6], #1
 8006d04:	9d07      	ldr	r5, [sp, #28]
 8006d06:	eba6 040a 	sub.w	r4, r6, sl
 8006d0a:	42a5      	cmp	r5, r4
 8006d0c:	4602      	mov	r2, r0
 8006d0e:	460b      	mov	r3, r1
 8006d10:	f040 8117 	bne.w	8006f42 <_dtoa_r+0x6e2>
 8006d14:	f7f9 fada 	bl	80002cc <__adddf3>
 8006d18:	e9dd 2300 	ldrd	r2, r3, [sp]
 8006d1c:	4604      	mov	r4, r0
 8006d1e:	460d      	mov	r5, r1
 8006d20:	f7f9 ff1a 	bl	8000b58 <__aeabi_dcmpgt>
 8006d24:	2800      	cmp	r0, #0
 8006d26:	f040 80f9 	bne.w	8006f1c <_dtoa_r+0x6bc>
 8006d2a:	e9dd 2300 	ldrd	r2, r3, [sp]
 8006d2e:	4620      	mov	r0, r4
 8006d30:	4629      	mov	r1, r5
 8006d32:	f7f9 fee9 	bl	8000b08 <__aeabi_dcmpeq>
 8006d36:	b118      	cbz	r0, 8006d40 <_dtoa_r+0x4e0>
 8006d38:	f018 0f01 	tst.w	r8, #1
 8006d3c:	f040 80ee 	bne.w	8006f1c <_dtoa_r+0x6bc>
 8006d40:	4649      	mov	r1, r9
 8006d42:	4658      	mov	r0, fp
 8006d44:	f000 fdde 	bl	8007904 <_Bfree>
 8006d48:	2300      	movs	r3, #0
 8006d4a:	7033      	strb	r3, [r6, #0]
 8006d4c:	9b13      	ldr	r3, [sp, #76]	@ 0x4c
 8006d4e:	3701      	adds	r7, #1
 8006d50:	601f      	str	r7, [r3, #0]
 8006d52:	9b23      	ldr	r3, [sp, #140]	@ 0x8c
 8006d54:	2b00      	cmp	r3, #0
 8006d56:	f000 831d 	beq.w	8007394 <_dtoa_r+0xb34>
 8006d5a:	601e      	str	r6, [r3, #0]
 8006d5c:	e31a      	b.n	8007394 <_dtoa_r+0xb34>
 8006d5e:	07e2      	lsls	r2, r4, #31
 8006d60:	d505      	bpl.n	8006d6e <_dtoa_r+0x50e>
 8006d62:	e9d5 2300 	ldrd	r2, r3, [r5]
 8006d66:	f7f9 fc67 	bl	8000638 <__aeabi_dmul>
 8006d6a:	3601      	adds	r6, #1
 8006d6c:	2301      	movs	r3, #1
 8006d6e:	1064      	asrs	r4, r4, #1
 8006d70:	3508      	adds	r5, #8
 8006d72:	e73f      	b.n	8006bf4 <_dtoa_r+0x394>
 8006d74:	2602      	movs	r6, #2
 8006d76:	e742      	b.n	8006bfe <_dtoa_r+0x39e>
 8006d78:	9c07      	ldr	r4, [sp, #28]
 8006d7a:	9704      	str	r7, [sp, #16]
 8006d7c:	e761      	b.n	8006c42 <_dtoa_r+0x3e2>
 8006d7e:	4b27      	ldr	r3, [pc, #156]	@ (8006e1c <_dtoa_r+0x5bc>)
 8006d80:	990b      	ldr	r1, [sp, #44]	@ 0x2c
 8006d82:	eb03 03c4 	add.w	r3, r3, r4, lsl #3
 8006d86:	e953 2302 	ldrd	r2, r3, [r3, #-8]
 8006d8a:	4454      	add	r4, sl
 8006d8c:	2900      	cmp	r1, #0
 8006d8e:	d053      	beq.n	8006e38 <_dtoa_r+0x5d8>
 8006d90:	4928      	ldr	r1, [pc, #160]	@ (8006e34 <_dtoa_r+0x5d4>)
 8006d92:	2000      	movs	r0, #0
 8006d94:	f7f9 fd7a 	bl	800088c <__aeabi_ddiv>
 8006d98:	4633      	mov	r3, r6
 8006d9a:	462a      	mov	r2, r5
 8006d9c:	f7f9 fa94 	bl	80002c8 <__aeabi_dsub>
 8006da0:	e9cd 0110 	strd	r0, r1, [sp, #64]	@ 0x40
 8006da4:	4656      	mov	r6, sl
 8006da6:	e9dd 0102 	ldrd	r0, r1, [sp, #8]
 8006daa:	f7f9 fef5 	bl	8000b98 <__aeabi_d2iz>
 8006dae:	4605      	mov	r5, r0
 8006db0:	f7f9 fbd8 	bl	8000564 <__aeabi_i2d>
 8006db4:	4602      	mov	r2, r0
 8006db6:	460b      	mov	r3, r1
 8006db8:	e9dd 0102 	ldrd	r0, r1, [sp, #8]
 8006dbc:	f7f9 fa84 	bl	80002c8 <__aeabi_dsub>
 8006dc0:	3530      	adds	r5, #48	@ 0x30
 8006dc2:	4602      	mov	r2, r0
 8006dc4:	460b      	mov	r3, r1
 8006dc6:	e9cd 2302 	strd	r2, r3, [sp, #8]
 8006dca:	f806 5b01 	strb.w	r5, [r6], #1
 8006dce:	e9dd 2310 	ldrd	r2, r3, [sp, #64]	@ 0x40
 8006dd2:	f7f9 fea3 	bl	8000b1c <__aeabi_dcmplt>
 8006dd6:	2800      	cmp	r0, #0
 8006dd8:	d171      	bne.n	8006ebe <_dtoa_r+0x65e>
 8006dda:	e9dd 2302 	ldrd	r2, r3, [sp, #8]
 8006dde:	4911      	ldr	r1, [pc, #68]	@ (8006e24 <_dtoa_r+0x5c4>)
 8006de0:	2000      	movs	r0, #0
 8006de2:	f7f9 fa71 	bl	80002c8 <__aeabi_dsub>
 8006de6:	e9dd 2310 	ldrd	r2, r3, [sp, #64]	@ 0x40
 8006dea:	f7f9 fe97 	bl	8000b1c <__aeabi_dcmplt>
 8006dee:	2800      	cmp	r0, #0
 8006df0:	f040 8095 	bne.w	8006f1e <_dtoa_r+0x6be>
 8006df4:	42a6      	cmp	r6, r4
 8006df6:	f43f af50 	beq.w	8006c9a <_dtoa_r+0x43a>
 8006dfa:	e9dd 0110 	ldrd	r0, r1, [sp, #64]	@ 0x40
 8006dfe:	4b0a      	ldr	r3, [pc, #40]	@ (8006e28 <_dtoa_r+0x5c8>)
 8006e00:	2200      	movs	r2, #0
 8006e02:	f7f9 fc19 	bl	8000638 <__aeabi_dmul>
 8006e06:	4b08      	ldr	r3, [pc, #32]	@ (8006e28 <_dtoa_r+0x5c8>)
 8006e08:	e9cd 0110 	strd	r0, r1, [sp, #64]	@ 0x40
 8006e0c:	2200      	movs	r2, #0
 8006e0e:	e9dd 0102 	ldrd	r0, r1, [sp, #8]
 8006e12:	f7f9 fc11 	bl	8000638 <__aeabi_dmul>
 8006e16:	e9cd 0102 	strd	r0, r1, [sp, #8]
 8006e1a:	e7c4      	b.n	8006da6 <_dtoa_r+0x546>
 8006e1c:	08008a48 	.word	0x08008a48
 8006e20:	08008a20 	.word	0x08008a20
 8006e24:	3ff00000 	.word	0x3ff00000
 8006e28:	40240000 	.word	0x40240000
 8006e2c:	401c0000 	.word	0x401c0000
 8006e30:	40140000 	.word	0x40140000
 8006e34:	3fe00000 	.word	0x3fe00000
 8006e38:	4631      	mov	r1, r6
 8006e3a:	4628      	mov	r0, r5
 8006e3c:	f7f9 fbfc 	bl	8000638 <__aeabi_dmul>
 8006e40:	e9cd 0110 	strd	r0, r1, [sp, #64]	@ 0x40
 8006e44:	9415      	str	r4, [sp, #84]	@ 0x54
 8006e46:	4656      	mov	r6, sl
 8006e48:	e9dd 0102 	ldrd	r0, r1, [sp, #8]
 8006e4c:	f7f9 fea4 	bl	8000b98 <__aeabi_d2iz>
 8006e50:	4605      	mov	r5, r0
 8006e52:	f7f9 fb87 	bl	8000564 <__aeabi_i2d>
 8006e56:	4602      	mov	r2, r0
 8006e58:	460b      	mov	r3, r1
 8006e5a:	e9dd 0102 	ldrd	r0, r1, [sp, #8]
 8006e5e:	f7f9 fa33 	bl	80002c8 <__aeabi_dsub>
 8006e62:	3530      	adds	r5, #48	@ 0x30
 8006e64:	f806 5b01 	strb.w	r5, [r6], #1
 8006e68:	4602      	mov	r2, r0
 8006e6a:	460b      	mov	r3, r1
 8006e6c:	42a6      	cmp	r6, r4
 8006e6e:	e9cd 2302 	strd	r2, r3, [sp, #8]
 8006e72:	f04f 0200 	mov.w	r2, #0
 8006e76:	d124      	bne.n	8006ec2 <_dtoa_r+0x662>
 8006e78:	4bac      	ldr	r3, [pc, #688]	@ (800712c <_dtoa_r+0x8cc>)
 8006e7a:	e9dd 0110 	ldrd	r0, r1, [sp, #64]	@ 0x40
 8006e7e:	f7f9 fa25 	bl	80002cc <__adddf3>
 8006e82:	4602      	mov	r2, r0
 8006e84:	460b      	mov	r3, r1
 8006e86:	e9dd 0102 	ldrd	r0, r1, [sp, #8]
 8006e8a:	f7f9 fe65 	bl	8000b58 <__aeabi_dcmpgt>
 8006e8e:	2800      	cmp	r0, #0
 8006e90:	d145      	bne.n	8006f1e <_dtoa_r+0x6be>
 8006e92:	e9dd 2310 	ldrd	r2, r3, [sp, #64]	@ 0x40
 8006e96:	49a5      	ldr	r1, [pc, #660]	@ (800712c <_dtoa_r+0x8cc>)
 8006e98:	2000      	movs	r0, #0
 8006e9a:	f7f9 fa15 	bl	80002c8 <__aeabi_dsub>
 8006e9e:	4602      	mov	r2, r0
 8006ea0:	460b      	mov	r3, r1
 8006ea2:	e9dd 0102 	ldrd	r0, r1, [sp, #8]
 8006ea6:	f7f9 fe39 	bl	8000b1c <__aeabi_dcmplt>
 8006eaa:	2800      	cmp	r0, #0
 8006eac:	f43f aef5 	beq.w	8006c9a <_dtoa_r+0x43a>
 8006eb0:	9e15      	ldr	r6, [sp, #84]	@ 0x54
 8006eb2:	1e73      	subs	r3, r6, #1
 8006eb4:	9315      	str	r3, [sp, #84]	@ 0x54
 8006eb6:	f816 3c01 	ldrb.w	r3, [r6, #-1]
 8006eba:	2b30      	cmp	r3, #48	@ 0x30
 8006ebc:	d0f8      	beq.n	8006eb0 <_dtoa_r+0x650>
 8006ebe:	9f04      	ldr	r7, [sp, #16]
 8006ec0:	e73e      	b.n	8006d40 <_dtoa_r+0x4e0>
 8006ec2:	4b9b      	ldr	r3, [pc, #620]	@ (8007130 <_dtoa_r+0x8d0>)
 8006ec4:	f7f9 fbb8 	bl	8000638 <__aeabi_dmul>
 8006ec8:	e9cd 0102 	strd	r0, r1, [sp, #8]
 8006ecc:	e7bc      	b.n	8006e48 <_dtoa_r+0x5e8>
 8006ece:	d10c      	bne.n	8006eea <_dtoa_r+0x68a>
 8006ed0:	4b98      	ldr	r3, [pc, #608]	@ (8007134 <_dtoa_r+0x8d4>)
 8006ed2:	2200      	movs	r2, #0
 8006ed4:	e9dd 0100 	ldrd	r0, r1, [sp]
 8006ed8:	f7f9 fbae 	bl	8000638 <__aeabi_dmul>
 8006edc:	e9dd 2302 	ldrd	r2, r3, [sp, #8]
 8006ee0:	f7f9 fe30 	bl	8000b44 <__aeabi_dcmpge>
 8006ee4:	2800      	cmp	r0, #0
 8006ee6:	f000 8157 	beq.w	8007198 <_dtoa_r+0x938>
 8006eea:	2400      	movs	r4, #0
 8006eec:	4625      	mov	r5, r4
 8006eee:	9b0e      	ldr	r3, [sp, #56]	@ 0x38
 8006ef0:	43db      	mvns	r3, r3
 8006ef2:	9304      	str	r3, [sp, #16]
 8006ef4:	4656      	mov	r6, sl
 8006ef6:	2700      	movs	r7, #0
 8006ef8:	4621      	mov	r1, r4
 8006efa:	4658      	mov	r0, fp
 8006efc:	f000 fd02 	bl	8007904 <_Bfree>
 8006f00:	2d00      	cmp	r5, #0
 8006f02:	d0dc      	beq.n	8006ebe <_dtoa_r+0x65e>
 8006f04:	b12f      	cbz	r7, 8006f12 <_dtoa_r+0x6b2>
 8006f06:	42af      	cmp	r7, r5
 8006f08:	d003      	beq.n	8006f12 <_dtoa_r+0x6b2>
 8006f0a:	4639      	mov	r1, r7
 8006f0c:	4658      	mov	r0, fp
 8006f0e:	f000 fcf9 	bl	8007904 <_Bfree>
 8006f12:	4629      	mov	r1, r5
 8006f14:	4658      	mov	r0, fp
 8006f16:	f000 fcf5 	bl	8007904 <_Bfree>
 8006f1a:	e7d0      	b.n	8006ebe <_dtoa_r+0x65e>
 8006f1c:	9704      	str	r7, [sp, #16]
 8006f1e:	4633      	mov	r3, r6
 8006f20:	461e      	mov	r6, r3
 8006f22:	f813 2d01 	ldrb.w	r2, [r3, #-1]!
 8006f26:	2a39      	cmp	r2, #57	@ 0x39
 8006f28:	d107      	bne.n	8006f3a <_dtoa_r+0x6da>
 8006f2a:	459a      	cmp	sl, r3
 8006f2c:	d1f8      	bne.n	8006f20 <_dtoa_r+0x6c0>
 8006f2e:	9a04      	ldr	r2, [sp, #16]
 8006f30:	3201      	adds	r2, #1
 8006f32:	9204      	str	r2, [sp, #16]
 8006f34:	2230      	movs	r2, #48	@ 0x30
 8006f36:	f88a 2000 	strb.w	r2, [sl]
 8006f3a:	781a      	ldrb	r2, [r3, #0]
 8006f3c:	3201      	adds	r2, #1
 8006f3e:	701a      	strb	r2, [r3, #0]
 8006f40:	e7bd      	b.n	8006ebe <_dtoa_r+0x65e>
 8006f42:	4b7b      	ldr	r3, [pc, #492]	@ (8007130 <_dtoa_r+0x8d0>)
 8006f44:	2200      	movs	r2, #0
 8006f46:	f7f9 fb77 	bl	8000638 <__aeabi_dmul>
 8006f4a:	2200      	movs	r2, #0
 8006f4c:	2300      	movs	r3, #0
 8006f4e:	4604      	mov	r4, r0
 8006f50:	460d      	mov	r5, r1
 8006f52:	f7f9 fdd9 	bl	8000b08 <__aeabi_dcmpeq>
 8006f56:	2800      	cmp	r0, #0
 8006f58:	f43f aebb 	beq.w	8006cd2 <_dtoa_r+0x472>
 8006f5c:	e6f0      	b.n	8006d40 <_dtoa_r+0x4e0>
 8006f5e:	9a0b      	ldr	r2, [sp, #44]	@ 0x2c
 8006f60:	2a00      	cmp	r2, #0
 8006f62:	f000 80db 	beq.w	800711c <_dtoa_r+0x8bc>
 8006f66:	9a09      	ldr	r2, [sp, #36]	@ 0x24
 8006f68:	2a01      	cmp	r2, #1
 8006f6a:	f300 80bf 	bgt.w	80070ec <_dtoa_r+0x88c>
 8006f6e:	9a14      	ldr	r2, [sp, #80]	@ 0x50
 8006f70:	2a00      	cmp	r2, #0
 8006f72:	f000 80b7 	beq.w	80070e4 <_dtoa_r+0x884>
 8006f76:	f203 4333 	addw	r3, r3, #1075	@ 0x433
 8006f7a:	9c0a      	ldr	r4, [sp, #40]	@ 0x28
 8006f7c:	4646      	mov	r6, r8
 8006f7e:	9a08      	ldr	r2, [sp, #32]
 8006f80:	2101      	movs	r1, #1
 8006f82:	441a      	add	r2, r3
 8006f84:	4658      	mov	r0, fp
 8006f86:	4498      	add	r8, r3
 8006f88:	9208      	str	r2, [sp, #32]
 8006f8a:	f000 fd6f 	bl	8007a6c <__i2b>
 8006f8e:	4605      	mov	r5, r0
 8006f90:	b15e      	cbz	r6, 8006faa <_dtoa_r+0x74a>
 8006f92:	9b08      	ldr	r3, [sp, #32]
 8006f94:	2b00      	cmp	r3, #0
 8006f96:	dd08      	ble.n	8006faa <_dtoa_r+0x74a>
 8006f98:	42b3      	cmp	r3, r6
 8006f9a:	9a08      	ldr	r2, [sp, #32]
 8006f9c:	bfa8      	it	ge
 8006f9e:	4633      	movge	r3, r6
 8006fa0:	eba8 0803 	sub.w	r8, r8, r3
 8006fa4:	1af6      	subs	r6, r6, r3
 8006fa6:	1ad3      	subs	r3, r2, r3
 8006fa8:	9308      	str	r3, [sp, #32]
 8006faa:	9b0a      	ldr	r3, [sp, #40]	@ 0x28
 8006fac:	b1f3      	cbz	r3, 8006fec <_dtoa_r+0x78c>
 8006fae:	9b0b      	ldr	r3, [sp, #44]	@ 0x2c
 8006fb0:	2b00      	cmp	r3, #0
 8006fb2:	f000 80b7 	beq.w	8007124 <_dtoa_r+0x8c4>
 8006fb6:	b18c      	cbz	r4, 8006fdc <_dtoa_r+0x77c>
 8006fb8:	4629      	mov	r1, r5
 8006fba:	4622      	mov	r2, r4
 8006fbc:	4658      	mov	r0, fp
 8006fbe:	f000 fe15 	bl	8007bec <__pow5mult>
 8006fc2:	464a      	mov	r2, r9
 8006fc4:	4601      	mov	r1, r0
 8006fc6:	4605      	mov	r5, r0
 8006fc8:	4658      	mov	r0, fp
 8006fca:	f000 fd65 	bl	8007a98 <__multiply>
 8006fce:	4649      	mov	r1, r9
 8006fd0:	9004      	str	r0, [sp, #16]
 8006fd2:	4658      	mov	r0, fp
 8006fd4:	f000 fc96 	bl	8007904 <_Bfree>
 8006fd8:	9b04      	ldr	r3, [sp, #16]
 8006fda:	4699      	mov	r9, r3
 8006fdc:	9b0a      	ldr	r3, [sp, #40]	@ 0x28
 8006fde:	1b1a      	subs	r2, r3, r4
 8006fe0:	d004      	beq.n	8006fec <_dtoa_r+0x78c>
 8006fe2:	4649      	mov	r1, r9
 8006fe4:	4658      	mov	r0, fp
 8006fe6:	f000 fe01 	bl	8007bec <__pow5mult>
 8006fea:	4681      	mov	r9, r0
 8006fec:	2101      	movs	r1, #1
 8006fee:	4658      	mov	r0, fp
 8006ff0:	f000 fd3c 	bl	8007a6c <__i2b>
 8006ff4:	9b0f      	ldr	r3, [sp, #60]	@ 0x3c
 8006ff6:	4604      	mov	r4, r0
 8006ff8:	2b00      	cmp	r3, #0
 8006ffa:	f000 81cf 	beq.w	800739c <_dtoa_r+0xb3c>
 8006ffe:	461a      	mov	r2, r3
 8007000:	4601      	mov	r1, r0
 8007002:	4658      	mov	r0, fp
 8007004:	f000 fdf2 	bl	8007bec <__pow5mult>
 8007008:	9b09      	ldr	r3, [sp, #36]	@ 0x24
 800700a:	2b01      	cmp	r3, #1
 800700c:	4604      	mov	r4, r0
 800700e:	f300 8095 	bgt.w	800713c <_dtoa_r+0x8dc>
 8007012:	9b02      	ldr	r3, [sp, #8]
 8007014:	2b00      	cmp	r3, #0
 8007016:	f040 8087 	bne.w	8007128 <_dtoa_r+0x8c8>
 800701a:	9b03      	ldr	r3, [sp, #12]
 800701c:	f3c3 0313 	ubfx	r3, r3, #0, #20
 8007020:	2b00      	cmp	r3, #0
 8007022:	f040 8089 	bne.w	8007138 <_dtoa_r+0x8d8>
 8007026:	9b03      	ldr	r3, [sp, #12]
 8007028:	f023 4300 	bic.w	r3, r3, #2147483648	@ 0x80000000
 800702c:	0d1b      	lsrs	r3, r3, #20
 800702e:	051b      	lsls	r3, r3, #20
 8007030:	b12b      	cbz	r3, 800703e <_dtoa_r+0x7de>
 8007032:	9b08      	ldr	r3, [sp, #32]
 8007034:	3301      	adds	r3, #1
 8007036:	9308      	str	r3, [sp, #32]
 8007038:	f108 0801 	add.w	r8, r8, #1
 800703c:	2301      	movs	r3, #1
 800703e:	930a      	str	r3, [sp, #40]	@ 0x28
 8007040:	9b0f      	ldr	r3, [sp, #60]	@ 0x3c
 8007042:	2b00      	cmp	r3, #0
 8007044:	f000 81b0 	beq.w	80073a8 <_dtoa_r+0xb48>
 8007048:	6923      	ldr	r3, [r4, #16]
 800704a:	eb04 0383 	add.w	r3, r4, r3, lsl #2
 800704e:	6918      	ldr	r0, [r3, #16]
 8007050:	f000 fcc0 	bl	80079d4 <__hi0bits>
 8007054:	f1c0 0020 	rsb	r0, r0, #32
 8007058:	9b08      	ldr	r3, [sp, #32]
 800705a:	4418      	add	r0, r3
 800705c:	f010 001f 	ands.w	r0, r0, #31
 8007060:	d077      	beq.n	8007152 <_dtoa_r+0x8f2>
 8007062:	f1c0 0320 	rsb	r3, r0, #32
 8007066:	2b04      	cmp	r3, #4
 8007068:	dd6b      	ble.n	8007142 <_dtoa_r+0x8e2>
 800706a:	9b08      	ldr	r3, [sp, #32]
 800706c:	f1c0 001c 	rsb	r0, r0, #28
 8007070:	4403      	add	r3, r0
 8007072:	4480      	add	r8, r0
 8007074:	4406      	add	r6, r0
 8007076:	9308      	str	r3, [sp, #32]
 8007078:	f1b8 0f00 	cmp.w	r8, #0
 800707c:	dd05      	ble.n	800708a <_dtoa_r+0x82a>
 800707e:	4649      	mov	r1, r9
 8007080:	4642      	mov	r2, r8
 8007082:	4658      	mov	r0, fp
 8007084:	f000 fe0c 	bl	8007ca0 <__lshift>
 8007088:	4681      	mov	r9, r0
 800708a:	9b08      	ldr	r3, [sp, #32]
 800708c:	2b00      	cmp	r3, #0
 800708e:	dd05      	ble.n	800709c <_dtoa_r+0x83c>
 8007090:	4621      	mov	r1, r4
 8007092:	461a      	mov	r2, r3
 8007094:	4658      	mov	r0, fp
 8007096:	f000 fe03 	bl	8007ca0 <__lshift>
 800709a:	4604      	mov	r4, r0
 800709c:	9b12      	ldr	r3, [sp, #72]	@ 0x48
 800709e:	2b00      	cmp	r3, #0
 80070a0:	d059      	beq.n	8007156 <_dtoa_r+0x8f6>
 80070a2:	4621      	mov	r1, r4
 80070a4:	4648      	mov	r0, r9
 80070a6:	f000 fe67 	bl	8007d78 <__mcmp>
 80070aa:	2800      	cmp	r0, #0
 80070ac:	da53      	bge.n	8007156 <_dtoa_r+0x8f6>
 80070ae:	1e7b      	subs	r3, r7, #1
 80070b0:	9304      	str	r3, [sp, #16]
 80070b2:	4649      	mov	r1, r9
 80070b4:	2300      	movs	r3, #0
 80070b6:	220a      	movs	r2, #10
 80070b8:	4658      	mov	r0, fp
 80070ba:	f000 fc45 	bl	8007948 <__multadd>
 80070be:	9b0b      	ldr	r3, [sp, #44]	@ 0x2c
 80070c0:	4681      	mov	r9, r0
 80070c2:	2b00      	cmp	r3, #0
 80070c4:	f000 8172 	beq.w	80073ac <_dtoa_r+0xb4c>
 80070c8:	2300      	movs	r3, #0
 80070ca:	4629      	mov	r1, r5
 80070cc:	220a      	movs	r2, #10
 80070ce:	4658      	mov	r0, fp
 80070d0:	f000 fc3a 	bl	8007948 <__multadd>
 80070d4:	9b00      	ldr	r3, [sp, #0]
 80070d6:	2b00      	cmp	r3, #0
 80070d8:	4605      	mov	r5, r0
 80070da:	dc67      	bgt.n	80071ac <_dtoa_r+0x94c>
 80070dc:	9b09      	ldr	r3, [sp, #36]	@ 0x24
 80070de:	2b02      	cmp	r3, #2
 80070e0:	dc41      	bgt.n	8007166 <_dtoa_r+0x906>
 80070e2:	e063      	b.n	80071ac <_dtoa_r+0x94c>
 80070e4:	9b16      	ldr	r3, [sp, #88]	@ 0x58
 80070e6:	f1c3 0336 	rsb	r3, r3, #54	@ 0x36
 80070ea:	e746      	b.n	8006f7a <_dtoa_r+0x71a>
 80070ec:	9b07      	ldr	r3, [sp, #28]
 80070ee:	1e5c      	subs	r4, r3, #1
 80070f0:	9b0a      	ldr	r3, [sp, #40]	@ 0x28
 80070f2:	42a3      	cmp	r3, r4
 80070f4:	bfbf      	itttt	lt
 80070f6:	9b0a      	ldrlt	r3, [sp, #40]	@ 0x28
 80070f8:	9a0f      	ldrlt	r2, [sp, #60]	@ 0x3c
 80070fa:	940a      	strlt	r4, [sp, #40]	@ 0x28
 80070fc:	1ae3      	sublt	r3, r4, r3
 80070fe:	bfb4      	ite	lt
 8007100:	18d2      	addlt	r2, r2, r3
 8007102:	1b1c      	subge	r4, r3, r4
 8007104:	9b07      	ldr	r3, [sp, #28]
 8007106:	bfbc      	itt	lt
 8007108:	920f      	strlt	r2, [sp, #60]	@ 0x3c
 800710a:	2400      	movlt	r4, #0
 800710c:	2b00      	cmp	r3, #0
 800710e:	bfb5      	itete	lt
 8007110:	eba8 0603 	sublt.w	r6, r8, r3
 8007114:	9b07      	ldrge	r3, [sp, #28]
 8007116:	2300      	movlt	r3, #0
 8007118:	4646      	movge	r6, r8
 800711a:	e730      	b.n	8006f7e <_dtoa_r+0x71e>
 800711c:	9c0a      	ldr	r4, [sp, #40]	@ 0x28
 800711e:	9d0b      	ldr	r5, [sp, #44]	@ 0x2c
 8007120:	4646      	mov	r6, r8
 8007122:	e735      	b.n	8006f90 <_dtoa_r+0x730>
 8007124:	9a0a      	ldr	r2, [sp, #40]	@ 0x28
 8007126:	e75c      	b.n	8006fe2 <_dtoa_r+0x782>
 8007128:	2300      	movs	r3, #0
 800712a:	e788      	b.n	800703e <_dtoa_r+0x7de>
 800712c:	3fe00000 	.word	0x3fe00000
 8007130:	40240000 	.word	0x40240000
 8007134:	40140000 	.word	0x40140000
 8007138:	9b02      	ldr	r3, [sp, #8]
 800713a:	e780      	b.n	800703e <_dtoa_r+0x7de>
 800713c:	2300      	movs	r3, #0
 800713e:	930a      	str	r3, [sp, #40]	@ 0x28
 8007140:	e782      	b.n	8007048 <_dtoa_r+0x7e8>
 8007142:	d099      	beq.n	8007078 <_dtoa_r+0x818>
 8007144:	9a08      	ldr	r2, [sp, #32]
 8007146:	331c      	adds	r3, #28
 8007148:	441a      	add	r2, r3
 800714a:	4498      	add	r8, r3
 800714c:	441e      	add	r6, r3
 800714e:	9208      	str	r2, [sp, #32]
 8007150:	e792      	b.n	8007078 <_dtoa_r+0x818>
 8007152:	4603      	mov	r3, r0
 8007154:	e7f6      	b.n	8007144 <_dtoa_r+0x8e4>
 8007156:	9b07      	ldr	r3, [sp, #28]
 8007158:	9704      	str	r7, [sp, #16]
 800715a:	2b00      	cmp	r3, #0
 800715c:	dc20      	bgt.n	80071a0 <_dtoa_r+0x940>
 800715e:	9300      	str	r3, [sp, #0]
 8007160:	9b09      	ldr	r3, [sp, #36]	@ 0x24
 8007162:	2b02      	cmp	r3, #2
 8007164:	dd1e      	ble.n	80071a4 <_dtoa_r+0x944>
 8007166:	9b00      	ldr	r3, [sp, #0]
 8007168:	2b00      	cmp	r3, #0
 800716a:	f47f aec0 	bne.w	8006eee <_dtoa_r+0x68e>
 800716e:	4621      	mov	r1, r4
 8007170:	2205      	movs	r2, #5
 8007172:	4658      	mov	r0, fp
 8007174:	f000 fbe8 	bl	8007948 <__multadd>
 8007178:	4601      	mov	r1, r0
 800717a:	4604      	mov	r4, r0
 800717c:	4648      	mov	r0, r9
 800717e:	f000 fdfb 	bl	8007d78 <__mcmp>
 8007182:	2800      	cmp	r0, #0
 8007184:	f77f aeb3 	ble.w	8006eee <_dtoa_r+0x68e>
 8007188:	4656      	mov	r6, sl
 800718a:	2331      	movs	r3, #49	@ 0x31
 800718c:	f806 3b01 	strb.w	r3, [r6], #1
 8007190:	9b04      	ldr	r3, [sp, #16]
 8007192:	3301      	adds	r3, #1
 8007194:	9304      	str	r3, [sp, #16]
 8007196:	e6ae      	b.n	8006ef6 <_dtoa_r+0x696>
 8007198:	9c07      	ldr	r4, [sp, #28]
 800719a:	9704      	str	r7, [sp, #16]
 800719c:	4625      	mov	r5, r4
 800719e:	e7f3      	b.n	8007188 <_dtoa_r+0x928>
 80071a0:	9b07      	ldr	r3, [sp, #28]
 80071a2:	9300      	str	r3, [sp, #0]
 80071a4:	9b0b      	ldr	r3, [sp, #44]	@ 0x2c
 80071a6:	2b00      	cmp	r3, #0
 80071a8:	f000 8104 	beq.w	80073b4 <_dtoa_r+0xb54>
 80071ac:	2e00      	cmp	r6, #0
 80071ae:	dd05      	ble.n	80071bc <_dtoa_r+0x95c>
 80071b0:	4629      	mov	r1, r5
 80071b2:	4632      	mov	r2, r6
 80071b4:	4658      	mov	r0, fp
 80071b6:	f000 fd73 	bl	8007ca0 <__lshift>
 80071ba:	4605      	mov	r5, r0
 80071bc:	9b0a      	ldr	r3, [sp, #40]	@ 0x28
 80071be:	2b00      	cmp	r3, #0
 80071c0:	d05a      	beq.n	8007278 <_dtoa_r+0xa18>
 80071c2:	6869      	ldr	r1, [r5, #4]
 80071c4:	4658      	mov	r0, fp
 80071c6:	f000 fb5d 	bl	8007884 <_Balloc>
 80071ca:	4606      	mov	r6, r0
 80071cc:	b928      	cbnz	r0, 80071da <_dtoa_r+0x97a>
 80071ce:	4b84      	ldr	r3, [pc, #528]	@ (80073e0 <_dtoa_r+0xb80>)
 80071d0:	4602      	mov	r2, r0
 80071d2:	f240 21ef 	movw	r1, #751	@ 0x2ef
 80071d6:	f7ff bb5a 	b.w	800688e <_dtoa_r+0x2e>
 80071da:	692a      	ldr	r2, [r5, #16]
 80071dc:	3202      	adds	r2, #2
 80071de:	0092      	lsls	r2, r2, #2
 80071e0:	f105 010c 	add.w	r1, r5, #12
 80071e4:	300c      	adds	r0, #12
 80071e6:	f000 ffa1 	bl	800812c <memcpy>
 80071ea:	2201      	movs	r2, #1
 80071ec:	4631      	mov	r1, r6
 80071ee:	4658      	mov	r0, fp
 80071f0:	f000 fd56 	bl	8007ca0 <__lshift>
 80071f4:	f10a 0301 	add.w	r3, sl, #1
 80071f8:	9307      	str	r3, [sp, #28]
 80071fa:	9b00      	ldr	r3, [sp, #0]
 80071fc:	4453      	add	r3, sl
 80071fe:	930b      	str	r3, [sp, #44]	@ 0x2c
 8007200:	9b02      	ldr	r3, [sp, #8]
 8007202:	f003 0301 	and.w	r3, r3, #1
 8007206:	462f      	mov	r7, r5
 8007208:	930a      	str	r3, [sp, #40]	@ 0x28
 800720a:	4605      	mov	r5, r0
 800720c:	9b07      	ldr	r3, [sp, #28]
 800720e:	4621      	mov	r1, r4
 8007210:	3b01      	subs	r3, #1
 8007212:	4648      	mov	r0, r9
 8007214:	9300      	str	r3, [sp, #0]
 8007216:	f7ff fa9a 	bl	800674e <quorem>
 800721a:	4639      	mov	r1, r7
 800721c:	9002      	str	r0, [sp, #8]
 800721e:	f100 0830 	add.w	r8, r0, #48	@ 0x30
 8007222:	4648      	mov	r0, r9
 8007224:	f000 fda8 	bl	8007d78 <__mcmp>
 8007228:	462a      	mov	r2, r5
 800722a:	9008      	str	r0, [sp, #32]
 800722c:	4621      	mov	r1, r4
 800722e:	4658      	mov	r0, fp
 8007230:	f000 fdbe 	bl	8007db0 <__mdiff>
 8007234:	68c2      	ldr	r2, [r0, #12]
 8007236:	4606      	mov	r6, r0
 8007238:	bb02      	cbnz	r2, 800727c <_dtoa_r+0xa1c>
 800723a:	4601      	mov	r1, r0
 800723c:	4648      	mov	r0, r9
 800723e:	f000 fd9b 	bl	8007d78 <__mcmp>
 8007242:	4602      	mov	r2, r0
 8007244:	4631      	mov	r1, r6
 8007246:	4658      	mov	r0, fp
 8007248:	920e      	str	r2, [sp, #56]	@ 0x38
 800724a:	f000 fb5b 	bl	8007904 <_Bfree>
 800724e:	9b09      	ldr	r3, [sp, #36]	@ 0x24
 8007250:	9a0e      	ldr	r2, [sp, #56]	@ 0x38
 8007252:	9e07      	ldr	r6, [sp, #28]
 8007254:	ea43 0102 	orr.w	r1, r3, r2
 8007258:	9b0a      	ldr	r3, [sp, #40]	@ 0x28
 800725a:	4319      	orrs	r1, r3
 800725c:	d110      	bne.n	8007280 <_dtoa_r+0xa20>
 800725e:	f1b8 0f39 	cmp.w	r8, #57	@ 0x39
 8007262:	d029      	beq.n	80072b8 <_dtoa_r+0xa58>
 8007264:	9b08      	ldr	r3, [sp, #32]
 8007266:	2b00      	cmp	r3, #0
 8007268:	dd02      	ble.n	8007270 <_dtoa_r+0xa10>
 800726a:	9b02      	ldr	r3, [sp, #8]
 800726c:	f103 0831 	add.w	r8, r3, #49	@ 0x31
 8007270:	9b00      	ldr	r3, [sp, #0]
 8007272:	f883 8000 	strb.w	r8, [r3]
 8007276:	e63f      	b.n	8006ef8 <_dtoa_r+0x698>
 8007278:	4628      	mov	r0, r5
 800727a:	e7bb      	b.n	80071f4 <_dtoa_r+0x994>
 800727c:	2201      	movs	r2, #1
 800727e:	e7e1      	b.n	8007244 <_dtoa_r+0x9e4>
 8007280:	9b08      	ldr	r3, [sp, #32]
 8007282:	2b00      	cmp	r3, #0
 8007284:	db04      	blt.n	8007290 <_dtoa_r+0xa30>
 8007286:	9909      	ldr	r1, [sp, #36]	@ 0x24
 8007288:	430b      	orrs	r3, r1
 800728a:	990a      	ldr	r1, [sp, #40]	@ 0x28
 800728c:	430b      	orrs	r3, r1
 800728e:	d120      	bne.n	80072d2 <_dtoa_r+0xa72>
 8007290:	2a00      	cmp	r2, #0
 8007292:	dded      	ble.n	8007270 <_dtoa_r+0xa10>
 8007294:	4649      	mov	r1, r9
 8007296:	2201      	movs	r2, #1
 8007298:	4658      	mov	r0, fp
 800729a:	f000 fd01 	bl	8007ca0 <__lshift>
 800729e:	4621      	mov	r1, r4
 80072a0:	4681      	mov	r9, r0
 80072a2:	f000 fd69 	bl	8007d78 <__mcmp>
 80072a6:	2800      	cmp	r0, #0
 80072a8:	dc03      	bgt.n	80072b2 <_dtoa_r+0xa52>
 80072aa:	d1e1      	bne.n	8007270 <_dtoa_r+0xa10>
 80072ac:	f018 0f01 	tst.w	r8, #1
 80072b0:	d0de      	beq.n	8007270 <_dtoa_r+0xa10>
 80072b2:	f1b8 0f39 	cmp.w	r8, #57	@ 0x39
 80072b6:	d1d8      	bne.n	800726a <_dtoa_r+0xa0a>
 80072b8:	9a00      	ldr	r2, [sp, #0]
 80072ba:	2339      	movs	r3, #57	@ 0x39
 80072bc:	7013      	strb	r3, [r2, #0]
 80072be:	4633      	mov	r3, r6
 80072c0:	461e      	mov	r6, r3
 80072c2:	3b01      	subs	r3, #1
 80072c4:	f816 2c01 	ldrb.w	r2, [r6, #-1]
 80072c8:	2a39      	cmp	r2, #57	@ 0x39
 80072ca:	d052      	beq.n	8007372 <_dtoa_r+0xb12>
 80072cc:	3201      	adds	r2, #1
 80072ce:	701a      	strb	r2, [r3, #0]
 80072d0:	e612      	b.n	8006ef8 <_dtoa_r+0x698>
 80072d2:	2a00      	cmp	r2, #0
 80072d4:	dd07      	ble.n	80072e6 <_dtoa_r+0xa86>
 80072d6:	f1b8 0f39 	cmp.w	r8, #57	@ 0x39
 80072da:	d0ed      	beq.n	80072b8 <_dtoa_r+0xa58>
 80072dc:	9a00      	ldr	r2, [sp, #0]
 80072de:	f108 0301 	add.w	r3, r8, #1
 80072e2:	7013      	strb	r3, [r2, #0]
 80072e4:	e608      	b.n	8006ef8 <_dtoa_r+0x698>
 80072e6:	9b07      	ldr	r3, [sp, #28]
 80072e8:	9a07      	ldr	r2, [sp, #28]
 80072ea:	f803 8c01 	strb.w	r8, [r3, #-1]
 80072ee:	9b0b      	ldr	r3, [sp, #44]	@ 0x2c
 80072f0:	4293      	cmp	r3, r2
 80072f2:	d028      	beq.n	8007346 <_dtoa_r+0xae6>
 80072f4:	4649      	mov	r1, r9
 80072f6:	2300      	movs	r3, #0
 80072f8:	220a      	movs	r2, #10
 80072fa:	4658      	mov	r0, fp
 80072fc:	f000 fb24 	bl	8007948 <__multadd>
 8007300:	42af      	cmp	r7, r5
 8007302:	4681      	mov	r9, r0
 8007304:	f04f 0300 	mov.w	r3, #0
 8007308:	f04f 020a 	mov.w	r2, #10
 800730c:	4639      	mov	r1, r7
 800730e:	4658      	mov	r0, fp
 8007310:	d107      	bne.n	8007322 <_dtoa_r+0xac2>
 8007312:	f000 fb19 	bl	8007948 <__multadd>
 8007316:	4607      	mov	r7, r0
 8007318:	4605      	mov	r5, r0
 800731a:	9b07      	ldr	r3, [sp, #28]
 800731c:	3301      	adds	r3, #1
 800731e:	9307      	str	r3, [sp, #28]
 8007320:	e774      	b.n	800720c <_dtoa_r+0x9ac>
 8007322:	f000 fb11 	bl	8007948 <__multadd>
 8007326:	4629      	mov	r1, r5
 8007328:	4607      	mov	r7, r0
 800732a:	2300      	movs	r3, #0
 800732c:	220a      	movs	r2, #10
 800732e:	4658      	mov	r0, fp
 8007330:	f000 fb0a 	bl	8007948 <__multadd>
 8007334:	4605      	mov	r5, r0
 8007336:	e7f0      	b.n	800731a <_dtoa_r+0xaba>
 8007338:	9b00      	ldr	r3, [sp, #0]
 800733a:	2b00      	cmp	r3, #0
 800733c:	bfcc      	ite	gt
 800733e:	461e      	movgt	r6, r3
 8007340:	2601      	movle	r6, #1
 8007342:	4456      	add	r6, sl
 8007344:	2700      	movs	r7, #0
 8007346:	4649      	mov	r1, r9
 8007348:	2201      	movs	r2, #1
 800734a:	4658      	mov	r0, fp
 800734c:	f000 fca8 	bl	8007ca0 <__lshift>
 8007350:	4621      	mov	r1, r4
 8007352:	4681      	mov	r9, r0
 8007354:	f000 fd10 	bl	8007d78 <__mcmp>
 8007358:	2800      	cmp	r0, #0
 800735a:	dcb0      	bgt.n	80072be <_dtoa_r+0xa5e>
 800735c:	d102      	bne.n	8007364 <_dtoa_r+0xb04>
 800735e:	f018 0f01 	tst.w	r8, #1
 8007362:	d1ac      	bne.n	80072be <_dtoa_r+0xa5e>
 8007364:	4633      	mov	r3, r6
 8007366:	461e      	mov	r6, r3
 8007368:	f813 2d01 	ldrb.w	r2, [r3, #-1]!
 800736c:	2a30      	cmp	r2, #48	@ 0x30
 800736e:	d0fa      	beq.n	8007366 <_dtoa_r+0xb06>
 8007370:	e5c2      	b.n	8006ef8 <_dtoa_r+0x698>
 8007372:	459a      	cmp	sl, r3
 8007374:	d1a4      	bne.n	80072c0 <_dtoa_r+0xa60>
 8007376:	9b04      	ldr	r3, [sp, #16]
 8007378:	3301      	adds	r3, #1
 800737a:	9304      	str	r3, [sp, #16]
 800737c:	2331      	movs	r3, #49	@ 0x31
 800737e:	f88a 3000 	strb.w	r3, [sl]
 8007382:	e5b9      	b.n	8006ef8 <_dtoa_r+0x698>
 8007384:	9b23      	ldr	r3, [sp, #140]	@ 0x8c
 8007386:	f8df a05c 	ldr.w	sl, [pc, #92]	@ 80073e4 <_dtoa_r+0xb84>
 800738a:	b11b      	cbz	r3, 8007394 <_dtoa_r+0xb34>
 800738c:	f10a 0308 	add.w	r3, sl, #8
 8007390:	9a23      	ldr	r2, [sp, #140]	@ 0x8c
 8007392:	6013      	str	r3, [r2, #0]
 8007394:	4650      	mov	r0, sl
 8007396:	b019      	add	sp, #100	@ 0x64
 8007398:	e8bd 8ff0 	ldmia.w	sp!, {r4, r5, r6, r7, r8, r9, sl, fp, pc}
 800739c:	9b09      	ldr	r3, [sp, #36]	@ 0x24
 800739e:	2b01      	cmp	r3, #1
 80073a0:	f77f ae37 	ble.w	8007012 <_dtoa_r+0x7b2>
 80073a4:	9b0f      	ldr	r3, [sp, #60]	@ 0x3c
 80073a6:	930a      	str	r3, [sp, #40]	@ 0x28
 80073a8:	2001      	movs	r0, #1
 80073aa:	e655      	b.n	8007058 <_dtoa_r+0x7f8>
 80073ac:	9b00      	ldr	r3, [sp, #0]
 80073ae:	2b00      	cmp	r3, #0
 80073b0:	f77f aed6 	ble.w	8007160 <_dtoa_r+0x900>
 80073b4:	4656      	mov	r6, sl
 80073b6:	4621      	mov	r1, r4
 80073b8:	4648      	mov	r0, r9
 80073ba:	f7ff f9c8 	bl	800674e <quorem>
 80073be:	f100 0830 	add.w	r8, r0, #48	@ 0x30
 80073c2:	f806 8b01 	strb.w	r8, [r6], #1
 80073c6:	9b00      	ldr	r3, [sp, #0]
 80073c8:	eba6 020a 	sub.w	r2, r6, sl
 80073cc:	4293      	cmp	r3, r2
 80073ce:	ddb3      	ble.n	8007338 <_dtoa_r+0xad8>
 80073d0:	4649      	mov	r1, r9
 80073d2:	2300      	movs	r3, #0
 80073d4:	220a      	movs	r2, #10
 80073d6:	4658      	mov	r0, fp
 80073d8:	f000 fab6 	bl	8007948 <__multadd>
 80073dc:	4681      	mov	r9, r0
 80073de:	e7ea      	b.n	80073b6 <_dtoa_r+0xb56>
 80073e0:	08008998 	.word	0x08008998
 80073e4:	0800891c 	.word	0x0800891c

080073e8 <_free_r>:
 80073e8:	b538      	push	{r3, r4, r5, lr}
 80073ea:	4605      	mov	r5, r0
 80073ec:	2900      	cmp	r1, #0
 80073ee:	d041      	beq.n	8007474 <_free_r+0x8c>
 80073f0:	f851 3c04 	ldr.w	r3, [r1, #-4]
 80073f4:	1f0c      	subs	r4, r1, #4
 80073f6:	2b00      	cmp	r3, #0
 80073f8:	bfb8      	it	lt
 80073fa:	18e4      	addlt	r4, r4, r3
 80073fc:	f7ff f870 	bl	80064e0 <__malloc_lock>
 8007400:	4a1d      	ldr	r2, [pc, #116]	@ (8007478 <_free_r+0x90>)
 8007402:	6813      	ldr	r3, [r2, #0]
 8007404:	b933      	cbnz	r3, 8007414 <_free_r+0x2c>
 8007406:	6063      	str	r3, [r4, #4]
 8007408:	6014      	str	r4, [r2, #0]
 800740a:	4628      	mov	r0, r5
 800740c:	e8bd 4038 	ldmia.w	sp!, {r3, r4, r5, lr}
 8007410:	f7ff b86c 	b.w	80064ec <__malloc_unlock>
 8007414:	42a3      	cmp	r3, r4
 8007416:	d908      	bls.n	800742a <_free_r+0x42>
 8007418:	6820      	ldr	r0, [r4, #0]
 800741a:	1821      	adds	r1, r4, r0
 800741c:	428b      	cmp	r3, r1
 800741e:	bf01      	itttt	eq
 8007420:	6819      	ldreq	r1, [r3, #0]
 8007422:	685b      	ldreq	r3, [r3, #4]
 8007424:	1809      	addeq	r1, r1, r0
 8007426:	6021      	streq	r1, [r4, #0]
 8007428:	e7ed      	b.n	8007406 <_free_r+0x1e>
 800742a:	461a      	mov	r2, r3
 800742c:	685b      	ldr	r3, [r3, #4]
 800742e:	b10b      	cbz	r3, 8007434 <_free_r+0x4c>
 8007430:	42a3      	cmp	r3, r4
 8007432:	d9fa      	bls.n	800742a <_free_r+0x42>
 8007434:	6811      	ldr	r1, [r2, #0]
 8007436:	1850      	adds	r0, r2, r1
 8007438:	42a0      	cmp	r0, r4
 800743a:	d10b      	bne.n	8007454 <_free_r+0x6c>
 800743c:	6820      	ldr	r0, [r4, #0]
 800743e:	4401      	add	r1, r0
 8007440:	1850      	adds	r0, r2, r1
 8007442:	4283      	cmp	r3, r0
 8007444:	6011      	str	r1, [r2, #0]
 8007446:	d1e0      	bne.n	800740a <_free_r+0x22>
 8007448:	6818      	ldr	r0, [r3, #0]
 800744a:	685b      	ldr	r3, [r3, #4]
 800744c:	6053      	str	r3, [r2, #4]
 800744e:	4408      	add	r0, r1
 8007450:	6010      	str	r0, [r2, #0]
 8007452:	e7da      	b.n	800740a <_free_r+0x22>
 8007454:	d902      	bls.n	800745c <_free_r+0x74>
 8007456:	230c      	movs	r3, #12
 8007458:	602b      	str	r3, [r5, #0]
 800745a:	e7d6      	b.n	800740a <_free_r+0x22>
 800745c:	6820      	ldr	r0, [r4, #0]
 800745e:	1821      	adds	r1, r4, r0
 8007460:	428b      	cmp	r3, r1
 8007462:	bf04      	itt	eq
 8007464:	6819      	ldreq	r1, [r3, #0]
 8007466:	685b      	ldreq	r3, [r3, #4]
 8007468:	6063      	str	r3, [r4, #4]
 800746a:	bf04      	itt	eq
 800746c:	1809      	addeq	r1, r1, r0
 800746e:	6021      	streq	r1, [r4, #0]
 8007470:	6054      	str	r4, [r2, #4]
 8007472:	e7ca      	b.n	800740a <_free_r+0x22>
 8007474:	bd38      	pop	{r3, r4, r5, pc}
 8007476:	bf00      	nop
 8007478:	20000378 	.word	0x20000378

0800747c <__ssputs_r>:
 800747c:	e92d 47f0 	stmdb	sp!, {r4, r5, r6, r7, r8, r9, sl, lr}
 8007480:	688e      	ldr	r6, [r1, #8]
 8007482:	461f      	mov	r7, r3
 8007484:	42be      	cmp	r6, r7
 8007486:	680b      	ldr	r3, [r1, #0]
 8007488:	4682      	mov	sl, r0
 800748a:	460c      	mov	r4, r1
 800748c:	4690      	mov	r8, r2
 800748e:	d82d      	bhi.n	80074ec <__ssputs_r+0x70>
 8007490:	f9b1 200c 	ldrsh.w	r2, [r1, #12]
 8007494:	f412 6f90 	tst.w	r2, #1152	@ 0x480
 8007498:	d026      	beq.n	80074e8 <__ssputs_r+0x6c>
 800749a:	6965      	ldr	r5, [r4, #20]
 800749c:	6909      	ldr	r1, [r1, #16]
 800749e:	eb05 0545 	add.w	r5, r5, r5, lsl #1
 80074a2:	eba3 0901 	sub.w	r9, r3, r1
 80074a6:	eb05 75d5 	add.w	r5, r5, r5, lsr #31
 80074aa:	1c7b      	adds	r3, r7, #1
 80074ac:	444b      	add	r3, r9
 80074ae:	106d      	asrs	r5, r5, #1
 80074b0:	429d      	cmp	r5, r3
 80074b2:	bf38      	it	cc
 80074b4:	461d      	movcc	r5, r3
 80074b6:	0553      	lsls	r3, r2, #21
 80074b8:	d527      	bpl.n	800750a <__ssputs_r+0x8e>
 80074ba:	4629      	mov	r1, r5
 80074bc:	f7fe fe02 	bl	80060c4 <_malloc_r>
 80074c0:	4606      	mov	r6, r0
 80074c2:	b360      	cbz	r0, 800751e <__ssputs_r+0xa2>
 80074c4:	6921      	ldr	r1, [r4, #16]
 80074c6:	464a      	mov	r2, r9
 80074c8:	f000 fe30 	bl	800812c <memcpy>
 80074cc:	89a3      	ldrh	r3, [r4, #12]
 80074ce:	f423 6390 	bic.w	r3, r3, #1152	@ 0x480
 80074d2:	f043 0380 	orr.w	r3, r3, #128	@ 0x80
 80074d6:	81a3      	strh	r3, [r4, #12]
 80074d8:	6126      	str	r6, [r4, #16]
 80074da:	6165      	str	r5, [r4, #20]
 80074dc:	444e      	add	r6, r9
 80074de:	eba5 0509 	sub.w	r5, r5, r9
 80074e2:	6026      	str	r6, [r4, #0]
 80074e4:	60a5      	str	r5, [r4, #8]
 80074e6:	463e      	mov	r6, r7
 80074e8:	42be      	cmp	r6, r7
 80074ea:	d900      	bls.n	80074ee <__ssputs_r+0x72>
 80074ec:	463e      	mov	r6, r7
 80074ee:	6820      	ldr	r0, [r4, #0]
 80074f0:	4632      	mov	r2, r6
 80074f2:	4641      	mov	r1, r8
 80074f4:	f000 fdb9 	bl	800806a <memmove>
 80074f8:	68a3      	ldr	r3, [r4, #8]
 80074fa:	1b9b      	subs	r3, r3, r6
 80074fc:	60a3      	str	r3, [r4, #8]
 80074fe:	6823      	ldr	r3, [r4, #0]
 8007500:	4433      	add	r3, r6
 8007502:	6023      	str	r3, [r4, #0]
 8007504:	2000      	movs	r0, #0
 8007506:	e8bd 87f0 	ldmia.w	sp!, {r4, r5, r6, r7, r8, r9, sl, pc}
 800750a:	462a      	mov	r2, r5
 800750c:	f000 fd7f 	bl	800800e <_realloc_r>
 8007510:	4606      	mov	r6, r0
 8007512:	2800      	cmp	r0, #0
 8007514:	d1e0      	bne.n	80074d8 <__ssputs_r+0x5c>
 8007516:	6921      	ldr	r1, [r4, #16]
 8007518:	4650      	mov	r0, sl
 800751a:	f7ff ff65 	bl	80073e8 <_free_r>
 800751e:	230c      	movs	r3, #12
 8007520:	f8ca 3000 	str.w	r3, [sl]
 8007524:	89a3      	ldrh	r3, [r4, #12]
 8007526:	f043 0340 	orr.w	r3, r3, #64	@ 0x40
 800752a:	81a3      	strh	r3, [r4, #12]
 800752c:	f04f 30ff 	mov.w	r0, #4294967295	@ 0xffffffff
 8007530:	e7e9      	b.n	8007506 <__ssputs_r+0x8a>
	...

08007534 <_svfiprintf_r>:
 8007534:	e92d 4ff0 	stmdb	sp!, {r4, r5, r6, r7, r8, r9, sl, fp, lr}
 8007538:	4698      	mov	r8, r3
 800753a:	898b      	ldrh	r3, [r1, #12]
 800753c:	061b      	lsls	r3, r3, #24
 800753e:	b09d      	sub	sp, #116	@ 0x74
 8007540:	4607      	mov	r7, r0
 8007542:	460d      	mov	r5, r1
 8007544:	4614      	mov	r4, r2
 8007546:	d510      	bpl.n	800756a <_svfiprintf_r+0x36>
 8007548:	690b      	ldr	r3, [r1, #16]
 800754a:	b973      	cbnz	r3, 800756a <_svfiprintf_r+0x36>
 800754c:	2140      	movs	r1, #64	@ 0x40
 800754e:	f7fe fdb9 	bl	80060c4 <_malloc_r>
 8007552:	6028      	str	r0, [r5, #0]
 8007554:	6128      	str	r0, [r5, #16]
 8007556:	b930      	cbnz	r0, 8007566 <_svfiprintf_r+0x32>
 8007558:	230c      	movs	r3, #12
 800755a:	603b      	str	r3, [r7, #0]
 800755c:	f04f 30ff 	mov.w	r0, #4294967295	@ 0xffffffff
 8007560:	b01d      	add	sp, #116	@ 0x74
 8007562:	e8bd 8ff0 	ldmia.w	sp!, {r4, r5, r6, r7, r8, r9, sl, fp, pc}
 8007566:	2340      	movs	r3, #64	@ 0x40
 8007568:	616b      	str	r3, [r5, #20]
 800756a:	2300      	movs	r3, #0
 800756c:	9309      	str	r3, [sp, #36]	@ 0x24
 800756e:	2320      	movs	r3, #32
 8007570:	f88d 3029 	strb.w	r3, [sp, #41]	@ 0x29
 8007574:	f8cd 800c 	str.w	r8, [sp, #12]
 8007578:	2330      	movs	r3, #48	@ 0x30
 800757a:	f8df 819c 	ldr.w	r8, [pc, #412]	@ 8007718 <_svfiprintf_r+0x1e4>
 800757e:	f88d 302a 	strb.w	r3, [sp, #42]	@ 0x2a
 8007582:	f04f 0901 	mov.w	r9, #1
 8007586:	4623      	mov	r3, r4
 8007588:	469a      	mov	sl, r3
 800758a:	f813 2b01 	ldrb.w	r2, [r3], #1
 800758e:	b10a      	cbz	r2, 8007594 <_svfiprintf_r+0x60>
 8007590:	2a25      	cmp	r2, #37	@ 0x25
 8007592:	d1f9      	bne.n	8007588 <_svfiprintf_r+0x54>
 8007594:	ebba 0b04 	subs.w	fp, sl, r4
 8007598:	d00b      	beq.n	80075b2 <_svfiprintf_r+0x7e>
 800759a:	465b      	mov	r3, fp
 800759c:	4622      	mov	r2, r4
 800759e:	4629      	mov	r1, r5
 80075a0:	4638      	mov	r0, r7
 80075a2:	f7ff ff6b 	bl	800747c <__ssputs_r>
 80075a6:	3001      	adds	r0, #1
 80075a8:	f000 80a7 	beq.w	80076fa <_svfiprintf_r+0x1c6>
 80075ac:	9a09      	ldr	r2, [sp, #36]	@ 0x24
 80075ae:	445a      	add	r2, fp
 80075b0:	9209      	str	r2, [sp, #36]	@ 0x24
 80075b2:	f89a 3000 	ldrb.w	r3, [sl]
 80075b6:	2b00      	cmp	r3, #0
 80075b8:	f000 809f 	beq.w	80076fa <_svfiprintf_r+0x1c6>
 80075bc:	2300      	movs	r3, #0
 80075be:	f04f 32ff 	mov.w	r2, #4294967295	@ 0xffffffff
 80075c2:	e9cd 2305 	strd	r2, r3, [sp, #20]
 80075c6:	f10a 0a01 	add.w	sl, sl, #1
 80075ca:	9304      	str	r3, [sp, #16]
 80075cc:	9307      	str	r3, [sp, #28]
 80075ce:	f88d 3053 	strb.w	r3, [sp, #83]	@ 0x53
 80075d2:	931a      	str	r3, [sp, #104]	@ 0x68
 80075d4:	4654      	mov	r4, sl
 80075d6:	2205      	movs	r2, #5
 80075d8:	f814 1b01 	ldrb.w	r1, [r4], #1
 80075dc:	484e      	ldr	r0, [pc, #312]	@ (8007718 <_svfiprintf_r+0x1e4>)
 80075de:	f7f8 fe17 	bl	8000210 <memchr>
 80075e2:	9a04      	ldr	r2, [sp, #16]
 80075e4:	b9d8      	cbnz	r0, 800761e <_svfiprintf_r+0xea>
 80075e6:	06d0      	lsls	r0, r2, #27
 80075e8:	bf44      	itt	mi
 80075ea:	2320      	movmi	r3, #32
 80075ec:	f88d 3053 	strbmi.w	r3, [sp, #83]	@ 0x53
 80075f0:	0711      	lsls	r1, r2, #28
 80075f2:	bf44      	itt	mi
 80075f4:	232b      	movmi	r3, #43	@ 0x2b
 80075f6:	f88d 3053 	strbmi.w	r3, [sp, #83]	@ 0x53
 80075fa:	f89a 3000 	ldrb.w	r3, [sl]
 80075fe:	2b2a      	cmp	r3, #42	@ 0x2a
 8007600:	d015      	beq.n	800762e <_svfiprintf_r+0xfa>
 8007602:	9a07      	ldr	r2, [sp, #28]
 8007604:	4654      	mov	r4, sl
 8007606:	2000      	movs	r0, #0
 8007608:	f04f 0c0a 	mov.w	ip, #10
 800760c:	4621      	mov	r1, r4
 800760e:	f811 3b01 	ldrb.w	r3, [r1], #1
 8007612:	3b30      	subs	r3, #48	@ 0x30
 8007614:	2b09      	cmp	r3, #9
 8007616:	d94b      	bls.n	80076b0 <_svfiprintf_r+0x17c>
 8007618:	b1b0      	cbz	r0, 8007648 <_svfiprintf_r+0x114>
 800761a:	9207      	str	r2, [sp, #28]
 800761c:	e014      	b.n	8007648 <_svfiprintf_r+0x114>
 800761e:	eba0 0308 	sub.w	r3, r0, r8
 8007622:	fa09 f303 	lsl.w	r3, r9, r3
 8007626:	4313      	orrs	r3, r2
 8007628:	9304      	str	r3, [sp, #16]
 800762a:	46a2      	mov	sl, r4
 800762c:	e7d2      	b.n	80075d4 <_svfiprintf_r+0xa0>
 800762e:	9b03      	ldr	r3, [sp, #12]
 8007630:	1d19      	adds	r1, r3, #4
 8007632:	681b      	ldr	r3, [r3, #0]
 8007634:	9103      	str	r1, [sp, #12]
 8007636:	2b00      	cmp	r3, #0
 8007638:	bfbb      	ittet	lt
 800763a:	425b      	neglt	r3, r3
 800763c:	f042 0202 	orrlt.w	r2, r2, #2
 8007640:	9307      	strge	r3, [sp, #28]
 8007642:	9307      	strlt	r3, [sp, #28]
 8007644:	bfb8      	it	lt
 8007646:	9204      	strlt	r2, [sp, #16]
 8007648:	7823      	ldrb	r3, [r4, #0]
 800764a:	2b2e      	cmp	r3, #46	@ 0x2e
 800764c:	d10a      	bne.n	8007664 <_svfiprintf_r+0x130>
 800764e:	7863      	ldrb	r3, [r4, #1]
 8007650:	2b2a      	cmp	r3, #42	@ 0x2a
 8007652:	d132      	bne.n	80076ba <_svfiprintf_r+0x186>
 8007654:	9b03      	ldr	r3, [sp, #12]
 8007656:	1d1a      	adds	r2, r3, #4
 8007658:	681b      	ldr	r3, [r3, #0]
 800765a:	9203      	str	r2, [sp, #12]
 800765c:	ea43 73e3 	orr.w	r3, r3, r3, asr #31
 8007660:	3402      	adds	r4, #2
 8007662:	9305      	str	r3, [sp, #20]
 8007664:	f8df a0c0 	ldr.w	sl, [pc, #192]	@ 8007728 <_svfiprintf_r+0x1f4>
 8007668:	7821      	ldrb	r1, [r4, #0]
 800766a:	2203      	movs	r2, #3
 800766c:	4650      	mov	r0, sl
 800766e:	f7f8 fdcf 	bl	8000210 <memchr>
 8007672:	b138      	cbz	r0, 8007684 <_svfiprintf_r+0x150>
 8007674:	9b04      	ldr	r3, [sp, #16]
 8007676:	eba0 000a 	sub.w	r0, r0, sl
 800767a:	2240      	movs	r2, #64	@ 0x40
 800767c:	4082      	lsls	r2, r0
 800767e:	4313      	orrs	r3, r2
 8007680:	3401      	adds	r4, #1
 8007682:	9304      	str	r3, [sp, #16]
 8007684:	f814 1b01 	ldrb.w	r1, [r4], #1
 8007688:	4824      	ldr	r0, [pc, #144]	@ (800771c <_svfiprintf_r+0x1e8>)
 800768a:	f88d 1028 	strb.w	r1, [sp, #40]	@ 0x28
 800768e:	2206      	movs	r2, #6
 8007690:	f7f8 fdbe 	bl	8000210 <memchr>
 8007694:	2800      	cmp	r0, #0
 8007696:	d036      	beq.n	8007706 <_svfiprintf_r+0x1d2>
 8007698:	4b21      	ldr	r3, [pc, #132]	@ (8007720 <_svfiprintf_r+0x1ec>)
 800769a:	bb1b      	cbnz	r3, 80076e4 <_svfiprintf_r+0x1b0>
 800769c:	9b03      	ldr	r3, [sp, #12]
 800769e:	3307      	adds	r3, #7
 80076a0:	f023 0307 	bic.w	r3, r3, #7
 80076a4:	3308      	adds	r3, #8
 80076a6:	9303      	str	r3, [sp, #12]
 80076a8:	9b09      	ldr	r3, [sp, #36]	@ 0x24
 80076aa:	4433      	add	r3, r6
 80076ac:	9309      	str	r3, [sp, #36]	@ 0x24
 80076ae:	e76a      	b.n	8007586 <_svfiprintf_r+0x52>
 80076b0:	fb0c 3202 	mla	r2, ip, r2, r3
 80076b4:	460c      	mov	r4, r1
 80076b6:	2001      	movs	r0, #1
 80076b8:	e7a8      	b.n	800760c <_svfiprintf_r+0xd8>
 80076ba:	2300      	movs	r3, #0
 80076bc:	3401      	adds	r4, #1
 80076be:	9305      	str	r3, [sp, #20]
 80076c0:	4619      	mov	r1, r3
 80076c2:	f04f 0c0a 	mov.w	ip, #10
 80076c6:	4620      	mov	r0, r4
 80076c8:	f810 2b01 	ldrb.w	r2, [r0], #1
 80076cc:	3a30      	subs	r2, #48	@ 0x30
 80076ce:	2a09      	cmp	r2, #9
 80076d0:	d903      	bls.n	80076da <_svfiprintf_r+0x1a6>
 80076d2:	2b00      	cmp	r3, #0
 80076d4:	d0c6      	beq.n	8007664 <_svfiprintf_r+0x130>
 80076d6:	9105      	str	r1, [sp, #20]
 80076d8:	e7c4      	b.n	8007664 <_svfiprintf_r+0x130>
 80076da:	fb0c 2101 	mla	r1, ip, r1, r2
 80076de:	4604      	mov	r4, r0
 80076e0:	2301      	movs	r3, #1
 80076e2:	e7f0      	b.n	80076c6 <_svfiprintf_r+0x192>
 80076e4:	ab03      	add	r3, sp, #12
 80076e6:	9300      	str	r3, [sp, #0]
 80076e8:	462a      	mov	r2, r5
 80076ea:	4b0e      	ldr	r3, [pc, #56]	@ (8007724 <_svfiprintf_r+0x1f0>)
 80076ec:	a904      	add	r1, sp, #16
 80076ee:	4638      	mov	r0, r7
 80076f0:	f7fe fa94 	bl	8005c1c <_printf_float>
 80076f4:	1c42      	adds	r2, r0, #1
 80076f6:	4606      	mov	r6, r0
 80076f8:	d1d6      	bne.n	80076a8 <_svfiprintf_r+0x174>
 80076fa:	89ab      	ldrh	r3, [r5, #12]
 80076fc:	065b      	lsls	r3, r3, #25
 80076fe:	f53f af2d 	bmi.w	800755c <_svfiprintf_r+0x28>
 8007702:	9809      	ldr	r0, [sp, #36]	@ 0x24
 8007704:	e72c      	b.n	8007560 <_svfiprintf_r+0x2c>
 8007706:	ab03      	add	r3, sp, #12
 8007708:	9300      	str	r3, [sp, #0]
 800770a:	462a      	mov	r2, r5
 800770c:	4b05      	ldr	r3, [pc, #20]	@ (8007724 <_svfiprintf_r+0x1f0>)
 800770e:	a904      	add	r1, sp, #16
 8007710:	4638      	mov	r0, r7
 8007712:	f7fe fdc5 	bl	80062a0 <_printf_i>
 8007716:	e7ed      	b.n	80076f4 <_svfiprintf_r+0x1c0>
 8007718:	080089a9 	.word	0x080089a9
 800771c:	080089b3 	.word	0x080089b3
 8007720:	08005c1d 	.word	0x08005c1d
 8007724:	0800747d 	.word	0x0800747d
 8007728:	080089af 	.word	0x080089af

0800772c <__sflush_r>:
 800772c:	f9b1 200c 	ldrsh.w	r2, [r1, #12]
 8007730:	e92d 41f0 	stmdb	sp!, {r4, r5, r6, r7, r8, lr}
 8007734:	0716      	lsls	r6, r2, #28
 8007736:	4605      	mov	r5, r0
 8007738:	460c      	mov	r4, r1
 800773a:	d454      	bmi.n	80077e6 <__sflush_r+0xba>
 800773c:	684b      	ldr	r3, [r1, #4]
 800773e:	2b00      	cmp	r3, #0
 8007740:	dc02      	bgt.n	8007748 <__sflush_r+0x1c>
 8007742:	6c0b      	ldr	r3, [r1, #64]	@ 0x40
 8007744:	2b00      	cmp	r3, #0
 8007746:	dd48      	ble.n	80077da <__sflush_r+0xae>
 8007748:	6ae6      	ldr	r6, [r4, #44]	@ 0x2c
 800774a:	2e00      	cmp	r6, #0
 800774c:	d045      	beq.n	80077da <__sflush_r+0xae>
 800774e:	2300      	movs	r3, #0
 8007750:	f412 5280 	ands.w	r2, r2, #4096	@ 0x1000
 8007754:	682f      	ldr	r7, [r5, #0]
 8007756:	6a21      	ldr	r1, [r4, #32]
 8007758:	602b      	str	r3, [r5, #0]
 800775a:	d030      	beq.n	80077be <__sflush_r+0x92>
 800775c:	6d62      	ldr	r2, [r4, #84]	@ 0x54
 800775e:	89a3      	ldrh	r3, [r4, #12]
 8007760:	0759      	lsls	r1, r3, #29
 8007762:	d505      	bpl.n	8007770 <__sflush_r+0x44>
 8007764:	6863      	ldr	r3, [r4, #4]
 8007766:	1ad2      	subs	r2, r2, r3
 8007768:	6b63      	ldr	r3, [r4, #52]	@ 0x34
 800776a:	b10b      	cbz	r3, 8007770 <__sflush_r+0x44>
 800776c:	6c23      	ldr	r3, [r4, #64]	@ 0x40
 800776e:	1ad2      	subs	r2, r2, r3
 8007770:	2300      	movs	r3, #0
 8007772:	6ae6      	ldr	r6, [r4, #44]	@ 0x2c
 8007774:	6a21      	ldr	r1, [r4, #32]
 8007776:	4628      	mov	r0, r5
 8007778:	47b0      	blx	r6
 800777a:	1c43      	adds	r3, r0, #1
 800777c:	89a3      	ldrh	r3, [r4, #12]
 800777e:	d106      	bne.n	800778e <__sflush_r+0x62>
 8007780:	6829      	ldr	r1, [r5, #0]
 8007782:	291d      	cmp	r1, #29
 8007784:	d82b      	bhi.n	80077de <__sflush_r+0xb2>
 8007786:	4a2a      	ldr	r2, [pc, #168]	@ (8007830 <__sflush_r+0x104>)
 8007788:	410a      	asrs	r2, r1
 800778a:	07d6      	lsls	r6, r2, #31
 800778c:	d427      	bmi.n	80077de <__sflush_r+0xb2>
 800778e:	2200      	movs	r2, #0
 8007790:	6062      	str	r2, [r4, #4]
 8007792:	04d9      	lsls	r1, r3, #19
 8007794:	6922      	ldr	r2, [r4, #16]
 8007796:	6022      	str	r2, [r4, #0]
 8007798:	d504      	bpl.n	80077a4 <__sflush_r+0x78>
 800779a:	1c42      	adds	r2, r0, #1
 800779c:	d101      	bne.n	80077a2 <__sflush_r+0x76>
 800779e:	682b      	ldr	r3, [r5, #0]
 80077a0:	b903      	cbnz	r3, 80077a4 <__sflush_r+0x78>
 80077a2:	6560      	str	r0, [r4, #84]	@ 0x54
 80077a4:	6b61      	ldr	r1, [r4, #52]	@ 0x34
 80077a6:	602f      	str	r7, [r5, #0]
 80077a8:	b1b9      	cbz	r1, 80077da <__sflush_r+0xae>
 80077aa:	f104 0344 	add.w	r3, r4, #68	@ 0x44
 80077ae:	4299      	cmp	r1, r3
 80077b0:	d002      	beq.n	80077b8 <__sflush_r+0x8c>
 80077b2:	4628      	mov	r0, r5
 80077b4:	f7ff fe18 	bl	80073e8 <_free_r>
 80077b8:	2300      	movs	r3, #0
 80077ba:	6363      	str	r3, [r4, #52]	@ 0x34
 80077bc:	e00d      	b.n	80077da <__sflush_r+0xae>
 80077be:	2301      	movs	r3, #1
 80077c0:	4628      	mov	r0, r5
 80077c2:	47b0      	blx	r6
 80077c4:	4602      	mov	r2, r0
 80077c6:	1c50      	adds	r0, r2, #1
 80077c8:	d1c9      	bne.n	800775e <__sflush_r+0x32>
 80077ca:	682b      	ldr	r3, [r5, #0]
 80077cc:	2b00      	cmp	r3, #0
 80077ce:	d0c6      	beq.n	800775e <__sflush_r+0x32>
 80077d0:	2b1d      	cmp	r3, #29
 80077d2:	d001      	beq.n	80077d8 <__sflush_r+0xac>
 80077d4:	2b16      	cmp	r3, #22
 80077d6:	d11e      	bne.n	8007816 <__sflush_r+0xea>
 80077d8:	602f      	str	r7, [r5, #0]
 80077da:	2000      	movs	r0, #0
 80077dc:	e022      	b.n	8007824 <__sflush_r+0xf8>
 80077de:	f043 0340 	orr.w	r3, r3, #64	@ 0x40
 80077e2:	b21b      	sxth	r3, r3
 80077e4:	e01b      	b.n	800781e <__sflush_r+0xf2>
 80077e6:	690f      	ldr	r7, [r1, #16]
 80077e8:	2f00      	cmp	r7, #0
 80077ea:	d0f6      	beq.n	80077da <__sflush_r+0xae>
 80077ec:	0793      	lsls	r3, r2, #30
 80077ee:	680e      	ldr	r6, [r1, #0]
 80077f0:	bf08      	it	eq
 80077f2:	694b      	ldreq	r3, [r1, #20]
 80077f4:	600f      	str	r7, [r1, #0]
 80077f6:	bf18      	it	ne
 80077f8:	2300      	movne	r3, #0
 80077fa:	eba6 0807 	sub.w	r8, r6, r7
 80077fe:	608b      	str	r3, [r1, #8]
 8007800:	f1b8 0f00 	cmp.w	r8, #0
 8007804:	dde9      	ble.n	80077da <__sflush_r+0xae>
 8007806:	6a21      	ldr	r1, [r4, #32]
 8007808:	6aa6      	ldr	r6, [r4, #40]	@ 0x28
 800780a:	4643      	mov	r3, r8
 800780c:	463a      	mov	r2, r7
 800780e:	4628      	mov	r0, r5
 8007810:	47b0      	blx	r6
 8007812:	2800      	cmp	r0, #0
 8007814:	dc08      	bgt.n	8007828 <__sflush_r+0xfc>
 8007816:	f9b4 300c 	ldrsh.w	r3, [r4, #12]
 800781a:	f043 0340 	orr.w	r3, r3, #64	@ 0x40
 800781e:	81a3      	strh	r3, [r4, #12]
 8007820:	f04f 30ff 	mov.w	r0, #4294967295	@ 0xffffffff
 8007824:	e8bd 81f0 	ldmia.w	sp!, {r4, r5, r6, r7, r8, pc}
 8007828:	4407      	add	r7, r0
 800782a:	eba8 0800 	sub.w	r8, r8, r0
 800782e:	e7e7      	b.n	8007800 <__sflush_r+0xd4>
 8007830:	dfbffffe 	.word	0xdfbffffe

08007834 <_fflush_r>:
 8007834:	b538      	push	{r3, r4, r5, lr}
 8007836:	690b      	ldr	r3, [r1, #16]
 8007838:	4605      	mov	r5, r0
 800783a:	460c      	mov	r4, r1
 800783c:	b913      	cbnz	r3, 8007844 <_fflush_r+0x10>
 800783e:	2500      	movs	r5, #0
 8007840:	4628      	mov	r0, r5
 8007842:	bd38      	pop	{r3, r4, r5, pc}
 8007844:	b118      	cbz	r0, 800784e <_fflush_r+0x1a>
 8007846:	6a03      	ldr	r3, [r0, #32]
 8007848:	b90b      	cbnz	r3, 800784e <_fflush_r+0x1a>
 800784a:	f7fe ff01 	bl	8006650 <__sinit>
 800784e:	f9b4 300c 	ldrsh.w	r3, [r4, #12]
 8007852:	2b00      	cmp	r3, #0
 8007854:	d0f3      	beq.n	800783e <_fflush_r+0xa>
 8007856:	6e62      	ldr	r2, [r4, #100]	@ 0x64
 8007858:	07d0      	lsls	r0, r2, #31
 800785a:	d404      	bmi.n	8007866 <_fflush_r+0x32>
 800785c:	0599      	lsls	r1, r3, #22
 800785e:	d402      	bmi.n	8007866 <_fflush_r+0x32>
 8007860:	6da0      	ldr	r0, [r4, #88]	@ 0x58
 8007862:	f7fe ff72 	bl	800674a <__retarget_lock_acquire_recursive>
 8007866:	4628      	mov	r0, r5
 8007868:	4621      	mov	r1, r4
 800786a:	f7ff ff5f 	bl	800772c <__sflush_r>
 800786e:	6e63      	ldr	r3, [r4, #100]	@ 0x64
 8007870:	07da      	lsls	r2, r3, #31
 8007872:	4605      	mov	r5, r0
 8007874:	d4e4      	bmi.n	8007840 <_fflush_r+0xc>
 8007876:	89a3      	ldrh	r3, [r4, #12]
 8007878:	059b      	lsls	r3, r3, #22
 800787a:	d4e1      	bmi.n	8007840 <_fflush_r+0xc>
 800787c:	6da0      	ldr	r0, [r4, #88]	@ 0x58
 800787e:	f7fe ff65 	bl	800674c <__retarget_lock_release_recursive>
 8007882:	e7dd      	b.n	8007840 <_fflush_r+0xc>

08007884 <_Balloc>:
 8007884:	b570      	push	{r4, r5, r6, lr}
 8007886:	69c6      	ldr	r6, [r0, #28]
 8007888:	4604      	mov	r4, r0
 800788a:	460d      	mov	r5, r1
 800788c:	b976      	cbnz	r6, 80078ac <_Balloc+0x28>
 800788e:	2010      	movs	r0, #16
 8007890:	f7fe fbee 	bl	8006070 <malloc>
 8007894:	4602      	mov	r2, r0
 8007896:	61e0      	str	r0, [r4, #28]
 8007898:	b920      	cbnz	r0, 80078a4 <_Balloc+0x20>
 800789a:	4b18      	ldr	r3, [pc, #96]	@ (80078fc <_Balloc+0x78>)
 800789c:	4818      	ldr	r0, [pc, #96]	@ (8007900 <_Balloc+0x7c>)
 800789e:	216b      	movs	r1, #107	@ 0x6b
 80078a0:	f000 fc52 	bl	8008148 <__assert_func>
 80078a4:	e9c0 6601 	strd	r6, r6, [r0, #4]
 80078a8:	6006      	str	r6, [r0, #0]
 80078aa:	60c6      	str	r6, [r0, #12]
 80078ac:	69e6      	ldr	r6, [r4, #28]
 80078ae:	68f3      	ldr	r3, [r6, #12]
 80078b0:	b183      	cbz	r3, 80078d4 <_Balloc+0x50>
 80078b2:	69e3      	ldr	r3, [r4, #28]
 80078b4:	68db      	ldr	r3, [r3, #12]
 80078b6:	f853 0025 	ldr.w	r0, [r3, r5, lsl #2]
 80078ba:	b9b8      	cbnz	r0, 80078ec <_Balloc+0x68>
 80078bc:	2101      	movs	r1, #1
 80078be:	fa01 f605 	lsl.w	r6, r1, r5
 80078c2:	1d72      	adds	r2, r6, #5
 80078c4:	0092      	lsls	r2, r2, #2
 80078c6:	4620      	mov	r0, r4
 80078c8:	f7fe f8f4 	bl	8005ab4 <_calloc_r>
 80078cc:	b160      	cbz	r0, 80078e8 <_Balloc+0x64>
 80078ce:	e9c0 5601 	strd	r5, r6, [r0, #4]
 80078d2:	e00e      	b.n	80078f2 <_Balloc+0x6e>
 80078d4:	2221      	movs	r2, #33	@ 0x21
 80078d6:	2104      	movs	r1, #4
 80078d8:	4620      	mov	r0, r4
 80078da:	f7fe f8eb 	bl	8005ab4 <_calloc_r>
 80078de:	69e3      	ldr	r3, [r4, #28]
 80078e0:	60f0      	str	r0, [r6, #12]
 80078e2:	68db      	ldr	r3, [r3, #12]
 80078e4:	2b00      	cmp	r3, #0
 80078e6:	d1e4      	bne.n	80078b2 <_Balloc+0x2e>
 80078e8:	2000      	movs	r0, #0
 80078ea:	bd70      	pop	{r4, r5, r6, pc}
 80078ec:	6802      	ldr	r2, [r0, #0]
 80078ee:	f843 2025 	str.w	r2, [r3, r5, lsl #2]
 80078f2:	2300      	movs	r3, #0
 80078f4:	e9c0 3303 	strd	r3, r3, [r0, #12]
 80078f8:	e7f7      	b.n	80078ea <_Balloc+0x66>
 80078fa:	bf00      	nop
 80078fc:	08008929 	.word	0x08008929
 8007900:	080089ba 	.word	0x080089ba

08007904 <_Bfree>:
 8007904:	b570      	push	{r4, r5, r6, lr}
 8007906:	69c6      	ldr	r6, [r0, #28]
 8007908:	4605      	mov	r5, r0
 800790a:	460c      	mov	r4, r1
 800790c:	b976      	cbnz	r6, 800792c <_Bfree+0x28>
 800790e:	2010      	movs	r0, #16
 8007910:	f7fe fbae 	bl	8006070 <malloc>
 8007914:	4602      	mov	r2, r0
 8007916:	61e8      	str	r0, [r5, #28]
 8007918:	b920      	cbnz	r0, 8007924 <_Bfree+0x20>
 800791a:	4b09      	ldr	r3, [pc, #36]	@ (8007940 <_Bfree+0x3c>)
 800791c:	4809      	ldr	r0, [pc, #36]	@ (8007944 <_Bfree+0x40>)
 800791e:	218f      	movs	r1, #143	@ 0x8f
 8007920:	f000 fc12 	bl	8008148 <__assert_func>
 8007924:	e9c0 6601 	strd	r6, r6, [r0, #4]
 8007928:	6006      	str	r6, [r0, #0]
 800792a:	60c6      	str	r6, [r0, #12]
 800792c:	b13c      	cbz	r4, 800793e <_Bfree+0x3a>
 800792e:	69eb      	ldr	r3, [r5, #28]
 8007930:	6862      	ldr	r2, [r4, #4]
 8007932:	68db      	ldr	r3, [r3, #12]
 8007934:	f853 1022 	ldr.w	r1, [r3, r2, lsl #2]
 8007938:	6021      	str	r1, [r4, #0]
 800793a:	f843 4022 	str.w	r4, [r3, r2, lsl #2]
 800793e:	bd70      	pop	{r4, r5, r6, pc}
 8007940:	08008929 	.word	0x08008929
 8007944:	080089ba 	.word	0x080089ba

08007948 <__multadd>:
 8007948:	e92d 41f0 	stmdb	sp!, {r4, r5, r6, r7, r8, lr}
 800794c:	690d      	ldr	r5, [r1, #16]
 800794e:	4607      	mov	r7, r0
 8007950:	460c      	mov	r4, r1
 8007952:	461e      	mov	r6, r3
 8007954:	f101 0c14 	add.w	ip, r1, #20
 8007958:	2000      	movs	r0, #0
 800795a:	f8dc 3000 	ldr.w	r3, [ip]
 800795e:	b299      	uxth	r1, r3
 8007960:	fb02 6101 	mla	r1, r2, r1, r6
 8007964:	0c1e      	lsrs	r6, r3, #16
 8007966:	0c0b      	lsrs	r3, r1, #16
 8007968:	fb02 3306 	mla	r3, r2, r6, r3
 800796c:	b289      	uxth	r1, r1
 800796e:	3001      	adds	r0, #1
 8007970:	eb01 4103 	add.w	r1, r1, r3, lsl #16
 8007974:	4285      	cmp	r5, r0
 8007976:	f84c 1b04 	str.w	r1, [ip], #4
 800797a:	ea4f 4613 	mov.w	r6, r3, lsr #16
 800797e:	dcec      	bgt.n	800795a <__multadd+0x12>
 8007980:	b30e      	cbz	r6, 80079c6 <__multadd+0x7e>
 8007982:	68a3      	ldr	r3, [r4, #8]
 8007984:	42ab      	cmp	r3, r5
 8007986:	dc19      	bgt.n	80079bc <__multadd+0x74>
 8007988:	6861      	ldr	r1, [r4, #4]
 800798a:	4638      	mov	r0, r7
 800798c:	3101      	adds	r1, #1
 800798e:	f7ff ff79 	bl	8007884 <_Balloc>
 8007992:	4680      	mov	r8, r0
 8007994:	b928      	cbnz	r0, 80079a2 <__multadd+0x5a>
 8007996:	4602      	mov	r2, r0
 8007998:	4b0c      	ldr	r3, [pc, #48]	@ (80079cc <__multadd+0x84>)
 800799a:	480d      	ldr	r0, [pc, #52]	@ (80079d0 <__multadd+0x88>)
 800799c:	21ba      	movs	r1, #186	@ 0xba
 800799e:	f000 fbd3 	bl	8008148 <__assert_func>
 80079a2:	6922      	ldr	r2, [r4, #16]
 80079a4:	3202      	adds	r2, #2
 80079a6:	f104 010c 	add.w	r1, r4, #12
 80079aa:	0092      	lsls	r2, r2, #2
 80079ac:	300c      	adds	r0, #12
 80079ae:	f000 fbbd 	bl	800812c <memcpy>
 80079b2:	4621      	mov	r1, r4
 80079b4:	4638      	mov	r0, r7
 80079b6:	f7ff ffa5 	bl	8007904 <_Bfree>
 80079ba:	4644      	mov	r4, r8
 80079bc:	eb04 0385 	add.w	r3, r4, r5, lsl #2
 80079c0:	3501      	adds	r5, #1
 80079c2:	615e      	str	r6, [r3, #20]
 80079c4:	6125      	str	r5, [r4, #16]
 80079c6:	4620      	mov	r0, r4
 80079c8:	e8bd 81f0 	ldmia.w	sp!, {r4, r5, r6, r7, r8, pc}
 80079cc:	08008998 	.word	0x08008998
 80079d0:	080089ba 	.word	0x080089ba

080079d4 <__hi0bits>:
 80079d4:	f5b0 3f80 	cmp.w	r0, #65536	@ 0x10000
 80079d8:	4603      	mov	r3, r0
 80079da:	bf36      	itet	cc
 80079dc:	0403      	lslcc	r3, r0, #16
 80079de:	2000      	movcs	r0, #0
 80079e0:	2010      	movcc	r0, #16
 80079e2:	f1b3 7f80 	cmp.w	r3, #16777216	@ 0x1000000
 80079e6:	bf3c      	itt	cc
 80079e8:	021b      	lslcc	r3, r3, #8
 80079ea:	3008      	addcc	r0, #8
 80079ec:	f1b3 5f80 	cmp.w	r3, #268435456	@ 0x10000000
 80079f0:	bf3c      	itt	cc
 80079f2:	011b      	lslcc	r3, r3, #4
 80079f4:	3004      	addcc	r0, #4
 80079f6:	f1b3 4f80 	cmp.w	r3, #1073741824	@ 0x40000000
 80079fa:	bf3c      	itt	cc
 80079fc:	009b      	lslcc	r3, r3, #2
 80079fe:	3002      	addcc	r0, #2
 8007a00:	2b00      	cmp	r3, #0
 8007a02:	db05      	blt.n	8007a10 <__hi0bits+0x3c>
 8007a04:	f013 4f80 	tst.w	r3, #1073741824	@ 0x40000000
 8007a08:	f100 0001 	add.w	r0, r0, #1
 8007a0c:	bf08      	it	eq
 8007a0e:	2020      	moveq	r0, #32
 8007a10:	4770      	bx	lr

08007a12 <__lo0bits>:
 8007a12:	6803      	ldr	r3, [r0, #0]
 8007a14:	4602      	mov	r2, r0
 8007a16:	f013 0007 	ands.w	r0, r3, #7
 8007a1a:	d00b      	beq.n	8007a34 <__lo0bits+0x22>
 8007a1c:	07d9      	lsls	r1, r3, #31
 8007a1e:	d421      	bmi.n	8007a64 <__lo0bits+0x52>
 8007a20:	0798      	lsls	r0, r3, #30
 8007a22:	bf49      	itett	mi
 8007a24:	085b      	lsrmi	r3, r3, #1
 8007a26:	089b      	lsrpl	r3, r3, #2
 8007a28:	2001      	movmi	r0, #1
 8007a2a:	6013      	strmi	r3, [r2, #0]
 8007a2c:	bf5c      	itt	pl
 8007a2e:	6013      	strpl	r3, [r2, #0]
 8007a30:	2002      	movpl	r0, #2
 8007a32:	4770      	bx	lr
 8007a34:	b299      	uxth	r1, r3
 8007a36:	b909      	cbnz	r1, 8007a3c <__lo0bits+0x2a>
 8007a38:	0c1b      	lsrs	r3, r3, #16
 8007a3a:	2010      	movs	r0, #16
 8007a3c:	b2d9      	uxtb	r1, r3
 8007a3e:	b909      	cbnz	r1, 8007a44 <__lo0bits+0x32>
 8007a40:	3008      	adds	r0, #8
 8007a42:	0a1b      	lsrs	r3, r3, #8
 8007a44:	0719      	lsls	r1, r3, #28
 8007a46:	bf04      	itt	eq
 8007a48:	091b      	lsreq	r3, r3, #4
 8007a4a:	3004      	addeq	r0, #4
 8007a4c:	0799      	lsls	r1, r3, #30
 8007a4e:	bf04      	itt	eq
 8007a50:	089b      	lsreq	r3, r3, #2
 8007a52:	3002      	addeq	r0, #2
 8007a54:	07d9      	lsls	r1, r3, #31
 8007a56:	d403      	bmi.n	8007a60 <__lo0bits+0x4e>
 8007a58:	085b      	lsrs	r3, r3, #1
 8007a5a:	f100 0001 	add.w	r0, r0, #1
 8007a5e:	d003      	beq.n	8007a68 <__lo0bits+0x56>
 8007a60:	6013      	str	r3, [r2, #0]
 8007a62:	4770      	bx	lr
 8007a64:	2000      	movs	r0, #0
 8007a66:	4770      	bx	lr
 8007a68:	2020      	movs	r0, #32
 8007a6a:	4770      	bx	lr

08007a6c <__i2b>:
 8007a6c:	b510      	push	{r4, lr}
 8007a6e:	460c      	mov	r4, r1
 8007a70:	2101      	movs	r1, #1
 8007a72:	f7ff ff07 	bl	8007884 <_Balloc>
 8007a76:	4602      	mov	r2, r0
 8007a78:	b928      	cbnz	r0, 8007a86 <__i2b+0x1a>
 8007a7a:	4b05      	ldr	r3, [pc, #20]	@ (8007a90 <__i2b+0x24>)
 8007a7c:	4805      	ldr	r0, [pc, #20]	@ (8007a94 <__i2b+0x28>)
 8007a7e:	f240 1145 	movw	r1, #325	@ 0x145
 8007a82:	f000 fb61 	bl	8008148 <__assert_func>
 8007a86:	2301      	movs	r3, #1
 8007a88:	6144      	str	r4, [r0, #20]
 8007a8a:	6103      	str	r3, [r0, #16]
 8007a8c:	bd10      	pop	{r4, pc}
 8007a8e:	bf00      	nop
 8007a90:	08008998 	.word	0x08008998
 8007a94:	080089ba 	.word	0x080089ba

08007a98 <__multiply>:
 8007a98:	e92d 4ff0 	stmdb	sp!, {r4, r5, r6, r7, r8, r9, sl, fp, lr}
 8007a9c:	4614      	mov	r4, r2
 8007a9e:	690a      	ldr	r2, [r1, #16]
 8007aa0:	6923      	ldr	r3, [r4, #16]
 8007aa2:	429a      	cmp	r2, r3
 8007aa4:	bfa8      	it	ge
 8007aa6:	4623      	movge	r3, r4
 8007aa8:	460f      	mov	r7, r1
 8007aaa:	bfa4      	itt	ge
 8007aac:	460c      	movge	r4, r1
 8007aae:	461f      	movge	r7, r3
 8007ab0:	f8d4 a010 	ldr.w	sl, [r4, #16]
 8007ab4:	f8d7 9010 	ldr.w	r9, [r7, #16]
 8007ab8:	68a3      	ldr	r3, [r4, #8]
 8007aba:	6861      	ldr	r1, [r4, #4]
 8007abc:	eb0a 0609 	add.w	r6, sl, r9
 8007ac0:	42b3      	cmp	r3, r6
 8007ac2:	b085      	sub	sp, #20
 8007ac4:	bfb8      	it	lt
 8007ac6:	3101      	addlt	r1, #1
 8007ac8:	f7ff fedc 	bl	8007884 <_Balloc>
 8007acc:	b930      	cbnz	r0, 8007adc <__multiply+0x44>
 8007ace:	4602      	mov	r2, r0
 8007ad0:	4b44      	ldr	r3, [pc, #272]	@ (8007be4 <__multiply+0x14c>)
 8007ad2:	4845      	ldr	r0, [pc, #276]	@ (8007be8 <__multiply+0x150>)
 8007ad4:	f44f 71b1 	mov.w	r1, #354	@ 0x162
 8007ad8:	f000 fb36 	bl	8008148 <__assert_func>
 8007adc:	f100 0514 	add.w	r5, r0, #20
 8007ae0:	eb05 0886 	add.w	r8, r5, r6, lsl #2
 8007ae4:	462b      	mov	r3, r5
 8007ae6:	2200      	movs	r2, #0
 8007ae8:	4543      	cmp	r3, r8
 8007aea:	d321      	bcc.n	8007b30 <__multiply+0x98>
 8007aec:	f107 0114 	add.w	r1, r7, #20
 8007af0:	f104 0214 	add.w	r2, r4, #20
 8007af4:	eb02 028a 	add.w	r2, r2, sl, lsl #2
 8007af8:	eb01 0389 	add.w	r3, r1, r9, lsl #2
 8007afc:	9302      	str	r3, [sp, #8]
 8007afe:	1b13      	subs	r3, r2, r4
 8007b00:	3b15      	subs	r3, #21
 8007b02:	f023 0303 	bic.w	r3, r3, #3
 8007b06:	3304      	adds	r3, #4
 8007b08:	f104 0715 	add.w	r7, r4, #21
 8007b0c:	42ba      	cmp	r2, r7
 8007b0e:	bf38      	it	cc
 8007b10:	2304      	movcc	r3, #4
 8007b12:	9301      	str	r3, [sp, #4]
 8007b14:	9b02      	ldr	r3, [sp, #8]
 8007b16:	9103      	str	r1, [sp, #12]
 8007b18:	428b      	cmp	r3, r1
 8007b1a:	d80c      	bhi.n	8007b36 <__multiply+0x9e>
 8007b1c:	2e00      	cmp	r6, #0
 8007b1e:	dd03      	ble.n	8007b28 <__multiply+0x90>
 8007b20:	f858 3d04 	ldr.w	r3, [r8, #-4]!
 8007b24:	2b00      	cmp	r3, #0
 8007b26:	d05b      	beq.n	8007be0 <__multiply+0x148>
 8007b28:	6106      	str	r6, [r0, #16]
 8007b2a:	b005      	add	sp, #20
 8007b2c:	e8bd 8ff0 	ldmia.w	sp!, {r4, r5, r6, r7, r8, r9, sl, fp, pc}
 8007b30:	f843 2b04 	str.w	r2, [r3], #4
 8007b34:	e7d8      	b.n	8007ae8 <__multiply+0x50>
 8007b36:	f8b1 a000 	ldrh.w	sl, [r1]
 8007b3a:	f1ba 0f00 	cmp.w	sl, #0
 8007b3e:	d024      	beq.n	8007b8a <__multiply+0xf2>
 8007b40:	f104 0e14 	add.w	lr, r4, #20
 8007b44:	46a9      	mov	r9, r5
 8007b46:	f04f 0c00 	mov.w	ip, #0
 8007b4a:	f85e 7b04 	ldr.w	r7, [lr], #4
 8007b4e:	f8d9 3000 	ldr.w	r3, [r9]
 8007b52:	fa1f fb87 	uxth.w	fp, r7
 8007b56:	b29b      	uxth	r3, r3
 8007b58:	fb0a 330b 	mla	r3, sl, fp, r3
 8007b5c:	ea4f 4b17 	mov.w	fp, r7, lsr #16
 8007b60:	f8d9 7000 	ldr.w	r7, [r9]
 8007b64:	4463      	add	r3, ip
 8007b66:	ea4f 4c17 	mov.w	ip, r7, lsr #16
 8007b6a:	fb0a c70b 	mla	r7, sl, fp, ip
 8007b6e:	eb07 4713 	add.w	r7, r7, r3, lsr #16
 8007b72:	b29b      	uxth	r3, r3
 8007b74:	ea43 4307 	orr.w	r3, r3, r7, lsl #16
 8007b78:	4572      	cmp	r2, lr
 8007b7a:	f849 3b04 	str.w	r3, [r9], #4
 8007b7e:	ea4f 4c17 	mov.w	ip, r7, lsr #16
 8007b82:	d8e2      	bhi.n	8007b4a <__multiply+0xb2>
 8007b84:	9b01      	ldr	r3, [sp, #4]
 8007b86:	f845 c003 	str.w	ip, [r5, r3]
 8007b8a:	9b03      	ldr	r3, [sp, #12]
 8007b8c:	f8b3 9002 	ldrh.w	r9, [r3, #2]
 8007b90:	3104      	adds	r1, #4
 8007b92:	f1b9 0f00 	cmp.w	r9, #0
 8007b96:	d021      	beq.n	8007bdc <__multiply+0x144>
 8007b98:	682b      	ldr	r3, [r5, #0]
 8007b9a:	f104 0c14 	add.w	ip, r4, #20
 8007b9e:	46ae      	mov	lr, r5
 8007ba0:	f04f 0a00 	mov.w	sl, #0
 8007ba4:	f8bc b000 	ldrh.w	fp, [ip]
 8007ba8:	f8be 7002 	ldrh.w	r7, [lr, #2]
 8007bac:	fb09 770b 	mla	r7, r9, fp, r7
 8007bb0:	4457      	add	r7, sl
 8007bb2:	b29b      	uxth	r3, r3
 8007bb4:	ea43 4307 	orr.w	r3, r3, r7, lsl #16
 8007bb8:	f84e 3b04 	str.w	r3, [lr], #4
 8007bbc:	f85c 3b04 	ldr.w	r3, [ip], #4
 8007bc0:	ea4f 4a13 	mov.w	sl, r3, lsr #16
 8007bc4:	f8be 3000 	ldrh.w	r3, [lr]
 8007bc8:	fb09 330a 	mla	r3, r9, sl, r3
 8007bcc:	eb03 4317 	add.w	r3, r3, r7, lsr #16
 8007bd0:	4562      	cmp	r2, ip
 8007bd2:	ea4f 4a13 	mov.w	sl, r3, lsr #16
 8007bd6:	d8e5      	bhi.n	8007ba4 <__multiply+0x10c>
 8007bd8:	9f01      	ldr	r7, [sp, #4]
 8007bda:	51eb      	str	r3, [r5, r7]
 8007bdc:	3504      	adds	r5, #4
 8007bde:	e799      	b.n	8007b14 <__multiply+0x7c>
 8007be0:	3e01      	subs	r6, #1
 8007be2:	e79b      	b.n	8007b1c <__multiply+0x84>
 8007be4:	08008998 	.word	0x08008998
 8007be8:	080089ba 	.word	0x080089ba

08007bec <__pow5mult>:
 8007bec:	e92d 43f8 	stmdb	sp!, {r3, r4, r5, r6, r7, r8, r9, lr}
 8007bf0:	4615      	mov	r5, r2
 8007bf2:	f012 0203 	ands.w	r2, r2, #3
 8007bf6:	4607      	mov	r7, r0
 8007bf8:	460e      	mov	r6, r1
 8007bfa:	d007      	beq.n	8007c0c <__pow5mult+0x20>
 8007bfc:	4c25      	ldr	r4, [pc, #148]	@ (8007c94 <__pow5mult+0xa8>)
 8007bfe:	3a01      	subs	r2, #1
 8007c00:	2300      	movs	r3, #0
 8007c02:	f854 2022 	ldr.w	r2, [r4, r2, lsl #2]
 8007c06:	f7ff fe9f 	bl	8007948 <__multadd>
 8007c0a:	4606      	mov	r6, r0
 8007c0c:	10ad      	asrs	r5, r5, #2
 8007c0e:	d03d      	beq.n	8007c8c <__pow5mult+0xa0>
 8007c10:	69fc      	ldr	r4, [r7, #28]
 8007c12:	b97c      	cbnz	r4, 8007c34 <__pow5mult+0x48>
 8007c14:	2010      	movs	r0, #16
 8007c16:	f7fe fa2b 	bl	8006070 <malloc>
 8007c1a:	4602      	mov	r2, r0
 8007c1c:	61f8      	str	r0, [r7, #28]
 8007c1e:	b928      	cbnz	r0, 8007c2c <__pow5mult+0x40>
 8007c20:	4b1d      	ldr	r3, [pc, #116]	@ (8007c98 <__pow5mult+0xac>)
 8007c22:	481e      	ldr	r0, [pc, #120]	@ (8007c9c <__pow5mult+0xb0>)
 8007c24:	f240 11b3 	movw	r1, #435	@ 0x1b3
 8007c28:	f000 fa8e 	bl	8008148 <__assert_func>
 8007c2c:	e9c0 4401 	strd	r4, r4, [r0, #4]
 8007c30:	6004      	str	r4, [r0, #0]
 8007c32:	60c4      	str	r4, [r0, #12]
 8007c34:	f8d7 801c 	ldr.w	r8, [r7, #28]
 8007c38:	f8d8 4008 	ldr.w	r4, [r8, #8]
 8007c3c:	b94c      	cbnz	r4, 8007c52 <__pow5mult+0x66>
 8007c3e:	f240 2171 	movw	r1, #625	@ 0x271
 8007c42:	4638      	mov	r0, r7
 8007c44:	f7ff ff12 	bl	8007a6c <__i2b>
 8007c48:	2300      	movs	r3, #0
 8007c4a:	f8c8 0008 	str.w	r0, [r8, #8]
 8007c4e:	4604      	mov	r4, r0
 8007c50:	6003      	str	r3, [r0, #0]
 8007c52:	f04f 0900 	mov.w	r9, #0
 8007c56:	07eb      	lsls	r3, r5, #31
 8007c58:	d50a      	bpl.n	8007c70 <__pow5mult+0x84>
 8007c5a:	4631      	mov	r1, r6
 8007c5c:	4622      	mov	r2, r4
 8007c5e:	4638      	mov	r0, r7
 8007c60:	f7ff ff1a 	bl	8007a98 <__multiply>
 8007c64:	4631      	mov	r1, r6
 8007c66:	4680      	mov	r8, r0
 8007c68:	4638      	mov	r0, r7
 8007c6a:	f7ff fe4b 	bl	8007904 <_Bfree>
 8007c6e:	4646      	mov	r6, r8
 8007c70:	106d      	asrs	r5, r5, #1
 8007c72:	d00b      	beq.n	8007c8c <__pow5mult+0xa0>
 8007c74:	6820      	ldr	r0, [r4, #0]
 8007c76:	b938      	cbnz	r0, 8007c88 <__pow5mult+0x9c>
 8007c78:	4622      	mov	r2, r4
 8007c7a:	4621      	mov	r1, r4
 8007c7c:	4638      	mov	r0, r7
 8007c7e:	f7ff ff0b 	bl	8007a98 <__multiply>
 8007c82:	6020      	str	r0, [r4, #0]
 8007c84:	f8c0 9000 	str.w	r9, [r0]
 8007c88:	4604      	mov	r4, r0
 8007c8a:	e7e4      	b.n	8007c56 <__pow5mult+0x6a>
 8007c8c:	4630      	mov	r0, r6
 8007c8e:	e8bd 83f8 	ldmia.w	sp!, {r3, r4, r5, r6, r7, r8, r9, pc}
 8007c92:	bf00      	nop
 8007c94:	08008a14 	.word	0x08008a14
 8007c98:	08008929 	.word	0x08008929
 8007c9c:	080089ba 	.word	0x080089ba

08007ca0 <__lshift>:
 8007ca0:	e92d 47f0 	stmdb	sp!, {r4, r5, r6, r7, r8, r9, sl, lr}
 8007ca4:	460c      	mov	r4, r1
 8007ca6:	6849      	ldr	r1, [r1, #4]
 8007ca8:	6923      	ldr	r3, [r4, #16]
 8007caa:	eb03 1862 	add.w	r8, r3, r2, asr #5
 8007cae:	68a3      	ldr	r3, [r4, #8]
 8007cb0:	4607      	mov	r7, r0
 8007cb2:	4691      	mov	r9, r2
 8007cb4:	ea4f 1a62 	mov.w	sl, r2, asr #5
 8007cb8:	f108 0601 	add.w	r6, r8, #1
 8007cbc:	42b3      	cmp	r3, r6
 8007cbe:	db0b      	blt.n	8007cd8 <__lshift+0x38>
 8007cc0:	4638      	mov	r0, r7
 8007cc2:	f7ff fddf 	bl	8007884 <_Balloc>
 8007cc6:	4605      	mov	r5, r0
 8007cc8:	b948      	cbnz	r0, 8007cde <__lshift+0x3e>
 8007cca:	4602      	mov	r2, r0
 8007ccc:	4b28      	ldr	r3, [pc, #160]	@ (8007d70 <__lshift+0xd0>)
 8007cce:	4829      	ldr	r0, [pc, #164]	@ (8007d74 <__lshift+0xd4>)
 8007cd0:	f44f 71ef 	mov.w	r1, #478	@ 0x1de
 8007cd4:	f000 fa38 	bl	8008148 <__assert_func>
 8007cd8:	3101      	adds	r1, #1
 8007cda:	005b      	lsls	r3, r3, #1
 8007cdc:	e7ee      	b.n	8007cbc <__lshift+0x1c>
 8007cde:	2300      	movs	r3, #0
 8007ce0:	f100 0114 	add.w	r1, r0, #20
 8007ce4:	f100 0210 	add.w	r2, r0, #16
 8007ce8:	4618      	mov	r0, r3
 8007cea:	4553      	cmp	r3, sl
 8007cec:	db33      	blt.n	8007d56 <__lshift+0xb6>
 8007cee:	6920      	ldr	r0, [r4, #16]
 8007cf0:	ea2a 7aea 	bic.w	sl, sl, sl, asr #31
 8007cf4:	f104 0314 	add.w	r3, r4, #20
 8007cf8:	f019 091f 	ands.w	r9, r9, #31
 8007cfc:	eb01 018a 	add.w	r1, r1, sl, lsl #2
 8007d00:	eb03 0c80 	add.w	ip, r3, r0, lsl #2
 8007d04:	d02b      	beq.n	8007d5e <__lshift+0xbe>
 8007d06:	f1c9 0e20 	rsb	lr, r9, #32
 8007d0a:	468a      	mov	sl, r1
 8007d0c:	2200      	movs	r2, #0
 8007d0e:	6818      	ldr	r0, [r3, #0]
 8007d10:	fa00 f009 	lsl.w	r0, r0, r9
 8007d14:	4310      	orrs	r0, r2
 8007d16:	f84a 0b04 	str.w	r0, [sl], #4
 8007d1a:	f853 2b04 	ldr.w	r2, [r3], #4
 8007d1e:	459c      	cmp	ip, r3
 8007d20:	fa22 f20e 	lsr.w	r2, r2, lr
 8007d24:	d8f3      	bhi.n	8007d0e <__lshift+0x6e>
 8007d26:	ebac 0304 	sub.w	r3, ip, r4
 8007d2a:	3b15      	subs	r3, #21
 8007d2c:	f023 0303 	bic.w	r3, r3, #3
 8007d30:	3304      	adds	r3, #4
 8007d32:	f104 0015 	add.w	r0, r4, #21
 8007d36:	4584      	cmp	ip, r0
 8007d38:	bf38      	it	cc
 8007d3a:	2304      	movcc	r3, #4
 8007d3c:	50ca      	str	r2, [r1, r3]
 8007d3e:	b10a      	cbz	r2, 8007d44 <__lshift+0xa4>
 8007d40:	f108 0602 	add.w	r6, r8, #2
 8007d44:	3e01      	subs	r6, #1
 8007d46:	4638      	mov	r0, r7
 8007d48:	612e      	str	r6, [r5, #16]
 8007d4a:	4621      	mov	r1, r4
 8007d4c:	f7ff fdda 	bl	8007904 <_Bfree>
 8007d50:	4628      	mov	r0, r5
 8007d52:	e8bd 87f0 	ldmia.w	sp!, {r4, r5, r6, r7, r8, r9, sl, pc}
 8007d56:	f842 0f04 	str.w	r0, [r2, #4]!
 8007d5a:	3301      	adds	r3, #1
 8007d5c:	e7c5      	b.n	8007cea <__lshift+0x4a>
 8007d5e:	3904      	subs	r1, #4
 8007d60:	f853 2b04 	ldr.w	r2, [r3], #4
 8007d64:	f841 2f04 	str.w	r2, [r1, #4]!
 8007d68:	459c      	cmp	ip, r3
 8007d6a:	d8f9      	bhi.n	8007d60 <__lshift+0xc0>
 8007d6c:	e7ea      	b.n	8007d44 <__lshift+0xa4>
 8007d6e:	bf00      	nop
 8007d70:	08008998 	.word	0x08008998
 8007d74:	080089ba 	.word	0x080089ba

08007d78 <__mcmp>:
 8007d78:	690a      	ldr	r2, [r1, #16]
 8007d7a:	4603      	mov	r3, r0
 8007d7c:	6900      	ldr	r0, [r0, #16]
 8007d7e:	1a80      	subs	r0, r0, r2
 8007d80:	b530      	push	{r4, r5, lr}
 8007d82:	d10e      	bne.n	8007da2 <__mcmp+0x2a>
 8007d84:	3314      	adds	r3, #20
 8007d86:	3114      	adds	r1, #20
 8007d88:	eb03 0482 	add.w	r4, r3, r2, lsl #2
 8007d8c:	eb01 0182 	add.w	r1, r1, r2, lsl #2
 8007d90:	f854 5d04 	ldr.w	r5, [r4, #-4]!
 8007d94:	f851 2d04 	ldr.w	r2, [r1, #-4]!
 8007d98:	4295      	cmp	r5, r2
 8007d9a:	d003      	beq.n	8007da4 <__mcmp+0x2c>
 8007d9c:	d205      	bcs.n	8007daa <__mcmp+0x32>
 8007d9e:	f04f 30ff 	mov.w	r0, #4294967295	@ 0xffffffff
 8007da2:	bd30      	pop	{r4, r5, pc}
 8007da4:	42a3      	cmp	r3, r4
 8007da6:	d3f3      	bcc.n	8007d90 <__mcmp+0x18>
 8007da8:	e7fb      	b.n	8007da2 <__mcmp+0x2a>
 8007daa:	2001      	movs	r0, #1
 8007dac:	e7f9      	b.n	8007da2 <__mcmp+0x2a>
	...

08007db0 <__mdiff>:
 8007db0:	e92d 4ff7 	stmdb	sp!, {r0, r1, r2, r4, r5, r6, r7, r8, r9, sl, fp, lr}
 8007db4:	4689      	mov	r9, r1
 8007db6:	4606      	mov	r6, r0
 8007db8:	4611      	mov	r1, r2
 8007dba:	4648      	mov	r0, r9
 8007dbc:	4614      	mov	r4, r2
 8007dbe:	f7ff ffdb 	bl	8007d78 <__mcmp>
 8007dc2:	1e05      	subs	r5, r0, #0
 8007dc4:	d112      	bne.n	8007dec <__mdiff+0x3c>
 8007dc6:	4629      	mov	r1, r5
 8007dc8:	4630      	mov	r0, r6
 8007dca:	f7ff fd5b 	bl	8007884 <_Balloc>
 8007dce:	4602      	mov	r2, r0
 8007dd0:	b928      	cbnz	r0, 8007dde <__mdiff+0x2e>
 8007dd2:	4b3f      	ldr	r3, [pc, #252]	@ (8007ed0 <__mdiff+0x120>)
 8007dd4:	f240 2137 	movw	r1, #567	@ 0x237
 8007dd8:	483e      	ldr	r0, [pc, #248]	@ (8007ed4 <__mdiff+0x124>)
 8007dda:	f000 f9b5 	bl	8008148 <__assert_func>
 8007dde:	2301      	movs	r3, #1
 8007de0:	e9c0 3504 	strd	r3, r5, [r0, #16]
 8007de4:	4610      	mov	r0, r2
 8007de6:	b003      	add	sp, #12
 8007de8:	e8bd 8ff0 	ldmia.w	sp!, {r4, r5, r6, r7, r8, r9, sl, fp, pc}
 8007dec:	bfbc      	itt	lt
 8007dee:	464b      	movlt	r3, r9
 8007df0:	46a1      	movlt	r9, r4
 8007df2:	4630      	mov	r0, r6
 8007df4:	f8d9 1004 	ldr.w	r1, [r9, #4]
 8007df8:	bfba      	itte	lt
 8007dfa:	461c      	movlt	r4, r3
 8007dfc:	2501      	movlt	r5, #1
 8007dfe:	2500      	movge	r5, #0
 8007e00:	f7ff fd40 	bl	8007884 <_Balloc>
 8007e04:	4602      	mov	r2, r0
 8007e06:	b918      	cbnz	r0, 8007e10 <__mdiff+0x60>
 8007e08:	4b31      	ldr	r3, [pc, #196]	@ (8007ed0 <__mdiff+0x120>)
 8007e0a:	f240 2145 	movw	r1, #581	@ 0x245
 8007e0e:	e7e3      	b.n	8007dd8 <__mdiff+0x28>
 8007e10:	f8d9 7010 	ldr.w	r7, [r9, #16]
 8007e14:	6926      	ldr	r6, [r4, #16]
 8007e16:	60c5      	str	r5, [r0, #12]
 8007e18:	f109 0310 	add.w	r3, r9, #16
 8007e1c:	f109 0514 	add.w	r5, r9, #20
 8007e20:	f104 0e14 	add.w	lr, r4, #20
 8007e24:	f100 0b14 	add.w	fp, r0, #20
 8007e28:	eb05 0887 	add.w	r8, r5, r7, lsl #2
 8007e2c:	eb0e 0686 	add.w	r6, lr, r6, lsl #2
 8007e30:	9301      	str	r3, [sp, #4]
 8007e32:	46d9      	mov	r9, fp
 8007e34:	f04f 0c00 	mov.w	ip, #0
 8007e38:	9b01      	ldr	r3, [sp, #4]
 8007e3a:	f85e 0b04 	ldr.w	r0, [lr], #4
 8007e3e:	f853 af04 	ldr.w	sl, [r3, #4]!
 8007e42:	9301      	str	r3, [sp, #4]
 8007e44:	fa1f f38a 	uxth.w	r3, sl
 8007e48:	4619      	mov	r1, r3
 8007e4a:	b283      	uxth	r3, r0
 8007e4c:	1acb      	subs	r3, r1, r3
 8007e4e:	0c00      	lsrs	r0, r0, #16
 8007e50:	4463      	add	r3, ip
 8007e52:	ebc0 401a 	rsb	r0, r0, sl, lsr #16
 8007e56:	eb00 4023 	add.w	r0, r0, r3, asr #16
 8007e5a:	b29b      	uxth	r3, r3
 8007e5c:	ea43 4300 	orr.w	r3, r3, r0, lsl #16
 8007e60:	4576      	cmp	r6, lr
 8007e62:	f849 3b04 	str.w	r3, [r9], #4
 8007e66:	ea4f 4c20 	mov.w	ip, r0, asr #16
 8007e6a:	d8e5      	bhi.n	8007e38 <__mdiff+0x88>
 8007e6c:	1b33      	subs	r3, r6, r4
 8007e6e:	3b15      	subs	r3, #21
 8007e70:	f023 0303 	bic.w	r3, r3, #3
 8007e74:	3415      	adds	r4, #21
 8007e76:	3304      	adds	r3, #4
 8007e78:	42a6      	cmp	r6, r4
 8007e7a:	bf38      	it	cc
 8007e7c:	2304      	movcc	r3, #4
 8007e7e:	441d      	add	r5, r3
 8007e80:	445b      	add	r3, fp
 8007e82:	461e      	mov	r6, r3
 8007e84:	462c      	mov	r4, r5
 8007e86:	4544      	cmp	r4, r8
 8007e88:	d30e      	bcc.n	8007ea8 <__mdiff+0xf8>
 8007e8a:	f108 0103 	add.w	r1, r8, #3
 8007e8e:	1b49      	subs	r1, r1, r5
 8007e90:	f021 0103 	bic.w	r1, r1, #3
 8007e94:	3d03      	subs	r5, #3
 8007e96:	45a8      	cmp	r8, r5
 8007e98:	bf38      	it	cc
 8007e9a:	2100      	movcc	r1, #0
 8007e9c:	440b      	add	r3, r1
 8007e9e:	f853 1d04 	ldr.w	r1, [r3, #-4]!
 8007ea2:	b191      	cbz	r1, 8007eca <__mdiff+0x11a>
 8007ea4:	6117      	str	r7, [r2, #16]
 8007ea6:	e79d      	b.n	8007de4 <__mdiff+0x34>
 8007ea8:	f854 1b04 	ldr.w	r1, [r4], #4
 8007eac:	46e6      	mov	lr, ip
 8007eae:	0c08      	lsrs	r0, r1, #16
 8007eb0:	fa1c fc81 	uxtah	ip, ip, r1
 8007eb4:	4471      	add	r1, lr
 8007eb6:	eb00 402c 	add.w	r0, r0, ip, asr #16
 8007eba:	b289      	uxth	r1, r1
 8007ebc:	ea41 4100 	orr.w	r1, r1, r0, lsl #16
 8007ec0:	f846 1b04 	str.w	r1, [r6], #4
 8007ec4:	ea4f 4c20 	mov.w	ip, r0, asr #16
 8007ec8:	e7dd      	b.n	8007e86 <__mdiff+0xd6>
 8007eca:	3f01      	subs	r7, #1
 8007ecc:	e7e7      	b.n	8007e9e <__mdiff+0xee>
 8007ece:	bf00      	nop
 8007ed0:	08008998 	.word	0x08008998
 8007ed4:	080089ba 	.word	0x080089ba

08007ed8 <__d2b>:
 8007ed8:	e92d 43f7 	stmdb	sp!, {r0, r1, r2, r4, r5, r6, r7, r8, r9, lr}
 8007edc:	460f      	mov	r7, r1
 8007ede:	2101      	movs	r1, #1
 8007ee0:	ec59 8b10 	vmov	r8, r9, d0
 8007ee4:	4616      	mov	r6, r2
 8007ee6:	f7ff fccd 	bl	8007884 <_Balloc>
 8007eea:	4604      	mov	r4, r0
 8007eec:	b930      	cbnz	r0, 8007efc <__d2b+0x24>
 8007eee:	4602      	mov	r2, r0
 8007ef0:	4b23      	ldr	r3, [pc, #140]	@ (8007f80 <__d2b+0xa8>)
 8007ef2:	4824      	ldr	r0, [pc, #144]	@ (8007f84 <__d2b+0xac>)
 8007ef4:	f240 310f 	movw	r1, #783	@ 0x30f
 8007ef8:	f000 f926 	bl	8008148 <__assert_func>
 8007efc:	f3c9 550a 	ubfx	r5, r9, #20, #11
 8007f00:	f3c9 0313 	ubfx	r3, r9, #0, #20
 8007f04:	b10d      	cbz	r5, 8007f0a <__d2b+0x32>
 8007f06:	f443 1380 	orr.w	r3, r3, #1048576	@ 0x100000
 8007f0a:	9301      	str	r3, [sp, #4]
 8007f0c:	f1b8 0300 	subs.w	r3, r8, #0
 8007f10:	d023      	beq.n	8007f5a <__d2b+0x82>
 8007f12:	4668      	mov	r0, sp
 8007f14:	9300      	str	r3, [sp, #0]
 8007f16:	f7ff fd7c 	bl	8007a12 <__lo0bits>
 8007f1a:	e9dd 1200 	ldrd	r1, r2, [sp]
 8007f1e:	b1d0      	cbz	r0, 8007f56 <__d2b+0x7e>
 8007f20:	f1c0 0320 	rsb	r3, r0, #32
 8007f24:	fa02 f303 	lsl.w	r3, r2, r3
 8007f28:	430b      	orrs	r3, r1
 8007f2a:	40c2      	lsrs	r2, r0
 8007f2c:	6163      	str	r3, [r4, #20]
 8007f2e:	9201      	str	r2, [sp, #4]
 8007f30:	9b01      	ldr	r3, [sp, #4]
 8007f32:	61a3      	str	r3, [r4, #24]
 8007f34:	2b00      	cmp	r3, #0
 8007f36:	bf0c      	ite	eq
 8007f38:	2201      	moveq	r2, #1
 8007f3a:	2202      	movne	r2, #2
 8007f3c:	6122      	str	r2, [r4, #16]
 8007f3e:	b1a5      	cbz	r5, 8007f6a <__d2b+0x92>
 8007f40:	f2a5 4533 	subw	r5, r5, #1075	@ 0x433
 8007f44:	4405      	add	r5, r0
 8007f46:	603d      	str	r5, [r7, #0]
 8007f48:	f1c0 0035 	rsb	r0, r0, #53	@ 0x35
 8007f4c:	6030      	str	r0, [r6, #0]
 8007f4e:	4620      	mov	r0, r4
 8007f50:	b003      	add	sp, #12
 8007f52:	e8bd 83f0 	ldmia.w	sp!, {r4, r5, r6, r7, r8, r9, pc}
 8007f56:	6161      	str	r1, [r4, #20]
 8007f58:	e7ea      	b.n	8007f30 <__d2b+0x58>
 8007f5a:	a801      	add	r0, sp, #4
 8007f5c:	f7ff fd59 	bl	8007a12 <__lo0bits>
 8007f60:	9b01      	ldr	r3, [sp, #4]
 8007f62:	6163      	str	r3, [r4, #20]
 8007f64:	3020      	adds	r0, #32
 8007f66:	2201      	movs	r2, #1
 8007f68:	e7e8      	b.n	8007f3c <__d2b+0x64>
 8007f6a:	eb04 0382 	add.w	r3, r4, r2, lsl #2
 8007f6e:	f2a0 4032 	subw	r0, r0, #1074	@ 0x432
 8007f72:	6038      	str	r0, [r7, #0]
 8007f74:	6918      	ldr	r0, [r3, #16]
 8007f76:	f7ff fd2d 	bl	80079d4 <__hi0bits>
 8007f7a:	ebc0 1042 	rsb	r0, r0, r2, lsl #5
 8007f7e:	e7e5      	b.n	8007f4c <__d2b+0x74>
 8007f80:	08008998 	.word	0x08008998
 8007f84:	080089ba 	.word	0x080089ba

08007f88 <__sread>:
 8007f88:	b510      	push	{r4, lr}
 8007f8a:	460c      	mov	r4, r1
 8007f8c:	f9b1 100e 	ldrsh.w	r1, [r1, #14]
 8007f90:	f000 f8a8 	bl	80080e4 <_read_r>
 8007f94:	2800      	cmp	r0, #0
 8007f96:	bfab      	itete	ge
 8007f98:	6d63      	ldrge	r3, [r4, #84]	@ 0x54
 8007f9a:	89a3      	ldrhlt	r3, [r4, #12]
 8007f9c:	181b      	addge	r3, r3, r0
 8007f9e:	f423 5380 	biclt.w	r3, r3, #4096	@ 0x1000
 8007fa2:	bfac      	ite	ge
 8007fa4:	6563      	strge	r3, [r4, #84]	@ 0x54
 8007fa6:	81a3      	strhlt	r3, [r4, #12]
 8007fa8:	bd10      	pop	{r4, pc}

08007faa <__swrite>:
 8007faa:	e92d 41f0 	stmdb	sp!, {r4, r5, r6, r7, r8, lr}
 8007fae:	461f      	mov	r7, r3
 8007fb0:	898b      	ldrh	r3, [r1, #12]
 8007fb2:	05db      	lsls	r3, r3, #23
 8007fb4:	4605      	mov	r5, r0
 8007fb6:	460c      	mov	r4, r1
 8007fb8:	4616      	mov	r6, r2
 8007fba:	d505      	bpl.n	8007fc8 <__swrite+0x1e>
 8007fbc:	f9b1 100e 	ldrsh.w	r1, [r1, #14]
 8007fc0:	2302      	movs	r3, #2
 8007fc2:	2200      	movs	r2, #0
 8007fc4:	f000 f87c 	bl	80080c0 <_lseek_r>
 8007fc8:	89a3      	ldrh	r3, [r4, #12]
 8007fca:	f9b4 100e 	ldrsh.w	r1, [r4, #14]
 8007fce:	f423 5380 	bic.w	r3, r3, #4096	@ 0x1000
 8007fd2:	81a3      	strh	r3, [r4, #12]
 8007fd4:	4632      	mov	r2, r6
 8007fd6:	463b      	mov	r3, r7
 8007fd8:	4628      	mov	r0, r5
 8007fda:	e8bd 41f0 	ldmia.w	sp!, {r4, r5, r6, r7, r8, lr}
 8007fde:	f000 b893 	b.w	8008108 <_write_r>

08007fe2 <__sseek>:
 8007fe2:	b510      	push	{r4, lr}
 8007fe4:	460c      	mov	r4, r1
 8007fe6:	f9b1 100e 	ldrsh.w	r1, [r1, #14]
 8007fea:	f000 f869 	bl	80080c0 <_lseek_r>
 8007fee:	1c43      	adds	r3, r0, #1
 8007ff0:	89a3      	ldrh	r3, [r4, #12]
 8007ff2:	bf15      	itete	ne
 8007ff4:	6560      	strne	r0, [r4, #84]	@ 0x54
 8007ff6:	f423 5380 	biceq.w	r3, r3, #4096	@ 0x1000
 8007ffa:	f443 5380 	orrne.w	r3, r3, #4096	@ 0x1000
 8007ffe:	81a3      	strheq	r3, [r4, #12]
 8008000:	bf18      	it	ne
 8008002:	81a3      	strhne	r3, [r4, #12]
 8008004:	bd10      	pop	{r4, pc}

08008006 <__sclose>:
 8008006:	f9b1 100e 	ldrsh.w	r1, [r1, #14]
 800800a:	f000 b849 	b.w	80080a0 <_close_r>

0800800e <_realloc_r>:
 800800e:	e92d 41f0 	stmdb	sp!, {r4, r5, r6, r7, r8, lr}
 8008012:	4680      	mov	r8, r0
 8008014:	4615      	mov	r5, r2
 8008016:	460c      	mov	r4, r1
 8008018:	b921      	cbnz	r1, 8008024 <_realloc_r+0x16>
 800801a:	e8bd 41f0 	ldmia.w	sp!, {r4, r5, r6, r7, r8, lr}
 800801e:	4611      	mov	r1, r2
 8008020:	f7fe b850 	b.w	80060c4 <_malloc_r>
 8008024:	b92a      	cbnz	r2, 8008032 <_realloc_r+0x24>
 8008026:	f7ff f9df 	bl	80073e8 <_free_r>
 800802a:	2400      	movs	r4, #0
 800802c:	4620      	mov	r0, r4
 800802e:	e8bd 81f0 	ldmia.w	sp!, {r4, r5, r6, r7, r8, pc}
 8008032:	f000 f8b9 	bl	80081a8 <_malloc_usable_size_r>
 8008036:	4285      	cmp	r5, r0
 8008038:	4606      	mov	r6, r0
 800803a:	d802      	bhi.n	8008042 <_realloc_r+0x34>
 800803c:	ebb5 0f50 	cmp.w	r5, r0, lsr #1
 8008040:	d8f4      	bhi.n	800802c <_realloc_r+0x1e>
 8008042:	4629      	mov	r1, r5
 8008044:	4640      	mov	r0, r8
 8008046:	f7fe f83d 	bl	80060c4 <_malloc_r>
 800804a:	4607      	mov	r7, r0
 800804c:	2800      	cmp	r0, #0
 800804e:	d0ec      	beq.n	800802a <_realloc_r+0x1c>
 8008050:	42b5      	cmp	r5, r6
 8008052:	462a      	mov	r2, r5
 8008054:	4621      	mov	r1, r4
 8008056:	bf28      	it	cs
 8008058:	4632      	movcs	r2, r6
 800805a:	f000 f867 	bl	800812c <memcpy>
 800805e:	4621      	mov	r1, r4
 8008060:	4640      	mov	r0, r8
 8008062:	f7ff f9c1 	bl	80073e8 <_free_r>
 8008066:	463c      	mov	r4, r7
 8008068:	e7e0      	b.n	800802c <_realloc_r+0x1e>

0800806a <memmove>:
 800806a:	4288      	cmp	r0, r1
 800806c:	b510      	push	{r4, lr}
 800806e:	eb01 0402 	add.w	r4, r1, r2
 8008072:	d902      	bls.n	800807a <memmove+0x10>
 8008074:	4284      	cmp	r4, r0
 8008076:	4623      	mov	r3, r4
 8008078:	d807      	bhi.n	800808a <memmove+0x20>
 800807a:	1e43      	subs	r3, r0, #1
 800807c:	42a1      	cmp	r1, r4
 800807e:	d008      	beq.n	8008092 <memmove+0x28>
 8008080:	f811 2b01 	ldrb.w	r2, [r1], #1
 8008084:	f803 2f01 	strb.w	r2, [r3, #1]!
 8008088:	e7f8      	b.n	800807c <memmove+0x12>
 800808a:	4402      	add	r2, r0
 800808c:	4601      	mov	r1, r0
 800808e:	428a      	cmp	r2, r1
 8008090:	d100      	bne.n	8008094 <memmove+0x2a>
 8008092:	bd10      	pop	{r4, pc}
 8008094:	f813 4d01 	ldrb.w	r4, [r3, #-1]!
 8008098:	f802 4d01 	strb.w	r4, [r2, #-1]!
 800809c:	e7f7      	b.n	800808e <memmove+0x24>
	...

080080a0 <_close_r>:
 80080a0:	b538      	push	{r3, r4, r5, lr}
 80080a2:	4d06      	ldr	r5, [pc, #24]	@ (80080bc <_close_r+0x1c>)
 80080a4:	2300      	movs	r3, #0
 80080a6:	4604      	mov	r4, r0
 80080a8:	4608      	mov	r0, r1
 80080aa:	602b      	str	r3, [r5, #0]
 80080ac:	f7fa fa3c 	bl	8002528 <_close>
 80080b0:	1c43      	adds	r3, r0, #1
 80080b2:	d102      	bne.n	80080ba <_close_r+0x1a>
 80080b4:	682b      	ldr	r3, [r5, #0]
 80080b6:	b103      	cbz	r3, 80080ba <_close_r+0x1a>
 80080b8:	6023      	str	r3, [r4, #0]
 80080ba:	bd38      	pop	{r3, r4, r5, pc}
 80080bc:	200004bc 	.word	0x200004bc

080080c0 <_lseek_r>:
 80080c0:	b538      	push	{r3, r4, r5, lr}
 80080c2:	4d07      	ldr	r5, [pc, #28]	@ (80080e0 <_lseek_r+0x20>)
 80080c4:	4604      	mov	r4, r0
 80080c6:	4608      	mov	r0, r1
 80080c8:	4611      	mov	r1, r2
 80080ca:	2200      	movs	r2, #0
 80080cc:	602a      	str	r2, [r5, #0]
 80080ce:	461a      	mov	r2, r3
 80080d0:	f7fa fa51 	bl	8002576 <_lseek>
 80080d4:	1c43      	adds	r3, r0, #1
 80080d6:	d102      	bne.n	80080de <_lseek_r+0x1e>
 80080d8:	682b      	ldr	r3, [r5, #0]
 80080da:	b103      	cbz	r3, 80080de <_lseek_r+0x1e>
 80080dc:	6023      	str	r3, [r4, #0]
 80080de:	bd38      	pop	{r3, r4, r5, pc}
 80080e0:	200004bc 	.word	0x200004bc

080080e4 <_read_r>:
 80080e4:	b538      	push	{r3, r4, r5, lr}
 80080e6:	4d07      	ldr	r5, [pc, #28]	@ (8008104 <_read_r+0x20>)
 80080e8:	4604      	mov	r4, r0
 80080ea:	4608      	mov	r0, r1
 80080ec:	4611      	mov	r1, r2
 80080ee:	2200      	movs	r2, #0
 80080f0:	602a      	str	r2, [r5, #0]
 80080f2:	461a      	mov	r2, r3
 80080f4:	f7fa f9df 	bl	80024b6 <_read>
 80080f8:	1c43      	adds	r3, r0, #1
 80080fa:	d102      	bne.n	8008102 <_read_r+0x1e>
 80080fc:	682b      	ldr	r3, [r5, #0]
 80080fe:	b103      	cbz	r3, 8008102 <_read_r+0x1e>
 8008100:	6023      	str	r3, [r4, #0]
 8008102:	bd38      	pop	{r3, r4, r5, pc}
 8008104:	200004bc 	.word	0x200004bc

08008108 <_write_r>:
 8008108:	b538      	push	{r3, r4, r5, lr}
 800810a:	4d07      	ldr	r5, [pc, #28]	@ (8008128 <_write_r+0x20>)
 800810c:	4604      	mov	r4, r0
 800810e:	4608      	mov	r0, r1
 8008110:	4611      	mov	r1, r2
 8008112:	2200      	movs	r2, #0
 8008114:	602a      	str	r2, [r5, #0]
 8008116:	461a      	mov	r2, r3
 8008118:	f7fa f9ea 	bl	80024f0 <_write>
 800811c:	1c43      	adds	r3, r0, #1
 800811e:	d102      	bne.n	8008126 <_write_r+0x1e>
 8008120:	682b      	ldr	r3, [r5, #0]
 8008122:	b103      	cbz	r3, 8008126 <_write_r+0x1e>
 8008124:	6023      	str	r3, [r4, #0]
 8008126:	bd38      	pop	{r3, r4, r5, pc}
 8008128:	200004bc 	.word	0x200004bc

0800812c <memcpy>:
 800812c:	440a      	add	r2, r1
 800812e:	4291      	cmp	r1, r2
 8008130:	f100 33ff 	add.w	r3, r0, #4294967295	@ 0xffffffff
 8008134:	d100      	bne.n	8008138 <memcpy+0xc>
 8008136:	4770      	bx	lr
 8008138:	b510      	push	{r4, lr}
 800813a:	f811 4b01 	ldrb.w	r4, [r1], #1
 800813e:	f803 4f01 	strb.w	r4, [r3, #1]!
 8008142:	4291      	cmp	r1, r2
 8008144:	d1f9      	bne.n	800813a <memcpy+0xe>
 8008146:	bd10      	pop	{r4, pc}

08008148 <__assert_func>:
 8008148:	b51f      	push	{r0, r1, r2, r3, r4, lr}
 800814a:	4614      	mov	r4, r2
 800814c:	461a      	mov	r2, r3
 800814e:	4b09      	ldr	r3, [pc, #36]	@ (8008174 <__assert_func+0x2c>)
 8008150:	681b      	ldr	r3, [r3, #0]
 8008152:	4605      	mov	r5, r0
 8008154:	68d8      	ldr	r0, [r3, #12]
 8008156:	b954      	cbnz	r4, 800816e <__assert_func+0x26>
 8008158:	4b07      	ldr	r3, [pc, #28]	@ (8008178 <__assert_func+0x30>)
 800815a:	461c      	mov	r4, r3
 800815c:	e9cd 3401 	strd	r3, r4, [sp, #4]
 8008160:	9100      	str	r1, [sp, #0]
 8008162:	462b      	mov	r3, r5
 8008164:	4905      	ldr	r1, [pc, #20]	@ (800817c <__assert_func+0x34>)
 8008166:	f000 f827 	bl	80081b8 <fiprintf>
 800816a:	f000 f844 	bl	80081f6 <abort>
 800816e:	4b04      	ldr	r3, [pc, #16]	@ (8008180 <__assert_func+0x38>)
 8008170:	e7f4      	b.n	800815c <__assert_func+0x14>
 8008172:	bf00      	nop
 8008174:	20000018 	.word	0x20000018
 8008178:	08008c56 	.word	0x08008c56
 800817c:	08008c28 	.word	0x08008c28
 8008180:	08008c1b 	.word	0x08008c1b

08008184 <__ascii_mbtowc>:
 8008184:	b082      	sub	sp, #8
 8008186:	b901      	cbnz	r1, 800818a <__ascii_mbtowc+0x6>
 8008188:	a901      	add	r1, sp, #4
 800818a:	b142      	cbz	r2, 800819e <__ascii_mbtowc+0x1a>
 800818c:	b14b      	cbz	r3, 80081a2 <__ascii_mbtowc+0x1e>
 800818e:	7813      	ldrb	r3, [r2, #0]
 8008190:	600b      	str	r3, [r1, #0]
 8008192:	7812      	ldrb	r2, [r2, #0]
 8008194:	1e10      	subs	r0, r2, #0
 8008196:	bf18      	it	ne
 8008198:	2001      	movne	r0, #1
 800819a:	b002      	add	sp, #8
 800819c:	4770      	bx	lr
 800819e:	4610      	mov	r0, r2
 80081a0:	e7fb      	b.n	800819a <__ascii_mbtowc+0x16>
 80081a2:	f06f 0001 	mvn.w	r0, #1
 80081a6:	e7f8      	b.n	800819a <__ascii_mbtowc+0x16>

080081a8 <_malloc_usable_size_r>:
 80081a8:	f851 3c04 	ldr.w	r3, [r1, #-4]
 80081ac:	1f18      	subs	r0, r3, #4
 80081ae:	2b00      	cmp	r3, #0
 80081b0:	bfbc      	itt	lt
 80081b2:	580b      	ldrlt	r3, [r1, r0]
 80081b4:	18c0      	addlt	r0, r0, r3
 80081b6:	4770      	bx	lr

080081b8 <fiprintf>:
 80081b8:	b40e      	push	{r1, r2, r3}
 80081ba:	b503      	push	{r0, r1, lr}
 80081bc:	4601      	mov	r1, r0
 80081be:	ab03      	add	r3, sp, #12
 80081c0:	4805      	ldr	r0, [pc, #20]	@ (80081d8 <fiprintf+0x20>)
 80081c2:	f853 2b04 	ldr.w	r2, [r3], #4
 80081c6:	6800      	ldr	r0, [r0, #0]
 80081c8:	9301      	str	r3, [sp, #4]
 80081ca:	f000 f845 	bl	8008258 <_vfiprintf_r>
 80081ce:	b002      	add	sp, #8
 80081d0:	f85d eb04 	ldr.w	lr, [sp], #4
 80081d4:	b003      	add	sp, #12
 80081d6:	4770      	bx	lr
 80081d8:	20000018 	.word	0x20000018

080081dc <__ascii_wctomb>:
 80081dc:	4603      	mov	r3, r0
 80081de:	4608      	mov	r0, r1
 80081e0:	b141      	cbz	r1, 80081f4 <__ascii_wctomb+0x18>
 80081e2:	2aff      	cmp	r2, #255	@ 0xff
 80081e4:	d904      	bls.n	80081f0 <__ascii_wctomb+0x14>
 80081e6:	228a      	movs	r2, #138	@ 0x8a
 80081e8:	601a      	str	r2, [r3, #0]
 80081ea:	f04f 30ff 	mov.w	r0, #4294967295	@ 0xffffffff
 80081ee:	4770      	bx	lr
 80081f0:	700a      	strb	r2, [r1, #0]
 80081f2:	2001      	movs	r0, #1
 80081f4:	4770      	bx	lr

080081f6 <abort>:
 80081f6:	b508      	push	{r3, lr}
 80081f8:	2006      	movs	r0, #6
 80081fa:	f000 fa85 	bl	8008708 <raise>
 80081fe:	2001      	movs	r0, #1
 8008200:	f7fa f94e 	bl	80024a0 <_exit>

08008204 <__sfputc_r>:
 8008204:	6893      	ldr	r3, [r2, #8]
 8008206:	3b01      	subs	r3, #1
 8008208:	2b00      	cmp	r3, #0
 800820a:	b410      	push	{r4}
 800820c:	6093      	str	r3, [r2, #8]
 800820e:	da08      	bge.n	8008222 <__sfputc_r+0x1e>
 8008210:	6994      	ldr	r4, [r2, #24]
 8008212:	42a3      	cmp	r3, r4
 8008214:	db01      	blt.n	800821a <__sfputc_r+0x16>
 8008216:	290a      	cmp	r1, #10
 8008218:	d103      	bne.n	8008222 <__sfputc_r+0x1e>
 800821a:	f85d 4b04 	ldr.w	r4, [sp], #4
 800821e:	f000 b933 	b.w	8008488 <__swbuf_r>
 8008222:	6813      	ldr	r3, [r2, #0]
 8008224:	1c58      	adds	r0, r3, #1
 8008226:	6010      	str	r0, [r2, #0]
 8008228:	7019      	strb	r1, [r3, #0]
 800822a:	4608      	mov	r0, r1
 800822c:	f85d 4b04 	ldr.w	r4, [sp], #4
 8008230:	4770      	bx	lr

08008232 <__sfputs_r>:
 8008232:	b5f8      	push	{r3, r4, r5, r6, r7, lr}
 8008234:	4606      	mov	r6, r0
 8008236:	460f      	mov	r7, r1
 8008238:	4614      	mov	r4, r2
 800823a:	18d5      	adds	r5, r2, r3
 800823c:	42ac      	cmp	r4, r5
 800823e:	d101      	bne.n	8008244 <__sfputs_r+0x12>
 8008240:	2000      	movs	r0, #0
 8008242:	e007      	b.n	8008254 <__sfputs_r+0x22>
 8008244:	f814 1b01 	ldrb.w	r1, [r4], #1
 8008248:	463a      	mov	r2, r7
 800824a:	4630      	mov	r0, r6
 800824c:	f7ff ffda 	bl	8008204 <__sfputc_r>
 8008250:	1c43      	adds	r3, r0, #1
 8008252:	d1f3      	bne.n	800823c <__sfputs_r+0xa>
 8008254:	bdf8      	pop	{r3, r4, r5, r6, r7, pc}
	...

08008258 <_vfiprintf_r>:
 8008258:	e92d 4ff0 	stmdb	sp!, {r4, r5, r6, r7, r8, r9, sl, fp, lr}
 800825c:	460d      	mov	r5, r1
 800825e:	b09d      	sub	sp, #116	@ 0x74
 8008260:	4614      	mov	r4, r2
 8008262:	4698      	mov	r8, r3
 8008264:	4606      	mov	r6, r0
 8008266:	b118      	cbz	r0, 8008270 <_vfiprintf_r+0x18>
 8008268:	6a03      	ldr	r3, [r0, #32]
 800826a:	b90b      	cbnz	r3, 8008270 <_vfiprintf_r+0x18>
 800826c:	f7fe f9f0 	bl	8006650 <__sinit>
 8008270:	6e6b      	ldr	r3, [r5, #100]	@ 0x64
 8008272:	07d9      	lsls	r1, r3, #31
 8008274:	d405      	bmi.n	8008282 <_vfiprintf_r+0x2a>
 8008276:	89ab      	ldrh	r3, [r5, #12]
 8008278:	059a      	lsls	r2, r3, #22
 800827a:	d402      	bmi.n	8008282 <_vfiprintf_r+0x2a>
 800827c:	6da8      	ldr	r0, [r5, #88]	@ 0x58
 800827e:	f7fe fa64 	bl	800674a <__retarget_lock_acquire_recursive>
 8008282:	89ab      	ldrh	r3, [r5, #12]
 8008284:	071b      	lsls	r3, r3, #28
 8008286:	d501      	bpl.n	800828c <_vfiprintf_r+0x34>
 8008288:	692b      	ldr	r3, [r5, #16]
 800828a:	b99b      	cbnz	r3, 80082b4 <_vfiprintf_r+0x5c>
 800828c:	4629      	mov	r1, r5
 800828e:	4630      	mov	r0, r6
 8008290:	f000 f938 	bl	8008504 <__swsetup_r>
 8008294:	b170      	cbz	r0, 80082b4 <_vfiprintf_r+0x5c>
 8008296:	6e6b      	ldr	r3, [r5, #100]	@ 0x64
 8008298:	07dc      	lsls	r4, r3, #31
 800829a:	d504      	bpl.n	80082a6 <_vfiprintf_r+0x4e>
 800829c:	f04f 30ff 	mov.w	r0, #4294967295	@ 0xffffffff
 80082a0:	b01d      	add	sp, #116	@ 0x74
 80082a2:	e8bd 8ff0 	ldmia.w	sp!, {r4, r5, r6, r7, r8, r9, sl, fp, pc}
 80082a6:	89ab      	ldrh	r3, [r5, #12]
 80082a8:	0598      	lsls	r0, r3, #22
 80082aa:	d4f7      	bmi.n	800829c <_vfiprintf_r+0x44>
 80082ac:	6da8      	ldr	r0, [r5, #88]	@ 0x58
 80082ae:	f7fe fa4d 	bl	800674c <__retarget_lock_release_recursive>
 80082b2:	e7f3      	b.n	800829c <_vfiprintf_r+0x44>
 80082b4:	2300      	movs	r3, #0
 80082b6:	9309      	str	r3, [sp, #36]	@ 0x24
 80082b8:	2320      	movs	r3, #32
 80082ba:	f88d 3029 	strb.w	r3, [sp, #41]	@ 0x29
 80082be:	f8cd 800c 	str.w	r8, [sp, #12]
 80082c2:	2330      	movs	r3, #48	@ 0x30
 80082c4:	f8df 81ac 	ldr.w	r8, [pc, #428]	@ 8008474 <_vfiprintf_r+0x21c>
 80082c8:	f88d 302a 	strb.w	r3, [sp, #42]	@ 0x2a
 80082cc:	f04f 0901 	mov.w	r9, #1
 80082d0:	4623      	mov	r3, r4
 80082d2:	469a      	mov	sl, r3
 80082d4:	f813 2b01 	ldrb.w	r2, [r3], #1
 80082d8:	b10a      	cbz	r2, 80082de <_vfiprintf_r+0x86>
 80082da:	2a25      	cmp	r2, #37	@ 0x25
 80082dc:	d1f9      	bne.n	80082d2 <_vfiprintf_r+0x7a>
 80082de:	ebba 0b04 	subs.w	fp, sl, r4
 80082e2:	d00b      	beq.n	80082fc <_vfiprintf_r+0xa4>
 80082e4:	465b      	mov	r3, fp
 80082e6:	4622      	mov	r2, r4
 80082e8:	4629      	mov	r1, r5
 80082ea:	4630      	mov	r0, r6
 80082ec:	f7ff ffa1 	bl	8008232 <__sfputs_r>
 80082f0:	3001      	adds	r0, #1
 80082f2:	f000 80a7 	beq.w	8008444 <_vfiprintf_r+0x1ec>
 80082f6:	9a09      	ldr	r2, [sp, #36]	@ 0x24
 80082f8:	445a      	add	r2, fp
 80082fa:	9209      	str	r2, [sp, #36]	@ 0x24
 80082fc:	f89a 3000 	ldrb.w	r3, [sl]
 8008300:	2b00      	cmp	r3, #0
 8008302:	f000 809f 	beq.w	8008444 <_vfiprintf_r+0x1ec>
 8008306:	2300      	movs	r3, #0
 8008308:	f04f 32ff 	mov.w	r2, #4294967295	@ 0xffffffff
 800830c:	e9cd 2305 	strd	r2, r3, [sp, #20]
 8008310:	f10a 0a01 	add.w	sl, sl, #1
 8008314:	9304      	str	r3, [sp, #16]
 8008316:	9307      	str	r3, [sp, #28]
 8008318:	f88d 3053 	strb.w	r3, [sp, #83]	@ 0x53
 800831c:	931a      	str	r3, [sp, #104]	@ 0x68
 800831e:	4654      	mov	r4, sl
 8008320:	2205      	movs	r2, #5
 8008322:	f814 1b01 	ldrb.w	r1, [r4], #1
 8008326:	4853      	ldr	r0, [pc, #332]	@ (8008474 <_vfiprintf_r+0x21c>)
 8008328:	f7f7 ff72 	bl	8000210 <memchr>
 800832c:	9a04      	ldr	r2, [sp, #16]
 800832e:	b9d8      	cbnz	r0, 8008368 <_vfiprintf_r+0x110>
 8008330:	06d1      	lsls	r1, r2, #27
 8008332:	bf44      	itt	mi
 8008334:	2320      	movmi	r3, #32
 8008336:	f88d 3053 	strbmi.w	r3, [sp, #83]	@ 0x53
 800833a:	0713      	lsls	r3, r2, #28
 800833c:	bf44      	itt	mi
 800833e:	232b      	movmi	r3, #43	@ 0x2b
 8008340:	f88d 3053 	strbmi.w	r3, [sp, #83]	@ 0x53
 8008344:	f89a 3000 	ldrb.w	r3, [sl]
 8008348:	2b2a      	cmp	r3, #42	@ 0x2a
 800834a:	d015      	beq.n	8008378 <_vfiprintf_r+0x120>
 800834c:	9a07      	ldr	r2, [sp, #28]
 800834e:	4654      	mov	r4, sl
 8008350:	2000      	movs	r0, #0
 8008352:	f04f 0c0a 	mov.w	ip, #10
 8008356:	4621      	mov	r1, r4
 8008358:	f811 3b01 	ldrb.w	r3, [r1], #1
 800835c:	3b30      	subs	r3, #48	@ 0x30
 800835e:	2b09      	cmp	r3, #9
 8008360:	d94b      	bls.n	80083fa <_vfiprintf_r+0x1a2>
 8008362:	b1b0      	cbz	r0, 8008392 <_vfiprintf_r+0x13a>
 8008364:	9207      	str	r2, [sp, #28]
 8008366:	e014      	b.n	8008392 <_vfiprintf_r+0x13a>
 8008368:	eba0 0308 	sub.w	r3, r0, r8
 800836c:	fa09 f303 	lsl.w	r3, r9, r3
 8008370:	4313      	orrs	r3, r2
 8008372:	9304      	str	r3, [sp, #16]
 8008374:	46a2      	mov	sl, r4
 8008376:	e7d2      	b.n	800831e <_vfiprintf_r+0xc6>
 8008378:	9b03      	ldr	r3, [sp, #12]
 800837a:	1d19      	adds	r1, r3, #4
 800837c:	681b      	ldr	r3, [r3, #0]
 800837e:	9103      	str	r1, [sp, #12]
 8008380:	2b00      	cmp	r3, #0
 8008382:	bfbb      	ittet	lt
 8008384:	425b      	neglt	r3, r3
 8008386:	f042 0202 	orrlt.w	r2, r2, #2
 800838a:	9307      	strge	r3, [sp, #28]
 800838c:	9307      	strlt	r3, [sp, #28]
 800838e:	bfb8      	it	lt
 8008390:	9204      	strlt	r2, [sp, #16]
 8008392:	7823      	ldrb	r3, [r4, #0]
 8008394:	2b2e      	cmp	r3, #46	@ 0x2e
 8008396:	d10a      	bne.n	80083ae <_vfiprintf_r+0x156>
 8008398:	7863      	ldrb	r3, [r4, #1]
 800839a:	2b2a      	cmp	r3, #42	@ 0x2a
 800839c:	d132      	bne.n	8008404 <_vfiprintf_r+0x1ac>
 800839e:	9b03      	ldr	r3, [sp, #12]
 80083a0:	1d1a      	adds	r2, r3, #4
 80083a2:	681b      	ldr	r3, [r3, #0]
 80083a4:	9203      	str	r2, [sp, #12]
 80083a6:	ea43 73e3 	orr.w	r3, r3, r3, asr #31
 80083aa:	3402      	adds	r4, #2
 80083ac:	9305      	str	r3, [sp, #20]
 80083ae:	f8df a0d4 	ldr.w	sl, [pc, #212]	@ 8008484 <_vfiprintf_r+0x22c>
 80083b2:	7821      	ldrb	r1, [r4, #0]
 80083b4:	2203      	movs	r2, #3
 80083b6:	4650      	mov	r0, sl
 80083b8:	f7f7 ff2a 	bl	8000210 <memchr>
 80083bc:	b138      	cbz	r0, 80083ce <_vfiprintf_r+0x176>
 80083be:	9b04      	ldr	r3, [sp, #16]
 80083c0:	eba0 000a 	sub.w	r0, r0, sl
 80083c4:	2240      	movs	r2, #64	@ 0x40
 80083c6:	4082      	lsls	r2, r0
 80083c8:	4313      	orrs	r3, r2
 80083ca:	3401      	adds	r4, #1
 80083cc:	9304      	str	r3, [sp, #16]
 80083ce:	f814 1b01 	ldrb.w	r1, [r4], #1
 80083d2:	4829      	ldr	r0, [pc, #164]	@ (8008478 <_vfiprintf_r+0x220>)
 80083d4:	f88d 1028 	strb.w	r1, [sp, #40]	@ 0x28
 80083d8:	2206      	movs	r2, #6
 80083da:	f7f7 ff19 	bl	8000210 <memchr>
 80083de:	2800      	cmp	r0, #0
 80083e0:	d03f      	beq.n	8008462 <_vfiprintf_r+0x20a>
 80083e2:	4b26      	ldr	r3, [pc, #152]	@ (800847c <_vfiprintf_r+0x224>)
 80083e4:	bb1b      	cbnz	r3, 800842e <_vfiprintf_r+0x1d6>
 80083e6:	9b03      	ldr	r3, [sp, #12]
 80083e8:	3307      	adds	r3, #7
 80083ea:	f023 0307 	bic.w	r3, r3, #7
 80083ee:	3308      	adds	r3, #8
 80083f0:	9303      	str	r3, [sp, #12]
 80083f2:	9b09      	ldr	r3, [sp, #36]	@ 0x24
 80083f4:	443b      	add	r3, r7
 80083f6:	9309      	str	r3, [sp, #36]	@ 0x24
 80083f8:	e76a      	b.n	80082d0 <_vfiprintf_r+0x78>
 80083fa:	fb0c 3202 	mla	r2, ip, r2, r3
 80083fe:	460c      	mov	r4, r1
 8008400:	2001      	movs	r0, #1
 8008402:	e7a8      	b.n	8008356 <_vfiprintf_r+0xfe>
 8008404:	2300      	movs	r3, #0
 8008406:	3401      	adds	r4, #1
 8008408:	9305      	str	r3, [sp, #20]
 800840a:	4619      	mov	r1, r3
 800840c:	f04f 0c0a 	mov.w	ip, #10
 8008410:	4620      	mov	r0, r4
 8008412:	f810 2b01 	ldrb.w	r2, [r0], #1
 8008416:	3a30      	subs	r2, #48	@ 0x30
 8008418:	2a09      	cmp	r2, #9
 800841a:	d903      	bls.n	8008424 <_vfiprintf_r+0x1cc>
 800841c:	2b00      	cmp	r3, #0
 800841e:	d0c6      	beq.n	80083ae <_vfiprintf_r+0x156>
 8008420:	9105      	str	r1, [sp, #20]
 8008422:	e7c4      	b.n	80083ae <_vfiprintf_r+0x156>
 8008424:	fb0c 2101 	mla	r1, ip, r1, r2
 8008428:	4604      	mov	r4, r0
 800842a:	2301      	movs	r3, #1
 800842c:	e7f0      	b.n	8008410 <_vfiprintf_r+0x1b8>
 800842e:	ab03      	add	r3, sp, #12
 8008430:	9300      	str	r3, [sp, #0]
 8008432:	462a      	mov	r2, r5
 8008434:	4b12      	ldr	r3, [pc, #72]	@ (8008480 <_vfiprintf_r+0x228>)
 8008436:	a904      	add	r1, sp, #16
 8008438:	4630      	mov	r0, r6
 800843a:	f7fd fbef 	bl	8005c1c <_printf_float>
 800843e:	4607      	mov	r7, r0
 8008440:	1c78      	adds	r0, r7, #1
 8008442:	d1d6      	bne.n	80083f2 <_vfiprintf_r+0x19a>
 8008444:	6e6b      	ldr	r3, [r5, #100]	@ 0x64
 8008446:	07d9      	lsls	r1, r3, #31
 8008448:	d405      	bmi.n	8008456 <_vfiprintf_r+0x1fe>
 800844a:	89ab      	ldrh	r3, [r5, #12]
 800844c:	059a      	lsls	r2, r3, #22
 800844e:	d402      	bmi.n	8008456 <_vfiprintf_r+0x1fe>
 8008450:	6da8      	ldr	r0, [r5, #88]	@ 0x58
 8008452:	f7fe f97b 	bl	800674c <__retarget_lock_release_recursive>
 8008456:	89ab      	ldrh	r3, [r5, #12]
 8008458:	065b      	lsls	r3, r3, #25
 800845a:	f53f af1f 	bmi.w	800829c <_vfiprintf_r+0x44>
 800845e:	9809      	ldr	r0, [sp, #36]	@ 0x24
 8008460:	e71e      	b.n	80082a0 <_vfiprintf_r+0x48>
 8008462:	ab03      	add	r3, sp, #12
 8008464:	9300      	str	r3, [sp, #0]
 8008466:	462a      	mov	r2, r5
 8008468:	4b05      	ldr	r3, [pc, #20]	@ (8008480 <_vfiprintf_r+0x228>)
 800846a:	a904      	add	r1, sp, #16
 800846c:	4630      	mov	r0, r6
 800846e:	f7fd ff17 	bl	80062a0 <_printf_i>
 8008472:	e7e4      	b.n	800843e <_vfiprintf_r+0x1e6>
 8008474:	080089a9 	.word	0x080089a9
 8008478:	080089b3 	.word	0x080089b3
 800847c:	08005c1d 	.word	0x08005c1d
 8008480:	08008233 	.word	0x08008233
 8008484:	080089af 	.word	0x080089af

08008488 <__swbuf_r>:
 8008488:	b5f8      	push	{r3, r4, r5, r6, r7, lr}
 800848a:	460e      	mov	r6, r1
 800848c:	4614      	mov	r4, r2
 800848e:	4605      	mov	r5, r0
 8008490:	b118      	cbz	r0, 800849a <__swbuf_r+0x12>
 8008492:	6a03      	ldr	r3, [r0, #32]
 8008494:	b90b      	cbnz	r3, 800849a <__swbuf_r+0x12>
 8008496:	f7fe f8db 	bl	8006650 <__sinit>
 800849a:	69a3      	ldr	r3, [r4, #24]
 800849c:	60a3      	str	r3, [r4, #8]
 800849e:	89a3      	ldrh	r3, [r4, #12]
 80084a0:	071a      	lsls	r2, r3, #28
 80084a2:	d501      	bpl.n	80084a8 <__swbuf_r+0x20>
 80084a4:	6923      	ldr	r3, [r4, #16]
 80084a6:	b943      	cbnz	r3, 80084ba <__swbuf_r+0x32>
 80084a8:	4621      	mov	r1, r4
 80084aa:	4628      	mov	r0, r5
 80084ac:	f000 f82a 	bl	8008504 <__swsetup_r>
 80084b0:	b118      	cbz	r0, 80084ba <__swbuf_r+0x32>
 80084b2:	f04f 37ff 	mov.w	r7, #4294967295	@ 0xffffffff
 80084b6:	4638      	mov	r0, r7
 80084b8:	bdf8      	pop	{r3, r4, r5, r6, r7, pc}
 80084ba:	6823      	ldr	r3, [r4, #0]
 80084bc:	6922      	ldr	r2, [r4, #16]
 80084be:	1a98      	subs	r0, r3, r2
 80084c0:	6963      	ldr	r3, [r4, #20]
 80084c2:	b2f6      	uxtb	r6, r6
 80084c4:	4283      	cmp	r3, r0
 80084c6:	4637      	mov	r7, r6
 80084c8:	dc05      	bgt.n	80084d6 <__swbuf_r+0x4e>
 80084ca:	4621      	mov	r1, r4
 80084cc:	4628      	mov	r0, r5
 80084ce:	f7ff f9b1 	bl	8007834 <_fflush_r>
 80084d2:	2800      	cmp	r0, #0
 80084d4:	d1ed      	bne.n	80084b2 <__swbuf_r+0x2a>
 80084d6:	68a3      	ldr	r3, [r4, #8]
 80084d8:	3b01      	subs	r3, #1
 80084da:	60a3      	str	r3, [r4, #8]
 80084dc:	6823      	ldr	r3, [r4, #0]
 80084de:	1c5a      	adds	r2, r3, #1
 80084e0:	6022      	str	r2, [r4, #0]
 80084e2:	701e      	strb	r6, [r3, #0]
 80084e4:	6962      	ldr	r2, [r4, #20]
 80084e6:	1c43      	adds	r3, r0, #1
 80084e8:	429a      	cmp	r2, r3
 80084ea:	d004      	beq.n	80084f6 <__swbuf_r+0x6e>
 80084ec:	89a3      	ldrh	r3, [r4, #12]
 80084ee:	07db      	lsls	r3, r3, #31
 80084f0:	d5e1      	bpl.n	80084b6 <__swbuf_r+0x2e>
 80084f2:	2e0a      	cmp	r6, #10
 80084f4:	d1df      	bne.n	80084b6 <__swbuf_r+0x2e>
 80084f6:	4621      	mov	r1, r4
 80084f8:	4628      	mov	r0, r5
 80084fa:	f7ff f99b 	bl	8007834 <_fflush_r>
 80084fe:	2800      	cmp	r0, #0
 8008500:	d0d9      	beq.n	80084b6 <__swbuf_r+0x2e>
 8008502:	e7d6      	b.n	80084b2 <__swbuf_r+0x2a>

08008504 <__swsetup_r>:
 8008504:	b538      	push	{r3, r4, r5, lr}
 8008506:	4b29      	ldr	r3, [pc, #164]	@ (80085ac <__swsetup_r+0xa8>)
 8008508:	4605      	mov	r5, r0
 800850a:	6818      	ldr	r0, [r3, #0]
 800850c:	460c      	mov	r4, r1
 800850e:	b118      	cbz	r0, 8008518 <__swsetup_r+0x14>
 8008510:	6a03      	ldr	r3, [r0, #32]
 8008512:	b90b      	cbnz	r3, 8008518 <__swsetup_r+0x14>
 8008514:	f7fe f89c 	bl	8006650 <__sinit>
 8008518:	f9b4 300c 	ldrsh.w	r3, [r4, #12]
 800851c:	0719      	lsls	r1, r3, #28
 800851e:	d422      	bmi.n	8008566 <__swsetup_r+0x62>
 8008520:	06da      	lsls	r2, r3, #27
 8008522:	d407      	bmi.n	8008534 <__swsetup_r+0x30>
 8008524:	2209      	movs	r2, #9
 8008526:	602a      	str	r2, [r5, #0]
 8008528:	f043 0340 	orr.w	r3, r3, #64	@ 0x40
 800852c:	81a3      	strh	r3, [r4, #12]
 800852e:	f04f 30ff 	mov.w	r0, #4294967295	@ 0xffffffff
 8008532:	e033      	b.n	800859c <__swsetup_r+0x98>
 8008534:	0758      	lsls	r0, r3, #29
 8008536:	d512      	bpl.n	800855e <__swsetup_r+0x5a>
 8008538:	6b61      	ldr	r1, [r4, #52]	@ 0x34
 800853a:	b141      	cbz	r1, 800854e <__swsetup_r+0x4a>
 800853c:	f104 0344 	add.w	r3, r4, #68	@ 0x44
 8008540:	4299      	cmp	r1, r3
 8008542:	d002      	beq.n	800854a <__swsetup_r+0x46>
 8008544:	4628      	mov	r0, r5
 8008546:	f7fe ff4f 	bl	80073e8 <_free_r>
 800854a:	2300      	movs	r3, #0
 800854c:	6363      	str	r3, [r4, #52]	@ 0x34
 800854e:	89a3      	ldrh	r3, [r4, #12]
 8008550:	f023 0324 	bic.w	r3, r3, #36	@ 0x24
 8008554:	81a3      	strh	r3, [r4, #12]
 8008556:	2300      	movs	r3, #0
 8008558:	6063      	str	r3, [r4, #4]
 800855a:	6923      	ldr	r3, [r4, #16]
 800855c:	6023      	str	r3, [r4, #0]
 800855e:	89a3      	ldrh	r3, [r4, #12]
 8008560:	f043 0308 	orr.w	r3, r3, #8
 8008564:	81a3      	strh	r3, [r4, #12]
 8008566:	6923      	ldr	r3, [r4, #16]
 8008568:	b94b      	cbnz	r3, 800857e <__swsetup_r+0x7a>
 800856a:	89a3      	ldrh	r3, [r4, #12]
 800856c:	f403 7320 	and.w	r3, r3, #640	@ 0x280
 8008570:	f5b3 7f00 	cmp.w	r3, #512	@ 0x200
 8008574:	d003      	beq.n	800857e <__swsetup_r+0x7a>
 8008576:	4621      	mov	r1, r4
 8008578:	4628      	mov	r0, r5
 800857a:	f000 f83f 	bl	80085fc <__smakebuf_r>
 800857e:	f9b4 300c 	ldrsh.w	r3, [r4, #12]
 8008582:	f013 0201 	ands.w	r2, r3, #1
 8008586:	d00a      	beq.n	800859e <__swsetup_r+0x9a>
 8008588:	2200      	movs	r2, #0
 800858a:	60a2      	str	r2, [r4, #8]
 800858c:	6962      	ldr	r2, [r4, #20]
 800858e:	4252      	negs	r2, r2
 8008590:	61a2      	str	r2, [r4, #24]
 8008592:	6922      	ldr	r2, [r4, #16]
 8008594:	b942      	cbnz	r2, 80085a8 <__swsetup_r+0xa4>
 8008596:	f013 0080 	ands.w	r0, r3, #128	@ 0x80
 800859a:	d1c5      	bne.n	8008528 <__swsetup_r+0x24>
 800859c:	bd38      	pop	{r3, r4, r5, pc}
 800859e:	0799      	lsls	r1, r3, #30
 80085a0:	bf58      	it	pl
 80085a2:	6962      	ldrpl	r2, [r4, #20]
 80085a4:	60a2      	str	r2, [r4, #8]
 80085a6:	e7f4      	b.n	8008592 <__swsetup_r+0x8e>
 80085a8:	2000      	movs	r0, #0
 80085aa:	e7f7      	b.n	800859c <__swsetup_r+0x98>
 80085ac:	20000018 	.word	0x20000018

080085b0 <__swhatbuf_r>:
 80085b0:	b570      	push	{r4, r5, r6, lr}
 80085b2:	460c      	mov	r4, r1
 80085b4:	f9b1 100e 	ldrsh.w	r1, [r1, #14]
 80085b8:	2900      	cmp	r1, #0
 80085ba:	b096      	sub	sp, #88	@ 0x58
 80085bc:	4615      	mov	r5, r2
 80085be:	461e      	mov	r6, r3
 80085c0:	da0d      	bge.n	80085de <__swhatbuf_r+0x2e>
 80085c2:	89a3      	ldrh	r3, [r4, #12]
 80085c4:	f013 0f80 	tst.w	r3, #128	@ 0x80
 80085c8:	f04f 0100 	mov.w	r1, #0
 80085cc:	bf14      	ite	ne
 80085ce:	2340      	movne	r3, #64	@ 0x40
 80085d0:	f44f 6380 	moveq.w	r3, #1024	@ 0x400
 80085d4:	2000      	movs	r0, #0
 80085d6:	6031      	str	r1, [r6, #0]
 80085d8:	602b      	str	r3, [r5, #0]
 80085da:	b016      	add	sp, #88	@ 0x58
 80085dc:	bd70      	pop	{r4, r5, r6, pc}
 80085de:	466a      	mov	r2, sp
 80085e0:	f000 f848 	bl	8008674 <_fstat_r>
 80085e4:	2800      	cmp	r0, #0
 80085e6:	dbec      	blt.n	80085c2 <__swhatbuf_r+0x12>
 80085e8:	9901      	ldr	r1, [sp, #4]
 80085ea:	f401 4170 	and.w	r1, r1, #61440	@ 0xf000
 80085ee:	f5a1 5300 	sub.w	r3, r1, #8192	@ 0x2000
 80085f2:	4259      	negs	r1, r3
 80085f4:	4159      	adcs	r1, r3
 80085f6:	f44f 6380 	mov.w	r3, #1024	@ 0x400
 80085fa:	e7eb      	b.n	80085d4 <__swhatbuf_r+0x24>

080085fc <__smakebuf_r>:
 80085fc:	898b      	ldrh	r3, [r1, #12]
 80085fe:	b5f7      	push	{r0, r1, r2, r4, r5, r6, r7, lr}
 8008600:	079d      	lsls	r5, r3, #30
 8008602:	4606      	mov	r6, r0
 8008604:	460c      	mov	r4, r1
 8008606:	d507      	bpl.n	8008618 <__smakebuf_r+0x1c>
 8008608:	f104 0347 	add.w	r3, r4, #71	@ 0x47
 800860c:	6023      	str	r3, [r4, #0]
 800860e:	6123      	str	r3, [r4, #16]
 8008610:	2301      	movs	r3, #1
 8008612:	6163      	str	r3, [r4, #20]
 8008614:	b003      	add	sp, #12
 8008616:	bdf0      	pop	{r4, r5, r6, r7, pc}
 8008618:	ab01      	add	r3, sp, #4
 800861a:	466a      	mov	r2, sp
 800861c:	f7ff ffc8 	bl	80085b0 <__swhatbuf_r>
 8008620:	9f00      	ldr	r7, [sp, #0]
 8008622:	4605      	mov	r5, r0
 8008624:	4639      	mov	r1, r7
 8008626:	4630      	mov	r0, r6
 8008628:	f7fd fd4c 	bl	80060c4 <_malloc_r>
 800862c:	b948      	cbnz	r0, 8008642 <__smakebuf_r+0x46>
 800862e:	f9b4 300c 	ldrsh.w	r3, [r4, #12]
 8008632:	059a      	lsls	r2, r3, #22
 8008634:	d4ee      	bmi.n	8008614 <__smakebuf_r+0x18>
 8008636:	f023 0303 	bic.w	r3, r3, #3
 800863a:	f043 0302 	orr.w	r3, r3, #2
 800863e:	81a3      	strh	r3, [r4, #12]
 8008640:	e7e2      	b.n	8008608 <__smakebuf_r+0xc>
 8008642:	89a3      	ldrh	r3, [r4, #12]
 8008644:	6020      	str	r0, [r4, #0]
 8008646:	f043 0380 	orr.w	r3, r3, #128	@ 0x80
 800864a:	81a3      	strh	r3, [r4, #12]
 800864c:	9b01      	ldr	r3, [sp, #4]
 800864e:	e9c4 0704 	strd	r0, r7, [r4, #16]
 8008652:	b15b      	cbz	r3, 800866c <__smakebuf_r+0x70>
 8008654:	f9b4 100e 	ldrsh.w	r1, [r4, #14]
 8008658:	4630      	mov	r0, r6
 800865a:	f000 f81d 	bl	8008698 <_isatty_r>
 800865e:	b128      	cbz	r0, 800866c <__smakebuf_r+0x70>
 8008660:	89a3      	ldrh	r3, [r4, #12]
 8008662:	f023 0303 	bic.w	r3, r3, #3
 8008666:	f043 0301 	orr.w	r3, r3, #1
 800866a:	81a3      	strh	r3, [r4, #12]
 800866c:	89a3      	ldrh	r3, [r4, #12]
 800866e:	431d      	orrs	r5, r3
 8008670:	81a5      	strh	r5, [r4, #12]
 8008672:	e7cf      	b.n	8008614 <__smakebuf_r+0x18>

08008674 <_fstat_r>:
 8008674:	b538      	push	{r3, r4, r5, lr}
 8008676:	4d07      	ldr	r5, [pc, #28]	@ (8008694 <_fstat_r+0x20>)
 8008678:	2300      	movs	r3, #0
 800867a:	4604      	mov	r4, r0
 800867c:	4608      	mov	r0, r1
 800867e:	4611      	mov	r1, r2
 8008680:	602b      	str	r3, [r5, #0]
 8008682:	f7f9 ff5d 	bl	8002540 <_fstat>
 8008686:	1c43      	adds	r3, r0, #1
 8008688:	d102      	bne.n	8008690 <_fstat_r+0x1c>
 800868a:	682b      	ldr	r3, [r5, #0]
 800868c:	b103      	cbz	r3, 8008690 <_fstat_r+0x1c>
 800868e:	6023      	str	r3, [r4, #0]
 8008690:	bd38      	pop	{r3, r4, r5, pc}
 8008692:	bf00      	nop
 8008694:	200004bc 	.word	0x200004bc

08008698 <_isatty_r>:
 8008698:	b538      	push	{r3, r4, r5, lr}
 800869a:	4d06      	ldr	r5, [pc, #24]	@ (80086b4 <_isatty_r+0x1c>)
 800869c:	2300      	movs	r3, #0
 800869e:	4604      	mov	r4, r0
 80086a0:	4608      	mov	r0, r1
 80086a2:	602b      	str	r3, [r5, #0]
 80086a4:	f7f9 ff5c 	bl	8002560 <_isatty>
 80086a8:	1c43      	adds	r3, r0, #1
 80086aa:	d102      	bne.n	80086b2 <_isatty_r+0x1a>
 80086ac:	682b      	ldr	r3, [r5, #0]
 80086ae:	b103      	cbz	r3, 80086b2 <_isatty_r+0x1a>
 80086b0:	6023      	str	r3, [r4, #0]
 80086b2:	bd38      	pop	{r3, r4, r5, pc}
 80086b4:	200004bc 	.word	0x200004bc

080086b8 <_raise_r>:
 80086b8:	291f      	cmp	r1, #31
 80086ba:	b538      	push	{r3, r4, r5, lr}
 80086bc:	4605      	mov	r5, r0
 80086be:	460c      	mov	r4, r1
 80086c0:	d904      	bls.n	80086cc <_raise_r+0x14>
 80086c2:	2316      	movs	r3, #22
 80086c4:	6003      	str	r3, [r0, #0]
 80086c6:	f04f 30ff 	mov.w	r0, #4294967295	@ 0xffffffff
 80086ca:	bd38      	pop	{r3, r4, r5, pc}
 80086cc:	6bc2      	ldr	r2, [r0, #60]	@ 0x3c
 80086ce:	b112      	cbz	r2, 80086d6 <_raise_r+0x1e>
 80086d0:	f852 3021 	ldr.w	r3, [r2, r1, lsl #2]
 80086d4:	b94b      	cbnz	r3, 80086ea <_raise_r+0x32>
 80086d6:	4628      	mov	r0, r5
 80086d8:	f000 f830 	bl	800873c <_getpid_r>
 80086dc:	4622      	mov	r2, r4
 80086de:	4601      	mov	r1, r0
 80086e0:	4628      	mov	r0, r5
 80086e2:	e8bd 4038 	ldmia.w	sp!, {r3, r4, r5, lr}
 80086e6:	f000 b817 	b.w	8008718 <_kill_r>
 80086ea:	2b01      	cmp	r3, #1
 80086ec:	d00a      	beq.n	8008704 <_raise_r+0x4c>
 80086ee:	1c59      	adds	r1, r3, #1
 80086f0:	d103      	bne.n	80086fa <_raise_r+0x42>
 80086f2:	2316      	movs	r3, #22
 80086f4:	6003      	str	r3, [r0, #0]
 80086f6:	2001      	movs	r0, #1
 80086f8:	e7e7      	b.n	80086ca <_raise_r+0x12>
 80086fa:	2100      	movs	r1, #0
 80086fc:	f842 1024 	str.w	r1, [r2, r4, lsl #2]
 8008700:	4620      	mov	r0, r4
 8008702:	4798      	blx	r3
 8008704:	2000      	movs	r0, #0
 8008706:	e7e0      	b.n	80086ca <_raise_r+0x12>

08008708 <raise>:
 8008708:	4b02      	ldr	r3, [pc, #8]	@ (8008714 <raise+0xc>)
 800870a:	4601      	mov	r1, r0
 800870c:	6818      	ldr	r0, [r3, #0]
 800870e:	f7ff bfd3 	b.w	80086b8 <_raise_r>
 8008712:	bf00      	nop
 8008714:	20000018 	.word	0x20000018

08008718 <_kill_r>:
 8008718:	b538      	push	{r3, r4, r5, lr}
 800871a:	4d07      	ldr	r5, [pc, #28]	@ (8008738 <_kill_r+0x20>)
 800871c:	2300      	movs	r3, #0
 800871e:	4604      	mov	r4, r0
 8008720:	4608      	mov	r0, r1
 8008722:	4611      	mov	r1, r2
 8008724:	602b      	str	r3, [r5, #0]
 8008726:	f7f9 feab 	bl	8002480 <_kill>
 800872a:	1c43      	adds	r3, r0, #1
 800872c:	d102      	bne.n	8008734 <_kill_r+0x1c>
 800872e:	682b      	ldr	r3, [r5, #0]
 8008730:	b103      	cbz	r3, 8008734 <_kill_r+0x1c>
 8008732:	6023      	str	r3, [r4, #0]
 8008734:	bd38      	pop	{r3, r4, r5, pc}
 8008736:	bf00      	nop
 8008738:	200004bc 	.word	0x200004bc

0800873c <_getpid_r>:
 800873c:	f7f9 be98 	b.w	8002470 <_getpid>

08008740 <_init>:
 8008740:	b5f8      	push	{r3, r4, r5, r6, r7, lr}
 8008742:	bf00      	nop
 8008744:	bcf8      	pop	{r3, r4, r5, r6, r7}
 8008746:	bc08      	pop	{r3}
 8008748:	469e      	mov	lr, r3
 800874a:	4770      	bx	lr

0800874c <_fini>:
 800874c:	b5f8      	push	{r3, r4, r5, r6, r7, lr}
 800874e:	bf00      	nop
 8008750:	bcf8      	pop	{r3, r4, r5, r6, r7}
 8008752:	bc08      	pop	{r3}
 8008754:	469e      	mov	lr, r3
 8008756:	4770      	bx	lr
