
PCU.elf:     file format elf32-littlearm

Sections:
Idx Name          Size      VMA       LMA       File off  Algn
  0 .isr_vector   000001c4  08000000  08000000  00001000  2**0
                  CONTENTS, ALLOC, LOAD, READONLY, DATA
  1 .text         00008580  080001d0  080001d0  000011d0  2**4
                  CONTENTS, ALLOC, LOAD, READONLY, CODE
  2 .rodata       00000500  08008750  08008750  00009750  2**3
                  CONTENTS, ALLOC, LOAD, READONLY, DATA
  3 .ARM.extab    00000000  08008c50  08008c50  0000a1d4  2**0
                  CONTENTS
  4 .ARM          00000008  08008c50  08008c50  00009c50  2**2
                  CONTENTS, ALLOC, LOAD, READONLY, DATA
  5 .preinit_array 00000000  08008c58  08008c58  0000a1d4  2**0
                  CONTENTS, ALLOC, LOAD, DATA
  6 .init_array   00000004  08008c58  08008c58  00009c58  2**2
                  CONTENTS, ALLOC, LOAD, READONLY, DATA
  7 .fini_array   00000004  08008c5c  08008c5c  00009c5c  2**2
                  CONTENTS, ALLOC, LOAD, READONLY, DATA
  8 .data         000001d4  20000000  08008c60  0000a000  2**2
                  CONTENTS, ALLOC, LOAD, DATA
  9 .bss          000002e8  200001d4  08008e34  0000a1d4  2**2
                  ALLOC
 10 ._user_heap_stack 00000604  200004bc  08008e34  0000a4bc  2**0
                  ALLOC
 11 .ARM.attributes 00000030  00000000  00000000  0000a1d4  2**0
                  CONTENTS, READONLY
 12 .debug_info   0001382f  00000000  00000000  0000a204  2**0
                  CONTENTS, READONLY, DEBUGGING, OCTETS
 13 .debug_abbrev 000034d7  00000000  00000000  0001da33  2**0
                  CONTENTS, READONLY, DEBUGGING, OCTETS
 14 .debug_aranges 00000f98  00000000  00000000  00020f10  2**3
                  CONTENTS, READONLY, DEBUGGING, OCTETS
 15 .debug_rnglists 00000c04  00000000  00000000  00021ea8  2**0
                  CONTENTS, READONLY, DEBUGGING, OCTETS
 16 .debug_macro  00024475  00000000  00000000  00022aac  2**0
                  CONTENTS, READONLY, DEBUGGING, OCTETS
 17 .debug_line   00015f8a  00000000  00000000  00046f21  2**0
                  CONTENTS, READONLY, DEBUGGING, OCTETS
 18 .debug_str    000df878  00000000  00000000  0005ceab  2**0
                  CONTENTS, READONLY, DEBUGGING, OCTETS
 19 .comment      00000043  00000000  00000000  0013c723  2**0
                  CONTENTS, READONLY
 20 .debug_frame  000050c0  00000000  00000000  0013c768  2**2
                  CONTENTS, READONLY, DEBUGGING, OCTETS
 21 .debug_line_str 0000006e  00000000  00000000  00141828  2**0
                  CONTENTS, READONLY, DEBUGGING, OCTETS

Disassembly of section .text:

080001d0 <__do_global_dtors_aux>:
 80001d0:	b510      	push	{r4, lr}
 80001d2:	4c05      	ldr	r4, [pc, #20]	@ (80001e8 <__do_global_dtors_aux+0x18>)
 80001d4:	7823      	ldrb	r3, [r4, #0]
 80001d6:	b933      	cbnz	r3, 80001e6 <__do_global_dtors_aux+0x16>
 80001d8:	4b04      	ldr	r3, [pc, #16]	@ (80001ec <__do_global_dtors_aux+0x1c>)
 80001da:	b113      	cbz	r3, 80001e2 <__do_global_dtors_aux+0x12>
 80001dc:	4804      	ldr	r0, [pc, #16]	@ (80001f0 <__do_global_dtors_aux+0x20>)
 80001de:	f3af 8000 	nop.w
 80001e2:	2301      	movs	r3, #1
 80001e4:	7023      	strb	r3, [r4, #0]
 80001e6:	bd10      	pop	{r4, pc}
 80001e8:	200001d4 	.word	0x200001d4
 80001ec:	00000000 	.word	0x00000000
 80001f0:	08008738 	.word	0x08008738

080001f4 <frame_dummy>:
 80001f4:	b508      	push	{r3, lr}
 80001f6:	4b03      	ldr	r3, [pc, #12]	@ (8000204 <frame_dummy+0x10>)
 80001f8:	b11b      	cbz	r3, 8000202 <frame_dummy+0xe>
 80001fa:	4903      	ldr	r1, [pc, #12]	@ (8000208 <frame_dummy+0x14>)
 80001fc:	4803      	ldr	r0, [pc, #12]	@ (800020c <frame_dummy+0x18>)
 80001fe:	f3af 8000 	nop.w
 8000202:	bd08      	pop	{r3, pc}
 8000204:	00000000 	.word	0x00000000
 8000208:	200001d8 	.word	0x200001d8
 800020c:	08008738 	.word	0x08008738

08000210 <memchr>:
 8000210:	f001 01ff 	and.w	r1, r1, #255	@ 0xff
 8000214:	2a10      	cmp	r2, #16
 8000216:	db2b      	blt.n	8000270 <memchr+0x60>
 8000218:	f010 0f07 	tst.w	r0, #7
 800021c:	d008      	beq.n	8000230 <memchr+0x20>
 800021e:	f810 3b01 	ldrb.w	r3, [r0], #1
 8000222:	3a01      	subs	r2, #1
 8000224:	428b      	cmp	r3, r1
 8000226:	d02d      	beq.n	8000284 <memchr+0x74>
 8000228:	f010 0f07 	tst.w	r0, #7
 800022c:	b342      	cbz	r2, 8000280 <memchr+0x70>
 800022e:	d1f6      	bne.n	800021e <memchr+0xe>
 8000230:	b4f0      	push	{r4, r5, r6, r7}
 8000232:	ea41 2101 	orr.w	r1, r1, r1, lsl #8
 8000236:	ea41 4101 	orr.w	r1, r1, r1, lsl #16
 800023a:	f022 0407 	bic.w	r4, r2, #7
 800023e:	f07f 0700 	mvns.w	r7, #0
 8000242:	2300      	movs	r3, #0
 8000244:	e8f0 5602 	ldrd	r5, r6, [r0], #8
 8000248:	3c08      	subs	r4, #8
 800024a:	ea85 0501 	eor.w	r5, r5, r1
 800024e:	ea86 0601 	eor.w	r6, r6, r1
 8000252:	fa85 f547 	uadd8	r5, r5, r7
 8000256:	faa3 f587 	sel	r5, r3, r7
 800025a:	fa86 f647 	uadd8	r6, r6, r7
 800025e:	faa5 f687 	sel	r6, r5, r7
 8000262:	b98e      	cbnz	r6, 8000288 <memchr+0x78>
 8000264:	d1ee      	bne.n	8000244 <memchr+0x34>
 8000266:	bcf0      	pop	{r4, r5, r6, r7}
 8000268:	f001 01ff 	and.w	r1, r1, #255	@ 0xff
 800026c:	f002 0207 	and.w	r2, r2, #7
 8000270:	b132      	cbz	r2, 8000280 <memchr+0x70>
 8000272:	f810 3b01 	ldrb.w	r3, [r0], #1
 8000276:	3a01      	subs	r2, #1
 8000278:	ea83 0301 	eor.w	r3, r3, r1
 800027c:	b113      	cbz	r3, 8000284 <memchr+0x74>
 800027e:	d1f8      	bne.n	8000272 <memchr+0x62>
 8000280:	2000      	movs	r0, #0
 8000282:	4770      	bx	lr
 8000284:	3801      	subs	r0, #1
 8000286:	4770      	bx	lr
 8000288:	2d00      	cmp	r5, #0
 800028a:	bf06      	itte	eq
 800028c:	4635      	moveq	r5, r6
 800028e:	3803      	subeq	r0, #3
 8000290:	3807      	subne	r0, #7
 8000292:	f015 0f01 	tst.w	r5, #1
 8000296:	d107      	bne.n	80002a8 <memchr+0x98>
 8000298:	3001      	adds	r0, #1
 800029a:	f415 7f80 	tst.w	r5, #256	@ 0x100
 800029e:	bf02      	ittt	eq
 80002a0:	3001      	addeq	r0, #1
 80002a2:	f415 3fc0 	tsteq.w	r5, #98304	@ 0x18000
 80002a6:	3001      	addeq	r0, #1
 80002a8:	bcf0      	pop	{r4, r5, r6, r7}
 80002aa:	3801      	subs	r0, #1
 80002ac:	4770      	bx	lr
 80002ae:	bf00      	nop

080002b0 <strlen>:
 80002b0:	4603      	mov	r3, r0
 80002b2:	f813 2b01 	ldrb.w	r2, [r3], #1
 80002b6:	2a00      	cmp	r2, #0
 80002b8:	d1fb      	bne.n	80002b2 <strlen+0x2>
 80002ba:	1a18      	subs	r0, r3, r0
 80002bc:	3801      	subs	r0, #1
 80002be:	4770      	bx	lr

080002c0 <__aeabi_drsub>:
 80002c0:	f081 4100 	eor.w	r1, r1, #2147483648	@ 0x80000000
 80002c4:	e002      	b.n	80002cc <__adddf3>
 80002c6:	bf00      	nop

080002c8 <__aeabi_dsub>:
 80002c8:	f083 4300 	eor.w	r3, r3, #2147483648	@ 0x80000000

080002cc <__adddf3>:
 80002cc:	b530      	push	{r4, r5, lr}
 80002ce:	ea4f 0441 	mov.w	r4, r1, lsl #1
 80002d2:	ea4f 0543 	mov.w	r5, r3, lsl #1
 80002d6:	ea94 0f05 	teq	r4, r5
 80002da:	bf08      	it	eq
 80002dc:	ea90 0f02 	teqeq	r0, r2
 80002e0:	bf1f      	itttt	ne
 80002e2:	ea54 0c00 	orrsne.w	ip, r4, r0
 80002e6:	ea55 0c02 	orrsne.w	ip, r5, r2
 80002ea:	ea7f 5c64 	mvnsne.w	ip, r4, asr #21
 80002ee:	ea7f 5c65 	mvnsne.w	ip, r5, asr #21
 80002f2:	f000 80e2 	beq.w	80004ba <__adddf3+0x1ee>
 80002f6:	ea4f 5454 	mov.w	r4, r4, lsr #21
 80002fa:	ebd4 5555 	rsbs	r5, r4, r5, lsr #21
 80002fe:	bfb8      	it	lt
 8000300:	426d      	neglt	r5, r5
 8000302:	dd0c      	ble.n	800031e <__adddf3+0x52>
 8000304:	442c      	add	r4, r5
 8000306:	ea80 0202 	eor.w	r2, r0, r2
 800030a:	ea81 0303 	eor.w	r3, r1, r3
 800030e:	ea82 0000 	eor.w	r0, r2, r0
 8000312:	ea83 0101 	eor.w	r1, r3, r1
 8000316:	ea80 0202 	eor.w	r2, r0, r2
 800031a:	ea81 0303 	eor.w	r3, r1, r3
 800031e:	2d36      	cmp	r5, #54	@ 0x36
 8000320:	bf88      	it	hi
 8000322:	bd30      	pophi	{r4, r5, pc}
 8000324:	f011 4f00 	tst.w	r1, #2147483648	@ 0x80000000
 8000328:	ea4f 3101 	mov.w	r1, r1, lsl #12
 800032c:	f44f 1c80 	mov.w	ip, #1048576	@ 0x100000
 8000330:	ea4c 3111 	orr.w	r1, ip, r1, lsr #12
 8000334:	d002      	beq.n	800033c <__adddf3+0x70>
 8000336:	4240      	negs	r0, r0
 8000338:	eb61 0141 	sbc.w	r1, r1, r1, lsl #1
 800033c:	f013 4f00 	tst.w	r3, #2147483648	@ 0x80000000
 8000340:	ea4f 3303 	mov.w	r3, r3, lsl #12
 8000344:	ea4c 3313 	orr.w	r3, ip, r3, lsr #12
 8000348:	d002      	beq.n	8000350 <__adddf3+0x84>
 800034a:	4252      	negs	r2, r2
 800034c:	eb63 0343 	sbc.w	r3, r3, r3, lsl #1
 8000350:	ea94 0f05 	teq	r4, r5
 8000354:	f000 80a7 	beq.w	80004a6 <__adddf3+0x1da>
 8000358:	f1a4 0401 	sub.w	r4, r4, #1
 800035c:	f1d5 0e20 	rsbs	lr, r5, #32
 8000360:	db0d      	blt.n	800037e <__adddf3+0xb2>
 8000362:	fa02 fc0e 	lsl.w	ip, r2, lr
 8000366:	fa22 f205 	lsr.w	r2, r2, r5
 800036a:	1880      	adds	r0, r0, r2
 800036c:	f141 0100 	adc.w	r1, r1, #0
 8000370:	fa03 f20e 	lsl.w	r2, r3, lr
 8000374:	1880      	adds	r0, r0, r2
 8000376:	fa43 f305 	asr.w	r3, r3, r5
 800037a:	4159      	adcs	r1, r3
 800037c:	e00e      	b.n	800039c <__adddf3+0xd0>
 800037e:	f1a5 0520 	sub.w	r5, r5, #32
 8000382:	f10e 0e20 	add.w	lr, lr, #32
 8000386:	2a01      	cmp	r2, #1
 8000388:	fa03 fc0e 	lsl.w	ip, r3, lr
 800038c:	bf28      	it	cs
 800038e:	f04c 0c02 	orrcs.w	ip, ip, #2
 8000392:	fa43 f305 	asr.w	r3, r3, r5
 8000396:	18c0      	adds	r0, r0, r3
 8000398:	eb51 71e3 	adcs.w	r1, r1, r3, asr #31
 800039c:	f001 4500 	and.w	r5, r1, #2147483648	@ 0x80000000
 80003a0:	d507      	bpl.n	80003b2 <__adddf3+0xe6>
 80003a2:	f04f 0e00 	mov.w	lr, #0
 80003a6:	f1dc 0c00 	rsbs	ip, ip, #0
 80003aa:	eb7e 0000 	sbcs.w	r0, lr, r0
 80003ae:	eb6e 0101 	sbc.w	r1, lr, r1
 80003b2:	f5b1 1f80 	cmp.w	r1, #1048576	@ 0x100000
 80003b6:	d31b      	bcc.n	80003f0 <__adddf3+0x124>
 80003b8:	f5b1 1f00 	cmp.w	r1, #2097152	@ 0x200000
 80003bc:	d30c      	bcc.n	80003d8 <__adddf3+0x10c>
 80003be:	0849      	lsrs	r1, r1, #1
 80003c0:	ea5f 0030 	movs.w	r0, r0, rrx
 80003c4:	ea4f 0c3c 	mov.w	ip, ip, rrx
 80003c8:	f104 0401 	add.w	r4, r4, #1
 80003cc:	ea4f 5244 	mov.w	r2, r4, lsl #21
 80003d0:	f512 0f80 	cmn.w	r2, #4194304	@ 0x400000
 80003d4:	f080 809a 	bcs.w	800050c <__adddf3+0x240>
 80003d8:	f1bc 4f00 	cmp.w	ip, #2147483648	@ 0x80000000
 80003dc:	bf08      	it	eq
 80003de:	ea5f 0c50 	movseq.w	ip, r0, lsr #1
 80003e2:	f150 0000 	adcs.w	r0, r0, #0
 80003e6:	eb41 5104 	adc.w	r1, r1, r4, lsl #20
 80003ea:	ea41 0105 	orr.w	r1, r1, r5
 80003ee:	bd30      	pop	{r4, r5, pc}
 80003f0:	ea5f 0c4c 	movs.w	ip, ip, lsl #1
 80003f4:	4140      	adcs	r0, r0
 80003f6:	eb41 0101 	adc.w	r1, r1, r1
 80003fa:	3c01      	subs	r4, #1
 80003fc:	bf28      	it	cs
 80003fe:	f5b1 1f80 	cmpcs.w	r1, #1048576	@ 0x100000
 8000402:	d2e9      	bcs.n	80003d8 <__adddf3+0x10c>
 8000404:	f091 0f00 	teq	r1, #0
 8000408:	bf04      	itt	eq
 800040a:	4601      	moveq	r1, r0
 800040c:	2000      	moveq	r0, #0
 800040e:	fab1 f381 	clz	r3, r1
 8000412:	bf08      	it	eq
 8000414:	3320      	addeq	r3, #32
 8000416:	f1a3 030b 	sub.w	r3, r3, #11
 800041a:	f1b3 0220 	subs.w	r2, r3, #32
 800041e:	da0c      	bge.n	800043a <__adddf3+0x16e>
 8000420:	320c      	adds	r2, #12
 8000422:	dd08      	ble.n	8000436 <__adddf3+0x16a>
 8000424:	f102 0c14 	add.w	ip, r2, #20
 8000428:	f1c2 020c 	rsb	r2, r2, #12
 800042c:	fa01 f00c 	lsl.w	r0, r1, ip
 8000430:	fa21 f102 	lsr.w	r1, r1, r2
 8000434:	e00c      	b.n	8000450 <__adddf3+0x184>
 8000436:	f102 0214 	add.w	r2, r2, #20
 800043a:	bfd8      	it	le
 800043c:	f1c2 0c20 	rsble	ip, r2, #32
 8000440:	fa01 f102 	lsl.w	r1, r1, r2
 8000444:	fa20 fc0c 	lsr.w	ip, r0, ip
 8000448:	bfdc      	itt	le
 800044a:	ea41 010c 	orrle.w	r1, r1, ip
 800044e:	4090      	lslle	r0, r2
 8000450:	1ae4      	subs	r4, r4, r3
 8000452:	bfa2      	ittt	ge
 8000454:	eb01 5104 	addge.w	r1, r1, r4, lsl #20
 8000458:	4329      	orrge	r1, r5
 800045a:	bd30      	popge	{r4, r5, pc}
 800045c:	ea6f 0404 	mvn.w	r4, r4
 8000460:	3c1f      	subs	r4, #31
 8000462:	da1c      	bge.n	800049e <__adddf3+0x1d2>
 8000464:	340c      	adds	r4, #12
 8000466:	dc0e      	bgt.n	8000486 <__adddf3+0x1ba>
 8000468:	f104 0414 	add.w	r4, r4, #20
 800046c:	f1c4 0220 	rsb	r2, r4, #32
 8000470:	fa20 f004 	lsr.w	r0, r0, r4
 8000474:	fa01 f302 	lsl.w	r3, r1, r2
 8000478:	ea40 0003 	orr.w	r0, r0, r3
 800047c:	fa21 f304 	lsr.w	r3, r1, r4
 8000480:	ea45 0103 	orr.w	r1, r5, r3
 8000484:	bd30      	pop	{r4, r5, pc}
 8000486:	f1c4 040c 	rsb	r4, r4, #12
 800048a:	f1c4 0220 	rsb	r2, r4, #32
 800048e:	fa20 f002 	lsr.w	r0, r0, r2
 8000492:	fa01 f304 	lsl.w	r3, r1, r4
 8000496:	ea40 0003 	orr.w	r0, r0, r3
 800049a:	4629      	mov	r1, r5
 800049c:	bd30      	pop	{r4, r5, pc}
 800049e:	fa21 f004 	lsr.w	r0, r1, r4
 80004a2:	4629      	mov	r1, r5
 80004a4:	bd30      	pop	{r4, r5, pc}
 80004a6:	f094 0f00 	teq	r4, #0
 80004aa:	f483 1380 	eor.w	r3, r3, #1048576	@ 0x100000
 80004ae:	bf06      	itte	eq
 80004b0:	f481 1180 	eoreq.w	r1, r1, #1048576	@ 0x100000
 80004b4:	3401      	addeq	r4, #1
 80004b6:	3d01      	subne	r5, #1
 80004b8:	e74e      	b.n	8000358 <__adddf3+0x8c>
 80004ba:	ea7f 5c64 	mvns.w	ip, r4, asr #21
 80004be:	bf18      	it	ne
 80004c0:	ea7f 5c65 	mvnsne.w	ip, r5, asr #21
 80004c4:	d029      	beq.n	800051a <__adddf3+0x24e>
 80004c6:	ea94 0f05 	teq	r4, r5
 80004ca:	bf08      	it	eq
 80004cc:	ea90 0f02 	teqeq	r0, r2
 80004d0:	d005      	beq.n	80004de <__adddf3+0x212>
 80004d2:	ea54 0c00 	orrs.w	ip, r4, r0
 80004d6:	bf04      	itt	eq
 80004d8:	4619      	moveq	r1, r3
 80004da:	4610      	moveq	r0, r2
 80004dc:	bd30      	pop	{r4, r5, pc}
 80004de:	ea91 0f03 	teq	r1, r3
 80004e2:	bf1e      	ittt	ne
 80004e4:	2100      	movne	r1, #0
 80004e6:	2000      	movne	r0, #0
 80004e8:	bd30      	popne	{r4, r5, pc}
 80004ea:	ea5f 5c54 	movs.w	ip, r4, lsr #21
 80004ee:	d105      	bne.n	80004fc <__adddf3+0x230>
 80004f0:	0040      	lsls	r0, r0, #1
 80004f2:	4149      	adcs	r1, r1
 80004f4:	bf28      	it	cs
 80004f6:	f041 4100 	orrcs.w	r1, r1, #2147483648	@ 0x80000000
 80004fa:	bd30      	pop	{r4, r5, pc}
 80004fc:	f514 0480 	adds.w	r4, r4, #4194304	@ 0x400000
 8000500:	bf3c      	itt	cc
 8000502:	f501 1180 	addcc.w	r1, r1, #1048576	@ 0x100000
 8000506:	bd30      	popcc	{r4, r5, pc}
 8000508:	f001 4500 	and.w	r5, r1, #2147483648	@ 0x80000000
 800050c:	f045 41fe 	orr.w	r1, r5, #2130706432	@ 0x7f000000
 8000510:	f441 0170 	orr.w	r1, r1, #15728640	@ 0xf00000
 8000514:	f04f 0000 	mov.w	r0, #0
 8000518:	bd30      	pop	{r4, r5, pc}
 800051a:	ea7f 5c64 	mvns.w	ip, r4, asr #21
 800051e:	bf1a      	itte	ne
 8000520:	4619      	movne	r1, r3
 8000522:	4610      	movne	r0, r2
 8000524:	ea7f 5c65 	mvnseq.w	ip, r5, asr #21
 8000528:	bf1c      	itt	ne
 800052a:	460b      	movne	r3, r1
 800052c:	4602      	movne	r2, r0
 800052e:	ea50 3401 	orrs.w	r4, r0, r1, lsl #12
 8000532:	bf06      	itte	eq
 8000534:	ea52 3503 	orrseq.w	r5, r2, r3, lsl #12
 8000538:	ea91 0f03 	teqeq	r1, r3
 800053c:	f441 2100 	orrne.w	r1, r1, #524288	@ 0x80000
 8000540:	bd30      	pop	{r4, r5, pc}
 8000542:	bf00      	nop

08000544 <__aeabi_ui2d>:
 8000544:	f090 0f00 	teq	r0, #0
 8000548:	bf04      	itt	eq
 800054a:	2100      	moveq	r1, #0
 800054c:	4770      	bxeq	lr
 800054e:	b530      	push	{r4, r5, lr}
 8000550:	f44f 6480 	mov.w	r4, #1024	@ 0x400
 8000554:	f104 0432 	add.w	r4, r4, #50	@ 0x32
 8000558:	f04f 0500 	mov.w	r5, #0
 800055c:	f04f 0100 	mov.w	r1, #0
 8000560:	e750      	b.n	8000404 <__adddf3+0x138>
 8000562:	bf00      	nop

08000564 <__aeabi_i2d>:
 8000564:	f090 0f00 	teq	r0, #0
 8000568:	bf04      	itt	eq
 800056a:	2100      	moveq	r1, #0
 800056c:	4770      	bxeq	lr
 800056e:	b530      	push	{r4, r5, lr}
 8000570:	f44f 6480 	mov.w	r4, #1024	@ 0x400
 8000574:	f104 0432 	add.w	r4, r4, #50	@ 0x32
 8000578:	f010 4500 	ands.w	r5, r0, #2147483648	@ 0x80000000
 800057c:	bf48      	it	mi
 800057e:	4240      	negmi	r0, r0
 8000580:	f04f 0100 	mov.w	r1, #0
 8000584:	e73e      	b.n	8000404 <__adddf3+0x138>
 8000586:	bf00      	nop

08000588 <__aeabi_f2d>:
 8000588:	0042      	lsls	r2, r0, #1
 800058a:	ea4f 01e2 	mov.w	r1, r2, asr #3
 800058e:	ea4f 0131 	mov.w	r1, r1, rrx
 8000592:	ea4f 7002 	mov.w	r0, r2, lsl #28
 8000596:	bf1f      	itttt	ne
 8000598:	f012 437f 	andsne.w	r3, r2, #4278190080	@ 0xff000000
 800059c:	f093 4f7f 	teqne	r3, #4278190080	@ 0xff000000
 80005a0:	f081 5160 	eorne.w	r1, r1, #939524096	@ 0x38000000
 80005a4:	4770      	bxne	lr
 80005a6:	f032 427f 	bics.w	r2, r2, #4278190080	@ 0xff000000
 80005aa:	bf08      	it	eq
 80005ac:	4770      	bxeq	lr
 80005ae:	f093 4f7f 	teq	r3, #4278190080	@ 0xff000000
 80005b2:	bf04      	itt	eq
 80005b4:	f441 2100 	orreq.w	r1, r1, #524288	@ 0x80000
 80005b8:	4770      	bxeq	lr
 80005ba:	b530      	push	{r4, r5, lr}
 80005bc:	f44f 7460 	mov.w	r4, #896	@ 0x380
 80005c0:	f001 4500 	and.w	r5, r1, #2147483648	@ 0x80000000
 80005c4:	f021 4100 	bic.w	r1, r1, #2147483648	@ 0x80000000
 80005c8:	e71c      	b.n	8000404 <__adddf3+0x138>
 80005ca:	bf00      	nop

080005cc <__aeabi_ul2d>:
 80005cc:	ea50 0201 	orrs.w	r2, r0, r1
 80005d0:	bf08      	it	eq
 80005d2:	4770      	bxeq	lr
 80005d4:	b530      	push	{r4, r5, lr}
 80005d6:	f04f 0500 	mov.w	r5, #0
 80005da:	e00a      	b.n	80005f2 <__aeabi_l2d+0x16>

080005dc <__aeabi_l2d>:
 80005dc:	ea50 0201 	orrs.w	r2, r0, r1
 80005e0:	bf08      	it	eq
 80005e2:	4770      	bxeq	lr
 80005e4:	b530      	push	{r4, r5, lr}
 80005e6:	f011 4500 	ands.w	r5, r1, #2147483648	@ 0x80000000
 80005ea:	d502      	bpl.n	80005f2 <__aeabi_l2d+0x16>
 80005ec:	4240      	negs	r0, r0
 80005ee:	eb61 0141 	sbc.w	r1, r1, r1, lsl #1
 80005f2:	f44f 6480 	mov.w	r4, #1024	@ 0x400
 80005f6:	f104 0432 	add.w	r4, r4, #50	@ 0x32
 80005fa:	ea5f 5c91 	movs.w	ip, r1, lsr #22
 80005fe:	f43f aed8 	beq.w	80003b2 <__adddf3+0xe6>
 8000602:	f04f 0203 	mov.w	r2, #3
 8000606:	ea5f 0cdc 	movs.w	ip, ip, lsr #3
 800060a:	bf18      	it	ne
 800060c:	3203      	addne	r2, #3
 800060e:	ea5f 0cdc 	movs.w	ip, ip, lsr #3
 8000612:	bf18      	it	ne
 8000614:	3203      	addne	r2, #3
 8000616:	eb02 02dc 	add.w	r2, r2, ip, lsr #3
 800061a:	f1c2 0320 	rsb	r3, r2, #32
 800061e:	fa00 fc03 	lsl.w	ip, r0, r3
 8000622:	fa20 f002 	lsr.w	r0, r0, r2
 8000626:	fa01 fe03 	lsl.w	lr, r1, r3
 800062a:	ea40 000e 	orr.w	r0, r0, lr
 800062e:	fa21 f102 	lsr.w	r1, r1, r2
 8000632:	4414      	add	r4, r2
 8000634:	e6bd      	b.n	80003b2 <__adddf3+0xe6>
 8000636:	bf00      	nop

08000638 <__aeabi_dmul>:
 8000638:	b570      	push	{r4, r5, r6, lr}
 800063a:	f04f 0cff 	mov.w	ip, #255	@ 0xff
 800063e:	f44c 6ce0 	orr.w	ip, ip, #1792	@ 0x700
 8000642:	ea1c 5411 	ands.w	r4, ip, r1, lsr #20
 8000646:	bf1d      	ittte	ne
 8000648:	ea1c 5513 	andsne.w	r5, ip, r3, lsr #20
 800064c:	ea94 0f0c 	teqne	r4, ip
 8000650:	ea95 0f0c 	teqne	r5, ip
 8000654:	f000 f8de 	bleq	8000814 <__aeabi_dmul+0x1dc>
 8000658:	442c      	add	r4, r5
 800065a:	ea81 0603 	eor.w	r6, r1, r3
 800065e:	ea21 514c 	bic.w	r1, r1, ip, lsl #21
 8000662:	ea23 534c 	bic.w	r3, r3, ip, lsl #21
 8000666:	ea50 3501 	orrs.w	r5, r0, r1, lsl #12
 800066a:	bf18      	it	ne
 800066c:	ea52 3503 	orrsne.w	r5, r2, r3, lsl #12
 8000670:	f441 1180 	orr.w	r1, r1, #1048576	@ 0x100000
 8000674:	f443 1380 	orr.w	r3, r3, #1048576	@ 0x100000
 8000678:	d038      	beq.n	80006ec <__aeabi_dmul+0xb4>
 800067a:	fba0 ce02 	umull	ip, lr, r0, r2
 800067e:	f04f 0500 	mov.w	r5, #0
 8000682:	fbe1 e502 	umlal	lr, r5, r1, r2
 8000686:	f006 4200 	and.w	r2, r6, #2147483648	@ 0x80000000
 800068a:	fbe0 e503 	umlal	lr, r5, r0, r3
 800068e:	f04f 0600 	mov.w	r6, #0
 8000692:	fbe1 5603 	umlal	r5, r6, r1, r3
 8000696:	f09c 0f00 	teq	ip, #0
 800069a:	bf18      	it	ne
 800069c:	f04e 0e01 	orrne.w	lr, lr, #1
 80006a0:	f1a4 04ff 	sub.w	r4, r4, #255	@ 0xff
 80006a4:	f5b6 7f00 	cmp.w	r6, #512	@ 0x200
 80006a8:	f564 7440 	sbc.w	r4, r4, #768	@ 0x300
 80006ac:	d204      	bcs.n	80006b8 <__aeabi_dmul+0x80>
 80006ae:	ea5f 0e4e 	movs.w	lr, lr, lsl #1
 80006b2:	416d      	adcs	r5, r5
 80006b4:	eb46 0606 	adc.w	r6, r6, r6
 80006b8:	ea42 21c6 	orr.w	r1, r2, r6, lsl #11
 80006bc:	ea41 5155 	orr.w	r1, r1, r5, lsr #21
 80006c0:	ea4f 20c5 	mov.w	r0, r5, lsl #11
 80006c4:	ea40 505e 	orr.w	r0, r0, lr, lsr #21
 80006c8:	ea4f 2ece 	mov.w	lr, lr, lsl #11
 80006cc:	f1b4 0cfd 	subs.w	ip, r4, #253	@ 0xfd
 80006d0:	bf88      	it	hi
 80006d2:	f5bc 6fe0 	cmphi.w	ip, #1792	@ 0x700
 80006d6:	d81e      	bhi.n	8000716 <__aeabi_dmul+0xde>
 80006d8:	f1be 4f00 	cmp.w	lr, #2147483648	@ 0x80000000
 80006dc:	bf08      	it	eq
 80006de:	ea5f 0e50 	movseq.w	lr, r0, lsr #1
 80006e2:	f150 0000 	adcs.w	r0, r0, #0
 80006e6:	eb41 5104 	adc.w	r1, r1, r4, lsl #20
 80006ea:	bd70      	pop	{r4, r5, r6, pc}
 80006ec:	f006 4600 	and.w	r6, r6, #2147483648	@ 0x80000000
 80006f0:	ea46 0101 	orr.w	r1, r6, r1
 80006f4:	ea40 0002 	orr.w	r0, r0, r2
 80006f8:	ea81 0103 	eor.w	r1, r1, r3
 80006fc:	ebb4 045c 	subs.w	r4, r4, ip, lsr #1
 8000700:	bfc2      	ittt	gt
 8000702:	ebd4 050c 	rsbsgt	r5, r4, ip
 8000706:	ea41 5104 	orrgt.w	r1, r1, r4, lsl #20
 800070a:	bd70      	popgt	{r4, r5, r6, pc}
 800070c:	f441 1180 	orr.w	r1, r1, #1048576	@ 0x100000
 8000710:	f04f 0e00 	mov.w	lr, #0
 8000714:	3c01      	subs	r4, #1
 8000716:	f300 80ab 	bgt.w	8000870 <__aeabi_dmul+0x238>
 800071a:	f114 0f36 	cmn.w	r4, #54	@ 0x36
 800071e:	bfde      	ittt	le
 8000720:	2000      	movle	r0, #0
 8000722:	f001 4100 	andle.w	r1, r1, #2147483648	@ 0x80000000
 8000726:	bd70      	pople	{r4, r5, r6, pc}
 8000728:	f1c4 0400 	rsb	r4, r4, #0
 800072c:	3c20      	subs	r4, #32
 800072e:	da35      	bge.n	800079c <__aeabi_dmul+0x164>
 8000730:	340c      	adds	r4, #12
 8000732:	dc1b      	bgt.n	800076c <__aeabi_dmul+0x134>
 8000734:	f104 0414 	add.w	r4, r4, #20
 8000738:	f1c4 0520 	rsb	r5, r4, #32
 800073c:	fa00 f305 	lsl.w	r3, r0, r5
 8000740:	fa20 f004 	lsr.w	r0, r0, r4
 8000744:	fa01 f205 	lsl.w	r2, r1, r5
 8000748:	ea40 0002 	orr.w	r0, r0, r2
 800074c:	f001 4200 	and.w	r2, r1, #2147483648	@ 0x80000000
 8000750:	f021 4100 	bic.w	r1, r1, #2147483648	@ 0x80000000
 8000754:	eb10 70d3 	adds.w	r0, r0, r3, lsr #31
 8000758:	fa21 f604 	lsr.w	r6, r1, r4
 800075c:	eb42 0106 	adc.w	r1, r2, r6
 8000760:	ea5e 0e43 	orrs.w	lr, lr, r3, lsl #1
 8000764:	bf08      	it	eq
 8000766:	ea20 70d3 	biceq.w	r0, r0, r3, lsr #31
 800076a:	bd70      	pop	{r4, r5, r6, pc}
 800076c:	f1c4 040c 	rsb	r4, r4, #12
 8000770:	f1c4 0520 	rsb	r5, r4, #32
 8000774:	fa00 f304 	lsl.w	r3, r0, r4
 8000778:	fa20 f005 	lsr.w	r0, r0, r5
 800077c:	fa01 f204 	lsl.w	r2, r1, r4
 8000780:	ea40 0002 	orr.w	r0, r0, r2
 8000784:	f001 4100 	and.w	r1, r1, #2147483648	@ 0x80000000
 8000788:	eb10 70d3 	adds.w	r0, r0, r3, lsr #31
 800078c:	f141 0100 	adc.w	r1, r1, #0
 8000790:	ea5e 0e43 	orrs.w	lr, lr, r3, lsl #1
 8000794:	bf08      	it	eq
 8000796:	ea20 70d3 	biceq.w	r0, r0, r3, lsr #31
 800079a:	bd70      	pop	{r4, r5, r6, pc}
 800079c:	f1c4 0520 	rsb	r5, r4, #32
 80007a0:	fa00 f205 	lsl.w	r2, r0, r5
 80007a4:	ea4e 0e02 	orr.w	lr, lr, r2
 80007a8:	fa20 f304 	lsr.w	r3, r0, r4
 80007ac:	fa01 f205 	lsl.w	r2, r1, r5
 80007b0:	ea43 0302 	orr.w	r3, r3, r2
 80007b4:	fa21 f004 	lsr.w	r0, r1, r4
 80007b8:	f001 4100 	and.w	r1, r1, #2147483648	@ 0x80000000
 80007bc:	fa21 f204 	lsr.w	r2, r1, r4
 80007c0:	ea20 0002 	bic.w	r0, r0, r2
 80007c4:	eb00 70d3 	add.w	r0, r0, r3, lsr #31
 80007c8:	ea5e 0e43 	orrs.w	lr, lr, r3, lsl #1
 80007cc:	bf08      	it	eq
 80007ce:	ea20 70d3 	biceq.w	r0, r0, r3, lsr #31
 80007d2:	bd70      	pop	{r4, r5, r6, pc}
 80007d4:	f094 0f00 	teq	r4, #0
 80007d8:	d10f      	bne.n	80007fa <__aeabi_dmul+0x1c2>
 80007da:	f001 4600 	and.w	r6, r1, #2147483648	@ 0x80000000
 80007de:	0040      	lsls	r0, r0, #1
 80007e0:	eb41 0101 	adc.w	r1, r1, r1
 80007e4:	f411 1f80 	tst.w	r1, #1048576	@ 0x100000
 80007e8:	bf08      	it	eq
 80007ea:	3c01      	subeq	r4, #1
 80007ec:	d0f7      	beq.n	80007de <__aeabi_dmul+0x1a6>
 80007ee:	ea41 0106 	orr.w	r1, r1, r6
 80007f2:	f095 0f00 	teq	r5, #0
 80007f6:	bf18      	it	ne
 80007f8:	4770      	bxne	lr
 80007fa:	f003 4600 	and.w	r6, r3, #2147483648	@ 0x80000000
 80007fe:	0052      	lsls	r2, r2, #1
 8000800:	eb43 0303 	adc.w	r3, r3, r3
 8000804:	f413 1f80 	tst.w	r3, #1048576	@ 0x100000
 8000808:	bf08      	it	eq
 800080a:	3d01      	subeq	r5, #1
 800080c:	d0f7      	beq.n	80007fe <__aeabi_dmul+0x1c6>
 800080e:	ea43 0306 	orr.w	r3, r3, r6
 8000812:	4770      	bx	lr
 8000814:	ea94 0f0c 	teq	r4, ip
 8000818:	ea0c 5513 	and.w	r5, ip, r3, lsr #20
 800081c:	bf18      	it	ne
 800081e:	ea95 0f0c 	teqne	r5, ip
 8000822:	d00c      	beq.n	800083e <__aeabi_dmul+0x206>
 8000824:	ea50 0641 	orrs.w	r6, r0, r1, lsl #1
 8000828:	bf18      	it	ne
 800082a:	ea52 0643 	orrsne.w	r6, r2, r3, lsl #1
 800082e:	d1d1      	bne.n	80007d4 <__aeabi_dmul+0x19c>
 8000830:	ea81 0103 	eor.w	r1, r1, r3
 8000834:	f001 4100 	and.w	r1, r1, #2147483648	@ 0x80000000
 8000838:	f04f 0000 	mov.w	r0, #0
 800083c:	bd70      	pop	{r4, r5, r6, pc}
 800083e:	ea50 0641 	orrs.w	r6, r0, r1, lsl #1
 8000842:	bf06      	itte	eq
 8000844:	4610      	moveq	r0, r2
 8000846:	4619      	moveq	r1, r3
 8000848:	ea52 0643 	orrsne.w	r6, r2, r3, lsl #1
 800084c:	d019      	beq.n	8000882 <__aeabi_dmul+0x24a>
 800084e:	ea94 0f0c 	teq	r4, ip
 8000852:	d102      	bne.n	800085a <__aeabi_dmul+0x222>
 8000854:	ea50 3601 	orrs.w	r6, r0, r1, lsl #12
 8000858:	d113      	bne.n	8000882 <__aeabi_dmul+0x24a>
 800085a:	ea95 0f0c 	teq	r5, ip
 800085e:	d105      	bne.n	800086c <__aeabi_dmul+0x234>
 8000860:	ea52 3603 	orrs.w	r6, r2, r3, lsl #12
 8000864:	bf1c      	itt	ne
 8000866:	4610      	movne	r0, r2
 8000868:	4619      	movne	r1, r3
 800086a:	d10a      	bne.n	8000882 <__aeabi_dmul+0x24a>
 800086c:	ea81 0103 	eor.w	r1, r1, r3
 8000870:	f001 4100 	and.w	r1, r1, #2147483648	@ 0x80000000
 8000874:	f041 41fe 	orr.w	r1, r1, #2130706432	@ 0x7f000000
 8000878:	f441 0170 	orr.w	r1, r1, #15728640	@ 0xf00000
 800087c:	f04f 0000 	mov.w	r0, #0
 8000880:	bd70      	pop	{r4, r5, r6, pc}
 8000882:	f041 41fe 	orr.w	r1, r1, #2130706432	@ 0x7f000000
 8000886:	f441 0178 	orr.w	r1, r1, #16252928	@ 0xf80000
 800088a:	bd70      	pop	{r4, r5, r6, pc}

0800088c <__aeabi_ddiv>:
 800088c:	b570      	push	{r4, r5, r6, lr}
 800088e:	f04f 0cff 	mov.w	ip, #255	@ 0xff
 8000892:	f44c 6ce0 	orr.w	ip, ip, #1792	@ 0x700
 8000896:	ea1c 5411 	ands.w	r4, ip, r1, lsr #20
 800089a:	bf1d      	ittte	ne
 800089c:	ea1c 5513 	andsne.w	r5, ip, r3, lsr #20
 80008a0:	ea94 0f0c 	teqne	r4, ip
 80008a4:	ea95 0f0c 	teqne	r5, ip
 80008a8:	f000 f8a7 	bleq	80009fa <__aeabi_ddiv+0x16e>
 80008ac:	eba4 0405 	sub.w	r4, r4, r5
 80008b0:	ea81 0e03 	eor.w	lr, r1, r3
 80008b4:	ea52 3503 	orrs.w	r5, r2, r3, lsl #12
 80008b8:	ea4f 3101 	mov.w	r1, r1, lsl #12
 80008bc:	f000 8088 	beq.w	80009d0 <__aeabi_ddiv+0x144>
 80008c0:	ea4f 3303 	mov.w	r3, r3, lsl #12
 80008c4:	f04f 5580 	mov.w	r5, #268435456	@ 0x10000000
 80008c8:	ea45 1313 	orr.w	r3, r5, r3, lsr #4
 80008cc:	ea43 6312 	orr.w	r3, r3, r2, lsr #24
 80008d0:	ea4f 2202 	mov.w	r2, r2, lsl #8
 80008d4:	ea45 1511 	orr.w	r5, r5, r1, lsr #4
 80008d8:	ea45 6510 	orr.w	r5, r5, r0, lsr #24
 80008dc:	ea4f 2600 	mov.w	r6, r0, lsl #8
 80008e0:	f00e 4100 	and.w	r1, lr, #2147483648	@ 0x80000000
 80008e4:	429d      	cmp	r5, r3
 80008e6:	bf08      	it	eq
 80008e8:	4296      	cmpeq	r6, r2
 80008ea:	f144 04fd 	adc.w	r4, r4, #253	@ 0xfd
 80008ee:	f504 7440 	add.w	r4, r4, #768	@ 0x300
 80008f2:	d202      	bcs.n	80008fa <__aeabi_ddiv+0x6e>
 80008f4:	085b      	lsrs	r3, r3, #1
 80008f6:	ea4f 0232 	mov.w	r2, r2, rrx
 80008fa:	1ab6      	subs	r6, r6, r2
 80008fc:	eb65 0503 	sbc.w	r5, r5, r3
 8000900:	085b      	lsrs	r3, r3, #1
 8000902:	ea4f 0232 	mov.w	r2, r2, rrx
 8000906:	f44f 1080 	mov.w	r0, #1048576	@ 0x100000
 800090a:	f44f 2c00 	mov.w	ip, #524288	@ 0x80000
 800090e:	ebb6 0e02 	subs.w	lr, r6, r2
 8000912:	eb75 0e03 	sbcs.w	lr, r5, r3
 8000916:	bf22      	ittt	cs
 8000918:	1ab6      	subcs	r6, r6, r2
 800091a:	4675      	movcs	r5, lr
 800091c:	ea40 000c 	orrcs.w	r0, r0, ip
 8000920:	085b      	lsrs	r3, r3, #1
 8000922:	ea4f 0232 	mov.w	r2, r2, rrx
 8000926:	ebb6 0e02 	subs.w	lr, r6, r2
 800092a:	eb75 0e03 	sbcs.w	lr, r5, r3
 800092e:	bf22      	ittt	cs
 8000930:	1ab6      	subcs	r6, r6, r2
 8000932:	4675      	movcs	r5, lr
 8000934:	ea40 005c 	orrcs.w	r0, r0, ip, lsr #1
 8000938:	085b      	lsrs	r3, r3, #1
 800093a:	ea4f 0232 	mov.w	r2, r2, rrx
 800093e:	ebb6 0e02 	subs.w	lr, r6, r2
 8000942:	eb75 0e03 	sbcs.w	lr, r5, r3
 8000946:	bf22      	ittt	cs
 8000948:	1ab6      	subcs	r6, r6, r2
 800094a:	4675      	movcs	r5, lr
 800094c:	ea40 009c 	orrcs.w	r0, r0, ip, lsr #2
 8000950:	085b      	lsrs	r3, r3, #1
 8000952:	ea4f 0232 	mov.w	r2, r2, rrx
 8000956:	ebb6 0e02 	subs.w	lr, r6, r2
 800095a:	eb75 0e03 	sbcs.w	lr, r5, r3
 800095e:	bf22      	ittt	cs
 8000960:	1ab6      	subcs	r6, r6, r2
 8000962:	4675      	movcs	r5, lr
 8000964:	ea40 00dc 	orrcs.w	r0, r0, ip, lsr #3
 8000968:	ea55 0e06 	orrs.w	lr, r5, r6
 800096c:	d018      	beq.n	80009a0 <__aeabi_ddiv+0x114>
 800096e:	ea4f 1505 	mov.w	r5, r5, lsl #4
 8000972:	ea45 7516 	orr.w	r5, r5, r6, lsr #28
 8000976:	ea4f 1606 	mov.w	r6, r6, lsl #4
 800097a:	ea4f 03c3 	mov.w	r3, r3, lsl #3
 800097e:	ea43 7352 	orr.w	r3, r3, r2, lsr #29
 8000982:	ea4f 02c2 	mov.w	r2, r2, lsl #3
 8000986:	ea5f 1c1c 	movs.w	ip, ip, lsr #4
 800098a:	d1c0      	bne.n	800090e <__aeabi_ddiv+0x82>
 800098c:	f411 1f80 	tst.w	r1, #1048576	@ 0x100000
 8000990:	d10b      	bne.n	80009aa <__aeabi_ddiv+0x11e>
 8000992:	ea41 0100 	orr.w	r1, r1, r0
 8000996:	f04f 0000 	mov.w	r0, #0
 800099a:	f04f 4c00 	mov.w	ip, #2147483648	@ 0x80000000
 800099e:	e7b6      	b.n	800090e <__aeabi_ddiv+0x82>
 80009a0:	f411 1f80 	tst.w	r1, #1048576	@ 0x100000
 80009a4:	bf04      	itt	eq
 80009a6:	4301      	orreq	r1, r0
 80009a8:	2000      	moveq	r0, #0
 80009aa:	f1b4 0cfd 	subs.w	ip, r4, #253	@ 0xfd
 80009ae:	bf88      	it	hi
 80009b0:	f5bc 6fe0 	cmphi.w	ip, #1792	@ 0x700
 80009b4:	f63f aeaf 	bhi.w	8000716 <__aeabi_dmul+0xde>
 80009b8:	ebb5 0c03 	subs.w	ip, r5, r3
 80009bc:	bf04      	itt	eq
 80009be:	ebb6 0c02 	subseq.w	ip, r6, r2
 80009c2:	ea5f 0c50 	movseq.w	ip, r0, lsr #1
 80009c6:	f150 0000 	adcs.w	r0, r0, #0
 80009ca:	eb41 5104 	adc.w	r1, r1, r4, lsl #20
 80009ce:	bd70      	pop	{r4, r5, r6, pc}
 80009d0:	f00e 4e00 	and.w	lr, lr, #2147483648	@ 0x80000000
 80009d4:	ea4e 3111 	orr.w	r1, lr, r1, lsr #12
 80009d8:	eb14 045c 	adds.w	r4, r4, ip, lsr #1
 80009dc:	bfc2      	ittt	gt
 80009de:	ebd4 050c 	rsbsgt	r5, r4, ip
 80009e2:	ea41 5104 	orrgt.w	r1, r1, r4, lsl #20
 80009e6:	bd70      	popgt	{r4, r5, r6, pc}
 80009e8:	f441 1180 	orr.w	r1, r1, #1048576	@ 0x100000
 80009ec:	f04f 0e00 	mov.w	lr, #0
 80009f0:	3c01      	subs	r4, #1
 80009f2:	e690      	b.n	8000716 <__aeabi_dmul+0xde>
 80009f4:	ea45 0e06 	orr.w	lr, r5, r6
 80009f8:	e68d      	b.n	8000716 <__aeabi_dmul+0xde>
 80009fa:	ea0c 5513 	and.w	r5, ip, r3, lsr #20
 80009fe:	ea94 0f0c 	teq	r4, ip
 8000a02:	bf08      	it	eq
 8000a04:	ea95 0f0c 	teqeq	r5, ip
 8000a08:	f43f af3b 	beq.w	8000882 <__aeabi_dmul+0x24a>
 8000a0c:	ea94 0f0c 	teq	r4, ip
 8000a10:	d10a      	bne.n	8000a28 <__aeabi_ddiv+0x19c>
 8000a12:	ea50 3401 	orrs.w	r4, r0, r1, lsl #12
 8000a16:	f47f af34 	bne.w	8000882 <__aeabi_dmul+0x24a>
 8000a1a:	ea95 0f0c 	teq	r5, ip
 8000a1e:	f47f af25 	bne.w	800086c <__aeabi_dmul+0x234>
 8000a22:	4610      	mov	r0, r2
 8000a24:	4619      	mov	r1, r3
 8000a26:	e72c      	b.n	8000882 <__aeabi_dmul+0x24a>
 8000a28:	ea95 0f0c 	teq	r5, ip
 8000a2c:	d106      	bne.n	8000a3c <__aeabi_ddiv+0x1b0>
 8000a2e:	ea52 3503 	orrs.w	r5, r2, r3, lsl #12
 8000a32:	f43f aefd 	beq.w	8000830 <__aeabi_dmul+0x1f8>
 8000a36:	4610      	mov	r0, r2
 8000a38:	4619      	mov	r1, r3
 8000a3a:	e722      	b.n	8000882 <__aeabi_dmul+0x24a>
 8000a3c:	ea50 0641 	orrs.w	r6, r0, r1, lsl #1
 8000a40:	bf18      	it	ne
 8000a42:	ea52 0643 	orrsne.w	r6, r2, r3, lsl #1
 8000a46:	f47f aec5 	bne.w	80007d4 <__aeabi_dmul+0x19c>
 8000a4a:	ea50 0441 	orrs.w	r4, r0, r1, lsl #1
 8000a4e:	f47f af0d 	bne.w	800086c <__aeabi_dmul+0x234>
 8000a52:	ea52 0543 	orrs.w	r5, r2, r3, lsl #1
 8000a56:	f47f aeeb 	bne.w	8000830 <__aeabi_dmul+0x1f8>
 8000a5a:	e712      	b.n	8000882 <__aeabi_dmul+0x24a>

08000a5c <__gedf2>:
 8000a5c:	f04f 3cff 	mov.w	ip, #4294967295	@ 0xffffffff
 8000a60:	e006      	b.n	8000a70 <__cmpdf2+0x4>
 8000a62:	bf00      	nop

08000a64 <__ledf2>:
 8000a64:	f04f 0c01 	mov.w	ip, #1
 8000a68:	e002      	b.n	8000a70 <__cmpdf2+0x4>
 8000a6a:	bf00      	nop

08000a6c <__cmpdf2>:
 8000a6c:	f04f 0c01 	mov.w	ip, #1
 8000a70:	f84d cd04 	str.w	ip, [sp, #-4]!
 8000a74:	ea4f 0c41 	mov.w	ip, r1, lsl #1
 8000a78:	ea7f 5c6c 	mvns.w	ip, ip, asr #21
 8000a7c:	ea4f 0c43 	mov.w	ip, r3, lsl #1
 8000a80:	bf18      	it	ne
 8000a82:	ea7f 5c6c 	mvnsne.w	ip, ip, asr #21
 8000a86:	d01b      	beq.n	8000ac0 <__cmpdf2+0x54>
 8000a88:	b001      	add	sp, #4
 8000a8a:	ea50 0c41 	orrs.w	ip, r0, r1, lsl #1
 8000a8e:	bf0c      	ite	eq
 8000a90:	ea52 0c43 	orrseq.w	ip, r2, r3, lsl #1
 8000a94:	ea91 0f03 	teqne	r1, r3
 8000a98:	bf02      	ittt	eq
 8000a9a:	ea90 0f02 	teqeq	r0, r2
 8000a9e:	2000      	moveq	r0, #0
 8000aa0:	4770      	bxeq	lr
 8000aa2:	f110 0f00 	cmn.w	r0, #0
 8000aa6:	ea91 0f03 	teq	r1, r3
 8000aaa:	bf58      	it	pl
 8000aac:	4299      	cmppl	r1, r3
 8000aae:	bf08      	it	eq
 8000ab0:	4290      	cmpeq	r0, r2
 8000ab2:	bf2c      	ite	cs
 8000ab4:	17d8      	asrcs	r0, r3, #31
 8000ab6:	ea6f 70e3 	mvncc.w	r0, r3, asr #31
 8000aba:	f040 0001 	orr.w	r0, r0, #1
 8000abe:	4770      	bx	lr
 8000ac0:	ea4f 0c41 	mov.w	ip, r1, lsl #1
 8000ac4:	ea7f 5c6c 	mvns.w	ip, ip, asr #21
 8000ac8:	d102      	bne.n	8000ad0 <__cmpdf2+0x64>
 8000aca:	ea50 3c01 	orrs.w	ip, r0, r1, lsl #12
 8000ace:	d107      	bne.n	8000ae0 <__cmpdf2+0x74>
 8000ad0:	ea4f 0c43 	mov.w	ip, r3, lsl #1
 8000ad4:	ea7f 5c6c 	mvns.w	ip, ip, asr #21
 8000ad8:	d1d6      	bne.n	8000a88 <__cmpdf2+0x1c>
 8000ada:	ea52 3c03 	orrs.w	ip, r2, r3, lsl #12
 8000ade:	d0d3      	beq.n	8000a88 <__cmpdf2+0x1c>
 8000ae0:	f85d 0b04 	ldr.w	r0, [sp], #4
 8000ae4:	4770      	bx	lr
 8000ae6:	bf00      	nop

08000ae8 <__aeabi_cdrcmple>:
 8000ae8:	4684      	mov	ip, r0
 8000aea:	4610      	mov	r0, r2
 8000aec:	4662      	mov	r2, ip
 8000aee:	468c      	mov	ip, r1
 8000af0:	4619      	mov	r1, r3
 8000af2:	4663      	mov	r3, ip
 8000af4:	e000      	b.n	8000af8 <__aeabi_cdcmpeq>
 8000af6:	bf00      	nop

08000af8 <__aeabi_cdcmpeq>:
 8000af8:	b501      	push	{r0, lr}
 8000afa:	f7ff ffb7 	bl	8000a6c <__cmpdf2>
 8000afe:	2800      	cmp	r0, #0
 8000b00:	bf48      	it	mi
 8000b02:	f110 0f00 	cmnmi.w	r0, #0
 8000b06:	bd01      	pop	{r0, pc}

08000b08 <__aeabi_dcmpeq>:
 8000b08:	f84d ed08 	str.w	lr, [sp, #-8]!
 8000b0c:	f7ff fff4 	bl	8000af8 <__aeabi_cdcmpeq>
 8000b10:	bf0c      	ite	eq
 8000b12:	2001      	moveq	r0, #1
 8000b14:	2000      	movne	r0, #0
 8000b16:	f85d fb08 	ldr.w	pc, [sp], #8
 8000b1a:	bf00      	nop

08000b1c <__aeabi_dcmplt>:
 8000b1c:	f84d ed08 	str.w	lr, [sp, #-8]!
 8000b20:	f7ff ffea 	bl	8000af8 <__aeabi_cdcmpeq>
 8000b24:	bf34      	ite	cc
 8000b26:	2001      	movcc	r0, #1
 8000b28:	2000      	movcs	r0, #0
 8000b2a:	f85d fb08 	ldr.w	pc, [sp], #8
 8000b2e:	bf00      	nop

08000b30 <__aeabi_dcmple>:
 8000b30:	f84d ed08 	str.w	lr, [sp, #-8]!
 8000b34:	f7ff ffe0 	bl	8000af8 <__aeabi_cdcmpeq>
 8000b38:	bf94      	ite	ls
 8000b3a:	2001      	movls	r0, #1
 8000b3c:	2000      	movhi	r0, #0
 8000b3e:	f85d fb08 	ldr.w	pc, [sp], #8
 8000b42:	bf00      	nop

08000b44 <__aeabi_dcmpge>:
 8000b44:	f84d ed08 	str.w	lr, [sp, #-8]!
 8000b48:	f7ff ffce 	bl	8000ae8 <__aeabi_cdrcmple>
 8000b4c:	bf94      	ite	ls
 8000b4e:	2001      	movls	r0, #1
 8000b50:	2000      	movhi	r0, #0
 8000b52:	f85d fb08 	ldr.w	pc, [sp], #8
 8000b56:	bf00      	nop

08000b58 <__aeabi_dcmpgt>:
 8000b58:	f84d ed08 	str.w	lr, [sp, #-8]!
 8000b5c:	f7ff ffc4 	bl	8000ae8 <__aeabi_cdrcmple>
 8000b60:	bf34      	ite	cc
 8000b62:	2001      	movcc	r0, #1
 8000b64:	2000      	movcs	r0, #0
 8000b66:	f85d fb08 	ldr.w	pc, [sp], #8
 8000b6a:	bf00      	nop

08000b6c <__aeabi_dcmpun>:
 8000b6c:	ea4f 0c41 	mov.w	ip, r1, lsl #1
 8000b70:	ea7f 5c6c 	mvns.w	ip, ip, asr #21
 8000b74:	d102      	bne.n	8000b7c <__aeabi_dcmpun+0x10>
 8000b76:	ea50 3c01 	orrs.w	ip, r0, r1, lsl #12
 8000b7a:	d10a      	bne.n	8000b92 <__aeabi_dcmpun+0x26>
 8000b7c:	ea4f 0c43 	mov.w	ip, r3, lsl #1
 8000b80:	ea7f 5c6c 	mvns.w	ip, ip, asr #21
 8000b84:	d102      	bne.n	8000b8c <__aeabi_dcmpun+0x20>
 8000b86:	ea52 3c03 	orrs.w	ip, r2, r3, lsl #12
 8000b8a:	d102      	bne.n	8000b92 <__aeabi_dcmpun+0x26>
 8000b8c:	f04f 0000 	mov.w	r0, #0
 8000b90:	4770      	bx	lr
 8000b92:	f04f 0001 	mov.w	r0, #1
 8000b96:	4770      	bx	lr

08000b98 <__aeabi_d2iz>:
 8000b98:	ea4f 0241 	mov.w	r2, r1, lsl #1
 8000b9c:	f512 1200 	adds.w	r2, r2, #2097152	@ 0x200000
 8000ba0:	d215      	bcs.n	8000bce <__aeabi_d2iz+0x36>
 8000ba2:	d511      	bpl.n	8000bc8 <__aeabi_d2iz+0x30>
 8000ba4:	f46f 7378 	mvn.w	r3, #992	@ 0x3e0
 8000ba8:	ebb3 5262 	subs.w	r2, r3, r2, asr #21
 8000bac:	d912      	bls.n	8000bd4 <__aeabi_d2iz+0x3c>
 8000bae:	ea4f 23c1 	mov.w	r3, r1, lsl #11
 8000bb2:	f043 4300 	orr.w	r3, r3, #2147483648	@ 0x80000000
 8000bb6:	ea43 5350 	orr.w	r3, r3, r0, lsr #21
 8000bba:	f011 4f00 	tst.w	r1, #2147483648	@ 0x80000000
 8000bbe:	fa23 f002 	lsr.w	r0, r3, r2
 8000bc2:	bf18      	it	ne
 8000bc4:	4240      	negne	r0, r0
 8000bc6:	4770      	bx	lr
 8000bc8:	f04f 0000 	mov.w	r0, #0
 8000bcc:	4770      	bx	lr
 8000bce:	ea50 3001 	orrs.w	r0, r0, r1, lsl #12
 8000bd2:	d105      	bne.n	8000be0 <__aeabi_d2iz+0x48>
 8000bd4:	f011 4000 	ands.w	r0, r1, #2147483648	@ 0x80000000
 8000bd8:	bf08      	it	eq
 8000bda:	f06f 4000 	mvneq.w	r0, #2147483648	@ 0x80000000
 8000bde:	4770      	bx	lr
 8000be0:	f04f 0000 	mov.w	r0, #0
 8000be4:	4770      	bx	lr
 8000be6:	bf00      	nop

08000be8 <__aeabi_d2f>:
 8000be8:	ea4f 0241 	mov.w	r2, r1, lsl #1
 8000bec:	f1b2 43e0 	subs.w	r3, r2, #1879048192	@ 0x70000000
 8000bf0:	bf24      	itt	cs
 8000bf2:	f5b3 1c00 	subscs.w	ip, r3, #2097152	@ 0x200000
 8000bf6:	f1dc 5cfe 	rsbscs	ip, ip, #532676608	@ 0x1fc00000
 8000bfa:	d90d      	bls.n	8000c18 <__aeabi_d2f+0x30>
 8000bfc:	f001 4c00 	and.w	ip, r1, #2147483648	@ 0x80000000
 8000c00:	ea4f 02c0 	mov.w	r2, r0, lsl #3
 8000c04:	ea4c 7050 	orr.w	r0, ip, r0, lsr #29
 8000c08:	f1b2 4f00 	cmp.w	r2, #2147483648	@ 0x80000000
 8000c0c:	eb40 0083 	adc.w	r0, r0, r3, lsl #2
 8000c10:	bf08      	it	eq
 8000c12:	f020 0001 	biceq.w	r0, r0, #1
 8000c16:	4770      	bx	lr
 8000c18:	f011 4f80 	tst.w	r1, #1073741824	@ 0x40000000
 8000c1c:	d121      	bne.n	8000c62 <__aeabi_d2f+0x7a>
 8000c1e:	f113 7238 	adds.w	r2, r3, #48234496	@ 0x2e00000
 8000c22:	bfbc      	itt	lt
 8000c24:	f001 4000 	andlt.w	r0, r1, #2147483648	@ 0x80000000
 8000c28:	4770      	bxlt	lr
 8000c2a:	f441 1180 	orr.w	r1, r1, #1048576	@ 0x100000
 8000c2e:	ea4f 5252 	mov.w	r2, r2, lsr #21
 8000c32:	f1c2 0218 	rsb	r2, r2, #24
 8000c36:	f1c2 0c20 	rsb	ip, r2, #32
 8000c3a:	fa10 f30c 	lsls.w	r3, r0, ip
 8000c3e:	fa20 f002 	lsr.w	r0, r0, r2
 8000c42:	bf18      	it	ne
 8000c44:	f040 0001 	orrne.w	r0, r0, #1
 8000c48:	ea4f 23c1 	mov.w	r3, r1, lsl #11
 8000c4c:	ea4f 23d3 	mov.w	r3, r3, lsr #11
 8000c50:	fa03 fc0c 	lsl.w	ip, r3, ip
 8000c54:	ea40 000c 	orr.w	r0, r0, ip
 8000c58:	fa23 f302 	lsr.w	r3, r3, r2
 8000c5c:	ea4f 0343 	mov.w	r3, r3, lsl #1
 8000c60:	e7cc      	b.n	8000bfc <__aeabi_d2f+0x14>
 8000c62:	ea7f 5362 	mvns.w	r3, r2, asr #21
 8000c66:	d107      	bne.n	8000c78 <__aeabi_d2f+0x90>
 8000c68:	ea50 3301 	orrs.w	r3, r0, r1, lsl #12
 8000c6c:	bf1e      	ittt	ne
 8000c6e:	f04f 40fe 	movne.w	r0, #2130706432	@ 0x7f000000
 8000c72:	f440 0040 	orrne.w	r0, r0, #12582912	@ 0xc00000
 8000c76:	4770      	bxne	lr
 8000c78:	f001 4000 	and.w	r0, r1, #2147483648	@ 0x80000000
 8000c7c:	f040 40fe 	orr.w	r0, r0, #2130706432	@ 0x7f000000
 8000c80:	f440 0000 	orr.w	r0, r0, #8388608	@ 0x800000
 8000c84:	4770      	bx	lr
 8000c86:	bf00      	nop

08000c88 <__aeabi_uldivmod>:
 8000c88:	b953      	cbnz	r3, 8000ca0 <__aeabi_uldivmod+0x18>
 8000c8a:	b94a      	cbnz	r2, 8000ca0 <__aeabi_uldivmod+0x18>
 8000c8c:	2900      	cmp	r1, #0
 8000c8e:	bf08      	it	eq
 8000c90:	2800      	cmpeq	r0, #0
 8000c92:	bf1c      	itt	ne
 8000c94:	f04f 31ff 	movne.w	r1, #4294967295	@ 0xffffffff
 8000c98:	f04f 30ff 	movne.w	r0, #4294967295	@ 0xffffffff
 8000c9c:	f000 b96a 	b.w	8000f74 <__aeabi_idiv0>
 8000ca0:	f1ad 0c08 	sub.w	ip, sp, #8
 8000ca4:	e96d ce04 	strd	ip, lr, [sp, #-16]!
 8000ca8:	f000 f806 	bl	8000cb8 <__udivmoddi4>
 8000cac:	f8dd e004 	ldr.w	lr, [sp, #4]
 8000cb0:	e9dd 2302 	ldrd	r2, r3, [sp, #8]
 8000cb4:	b004      	add	sp, #16
 8000cb6:	4770      	bx	lr

08000cb8 <__udivmoddi4>:
 8000cb8:	e92d 47f0 	stmdb	sp!, {r4, r5, r6, r7, r8, r9, sl, lr}
 8000cbc:	9d08      	ldr	r5, [sp, #32]
 8000cbe:	460c      	mov	r4, r1
 8000cc0:	2b00      	cmp	r3, #0
 8000cc2:	d14e      	bne.n	8000d62 <__udivmoddi4+0xaa>
 8000cc4:	4694      	mov	ip, r2
 8000cc6:	458c      	cmp	ip, r1
 8000cc8:	4686      	mov	lr, r0
 8000cca:	fab2 f282 	clz	r2, r2
 8000cce:	d962      	bls.n	8000d96 <__udivmoddi4+0xde>
 8000cd0:	b14a      	cbz	r2, 8000ce6 <__udivmoddi4+0x2e>
 8000cd2:	f1c2 0320 	rsb	r3, r2, #32
 8000cd6:	4091      	lsls	r1, r2
 8000cd8:	fa20 f303 	lsr.w	r3, r0, r3
 8000cdc:	fa0c fc02 	lsl.w	ip, ip, r2
 8000ce0:	4319      	orrs	r1, r3
 8000ce2:	fa00 fe02 	lsl.w	lr, r0, r2
 8000ce6:	ea4f 471c 	mov.w	r7, ip, lsr #16
 8000cea:	fa1f f68c 	uxth.w	r6, ip
 8000cee:	fbb1 f4f7 	udiv	r4, r1, r7
 8000cf2:	ea4f 431e 	mov.w	r3, lr, lsr #16
 8000cf6:	fb07 1114 	mls	r1, r7, r4, r1
 8000cfa:	ea43 4301 	orr.w	r3, r3, r1, lsl #16
 8000cfe:	fb04 f106 	mul.w	r1, r4, r6
 8000d02:	4299      	cmp	r1, r3
 8000d04:	d90a      	bls.n	8000d1c <__udivmoddi4+0x64>
 8000d06:	eb1c 0303 	adds.w	r3, ip, r3
 8000d0a:	f104 30ff 	add.w	r0, r4, #4294967295	@ 0xffffffff
 8000d0e:	f080 8112 	bcs.w	8000f36 <__udivmoddi4+0x27e>
 8000d12:	4299      	cmp	r1, r3
 8000d14:	f240 810f 	bls.w	8000f36 <__udivmoddi4+0x27e>
 8000d18:	3c02      	subs	r4, #2
 8000d1a:	4463      	add	r3, ip
 8000d1c:	1a59      	subs	r1, r3, r1
 8000d1e:	fa1f f38e 	uxth.w	r3, lr
 8000d22:	fbb1 f0f7 	udiv	r0, r1, r7
 8000d26:	fb07 1110 	mls	r1, r7, r0, r1
 8000d2a:	ea43 4301 	orr.w	r3, r3, r1, lsl #16
 8000d2e:	fb00 f606 	mul.w	r6, r0, r6
 8000d32:	429e      	cmp	r6, r3
 8000d34:	d90a      	bls.n	8000d4c <__udivmoddi4+0x94>
 8000d36:	eb1c 0303 	adds.w	r3, ip, r3
 8000d3a:	f100 31ff 	add.w	r1, r0, #4294967295	@ 0xffffffff
 8000d3e:	f080 80fc 	bcs.w	8000f3a <__udivmoddi4+0x282>
 8000d42:	429e      	cmp	r6, r3
 8000d44:	f240 80f9 	bls.w	8000f3a <__udivmoddi4+0x282>
 8000d48:	4463      	add	r3, ip
 8000d4a:	3802      	subs	r0, #2
 8000d4c:	1b9b      	subs	r3, r3, r6
 8000d4e:	ea40 4004 	orr.w	r0, r0, r4, lsl #16
 8000d52:	2100      	movs	r1, #0
 8000d54:	b11d      	cbz	r5, 8000d5e <__udivmoddi4+0xa6>
 8000d56:	40d3      	lsrs	r3, r2
 8000d58:	2200      	movs	r2, #0
 8000d5a:	e9c5 3200 	strd	r3, r2, [r5]
 8000d5e:	e8bd 87f0 	ldmia.w	sp!, {r4, r5, r6, r7, r8, r9, sl, pc}
 8000d62:	428b      	cmp	r3, r1
 8000d64:	d905      	bls.n	8000d72 <__udivmoddi4+0xba>
 8000d66:	b10d      	cbz	r5, 8000d6c <__udivmoddi4+0xb4>
 8000d68:	e9c5 0100 	strd	r0, r1, [r5]
 8000d6c:	2100      	movs	r1, #0
 8000d6e:	4608      	mov	r0, r1
 8000d70:	e7f5      	b.n	8000d5e <__udivmoddi4+0xa6>
 8000d72:	fab3 f183 	clz	r1, r3
 8000d76:	2900      	cmp	r1, #0
 8000d78:	d146      	bne.n	8000e08 <__udivmoddi4+0x150>
 8000d7a:	42a3      	cmp	r3, r4
 8000d7c:	d302      	bcc.n	8000d84 <__udivmoddi4+0xcc>
 8000d7e:	4290      	cmp	r0, r2
 8000d80:	f0c0 80f0 	bcc.w	8000f64 <__udivmoddi4+0x2ac>
 8000d84:	1a86      	subs	r6, r0, r2
 8000d86:	eb64 0303 	sbc.w	r3, r4, r3
 8000d8a:	2001      	movs	r0, #1
 8000d8c:	2d00      	cmp	r5, #0
 8000d8e:	d0e6      	beq.n	8000d5e <__udivmoddi4+0xa6>
 8000d90:	e9c5 6300 	strd	r6, r3, [r5]
 8000d94:	e7e3      	b.n	8000d5e <__udivmoddi4+0xa6>
 8000d96:	2a00      	cmp	r2, #0
 8000d98:	f040 8090 	bne.w	8000ebc <__udivmoddi4+0x204>
 8000d9c:	eba1 040c 	sub.w	r4, r1, ip
 8000da0:	ea4f 481c 	mov.w	r8, ip, lsr #16
 8000da4:	fa1f f78c 	uxth.w	r7, ip
 8000da8:	2101      	movs	r1, #1
 8000daa:	fbb4 f6f8 	udiv	r6, r4, r8
 8000dae:	ea4f 431e 	mov.w	r3, lr, lsr #16
 8000db2:	fb08 4416 	mls	r4, r8, r6, r4
 8000db6:	ea43 4304 	orr.w	r3, r3, r4, lsl #16
 8000dba:	fb07 f006 	mul.w	r0, r7, r6
 8000dbe:	4298      	cmp	r0, r3
 8000dc0:	d908      	bls.n	8000dd4 <__udivmoddi4+0x11c>
 8000dc2:	eb1c 0303 	adds.w	r3, ip, r3
 8000dc6:	f106 34ff 	add.w	r4, r6, #4294967295	@ 0xffffffff
 8000dca:	d202      	bcs.n	8000dd2 <__udivmoddi4+0x11a>
 8000dcc:	4298      	cmp	r0, r3
 8000dce:	f200 80cd 	bhi.w	8000f6c <__udivmoddi4+0x2b4>
 8000dd2:	4626      	mov	r6, r4
 8000dd4:	1a1c      	subs	r4, r3, r0
 8000dd6:	fa1f f38e 	uxth.w	r3, lr
 8000dda:	fbb4 f0f8 	udiv	r0, r4, r8
 8000dde:	fb08 4410 	mls	r4, r8, r0, r4
 8000de2:	ea43 4304 	orr.w	r3, r3, r4, lsl #16
 8000de6:	fb00 f707 	mul.w	r7, r0, r7
 8000dea:	429f      	cmp	r7, r3
 8000dec:	d908      	bls.n	8000e00 <__udivmoddi4+0x148>
 8000dee:	eb1c 0303 	adds.w	r3, ip, r3
 8000df2:	f100 34ff 	add.w	r4, r0, #4294967295	@ 0xffffffff
 8000df6:	d202      	bcs.n	8000dfe <__udivmoddi4+0x146>
 8000df8:	429f      	cmp	r7, r3
 8000dfa:	f200 80b0 	bhi.w	8000f5e <__udivmoddi4+0x2a6>
 8000dfe:	4620      	mov	r0, r4
 8000e00:	1bdb      	subs	r3, r3, r7
 8000e02:	ea40 4006 	orr.w	r0, r0, r6, lsl #16
 8000e06:	e7a5      	b.n	8000d54 <__udivmoddi4+0x9c>
 8000e08:	f1c1 0620 	rsb	r6, r1, #32
 8000e0c:	408b      	lsls	r3, r1
 8000e0e:	fa22 f706 	lsr.w	r7, r2, r6
 8000e12:	431f      	orrs	r7, r3
 8000e14:	fa20 fc06 	lsr.w	ip, r0, r6
 8000e18:	fa04 f301 	lsl.w	r3, r4, r1
 8000e1c:	ea43 030c 	orr.w	r3, r3, ip
 8000e20:	40f4      	lsrs	r4, r6
 8000e22:	fa00 f801 	lsl.w	r8, r0, r1
 8000e26:	0c38      	lsrs	r0, r7, #16
 8000e28:	ea4f 4913 	mov.w	r9, r3, lsr #16
 8000e2c:	fbb4 fef0 	udiv	lr, r4, r0
 8000e30:	fa1f fc87 	uxth.w	ip, r7
 8000e34:	fb00 441e 	mls	r4, r0, lr, r4
 8000e38:	ea49 4404 	orr.w	r4, r9, r4, lsl #16
 8000e3c:	fb0e f90c 	mul.w	r9, lr, ip
 8000e40:	45a1      	cmp	r9, r4
 8000e42:	fa02 f201 	lsl.w	r2, r2, r1
 8000e46:	d90a      	bls.n	8000e5e <__udivmoddi4+0x1a6>
 8000e48:	193c      	adds	r4, r7, r4
 8000e4a:	f10e 3aff 	add.w	sl, lr, #4294967295	@ 0xffffffff
 8000e4e:	f080 8084 	bcs.w	8000f5a <__udivmoddi4+0x2a2>
 8000e52:	45a1      	cmp	r9, r4
 8000e54:	f240 8081 	bls.w	8000f5a <__udivmoddi4+0x2a2>
 8000e58:	f1ae 0e02 	sub.w	lr, lr, #2
 8000e5c:	443c      	add	r4, r7
 8000e5e:	eba4 0409 	sub.w	r4, r4, r9
 8000e62:	fa1f f983 	uxth.w	r9, r3
 8000e66:	fbb4 f3f0 	udiv	r3, r4, r0
 8000e6a:	fb00 4413 	mls	r4, r0, r3, r4
 8000e6e:	ea49 4404 	orr.w	r4, r9, r4, lsl #16
 8000e72:	fb03 fc0c 	mul.w	ip, r3, ip
 8000e76:	45a4      	cmp	ip, r4
 8000e78:	d907      	bls.n	8000e8a <__udivmoddi4+0x1d2>
 8000e7a:	193c      	adds	r4, r7, r4
 8000e7c:	f103 30ff 	add.w	r0, r3, #4294967295	@ 0xffffffff
 8000e80:	d267      	bcs.n	8000f52 <__udivmoddi4+0x29a>
 8000e82:	45a4      	cmp	ip, r4
 8000e84:	d965      	bls.n	8000f52 <__udivmoddi4+0x29a>
 8000e86:	3b02      	subs	r3, #2
 8000e88:	443c      	add	r4, r7
 8000e8a:	ea43 400e 	orr.w	r0, r3, lr, lsl #16
 8000e8e:	fba0 9302 	umull	r9, r3, r0, r2
 8000e92:	eba4 040c 	sub.w	r4, r4, ip
 8000e96:	429c      	cmp	r4, r3
 8000e98:	46ce      	mov	lr, r9
 8000e9a:	469c      	mov	ip, r3
 8000e9c:	d351      	bcc.n	8000f42 <__udivmoddi4+0x28a>
 8000e9e:	d04e      	beq.n	8000f3e <__udivmoddi4+0x286>
 8000ea0:	b155      	cbz	r5, 8000eb8 <__udivmoddi4+0x200>
 8000ea2:	ebb8 030e 	subs.w	r3, r8, lr
 8000ea6:	eb64 040c 	sbc.w	r4, r4, ip
 8000eaa:	fa04 f606 	lsl.w	r6, r4, r6
 8000eae:	40cb      	lsrs	r3, r1
 8000eb0:	431e      	orrs	r6, r3
 8000eb2:	40cc      	lsrs	r4, r1
 8000eb4:	e9c5 6400 	strd	r6, r4, [r5]
 8000eb8:	2100      	movs	r1, #0
 8000eba:	e750      	b.n	8000d5e <__udivmoddi4+0xa6>
 8000ebc:	f1c2 0320 	rsb	r3, r2, #32
 8000ec0:	fa20 f103 	lsr.w	r1, r0, r3
 8000ec4:	fa0c fc02 	lsl.w	ip, ip, r2
 8000ec8:	fa24 f303 	lsr.w	r3, r4, r3
 8000ecc:	4094      	lsls	r4, r2
 8000ece:	430c      	orrs	r4, r1
 8000ed0:	ea4f 481c 	mov.w	r8, ip, lsr #16
 8000ed4:	fa00 fe02 	lsl.w	lr, r0, r2
 8000ed8:	fa1f f78c 	uxth.w	r7, ip
 8000edc:	fbb3 f0f8 	udiv	r0, r3, r8
 8000ee0:	fb08 3110 	mls	r1, r8, r0, r3
 8000ee4:	0c23      	lsrs	r3, r4, #16
 8000ee6:	ea43 4301 	orr.w	r3, r3, r1, lsl #16
 8000eea:	fb00 f107 	mul.w	r1, r0, r7
 8000eee:	4299      	cmp	r1, r3
 8000ef0:	d908      	bls.n	8000f04 <__udivmoddi4+0x24c>
 8000ef2:	eb1c 0303 	adds.w	r3, ip, r3
 8000ef6:	f100 36ff 	add.w	r6, r0, #4294967295	@ 0xffffffff
 8000efa:	d22c      	bcs.n	8000f56 <__udivmoddi4+0x29e>
 8000efc:	4299      	cmp	r1, r3
 8000efe:	d92a      	bls.n	8000f56 <__udivmoddi4+0x29e>
 8000f00:	3802      	subs	r0, #2
 8000f02:	4463      	add	r3, ip
 8000f04:	1a5b      	subs	r3, r3, r1
 8000f06:	b2a4      	uxth	r4, r4
 8000f08:	fbb3 f1f8 	udiv	r1, r3, r8
 8000f0c:	fb08 3311 	mls	r3, r8, r1, r3
 8000f10:	ea44 4403 	orr.w	r4, r4, r3, lsl #16
 8000f14:	fb01 f307 	mul.w	r3, r1, r7
 8000f18:	42a3      	cmp	r3, r4
 8000f1a:	d908      	bls.n	8000f2e <__udivmoddi4+0x276>
 8000f1c:	eb1c 0404 	adds.w	r4, ip, r4
 8000f20:	f101 36ff 	add.w	r6, r1, #4294967295	@ 0xffffffff
 8000f24:	d213      	bcs.n	8000f4e <__udivmoddi4+0x296>
 8000f26:	42a3      	cmp	r3, r4
 8000f28:	d911      	bls.n	8000f4e <__udivmoddi4+0x296>
 8000f2a:	3902      	subs	r1, #2
 8000f2c:	4464      	add	r4, ip
 8000f2e:	1ae4      	subs	r4, r4, r3
 8000f30:	ea41 4100 	orr.w	r1, r1, r0, lsl #16
 8000f34:	e739      	b.n	8000daa <__udivmoddi4+0xf2>
 8000f36:	4604      	mov	r4, r0
 8000f38:	e6f0      	b.n	8000d1c <__udivmoddi4+0x64>
 8000f3a:	4608      	mov	r0, r1
 8000f3c:	e706      	b.n	8000d4c <__udivmoddi4+0x94>
 8000f3e:	45c8      	cmp	r8, r9
 8000f40:	d2ae      	bcs.n	8000ea0 <__udivmoddi4+0x1e8>
 8000f42:	ebb9 0e02 	subs.w	lr, r9, r2
 8000f46:	eb63 0c07 	sbc.w	ip, r3, r7
 8000f4a:	3801      	subs	r0, #1
 8000f4c:	e7a8      	b.n	8000ea0 <__udivmoddi4+0x1e8>
 8000f4e:	4631      	mov	r1, r6
 8000f50:	e7ed      	b.n	8000f2e <__udivmoddi4+0x276>
 8000f52:	4603      	mov	r3, r0
 8000f54:	e799      	b.n	8000e8a <__udivmoddi4+0x1d2>
 8000f56:	4630      	mov	r0, r6
 8000f58:	e7d4      	b.n	8000f04 <__udivmoddi4+0x24c>
 8000f5a:	46d6      	mov	lr, sl
 8000f5c:	e77f      	b.n	8000e5e <__udivmoddi4+0x1a6>
 8000f5e:	4463      	add	r3, ip
 8000f60:	3802      	subs	r0, #2
 8000f62:	e74d      	b.n	8000e00 <__udivmoddi4+0x148>
 8000f64:	4606      	mov	r6, r0
 8000f66:	4623      	mov	r3, r4
 8000f68:	4608      	mov	r0, r1
 8000f6a:	e70f      	b.n	8000d8c <__udivmoddi4+0xd4>
 8000f6c:	3e02      	subs	r6, #2
 8000f6e:	4463      	add	r3, ip
 8000f70:	e730      	b.n	8000dd4 <__udivmoddi4+0x11c>
 8000f72:	bf00      	nop

08000f74 <__aeabi_idiv0>:
 8000f74:	4770      	bx	lr
 8000f76:	bf00      	nop

08000f78 <FEB_CAN_BMS_Filter_Config>:



// ***** CAN FUNCTIONS ****

uint8_t FEB_CAN_BMS_Filter_Config(CAN_HandleTypeDef* hcan, uint8_t FIFO_assignment, uint8_t filter_bank) {
 8000f78:	b580      	push	{r7, lr}
 8000f7a:	b08e      	sub	sp, #56	@ 0x38
 8000f7c:	af00      	add	r7, sp, #0
 8000f7e:	6078      	str	r0, [r7, #4]
 8000f80:	460b      	mov	r3, r1
 8000f82:	70fb      	strb	r3, [r7, #3]
 8000f84:	4613      	mov	r3, r2
 8000f86:	70bb      	strb	r3, [r7, #2]
	uint16_t ids[] = {FEB_CAN_ID_BMS_STATE,FEB_CAN_ID_BMS_TEMPERATURE};
 8000f88:	2303      	movs	r3, #3
 8000f8a:	863b      	strh	r3, [r7, #48]	@ 0x30
 8000f8c:	2300      	movs	r3, #0
 8000f8e:	867b      	strh	r3, [r7, #50]	@ 0x32

	for (uint8_t i = 0; i < 1; i++) {
 8000f90:	2300      	movs	r3, #0
 8000f92:	f887 3037 	strb.w	r3, [r7, #55]	@ 0x37
 8000f96:	e029      	b.n	8000fec <FEB_CAN_BMS_Filter_Config+0x74>
		CAN_FilterTypeDef filter_config;

	    // Standard CAN - 2.0A - 11 bit
	    filter_config.FilterActivation = CAN_FILTER_ENABLE;
 8000f98:	2301      	movs	r3, #1
 8000f9a:	62bb      	str	r3, [r7, #40]	@ 0x28
		filter_config.FilterBank = filter_bank;
 8000f9c:	78bb      	ldrb	r3, [r7, #2]
 8000f9e:	61fb      	str	r3, [r7, #28]
		filter_config.FilterFIFOAssignment = FIFO_assignment;
 8000fa0:	78fb      	ldrb	r3, [r7, #3]
 8000fa2:	61bb      	str	r3, [r7, #24]
		filter_config.FilterIdHigh = ids[i] << 5;
 8000fa4:	f897 3037 	ldrb.w	r3, [r7, #55]	@ 0x37
 8000fa8:	005b      	lsls	r3, r3, #1
 8000faa:	3338      	adds	r3, #56	@ 0x38
 8000fac:	443b      	add	r3, r7
 8000fae:	f833 3c08 	ldrh.w	r3, [r3, #-8]
 8000fb2:	015b      	lsls	r3, r3, #5
 8000fb4:	60bb      	str	r3, [r7, #8]
		filter_config.FilterIdLow = 0;
 8000fb6:	2300      	movs	r3, #0
 8000fb8:	60fb      	str	r3, [r7, #12]
		filter_config.FilterMaskIdHigh = 0xFFE0;
 8000fba:	f64f 73e0 	movw	r3, #65504	@ 0xffe0
 8000fbe:	613b      	str	r3, [r7, #16]
		filter_config.FilterMaskIdLow = 0;
 8000fc0:	2300      	movs	r3, #0
 8000fc2:	617b      	str	r3, [r7, #20]
		filter_config.FilterMode = CAN_FILTERMODE_IDMASK;
 8000fc4:	2300      	movs	r3, #0
 8000fc6:	623b      	str	r3, [r7, #32]
		filter_config.FilterScale = CAN_FILTERSCALE_32BIT;
 8000fc8:	2301      	movs	r3, #1
 8000fca:	627b      	str	r3, [r7, #36]	@ 0x24
		filter_config.SlaveStartFilterBank = 27;
 8000fcc:	231b      	movs	r3, #27
 8000fce:	62fb      	str	r3, [r7, #44]	@ 0x2c
	    filter_bank++;
 8000fd0:	78bb      	ldrb	r3, [r7, #2]
 8000fd2:	3301      	adds	r3, #1
 8000fd4:	70bb      	strb	r3, [r7, #2]

		if (HAL_CAN_ConfigFilter(hcan, &filter_config) != HAL_OK) {
 8000fd6:	f107 0308 	add.w	r3, r7, #8
 8000fda:	4619      	mov	r1, r3
 8000fdc:	6878      	ldr	r0, [r7, #4]
 8000fde:	f002 f97d 	bl	80032dc <HAL_CAN_ConfigFilter>
	for (uint8_t i = 0; i < 1; i++) {
 8000fe2:	f897 3037 	ldrb.w	r3, [r7, #55]	@ 0x37
 8000fe6:	3301      	adds	r3, #1
 8000fe8:	f887 3037 	strb.w	r3, [r7, #55]	@ 0x37
 8000fec:	f897 3037 	ldrb.w	r3, [r7, #55]	@ 0x37
 8000ff0:	2b00      	cmp	r3, #0
 8000ff2:	d0d1      	beq.n	8000f98 <FEB_CAN_BMS_Filter_Config+0x20>
			//Code Error - shutdown
		}
	}

	return filter_bank;
 8000ff4:	78bb      	ldrb	r3, [r7, #2]
}
 8000ff6:	4618      	mov	r0, r3
 8000ff8:	3738      	adds	r7, #56	@ 0x38
 8000ffa:	46bd      	mov	sp, r7
 8000ffc:	bd80      	pop	{r7, pc}
	...

08001000 <FEB_CAN_BMS_Store_Msg>:

void FEB_CAN_BMS_Store_Msg(CAN_RxHeaderTypeDef* pHeader, uint8_t *RxData) {
 8001000:	b480      	push	{r7}
 8001002:	b083      	sub	sp, #12
 8001004:	af00      	add	r7, sp, #0
 8001006:	6078      	str	r0, [r7, #4]
 8001008:	6039      	str	r1, [r7, #0]
    switch (pHeader -> StdId){
 800100a:	687b      	ldr	r3, [r7, #4]
 800100c:	681b      	ldr	r3, [r3, #0]
 800100e:	2b00      	cmp	r3, #0
 8001010:	d002      	beq.n	8001018 <FEB_CAN_BMS_Store_Msg+0x18>
 8001012:	2b03      	cmp	r3, #3
 8001014:	d00f      	beq.n	8001036 <FEB_CAN_BMS_Store_Msg+0x36>

        case FEB_CAN_ID_BMS_STATE:
            BMS_MESSAGE.status = RxData[0];
            break;
    }
}
 8001016:	e013      	b.n	8001040 <FEB_CAN_BMS_Store_Msg+0x40>
        	BMS_MESSAGE.temp = RxData[2] << 8 | RxData[3];
 8001018:	683b      	ldr	r3, [r7, #0]
 800101a:	3302      	adds	r3, #2
 800101c:	781b      	ldrb	r3, [r3, #0]
 800101e:	021b      	lsls	r3, r3, #8
 8001020:	b21a      	sxth	r2, r3
 8001022:	683b      	ldr	r3, [r7, #0]
 8001024:	3303      	adds	r3, #3
 8001026:	781b      	ldrb	r3, [r3, #0]
 8001028:	b21b      	sxth	r3, r3
 800102a:	4313      	orrs	r3, r2
 800102c:	b21b      	sxth	r3, r3
 800102e:	b29a      	uxth	r2, r3
 8001030:	4b06      	ldr	r3, [pc, #24]	@ (800104c <FEB_CAN_BMS_Store_Msg+0x4c>)
 8001032:	801a      	strh	r2, [r3, #0]
            break;
 8001034:	e004      	b.n	8001040 <FEB_CAN_BMS_Store_Msg+0x40>
            BMS_MESSAGE.status = RxData[0];
 8001036:	683b      	ldr	r3, [r7, #0]
 8001038:	781a      	ldrb	r2, [r3, #0]
 800103a:	4b04      	ldr	r3, [pc, #16]	@ (800104c <FEB_CAN_BMS_Store_Msg+0x4c>)
 800103c:	709a      	strb	r2, [r3, #2]
            break;
 800103e:	bf00      	nop
}
 8001040:	bf00      	nop
 8001042:	370c      	adds	r7, #12
 8001044:	46bd      	mov	sp, r7
 8001046:	f85d 7b04 	ldr.w	r7, [sp], #4
 800104a:	4770      	bx	lr
 800104c:	200001f0 	.word	0x200001f0

08001050 <FEB_CAN_BMS_getState>:

FEB_SM_ST_t FEB_CAN_BMS_getState(){
 8001050:	b480      	push	{r7}
 8001052:	af00      	add	r7, sp, #0
	return BMS_MESSAGE.status;
 8001054:	4b03      	ldr	r3, [pc, #12]	@ (8001064 <FEB_CAN_BMS_getState+0x14>)
 8001056:	789b      	ldrb	r3, [r3, #2]

}
 8001058:	4618      	mov	r0, r3
 800105a:	46bd      	mov	sp, r7
 800105c:	f85d 7b04 	ldr.w	r7, [sp], #4
 8001060:	4770      	bx	lr
 8001062:	bf00      	nop
 8001064:	200001f0 	.word	0x200001f0

08001068 <FEB_CAN_ICS_Filter>:
static bool previous_button_state = false;
static bool READY_TO_DRIVE = false;

// **************************************** Functions ****************************************

uint8_t FEB_CAN_ICS_Filter(CAN_HandleTypeDef* hcan, uint8_t FIFO_assignment, uint8_t filter_bank) {
 8001068:	b580      	push	{r7, lr}
 800106a:	b08e      	sub	sp, #56	@ 0x38
 800106c:	af00      	add	r7, sp, #0
 800106e:	6078      	str	r0, [r7, #4]
 8001070:	460b      	mov	r3, r1
 8001072:	70fb      	strb	r3, [r7, #3]
 8001074:	4613      	mov	r3, r2
 8001076:	70bb      	strb	r3, [r7, #2]
    // For multiple filters, create array of filter IDs and loop over IDs.

	uint16_t ids[] = {FEB_CAN_ID_ICS_BUTTON_STATE};
 8001078:	2307      	movs	r3, #7
 800107a:	86bb      	strh	r3, [r7, #52]	@ 0x34

	for (uint8_t i = 0; i < 1; i++) {
 800107c:	2300      	movs	r3, #0
 800107e:	f887 3037 	strb.w	r3, [r7, #55]	@ 0x37
 8001082:	e029      	b.n	80010d8 <FEB_CAN_ICS_Filter+0x70>
		CAN_FilterTypeDef filter_config;

	    // Standard CAN - 2.0A - 11 bit
	    filter_config.FilterActivation = CAN_FILTER_ENABLE;
 8001084:	2301      	movs	r3, #1
 8001086:	62fb      	str	r3, [r7, #44]	@ 0x2c
		filter_config.FilterBank = filter_bank;
 8001088:	78bb      	ldrb	r3, [r7, #2]
 800108a:	623b      	str	r3, [r7, #32]
		filter_config.FilterFIFOAssignment = FIFO_assignment;
 800108c:	78fb      	ldrb	r3, [r7, #3]
 800108e:	61fb      	str	r3, [r7, #28]
		filter_config.FilterIdHigh = ids[i] << 5;
 8001090:	f897 3037 	ldrb.w	r3, [r7, #55]	@ 0x37
 8001094:	005b      	lsls	r3, r3, #1
 8001096:	3338      	adds	r3, #56	@ 0x38
 8001098:	443b      	add	r3, r7
 800109a:	f833 3c04 	ldrh.w	r3, [r3, #-4]
 800109e:	015b      	lsls	r3, r3, #5
 80010a0:	60fb      	str	r3, [r7, #12]
		filter_config.FilterIdLow = 0;
 80010a2:	2300      	movs	r3, #0
 80010a4:	613b      	str	r3, [r7, #16]
		filter_config.FilterMaskIdHigh = 0xFFE0;
 80010a6:	f64f 73e0 	movw	r3, #65504	@ 0xffe0
 80010aa:	617b      	str	r3, [r7, #20]
		filter_config.FilterMaskIdLow = 0;
 80010ac:	2300      	movs	r3, #0
 80010ae:	61bb      	str	r3, [r7, #24]
		filter_config.FilterMode = CAN_FILTERMODE_IDMASK;
 80010b0:	2300      	movs	r3, #0
 80010b2:	627b      	str	r3, [r7, #36]	@ 0x24
		filter_config.FilterScale = CAN_FILTERSCALE_32BIT;
 80010b4:	2301      	movs	r3, #1
 80010b6:	62bb      	str	r3, [r7, #40]	@ 0x28
		filter_config.SlaveStartFilterBank = 27;
 80010b8:	231b      	movs	r3, #27
 80010ba:	633b      	str	r3, [r7, #48]	@ 0x30
	    filter_bank++;
 80010bc:	78bb      	ldrb	r3, [r7, #2]
 80010be:	3301      	adds	r3, #1
 80010c0:	70bb      	strb	r3, [r7, #2]

		if (HAL_CAN_ConfigFilter(hcan, &filter_config) != HAL_OK) {
 80010c2:	f107 030c 	add.w	r3, r7, #12
 80010c6:	4619      	mov	r1, r3
 80010c8:	6878      	ldr	r0, [r7, #4]
 80010ca:	f002 f907 	bl	80032dc <HAL_CAN_ConfigFilter>
	for (uint8_t i = 0; i < 1; i++) {
 80010ce:	f897 3037 	ldrb.w	r3, [r7, #55]	@ 0x37
 80010d2:	3301      	adds	r3, #1
 80010d4:	f887 3037 	strb.w	r3, [r7, #55]	@ 0x37
 80010d8:	f897 3037 	ldrb.w	r3, [r7, #55]	@ 0x37
 80010dc:	2b00      	cmp	r3, #0
 80010de:	d0d1      	beq.n	8001084 <FEB_CAN_ICS_Filter+0x1c>
			// Shutdown
		}
	}

	return filter_bank;
 80010e0:	78bb      	ldrb	r3, [r7, #2]
}
 80010e2:	4618      	mov	r0, r3
 80010e4:	3738      	adds	r7, #56	@ 0x38
 80010e6:	46bd      	mov	sp, r7
 80010e8:	bd80      	pop	{r7, pc}
	...

080010ec <FEB_CAN_ICS_Store_Msg>:

void FEB_CAN_ICS_Store_Msg(CAN_RxHeaderTypeDef *rx_header, uint8_t rx_data[]) {
 80010ec:	b480      	push	{r7}
 80010ee:	b085      	sub	sp, #20
 80010f0:	af00      	add	r7, sp, #0
 80010f2:	6078      	str	r0, [r7, #4]
 80010f4:	6039      	str	r1, [r7, #0]
	switch(rx_header->StdId) {
 80010f6:	687b      	ldr	r3, [r7, #4]
 80010f8:	681b      	ldr	r3, [r3, #0]
 80010fa:	2b07      	cmp	r3, #7
 80010fc:	d133      	bne.n	8001166 <FEB_CAN_ICS_Store_Msg+0x7a>
		case FEB_CAN_ID_ICS_BUTTON_STATE:
//				READY_TO_DRIVE = ((rx_data[0] | 0b11111101) == 0b11111111);
//				break;

			bool current_button_state = ((rx_data[0] | 0b11111101) == 0b11111111);
 80010fe:	683b      	ldr	r3, [r7, #0]
 8001100:	781b      	ldrb	r3, [r3, #0]
 8001102:	f063 0302 	orn	r3, r3, #2
 8001106:	b2db      	uxtb	r3, r3
 8001108:	2bff      	cmp	r3, #255	@ 0xff
 800110a:	bf0c      	ite	eq
 800110c:	2301      	moveq	r3, #1
 800110e:	2300      	movne	r3, #0
 8001110:	73fb      	strb	r3, [r7, #15]


			if (READY_TO_DRIVE && !previous_button_state && current_button_state) {
 8001112:	4b18      	ldr	r3, [pc, #96]	@ (8001174 <FEB_CAN_ICS_Store_Msg+0x88>)
 8001114:	781b      	ldrb	r3, [r3, #0]
 8001116:	2b00      	cmp	r3, #0
 8001118:	d00d      	beq.n	8001136 <FEB_CAN_ICS_Store_Msg+0x4a>
 800111a:	4b17      	ldr	r3, [pc, #92]	@ (8001178 <FEB_CAN_ICS_Store_Msg+0x8c>)
 800111c:	781b      	ldrb	r3, [r3, #0]
 800111e:	f083 0301 	eor.w	r3, r3, #1
 8001122:	b2db      	uxtb	r3, r3
 8001124:	2b00      	cmp	r3, #0
 8001126:	d006      	beq.n	8001136 <FEB_CAN_ICS_Store_Msg+0x4a>
 8001128:	7bfb      	ldrb	r3, [r7, #15]
 800112a:	2b00      	cmp	r3, #0
 800112c:	d003      	beq.n	8001136 <FEB_CAN_ICS_Store_Msg+0x4a>
				READY_TO_DRIVE = false;  // return to energized state
 800112e:	4b11      	ldr	r3, [pc, #68]	@ (8001174 <FEB_CAN_ICS_Store_Msg+0x88>)
 8001130:	2200      	movs	r2, #0
 8001132:	701a      	strb	r2, [r3, #0]
 8001134:	e013      	b.n	800115e <FEB_CAN_ICS_Store_Msg+0x72>
			}

			else if (!READY_TO_DRIVE && !previous_button_state && current_button_state) {
 8001136:	4b0f      	ldr	r3, [pc, #60]	@ (8001174 <FEB_CAN_ICS_Store_Msg+0x88>)
 8001138:	781b      	ldrb	r3, [r3, #0]
 800113a:	f083 0301 	eor.w	r3, r3, #1
 800113e:	b2db      	uxtb	r3, r3
 8001140:	2b00      	cmp	r3, #0
 8001142:	d00c      	beq.n	800115e <FEB_CAN_ICS_Store_Msg+0x72>
 8001144:	4b0c      	ldr	r3, [pc, #48]	@ (8001178 <FEB_CAN_ICS_Store_Msg+0x8c>)
 8001146:	781b      	ldrb	r3, [r3, #0]
 8001148:	f083 0301 	eor.w	r3, r3, #1
 800114c:	b2db      	uxtb	r3, r3
 800114e:	2b00      	cmp	r3, #0
 8001150:	d005      	beq.n	800115e <FEB_CAN_ICS_Store_Msg+0x72>
 8001152:	7bfb      	ldrb	r3, [r7, #15]
 8001154:	2b00      	cmp	r3, #0
 8001156:	d002      	beq.n	800115e <FEB_CAN_ICS_Store_Msg+0x72>
				READY_TO_DRIVE = true;   // enter ready to drive state
 8001158:	4b06      	ldr	r3, [pc, #24]	@ (8001174 <FEB_CAN_ICS_Store_Msg+0x88>)
 800115a:	2201      	movs	r2, #1
 800115c:	701a      	strb	r2, [r3, #0]
			}

			previous_button_state = current_button_state;
 800115e:	4a06      	ldr	r2, [pc, #24]	@ (8001178 <FEB_CAN_ICS_Store_Msg+0x8c>)
 8001160:	7bfb      	ldrb	r3, [r7, #15]
 8001162:	7013      	strb	r3, [r2, #0]
			break;
 8001164:	bf00      	nop
	}
}
 8001166:	bf00      	nop
 8001168:	3714      	adds	r7, #20
 800116a:	46bd      	mov	sp, r7
 800116c:	f85d 7b04 	ldr.w	r7, [sp], #4
 8001170:	4770      	bx	lr
 8001172:	bf00      	nop
 8001174:	200001f5 	.word	0x200001f5
 8001178:	200001f4 	.word	0x200001f4

0800117c <FEB_Ready_To_Drive>:

bool FEB_Ready_To_Drive() {
 800117c:	b480      	push	{r7}
 800117e:	af00      	add	r7, sp, #0
	return READY_TO_DRIVE;
 8001180:	4b03      	ldr	r3, [pc, #12]	@ (8001190 <FEB_Ready_To_Drive+0x14>)
 8001182:	781b      	ldrb	r3, [r3, #0]
}
 8001184:	4618      	mov	r0, r3
 8001186:	46bd      	mov	sp, r7
 8001188:	f85d 7b04 	ldr.w	r7, [sp], #4
 800118c:	4770      	bx	lr
 800118e:	bf00      	nop
 8001190:	200001f5 	.word	0x200001f5

08001194 <FEB_CAN_RMS_Setup>:

// ********************************** Functions **********************************

// ***** SET UP ****

void FEB_CAN_RMS_Setup(void){
 8001194:	b480      	push	{r7}
 8001196:	af00      	add	r7, sp, #0
	 RMSControl.enabled = 0;
 8001198:	4b05      	ldr	r3, [pc, #20]	@ (80011b0 <FEB_CAN_RMS_Setup+0x1c>)
 800119a:	2200      	movs	r2, #0
 800119c:	709a      	strb	r2, [r3, #2]
	 RMSControl.torque= 0.0;
 800119e:	4b04      	ldr	r3, [pc, #16]	@ (80011b0 <FEB_CAN_RMS_Setup+0x1c>)
 80011a0:	2200      	movs	r2, #0
 80011a2:	801a      	strh	r2, [r3, #0]
}
 80011a4:	bf00      	nop
 80011a6:	46bd      	mov	sp, r7
 80011a8:	f85d 7b04 	ldr.w	r7, [sp], #4
 80011ac:	4770      	bx	lr
 80011ae:	bf00      	nop
 80011b0:	200001f8 	.word	0x200001f8

080011b4 <FEB_CAN_RMS_Process>:

void FEB_CAN_RMS_Process(void){
 80011b4:	b480      	push	{r7}
 80011b6:	af00      	add	r7, sp, #0
	if (!RMSControl.enabled){
 80011b8:	4b05      	ldr	r3, [pc, #20]	@ (80011d0 <FEB_CAN_RMS_Process+0x1c>)
 80011ba:	789b      	ldrb	r3, [r3, #2]
 80011bc:	2b00      	cmp	r3, #0
 80011be:	d102      	bne.n	80011c6 <FEB_CAN_RMS_Process+0x12>
//		FEB_CAN_RMS_Init();
		RMSControl.enabled = 1;
 80011c0:	4b03      	ldr	r3, [pc, #12]	@ (80011d0 <FEB_CAN_RMS_Process+0x1c>)
 80011c2:	2201      	movs	r2, #1
 80011c4:	709a      	strb	r2, [r3, #2]
	}
}
 80011c6:	bf00      	nop
 80011c8:	46bd      	mov	sp, r7
 80011ca:	f85d 7b04 	ldr.w	r7, [sp], #4
 80011ce:	4770      	bx	lr
 80011d0:	200001f8 	.word	0x200001f8

080011d4 <FEB_CAN_RMS_Disable>:

void FEB_CAN_RMS_Disable(void){
 80011d4:	b480      	push	{r7}
 80011d6:	af00      	add	r7, sp, #0
	RMSControl.enabled = 0;
 80011d8:	4b03      	ldr	r3, [pc, #12]	@ (80011e8 <FEB_CAN_RMS_Disable+0x14>)
 80011da:	2200      	movs	r2, #0
 80011dc:	709a      	strb	r2, [r3, #2]
}
 80011de:	bf00      	nop
 80011e0:	46bd      	mov	sp, r7
 80011e2:	f85d 7b04 	ldr.w	r7, [sp], #4
 80011e6:	4770      	bx	lr
 80011e8:	200001f8 	.word	0x200001f8
 80011ec:	00000000 	.word	0x00000000

080011f0 <FEB_get_peak_current_delimiter>:
// This means we will assume the pack resistance is about 1 Ohm
// Note this will likely be steeper as we approach lower SOC, but these cell dynamics are hopefully
// negligible due to the heavy current limiting and the ohmic losses of the accumulator
// Linear interpolation between (460V, 60/60A) and (410V, 10/60A), where PEAK_CURRENT is 60A
float FEB_get_peak_current_delimiter()
{
 80011f0:	b580      	push	{r7, lr}
 80011f2:	b086      	sub	sp, #24
 80011f4:	af00      	add	r7, sp, #0
	float accumulator_voltage = (RMS_MESSAGE.HV_Bus_Voltage-50.0) / 10.0;
 80011f6:	4b38      	ldr	r3, [pc, #224]	@ (80012d8 <FEB_get_peak_current_delimiter+0xe8>)
 80011f8:	f9b3 3000 	ldrsh.w	r3, [r3]
 80011fc:	4618      	mov	r0, r3
 80011fe:	f7ff f9b1 	bl	8000564 <__aeabi_i2d>
 8001202:	f04f 0200 	mov.w	r2, #0
 8001206:	4b35      	ldr	r3, [pc, #212]	@ (80012dc <FEB_get_peak_current_delimiter+0xec>)
 8001208:	f7ff f85e 	bl	80002c8 <__aeabi_dsub>
 800120c:	4602      	mov	r2, r0
 800120e:	460b      	mov	r3, r1
 8001210:	4610      	mov	r0, r2
 8001212:	4619      	mov	r1, r3
 8001214:	f04f 0200 	mov.w	r2, #0
 8001218:	4b31      	ldr	r3, [pc, #196]	@ (80012e0 <FEB_get_peak_current_delimiter+0xf0>)
 800121a:	f7ff fb37 	bl	800088c <__aeabi_ddiv>
 800121e:	4602      	mov	r2, r0
 8001220:	460b      	mov	r3, r1
 8001222:	4610      	mov	r0, r2
 8001224:	4619      	mov	r1, r3
 8001226:	f7ff fcdf 	bl	8000be8 <__aeabi_d2f>
 800122a:	4603      	mov	r3, r0
 800122c:	617b      	str	r3, [r7, #20]
	float estimated_voltage_drop_at_peak = PEAK_CURRENT;
 800122e:	4b2d      	ldr	r3, [pc, #180]	@ (80012e4 <FEB_get_peak_current_delimiter+0xf4>)
 8001230:	613b      	str	r3, [r7, #16]
	float start_derating_voltage = 400.0 + PEAK_CURRENT; // Assume R_acc = 1ohm
 8001232:	4b2d      	ldr	r3, [pc, #180]	@ (80012e8 <FEB_get_peak_current_delimiter+0xf8>)
 8001234:	60fb      	str	r3, [r7, #12]
	// Note: Comments are based on start_derating_voltage = 460V and PEAK_CURRENT = 60

	// Saturate outside of 460 and 410
	if (accumulator_voltage > start_derating_voltage)
 8001236:	ed97 7a05 	vldr	s14, [r7, #20]
 800123a:	edd7 7a03 	vldr	s15, [r7, #12]
 800123e:	eeb4 7ae7 	vcmpe.f32	s14, s15
 8001242:	eef1 fa10 	vmrs	APSR_nzcv, fpscr
 8001246:	dd02      	ble.n	800124e <FEB_get_peak_current_delimiter+0x5e>
	{
		return 1;
 8001248:	f04f 537e 	mov.w	r3, #1065353216	@ 0x3f800000
 800124c:	e034      	b.n	80012b8 <FEB_get_peak_current_delimiter+0xc8>
	}
	if (accumulator_voltage <= 410)
 800124e:	edd7 7a05 	vldr	s15, [r7, #20]
 8001252:	ed9f 7a26 	vldr	s14, [pc, #152]	@ 80012ec <FEB_get_peak_current_delimiter+0xfc>
 8001256:	eef4 7ac7 	vcmpe.f32	s15, s14
 800125a:	eef1 fa10 	vmrs	APSR_nzcv, fpscr
 800125e:	d801      	bhi.n	8001264 <FEB_get_peak_current_delimiter+0x74>
	{
		return (10.0 / PEAK_CURRENT); // limit to only 10A 
 8001260:	4b23      	ldr	r3, [pc, #140]	@ (80012f0 <FEB_get_peak_current_delimiter+0x100>)
 8001262:	e029      	b.n	80012b8 <FEB_get_peak_current_delimiter+0xc8>

	//   x0    y0            x1    y1
	// (460V, 60/60A) and (410V, 10/60A)

	//      m   = (        y_1           -              y_0)              / (x_1 -          x_0)
	float slope = ((10.0 / PEAK_CURRENT) - (PEAK_CURRENT / PEAK_CURRENT)) / (410.0 - (start_derating_voltage));
 8001264:	68f8      	ldr	r0, [r7, #12]
 8001266:	f7ff f98f 	bl	8000588 <__aeabi_f2d>
 800126a:	4602      	mov	r2, r0
 800126c:	460b      	mov	r3, r1
 800126e:	a116      	add	r1, pc, #88	@ (adr r1, 80012c8 <FEB_get_peak_current_delimiter+0xd8>)
 8001270:	e9d1 0100 	ldrd	r0, r1, [r1]
 8001274:	f7ff f828 	bl	80002c8 <__aeabi_dsub>
 8001278:	4602      	mov	r2, r0
 800127a:	460b      	mov	r3, r1
 800127c:	a114      	add	r1, pc, #80	@ (adr r1, 80012d0 <FEB_get_peak_current_delimiter+0xe0>)
 800127e:	e9d1 0100 	ldrd	r0, r1, [r1]
 8001282:	f7ff fb03 	bl	800088c <__aeabi_ddiv>
 8001286:	4602      	mov	r2, r0
 8001288:	460b      	mov	r3, r1
 800128a:	4610      	mov	r0, r2
 800128c:	4619      	mov	r1, r3
 800128e:	f7ff fcab 	bl	8000be8 <__aeabi_d2f>
 8001292:	4603      	mov	r3, r0
 8001294:	60bb      	str	r3, [r7, #8]
	//      y     =   m     (       x            -          x_0          ) + y_0
	float derater = slope * (accumulator_voltage - start_derating_voltage) + 1.0;
 8001296:	ed97 7a05 	vldr	s14, [r7, #20]
 800129a:	edd7 7a03 	vldr	s15, [r7, #12]
 800129e:	ee37 7a67 	vsub.f32	s14, s14, s15
 80012a2:	edd7 7a02 	vldr	s15, [r7, #8]
 80012a6:	ee67 7a27 	vmul.f32	s15, s14, s15
 80012aa:	eeb7 7a00 	vmov.f32	s14, #112	@ 0x3f800000  1.0
 80012ae:	ee77 7a87 	vadd.f32	s15, s15, s14
 80012b2:	edc7 7a01 	vstr	s15, [r7, #4]

	return derater;   
 80012b6:	687b      	ldr	r3, [r7, #4]
}
 80012b8:	ee07 3a90 	vmov	s15, r3
 80012bc:	eeb0 0a67 	vmov.f32	s0, s15
 80012c0:	3718      	adds	r7, #24
 80012c2:	46bd      	mov	sp, r7
 80012c4:	bd80      	pop	{r7, pc}
 80012c6:	bf00      	nop
 80012c8:	00000000 	.word	0x00000000
 80012cc:	4079a000 	.word	0x4079a000
 80012d0:	89d89d8a 	.word	0x89d89d8a
 80012d4:	bfe9d89d 	.word	0xbfe9d89d
 80012d8:	200001fc 	.word	0x200001fc
 80012dc:	40490000 	.word	0x40490000
 80012e0:	40240000 	.word	0x40240000
 80012e4:	42500000 	.word	0x42500000
 80012e8:	43e20000 	.word	0x43e20000
 80012ec:	43cd0000 	.word	0x43cd0000
 80012f0:	3e44ec4f 	.word	0x3e44ec4f
 80012f4:	00000000 	.word	0x00000000

080012f8 <FEB_CAN_RMS_getMaxTorque>:

float FEB_CAN_RMS_getMaxTorque(void){
 80012f8:	b580      	push	{r7, lr}
 80012fa:	b084      	sub	sp, #16
 80012fc:	af00      	add	r7, sp, #0
	// float accumulator_voltage = min(INIT_VOLTAGE, (RMS_MESSAGE.HV_Bus_Voltage-50) / 10); // TODO: consider reading from IVT
	float motor_speed = RMS_MESSAGE.Motor_Speed * RPM_TO_RAD_S;
 80012fe:	4b30      	ldr	r3, [pc, #192]	@ (80013c0 <FEB_CAN_RMS_getMaxTorque+0xc8>)
 8001300:	f9b3 3002 	ldrsh.w	r3, [r3, #2]
 8001304:	4618      	mov	r0, r3
 8001306:	f7ff f92d 	bl	8000564 <__aeabi_i2d>
 800130a:	a32b      	add	r3, pc, #172	@ (adr r3, 80013b8 <FEB_CAN_RMS_getMaxTorque+0xc0>)
 800130c:	e9d3 2300 	ldrd	r2, r3, [r3]
 8001310:	f7ff f992 	bl	8000638 <__aeabi_dmul>
 8001314:	4602      	mov	r2, r0
 8001316:	460b      	mov	r3, r1
 8001318:	4610      	mov	r0, r2
 800131a:	4619      	mov	r1, r3
 800131c:	f7ff fc64 	bl	8000be8 <__aeabi_d2f>
 8001320:	4603      	mov	r3, r0
 8001322:	60fb      	str	r3, [r7, #12]
	float peak_current_limited = PEAK_CURRENT * FEB_get_peak_current_delimiter();
 8001324:	f7ff ff64 	bl	80011f0 <FEB_get_peak_current_delimiter>
 8001328:	ee10 3a10 	vmov	r3, s0
 800132c:	4618      	mov	r0, r3
 800132e:	f7ff f92b 	bl	8000588 <__aeabi_f2d>
 8001332:	f04f 0200 	mov.w	r2, #0
 8001336:	4b23      	ldr	r3, [pc, #140]	@ (80013c4 <FEB_CAN_RMS_getMaxTorque+0xcc>)
 8001338:	f7ff f97e 	bl	8000638 <__aeabi_dmul>
 800133c:	4602      	mov	r2, r0
 800133e:	460b      	mov	r3, r1
 8001340:	4610      	mov	r0, r2
 8001342:	4619      	mov	r1, r3
 8001344:	f7ff fc50 	bl	8000be8 <__aeabi_d2f>
 8001348:	4603      	mov	r3, r0
 800134a:	60bb      	str	r3, [r7, #8]
	float power_capped = peak_current_limited * 400.0; // Cap power to 24kW (i.e. our min voltage)
 800134c:	edd7 7a02 	vldr	s15, [r7, #8]
 8001350:	ed9f 7a1d 	vldr	s14, [pc, #116]	@ 80013c8 <FEB_CAN_RMS_getMaxTorque+0xd0>
 8001354:	ee67 7a87 	vmul.f32	s15, s15, s14
 8001358:	edc7 7a01 	vstr	s15, [r7, #4]
 	// If speed is less than 15, we should command max torque
  	// This catches divide by 0 errors and also negative speeds (which may create very high negative torque values)
	if (motor_speed < 15) {
 800135c:	edd7 7a03 	vldr	s15, [r7, #12]
 8001360:	eeb2 7a0e 	vmov.f32	s14, #46	@ 0x41700000  15.0
 8001364:	eef4 7ac7 	vcmpe.f32	s15, s14
 8001368:	eef1 fa10 	vmrs	APSR_nzcv, fpscr
 800136c:	d501      	bpl.n	8001372 <FEB_CAN_RMS_getMaxTorque+0x7a>
		return MAX_TORQUE;
 800136e:	4b17      	ldr	r3, [pc, #92]	@ (80013cc <FEB_CAN_RMS_getMaxTorque+0xd4>)
 8001370:	e018      	b.n	80013a4 <FEB_CAN_RMS_getMaxTorque+0xac>
	}
	float maxTorque = min(MAX_TORQUE, (power_capped) / motor_speed);
 8001372:	edd7 6a01 	vldr	s13, [r7, #4]
 8001376:	ed97 7a03 	vldr	s14, [r7, #12]
 800137a:	eec6 7a87 	vdiv.f32	s15, s13, s14
 800137e:	ed9f 7a14 	vldr	s14, [pc, #80]	@ 80013d0 <FEB_CAN_RMS_getMaxTorque+0xd8>
 8001382:	eef4 7ac7 	vcmpe.f32	s15, s14
 8001386:	eef1 fa10 	vmrs	APSR_nzcv, fpscr
 800138a:	dd02      	ble.n	8001392 <FEB_CAN_RMS_getMaxTorque+0x9a>
 800138c:	eddf 7a10 	vldr	s15, [pc, #64]	@ 80013d0 <FEB_CAN_RMS_getMaxTorque+0xd8>
 8001390:	e005      	b.n	800139e <FEB_CAN_RMS_getMaxTorque+0xa6>
 8001392:	edd7 6a01 	vldr	s13, [r7, #4]
 8001396:	ed97 7a03 	vldr	s14, [r7, #12]
 800139a:	eec6 7a87 	vdiv.f32	s15, s13, s14
 800139e:	edc7 7a00 	vstr	s15, [r7]
	return maxTorque;
 80013a2:	683b      	ldr	r3, [r7, #0]
}
 80013a4:	ee07 3a90 	vmov	s15, r3
 80013a8:	eeb0 0a67 	vmov.f32	s0, s15
 80013ac:	3710      	adds	r7, #16
 80013ae:	46bd      	mov	sp, r7
 80013b0:	bd80      	pop	{r7, pc}
 80013b2:	bf00      	nop
 80013b4:	f3af 8000 	nop.w
 80013b8:	0f3cb3e5 	.word	0x0f3cb3e5
 80013bc:	3fbaceee 	.word	0x3fbaceee
 80013c0:	200001fc 	.word	0x200001fc
 80013c4:	404a0000 	.word	0x404a0000
 80013c8:	43c80000 	.word	0x43c80000
 80013cc:	43660000 	.word	0x43660000
 80013d0:	43660000 	.word	0x43660000

080013d4 <FEB_CAN_RMS_Torque>:

void FEB_CAN_RMS_Torque(void){
 80013d4:	b580      	push	{r7, lr}
 80013d6:	ed2d 8b02 	vpush	{d8}
 80013da:	b084      	sub	sp, #16
 80013dc:	af00      	add	r7, sp, #0
	FEB_SM_ST_t current_BMS_state = FEB_CAN_BMS_getState(); // TODO: FOR ALEX
 80013de:	f7ff fe37 	bl	8001050 <FEB_CAN_BMS_getState>
 80013e2:	4603      	mov	r3, r0
 80013e4:	73fb      	strb	r3, [r7, #15]
	float accPos = FEB_Normalized_Acc_Pedals();
 80013e6:	f000 f9f3 	bl	80017d0 <FEB_Normalized_Acc_Pedals>
 80013ea:	ed87 0a02 	vstr	s0, [r7, #8]
	float brkPos = FEB_Normalized_getBrake();
 80013ee:	f000 fb33 	bl	8001a58 <FEB_Normalized_getBrake>
 80013f2:	ed87 0a01 	vstr	s0, [r7, #4]
//	    {
//	        // No braking detected, but driving not allowed by BMS state
//	        RMSControl.torque = 0;
//	    }
//	}
	RMSControl.torque = 10 * accPos * FEB_CAN_RMS_getMaxTorque(); // temp
 80013f6:	edd7 7a02 	vldr	s15, [r7, #8]
 80013fa:	eeb2 7a04 	vmov.f32	s14, #36	@ 0x41200000  10.0
 80013fe:	ee27 8a87 	vmul.f32	s16, s15, s14
 8001402:	f7ff ff79 	bl	80012f8 <FEB_CAN_RMS_getMaxTorque>
 8001406:	eef0 7a40 	vmov.f32	s15, s0
 800140a:	ee68 7a27 	vmul.f32	s15, s16, s15
 800140e:	eefd 7ae7 	vcvt.s32.f32	s15, s15
 8001412:	ee17 3a90 	vmov	r3, s15
 8001416:	b21a      	sxth	r2, r3
 8001418:	4b04      	ldr	r3, [pc, #16]	@ (800142c <FEB_CAN_RMS_Torque+0x58>)
 800141a:	801a      	strh	r2, [r3, #0]
//	sprintf(buf, "Torque: %d\n", max_torque);
//	HAL_UART_Transmit(&huart2, buf, strlen(buf), 100);
//
//	RMSControl.torque= max_torque;

	FEB_CAN_RMS_Transmit_updateTorque();
 800141c:	f000 f808 	bl	8001430 <FEB_CAN_RMS_Transmit_updateTorque>
}
 8001420:	bf00      	nop
 8001422:	3710      	adds	r7, #16
 8001424:	46bd      	mov	sp, r7
 8001426:	ecbd 8b02 	vpop	{d8}
 800142a:	bd80      	pop	{r7, pc}
 800142c:	200001f8 	.word	0x200001f8

08001430 <FEB_CAN_RMS_Transmit_updateTorque>:

	// Select CAN msg to broadcast
	FEB_CAN_RMS_Transmit_paramBroadcast();
}

void FEB_CAN_RMS_Transmit_updateTorque(void) { //TODO: Create Custom Transmit function and update below call
 8001430:	b580      	push	{r7, lr}
 8001432:	af00      	add	r7, sp, #0
  //uint8_t message_data[8] = {RMSControl.torque & 0xFF, RMSControl.torque >> 8, 0, 0, 0, RMSControl.enabled, 0, 0};
	FEB_CAN_Tx_Header.DLC = 8;
 8001434:	4b1f      	ldr	r3, [pc, #124]	@ (80014b4 <FEB_CAN_RMS_Transmit_updateTorque+0x84>)
 8001436:	2208      	movs	r2, #8
 8001438:	611a      	str	r2, [r3, #16]
	FEB_CAN_Tx_Header.StdId = FEB_CAN_RMS_COMMAND_MSG_FRAME_ID; //ID for sending paramater messages for RMS
 800143a:	4b1e      	ldr	r3, [pc, #120]	@ (80014b4 <FEB_CAN_RMS_Transmit_updateTorque+0x84>)
 800143c:	22c0      	movs	r2, #192	@ 0xc0
 800143e:	601a      	str	r2, [r3, #0]
	FEB_CAN_Tx_Header.IDE = CAN_ID_STD;
 8001440:	4b1c      	ldr	r3, [pc, #112]	@ (80014b4 <FEB_CAN_RMS_Transmit_updateTorque+0x84>)
 8001442:	2200      	movs	r2, #0
 8001444:	609a      	str	r2, [r3, #8]
	FEB_CAN_Tx_Header.RTR = CAN_RTR_DATA;
 8001446:	4b1b      	ldr	r3, [pc, #108]	@ (80014b4 <FEB_CAN_RMS_Transmit_updateTorque+0x84>)
 8001448:	2200      	movs	r2, #0
 800144a:	60da      	str	r2, [r3, #12]
	FEB_CAN_Tx_Header.TransmitGlobalTime = DISABLE;
 800144c:	4b19      	ldr	r3, [pc, #100]	@ (80014b4 <FEB_CAN_RMS_Transmit_updateTorque+0x84>)
 800144e:	2200      	movs	r2, #0
 8001450:	751a      	strb	r2, [r3, #20]

	// Copy data to Tx buffer
	FEB_CAN_Tx_Data[0] = (uint8_t)RMSControl.torque & 0xFF;
 8001452:	4b19      	ldr	r3, [pc, #100]	@ (80014b8 <FEB_CAN_RMS_Transmit_updateTorque+0x88>)
 8001454:	f9b3 3000 	ldrsh.w	r3, [r3]
 8001458:	b2da      	uxtb	r2, r3
 800145a:	4b18      	ldr	r3, [pc, #96]	@ (80014bc <FEB_CAN_RMS_Transmit_updateTorque+0x8c>)
 800145c:	701a      	strb	r2, [r3, #0]
	FEB_CAN_Tx_Data[1] = (uint8_t)(RMSControl.torque >> 8) & 0xFF;
 800145e:	4b16      	ldr	r3, [pc, #88]	@ (80014b8 <FEB_CAN_RMS_Transmit_updateTorque+0x88>)
 8001460:	f9b3 3000 	ldrsh.w	r3, [r3]
 8001464:	121b      	asrs	r3, r3, #8
 8001466:	b21b      	sxth	r3, r3
 8001468:	b2da      	uxtb	r2, r3
 800146a:	4b14      	ldr	r3, [pc, #80]	@ (80014bc <FEB_CAN_RMS_Transmit_updateTorque+0x8c>)
 800146c:	705a      	strb	r2, [r3, #1]
	FEB_CAN_Tx_Data[2] = 0;
 800146e:	4b13      	ldr	r3, [pc, #76]	@ (80014bc <FEB_CAN_RMS_Transmit_updateTorque+0x8c>)
 8001470:	2200      	movs	r2, #0
 8001472:	709a      	strb	r2, [r3, #2]
	FEB_CAN_Tx_Data[3] = 0;
 8001474:	4b11      	ldr	r3, [pc, #68]	@ (80014bc <FEB_CAN_RMS_Transmit_updateTorque+0x8c>)
 8001476:	2200      	movs	r2, #0
 8001478:	70da      	strb	r2, [r3, #3]
	FEB_CAN_Tx_Data[4] = 1;
 800147a:	4b10      	ldr	r3, [pc, #64]	@ (80014bc <FEB_CAN_RMS_Transmit_updateTorque+0x8c>)
 800147c:	2201      	movs	r2, #1
 800147e:	711a      	strb	r2, [r3, #4]
	FEB_CAN_Tx_Data[5] = RMSControl.enabled;
 8001480:	4b0d      	ldr	r3, [pc, #52]	@ (80014b8 <FEB_CAN_RMS_Transmit_updateTorque+0x88>)
 8001482:	789a      	ldrb	r2, [r3, #2]
 8001484:	4b0d      	ldr	r3, [pc, #52]	@ (80014bc <FEB_CAN_RMS_Transmit_updateTorque+0x8c>)
 8001486:	715a      	strb	r2, [r3, #5]
	FEB_CAN_Tx_Data[6] = 0;
 8001488:	4b0c      	ldr	r3, [pc, #48]	@ (80014bc <FEB_CAN_RMS_Transmit_updateTorque+0x8c>)
 800148a:	2200      	movs	r2, #0
 800148c:	719a      	strb	r2, [r3, #6]
	FEB_CAN_Tx_Data[7] = 0;
 800148e:	4b0b      	ldr	r3, [pc, #44]	@ (80014bc <FEB_CAN_RMS_Transmit_updateTorque+0x8c>)
 8001490:	2200      	movs	r2, #0
 8001492:	71da      	strb	r2, [r3, #7]

	// Delay until mailbox available
	while (HAL_CAN_GetTxMailboxesFreeLevel(&hcan1) == 0) {}
 8001494:	bf00      	nop
 8001496:	480a      	ldr	r0, [pc, #40]	@ (80014c0 <FEB_CAN_RMS_Transmit_updateTorque+0x90>)
 8001498:	f002 f914 	bl	80036c4 <HAL_CAN_GetTxMailboxesFreeLevel>
 800149c:	4603      	mov	r3, r0
 800149e:	2b00      	cmp	r3, #0
 80014a0:	d0f9      	beq.n	8001496 <FEB_CAN_RMS_Transmit_updateTorque+0x66>

	// Add Tx data to mailbox
	if (HAL_CAN_AddTxMessage(&hcan1, &FEB_CAN_Tx_Header, FEB_CAN_Tx_Data, &FEB_CAN_Tx_Mailbox) != HAL_OK) {
 80014a2:	4b08      	ldr	r3, [pc, #32]	@ (80014c4 <FEB_CAN_RMS_Transmit_updateTorque+0x94>)
 80014a4:	4a05      	ldr	r2, [pc, #20]	@ (80014bc <FEB_CAN_RMS_Transmit_updateTorque+0x8c>)
 80014a6:	4903      	ldr	r1, [pc, #12]	@ (80014b4 <FEB_CAN_RMS_Transmit_updateTorque+0x84>)
 80014a8:	4805      	ldr	r0, [pc, #20]	@ (80014c0 <FEB_CAN_RMS_Transmit_updateTorque+0x90>)
 80014aa:	f002 f83b 	bl	8003524 <HAL_CAN_AddTxMessage>
		// Code Error - Shutdown
	}
}
 80014ae:	bf00      	nop
 80014b0:	bd80      	pop	{r7, pc}
 80014b2:	bf00      	nop
 80014b4:	20000210 	.word	0x20000210
 80014b8:	200001f8 	.word	0x200001f8
 80014bc:	20000244 	.word	0x20000244
 80014c0:	200002a4 	.word	0x200002a4
 80014c4:	20000254 	.word	0x20000254

080014c8 <FEB_CAN_RMS_Filter_Config>:




uint8_t FEB_CAN_RMS_Filter_Config(CAN_HandleTypeDef* hcan, uint8_t FIFO_assignment, uint8_t filter_bank) {
 80014c8:	b580      	push	{r7, lr}
 80014ca:	b08e      	sub	sp, #56	@ 0x38
 80014cc:	af00      	add	r7, sp, #0
 80014ce:	6078      	str	r0, [r7, #4]
 80014d0:	460b      	mov	r3, r1
 80014d2:	70fb      	strb	r3, [r7, #3]
 80014d4:	4613      	mov	r3, r2
 80014d6:	70bb      	strb	r3, [r7, #2]
	uint16_t ids[] = {FEB_CAN_ID_RMS_VOLTAGE, FEB_CAN_ID_RMS_MOTOR};
 80014d8:	4b1c      	ldr	r3, [pc, #112]	@ (800154c <FEB_CAN_RMS_Filter_Config+0x84>)
 80014da:	681b      	ldr	r3, [r3, #0]
 80014dc:	633b      	str	r3, [r7, #48]	@ 0x30

	for (uint8_t i = 0; i < 2; i++) {
 80014de:	2300      	movs	r3, #0
 80014e0:	f887 3037 	strb.w	r3, [r7, #55]	@ 0x37
 80014e4:	e029      	b.n	800153a <FEB_CAN_RMS_Filter_Config+0x72>
		CAN_FilterTypeDef filter_config;

	    // Standard CAN - 2.0A - 11 bit
	    filter_config.FilterActivation = CAN_FILTER_ENABLE;
 80014e6:	2301      	movs	r3, #1
 80014e8:	62bb      	str	r3, [r7, #40]	@ 0x28
		filter_config.FilterBank = filter_bank;
 80014ea:	78bb      	ldrb	r3, [r7, #2]
 80014ec:	61fb      	str	r3, [r7, #28]
		filter_config.FilterFIFOAssignment = FIFO_assignment;
 80014ee:	78fb      	ldrb	r3, [r7, #3]
 80014f0:	61bb      	str	r3, [r7, #24]
		filter_config.FilterIdHigh = ids[i] << 5;
 80014f2:	f897 3037 	ldrb.w	r3, [r7, #55]	@ 0x37
 80014f6:	005b      	lsls	r3, r3, #1
 80014f8:	3338      	adds	r3, #56	@ 0x38
 80014fa:	443b      	add	r3, r7
 80014fc:	f833 3c08 	ldrh.w	r3, [r3, #-8]
 8001500:	015b      	lsls	r3, r3, #5
 8001502:	60bb      	str	r3, [r7, #8]
		filter_config.FilterIdLow = 0;
 8001504:	2300      	movs	r3, #0
 8001506:	60fb      	str	r3, [r7, #12]
		filter_config.FilterMaskIdHigh = 0xFFE0;
 8001508:	f64f 73e0 	movw	r3, #65504	@ 0xffe0
 800150c:	613b      	str	r3, [r7, #16]
		filter_config.FilterMaskIdLow = 0;
 800150e:	2300      	movs	r3, #0
 8001510:	617b      	str	r3, [r7, #20]
		filter_config.FilterMode = CAN_FILTERMODE_IDMASK;
 8001512:	2300      	movs	r3, #0
 8001514:	623b      	str	r3, [r7, #32]
		filter_config.FilterScale = CAN_FILTERSCALE_32BIT;
 8001516:	2301      	movs	r3, #1
 8001518:	627b      	str	r3, [r7, #36]	@ 0x24
		filter_config.SlaveStartFilterBank = 27;
 800151a:	231b      	movs	r3, #27
 800151c:	62fb      	str	r3, [r7, #44]	@ 0x2c
	    filter_bank++;
 800151e:	78bb      	ldrb	r3, [r7, #2]
 8001520:	3301      	adds	r3, #1
 8001522:	70bb      	strb	r3, [r7, #2]

		if (HAL_CAN_ConfigFilter(hcan, &filter_config) != HAL_OK) {
 8001524:	f107 0308 	add.w	r3, r7, #8
 8001528:	4619      	mov	r1, r3
 800152a:	6878      	ldr	r0, [r7, #4]
 800152c:	f001 fed6 	bl	80032dc <HAL_CAN_ConfigFilter>
	for (uint8_t i = 0; i < 2; i++) {
 8001530:	f897 3037 	ldrb.w	r3, [r7, #55]	@ 0x37
 8001534:	3301      	adds	r3, #1
 8001536:	f887 3037 	strb.w	r3, [r7, #55]	@ 0x37
 800153a:	f897 3037 	ldrb.w	r3, [r7, #55]	@ 0x37
 800153e:	2b01      	cmp	r3, #1
 8001540:	d9d1      	bls.n	80014e6 <FEB_CAN_RMS_Filter_Config+0x1e>
			//Code Error - shutdown
		}
	}

	return filter_bank;
 8001542:	78bb      	ldrb	r3, [r7, #2]
}
 8001544:	4618      	mov	r0, r3
 8001546:	3738      	adds	r7, #56	@ 0x38
 8001548:	46bd      	mov	sp, r7
 800154a:	bd80      	pop	{r7, pc}
 800154c:	08008750 	.word	0x08008750

08001550 <FEB_CAN_RMS_Store_Msg>:
		// Code Error - Shutdown
	}
}


void FEB_CAN_RMS_Store_Msg(CAN_RxHeaderTypeDef* pHeader, uint8_t *RxData) {
 8001550:	b480      	push	{r7}
 8001552:	b083      	sub	sp, #12
 8001554:	af00      	add	r7, sp, #0
 8001556:	6078      	str	r0, [r7, #4]
 8001558:	6039      	str	r1, [r7, #0]
	switch (pHeader -> StdId){
 800155a:	687b      	ldr	r3, [r7, #4]
 800155c:	681b      	ldr	r3, [r3, #0]
 800155e:	2ba5      	cmp	r3, #165	@ 0xa5
 8001560:	d007      	beq.n	8001572 <FEB_CAN_RMS_Store_Msg+0x22>
 8001562:	2ba7      	cmp	r3, #167	@ 0xa7
 8001564:	d10c      	bne.n	8001580 <FEB_CAN_RMS_Store_Msg+0x30>
		case FEB_CAN_ID_RMS_VOLTAGE:
			memcpy(&(RMS_MESSAGE.HV_Bus_Voltage), RxData, 2);
 8001566:	683b      	ldr	r3, [r7, #0]
 8001568:	881b      	ldrh	r3, [r3, #0]
 800156a:	b29a      	uxth	r2, r3
 800156c:	4b07      	ldr	r3, [pc, #28]	@ (800158c <FEB_CAN_RMS_Store_Msg+0x3c>)
 800156e:	801a      	strh	r2, [r3, #0]
			break;
 8001570:	e006      	b.n	8001580 <FEB_CAN_RMS_Store_Msg+0x30>
		case FEB_CAN_ID_RMS_MOTOR:
			memcpy(&(RMS_MESSAGE.Motor_Speed), RxData+2, 2);
 8001572:	683b      	ldr	r3, [r7, #0]
 8001574:	3302      	adds	r3, #2
 8001576:	881b      	ldrh	r3, [r3, #0]
 8001578:	b29a      	uxth	r2, r3
 800157a:	4b04      	ldr	r3, [pc, #16]	@ (800158c <FEB_CAN_RMS_Store_Msg+0x3c>)
 800157c:	805a      	strh	r2, [r3, #2]
			break;
 800157e:	bf00      	nop
	}
}
 8001580:	bf00      	nop
 8001582:	370c      	adds	r7, #12
 8001584:	46bd      	mov	sp, r7
 8001586:	f85d 7b04 	ldr.w	r7, [sp], #4
 800158a:	4770      	bx	lr
 800158c:	200001fc 	.word	0x200001fc

08001590 <FEB_Read_ADC1>:
bool currHigh = false;


// **************************************** Functions ****************************************

uint16_t FEB_Read_ADC1(uint32_t channel){
 8001590:	b580      	push	{r7, lr}
 8001592:	b086      	sub	sp, #24
 8001594:	af00      	add	r7, sp, #0
 8001596:	6078      	str	r0, [r7, #4]
	ADC_ChannelConfTypeDef sConfig={0};
 8001598:	f107 0308 	add.w	r3, r7, #8
 800159c:	2200      	movs	r2, #0
 800159e:	601a      	str	r2, [r3, #0]
 80015a0:	605a      	str	r2, [r3, #4]
 80015a2:	609a      	str	r2, [r3, #8]
 80015a4:	60da      	str	r2, [r3, #12]
	sConfig.Channel = channel;
 80015a6:	687b      	ldr	r3, [r7, #4]
 80015a8:	60bb      	str	r3, [r7, #8]
	sConfig.Rank = 1;
 80015aa:	2301      	movs	r3, #1
 80015ac:	60fb      	str	r3, [r7, #12]
	sConfig.SamplingTime = ADC_SAMPLETIME_480CYCLES;
 80015ae:	2307      	movs	r3, #7
 80015b0:	613b      	str	r3, [r7, #16]

	if (HAL_ADC_ConfigChannel(&hadc1, &sConfig) != HAL_OK)
 80015b2:	f107 0308 	add.w	r3, r7, #8
 80015b6:	4619      	mov	r1, r3
 80015b8:	480b      	ldr	r0, [pc, #44]	@ (80015e8 <FEB_Read_ADC1+0x58>)
 80015ba:	f001 fa9b 	bl	8002af4 <HAL_ADC_ConfigChannel>
 80015be:	4603      	mov	r3, r0
 80015c0:	2b00      	cmp	r3, #0
 80015c2:	d001      	beq.n	80015c8 <FEB_Read_ADC1+0x38>
	{
	   Error_Handler();
 80015c4:	f000 fd96 	bl	80020f4 <Error_Handler>
	}

	HAL_ADC_Start(&hadc1);
 80015c8:	4807      	ldr	r0, [pc, #28]	@ (80015e8 <FEB_Read_ADC1+0x58>)
 80015ca:	f001 f929 	bl	8002820 <HAL_ADC_Start>
	HAL_ADC_PollForConversion(&hadc1, 100);
 80015ce:	2164      	movs	r1, #100	@ 0x64
 80015d0:	4805      	ldr	r0, [pc, #20]	@ (80015e8 <FEB_Read_ADC1+0x58>)
 80015d2:	f001 f9f7 	bl	80029c4 <HAL_ADC_PollForConversion>
	return (uint16_t)HAL_ADC_GetValue(&hadc1);
 80015d6:	4804      	ldr	r0, [pc, #16]	@ (80015e8 <FEB_Read_ADC1+0x58>)
 80015d8:	f001 fa7f 	bl	8002ada <HAL_ADC_GetValue>
 80015dc:	4603      	mov	r3, r0
 80015de:	b29b      	uxth	r3, r3

}
 80015e0:	4618      	mov	r0, r3
 80015e2:	3718      	adds	r7, #24
 80015e4:	46bd      	mov	sp, r7
 80015e6:	bd80      	pop	{r7, pc}
 80015e8:	2000025c 	.word	0x2000025c

080015ec <FEB_HECS_update>:

void FEB_HECS_update(){
 80015ec:	b5b0      	push	{r4, r5, r7, lr}
 80015ee:	b0a8      	sub	sp, #160	@ 0xa0
 80015f0:	af04      	add	r7, sp, #16
	uint16_t current_HECS = FEB_Read_ADC1(HECS_SIGNAL);
 80015f2:	200e      	movs	r0, #14
 80015f4:	f7ff ffcc 	bl	8001590 <FEB_Read_ADC1>
 80015f8:	4603      	mov	r3, r0
 80015fa:	f8a7 308e 	strh.w	r3, [r7, #142]	@ 0x8e
	uint16_t current_ACC1 = FEB_Read_ADC1(ACC_PEDAL_1);
 80015fe:	2001      	movs	r0, #1
 8001600:	f7ff ffc6 	bl	8001590 <FEB_Read_ADC1>
 8001604:	4603      	mov	r3, r0
 8001606:	f8a7 308c 	strh.w	r3, [r7, #140]	@ 0x8c
	uint16_t current_BRAKE1 = FEB_Read_ADC1(BRAKE_PRESS_1);
 800160a:	200d      	movs	r0, #13
 800160c:	f7ff ffc0 	bl	8001590 <FEB_Read_ADC1>
 8001610:	4603      	mov	r3, r0
 8001612:	f8a7 308a 	strh.w	r3, [r7, #138]	@ 0x8a
	uint16_t current_ACC2 = FEB_Read_ADC1(ACC_PEDAL_2);
 8001616:	2000      	movs	r0, #0
 8001618:	f7ff ffba 	bl	8001590 <FEB_Read_ADC1>
 800161c:	4603      	mov	r3, r0
 800161e:	f8a7 3088 	strh.w	r3, [r7, #136]	@ 0x88
	uint16_t current_BRAKE2 = FEB_Read_ADC1(BRAKE_PRESS_2);
 8001622:	200c      	movs	r0, #12
 8001624:	f7ff ffb4 	bl	8001590 <FEB_Read_ADC1>
 8001628:	4603      	mov	r3, r0
 800162a:	f8a7 3086 	strh.w	r3, [r7, #134]	@ 0x86

	char buf[128];
	uint8_t buf_len;
	buf_len = sprintf(buf, "HECS Current:%d, %d, %d, %d, %d\n\r", current_HECS,current_ACC1,current_BRAKE1,current_ACC2,current_BRAKE2);
 800162e:	f8b7 408e 	ldrh.w	r4, [r7, #142]	@ 0x8e
 8001632:	f8b7 508c 	ldrh.w	r5, [r7, #140]	@ 0x8c
 8001636:	f8b7 308a 	ldrh.w	r3, [r7, #138]	@ 0x8a
 800163a:	f8b7 2088 	ldrh.w	r2, [r7, #136]	@ 0x88
 800163e:	f8b7 1086 	ldrh.w	r1, [r7, #134]	@ 0x86
 8001642:	1d38      	adds	r0, r7, #4
 8001644:	9102      	str	r1, [sp, #8]
 8001646:	9201      	str	r2, [sp, #4]
 8001648:	9300      	str	r3, [sp, #0]
 800164a:	462b      	mov	r3, r5
 800164c:	4622      	mov	r2, r4
 800164e:	4911      	ldr	r1, [pc, #68]	@ (8001694 <FEB_HECS_update+0xa8>)
 8001650:	f004 ff4e 	bl	80064f0 <siprintf>
 8001654:	4603      	mov	r3, r0
 8001656:	f887 3085 	strb.w	r3, [r7, #133]	@ 0x85
	HAL_UART_Transmit(&huart2, buf, strlen(buf), HAL_MAX_DELAY);
 800165a:	1d3b      	adds	r3, r7, #4
 800165c:	4618      	mov	r0, r3
 800165e:	f7fe fe27 	bl	80002b0 <strlen>
 8001662:	4603      	mov	r3, r0
 8001664:	b29a      	uxth	r2, r3
 8001666:	1d39      	adds	r1, r7, #4
 8001668:	f04f 33ff 	mov.w	r3, #4294967295	@ 0xffffffff
 800166c:	480a      	ldr	r0, [pc, #40]	@ (8001698 <FEB_HECS_update+0xac>)
 800166e:	f003 fe61 	bl	8005334 <HAL_UART_Transmit>

	if (current_HECS >= HECS_CURRENT){ //checks if current is above value (to be determined)
 8001672:	f8b7 308e 	ldrh.w	r3, [r7, #142]	@ 0x8e
 8001676:	f5b3 6f3d 	cmp.w	r3, #3024	@ 0xbd0
 800167a:	d903      	bls.n	8001684 <FEB_HECS_update+0x98>
		currHigh = true;
 800167c:	4b07      	ldr	r3, [pc, #28]	@ (800169c <FEB_HECS_update+0xb0>)
 800167e:	2201      	movs	r2, #1
 8001680:	701a      	strb	r2, [r3, #0]
	}else{
		currHigh = false;
	}

}
 8001682:	e002      	b.n	800168a <FEB_HECS_update+0x9e>
		currHigh = false;
 8001684:	4b05      	ldr	r3, [pc, #20]	@ (800169c <FEB_HECS_update+0xb0>)
 8001686:	2200      	movs	r2, #0
 8001688:	701a      	strb	r2, [r3, #0]
}
 800168a:	bf00      	nop
 800168c:	3790      	adds	r7, #144	@ 0x90
 800168e:	46bd      	mov	sp, r7
 8001690:	bdb0      	pop	{r4, r5, r7, pc}
 8001692:	bf00      	nop
 8001694:	08008754 	.word	0x08008754
 8001698:	20000320 	.word	0x20000320
 800169c:	20000200 	.word	0x20000200

080016a0 <FEB_Main_Setup>:
char buf[128];
uint8_t buf_len;

// ********************************** Functions **********************************

void FEB_Main_Setup(void){
 80016a0:	b580      	push	{r7, lr}
 80016a2:	af00      	add	r7, sp, #0
	HAL_ADCEx_InjectedStart(&hadc1);
 80016a4:	4804      	ldr	r0, [pc, #16]	@ (80016b8 <FEB_Main_Setup+0x18>)
 80016a6:	f001 fc53 	bl	8002f50 <HAL_ADCEx_InjectedStart>
	FEB_CAN_Init();
 80016aa:	f000 fad7 	bl	8001c5c <FEB_CAN_Init>
	FEB_CAN_RMS_Setup();
 80016ae:	f7ff fd71 	bl	8001194 <FEB_CAN_RMS_Setup>
}
 80016b2:	bf00      	nop
 80016b4:	bd80      	pop	{r7, pc}
 80016b6:	bf00      	nop
 80016b8:	2000025c 	.word	0x2000025c

080016bc <FEB_Main_While>:

void FEB_Main_While(void){
 80016bc:	b580      	push	{r7, lr}
 80016be:	b082      	sub	sp, #8
 80016c0:	af00      	add	r7, sp, #0
	FEB_SM_ST_t bms_state = FEB_CAN_BMS_getState();
 80016c2:	f7ff fcc5 	bl	8001050 <FEB_CAN_BMS_getState>
 80016c6:	4603      	mov	r3, r0
 80016c8:	71fb      	strb	r3, [r7, #7]

	if (FEB_Ready_To_Drive() && (bms_state == FEB_SM_ST_DRIVE)) {
 80016ca:	f7ff fd57 	bl	800117c <FEB_Ready_To_Drive>
 80016ce:	4603      	mov	r3, r0
 80016d0:	2b00      	cmp	r3, #0
 80016d2:	d007      	beq.n	80016e4 <FEB_Main_While+0x28>
 80016d4:	79fb      	ldrb	r3, [r7, #7]
 80016d6:	2b05      	cmp	r3, #5
 80016d8:	d104      	bne.n	80016e4 <FEB_Main_While+0x28>
		FEB_Normalized_updateAcc();
 80016da:	f000 f84d 	bl	8001778 <FEB_Normalized_updateAcc>
		FEB_CAN_RMS_Process();
 80016de:	f7ff fd69 	bl	80011b4 <FEB_CAN_RMS_Process>
 80016e2:	e003      	b.n	80016ec <FEB_Main_While+0x30>

	} else {
		FEB_Normalized_setAcc0();
 80016e4:	f000 f83a 	bl	800175c <FEB_Normalized_setAcc0>
		FEB_CAN_RMS_Disable();
 80016e8:	f7ff fd74 	bl	80011d4 <FEB_CAN_RMS_Disable>
	}

	FEB_HECS_update();
 80016ec:	f7ff ff7e 	bl	80015ec <FEB_HECS_update>

	FEB_CAN_RMS_Torque();
 80016f0:	f7ff fe70 	bl	80013d4 <FEB_CAN_RMS_Torque>
	FEB_Normalized_CAN_sendBrake();
 80016f4:	f000 fa4a 	bl	8001b8c <FEB_Normalized_CAN_sendBrake>

	HAL_Delay(10);
 80016f8:	200a      	movs	r0, #10
 80016fa:	f001 f829 	bl	8002750 <HAL_Delay>
}
 80016fe:	bf00      	nop
 8001700:	3708      	adds	r7, #8
 8001702:	46bd      	mov	sp, r7
 8001704:	bd80      	pop	{r7, pc}
	...

08001708 <FEB_Read_ADC>:
float normalized_brake;
bool isImpl = false;

// **************************************** Functions ****************************************

uint16_t FEB_Read_ADC(uint32_t channel){
 8001708:	b580      	push	{r7, lr}
 800170a:	b086      	sub	sp, #24
 800170c:	af00      	add	r7, sp, #0
 800170e:	6078      	str	r0, [r7, #4]
	ADC_ChannelConfTypeDef sConfig={0};
 8001710:	f107 0308 	add.w	r3, r7, #8
 8001714:	2200      	movs	r2, #0
 8001716:	601a      	str	r2, [r3, #0]
 8001718:	605a      	str	r2, [r3, #4]
 800171a:	609a      	str	r2, [r3, #8]
 800171c:	60da      	str	r2, [r3, #12]
	sConfig.Channel = channel;
 800171e:	687b      	ldr	r3, [r7, #4]
 8001720:	60bb      	str	r3, [r7, #8]
	sConfig.Rank = 1;
 8001722:	2301      	movs	r3, #1
 8001724:	60fb      	str	r3, [r7, #12]
	sConfig.SamplingTime = ADC_SAMPLETIME_480CYCLES;
 8001726:	2307      	movs	r3, #7
 8001728:	613b      	str	r3, [r7, #16]

	if (HAL_ADC_ConfigChannel(&hadc1, &sConfig) != HAL_OK)
 800172a:	f107 0308 	add.w	r3, r7, #8
 800172e:	4619      	mov	r1, r3
 8001730:	4809      	ldr	r0, [pc, #36]	@ (8001758 <FEB_Read_ADC+0x50>)
 8001732:	f001 f9df 	bl	8002af4 <HAL_ADC_ConfigChannel>
	{
//	   Error_Handler();
	}

	HAL_ADC_Start(&hadc1);
 8001736:	4808      	ldr	r0, [pc, #32]	@ (8001758 <FEB_Read_ADC+0x50>)
 8001738:	f001 f872 	bl	8002820 <HAL_ADC_Start>
	HAL_ADC_PollForConversion(&hadc1, 100);
 800173c:	2164      	movs	r1, #100	@ 0x64
 800173e:	4806      	ldr	r0, [pc, #24]	@ (8001758 <FEB_Read_ADC+0x50>)
 8001740:	f001 f940 	bl	80029c4 <HAL_ADC_PollForConversion>
	return (uint16_t)HAL_ADC_GetValue(&hadc1);
 8001744:	4804      	ldr	r0, [pc, #16]	@ (8001758 <FEB_Read_ADC+0x50>)
 8001746:	f001 f9c8 	bl	8002ada <HAL_ADC_GetValue>
 800174a:	4603      	mov	r3, r0
 800174c:	b29b      	uxth	r3, r3

}
 800174e:	4618      	mov	r0, r3
 8001750:	3718      	adds	r7, #24
 8001752:	46bd      	mov	sp, r7
 8001754:	bd80      	pop	{r7, pc}
 8001756:	bf00      	nop
 8001758:	2000025c 	.word	0x2000025c

0800175c <FEB_Normalized_setAcc0>:

float FEB_Normalized_getAcc(){
	return normalized_acc;
}

void FEB_Normalized_setAcc0(){
 800175c:	b480      	push	{r7}
 800175e:	af00      	add	r7, sp, #0
	normalized_acc = 0.0;
 8001760:	4b04      	ldr	r3, [pc, #16]	@ (8001774 <FEB_Normalized_setAcc0+0x18>)
 8001762:	f04f 0200 	mov.w	r2, #0
 8001766:	601a      	str	r2, [r3, #0]
}
 8001768:	bf00      	nop
 800176a:	46bd      	mov	sp, r7
 800176c:	f85d 7b04 	ldr.w	r7, [sp], #4
 8001770:	4770      	bx	lr
 8001772:	bf00      	nop
 8001774:	20000204 	.word	0x20000204

08001778 <FEB_Normalized_updateAcc>:
	char buf1[128];
	sprintf(buf1, "[SENSOR] Brake Position: %d.%d%%\n", brake_pedal_position_int1, brake_pedal_position_int2);
	HAL_UART_Transmit(&huart2,(uint8_t *)buf1, strlen(buf1), HAL_MAX_DELAY);
}

void FEB_Normalized_updateAcc(){
 8001778:	b580      	push	{r7, lr}
 800177a:	b0a2      	sub	sp, #136	@ 0x88
 800177c:	af00      	add	r7, sp, #0
	normalized_acc = FEB_Normalized_Acc_Pedals();
 800177e:	f000 f827 	bl	80017d0 <FEB_Normalized_Acc_Pedals>
 8001782:	eef0 7a40 	vmov.f32	s15, s0
 8001786:	4b0f      	ldr	r3, [pc, #60]	@ (80017c4 <FEB_Normalized_updateAcc+0x4c>)
 8001788:	edc3 7a00 	vstr	s15, [r3]

	char buf[128];
	uint8_t buf_len;
	buf_len = sprintf(buf, "normalized_acc: %f\n", normalized_acc);
 800178c:	4b0d      	ldr	r3, [pc, #52]	@ (80017c4 <FEB_Normalized_updateAcc+0x4c>)
 800178e:	681b      	ldr	r3, [r3, #0]
 8001790:	4618      	mov	r0, r3
 8001792:	f7fe fef9 	bl	8000588 <__aeabi_f2d>
 8001796:	4602      	mov	r2, r0
 8001798:	460b      	mov	r3, r1
 800179a:	1d38      	adds	r0, r7, #4
 800179c:	490a      	ldr	r1, [pc, #40]	@ (80017c8 <FEB_Normalized_updateAcc+0x50>)
 800179e:	f004 fea7 	bl	80064f0 <siprintf>
 80017a2:	4603      	mov	r3, r0
 80017a4:	f887 3087 	strb.w	r3, [r7, #135]	@ 0x87
	HAL_UART_Transmit(&huart2,(uint8_t *)buf, buf_len, HAL_MAX_DELAY);
 80017a8:	f897 3087 	ldrb.w	r3, [r7, #135]	@ 0x87
 80017ac:	b29a      	uxth	r2, r3
 80017ae:	1d39      	adds	r1, r7, #4
 80017b0:	f04f 33ff 	mov.w	r3, #4294967295	@ 0xffffffff
 80017b4:	4805      	ldr	r0, [pc, #20]	@ (80017cc <FEB_Normalized_updateAcc+0x54>)
 80017b6:	f003 fdbd 	bl	8005334 <HAL_UART_Transmit>

}
 80017ba:	bf00      	nop
 80017bc:	3788      	adds	r7, #136	@ 0x88
 80017be:	46bd      	mov	sp, r7
 80017c0:	bd80      	pop	{r7, pc}
 80017c2:	bf00      	nop
 80017c4:	20000204 	.word	0x20000204
 80017c8:	08008870 	.word	0x08008870
 80017cc:	20000320 	.word	0x20000320

080017d0 <FEB_Normalized_Acc_Pedals>:

float FEB_Normalized_Acc_Pedals() {
 80017d0:	b580      	push	{r7, lr}
 80017d2:	b0a8      	sub	sp, #160	@ 0xa0
 80017d4:	af00      	add	r7, sp, #0
	// raw ADC readings of the two acc pedal sensors
	uint16_t acc_pedal_1 = FEB_Read_ADC(ACC_PEDAL_1);
 80017d6:	2001      	movs	r0, #1
 80017d8:	f7ff ff96 	bl	8001708 <FEB_Read_ADC>
 80017dc:	4603      	mov	r3, r0
 80017de:	f8a7 309e 	strh.w	r3, [r7, #158]	@ 0x9e
	uint16_t acc_pedal_2 = FEB_Read_ADC(ACC_PEDAL_2);
 80017e2:	2000      	movs	r0, #0
 80017e4:	f7ff ff90 	bl	8001708 <FEB_Read_ADC>
 80017e8:	4603      	mov	r3, r0
 80017ea:	f8a7 309c 	strh.w	r3, [r7, #156]	@ 0x9c
	char buf[128];
	uint8_t buf_len;
	buf_len = sprintf(buf, "acc1:%d acc2:%d\n", acc_pedal_1, acc_pedal_2);
 80017ee:	f8b7 209e 	ldrh.w	r2, [r7, #158]	@ 0x9e
 80017f2:	f8b7 309c 	ldrh.w	r3, [r7, #156]	@ 0x9c
 80017f6:	4638      	mov	r0, r7
 80017f8:	498f      	ldr	r1, [pc, #572]	@ (8001a38 <FEB_Normalized_Acc_Pedals+0x268>)
 80017fa:	f004 fe79 	bl	80064f0 <siprintf>
 80017fe:	4603      	mov	r3, r0
 8001800:	f887 309b 	strb.w	r3, [r7, #155]	@ 0x9b
//	HAL_UART_Transmit(&huart2,(uint8_t *)buf, buf_len, HAL_MAX_DELAY);


	// check implausibility for shorting. TODO: check if this fulfills the short circuiting rules.
	if (acc_pedal_1 < ACC_PEDAL_1_END - 20 || acc_pedal_1 > ACC_PEDAL_1_START + 20
 8001804:	f8b7 309e 	ldrh.w	r3, [r7, #158]	@ 0x9e
 8001808:	f240 5233 	movw	r2, #1331	@ 0x533
 800180c:	4293      	cmp	r3, r2
 800180e:	d910      	bls.n	8001832 <FEB_Normalized_Acc_Pedals+0x62>
 8001810:	f8b7 309e 	ldrh.w	r3, [r7, #158]	@ 0x9e
 8001814:	f240 6201 	movw	r2, #1537	@ 0x601
 8001818:	4293      	cmp	r3, r2
 800181a:	d80a      	bhi.n	8001832 <FEB_Normalized_Acc_Pedals+0x62>
			|| acc_pedal_2 < ACC_PEDAL_2_START - 50 || acc_pedal_2 > ACC_PEDAL_2_END + 50) {
 800181c:	f8b7 309c 	ldrh.w	r3, [r7, #156]	@ 0x9c
 8001820:	f240 3201 	movw	r2, #769	@ 0x301
 8001824:	4293      	cmp	r3, r2
 8001826:	d904      	bls.n	8001832 <FEB_Normalized_Acc_Pedals+0x62>
 8001828:	f8b7 309c 	ldrh.w	r3, [r7, #156]	@ 0x9c
 800182c:	f5b3 6fe8 	cmp.w	r3, #1856	@ 0x740
 8001830:	d905      	bls.n	800183e <FEB_Normalized_Acc_Pedals+0x6e>
		isImpl = true;
 8001832:	4b82      	ldr	r3, [pc, #520]	@ (8001a3c <FEB_Normalized_Acc_Pedals+0x26c>)
 8001834:	2201      	movs	r2, #1
 8001836:	701a      	strb	r2, [r3, #0]
		return 0.0;
 8001838:	f04f 0300 	mov.w	r3, #0
 800183c:	e0de      	b.n	80019fc <FEB_Normalized_Acc_Pedals+0x22c>
	}

	//convert to % travel
	// sensor 1 has positive slope
	float ped1_normalized = (acc_pedal_1 - ACC_PEDAL_1_START)/ (ACC_PEDAL_1_END - ACC_PEDAL_1_START);
 800183e:	f8b7 309e 	ldrh.w	r3, [r7, #158]	@ 0x9e
 8001842:	4618      	mov	r0, r3
 8001844:	f7fe fe8e 	bl	8000564 <__aeabi_i2d>
 8001848:	a371      	add	r3, pc, #452	@ (adr r3, 8001a10 <FEB_Normalized_Acc_Pedals+0x240>)
 800184a:	e9d3 2300 	ldrd	r2, r3, [r3]
 800184e:	f7fe fd3b 	bl	80002c8 <__aeabi_dsub>
 8001852:	4602      	mov	r2, r0
 8001854:	460b      	mov	r3, r1
 8001856:	4610      	mov	r0, r2
 8001858:	4619      	mov	r1, r3
 800185a:	a36f      	add	r3, pc, #444	@ (adr r3, 8001a18 <FEB_Normalized_Acc_Pedals+0x248>)
 800185c:	e9d3 2300 	ldrd	r2, r3, [r3]
 8001860:	f7ff f814 	bl	800088c <__aeabi_ddiv>
 8001864:	4602      	mov	r2, r0
 8001866:	460b      	mov	r3, r1
 8001868:	4610      	mov	r0, r2
 800186a:	4619      	mov	r1, r3
 800186c:	f7ff f9bc 	bl	8000be8 <__aeabi_d2f>
 8001870:	4603      	mov	r3, r0
 8001872:	f8c7 3094 	str.w	r3, [r7, #148]	@ 0x94
	// sensor 2 has negative slope
	float ped2_normalized = (acc_pedal_2 - ACC_PEDAL_2_START) / (ACC_PEDAL_2_END - ACC_PEDAL_2_START);
 8001876:	f8b7 309c 	ldrh.w	r3, [r7, #156]	@ 0x9c
 800187a:	4618      	mov	r0, r3
 800187c:	f7fe fe72 	bl	8000564 <__aeabi_i2d>
 8001880:	f04f 0200 	mov.w	r2, #0
 8001884:	4b6e      	ldr	r3, [pc, #440]	@ (8001a40 <FEB_Normalized_Acc_Pedals+0x270>)
 8001886:	f7fe fd1f 	bl	80002c8 <__aeabi_dsub>
 800188a:	4602      	mov	r2, r0
 800188c:	460b      	mov	r3, r1
 800188e:	4610      	mov	r0, r2
 8001890:	4619      	mov	r1, r3
 8001892:	f04f 0200 	mov.w	r2, #0
 8001896:	4b6b      	ldr	r3, [pc, #428]	@ (8001a44 <FEB_Normalized_Acc_Pedals+0x274>)
 8001898:	f7fe fff8 	bl	800088c <__aeabi_ddiv>
 800189c:	4602      	mov	r2, r0
 800189e:	460b      	mov	r3, r1
 80018a0:	4610      	mov	r0, r2
 80018a2:	4619      	mov	r1, r3
 80018a4:	f7ff f9a0 	bl	8000be8 <__aeabi_d2f>
 80018a8:	4603      	mov	r3, r0
 80018aa:	f8c7 3090 	str.w	r3, [r7, #144]	@ 0x90

	// sensor measurements mismatch by more than 10%
	if(abs(ped1_normalized - ped2_normalized) > 0.1 ){
 80018ae:	ed97 7a25 	vldr	s14, [r7, #148]	@ 0x94
 80018b2:	edd7 7a24 	vldr	s15, [r7, #144]	@ 0x90
 80018b6:	ee77 7a67 	vsub.f32	s15, s14, s15
 80018ba:	eefd 7ae7 	vcvt.s32.f32	s15, s15
 80018be:	ee17 3a90 	vmov	r3, s15
 80018c2:	2b00      	cmp	r3, #0
 80018c4:	bfb8      	it	lt
 80018c6:	425b      	neglt	r3, r3
 80018c8:	2b00      	cmp	r3, #0
 80018ca:	dd05      	ble.n	80018d8 <FEB_Normalized_Acc_Pedals+0x108>
		isImpl = true;
 80018cc:	4b5b      	ldr	r3, [pc, #364]	@ (8001a3c <FEB_Normalized_Acc_Pedals+0x26c>)
 80018ce:	2201      	movs	r2, #1
 80018d0:	701a      	strb	r2, [r3, #0]
		return 0.0;
 80018d2:	f04f 0300 	mov.w	r3, #0
 80018d6:	e091      	b.n	80019fc <FEB_Normalized_Acc_Pedals+0x22c>
	}

	float final_normalized = 0.5*(ped1_normalized + ped2_normalized);
 80018d8:	ed97 7a25 	vldr	s14, [r7, #148]	@ 0x94
 80018dc:	edd7 7a24 	vldr	s15, [r7, #144]	@ 0x90
 80018e0:	ee77 7a27 	vadd.f32	s15, s14, s15
 80018e4:	eeb6 7a00 	vmov.f32	s14, #96	@ 0x3f000000  0.5
 80018e8:	ee67 7a87 	vmul.f32	s15, s15, s14
 80018ec:	edc7 7a23 	vstr	s15, [r7, #140]	@ 0x8c

	float normalizedTrigger = 0.1; // portion of pedal we can press before we trigger a the soft BSPD
 80018f0:	4b55      	ldr	r3, [pc, #340]	@ (8001a48 <FEB_Normalized_Acc_Pedals+0x278>)
 80018f2:	f8c7 3088 	str.w	r3, [r7, #136]	@ 0x88
	float timeThreshold = 1000; // amount of cycles that needs to elapse before trigger, 125 nanoseconds / cycle
 80018f6:	4b55      	ldr	r3, [pc, #340]	@ (8001a4c <FEB_Normalized_Acc_Pedals+0x27c>)
 80018f8:	f8c7 3084 	str.w	r3, [r7, #132]	@ 0x84

	float time = 0.0;
 80018fc:	f04f 0300 	mov.w	r3, #0
 8001900:	f8c7 3080 	str.w	r3, [r7, #128]	@ 0x80
	// Soft BSPD
	if (final_normalized >= normalizedTrigger) {
 8001904:	ed97 7a23 	vldr	s14, [r7, #140]	@ 0x8c
 8001908:	edd7 7a22 	vldr	s15, [r7, #136]	@ 0x88
 800190c:	eeb4 7ae7 	vcmpe.f32	s14, s15
 8001910:	eef1 fa10 	vmrs	APSR_nzcv, fpscr
 8001914:	db13      	blt.n	800193e <FEB_Normalized_Acc_Pedals+0x16e>
		time++;
 8001916:	edd7 7a20 	vldr	s15, [r7, #128]	@ 0x80
 800191a:	eeb7 7a00 	vmov.f32	s14, #112	@ 0x3f800000  1.0
 800191e:	ee77 7a87 	vadd.f32	s15, s15, s14
 8001922:	edc7 7a20 	vstr	s15, [r7, #128]	@ 0x80
		if (time > timeThreshold) {
 8001926:	ed97 7a20 	vldr	s14, [r7, #128]	@ 0x80
 800192a:	edd7 7a21 	vldr	s15, [r7, #132]	@ 0x84
 800192e:	eeb4 7ae7 	vcmpe.f32	s14, s15
 8001932:	eef1 fa10 	vmrs	APSR_nzcv, fpscr
 8001936:	dd02      	ble.n	800193e <FEB_Normalized_Acc_Pedals+0x16e>
			return 0.0;
 8001938:	f04f 0300 	mov.w	r3, #0
 800193c:	e05e      	b.n	80019fc <FEB_Normalized_Acc_Pedals+0x22c>
		}
	}

	// Implausiblity check if both pedals are stepped
	if (normalized_brake > 0.2 && normalized_acc > 0.1) {
 800193e:	4b44      	ldr	r3, [pc, #272]	@ (8001a50 <FEB_Normalized_Acc_Pedals+0x280>)
 8001940:	681b      	ldr	r3, [r3, #0]
 8001942:	4618      	mov	r0, r3
 8001944:	f7fe fe20 	bl	8000588 <__aeabi_f2d>
 8001948:	a335      	add	r3, pc, #212	@ (adr r3, 8001a20 <FEB_Normalized_Acc_Pedals+0x250>)
 800194a:	e9d3 2300 	ldrd	r2, r3, [r3]
 800194e:	f7ff f903 	bl	8000b58 <__aeabi_dcmpgt>
 8001952:	4603      	mov	r3, r0
 8001954:	2b00      	cmp	r3, #0
 8001956:	d00f      	beq.n	8001978 <FEB_Normalized_Acc_Pedals+0x1a8>
 8001958:	4b3e      	ldr	r3, [pc, #248]	@ (8001a54 <FEB_Normalized_Acc_Pedals+0x284>)
 800195a:	681b      	ldr	r3, [r3, #0]
 800195c:	4618      	mov	r0, r3
 800195e:	f7fe fe13 	bl	8000588 <__aeabi_f2d>
 8001962:	a331      	add	r3, pc, #196	@ (adr r3, 8001a28 <FEB_Normalized_Acc_Pedals+0x258>)
 8001964:	e9d3 2300 	ldrd	r2, r3, [r3]
 8001968:	f7ff f8f6 	bl	8000b58 <__aeabi_dcmpgt>
 800196c:	4603      	mov	r3, r0
 800196e:	2b00      	cmp	r3, #0
 8001970:	d002      	beq.n	8001978 <FEB_Normalized_Acc_Pedals+0x1a8>
		isImpl = true;
 8001972:	4b32      	ldr	r3, [pc, #200]	@ (8001a3c <FEB_Normalized_Acc_Pedals+0x26c>)
 8001974:	2201      	movs	r2, #1
 8001976:	701a      	strb	r2, [r3, #0]
	}

	// recover from implausibility if acc pedal is not 5% less
	if (final_normalized < 0.05 && isImpl) {
 8001978:	f8d7 008c 	ldr.w	r0, [r7, #140]	@ 0x8c
 800197c:	f7fe fe04 	bl	8000588 <__aeabi_f2d>
 8001980:	a32b      	add	r3, pc, #172	@ (adr r3, 8001a30 <FEB_Normalized_Acc_Pedals+0x260>)
 8001982:	e9d3 2300 	ldrd	r2, r3, [r3]
 8001986:	f7ff f8c9 	bl	8000b1c <__aeabi_dcmplt>
 800198a:	4603      	mov	r3, r0
 800198c:	2b00      	cmp	r3, #0
 800198e:	d006      	beq.n	800199e <FEB_Normalized_Acc_Pedals+0x1ce>
 8001990:	4b2a      	ldr	r3, [pc, #168]	@ (8001a3c <FEB_Normalized_Acc_Pedals+0x26c>)
 8001992:	781b      	ldrb	r3, [r3, #0]
 8001994:	2b00      	cmp	r3, #0
 8001996:	d002      	beq.n	800199e <FEB_Normalized_Acc_Pedals+0x1ce>
		isImpl = false;
 8001998:	4b28      	ldr	r3, [pc, #160]	@ (8001a3c <FEB_Normalized_Acc_Pedals+0x26c>)
 800199a:	2200      	movs	r2, #0
 800199c:	701a      	strb	r2, [r3, #0]
	}


	if (!isImpl) {
 800199e:	4b27      	ldr	r3, [pc, #156]	@ (8001a3c <FEB_Normalized_Acc_Pedals+0x26c>)
 80019a0:	781b      	ldrb	r3, [r3, #0]
 80019a2:	f083 0301 	eor.w	r3, r3, #1
 80019a6:	b2db      	uxtb	r3, r3
 80019a8:	2b00      	cmp	r3, #0
 80019aa:	d025      	beq.n	80019f8 <FEB_Normalized_Acc_Pedals+0x228>
		final_normalized = final_normalized > 1 ? 1 : final_normalized;
 80019ac:	edd7 7a23 	vldr	s15, [r7, #140]	@ 0x8c
 80019b0:	eeb7 7a00 	vmov.f32	s14, #112	@ 0x3f800000  1.0
 80019b4:	eef4 7ac7 	vcmpe.f32	s15, s14
 80019b8:	eef1 fa10 	vmrs	APSR_nzcv, fpscr
 80019bc:	dd02      	ble.n	80019c4 <FEB_Normalized_Acc_Pedals+0x1f4>
 80019be:	f04f 537e 	mov.w	r3, #1065353216	@ 0x3f800000
 80019c2:	e001      	b.n	80019c8 <FEB_Normalized_Acc_Pedals+0x1f8>
 80019c4:	f8d7 308c 	ldr.w	r3, [r7, #140]	@ 0x8c
 80019c8:	f8c7 308c 	str.w	r3, [r7, #140]	@ 0x8c
		final_normalized = final_normalized < 0.05 ? 0 : final_normalized;
 80019cc:	f8d7 008c 	ldr.w	r0, [r7, #140]	@ 0x8c
 80019d0:	f7fe fdda 	bl	8000588 <__aeabi_f2d>
 80019d4:	a316      	add	r3, pc, #88	@ (adr r3, 8001a30 <FEB_Normalized_Acc_Pedals+0x260>)
 80019d6:	e9d3 2300 	ldrd	r2, r3, [r3]
 80019da:	f7ff f89f 	bl	8000b1c <__aeabi_dcmplt>
 80019de:	4603      	mov	r3, r0
 80019e0:	2b00      	cmp	r3, #0
 80019e2:	d002      	beq.n	80019ea <FEB_Normalized_Acc_Pedals+0x21a>
 80019e4:	f04f 0300 	mov.w	r3, #0
 80019e8:	e001      	b.n	80019ee <FEB_Normalized_Acc_Pedals+0x21e>
 80019ea:	f8d7 308c 	ldr.w	r3, [r7, #140]	@ 0x8c
 80019ee:	f8c7 308c 	str.w	r3, [r7, #140]	@ 0x8c
		return final_normalized;
 80019f2:	f8d7 308c 	ldr.w	r3, [r7, #140]	@ 0x8c
 80019f6:	e001      	b.n	80019fc <FEB_Normalized_Acc_Pedals+0x22c>


	} else {
		return 0.0;
 80019f8:	f04f 0300 	mov.w	r3, #0
	}
}
 80019fc:	ee07 3a90 	vmov	s15, r3
 8001a00:	eeb0 0a67 	vmov.f32	s0, s15
 8001a04:	37a0      	adds	r7, #160	@ 0xa0
 8001a06:	46bd      	mov	sp, r7
 8001a08:	bd80      	pop	{r7, pc}
 8001a0a:	bf00      	nop
 8001a0c:	f3af 8000 	nop.w
 8001a10:	00000000 	.word	0x00000000
 8001a14:	4097b400 	.word	0x4097b400
 8001a18:	00000000 	.word	0x00000000
 8001a1c:	c064a000 	.word	0xc064a000
 8001a20:	9999999a 	.word	0x9999999a
 8001a24:	3fc99999 	.word	0x3fc99999
 8001a28:	9999999a 	.word	0x9999999a
 8001a2c:	3fb99999 	.word	0x3fb99999
 8001a30:	9999999a 	.word	0x9999999a
 8001a34:	3fa99999 	.word	0x3fa99999
 8001a38:	08008884 	.word	0x08008884
 8001a3c:	2000020c 	.word	0x2000020c
 8001a40:	4089a000 	.word	0x4089a000
 8001a44:	408ed000 	.word	0x408ed000
 8001a48:	3dcccccd 	.word	0x3dcccccd
 8001a4c:	447a0000 	.word	0x447a0000
 8001a50:	20000208 	.word	0x20000208
 8001a54:	20000204 	.word	0x20000204

08001a58 <FEB_Normalized_getBrake>:

float FEB_Normalized_getBrake() {
 8001a58:	b480      	push	{r7}
 8001a5a:	af00      	add	r7, sp, #0
	return normalized_brake;
 8001a5c:	4b04      	ldr	r3, [pc, #16]	@ (8001a70 <FEB_Normalized_getBrake+0x18>)
 8001a5e:	681b      	ldr	r3, [r3, #0]
 8001a60:	ee07 3a90 	vmov	s15, r3
}
 8001a64:	eeb0 0a67 	vmov.f32	s0, s15
 8001a68:	46bd      	mov	sp, r7
 8001a6a:	f85d 7b04 	ldr.w	r7, [sp], #4
 8001a6e:	4770      	bx	lr
 8001a70:	20000208 	.word	0x20000208

08001a74 <FEB_Normalized_update_Brake>:

void FEB_Normalized_update_Brake() {
 8001a74:	b580      	push	{r7, lr}
 8001a76:	af00      	add	r7, sp, #0
	normalized_brake = FEB_Normalized_Brake_Pedals();
 8001a78:	f000 f80a 	bl	8001a90 <FEB_Normalized_Brake_Pedals>
 8001a7c:	eef0 7a40 	vmov.f32	s15, s0
 8001a80:	4b02      	ldr	r3, [pc, #8]	@ (8001a8c <FEB_Normalized_update_Brake+0x18>)
 8001a82:	edc3 7a00 	vstr	s15, [r3]
}
 8001a86:	bf00      	nop
 8001a88:	bd80      	pop	{r7, pc}
 8001a8a:	bf00      	nop
 8001a8c:	20000208 	.word	0x20000208

08001a90 <FEB_Normalized_Brake_Pedals>:

float FEB_Normalized_Brake_Pedals() {
 8001a90:	b580      	push	{r7, lr}
 8001a92:	b0a4      	sub	sp, #144	@ 0x90
 8001a94:	af00      	add	r7, sp, #0
	//TODO: This might need to change based on which sensor ends up getting used.
	uint16_t brake_pres_2 =  FEB_Read_ADC(BRAKE_PRESS_2);   //HAL_ADCEx_InjectedGetValue(&hadc1, ADC_INJECTED_RANK_1);
 8001a96:	200c      	movs	r0, #12
 8001a98:	f7ff fe36 	bl	8001708 <FEB_Read_ADC>
 8001a9c:	4603      	mov	r3, r0
 8001a9e:	f8a7 308e 	strh.w	r3, [r7, #142]	@ 0x8e

//	HAL_UART_Transmit(&huart2,(uint8_t *)buf, buf_len, HAL_MAX_DELAY);

	float final_normalized = (brake_pres_2 - PRESSURE_START)/ (PRESSURE_END - PRESSURE_START);
 8001aa2:	f8b7 308e 	ldrh.w	r3, [r7, #142]	@ 0x8e
 8001aa6:	4618      	mov	r0, r3
 8001aa8:	f7fe fd5c 	bl	8000564 <__aeabi_i2d>
 8001aac:	a335      	add	r3, pc, #212	@ (adr r3, 8001b84 <FEB_Normalized_Brake_Pedals+0xf4>)
 8001aae:	e9d3 2300 	ldrd	r2, r3, [r3]
 8001ab2:	f7fe fc09 	bl	80002c8 <__aeabi_dsub>
 8001ab6:	4602      	mov	r2, r0
 8001ab8:	460b      	mov	r3, r1
 8001aba:	4610      	mov	r0, r2
 8001abc:	4619      	mov	r1, r3
 8001abe:	f04f 0200 	mov.w	r2, #0
 8001ac2:	4b2d      	ldr	r3, [pc, #180]	@ (8001b78 <FEB_Normalized_Brake_Pedals+0xe8>)
 8001ac4:	f7fe fee2 	bl	800088c <__aeabi_ddiv>
 8001ac8:	4602      	mov	r2, r0
 8001aca:	460b      	mov	r3, r1
 8001acc:	4610      	mov	r0, r2
 8001ace:	4619      	mov	r1, r3
 8001ad0:	f7ff f88a 	bl	8000be8 <__aeabi_d2f>
 8001ad4:	4603      	mov	r3, r0
 8001ad6:	f8c7 3088 	str.w	r3, [r7, #136]	@ 0x88
	final_normalized = final_normalized > 1 ? 1 : final_normalized;
 8001ada:	edd7 7a22 	vldr	s15, [r7, #136]	@ 0x88
 8001ade:	eeb7 7a00 	vmov.f32	s14, #112	@ 0x3f800000  1.0
 8001ae2:	eef4 7ac7 	vcmpe.f32	s15, s14
 8001ae6:	eef1 fa10 	vmrs	APSR_nzcv, fpscr
 8001aea:	dd02      	ble.n	8001af2 <FEB_Normalized_Brake_Pedals+0x62>
 8001aec:	f04f 537e 	mov.w	r3, #1065353216	@ 0x3f800000
 8001af0:	e001      	b.n	8001af6 <FEB_Normalized_Brake_Pedals+0x66>
 8001af2:	f8d7 3088 	ldr.w	r3, [r7, #136]	@ 0x88
 8001af6:	f8c7 3088 	str.w	r3, [r7, #136]	@ 0x88
	final_normalized = final_normalized < 0.05 ? 0 : final_normalized;
 8001afa:	f8d7 0088 	ldr.w	r0, [r7, #136]	@ 0x88
 8001afe:	f7fe fd43 	bl	8000588 <__aeabi_f2d>
 8001b02:	a31b      	add	r3, pc, #108	@ (adr r3, 8001b70 <FEB_Normalized_Brake_Pedals+0xe0>)
 8001b04:	e9d3 2300 	ldrd	r2, r3, [r3]
 8001b08:	f7ff f808 	bl	8000b1c <__aeabi_dcmplt>
 8001b0c:	4603      	mov	r3, r0
 8001b0e:	2b00      	cmp	r3, #0
 8001b10:	d002      	beq.n	8001b18 <FEB_Normalized_Brake_Pedals+0x88>
 8001b12:	f04f 0300 	mov.w	r3, #0
 8001b16:	e001      	b.n	8001b1c <FEB_Normalized_Brake_Pedals+0x8c>
 8001b18:	f8d7 3088 	ldr.w	r3, [r7, #136]	@ 0x88
 8001b1c:	f8c7 3088 	str.w	r3, [r7, #136]	@ 0x88


	if (brake_pres_2 < PRESSURE_START - 20) {
 8001b20:	f8b7 308e 	ldrh.w	r3, [r7, #142]	@ 0x8e
 8001b24:	2ba8      	cmp	r3, #168	@ 0xa8
 8001b26:	d802      	bhi.n	8001b2e <FEB_Normalized_Brake_Pedals+0x9e>
		return 0.0;
 8001b28:	f04f 0300 	mov.w	r3, #0
 8001b2c:	e017      	b.n	8001b5e <FEB_Normalized_Brake_Pedals+0xce>
	}

	char buf[128];
	uint8_t buf_len;
	buf_len = sprintf(buf, "brake_Pos: %f\n", final_normalized);
 8001b2e:	f8d7 0088 	ldr.w	r0, [r7, #136]	@ 0x88
 8001b32:	f7fe fd29 	bl	8000588 <__aeabi_f2d>
 8001b36:	4602      	mov	r2, r0
 8001b38:	460b      	mov	r3, r1
 8001b3a:	1d38      	adds	r0, r7, #4
 8001b3c:	490f      	ldr	r1, [pc, #60]	@ (8001b7c <FEB_Normalized_Brake_Pedals+0xec>)
 8001b3e:	f004 fcd7 	bl	80064f0 <siprintf>
 8001b42:	4603      	mov	r3, r0
 8001b44:	f887 3087 	strb.w	r3, [r7, #135]	@ 0x87

	HAL_UART_Transmit(&huart2,(uint8_t *)buf, buf_len, HAL_MAX_DELAY);
 8001b48:	f897 3087 	ldrb.w	r3, [r7, #135]	@ 0x87
 8001b4c:	b29a      	uxth	r2, r3
 8001b4e:	1d39      	adds	r1, r7, #4
 8001b50:	f04f 33ff 	mov.w	r3, #4294967295	@ 0xffffffff
 8001b54:	480a      	ldr	r0, [pc, #40]	@ (8001b80 <FEB_Normalized_Brake_Pedals+0xf0>)
 8001b56:	f003 fbed 	bl	8005334 <HAL_UART_Transmit>

	return final_normalized;
 8001b5a:	f8d7 3088 	ldr.w	r3, [r7, #136]	@ 0x88
}
 8001b5e:	ee07 3a90 	vmov	s15, r3
 8001b62:	eeb0 0a67 	vmov.f32	s0, s15
 8001b66:	3790      	adds	r7, #144	@ 0x90
 8001b68:	46bd      	mov	sp, r7
 8001b6a:	bd80      	pop	{r7, pc}
 8001b6c:	f3af 8000 	nop.w
 8001b70:	9999999a 	.word	0x9999999a
 8001b74:	3fa99999 	.word	0x3fa99999
 8001b78:	408a2000 	.word	0x408a2000
 8001b7c:	08008898 	.word	0x08008898
 8001b80:	20000320 	.word	0x20000320
 8001b84:	00000000 	.word	0x00000000
 8001b88:	4067a000 	.word	0x4067a000

08001b8c <FEB_Normalized_CAN_sendBrake>:

void FEB_Normalized_CAN_sendBrake() {
 8001b8c:	b580      	push	{r7, lr}
 8001b8e:	b0a4      	sub	sp, #144	@ 0x90
 8001b90:	af00      	add	r7, sp, #0
	// Initialize transmission header
	FEB_CAN_Tx_Header.DLC = 2;
 8001b92:	4b2a      	ldr	r3, [pc, #168]	@ (8001c3c <FEB_Normalized_CAN_sendBrake+0xb0>)
 8001b94:	2202      	movs	r2, #2
 8001b96:	611a      	str	r2, [r3, #16]
	FEB_CAN_Tx_Header.StdId = FEB_CAN_NORMALIZED_BRAKE_FRAME_ID;
 8001b98:	4b28      	ldr	r3, [pc, #160]	@ (8001c3c <FEB_Normalized_CAN_sendBrake+0xb0>)
 8001b9a:	2204      	movs	r2, #4
 8001b9c:	601a      	str	r2, [r3, #0]
	FEB_CAN_Tx_Header.IDE = CAN_ID_STD;
 8001b9e:	4b27      	ldr	r3, [pc, #156]	@ (8001c3c <FEB_Normalized_CAN_sendBrake+0xb0>)
 8001ba0:	2200      	movs	r2, #0
 8001ba2:	609a      	str	r2, [r3, #8]
	FEB_CAN_Tx_Header.RTR = CAN_RTR_DATA;
 8001ba4:	4b25      	ldr	r3, [pc, #148]	@ (8001c3c <FEB_Normalized_CAN_sendBrake+0xb0>)
 8001ba6:	2200      	movs	r2, #0
 8001ba8:	60da      	str	r2, [r3, #12]
	FEB_CAN_Tx_Header.TransmitGlobalTime = DISABLE;
 8001baa:	4b24      	ldr	r3, [pc, #144]	@ (8001c3c <FEB_Normalized_CAN_sendBrake+0xb0>)
 8001bac:	2200      	movs	r2, #0
 8001bae:	751a      	strb	r2, [r3, #20]

	// Copy data to Tx buffer. This might be incorrect. It's possible you have to do some bit shifting
//	memcpy(FEB_CAN_Tx_Data, &normalized_brake, sizeof(float));
	FEB_Normalized_update_Brake();
 8001bb0:	f7ff ff60 	bl	8001a74 <FEB_Normalized_update_Brake>
	memcpy(FEB_CAN_Tx_Data, &normalized_brake, sizeof(float)); // maybe?
 8001bb4:	4b22      	ldr	r3, [pc, #136]	@ (8001c40 <FEB_Normalized_CAN_sendBrake+0xb4>)
 8001bb6:	681b      	ldr	r3, [r3, #0]
 8001bb8:	4a22      	ldr	r2, [pc, #136]	@ (8001c44 <FEB_Normalized_CAN_sendBrake+0xb8>)
 8001bba:	6013      	str	r3, [r2, #0]
	uint8_t converted_brake_val = (uint8_t)(normalized_brake * 100);
 8001bbc:	4b20      	ldr	r3, [pc, #128]	@ (8001c40 <FEB_Normalized_CAN_sendBrake+0xb4>)
 8001bbe:	edd3 7a00 	vldr	s15, [r3]
 8001bc2:	ed9f 7a21 	vldr	s14, [pc, #132]	@ 8001c48 <FEB_Normalized_CAN_sendBrake+0xbc>
 8001bc6:	ee67 7a87 	vmul.f32	s15, s15, s14
 8001bca:	eefc 7ae7 	vcvt.u32.f32	s15, s15
 8001bce:	edc7 7a01 	vstr	s15, [r7, #4]
 8001bd2:	793b      	ldrb	r3, [r7, #4]
 8001bd4:	f887 308f 	strb.w	r3, [r7, #143]	@ 0x8f

	FEB_CAN_Tx_Data[0] = converted_brake_val;
 8001bd8:	4a1a      	ldr	r2, [pc, #104]	@ (8001c44 <FEB_Normalized_CAN_sendBrake+0xb8>)
 8001bda:	f897 308f 	ldrb.w	r3, [r7, #143]	@ 0x8f
 8001bde:	7013      	strb	r3, [r2, #0]

	//Debug to see the position of the Brake position sensor


	// Delay until mailbox available
	while (HAL_CAN_GetTxMailboxesFreeLevel(&hcan1) == 0) {}
 8001be0:	bf00      	nop
 8001be2:	481a      	ldr	r0, [pc, #104]	@ (8001c4c <FEB_Normalized_CAN_sendBrake+0xc0>)
 8001be4:	f001 fd6e 	bl	80036c4 <HAL_CAN_GetTxMailboxesFreeLevel>
 8001be8:	4603      	mov	r3, r0
 8001bea:	2b00      	cmp	r3, #0
 8001bec:	d0f9      	beq.n	8001be2 <FEB_Normalized_CAN_sendBrake+0x56>
//
	// Add Tx data to mailbox
	if (HAL_CAN_AddTxMessage(&hcan1, &FEB_CAN_Tx_Header, FEB_CAN_Tx_Data, &FEB_CAN_Tx_Mailbox) != HAL_OK) {
 8001bee:	4b18      	ldr	r3, [pc, #96]	@ (8001c50 <FEB_Normalized_CAN_sendBrake+0xc4>)
 8001bf0:	4a14      	ldr	r2, [pc, #80]	@ (8001c44 <FEB_Normalized_CAN_sendBrake+0xb8>)
 8001bf2:	4912      	ldr	r1, [pc, #72]	@ (8001c3c <FEB_Normalized_CAN_sendBrake+0xb0>)
 8001bf4:	4815      	ldr	r0, [pc, #84]	@ (8001c4c <FEB_Normalized_CAN_sendBrake+0xc0>)
 8001bf6:	f001 fc95 	bl	8003524 <HAL_CAN_AddTxMessage>
 8001bfa:	4603      	mov	r3, r0
 8001bfc:	2b00      	cmp	r3, #0
 8001bfe:	d018      	beq.n	8001c32 <FEB_Normalized_CAN_sendBrake+0xa6>
		//error - shutdown
		char buf[128];
		uint8_t buf_len;
		buf_len = sprintf(buf, "CAN MESSAGE FAIL TO SEND: %f\n", normalized_brake);
 8001c00:	4b0f      	ldr	r3, [pc, #60]	@ (8001c40 <FEB_Normalized_CAN_sendBrake+0xb4>)
 8001c02:	681b      	ldr	r3, [r3, #0]
 8001c04:	4618      	mov	r0, r3
 8001c06:	f7fe fcbf 	bl	8000588 <__aeabi_f2d>
 8001c0a:	4602      	mov	r2, r0
 8001c0c:	460b      	mov	r3, r1
 8001c0e:	f107 000c 	add.w	r0, r7, #12
 8001c12:	4910      	ldr	r1, [pc, #64]	@ (8001c54 <FEB_Normalized_CAN_sendBrake+0xc8>)
 8001c14:	f004 fc6c 	bl	80064f0 <siprintf>
 8001c18:	4603      	mov	r3, r0
 8001c1a:	f887 308e 	strb.w	r3, [r7, #142]	@ 0x8e
		HAL_UART_Transmit(&huart2,(uint8_t *)buf, buf_len, HAL_MAX_DELAY);
 8001c1e:	f897 308e 	ldrb.w	r3, [r7, #142]	@ 0x8e
 8001c22:	b29a      	uxth	r2, r3
 8001c24:	f107 010c 	add.w	r1, r7, #12
 8001c28:	f04f 33ff 	mov.w	r3, #4294967295	@ 0xffffffff
 8001c2c:	480a      	ldr	r0, [pc, #40]	@ (8001c58 <FEB_Normalized_CAN_sendBrake+0xcc>)
 8001c2e:	f003 fb81 	bl	8005334 <HAL_UART_Transmit>
	}

}
 8001c32:	bf00      	nop
 8001c34:	3790      	adds	r7, #144	@ 0x90
 8001c36:	46bd      	mov	sp, r7
 8001c38:	bd80      	pop	{r7, pc}
 8001c3a:	bf00      	nop
 8001c3c:	20000210 	.word	0x20000210
 8001c40:	20000208 	.word	0x20000208
 8001c44:	20000244 	.word	0x20000244
 8001c48:	42c80000 	.word	0x42c80000
 8001c4c:	200002a4 	.word	0x200002a4
 8001c50:	20000254 	.word	0x20000254
 8001c54:	080088a8 	.word	0x080088a8
 8001c58:	20000320 	.word	0x20000320

08001c5c <FEB_CAN_Init>:
uint32_t FEB_CAN_Tx_Mailbox;
uint8_t setup = 0;

// **************************************** Functions ****************************************

void FEB_CAN_Init(void) {
 8001c5c:	b580      	push	{r7, lr}
 8001c5e:	af00      	add	r7, sp, #0
	FEB_CAN_Filter_Config();
 8001c60:	f000 f814 	bl	8001c8c <FEB_CAN_Filter_Config>
	if (HAL_CAN_Start(&hcan1) != HAL_OK) {
 8001c64:	4807      	ldr	r0, [pc, #28]	@ (8001c84 <FEB_CAN_Init+0x28>)
 8001c66:	f001 fc19 	bl	800349c <HAL_CAN_Start>
 8001c6a:	4603      	mov	r3, r0
 8001c6c:	2b00      	cmp	r3, #0
 8001c6e:	d002      	beq.n	8001c76 <FEB_CAN_Init+0x1a>
		setup = 1;
 8001c70:	4b05      	ldr	r3, [pc, #20]	@ (8001c88 <FEB_CAN_Init+0x2c>)
 8001c72:	2201      	movs	r2, #1
 8001c74:	701a      	strb	r2, [r3, #0]
        // Code Error - Shutdown
	}
	HAL_CAN_ActivateNotification(&hcan1, CAN_IT_RX_FIFO0_MSG_PENDING);
 8001c76:	2102      	movs	r1, #2
 8001c78:	4802      	ldr	r0, [pc, #8]	@ (8001c84 <FEB_CAN_Init+0x28>)
 8001c7a:	f001 fe7a 	bl	8003972 <HAL_CAN_ActivateNotification>
}
 8001c7e:	bf00      	nop
 8001c80:	bd80      	pop	{r7, pc}
 8001c82:	bf00      	nop
 8001c84:	200002a4 	.word	0x200002a4
 8001c88:	20000258 	.word	0x20000258

08001c8c <FEB_CAN_Filter_Config>:

void FEB_CAN_Filter_Config(void) {
 8001c8c:	b580      	push	{r7, lr}
 8001c8e:	b082      	sub	sp, #8
 8001c90:	af00      	add	r7, sp, #0
	uint8_t filter_bank = 0;
 8001c92:	2300      	movs	r3, #0
 8001c94:	71fb      	strb	r3, [r7, #7]
    filter_bank = FEB_CAN_ICS_Filter(&hcan1, CAN_RX_FIFO0, filter_bank);
 8001c96:	79fb      	ldrb	r3, [r7, #7]
 8001c98:	461a      	mov	r2, r3
 8001c9a:	2100      	movs	r1, #0
 8001c9c:	480c      	ldr	r0, [pc, #48]	@ (8001cd0 <FEB_CAN_Filter_Config+0x44>)
 8001c9e:	f7ff f9e3 	bl	8001068 <FEB_CAN_ICS_Filter>
 8001ca2:	4603      	mov	r3, r0
 8001ca4:	71fb      	strb	r3, [r7, #7]
    filter_bank = FEB_CAN_BMS_Filter_Config(&hcan1, CAN_RX_FIFO0,  filter_bank);
 8001ca6:	79fb      	ldrb	r3, [r7, #7]
 8001ca8:	461a      	mov	r2, r3
 8001caa:	2100      	movs	r1, #0
 8001cac:	4808      	ldr	r0, [pc, #32]	@ (8001cd0 <FEB_CAN_Filter_Config+0x44>)
 8001cae:	f7ff f963 	bl	8000f78 <FEB_CAN_BMS_Filter_Config>
 8001cb2:	4603      	mov	r3, r0
 8001cb4:	71fb      	strb	r3, [r7, #7]
    filter_bank = FEB_CAN_RMS_Filter_Config(&hcan1, CAN_RX_FIFO0, filter_bank);
 8001cb6:	79fb      	ldrb	r3, [r7, #7]
 8001cb8:	461a      	mov	r2, r3
 8001cba:	2100      	movs	r1, #0
 8001cbc:	4804      	ldr	r0, [pc, #16]	@ (8001cd0 <FEB_CAN_Filter_Config+0x44>)
 8001cbe:	f7ff fc03 	bl	80014c8 <FEB_CAN_RMS_Filter_Config>
 8001cc2:	4603      	mov	r3, r0
 8001cc4:	71fb      	strb	r3, [r7, #7]

	// Assign Filter
    // filter_bank = Function(&hcan1, CAN_RX_FIFO0, filter_bank);
}
 8001cc6:	bf00      	nop
 8001cc8:	3708      	adds	r7, #8
 8001cca:	46bd      	mov	sp, r7
 8001ccc:	bd80      	pop	{r7, pc}
 8001cce:	bf00      	nop
 8001cd0:	200002a4 	.word	0x200002a4

08001cd4 <HAL_CAN_RxFifo0MsgPendingCallback>:

void HAL_CAN_RxFifo0MsgPendingCallback(CAN_HandleTypeDef* hcan) {
 8001cd4:	b580      	push	{r7, lr}
 8001cd6:	b082      	sub	sp, #8
 8001cd8:	af00      	add	r7, sp, #0
 8001cda:	6078      	str	r0, [r7, #4]
	if (HAL_CAN_GetRxMessage(hcan, CAN_RX_FIFO0, &FEB_CAN_Rx_Header, FEB_CAN_Rx_Data) == HAL_OK) {
 8001cdc:	4b0c      	ldr	r3, [pc, #48]	@ (8001d10 <HAL_CAN_RxFifo0MsgPendingCallback+0x3c>)
 8001cde:	4a0d      	ldr	r2, [pc, #52]	@ (8001d14 <HAL_CAN_RxFifo0MsgPendingCallback+0x40>)
 8001ce0:	2100      	movs	r1, #0
 8001ce2:	6878      	ldr	r0, [r7, #4]
 8001ce4:	f001 fd23 	bl	800372e <HAL_CAN_GetRxMessage>
 8001ce8:	4603      	mov	r3, r0
 8001cea:	2b00      	cmp	r3, #0
 8001cec:	d10b      	bne.n	8001d06 <HAL_CAN_RxFifo0MsgPendingCallback+0x32>
		FEB_CAN_ICS_Store_Msg(&FEB_CAN_Rx_Header, FEB_CAN_Rx_Data);
 8001cee:	4908      	ldr	r1, [pc, #32]	@ (8001d10 <HAL_CAN_RxFifo0MsgPendingCallback+0x3c>)
 8001cf0:	4808      	ldr	r0, [pc, #32]	@ (8001d14 <HAL_CAN_RxFifo0MsgPendingCallback+0x40>)
 8001cf2:	f7ff f9fb 	bl	80010ec <FEB_CAN_ICS_Store_Msg>
		FEB_CAN_BMS_Store_Msg(&FEB_CAN_Rx_Header, FEB_CAN_Rx_Data);
 8001cf6:	4906      	ldr	r1, [pc, #24]	@ (8001d10 <HAL_CAN_RxFifo0MsgPendingCallback+0x3c>)
 8001cf8:	4806      	ldr	r0, [pc, #24]	@ (8001d14 <HAL_CAN_RxFifo0MsgPendingCallback+0x40>)
 8001cfa:	f7ff f981 	bl	8001000 <FEB_CAN_BMS_Store_Msg>
		FEB_CAN_RMS_Store_Msg(&FEB_CAN_Rx_Header, FEB_CAN_Rx_Data);
 8001cfe:	4904      	ldr	r1, [pc, #16]	@ (8001d10 <HAL_CAN_RxFifo0MsgPendingCallback+0x3c>)
 8001d00:	4804      	ldr	r0, [pc, #16]	@ (8001d14 <HAL_CAN_RxFifo0MsgPendingCallback+0x40>)
 8001d02:	f7ff fc25 	bl	8001550 <FEB_CAN_RMS_Store_Msg>

	}
}
 8001d06:	bf00      	nop
 8001d08:	3708      	adds	r7, #8
 8001d0a:	46bd      	mov	sp, r7
 8001d0c:	bd80      	pop	{r7, pc}
 8001d0e:	bf00      	nop
 8001d10:	2000024c 	.word	0x2000024c
 8001d14:	20000228 	.word	0x20000228

08001d18 <main>:
/**
  * @brief  The application entry point.
  * @retval int
  */
int main(void)
{
 8001d18:	b580      	push	{r7, lr}
 8001d1a:	af00      	add	r7, sp, #0
  /* USER CODE END 1 */

  /* MCU Configuration--------------------------------------------------------*/

  /* Reset of all peripherals, Initializes the Flash interface and the Systick. */
  HAL_Init();
 8001d1c:	f000 fca6 	bl	800266c <HAL_Init>
  /* USER CODE BEGIN Init */

  /* USER CODE END Init */

  /* Configure the system clock */
  SystemClock_Config();
 8001d20:	f000 f810 	bl	8001d44 <SystemClock_Config>
  /* USER CODE BEGIN SysInit */

  /* USER CODE END SysInit */

  /* Initialize all configured peripherals */
  MX_GPIO_Init();
 8001d24:	f000 f960 	bl	8001fe8 <MX_GPIO_Init>
  MX_USART2_UART_Init();
 8001d28:	f000 f934 	bl	8001f94 <MX_USART2_UART_Init>
  MX_CAN1_Init();
 8001d2c:	f000 f8ce 	bl	8001ecc <MX_CAN1_Init>
  MX_I2C1_Init();
 8001d30:	f000 f902 	bl	8001f38 <MX_I2C1_Init>
  MX_ADC1_Init();
 8001d34:	f000 f878 	bl	8001e28 <MX_ADC1_Init>
  /* USER CODE BEGIN 2 */
  FEB_Main_Setup();
 8001d38:	f7ff fcb2 	bl	80016a0 <FEB_Main_Setup>
  {
    /* USER CODE END WHILE */

    /* USER CODE BEGIN 3 */

	  FEB_Main_While();
 8001d3c:	f7ff fcbe 	bl	80016bc <FEB_Main_While>
 8001d40:	e7fc      	b.n	8001d3c <main+0x24>
	...

08001d44 <SystemClock_Config>:
/**
  * @brief System Clock Configuration
  * @retval None
  */
void SystemClock_Config(void)
{
 8001d44:	b580      	push	{r7, lr}
 8001d46:	b094      	sub	sp, #80	@ 0x50
 8001d48:	af00      	add	r7, sp, #0
  RCC_OscInitTypeDef RCC_OscInitStruct = {0};
 8001d4a:	f107 031c 	add.w	r3, r7, #28
 8001d4e:	2234      	movs	r2, #52	@ 0x34
 8001d50:	2100      	movs	r1, #0
 8001d52:	4618      	mov	r0, r3
 8001d54:	f004 fcae 	bl	80066b4 <memset>
  RCC_ClkInitTypeDef RCC_ClkInitStruct = {0};
 8001d58:	f107 0308 	add.w	r3, r7, #8
 8001d5c:	2200      	movs	r2, #0
 8001d5e:	601a      	str	r2, [r3, #0]
 8001d60:	605a      	str	r2, [r3, #4]
 8001d62:	609a      	str	r2, [r3, #8]
 8001d64:	60da      	str	r2, [r3, #12]
 8001d66:	611a      	str	r2, [r3, #16]

  /** Configure the main internal regulator output voltage
  */
  __HAL_RCC_PWR_CLK_ENABLE();
 8001d68:	2300      	movs	r3, #0
 8001d6a:	607b      	str	r3, [r7, #4]
 8001d6c:	4b2c      	ldr	r3, [pc, #176]	@ (8001e20 <SystemClock_Config+0xdc>)
 8001d6e:	6c1b      	ldr	r3, [r3, #64]	@ 0x40
 8001d70:	4a2b      	ldr	r2, [pc, #172]	@ (8001e20 <SystemClock_Config+0xdc>)
 8001d72:	f043 5380 	orr.w	r3, r3, #268435456	@ 0x10000000
 8001d76:	6413      	str	r3, [r2, #64]	@ 0x40
 8001d78:	4b29      	ldr	r3, [pc, #164]	@ (8001e20 <SystemClock_Config+0xdc>)
 8001d7a:	6c1b      	ldr	r3, [r3, #64]	@ 0x40
 8001d7c:	f003 5380 	and.w	r3, r3, #268435456	@ 0x10000000
 8001d80:	607b      	str	r3, [r7, #4]
 8001d82:	687b      	ldr	r3, [r7, #4]
  __HAL_PWR_VOLTAGESCALING_CONFIG(PWR_REGULATOR_VOLTAGE_SCALE1);
 8001d84:	2300      	movs	r3, #0
 8001d86:	603b      	str	r3, [r7, #0]
 8001d88:	4b26      	ldr	r3, [pc, #152]	@ (8001e24 <SystemClock_Config+0xe0>)
 8001d8a:	681b      	ldr	r3, [r3, #0]
 8001d8c:	4a25      	ldr	r2, [pc, #148]	@ (8001e24 <SystemClock_Config+0xe0>)
 8001d8e:	f443 4340 	orr.w	r3, r3, #49152	@ 0xc000
 8001d92:	6013      	str	r3, [r2, #0]
 8001d94:	4b23      	ldr	r3, [pc, #140]	@ (8001e24 <SystemClock_Config+0xe0>)
 8001d96:	681b      	ldr	r3, [r3, #0]
 8001d98:	f403 4340 	and.w	r3, r3, #49152	@ 0xc000
 8001d9c:	603b      	str	r3, [r7, #0]
 8001d9e:	683b      	ldr	r3, [r7, #0]

  /** Initializes the RCC Oscillators according to the specified parameters
  * in the RCC_OscInitTypeDef structure.
  */
  RCC_OscInitStruct.OscillatorType = RCC_OSCILLATORTYPE_HSE;
 8001da0:	2301      	movs	r3, #1
 8001da2:	61fb      	str	r3, [r7, #28]
  RCC_OscInitStruct.HSEState = RCC_HSE_ON;
 8001da4:	f44f 3380 	mov.w	r3, #65536	@ 0x10000
 8001da8:	623b      	str	r3, [r7, #32]
  RCC_OscInitStruct.PLL.PLLState = RCC_PLL_ON;
 8001daa:	2302      	movs	r3, #2
 8001dac:	637b      	str	r3, [r7, #52]	@ 0x34
  RCC_OscInitStruct.PLL.PLLSource = RCC_PLLSOURCE_HSE;
 8001dae:	f44f 0380 	mov.w	r3, #4194304	@ 0x400000
 8001db2:	63bb      	str	r3, [r7, #56]	@ 0x38
  RCC_OscInitStruct.PLL.PLLM = 4;
 8001db4:	2304      	movs	r3, #4
 8001db6:	63fb      	str	r3, [r7, #60]	@ 0x3c
  RCC_OscInitStruct.PLL.PLLN = 180;
 8001db8:	23b4      	movs	r3, #180	@ 0xb4
 8001dba:	643b      	str	r3, [r7, #64]	@ 0x40
  RCC_OscInitStruct.PLL.PLLP = RCC_PLLP_DIV2;
 8001dbc:	2302      	movs	r3, #2
 8001dbe:	647b      	str	r3, [r7, #68]	@ 0x44
  RCC_OscInitStruct.PLL.PLLQ = 2;
 8001dc0:	2302      	movs	r3, #2
 8001dc2:	64bb      	str	r3, [r7, #72]	@ 0x48
  RCC_OscInitStruct.PLL.PLLR = 2;
 8001dc4:	2302      	movs	r3, #2
 8001dc6:	64fb      	str	r3, [r7, #76]	@ 0x4c
  if (HAL_RCC_OscConfig(&RCC_OscInitStruct) != HAL_OK)
 8001dc8:	f107 031c 	add.w	r3, r7, #28
 8001dcc:	4618      	mov	r0, r3
 8001dce:	f002 ffc3 	bl	8004d58 <HAL_RCC_OscConfig>
 8001dd2:	4603      	mov	r3, r0
 8001dd4:	2b00      	cmp	r3, #0
 8001dd6:	d001      	beq.n	8001ddc <SystemClock_Config+0x98>
  {
    Error_Handler();
 8001dd8:	f000 f98c 	bl	80020f4 <Error_Handler>
  }

  /** Activate the Over-Drive mode
  */
  if (HAL_PWREx_EnableOverDrive() != HAL_OK)
 8001ddc:	f002 fc22 	bl	8004624 <HAL_PWREx_EnableOverDrive>
 8001de0:	4603      	mov	r3, r0
 8001de2:	2b00      	cmp	r3, #0
 8001de4:	d001      	beq.n	8001dea <SystemClock_Config+0xa6>
  {
    Error_Handler();
 8001de6:	f000 f985 	bl	80020f4 <Error_Handler>
  }

  /** Initializes the CPU, AHB and APB buses clocks
  */
  RCC_ClkInitStruct.ClockType = RCC_CLOCKTYPE_HCLK|RCC_CLOCKTYPE_SYSCLK
 8001dea:	230f      	movs	r3, #15
 8001dec:	60bb      	str	r3, [r7, #8]
                              |RCC_CLOCKTYPE_PCLK1|RCC_CLOCKTYPE_PCLK2;
  RCC_ClkInitStruct.SYSCLKSource = RCC_SYSCLKSOURCE_PLLCLK;
 8001dee:	2302      	movs	r3, #2
 8001df0:	60fb      	str	r3, [r7, #12]
  RCC_ClkInitStruct.AHBCLKDivider = RCC_SYSCLK_DIV1;
 8001df2:	2300      	movs	r3, #0
 8001df4:	613b      	str	r3, [r7, #16]
  RCC_ClkInitStruct.APB1CLKDivider = RCC_HCLK_DIV4;
 8001df6:	f44f 53a0 	mov.w	r3, #5120	@ 0x1400
 8001dfa:	617b      	str	r3, [r7, #20]
  RCC_ClkInitStruct.APB2CLKDivider = RCC_HCLK_DIV2;
 8001dfc:	f44f 5380 	mov.w	r3, #4096	@ 0x1000
 8001e00:	61bb      	str	r3, [r7, #24]

  if (HAL_RCC_ClockConfig(&RCC_ClkInitStruct, FLASH_LATENCY_5) != HAL_OK)
 8001e02:	f107 0308 	add.w	r3, r7, #8
 8001e06:	2105      	movs	r1, #5
 8001e08:	4618      	mov	r0, r3
 8001e0a:	f002 fc5b 	bl	80046c4 <HAL_RCC_ClockConfig>
 8001e0e:	4603      	mov	r3, r0
 8001e10:	2b00      	cmp	r3, #0
 8001e12:	d001      	beq.n	8001e18 <SystemClock_Config+0xd4>
  {
    Error_Handler();
 8001e14:	f000 f96e 	bl	80020f4 <Error_Handler>
  }
}
 8001e18:	bf00      	nop
 8001e1a:	3750      	adds	r7, #80	@ 0x50
 8001e1c:	46bd      	mov	sp, r7
 8001e1e:	bd80      	pop	{r7, pc}
 8001e20:	40023800 	.word	0x40023800
 8001e24:	40007000 	.word	0x40007000

08001e28 <MX_ADC1_Init>:
  * @brief ADC1 Initialization Function
  * @param None
  * @retval None
  */
static void MX_ADC1_Init(void)
{
 8001e28:	b580      	push	{r7, lr}
 8001e2a:	b084      	sub	sp, #16
 8001e2c:	af00      	add	r7, sp, #0

  /* USER CODE BEGIN ADC1_Init 0 */

  /* USER CODE END ADC1_Init 0 */

  ADC_ChannelConfTypeDef sConfig = {0};
 8001e2e:	463b      	mov	r3, r7
 8001e30:	2200      	movs	r2, #0
 8001e32:	601a      	str	r2, [r3, #0]
 8001e34:	605a      	str	r2, [r3, #4]
 8001e36:	609a      	str	r2, [r3, #8]
 8001e38:	60da      	str	r2, [r3, #12]

  /* USER CODE END ADC1_Init 1 */

  /** Configure the global features of the ADC (Clock, Resolution, Data Alignment and number of conversion)
  */
  hadc1.Instance = ADC1;
 8001e3a:	4b21      	ldr	r3, [pc, #132]	@ (8001ec0 <MX_ADC1_Init+0x98>)
 8001e3c:	4a21      	ldr	r2, [pc, #132]	@ (8001ec4 <MX_ADC1_Init+0x9c>)
 8001e3e:	601a      	str	r2, [r3, #0]
  hadc1.Init.ClockPrescaler = ADC_CLOCK_SYNC_PCLK_DIV4;
 8001e40:	4b1f      	ldr	r3, [pc, #124]	@ (8001ec0 <MX_ADC1_Init+0x98>)
 8001e42:	f44f 3280 	mov.w	r2, #65536	@ 0x10000
 8001e46:	605a      	str	r2, [r3, #4]
  hadc1.Init.Resolution = ADC_RESOLUTION_12B;
 8001e48:	4b1d      	ldr	r3, [pc, #116]	@ (8001ec0 <MX_ADC1_Init+0x98>)
 8001e4a:	2200      	movs	r2, #0
 8001e4c:	609a      	str	r2, [r3, #8]
  hadc1.Init.ScanConvMode = DISABLE;
 8001e4e:	4b1c      	ldr	r3, [pc, #112]	@ (8001ec0 <MX_ADC1_Init+0x98>)
 8001e50:	2200      	movs	r2, #0
 8001e52:	611a      	str	r2, [r3, #16]
  hadc1.Init.ContinuousConvMode = DISABLE;
 8001e54:	4b1a      	ldr	r3, [pc, #104]	@ (8001ec0 <MX_ADC1_Init+0x98>)
 8001e56:	2200      	movs	r2, #0
 8001e58:	761a      	strb	r2, [r3, #24]
  hadc1.Init.DiscontinuousConvMode = DISABLE;
 8001e5a:	4b19      	ldr	r3, [pc, #100]	@ (8001ec0 <MX_ADC1_Init+0x98>)
 8001e5c:	2200      	movs	r2, #0
 8001e5e:	f883 2020 	strb.w	r2, [r3, #32]
  hadc1.Init.ExternalTrigConvEdge = ADC_EXTERNALTRIGCONVEDGE_NONE;
 8001e62:	4b17      	ldr	r3, [pc, #92]	@ (8001ec0 <MX_ADC1_Init+0x98>)
 8001e64:	2200      	movs	r2, #0
 8001e66:	62da      	str	r2, [r3, #44]	@ 0x2c
  hadc1.Init.ExternalTrigConv = ADC_SOFTWARE_START;
 8001e68:	4b15      	ldr	r3, [pc, #84]	@ (8001ec0 <MX_ADC1_Init+0x98>)
 8001e6a:	4a17      	ldr	r2, [pc, #92]	@ (8001ec8 <MX_ADC1_Init+0xa0>)
 8001e6c:	629a      	str	r2, [r3, #40]	@ 0x28
  hadc1.Init.DataAlign = ADC_DATAALIGN_RIGHT;
 8001e6e:	4b14      	ldr	r3, [pc, #80]	@ (8001ec0 <MX_ADC1_Init+0x98>)
 8001e70:	2200      	movs	r2, #0
 8001e72:	60da      	str	r2, [r3, #12]
  hadc1.Init.NbrOfConversion = 1;
 8001e74:	4b12      	ldr	r3, [pc, #72]	@ (8001ec0 <MX_ADC1_Init+0x98>)
 8001e76:	2201      	movs	r2, #1
 8001e78:	61da      	str	r2, [r3, #28]
  hadc1.Init.DMAContinuousRequests = DISABLE;
 8001e7a:	4b11      	ldr	r3, [pc, #68]	@ (8001ec0 <MX_ADC1_Init+0x98>)
 8001e7c:	2200      	movs	r2, #0
 8001e7e:	f883 2030 	strb.w	r2, [r3, #48]	@ 0x30
  hadc1.Init.EOCSelection = ADC_EOC_SINGLE_CONV;
 8001e82:	4b0f      	ldr	r3, [pc, #60]	@ (8001ec0 <MX_ADC1_Init+0x98>)
 8001e84:	2201      	movs	r2, #1
 8001e86:	615a      	str	r2, [r3, #20]
  if (HAL_ADC_Init(&hadc1) != HAL_OK)
 8001e88:	480d      	ldr	r0, [pc, #52]	@ (8001ec0 <MX_ADC1_Init+0x98>)
 8001e8a:	f000 fc85 	bl	8002798 <HAL_ADC_Init>
 8001e8e:	4603      	mov	r3, r0
 8001e90:	2b00      	cmp	r3, #0
 8001e92:	d001      	beq.n	8001e98 <MX_ADC1_Init+0x70>
  {
    Error_Handler();
 8001e94:	f000 f92e 	bl	80020f4 <Error_Handler>
  }

  /** Configure for the selected ADC regular channel its corresponding rank in the sequencer and its sample time.
  */
  sConfig.Channel = ADC_CHANNEL_1;
 8001e98:	2301      	movs	r3, #1
 8001e9a:	603b      	str	r3, [r7, #0]
  sConfig.Rank = 1;
 8001e9c:	2301      	movs	r3, #1
 8001e9e:	607b      	str	r3, [r7, #4]
  sConfig.SamplingTime = ADC_SAMPLETIME_3CYCLES;
 8001ea0:	2300      	movs	r3, #0
 8001ea2:	60bb      	str	r3, [r7, #8]
  if (HAL_ADC_ConfigChannel(&hadc1, &sConfig) != HAL_OK)
 8001ea4:	463b      	mov	r3, r7
 8001ea6:	4619      	mov	r1, r3
 8001ea8:	4805      	ldr	r0, [pc, #20]	@ (8001ec0 <MX_ADC1_Init+0x98>)
 8001eaa:	f000 fe23 	bl	8002af4 <HAL_ADC_ConfigChannel>
 8001eae:	4603      	mov	r3, r0
 8001eb0:	2b00      	cmp	r3, #0
 8001eb2:	d001      	beq.n	8001eb8 <MX_ADC1_Init+0x90>
  {
    Error_Handler();
 8001eb4:	f000 f91e 	bl	80020f4 <Error_Handler>
  }
  /* USER CODE BEGIN ADC1_Init 2 */

  /* USER CODE END ADC1_Init 2 */

}
 8001eb8:	bf00      	nop
 8001eba:	3710      	adds	r7, #16
 8001ebc:	46bd      	mov	sp, r7
 8001ebe:	bd80      	pop	{r7, pc}
 8001ec0:	2000025c 	.word	0x2000025c
 8001ec4:	40012000 	.word	0x40012000
 8001ec8:	0f000001 	.word	0x0f000001

08001ecc <MX_CAN1_Init>:
  * @brief CAN1 Initialization Function
  * @param None
  * @retval None
  */
static void MX_CAN1_Init(void)
{
 8001ecc:	b580      	push	{r7, lr}
 8001ece:	af00      	add	r7, sp, #0
  /* USER CODE END CAN1_Init 0 */

  /* USER CODE BEGIN CAN1_Init 1 */

  /* USER CODE END CAN1_Init 1 */
  hcan1.Instance = CAN1;
 8001ed0:	4b17      	ldr	r3, [pc, #92]	@ (8001f30 <MX_CAN1_Init+0x64>)
 8001ed2:	4a18      	ldr	r2, [pc, #96]	@ (8001f34 <MX_CAN1_Init+0x68>)
 8001ed4:	601a      	str	r2, [r3, #0]
  hcan1.Init.Prescaler = 18;
 8001ed6:	4b16      	ldr	r3, [pc, #88]	@ (8001f30 <MX_CAN1_Init+0x64>)
 8001ed8:	2212      	movs	r2, #18
 8001eda:	605a      	str	r2, [r3, #4]
  hcan1.Init.Mode = CAN_MODE_NORMAL;
 8001edc:	4b14      	ldr	r3, [pc, #80]	@ (8001f30 <MX_CAN1_Init+0x64>)
 8001ede:	2200      	movs	r2, #0
 8001ee0:	609a      	str	r2, [r3, #8]
  hcan1.Init.SyncJumpWidth = CAN_SJW_1TQ;
 8001ee2:	4b13      	ldr	r3, [pc, #76]	@ (8001f30 <MX_CAN1_Init+0x64>)
 8001ee4:	2200      	movs	r2, #0
 8001ee6:	60da      	str	r2, [r3, #12]
  hcan1.Init.TimeSeg1 = CAN_BS1_3TQ;
 8001ee8:	4b11      	ldr	r3, [pc, #68]	@ (8001f30 <MX_CAN1_Init+0x64>)
 8001eea:	f44f 3200 	mov.w	r2, #131072	@ 0x20000
 8001eee:	611a      	str	r2, [r3, #16]
  hcan1.Init.TimeSeg2 = CAN_BS2_1TQ;
 8001ef0:	4b0f      	ldr	r3, [pc, #60]	@ (8001f30 <MX_CAN1_Init+0x64>)
 8001ef2:	2200      	movs	r2, #0
 8001ef4:	615a      	str	r2, [r3, #20]
  hcan1.Init.TimeTriggeredMode = DISABLE;
 8001ef6:	4b0e      	ldr	r3, [pc, #56]	@ (8001f30 <MX_CAN1_Init+0x64>)
 8001ef8:	2200      	movs	r2, #0
 8001efa:	761a      	strb	r2, [r3, #24]
  hcan1.Init.AutoBusOff = DISABLE;
 8001efc:	4b0c      	ldr	r3, [pc, #48]	@ (8001f30 <MX_CAN1_Init+0x64>)
 8001efe:	2200      	movs	r2, #0
 8001f00:	765a      	strb	r2, [r3, #25]
  hcan1.Init.AutoWakeUp = DISABLE;
 8001f02:	4b0b      	ldr	r3, [pc, #44]	@ (8001f30 <MX_CAN1_Init+0x64>)
 8001f04:	2200      	movs	r2, #0
 8001f06:	769a      	strb	r2, [r3, #26]
  hcan1.Init.AutoRetransmission = DISABLE;
 8001f08:	4b09      	ldr	r3, [pc, #36]	@ (8001f30 <MX_CAN1_Init+0x64>)
 8001f0a:	2200      	movs	r2, #0
 8001f0c:	76da      	strb	r2, [r3, #27]
  hcan1.Init.ReceiveFifoLocked = DISABLE;
 8001f0e:	4b08      	ldr	r3, [pc, #32]	@ (8001f30 <MX_CAN1_Init+0x64>)
 8001f10:	2200      	movs	r2, #0
 8001f12:	771a      	strb	r2, [r3, #28]
  hcan1.Init.TransmitFifoPriority = DISABLE;
 8001f14:	4b06      	ldr	r3, [pc, #24]	@ (8001f30 <MX_CAN1_Init+0x64>)
 8001f16:	2200      	movs	r2, #0
 8001f18:	775a      	strb	r2, [r3, #29]
  if (HAL_CAN_Init(&hcan1) != HAL_OK)
 8001f1a:	4805      	ldr	r0, [pc, #20]	@ (8001f30 <MX_CAN1_Init+0x64>)
 8001f1c:	f001 f8e2 	bl	80030e4 <HAL_CAN_Init>
 8001f20:	4603      	mov	r3, r0
 8001f22:	2b00      	cmp	r3, #0
 8001f24:	d001      	beq.n	8001f2a <MX_CAN1_Init+0x5e>
  {
    Error_Handler();
 8001f26:	f000 f8e5 	bl	80020f4 <Error_Handler>
  }
  /* USER CODE BEGIN CAN1_Init 2 */

  /* USER CODE END CAN1_Init 2 */

}
 8001f2a:	bf00      	nop
 8001f2c:	bd80      	pop	{r7, pc}
 8001f2e:	bf00      	nop
 8001f30:	200002a4 	.word	0x200002a4
 8001f34:	40006400 	.word	0x40006400

08001f38 <MX_I2C1_Init>:
  * @brief I2C1 Initialization Function
  * @param None
  * @retval None
  */
static void MX_I2C1_Init(void)
{
 8001f38:	b580      	push	{r7, lr}
 8001f3a:	af00      	add	r7, sp, #0
  /* USER CODE END I2C1_Init 0 */

  /* USER CODE BEGIN I2C1_Init 1 */

  /* USER CODE END I2C1_Init 1 */
  hi2c1.Instance = I2C1;
 8001f3c:	4b12      	ldr	r3, [pc, #72]	@ (8001f88 <MX_I2C1_Init+0x50>)
 8001f3e:	4a13      	ldr	r2, [pc, #76]	@ (8001f8c <MX_I2C1_Init+0x54>)
 8001f40:	601a      	str	r2, [r3, #0]
  hi2c1.Init.ClockSpeed = 100000;
 8001f42:	4b11      	ldr	r3, [pc, #68]	@ (8001f88 <MX_I2C1_Init+0x50>)
 8001f44:	4a12      	ldr	r2, [pc, #72]	@ (8001f90 <MX_I2C1_Init+0x58>)
 8001f46:	605a      	str	r2, [r3, #4]
  hi2c1.Init.DutyCycle = I2C_DUTYCYCLE_2;
 8001f48:	4b0f      	ldr	r3, [pc, #60]	@ (8001f88 <MX_I2C1_Init+0x50>)
 8001f4a:	2200      	movs	r2, #0
 8001f4c:	609a      	str	r2, [r3, #8]
  hi2c1.Init.OwnAddress1 = 0;
 8001f4e:	4b0e      	ldr	r3, [pc, #56]	@ (8001f88 <MX_I2C1_Init+0x50>)
 8001f50:	2200      	movs	r2, #0
 8001f52:	60da      	str	r2, [r3, #12]
  hi2c1.Init.AddressingMode = I2C_ADDRESSINGMODE_7BIT;
 8001f54:	4b0c      	ldr	r3, [pc, #48]	@ (8001f88 <MX_I2C1_Init+0x50>)
 8001f56:	f44f 4280 	mov.w	r2, #16384	@ 0x4000
 8001f5a:	611a      	str	r2, [r3, #16]
  hi2c1.Init.DualAddressMode = I2C_DUALADDRESS_DISABLE;
 8001f5c:	4b0a      	ldr	r3, [pc, #40]	@ (8001f88 <MX_I2C1_Init+0x50>)
 8001f5e:	2200      	movs	r2, #0
 8001f60:	615a      	str	r2, [r3, #20]
  hi2c1.Init.OwnAddress2 = 0;
 8001f62:	4b09      	ldr	r3, [pc, #36]	@ (8001f88 <MX_I2C1_Init+0x50>)
 8001f64:	2200      	movs	r2, #0
 8001f66:	619a      	str	r2, [r3, #24]
  hi2c1.Init.GeneralCallMode = I2C_GENERALCALL_DISABLE;
 8001f68:	4b07      	ldr	r3, [pc, #28]	@ (8001f88 <MX_I2C1_Init+0x50>)
 8001f6a:	2200      	movs	r2, #0
 8001f6c:	61da      	str	r2, [r3, #28]
  hi2c1.Init.NoStretchMode = I2C_NOSTRETCH_DISABLE;
 8001f6e:	4b06      	ldr	r3, [pc, #24]	@ (8001f88 <MX_I2C1_Init+0x50>)
 8001f70:	2200      	movs	r2, #0
 8001f72:	621a      	str	r2, [r3, #32]
  if (HAL_I2C_Init(&hi2c1) != HAL_OK)
 8001f74:	4804      	ldr	r0, [pc, #16]	@ (8001f88 <MX_I2C1_Init+0x50>)
 8001f76:	f002 fa11 	bl	800439c <HAL_I2C_Init>
 8001f7a:	4603      	mov	r3, r0
 8001f7c:	2b00      	cmp	r3, #0
 8001f7e:	d001      	beq.n	8001f84 <MX_I2C1_Init+0x4c>
  {
    Error_Handler();
 8001f80:	f000 f8b8 	bl	80020f4 <Error_Handler>
  }
  /* USER CODE BEGIN I2C1_Init 2 */

  /* USER CODE END I2C1_Init 2 */

}
 8001f84:	bf00      	nop
 8001f86:	bd80      	pop	{r7, pc}
 8001f88:	200002cc 	.word	0x200002cc
 8001f8c:	40005400 	.word	0x40005400
 8001f90:	000186a0 	.word	0x000186a0

08001f94 <MX_USART2_UART_Init>:
  * @brief USART2 Initialization Function
  * @param None
  * @retval None
  */
static void MX_USART2_UART_Init(void)
{
 8001f94:	b580      	push	{r7, lr}
 8001f96:	af00      	add	r7, sp, #0
  /* USER CODE END USART2_Init 0 */

  /* USER CODE BEGIN USART2_Init 1 */

  /* USER CODE END USART2_Init 1 */
  huart2.Instance = USART2;
 8001f98:	4b11      	ldr	r3, [pc, #68]	@ (8001fe0 <MX_USART2_UART_Init+0x4c>)
 8001f9a:	4a12      	ldr	r2, [pc, #72]	@ (8001fe4 <MX_USART2_UART_Init+0x50>)
 8001f9c:	601a      	str	r2, [r3, #0]
  huart2.Init.BaudRate = 115200;
 8001f9e:	4b10      	ldr	r3, [pc, #64]	@ (8001fe0 <MX_USART2_UART_Init+0x4c>)
 8001fa0:	f44f 32e1 	mov.w	r2, #115200	@ 0x1c200
 8001fa4:	605a      	str	r2, [r3, #4]
  huart2.Init.WordLength = UART_WORDLENGTH_8B;
 8001fa6:	4b0e      	ldr	r3, [pc, #56]	@ (8001fe0 <MX_USART2_UART_Init+0x4c>)
 8001fa8:	2200      	movs	r2, #0
 8001faa:	609a      	str	r2, [r3, #8]
  huart2.Init.StopBits = UART_STOPBITS_1;
 8001fac:	4b0c      	ldr	r3, [pc, #48]	@ (8001fe0 <MX_USART2_UART_Init+0x4c>)
 8001fae:	2200      	movs	r2, #0
 8001fb0:	60da      	str	r2, [r3, #12]
  huart2.Init.Parity = UART_PARITY_NONE;
 8001fb2:	4b0b      	ldr	r3, [pc, #44]	@ (8001fe0 <MX_USART2_UART_Init+0x4c>)
 8001fb4:	2200      	movs	r2, #0
 8001fb6:	611a      	str	r2, [r3, #16]
  huart2.Init.Mode = UART_MODE_TX_RX;
 8001fb8:	4b09      	ldr	r3, [pc, #36]	@ (8001fe0 <MX_USART2_UART_Init+0x4c>)
 8001fba:	220c      	movs	r2, #12
 8001fbc:	615a      	str	r2, [r3, #20]
  huart2.Init.HwFlowCtl = UART_HWCONTROL_NONE;
 8001fbe:	4b08      	ldr	r3, [pc, #32]	@ (8001fe0 <MX_USART2_UART_Init+0x4c>)
 8001fc0:	2200      	movs	r2, #0
 8001fc2:	619a      	str	r2, [r3, #24]
  huart2.Init.OverSampling = UART_OVERSAMPLING_16;
 8001fc4:	4b06      	ldr	r3, [pc, #24]	@ (8001fe0 <MX_USART2_UART_Init+0x4c>)
 8001fc6:	2200      	movs	r2, #0
 8001fc8:	61da      	str	r2, [r3, #28]
  if (HAL_UART_Init(&huart2) != HAL_OK)
 8001fca:	4805      	ldr	r0, [pc, #20]	@ (8001fe0 <MX_USART2_UART_Init+0x4c>)
 8001fcc:	f003 f962 	bl	8005294 <HAL_UART_Init>
 8001fd0:	4603      	mov	r3, r0
 8001fd2:	2b00      	cmp	r3, #0
 8001fd4:	d001      	beq.n	8001fda <MX_USART2_UART_Init+0x46>
  {
    Error_Handler();
 8001fd6:	f000 f88d 	bl	80020f4 <Error_Handler>
  }
  /* USER CODE BEGIN USART2_Init 2 */

  /* USER CODE END USART2_Init 2 */

}
 8001fda:	bf00      	nop
 8001fdc:	bd80      	pop	{r7, pc}
 8001fde:	bf00      	nop
 8001fe0:	20000320 	.word	0x20000320
 8001fe4:	40004400 	.word	0x40004400

08001fe8 <MX_GPIO_Init>:
  * @brief GPIO Initialization Function
  * @param None
  * @retval None
  */
static void MX_GPIO_Init(void)
{
 8001fe8:	b580      	push	{r7, lr}
 8001fea:	b08a      	sub	sp, #40	@ 0x28
 8001fec:	af00      	add	r7, sp, #0
  GPIO_InitTypeDef GPIO_InitStruct = {0};
 8001fee:	f107 0314 	add.w	r3, r7, #20
 8001ff2:	2200      	movs	r2, #0
 8001ff4:	601a      	str	r2, [r3, #0]
 8001ff6:	605a      	str	r2, [r3, #4]
 8001ff8:	609a      	str	r2, [r3, #8]
 8001ffa:	60da      	str	r2, [r3, #12]
 8001ffc:	611a      	str	r2, [r3, #16]
/* USER CODE BEGIN MX_GPIO_Init_1 */
/* USER CODE END MX_GPIO_Init_1 */

  /* GPIO Ports Clock Enable */
  __HAL_RCC_GPIOC_CLK_ENABLE();
 8001ffe:	2300      	movs	r3, #0
 8002000:	613b      	str	r3, [r7, #16]
 8002002:	4b39      	ldr	r3, [pc, #228]	@ (80020e8 <MX_GPIO_Init+0x100>)
 8002004:	6b1b      	ldr	r3, [r3, #48]	@ 0x30
 8002006:	4a38      	ldr	r2, [pc, #224]	@ (80020e8 <MX_GPIO_Init+0x100>)
 8002008:	f043 0304 	orr.w	r3, r3, #4
 800200c:	6313      	str	r3, [r2, #48]	@ 0x30
 800200e:	4b36      	ldr	r3, [pc, #216]	@ (80020e8 <MX_GPIO_Init+0x100>)
 8002010:	6b1b      	ldr	r3, [r3, #48]	@ 0x30
 8002012:	f003 0304 	and.w	r3, r3, #4
 8002016:	613b      	str	r3, [r7, #16]
 8002018:	693b      	ldr	r3, [r7, #16]
  __HAL_RCC_GPIOH_CLK_ENABLE();
 800201a:	2300      	movs	r3, #0
 800201c:	60fb      	str	r3, [r7, #12]
 800201e:	4b32      	ldr	r3, [pc, #200]	@ (80020e8 <MX_GPIO_Init+0x100>)
 8002020:	6b1b      	ldr	r3, [r3, #48]	@ 0x30
 8002022:	4a31      	ldr	r2, [pc, #196]	@ (80020e8 <MX_GPIO_Init+0x100>)
 8002024:	f043 0380 	orr.w	r3, r3, #128	@ 0x80
 8002028:	6313      	str	r3, [r2, #48]	@ 0x30
 800202a:	4b2f      	ldr	r3, [pc, #188]	@ (80020e8 <MX_GPIO_Init+0x100>)
 800202c:	6b1b      	ldr	r3, [r3, #48]	@ 0x30
 800202e:	f003 0380 	and.w	r3, r3, #128	@ 0x80
 8002032:	60fb      	str	r3, [r7, #12]
 8002034:	68fb      	ldr	r3, [r7, #12]
  __HAL_RCC_GPIOA_CLK_ENABLE();
 8002036:	2300      	movs	r3, #0
 8002038:	60bb      	str	r3, [r7, #8]
 800203a:	4b2b      	ldr	r3, [pc, #172]	@ (80020e8 <MX_GPIO_Init+0x100>)
 800203c:	6b1b      	ldr	r3, [r3, #48]	@ 0x30
 800203e:	4a2a      	ldr	r2, [pc, #168]	@ (80020e8 <MX_GPIO_Init+0x100>)
 8002040:	f043 0301 	orr.w	r3, r3, #1
 8002044:	6313      	str	r3, [r2, #48]	@ 0x30
 8002046:	4b28      	ldr	r3, [pc, #160]	@ (80020e8 <MX_GPIO_Init+0x100>)
 8002048:	6b1b      	ldr	r3, [r3, #48]	@ 0x30
 800204a:	f003 0301 	and.w	r3, r3, #1
 800204e:	60bb      	str	r3, [r7, #8]
 8002050:	68bb      	ldr	r3, [r7, #8]
  __HAL_RCC_GPIOB_CLK_ENABLE();
 8002052:	2300      	movs	r3, #0
 8002054:	607b      	str	r3, [r7, #4]
 8002056:	4b24      	ldr	r3, [pc, #144]	@ (80020e8 <MX_GPIO_Init+0x100>)
 8002058:	6b1b      	ldr	r3, [r3, #48]	@ 0x30
 800205a:	4a23      	ldr	r2, [pc, #140]	@ (80020e8 <MX_GPIO_Init+0x100>)
 800205c:	f043 0302 	orr.w	r3, r3, #2
 8002060:	6313      	str	r3, [r2, #48]	@ 0x30
 8002062:	4b21      	ldr	r3, [pc, #132]	@ (80020e8 <MX_GPIO_Init+0x100>)
 8002064:	6b1b      	ldr	r3, [r3, #48]	@ 0x30
 8002066:	f003 0302 	and.w	r3, r3, #2
 800206a:	607b      	str	r3, [r7, #4]
 800206c:	687b      	ldr	r3, [r7, #4]

  /*Configure GPIO pin Output Level */
  HAL_GPIO_WritePin(GPIOC, IVMeter_IND_Pin|RST_Pin, GPIO_PIN_RESET);
 800206e:	2200      	movs	r2, #0
 8002070:	2103      	movs	r1, #3
 8002072:	481e      	ldr	r0, [pc, #120]	@ (80020ec <MX_GPIO_Init+0x104>)
 8002074:	f002 f978 	bl	8004368 <HAL_GPIO_WritePin>

  /*Configure GPIO pin : B1_Pin */
  GPIO_InitStruct.Pin = B1_Pin;
 8002078:	f44f 5300 	mov.w	r3, #8192	@ 0x2000
 800207c:	617b      	str	r3, [r7, #20]
  GPIO_InitStruct.Mode = GPIO_MODE_IT_FALLING;
 800207e:	f44f 1304 	mov.w	r3, #2162688	@ 0x210000
 8002082:	61bb      	str	r3, [r7, #24]
  GPIO_InitStruct.Pull = GPIO_NOPULL;
 8002084:	2300      	movs	r3, #0
 8002086:	61fb      	str	r3, [r7, #28]
  HAL_GPIO_Init(B1_GPIO_Port, &GPIO_InitStruct);
 8002088:	f107 0314 	add.w	r3, r7, #20
 800208c:	4619      	mov	r1, r3
 800208e:	4817      	ldr	r0, [pc, #92]	@ (80020ec <MX_GPIO_Init+0x104>)
 8002090:	f001 ffd6 	bl	8004040 <HAL_GPIO_Init>

  /*Configure GPIO pins : IVMeter_IND_Pin RST_Pin */
  GPIO_InitStruct.Pin = IVMeter_IND_Pin|RST_Pin;
 8002094:	2303      	movs	r3, #3
 8002096:	617b      	str	r3, [r7, #20]
  GPIO_InitStruct.Mode = GPIO_MODE_OUTPUT_PP;
 8002098:	2301      	movs	r3, #1
 800209a:	61bb      	str	r3, [r7, #24]
  GPIO_InitStruct.Pull = GPIO_NOPULL;
 800209c:	2300      	movs	r3, #0
 800209e:	61fb      	str	r3, [r7, #28]
  GPIO_InitStruct.Speed = GPIO_SPEED_FREQ_LOW;
 80020a0:	2300      	movs	r3, #0
 80020a2:	623b      	str	r3, [r7, #32]
  HAL_GPIO_Init(GPIOC, &GPIO_InitStruct);
 80020a4:	f107 0314 	add.w	r3, r7, #20
 80020a8:	4619      	mov	r1, r3
 80020aa:	4810      	ldr	r0, [pc, #64]	@ (80020ec <MX_GPIO_Init+0x104>)
 80020ac:	f001 ffc8 	bl	8004040 <HAL_GPIO_Init>

  /*Configure GPIO pins : IVL_Down_Pin IVTS_HALF_Pin SHUTDOWN_Pin PTS_HALF_Pin */
  GPIO_InitStruct.Pin = IVL_Down_Pin|IVTS_HALF_Pin|SHUTDOWN_Pin|PTS_HALF_Pin;
 80020b0:	23f0      	movs	r3, #240	@ 0xf0
 80020b2:	617b      	str	r3, [r7, #20]
  GPIO_InitStruct.Mode = GPIO_MODE_INPUT;
 80020b4:	2300      	movs	r3, #0
 80020b6:	61bb      	str	r3, [r7, #24]
  GPIO_InitStruct.Pull = GPIO_NOPULL;
 80020b8:	2300      	movs	r3, #0
 80020ba:	61fb      	str	r3, [r7, #28]
  HAL_GPIO_Init(GPIOA, &GPIO_InitStruct);
 80020bc:	f107 0314 	add.w	r3, r7, #20
 80020c0:	4619      	mov	r1, r3
 80020c2:	480b      	ldr	r0, [pc, #44]	@ (80020f0 <MX_GPIO_Init+0x108>)
 80020c4:	f001 ffbc 	bl	8004040 <HAL_GPIO_Init>

  /*Configure GPIO pin : BTS_HALF_Pin */
  GPIO_InitStruct.Pin = BTS_HALF_Pin;
 80020c8:	2320      	movs	r3, #32
 80020ca:	617b      	str	r3, [r7, #20]
  GPIO_InitStruct.Mode = GPIO_MODE_INPUT;
 80020cc:	2300      	movs	r3, #0
 80020ce:	61bb      	str	r3, [r7, #24]
  GPIO_InitStruct.Pull = GPIO_NOPULL;
 80020d0:	2300      	movs	r3, #0
 80020d2:	61fb      	str	r3, [r7, #28]
  HAL_GPIO_Init(BTS_HALF_GPIO_Port, &GPIO_InitStruct);
 80020d4:	f107 0314 	add.w	r3, r7, #20
 80020d8:	4619      	mov	r1, r3
 80020da:	4804      	ldr	r0, [pc, #16]	@ (80020ec <MX_GPIO_Init+0x104>)
 80020dc:	f001 ffb0 	bl	8004040 <HAL_GPIO_Init>

/* USER CODE BEGIN MX_GPIO_Init_2 */
/* USER CODE END MX_GPIO_Init_2 */
}
 80020e0:	bf00      	nop
 80020e2:	3728      	adds	r7, #40	@ 0x28
 80020e4:	46bd      	mov	sp, r7
 80020e6:	bd80      	pop	{r7, pc}
 80020e8:	40023800 	.word	0x40023800
 80020ec:	40020800 	.word	0x40020800
 80020f0:	40020000 	.word	0x40020000

080020f4 <Error_Handler>:
/**
  * @brief  This function is executed in case of error occurrence.
  * @retval None
  */
void Error_Handler(void)
{
 80020f4:	b480      	push	{r7}
 80020f6:	af00      	add	r7, sp, #0
  \details Disables IRQ interrupts by setting special-purpose register PRIMASK.
           Can only be executed in Privileged modes.
 */
__STATIC_FORCEINLINE void __disable_irq(void)
{
  __ASM volatile ("cpsid i" : : : "memory");
 80020f8:	b672      	cpsid	i
}
 80020fa:	bf00      	nop
  /* USER CODE BEGIN Error_Handler_Debug */
  /* User can add his own implementation to report the HAL error return state */
  __disable_irq();
  while (1)
 80020fc:	bf00      	nop
 80020fe:	e7fd      	b.n	80020fc <Error_Handler+0x8>

08002100 <HAL_MspInit>:
/* USER CODE END 0 */
/**
  * Initializes the Global MSP.
  */
void HAL_MspInit(void)
{
 8002100:	b580      	push	{r7, lr}
 8002102:	b082      	sub	sp, #8
 8002104:	af00      	add	r7, sp, #0

  /* USER CODE BEGIN MspInit 0 */

  /* USER CODE END MspInit 0 */

  __HAL_RCC_SYSCFG_CLK_ENABLE();
 8002106:	2300      	movs	r3, #0
 8002108:	607b      	str	r3, [r7, #4]
 800210a:	4b10      	ldr	r3, [pc, #64]	@ (800214c <HAL_MspInit+0x4c>)
 800210c:	6c5b      	ldr	r3, [r3, #68]	@ 0x44
 800210e:	4a0f      	ldr	r2, [pc, #60]	@ (800214c <HAL_MspInit+0x4c>)
 8002110:	f443 4380 	orr.w	r3, r3, #16384	@ 0x4000
 8002114:	6453      	str	r3, [r2, #68]	@ 0x44
 8002116:	4b0d      	ldr	r3, [pc, #52]	@ (800214c <HAL_MspInit+0x4c>)
 8002118:	6c5b      	ldr	r3, [r3, #68]	@ 0x44
 800211a:	f403 4380 	and.w	r3, r3, #16384	@ 0x4000
 800211e:	607b      	str	r3, [r7, #4]
 8002120:	687b      	ldr	r3, [r7, #4]
  __HAL_RCC_PWR_CLK_ENABLE();
 8002122:	2300      	movs	r3, #0
 8002124:	603b      	str	r3, [r7, #0]
 8002126:	4b09      	ldr	r3, [pc, #36]	@ (800214c <HAL_MspInit+0x4c>)
 8002128:	6c1b      	ldr	r3, [r3, #64]	@ 0x40
 800212a:	4a08      	ldr	r2, [pc, #32]	@ (800214c <HAL_MspInit+0x4c>)
 800212c:	f043 5380 	orr.w	r3, r3, #268435456	@ 0x10000000
 8002130:	6413      	str	r3, [r2, #64]	@ 0x40
 8002132:	4b06      	ldr	r3, [pc, #24]	@ (800214c <HAL_MspInit+0x4c>)
 8002134:	6c1b      	ldr	r3, [r3, #64]	@ 0x40
 8002136:	f003 5380 	and.w	r3, r3, #268435456	@ 0x10000000
 800213a:	603b      	str	r3, [r7, #0]
 800213c:	683b      	ldr	r3, [r7, #0]

  HAL_NVIC_SetPriorityGrouping(NVIC_PRIORITYGROUP_0);
 800213e:	2007      	movs	r0, #7
 8002140:	f001 ff3c 	bl	8003fbc <HAL_NVIC_SetPriorityGrouping>
  /* System interrupt init*/

  /* USER CODE BEGIN MspInit 1 */

  /* USER CODE END MspInit 1 */
}
 8002144:	bf00      	nop
 8002146:	3708      	adds	r7, #8
 8002148:	46bd      	mov	sp, r7
 800214a:	bd80      	pop	{r7, pc}
 800214c:	40023800 	.word	0x40023800

08002150 <HAL_ADC_MspInit>:
* This function configures the hardware resources used in this example
* @param hadc: ADC handle pointer
* @retval None
*/
void HAL_ADC_MspInit(ADC_HandleTypeDef* hadc)
{
 8002150:	b580      	push	{r7, lr}
 8002152:	b08a      	sub	sp, #40	@ 0x28
 8002154:	af00      	add	r7, sp, #0
 8002156:	6078      	str	r0, [r7, #4]
  GPIO_InitTypeDef GPIO_InitStruct = {0};
 8002158:	f107 0314 	add.w	r3, r7, #20
 800215c:	2200      	movs	r2, #0
 800215e:	601a      	str	r2, [r3, #0]
 8002160:	605a      	str	r2, [r3, #4]
 8002162:	609a      	str	r2, [r3, #8]
 8002164:	60da      	str	r2, [r3, #12]
 8002166:	611a      	str	r2, [r3, #16]
  if(hadc->Instance==ADC1)
 8002168:	687b      	ldr	r3, [r7, #4]
 800216a:	681b      	ldr	r3, [r3, #0]
 800216c:	4a24      	ldr	r2, [pc, #144]	@ (8002200 <HAL_ADC_MspInit+0xb0>)
 800216e:	4293      	cmp	r3, r2
 8002170:	d141      	bne.n	80021f6 <HAL_ADC_MspInit+0xa6>
  {
  /* USER CODE BEGIN ADC1_MspInit 0 */

  /* USER CODE END ADC1_MspInit 0 */
    /* Peripheral clock enable */
    __HAL_RCC_ADC1_CLK_ENABLE();
 8002172:	2300      	movs	r3, #0
 8002174:	613b      	str	r3, [r7, #16]
 8002176:	4b23      	ldr	r3, [pc, #140]	@ (8002204 <HAL_ADC_MspInit+0xb4>)
 8002178:	6c5b      	ldr	r3, [r3, #68]	@ 0x44
 800217a:	4a22      	ldr	r2, [pc, #136]	@ (8002204 <HAL_ADC_MspInit+0xb4>)
 800217c:	f443 7380 	orr.w	r3, r3, #256	@ 0x100
 8002180:	6453      	str	r3, [r2, #68]	@ 0x44
 8002182:	4b20      	ldr	r3, [pc, #128]	@ (8002204 <HAL_ADC_MspInit+0xb4>)
 8002184:	6c5b      	ldr	r3, [r3, #68]	@ 0x44
 8002186:	f403 7380 	and.w	r3, r3, #256	@ 0x100
 800218a:	613b      	str	r3, [r7, #16]
 800218c:	693b      	ldr	r3, [r7, #16]

    __HAL_RCC_GPIOC_CLK_ENABLE();
 800218e:	2300      	movs	r3, #0
 8002190:	60fb      	str	r3, [r7, #12]
 8002192:	4b1c      	ldr	r3, [pc, #112]	@ (8002204 <HAL_ADC_MspInit+0xb4>)
 8002194:	6b1b      	ldr	r3, [r3, #48]	@ 0x30
 8002196:	4a1b      	ldr	r2, [pc, #108]	@ (8002204 <HAL_ADC_MspInit+0xb4>)
 8002198:	f043 0304 	orr.w	r3, r3, #4
 800219c:	6313      	str	r3, [r2, #48]	@ 0x30
 800219e:	4b19      	ldr	r3, [pc, #100]	@ (8002204 <HAL_ADC_MspInit+0xb4>)
 80021a0:	6b1b      	ldr	r3, [r3, #48]	@ 0x30
 80021a2:	f003 0304 	and.w	r3, r3, #4
 80021a6:	60fb      	str	r3, [r7, #12]
 80021a8:	68fb      	ldr	r3, [r7, #12]
    __HAL_RCC_GPIOA_CLK_ENABLE();
 80021aa:	2300      	movs	r3, #0
 80021ac:	60bb      	str	r3, [r7, #8]
 80021ae:	4b15      	ldr	r3, [pc, #84]	@ (8002204 <HAL_ADC_MspInit+0xb4>)
 80021b0:	6b1b      	ldr	r3, [r3, #48]	@ 0x30
 80021b2:	4a14      	ldr	r2, [pc, #80]	@ (8002204 <HAL_ADC_MspInit+0xb4>)
 80021b4:	f043 0301 	orr.w	r3, r3, #1
 80021b8:	6313      	str	r3, [r2, #48]	@ 0x30
 80021ba:	4b12      	ldr	r3, [pc, #72]	@ (8002204 <HAL_ADC_MspInit+0xb4>)
 80021bc:	6b1b      	ldr	r3, [r3, #48]	@ 0x30
 80021be:	f003 0301 	and.w	r3, r3, #1
 80021c2:	60bb      	str	r3, [r7, #8]
 80021c4:	68bb      	ldr	r3, [r7, #8]
    PC3     ------> ADC1_IN13
    PA0-WKUP     ------> ADC1_IN0
    PA1     ------> ADC1_IN1
    PC4     ------> ADC1_IN14
    */
    GPIO_InitStruct.Pin = brake1_Pin|brake2_Pin|brakeIn_Pin;
 80021c6:	231c      	movs	r3, #28
 80021c8:	617b      	str	r3, [r7, #20]
    GPIO_InitStruct.Mode = GPIO_MODE_ANALOG;
 80021ca:	2303      	movs	r3, #3
 80021cc:	61bb      	str	r3, [r7, #24]
    GPIO_InitStruct.Pull = GPIO_NOPULL;
 80021ce:	2300      	movs	r3, #0
 80021d0:	61fb      	str	r3, [r7, #28]
    HAL_GPIO_Init(GPIOC, &GPIO_InitStruct);
 80021d2:	f107 0314 	add.w	r3, r7, #20
 80021d6:	4619      	mov	r1, r3
 80021d8:	480b      	ldr	r0, [pc, #44]	@ (8002208 <HAL_ADC_MspInit+0xb8>)
 80021da:	f001 ff31 	bl	8004040 <HAL_GPIO_Init>

    GPIO_InitStruct.Pin = acc1_Pin|acc2_Pin;
 80021de:	2303      	movs	r3, #3
 80021e0:	617b      	str	r3, [r7, #20]
    GPIO_InitStruct.Mode = GPIO_MODE_ANALOG;
 80021e2:	2303      	movs	r3, #3
 80021e4:	61bb      	str	r3, [r7, #24]
    GPIO_InitStruct.Pull = GPIO_NOPULL;
 80021e6:	2300      	movs	r3, #0
 80021e8:	61fb      	str	r3, [r7, #28]
    HAL_GPIO_Init(GPIOA, &GPIO_InitStruct);
 80021ea:	f107 0314 	add.w	r3, r7, #20
 80021ee:	4619      	mov	r1, r3
 80021f0:	4806      	ldr	r0, [pc, #24]	@ (800220c <HAL_ADC_MspInit+0xbc>)
 80021f2:	f001 ff25 	bl	8004040 <HAL_GPIO_Init>

  /* USER CODE END ADC1_MspInit 1 */

  }

}
 80021f6:	bf00      	nop
 80021f8:	3728      	adds	r7, #40	@ 0x28
 80021fa:	46bd      	mov	sp, r7
 80021fc:	bd80      	pop	{r7, pc}
 80021fe:	bf00      	nop
 8002200:	40012000 	.word	0x40012000
 8002204:	40023800 	.word	0x40023800
 8002208:	40020800 	.word	0x40020800
 800220c:	40020000 	.word	0x40020000

08002210 <HAL_CAN_MspInit>:
* This function configures the hardware resources used in this example
* @param hcan: CAN handle pointer
* @retval None
*/
void HAL_CAN_MspInit(CAN_HandleTypeDef* hcan)
{
 8002210:	b580      	push	{r7, lr}
 8002212:	b08a      	sub	sp, #40	@ 0x28
 8002214:	af00      	add	r7, sp, #0
 8002216:	6078      	str	r0, [r7, #4]
  GPIO_InitTypeDef GPIO_InitStruct = {0};
 8002218:	f107 0314 	add.w	r3, r7, #20
 800221c:	2200      	movs	r2, #0
 800221e:	601a      	str	r2, [r3, #0]
 8002220:	605a      	str	r2, [r3, #4]
 8002222:	609a      	str	r2, [r3, #8]
 8002224:	60da      	str	r2, [r3, #12]
 8002226:	611a      	str	r2, [r3, #16]
  if(hcan->Instance==CAN1)
 8002228:	687b      	ldr	r3, [r7, #4]
 800222a:	681b      	ldr	r3, [r3, #0]
 800222c:	4a21      	ldr	r2, [pc, #132]	@ (80022b4 <HAL_CAN_MspInit+0xa4>)
 800222e:	4293      	cmp	r3, r2
 8002230:	d13c      	bne.n	80022ac <HAL_CAN_MspInit+0x9c>
  {
  /* USER CODE BEGIN CAN1_MspInit 0 */

  /* USER CODE END CAN1_MspInit 0 */
    /* Peripheral clock enable */
    __HAL_RCC_CAN1_CLK_ENABLE();
 8002232:	2300      	movs	r3, #0
 8002234:	613b      	str	r3, [r7, #16]
 8002236:	4b20      	ldr	r3, [pc, #128]	@ (80022b8 <HAL_CAN_MspInit+0xa8>)
 8002238:	6c1b      	ldr	r3, [r3, #64]	@ 0x40
 800223a:	4a1f      	ldr	r2, [pc, #124]	@ (80022b8 <HAL_CAN_MspInit+0xa8>)
 800223c:	f043 7300 	orr.w	r3, r3, #33554432	@ 0x2000000
 8002240:	6413      	str	r3, [r2, #64]	@ 0x40
 8002242:	4b1d      	ldr	r3, [pc, #116]	@ (80022b8 <HAL_CAN_MspInit+0xa8>)
 8002244:	6c1b      	ldr	r3, [r3, #64]	@ 0x40
 8002246:	f003 7300 	and.w	r3, r3, #33554432	@ 0x2000000
 800224a:	613b      	str	r3, [r7, #16]
 800224c:	693b      	ldr	r3, [r7, #16]

    __HAL_RCC_GPIOA_CLK_ENABLE();
 800224e:	2300      	movs	r3, #0
 8002250:	60fb      	str	r3, [r7, #12]
 8002252:	4b19      	ldr	r3, [pc, #100]	@ (80022b8 <HAL_CAN_MspInit+0xa8>)
 8002254:	6b1b      	ldr	r3, [r3, #48]	@ 0x30
 8002256:	4a18      	ldr	r2, [pc, #96]	@ (80022b8 <HAL_CAN_MspInit+0xa8>)
 8002258:	f043 0301 	orr.w	r3, r3, #1
 800225c:	6313      	str	r3, [r2, #48]	@ 0x30
 800225e:	4b16      	ldr	r3, [pc, #88]	@ (80022b8 <HAL_CAN_MspInit+0xa8>)
 8002260:	6b1b      	ldr	r3, [r3, #48]	@ 0x30
 8002262:	f003 0301 	and.w	r3, r3, #1
 8002266:	60fb      	str	r3, [r7, #12]
 8002268:	68fb      	ldr	r3, [r7, #12]
    /**CAN1 GPIO Configuration
    PA11     ------> CAN1_RX
    PA12     ------> CAN1_TX
    */
    GPIO_InitStruct.Pin = GPIO_PIN_11|GPIO_PIN_12;
 800226a:	f44f 53c0 	mov.w	r3, #6144	@ 0x1800
 800226e:	617b      	str	r3, [r7, #20]
    GPIO_InitStruct.Mode = GPIO_MODE_AF_PP;
 8002270:	2302      	movs	r3, #2
 8002272:	61bb      	str	r3, [r7, #24]
    GPIO_InitStruct.Pull = GPIO_NOPULL;
 8002274:	2300      	movs	r3, #0
 8002276:	61fb      	str	r3, [r7, #28]
    GPIO_InitStruct.Speed = GPIO_SPEED_FREQ_VERY_HIGH;
 8002278:	2303      	movs	r3, #3
 800227a:	623b      	str	r3, [r7, #32]
    GPIO_InitStruct.Alternate = GPIO_AF9_CAN1;
 800227c:	2309      	movs	r3, #9
 800227e:	627b      	str	r3, [r7, #36]	@ 0x24
    HAL_GPIO_Init(GPIOA, &GPIO_InitStruct);
 8002280:	f107 0314 	add.w	r3, r7, #20
 8002284:	4619      	mov	r1, r3
 8002286:	480d      	ldr	r0, [pc, #52]	@ (80022bc <HAL_CAN_MspInit+0xac>)
 8002288:	f001 feda 	bl	8004040 <HAL_GPIO_Init>

    /* CAN1 interrupt Init */
    HAL_NVIC_SetPriority(CAN1_RX0_IRQn, 0, 0);
 800228c:	2200      	movs	r2, #0
 800228e:	2100      	movs	r1, #0
 8002290:	2014      	movs	r0, #20
 8002292:	f001 fe9e 	bl	8003fd2 <HAL_NVIC_SetPriority>
    HAL_NVIC_EnableIRQ(CAN1_RX0_IRQn);
 8002296:	2014      	movs	r0, #20
 8002298:	f001 feb7 	bl	800400a <HAL_NVIC_EnableIRQ>
    HAL_NVIC_SetPriority(CAN1_RX1_IRQn, 0, 0);
 800229c:	2200      	movs	r2, #0
 800229e:	2100      	movs	r1, #0
 80022a0:	2015      	movs	r0, #21
 80022a2:	f001 fe96 	bl	8003fd2 <HAL_NVIC_SetPriority>
    HAL_NVIC_EnableIRQ(CAN1_RX1_IRQn);
 80022a6:	2015      	movs	r0, #21
 80022a8:	f001 feaf 	bl	800400a <HAL_NVIC_EnableIRQ>

  /* USER CODE END CAN1_MspInit 1 */

  }

}
 80022ac:	bf00      	nop
 80022ae:	3728      	adds	r7, #40	@ 0x28
 80022b0:	46bd      	mov	sp, r7
 80022b2:	bd80      	pop	{r7, pc}
 80022b4:	40006400 	.word	0x40006400
 80022b8:	40023800 	.word	0x40023800
 80022bc:	40020000 	.word	0x40020000

080022c0 <HAL_I2C_MspInit>:
* This function configures the hardware resources used in this example
* @param hi2c: I2C handle pointer
* @retval None
*/
void HAL_I2C_MspInit(I2C_HandleTypeDef* hi2c)
{
 80022c0:	b580      	push	{r7, lr}
 80022c2:	b08a      	sub	sp, #40	@ 0x28
 80022c4:	af00      	add	r7, sp, #0
 80022c6:	6078      	str	r0, [r7, #4]
  GPIO_InitTypeDef GPIO_InitStruct = {0};
 80022c8:	f107 0314 	add.w	r3, r7, #20
 80022cc:	2200      	movs	r2, #0
 80022ce:	601a      	str	r2, [r3, #0]
 80022d0:	605a      	str	r2, [r3, #4]
 80022d2:	609a      	str	r2, [r3, #8]
 80022d4:	60da      	str	r2, [r3, #12]
 80022d6:	611a      	str	r2, [r3, #16]
  if(hi2c->Instance==I2C1)
 80022d8:	687b      	ldr	r3, [r7, #4]
 80022da:	681b      	ldr	r3, [r3, #0]
 80022dc:	4a19      	ldr	r2, [pc, #100]	@ (8002344 <HAL_I2C_MspInit+0x84>)
 80022de:	4293      	cmp	r3, r2
 80022e0:	d12b      	bne.n	800233a <HAL_I2C_MspInit+0x7a>
  {
  /* USER CODE BEGIN I2C1_MspInit 0 */

  /* USER CODE END I2C1_MspInit 0 */

    __HAL_RCC_GPIOB_CLK_ENABLE();
 80022e2:	2300      	movs	r3, #0
 80022e4:	613b      	str	r3, [r7, #16]
 80022e6:	4b18      	ldr	r3, [pc, #96]	@ (8002348 <HAL_I2C_MspInit+0x88>)
 80022e8:	6b1b      	ldr	r3, [r3, #48]	@ 0x30
 80022ea:	4a17      	ldr	r2, [pc, #92]	@ (8002348 <HAL_I2C_MspInit+0x88>)
 80022ec:	f043 0302 	orr.w	r3, r3, #2
 80022f0:	6313      	str	r3, [r2, #48]	@ 0x30
 80022f2:	4b15      	ldr	r3, [pc, #84]	@ (8002348 <HAL_I2C_MspInit+0x88>)
 80022f4:	6b1b      	ldr	r3, [r3, #48]	@ 0x30
 80022f6:	f003 0302 	and.w	r3, r3, #2
 80022fa:	613b      	str	r3, [r7, #16]
 80022fc:	693b      	ldr	r3, [r7, #16]
    /**I2C1 GPIO Configuration
    PB6     ------> I2C1_SCL
    PB7     ------> I2C1_SDA
    */
    GPIO_InitStruct.Pin = GPIO_PIN_6|GPIO_PIN_7;
 80022fe:	23c0      	movs	r3, #192	@ 0xc0
 8002300:	617b      	str	r3, [r7, #20]
    GPIO_InitStruct.Mode = GPIO_MODE_AF_OD;
 8002302:	2312      	movs	r3, #18
 8002304:	61bb      	str	r3, [r7, #24]
    GPIO_InitStruct.Pull = GPIO_NOPULL;
 8002306:	2300      	movs	r3, #0
 8002308:	61fb      	str	r3, [r7, #28]
    GPIO_InitStruct.Speed = GPIO_SPEED_FREQ_VERY_HIGH;
 800230a:	2303      	movs	r3, #3
 800230c:	623b      	str	r3, [r7, #32]
    GPIO_InitStruct.Alternate = GPIO_AF4_I2C1;
 800230e:	2304      	movs	r3, #4
 8002310:	627b      	str	r3, [r7, #36]	@ 0x24
    HAL_GPIO_Init(GPIOB, &GPIO_InitStruct);
 8002312:	f107 0314 	add.w	r3, r7, #20
 8002316:	4619      	mov	r1, r3
 8002318:	480c      	ldr	r0, [pc, #48]	@ (800234c <HAL_I2C_MspInit+0x8c>)
 800231a:	f001 fe91 	bl	8004040 <HAL_GPIO_Init>

    /* Peripheral clock enable */
    __HAL_RCC_I2C1_CLK_ENABLE();
 800231e:	2300      	movs	r3, #0
 8002320:	60fb      	str	r3, [r7, #12]
 8002322:	4b09      	ldr	r3, [pc, #36]	@ (8002348 <HAL_I2C_MspInit+0x88>)
 8002324:	6c1b      	ldr	r3, [r3, #64]	@ 0x40
 8002326:	4a08      	ldr	r2, [pc, #32]	@ (8002348 <HAL_I2C_MspInit+0x88>)
 8002328:	f443 1300 	orr.w	r3, r3, #2097152	@ 0x200000
 800232c:	6413      	str	r3, [r2, #64]	@ 0x40
 800232e:	4b06      	ldr	r3, [pc, #24]	@ (8002348 <HAL_I2C_MspInit+0x88>)
 8002330:	6c1b      	ldr	r3, [r3, #64]	@ 0x40
 8002332:	f403 1300 	and.w	r3, r3, #2097152	@ 0x200000
 8002336:	60fb      	str	r3, [r7, #12]
 8002338:	68fb      	ldr	r3, [r7, #12]

  /* USER CODE END I2C1_MspInit 1 */

  }

}
 800233a:	bf00      	nop
 800233c:	3728      	adds	r7, #40	@ 0x28
 800233e:	46bd      	mov	sp, r7
 8002340:	bd80      	pop	{r7, pc}
 8002342:	bf00      	nop
 8002344:	40005400 	.word	0x40005400
 8002348:	40023800 	.word	0x40023800
 800234c:	40020400 	.word	0x40020400

08002350 <HAL_UART_MspInit>:
* This function configures the hardware resources used in this example
* @param huart: UART handle pointer
* @retval None
*/
void HAL_UART_MspInit(UART_HandleTypeDef* huart)
{
 8002350:	b580      	push	{r7, lr}
 8002352:	b08a      	sub	sp, #40	@ 0x28
 8002354:	af00      	add	r7, sp, #0
 8002356:	6078      	str	r0, [r7, #4]
  GPIO_InitTypeDef GPIO_InitStruct = {0};
 8002358:	f107 0314 	add.w	r3, r7, #20
 800235c:	2200      	movs	r2, #0
 800235e:	601a      	str	r2, [r3, #0]
 8002360:	605a      	str	r2, [r3, #4]
 8002362:	609a      	str	r2, [r3, #8]
 8002364:	60da      	str	r2, [r3, #12]
 8002366:	611a      	str	r2, [r3, #16]
  if(huart->Instance==USART2)
 8002368:	687b      	ldr	r3, [r7, #4]
 800236a:	681b      	ldr	r3, [r3, #0]
 800236c:	4a19      	ldr	r2, [pc, #100]	@ (80023d4 <HAL_UART_MspInit+0x84>)
 800236e:	4293      	cmp	r3, r2
 8002370:	d12b      	bne.n	80023ca <HAL_UART_MspInit+0x7a>
  {
  /* USER CODE BEGIN USART2_MspInit 0 */

  /* USER CODE END USART2_MspInit 0 */
    /* Peripheral clock enable */
    __HAL_RCC_USART2_CLK_ENABLE();
 8002372:	2300      	movs	r3, #0
 8002374:	613b      	str	r3, [r7, #16]
 8002376:	4b18      	ldr	r3, [pc, #96]	@ (80023d8 <HAL_UART_MspInit+0x88>)
 8002378:	6c1b      	ldr	r3, [r3, #64]	@ 0x40
 800237a:	4a17      	ldr	r2, [pc, #92]	@ (80023d8 <HAL_UART_MspInit+0x88>)
 800237c:	f443 3300 	orr.w	r3, r3, #131072	@ 0x20000
 8002380:	6413      	str	r3, [r2, #64]	@ 0x40
 8002382:	4b15      	ldr	r3, [pc, #84]	@ (80023d8 <HAL_UART_MspInit+0x88>)
 8002384:	6c1b      	ldr	r3, [r3, #64]	@ 0x40
 8002386:	f403 3300 	and.w	r3, r3, #131072	@ 0x20000
 800238a:	613b      	str	r3, [r7, #16]
 800238c:	693b      	ldr	r3, [r7, #16]

    __HAL_RCC_GPIOA_CLK_ENABLE();
 800238e:	2300      	movs	r3, #0
 8002390:	60fb      	str	r3, [r7, #12]
 8002392:	4b11      	ldr	r3, [pc, #68]	@ (80023d8 <HAL_UART_MspInit+0x88>)
 8002394:	6b1b      	ldr	r3, [r3, #48]	@ 0x30
 8002396:	4a10      	ldr	r2, [pc, #64]	@ (80023d8 <HAL_UART_MspInit+0x88>)
 8002398:	f043 0301 	orr.w	r3, r3, #1
 800239c:	6313      	str	r3, [r2, #48]	@ 0x30
 800239e:	4b0e      	ldr	r3, [pc, #56]	@ (80023d8 <HAL_UART_MspInit+0x88>)
 80023a0:	6b1b      	ldr	r3, [r3, #48]	@ 0x30
 80023a2:	f003 0301 	and.w	r3, r3, #1
 80023a6:	60fb      	str	r3, [r7, #12]
 80023a8:	68fb      	ldr	r3, [r7, #12]
    /**USART2 GPIO Configuration
    PA2     ------> USART2_TX
    PA3     ------> USART2_RX
    */
    GPIO_InitStruct.Pin = USART_TX_Pin|USART_RX_Pin;
 80023aa:	230c      	movs	r3, #12
 80023ac:	617b      	str	r3, [r7, #20]
    GPIO_InitStruct.Mode = GPIO_MODE_AF_PP;
 80023ae:	2302      	movs	r3, #2
 80023b0:	61bb      	str	r3, [r7, #24]
    GPIO_InitStruct.Pull = GPIO_NOPULL;
 80023b2:	2300      	movs	r3, #0
 80023b4:	61fb      	str	r3, [r7, #28]
    GPIO_InitStruct.Speed = GPIO_SPEED_FREQ_VERY_HIGH;
 80023b6:	2303      	movs	r3, #3
 80023b8:	623b      	str	r3, [r7, #32]
    GPIO_InitStruct.Alternate = GPIO_AF7_USART2;
 80023ba:	2307      	movs	r3, #7
 80023bc:	627b      	str	r3, [r7, #36]	@ 0x24
    HAL_GPIO_Init(GPIOA, &GPIO_InitStruct);
 80023be:	f107 0314 	add.w	r3, r7, #20
 80023c2:	4619      	mov	r1, r3
 80023c4:	4805      	ldr	r0, [pc, #20]	@ (80023dc <HAL_UART_MspInit+0x8c>)
 80023c6:	f001 fe3b 	bl	8004040 <HAL_GPIO_Init>

  /* USER CODE END USART2_MspInit 1 */

  }

}
 80023ca:	bf00      	nop
 80023cc:	3728      	adds	r7, #40	@ 0x28
 80023ce:	46bd      	mov	sp, r7
 80023d0:	bd80      	pop	{r7, pc}
 80023d2:	bf00      	nop
 80023d4:	40004400 	.word	0x40004400
 80023d8:	40023800 	.word	0x40023800
 80023dc:	40020000 	.word	0x40020000

080023e0 <NMI_Handler>:
/******************************************************************************/
/**
  * @brief This function handles Non maskable interrupt.
  */
void NMI_Handler(void)
{
 80023e0:	b480      	push	{r7}
 80023e2:	af00      	add	r7, sp, #0
  /* USER CODE BEGIN NonMaskableInt_IRQn 0 */

  /* USER CODE END NonMaskableInt_IRQn 0 */
  /* USER CODE BEGIN NonMaskableInt_IRQn 1 */
   while (1)
 80023e4:	bf00      	nop
 80023e6:	e7fd      	b.n	80023e4 <NMI_Handler+0x4>

080023e8 <HardFault_Handler>:

/**
  * @brief This function handles Hard fault interrupt.
  */
void HardFault_Handler(void)
{
 80023e8:	b480      	push	{r7}
 80023ea:	af00      	add	r7, sp, #0
  /* USER CODE BEGIN HardFault_IRQn 0 */

  /* USER CODE END HardFault_IRQn 0 */
  while (1)
 80023ec:	bf00      	nop
 80023ee:	e7fd      	b.n	80023ec <HardFault_Handler+0x4>

080023f0 <MemManage_Handler>:

/**
  * @brief This function handles Memory management fault.
  */
void MemManage_Handler(void)
{
 80023f0:	b480      	push	{r7}
 80023f2:	af00      	add	r7, sp, #0
  /* USER CODE BEGIN MemoryManagement_IRQn 0 */

  /* USER CODE END MemoryManagement_IRQn 0 */
  while (1)
 80023f4:	bf00      	nop
 80023f6:	e7fd      	b.n	80023f4 <MemManage_Handler+0x4>

080023f8 <BusFault_Handler>:

/**
  * @brief This function handles Pre-fetch fault, memory access fault.
  */
void BusFault_Handler(void)
{
 80023f8:	b480      	push	{r7}
 80023fa:	af00      	add	r7, sp, #0
  /* USER CODE BEGIN BusFault_IRQn 0 */

  /* USER CODE END BusFault_IRQn 0 */
  while (1)
 80023fc:	bf00      	nop
 80023fe:	e7fd      	b.n	80023fc <BusFault_Handler+0x4>

08002400 <UsageFault_Handler>:

/**
  * @brief This function handles Undefined instruction or illegal state.
  */
void UsageFault_Handler(void)
{
 8002400:	b480      	push	{r7}
 8002402:	af00      	add	r7, sp, #0
  /* USER CODE BEGIN UsageFault_IRQn 0 */

  /* USER CODE END UsageFault_IRQn 0 */
  while (1)
 8002404:	bf00      	nop
 8002406:	e7fd      	b.n	8002404 <UsageFault_Handler+0x4>

08002408 <SVC_Handler>:

/**
  * @brief This function handles System service call via SWI instruction.
  */
void SVC_Handler(void)
{
 8002408:	b480      	push	{r7}
 800240a:	af00      	add	r7, sp, #0

  /* USER CODE END SVCall_IRQn 0 */
  /* USER CODE BEGIN SVCall_IRQn 1 */

  /* USER CODE END SVCall_IRQn 1 */
}
 800240c:	bf00      	nop
 800240e:	46bd      	mov	sp, r7
 8002410:	f85d 7b04 	ldr.w	r7, [sp], #4
 8002414:	4770      	bx	lr

08002416 <DebugMon_Handler>:

/**
  * @brief This function handles Debug monitor.
  */
void DebugMon_Handler(void)
{
 8002416:	b480      	push	{r7}
 8002418:	af00      	add	r7, sp, #0

  /* USER CODE END DebugMonitor_IRQn 0 */
  /* USER CODE BEGIN DebugMonitor_IRQn 1 */

  /* USER CODE END DebugMonitor_IRQn 1 */
}
 800241a:	bf00      	nop
 800241c:	46bd      	mov	sp, r7
 800241e:	f85d 7b04 	ldr.w	r7, [sp], #4
 8002422:	4770      	bx	lr

08002424 <PendSV_Handler>:

/**
  * @brief This function handles Pendable request for system service.
  */
void PendSV_Handler(void)
{
 8002424:	b480      	push	{r7}
 8002426:	af00      	add	r7, sp, #0

  /* USER CODE END PendSV_IRQn 0 */
  /* USER CODE BEGIN PendSV_IRQn 1 */

  /* USER CODE END PendSV_IRQn 1 */
}
 8002428:	bf00      	nop
 800242a:	46bd      	mov	sp, r7
 800242c:	f85d 7b04 	ldr.w	r7, [sp], #4
 8002430:	4770      	bx	lr

08002432 <SysTick_Handler>:

/**
  * @brief This function handles System tick timer.
  */
void SysTick_Handler(void)
{
 8002432:	b580      	push	{r7, lr}
 8002434:	af00      	add	r7, sp, #0
  /* USER CODE BEGIN SysTick_IRQn 0 */

  /* USER CODE END SysTick_IRQn 0 */
  HAL_IncTick();
 8002436:	f000 f96b 	bl	8002710 <HAL_IncTick>
  /* USER CODE BEGIN SysTick_IRQn 1 */

  /* USER CODE END SysTick_IRQn 1 */
}
 800243a:	bf00      	nop
 800243c:	bd80      	pop	{r7, pc}
	...

08002440 <CAN1_RX0_IRQHandler>:

/**
  * @brief This function handles CAN1 RX0 interrupt.
  */
void CAN1_RX0_IRQHandler(void)
{
 8002440:	b580      	push	{r7, lr}
 8002442:	af00      	add	r7, sp, #0
  /* USER CODE BEGIN CAN1_RX0_IRQn 0 */

  /* USER CODE END CAN1_RX0_IRQn 0 */
  HAL_CAN_IRQHandler(&hcan1);
 8002444:	4802      	ldr	r0, [pc, #8]	@ (8002450 <CAN1_RX0_IRQHandler+0x10>)
 8002446:	f001 faba 	bl	80039be <HAL_CAN_IRQHandler>
  /* USER CODE BEGIN CAN1_RX0_IRQn 1 */

  /* USER CODE END CAN1_RX0_IRQn 1 */
}
 800244a:	bf00      	nop
 800244c:	bd80      	pop	{r7, pc}
 800244e:	bf00      	nop
 8002450:	200002a4 	.word	0x200002a4

08002454 <CAN1_RX1_IRQHandler>:

/**
  * @brief This function handles CAN1 RX1 interrupt.
  */
void CAN1_RX1_IRQHandler(void)
{
 8002454:	b580      	push	{r7, lr}
 8002456:	af00      	add	r7, sp, #0
  /* USER CODE BEGIN CAN1_RX1_IRQn 0 */

  /* USER CODE END CAN1_RX1_IRQn 0 */
  HAL_CAN_IRQHandler(&hcan1);
 8002458:	4802      	ldr	r0, [pc, #8]	@ (8002464 <CAN1_RX1_IRQHandler+0x10>)
 800245a:	f001 fab0 	bl	80039be <HAL_CAN_IRQHandler>
  /* USER CODE BEGIN CAN1_RX1_IRQn 1 */

  /* USER CODE END CAN1_RX1_IRQn 1 */
}
 800245e:	bf00      	nop
 8002460:	bd80      	pop	{r7, pc}
 8002462:	bf00      	nop
 8002464:	200002a4 	.word	0x200002a4

08002468 <_getpid>:
void initialise_monitor_handles()
{
}

int _getpid(void)
{
 8002468:	b480      	push	{r7}
 800246a:	af00      	add	r7, sp, #0
  return 1;
 800246c:	2301      	movs	r3, #1
}
 800246e:	4618      	mov	r0, r3
 8002470:	46bd      	mov	sp, r7
 8002472:	f85d 7b04 	ldr.w	r7, [sp], #4
 8002476:	4770      	bx	lr

08002478 <_kill>:

int _kill(int pid, int sig)
{
 8002478:	b580      	push	{r7, lr}
 800247a:	b082      	sub	sp, #8
 800247c:	af00      	add	r7, sp, #0
 800247e:	6078      	str	r0, [r7, #4]
 8002480:	6039      	str	r1, [r7, #0]
  (void)pid;
  (void)sig;
  errno = EINVAL;
 8002482:	f004 f933 	bl	80066ec <__errno>
 8002486:	4603      	mov	r3, r0
 8002488:	2216      	movs	r2, #22
 800248a:	601a      	str	r2, [r3, #0]
  return -1;
 800248c:	f04f 33ff 	mov.w	r3, #4294967295	@ 0xffffffff
}
 8002490:	4618      	mov	r0, r3
 8002492:	3708      	adds	r7, #8
 8002494:	46bd      	mov	sp, r7
 8002496:	bd80      	pop	{r7, pc}

08002498 <_exit>:

void _exit (int status)
{
 8002498:	b580      	push	{r7, lr}
 800249a:	b082      	sub	sp, #8
 800249c:	af00      	add	r7, sp, #0
 800249e:	6078      	str	r0, [r7, #4]
  _kill(status, -1);
 80024a0:	f04f 31ff 	mov.w	r1, #4294967295	@ 0xffffffff
 80024a4:	6878      	ldr	r0, [r7, #4]
 80024a6:	f7ff ffe7 	bl	8002478 <_kill>
  while (1) {}    /* Make sure we hang here */
 80024aa:	bf00      	nop
 80024ac:	e7fd      	b.n	80024aa <_exit+0x12>

080024ae <_read>:
}

__attribute__((weak)) int _read(int file, char *ptr, int len)
{
 80024ae:	b580      	push	{r7, lr}
 80024b0:	b086      	sub	sp, #24
 80024b2:	af00      	add	r7, sp, #0
 80024b4:	60f8      	str	r0, [r7, #12]
 80024b6:	60b9      	str	r1, [r7, #8]
 80024b8:	607a      	str	r2, [r7, #4]
  (void)file;
  int DataIdx;

  for (DataIdx = 0; DataIdx < len; DataIdx++)
 80024ba:	2300      	movs	r3, #0
 80024bc:	617b      	str	r3, [r7, #20]
 80024be:	e00a      	b.n	80024d6 <_read+0x28>
  {
    *ptr++ = __io_getchar();
 80024c0:	f3af 8000 	nop.w
 80024c4:	4601      	mov	r1, r0
 80024c6:	68bb      	ldr	r3, [r7, #8]
 80024c8:	1c5a      	adds	r2, r3, #1
 80024ca:	60ba      	str	r2, [r7, #8]
 80024cc:	b2ca      	uxtb	r2, r1
 80024ce:	701a      	strb	r2, [r3, #0]
  for (DataIdx = 0; DataIdx < len; DataIdx++)
 80024d0:	697b      	ldr	r3, [r7, #20]
 80024d2:	3301      	adds	r3, #1
 80024d4:	617b      	str	r3, [r7, #20]
 80024d6:	697a      	ldr	r2, [r7, #20]
 80024d8:	687b      	ldr	r3, [r7, #4]
 80024da:	429a      	cmp	r2, r3
 80024dc:	dbf0      	blt.n	80024c0 <_read+0x12>
  }

  return len;
 80024de:	687b      	ldr	r3, [r7, #4]
}
 80024e0:	4618      	mov	r0, r3
 80024e2:	3718      	adds	r7, #24
 80024e4:	46bd      	mov	sp, r7
 80024e6:	bd80      	pop	{r7, pc}

080024e8 <_write>:

__attribute__((weak)) int _write(int file, char *ptr, int len)
{
 80024e8:	b580      	push	{r7, lr}
 80024ea:	b086      	sub	sp, #24
 80024ec:	af00      	add	r7, sp, #0
 80024ee:	60f8      	str	r0, [r7, #12]
 80024f0:	60b9      	str	r1, [r7, #8]
 80024f2:	607a      	str	r2, [r7, #4]
  (void)file;
  int DataIdx;

  for (DataIdx = 0; DataIdx < len; DataIdx++)
 80024f4:	2300      	movs	r3, #0
 80024f6:	617b      	str	r3, [r7, #20]
 80024f8:	e009      	b.n	800250e <_write+0x26>
  {
    __io_putchar(*ptr++);
 80024fa:	68bb      	ldr	r3, [r7, #8]
 80024fc:	1c5a      	adds	r2, r3, #1
 80024fe:	60ba      	str	r2, [r7, #8]
 8002500:	781b      	ldrb	r3, [r3, #0]
 8002502:	4618      	mov	r0, r3
 8002504:	f3af 8000 	nop.w
  for (DataIdx = 0; DataIdx < len; DataIdx++)
 8002508:	697b      	ldr	r3, [r7, #20]
 800250a:	3301      	adds	r3, #1
 800250c:	617b      	str	r3, [r7, #20]
 800250e:	697a      	ldr	r2, [r7, #20]
 8002510:	687b      	ldr	r3, [r7, #4]
 8002512:	429a      	cmp	r2, r3
 8002514:	dbf1      	blt.n	80024fa <_write+0x12>
  }
  return len;
 8002516:	687b      	ldr	r3, [r7, #4]
}
 8002518:	4618      	mov	r0, r3
 800251a:	3718      	adds	r7, #24
 800251c:	46bd      	mov	sp, r7
 800251e:	bd80      	pop	{r7, pc}

08002520 <_close>:

int _close(int file)
{
 8002520:	b480      	push	{r7}
 8002522:	b083      	sub	sp, #12
 8002524:	af00      	add	r7, sp, #0
 8002526:	6078      	str	r0, [r7, #4]
  (void)file;
  return -1;
 8002528:	f04f 33ff 	mov.w	r3, #4294967295	@ 0xffffffff
}
 800252c:	4618      	mov	r0, r3
 800252e:	370c      	adds	r7, #12
 8002530:	46bd      	mov	sp, r7
 8002532:	f85d 7b04 	ldr.w	r7, [sp], #4
 8002536:	4770      	bx	lr

08002538 <_fstat>:


int _fstat(int file, struct stat *st)
{
 8002538:	b480      	push	{r7}
 800253a:	b083      	sub	sp, #12
 800253c:	af00      	add	r7, sp, #0
 800253e:	6078      	str	r0, [r7, #4]
 8002540:	6039      	str	r1, [r7, #0]
  (void)file;
  st->st_mode = S_IFCHR;
 8002542:	683b      	ldr	r3, [r7, #0]
 8002544:	f44f 5200 	mov.w	r2, #8192	@ 0x2000
 8002548:	605a      	str	r2, [r3, #4]
  return 0;
 800254a:	2300      	movs	r3, #0
}
 800254c:	4618      	mov	r0, r3
 800254e:	370c      	adds	r7, #12
 8002550:	46bd      	mov	sp, r7
 8002552:	f85d 7b04 	ldr.w	r7, [sp], #4
 8002556:	4770      	bx	lr

08002558 <_isatty>:

int _isatty(int file)
{
 8002558:	b480      	push	{r7}
 800255a:	b083      	sub	sp, #12
 800255c:	af00      	add	r7, sp, #0
 800255e:	6078      	str	r0, [r7, #4]
  (void)file;
  return 1;
 8002560:	2301      	movs	r3, #1
}
 8002562:	4618      	mov	r0, r3
 8002564:	370c      	adds	r7, #12
 8002566:	46bd      	mov	sp, r7
 8002568:	f85d 7b04 	ldr.w	r7, [sp], #4
 800256c:	4770      	bx	lr

0800256e <_lseek>:

int _lseek(int file, int ptr, int dir)
{
 800256e:	b480      	push	{r7}
 8002570:	b085      	sub	sp, #20
 8002572:	af00      	add	r7, sp, #0
 8002574:	60f8      	str	r0, [r7, #12]
 8002576:	60b9      	str	r1, [r7, #8]
 8002578:	607a      	str	r2, [r7, #4]
  (void)file;
  (void)ptr;
  (void)dir;
  return 0;
 800257a:	2300      	movs	r3, #0
}
 800257c:	4618      	mov	r0, r3
 800257e:	3714      	adds	r7, #20
 8002580:	46bd      	mov	sp, r7
 8002582:	f85d 7b04 	ldr.w	r7, [sp], #4
 8002586:	4770      	bx	lr

08002588 <_sbrk>:
 *
 * @param incr Memory size
 * @return Pointer to allocated memory
 */
void *_sbrk(ptrdiff_t incr)
{
 8002588:	b580      	push	{r7, lr}
 800258a:	b086      	sub	sp, #24
 800258c:	af00      	add	r7, sp, #0
 800258e:	6078      	str	r0, [r7, #4]
  extern uint8_t _end; /* Symbol defined in the linker script */
  extern uint8_t _estack; /* Symbol defined in the linker script */
  extern uint32_t _Min_Stack_Size; /* Symbol defined in the linker script */
  const uint32_t stack_limit = (uint32_t)&_estack - (uint32_t)&_Min_Stack_Size;
 8002590:	4a14      	ldr	r2, [pc, #80]	@ (80025e4 <_sbrk+0x5c>)
 8002592:	4b15      	ldr	r3, [pc, #84]	@ (80025e8 <_sbrk+0x60>)
 8002594:	1ad3      	subs	r3, r2, r3
 8002596:	617b      	str	r3, [r7, #20]
  const uint8_t *max_heap = (uint8_t *)stack_limit;
 8002598:	697b      	ldr	r3, [r7, #20]
 800259a:	613b      	str	r3, [r7, #16]
  uint8_t *prev_heap_end;

  /* Initialize heap end at first call */
  if (NULL == __sbrk_heap_end)
 800259c:	4b13      	ldr	r3, [pc, #76]	@ (80025ec <_sbrk+0x64>)
 800259e:	681b      	ldr	r3, [r3, #0]
 80025a0:	2b00      	cmp	r3, #0
 80025a2:	d102      	bne.n	80025aa <_sbrk+0x22>
  {
    __sbrk_heap_end = &_end;
 80025a4:	4b11      	ldr	r3, [pc, #68]	@ (80025ec <_sbrk+0x64>)
 80025a6:	4a12      	ldr	r2, [pc, #72]	@ (80025f0 <_sbrk+0x68>)
 80025a8:	601a      	str	r2, [r3, #0]
  }

  /* Protect heap from growing into the reserved MSP stack */
  if (__sbrk_heap_end + incr > max_heap)
 80025aa:	4b10      	ldr	r3, [pc, #64]	@ (80025ec <_sbrk+0x64>)
 80025ac:	681a      	ldr	r2, [r3, #0]
 80025ae:	687b      	ldr	r3, [r7, #4]
 80025b0:	4413      	add	r3, r2
 80025b2:	693a      	ldr	r2, [r7, #16]
 80025b4:	429a      	cmp	r2, r3
 80025b6:	d207      	bcs.n	80025c8 <_sbrk+0x40>
  {
    errno = ENOMEM;
 80025b8:	f004 f898 	bl	80066ec <__errno>
 80025bc:	4603      	mov	r3, r0
 80025be:	220c      	movs	r2, #12
 80025c0:	601a      	str	r2, [r3, #0]
    return (void *)-1;
 80025c2:	f04f 33ff 	mov.w	r3, #4294967295	@ 0xffffffff
 80025c6:	e009      	b.n	80025dc <_sbrk+0x54>
  }

  prev_heap_end = __sbrk_heap_end;
 80025c8:	4b08      	ldr	r3, [pc, #32]	@ (80025ec <_sbrk+0x64>)
 80025ca:	681b      	ldr	r3, [r3, #0]
 80025cc:	60fb      	str	r3, [r7, #12]
  __sbrk_heap_end += incr;
 80025ce:	4b07      	ldr	r3, [pc, #28]	@ (80025ec <_sbrk+0x64>)
 80025d0:	681a      	ldr	r2, [r3, #0]
 80025d2:	687b      	ldr	r3, [r7, #4]
 80025d4:	4413      	add	r3, r2
 80025d6:	4a05      	ldr	r2, [pc, #20]	@ (80025ec <_sbrk+0x64>)
 80025d8:	6013      	str	r3, [r2, #0]

  return (void *)prev_heap_end;
 80025da:	68fb      	ldr	r3, [r7, #12]
}
 80025dc:	4618      	mov	r0, r3
 80025de:	3718      	adds	r7, #24
 80025e0:	46bd      	mov	sp, r7
 80025e2:	bd80      	pop	{r7, pc}
 80025e4:	20020000 	.word	0x20020000
 80025e8:	00000400 	.word	0x00000400
 80025ec:	20000368 	.word	0x20000368
 80025f0:	200004c0 	.word	0x200004c0

080025f4 <SystemInit>:
  *         configuration.
  * @param  None
  * @retval None
  */
void SystemInit(void)
{
 80025f4:	b480      	push	{r7}
 80025f6:	af00      	add	r7, sp, #0
  /* FPU settings ------------------------------------------------------------*/
  #if (__FPU_PRESENT == 1) && (__FPU_USED == 1)
    SCB->CPACR |= ((3UL << 10*2)|(3UL << 11*2));  /* set CP10 and CP11 Full Access */
 80025f8:	4b06      	ldr	r3, [pc, #24]	@ (8002614 <SystemInit+0x20>)
 80025fa:	f8d3 3088 	ldr.w	r3, [r3, #136]	@ 0x88
 80025fe:	4a05      	ldr	r2, [pc, #20]	@ (8002614 <SystemInit+0x20>)
 8002600:	f443 0370 	orr.w	r3, r3, #15728640	@ 0xf00000
 8002604:	f8c2 3088 	str.w	r3, [r2, #136]	@ 0x88

  /* Configure the Vector Table location -------------------------------------*/
#if defined(USER_VECT_TAB_ADDRESS)
  SCB->VTOR = VECT_TAB_BASE_ADDRESS | VECT_TAB_OFFSET; /* Vector Table Relocation in Internal SRAM */
#endif /* USER_VECT_TAB_ADDRESS */
}
 8002608:	bf00      	nop
 800260a:	46bd      	mov	sp, r7
 800260c:	f85d 7b04 	ldr.w	r7, [sp], #4
 8002610:	4770      	bx	lr
 8002612:	bf00      	nop
 8002614:	e000ed00 	.word	0xe000ed00

08002618 <Reset_Handler>:

    .section  .text.Reset_Handler
  .weak  Reset_Handler
  .type  Reset_Handler, %function
Reset_Handler:  
  ldr   sp, =_estack      /* set stack pointer */
 8002618:	f8df d034 	ldr.w	sp, [pc, #52]	@ 8002650 <LoopFillZerobss+0xe>
  
/* Call the clock system initialization function.*/
  bl  SystemInit  
 800261c:	f7ff ffea 	bl	80025f4 <SystemInit>

/* Copy the data segment initializers from flash to SRAM */  
  ldr r0, =_sdata
 8002620:	480c      	ldr	r0, [pc, #48]	@ (8002654 <LoopFillZerobss+0x12>)
  ldr r1, =_edata
 8002622:	490d      	ldr	r1, [pc, #52]	@ (8002658 <LoopFillZerobss+0x16>)
  ldr r2, =_sidata
 8002624:	4a0d      	ldr	r2, [pc, #52]	@ (800265c <LoopFillZerobss+0x1a>)
  movs r3, #0
 8002626:	2300      	movs	r3, #0
  b LoopCopyDataInit
 8002628:	e002      	b.n	8002630 <LoopCopyDataInit>

0800262a <CopyDataInit>:

CopyDataInit:
  ldr r4, [r2, r3]
 800262a:	58d4      	ldr	r4, [r2, r3]
  str r4, [r0, r3]
 800262c:	50c4      	str	r4, [r0, r3]
  adds r3, r3, #4
 800262e:	3304      	adds	r3, #4

08002630 <LoopCopyDataInit>:

LoopCopyDataInit:
  adds r4, r0, r3
 8002630:	18c4      	adds	r4, r0, r3
  cmp r4, r1
 8002632:	428c      	cmp	r4, r1
  bcc CopyDataInit
 8002634:	d3f9      	bcc.n	800262a <CopyDataInit>
  
/* Zero fill the bss segment. */
  ldr r2, =_sbss
 8002636:	4a0a      	ldr	r2, [pc, #40]	@ (8002660 <LoopFillZerobss+0x1e>)
  ldr r4, =_ebss
 8002638:	4c0a      	ldr	r4, [pc, #40]	@ (8002664 <LoopFillZerobss+0x22>)
  movs r3, #0
 800263a:	2300      	movs	r3, #0
  b LoopFillZerobss
 800263c:	e001      	b.n	8002642 <LoopFillZerobss>

0800263e <FillZerobss>:

FillZerobss:
  str  r3, [r2]
 800263e:	6013      	str	r3, [r2, #0]
  adds r2, r2, #4
 8002640:	3204      	adds	r2, #4

08002642 <LoopFillZerobss>:

LoopFillZerobss:
  cmp r2, r4
 8002642:	42a2      	cmp	r2, r4
  bcc FillZerobss
 8002644:	d3fb      	bcc.n	800263e <FillZerobss>
  
/* Call static constructors */
    bl __libc_init_array
 8002646:	f004 f857 	bl	80066f8 <__libc_init_array>
/* Call the application's entry point.*/
  bl  main
 800264a:	f7ff fb65 	bl	8001d18 <main>
  bx  lr    
 800264e:	4770      	bx	lr
  ldr   sp, =_estack      /* set stack pointer */
 8002650:	20020000 	.word	0x20020000
  ldr r0, =_sdata
 8002654:	20000000 	.word	0x20000000
  ldr r1, =_edata
 8002658:	200001d4 	.word	0x200001d4
  ldr r2, =_sidata
 800265c:	08008c60 	.word	0x08008c60
  ldr r2, =_sbss
 8002660:	200001d4 	.word	0x200001d4
  ldr r4, =_ebss
 8002664:	200004bc 	.word	0x200004bc

08002668 <ADC_IRQHandler>:
 * @retval None       
*/
    .section  .text.Default_Handler,"ax",%progbits
Default_Handler:
Infinite_Loop:
  b  Infinite_Loop
 8002668:	e7fe      	b.n	8002668 <ADC_IRQHandler>
	...

0800266c <HAL_Init>:
  *         need to ensure that the SysTick time base is always set to 1 millisecond
  *         to have correct HAL operation.
  * @retval HAL status
  */
HAL_StatusTypeDef HAL_Init(void)
{
 800266c:	b580      	push	{r7, lr}
 800266e:	af00      	add	r7, sp, #0
  /* Configure Flash prefetch, Instruction cache, Data cache */ 
#if (INSTRUCTION_CACHE_ENABLE != 0U)
  __HAL_FLASH_INSTRUCTION_CACHE_ENABLE();
 8002670:	4b0e      	ldr	r3, [pc, #56]	@ (80026ac <HAL_Init+0x40>)
 8002672:	681b      	ldr	r3, [r3, #0]
 8002674:	4a0d      	ldr	r2, [pc, #52]	@ (80026ac <HAL_Init+0x40>)
 8002676:	f443 7300 	orr.w	r3, r3, #512	@ 0x200
 800267a:	6013      	str	r3, [r2, #0]
#endif /* INSTRUCTION_CACHE_ENABLE */

#if (DATA_CACHE_ENABLE != 0U)
  __HAL_FLASH_DATA_CACHE_ENABLE();
 800267c:	4b0b      	ldr	r3, [pc, #44]	@ (80026ac <HAL_Init+0x40>)
 800267e:	681b      	ldr	r3, [r3, #0]
 8002680:	4a0a      	ldr	r2, [pc, #40]	@ (80026ac <HAL_Init+0x40>)
 8002682:	f443 6380 	orr.w	r3, r3, #1024	@ 0x400
 8002686:	6013      	str	r3, [r2, #0]
#endif /* DATA_CACHE_ENABLE */

#if (PREFETCH_ENABLE != 0U)
  __HAL_FLASH_PREFETCH_BUFFER_ENABLE();
 8002688:	4b08      	ldr	r3, [pc, #32]	@ (80026ac <HAL_Init+0x40>)
 800268a:	681b      	ldr	r3, [r3, #0]
 800268c:	4a07      	ldr	r2, [pc, #28]	@ (80026ac <HAL_Init+0x40>)
 800268e:	f443 7380 	orr.w	r3, r3, #256	@ 0x100
 8002692:	6013      	str	r3, [r2, #0]
#endif /* PREFETCH_ENABLE */

  /* Set Interrupt Group Priority */
  HAL_NVIC_SetPriorityGrouping(NVIC_PRIORITYGROUP_4);
 8002694:	2003      	movs	r0, #3
 8002696:	f001 fc91 	bl	8003fbc <HAL_NVIC_SetPriorityGrouping>

  /* Use systick as time base source and configure 1ms tick (default clock after Reset is HSI) */
  HAL_InitTick(TICK_INT_PRIORITY);
 800269a:	2000      	movs	r0, #0
 800269c:	f000 f808 	bl	80026b0 <HAL_InitTick>

  /* Init the low level hardware */
  HAL_MspInit();
 80026a0:	f7ff fd2e 	bl	8002100 <HAL_MspInit>

  /* Return function status */
  return HAL_OK;
 80026a4:	2300      	movs	r3, #0
}
 80026a6:	4618      	mov	r0, r3
 80026a8:	bd80      	pop	{r7, pc}
 80026aa:	bf00      	nop
 80026ac:	40023c00 	.word	0x40023c00

080026b0 <HAL_InitTick>:
  *       implementation  in user file.
  * @param TickPriority Tick interrupt priority.
  * @retval HAL status
  */
__weak HAL_StatusTypeDef HAL_InitTick(uint32_t TickPriority)
{
 80026b0:	b580      	push	{r7, lr}
 80026b2:	b082      	sub	sp, #8
 80026b4:	af00      	add	r7, sp, #0
 80026b6:	6078      	str	r0, [r7, #4]
  /* Configure the SysTick to have interrupt in 1ms time basis*/
  if (HAL_SYSTICK_Config(SystemCoreClock / (1000U / uwTickFreq)) > 0U)
 80026b8:	4b12      	ldr	r3, [pc, #72]	@ (8002704 <HAL_InitTick+0x54>)
 80026ba:	681a      	ldr	r2, [r3, #0]
 80026bc:	4b12      	ldr	r3, [pc, #72]	@ (8002708 <HAL_InitTick+0x58>)
 80026be:	781b      	ldrb	r3, [r3, #0]
 80026c0:	4619      	mov	r1, r3
 80026c2:	f44f 737a 	mov.w	r3, #1000	@ 0x3e8
 80026c6:	fbb3 f3f1 	udiv	r3, r3, r1
 80026ca:	fbb2 f3f3 	udiv	r3, r2, r3
 80026ce:	4618      	mov	r0, r3
 80026d0:	f001 fca9 	bl	8004026 <HAL_SYSTICK_Config>
 80026d4:	4603      	mov	r3, r0
 80026d6:	2b00      	cmp	r3, #0
 80026d8:	d001      	beq.n	80026de <HAL_InitTick+0x2e>
  {
    return HAL_ERROR;
 80026da:	2301      	movs	r3, #1
 80026dc:	e00e      	b.n	80026fc <HAL_InitTick+0x4c>
  }

  /* Configure the SysTick IRQ priority */
  if (TickPriority < (1UL << __NVIC_PRIO_BITS))
 80026de:	687b      	ldr	r3, [r7, #4]
 80026e0:	2b0f      	cmp	r3, #15
 80026e2:	d80a      	bhi.n	80026fa <HAL_InitTick+0x4a>
  {
    HAL_NVIC_SetPriority(SysTick_IRQn, TickPriority, 0U);
 80026e4:	2200      	movs	r2, #0
 80026e6:	6879      	ldr	r1, [r7, #4]
 80026e8:	f04f 30ff 	mov.w	r0, #4294967295	@ 0xffffffff
 80026ec:	f001 fc71 	bl	8003fd2 <HAL_NVIC_SetPriority>
    uwTickPrio = TickPriority;
 80026f0:	4a06      	ldr	r2, [pc, #24]	@ (800270c <HAL_InitTick+0x5c>)
 80026f2:	687b      	ldr	r3, [r7, #4]
 80026f4:	6013      	str	r3, [r2, #0]
  {
    return HAL_ERROR;
  }

  /* Return function status */
  return HAL_OK;
 80026f6:	2300      	movs	r3, #0
 80026f8:	e000      	b.n	80026fc <HAL_InitTick+0x4c>
    return HAL_ERROR;
 80026fa:	2301      	movs	r3, #1
}
 80026fc:	4618      	mov	r0, r3
 80026fe:	3708      	adds	r7, #8
 8002700:	46bd      	mov	sp, r7
 8002702:	bd80      	pop	{r7, pc}
 8002704:	20000000 	.word	0x20000000
 8002708:	20000008 	.word	0x20000008
 800270c:	20000004 	.word	0x20000004

08002710 <HAL_IncTick>:
 * @note This function is declared as __weak to be overwritten in case of other 
  *      implementations in user file.
  * @retval None
  */
__weak void HAL_IncTick(void)
{
 8002710:	b480      	push	{r7}
 8002712:	af00      	add	r7, sp, #0
  uwTick += uwTickFreq;
 8002714:	4b06      	ldr	r3, [pc, #24]	@ (8002730 <HAL_IncTick+0x20>)
 8002716:	781b      	ldrb	r3, [r3, #0]
 8002718:	461a      	mov	r2, r3
 800271a:	4b06      	ldr	r3, [pc, #24]	@ (8002734 <HAL_IncTick+0x24>)
 800271c:	681b      	ldr	r3, [r3, #0]
 800271e:	4413      	add	r3, r2
 8002720:	4a04      	ldr	r2, [pc, #16]	@ (8002734 <HAL_IncTick+0x24>)
 8002722:	6013      	str	r3, [r2, #0]
}
 8002724:	bf00      	nop
 8002726:	46bd      	mov	sp, r7
 8002728:	f85d 7b04 	ldr.w	r7, [sp], #4
 800272c:	4770      	bx	lr
 800272e:	bf00      	nop
 8002730:	20000008 	.word	0x20000008
 8002734:	2000036c 	.word	0x2000036c

08002738 <HAL_GetTick>:
  * @note This function is declared as __weak to be overwritten in case of other 
  *       implementations in user file.
  * @retval tick value
  */
__weak uint32_t HAL_GetTick(void)
{
 8002738:	b480      	push	{r7}
 800273a:	af00      	add	r7, sp, #0
  return uwTick;
 800273c:	4b03      	ldr	r3, [pc, #12]	@ (800274c <HAL_GetTick+0x14>)
 800273e:	681b      	ldr	r3, [r3, #0]
}
 8002740:	4618      	mov	r0, r3
 8002742:	46bd      	mov	sp, r7
 8002744:	f85d 7b04 	ldr.w	r7, [sp], #4
 8002748:	4770      	bx	lr
 800274a:	bf00      	nop
 800274c:	2000036c 	.word	0x2000036c

08002750 <HAL_Delay>:
  *       implementations in user file.
  * @param Delay specifies the delay time length, in milliseconds.
  * @retval None
  */
__weak void HAL_Delay(uint32_t Delay)
{
 8002750:	b580      	push	{r7, lr}
 8002752:	b084      	sub	sp, #16
 8002754:	af00      	add	r7, sp, #0
 8002756:	6078      	str	r0, [r7, #4]
  uint32_t tickstart = HAL_GetTick();
 8002758:	f7ff ffee 	bl	8002738 <HAL_GetTick>
 800275c:	60b8      	str	r0, [r7, #8]
  uint32_t wait = Delay;
 800275e:	687b      	ldr	r3, [r7, #4]
 8002760:	60fb      	str	r3, [r7, #12]

  /* Add a freq to guarantee minimum wait */
  if (wait < HAL_MAX_DELAY)
 8002762:	68fb      	ldr	r3, [r7, #12]
 8002764:	f1b3 3fff 	cmp.w	r3, #4294967295	@ 0xffffffff
 8002768:	d005      	beq.n	8002776 <HAL_Delay+0x26>
  {
    wait += (uint32_t)(uwTickFreq);
 800276a:	4b0a      	ldr	r3, [pc, #40]	@ (8002794 <HAL_Delay+0x44>)
 800276c:	781b      	ldrb	r3, [r3, #0]
 800276e:	461a      	mov	r2, r3
 8002770:	68fb      	ldr	r3, [r7, #12]
 8002772:	4413      	add	r3, r2
 8002774:	60fb      	str	r3, [r7, #12]
  }

  while((HAL_GetTick() - tickstart) < wait)
 8002776:	bf00      	nop
 8002778:	f7ff ffde 	bl	8002738 <HAL_GetTick>
 800277c:	4602      	mov	r2, r0
 800277e:	68bb      	ldr	r3, [r7, #8]
 8002780:	1ad3      	subs	r3, r2, r3
 8002782:	68fa      	ldr	r2, [r7, #12]
 8002784:	429a      	cmp	r2, r3
 8002786:	d8f7      	bhi.n	8002778 <HAL_Delay+0x28>
  {
  }
}
 8002788:	bf00      	nop
 800278a:	bf00      	nop
 800278c:	3710      	adds	r7, #16
 800278e:	46bd      	mov	sp, r7
 8002790:	bd80      	pop	{r7, pc}
 8002792:	bf00      	nop
 8002794:	20000008 	.word	0x20000008

08002798 <HAL_ADC_Init>:
  * @param  hadc pointer to a ADC_HandleTypeDef structure that contains
  *         the configuration information for the specified ADC.
  * @retval HAL status
  */
HAL_StatusTypeDef HAL_ADC_Init(ADC_HandleTypeDef *hadc)
{
 8002798:	b580      	push	{r7, lr}
 800279a:	b084      	sub	sp, #16
 800279c:	af00      	add	r7, sp, #0
 800279e:	6078      	str	r0, [r7, #4]
  HAL_StatusTypeDef tmp_hal_status = HAL_OK;
 80027a0:	2300      	movs	r3, #0
 80027a2:	73fb      	strb	r3, [r7, #15]

  /* Check ADC handle */
  if (hadc == NULL)
 80027a4:	687b      	ldr	r3, [r7, #4]
 80027a6:	2b00      	cmp	r3, #0
 80027a8:	d101      	bne.n	80027ae <HAL_ADC_Init+0x16>
  {
    return HAL_ERROR;
 80027aa:	2301      	movs	r3, #1
 80027ac:	e033      	b.n	8002816 <HAL_ADC_Init+0x7e>
  if (hadc->Init.ExternalTrigConv != ADC_SOFTWARE_START)
  {
    assert_param(IS_ADC_EXT_TRIG_EDGE(hadc->Init.ExternalTrigConvEdge));
  }

  if (hadc->State == HAL_ADC_STATE_RESET)
 80027ae:	687b      	ldr	r3, [r7, #4]
 80027b0:	6c1b      	ldr	r3, [r3, #64]	@ 0x40
 80027b2:	2b00      	cmp	r3, #0
 80027b4:	d109      	bne.n	80027ca <HAL_ADC_Init+0x32>

    /* Init the low level hardware */
    hadc->MspInitCallback(hadc);
#else
    /* Init the low level hardware */
    HAL_ADC_MspInit(hadc);
 80027b6:	6878      	ldr	r0, [r7, #4]
 80027b8:	f7ff fcca 	bl	8002150 <HAL_ADC_MspInit>
#endif /* USE_HAL_ADC_REGISTER_CALLBACKS */

    /* Initialize ADC error code */
    ADC_CLEAR_ERRORCODE(hadc);
 80027bc:	687b      	ldr	r3, [r7, #4]
 80027be:	2200      	movs	r2, #0
 80027c0:	645a      	str	r2, [r3, #68]	@ 0x44

    /* Allocate lock resource and initialize it */
    hadc->Lock = HAL_UNLOCKED;
 80027c2:	687b      	ldr	r3, [r7, #4]
 80027c4:	2200      	movs	r2, #0
 80027c6:	f883 203c 	strb.w	r2, [r3, #60]	@ 0x3c
  }

  /* Configuration of ADC parameters if previous preliminary actions are      */
  /* correctly completed.                                                     */
  if (HAL_IS_BIT_CLR(hadc->State, HAL_ADC_STATE_ERROR_INTERNAL))
 80027ca:	687b      	ldr	r3, [r7, #4]
 80027cc:	6c1b      	ldr	r3, [r3, #64]	@ 0x40
 80027ce:	f003 0310 	and.w	r3, r3, #16
 80027d2:	2b00      	cmp	r3, #0
 80027d4:	d118      	bne.n	8002808 <HAL_ADC_Init+0x70>
  {
    /* Set ADC state */
    ADC_STATE_CLR_SET(hadc->State,
 80027d6:	687b      	ldr	r3, [r7, #4]
 80027d8:	6c1b      	ldr	r3, [r3, #64]	@ 0x40
 80027da:	f423 5388 	bic.w	r3, r3, #4352	@ 0x1100
 80027de:	f023 0302 	bic.w	r3, r3, #2
 80027e2:	f043 0202 	orr.w	r2, r3, #2
 80027e6:	687b      	ldr	r3, [r7, #4]
 80027e8:	641a      	str	r2, [r3, #64]	@ 0x40
                      HAL_ADC_STATE_REG_BUSY | HAL_ADC_STATE_INJ_BUSY,
                      HAL_ADC_STATE_BUSY_INTERNAL);

    /* Set ADC parameters */
    ADC_Init(hadc);
 80027ea:	6878      	ldr	r0, [r7, #4]
 80027ec:	f000 fab4 	bl	8002d58 <ADC_Init>

    /* Set ADC error code to none */
    ADC_CLEAR_ERRORCODE(hadc);
 80027f0:	687b      	ldr	r3, [r7, #4]
 80027f2:	2200      	movs	r2, #0
 80027f4:	645a      	str	r2, [r3, #68]	@ 0x44

    /* Set the ADC state */
    ADC_STATE_CLR_SET(hadc->State,
 80027f6:	687b      	ldr	r3, [r7, #4]
 80027f8:	6c1b      	ldr	r3, [r3, #64]	@ 0x40
 80027fa:	f023 0303 	bic.w	r3, r3, #3
 80027fe:	f043 0201 	orr.w	r2, r3, #1
 8002802:	687b      	ldr	r3, [r7, #4]
 8002804:	641a      	str	r2, [r3, #64]	@ 0x40
 8002806:	e001      	b.n	800280c <HAL_ADC_Init+0x74>
                      HAL_ADC_STATE_BUSY_INTERNAL,
                      HAL_ADC_STATE_READY);
  }
  else
  {
    tmp_hal_status = HAL_ERROR;
 8002808:	2301      	movs	r3, #1
 800280a:	73fb      	strb	r3, [r7, #15]
  }

  /* Release Lock */
  __HAL_UNLOCK(hadc);
 800280c:	687b      	ldr	r3, [r7, #4]
 800280e:	2200      	movs	r2, #0
 8002810:	f883 203c 	strb.w	r2, [r3, #60]	@ 0x3c

  /* Return function status */
  return tmp_hal_status;
 8002814:	7bfb      	ldrb	r3, [r7, #15]
}
 8002816:	4618      	mov	r0, r3
 8002818:	3710      	adds	r7, #16
 800281a:	46bd      	mov	sp, r7
 800281c:	bd80      	pop	{r7, pc}
	...

08002820 <HAL_ADC_Start>:
  * @param  hadc pointer to a ADC_HandleTypeDef structure that contains
  *         the configuration information for the specified ADC.
  * @retval HAL status
  */
HAL_StatusTypeDef HAL_ADC_Start(ADC_HandleTypeDef *hadc)
{
 8002820:	b480      	push	{r7}
 8002822:	b085      	sub	sp, #20
 8002824:	af00      	add	r7, sp, #0
 8002826:	6078      	str	r0, [r7, #4]
  __IO uint32_t counter = 0U;
 8002828:	2300      	movs	r3, #0
 800282a:	60bb      	str	r3, [r7, #8]
  /* Check the parameters */
  assert_param(IS_FUNCTIONAL_STATE(hadc->Init.ContinuousConvMode));
  assert_param(IS_ADC_EXT_TRIG_EDGE(hadc->Init.ExternalTrigConvEdge));

  /* Process locked */
  __HAL_LOCK(hadc);
 800282c:	687b      	ldr	r3, [r7, #4]
 800282e:	f893 303c 	ldrb.w	r3, [r3, #60]	@ 0x3c
 8002832:	2b01      	cmp	r3, #1
 8002834:	d101      	bne.n	800283a <HAL_ADC_Start+0x1a>
 8002836:	2302      	movs	r3, #2
 8002838:	e0b2      	b.n	80029a0 <HAL_ADC_Start+0x180>
 800283a:	687b      	ldr	r3, [r7, #4]
 800283c:	2201      	movs	r2, #1
 800283e:	f883 203c 	strb.w	r2, [r3, #60]	@ 0x3c

  /* Enable the ADC peripheral */
  /* Check if ADC peripheral is disabled in order to enable it and wait during
  Tstab time the ADC's stabilization */
  if ((hadc->Instance->CR2 & ADC_CR2_ADON) != ADC_CR2_ADON)
 8002842:	687b      	ldr	r3, [r7, #4]
 8002844:	681b      	ldr	r3, [r3, #0]
 8002846:	689b      	ldr	r3, [r3, #8]
 8002848:	f003 0301 	and.w	r3, r3, #1
 800284c:	2b01      	cmp	r3, #1
 800284e:	d018      	beq.n	8002882 <HAL_ADC_Start+0x62>
  {
    /* Enable the Peripheral */
    __HAL_ADC_ENABLE(hadc);
 8002850:	687b      	ldr	r3, [r7, #4]
 8002852:	681b      	ldr	r3, [r3, #0]
 8002854:	689a      	ldr	r2, [r3, #8]
 8002856:	687b      	ldr	r3, [r7, #4]
 8002858:	681b      	ldr	r3, [r3, #0]
 800285a:	f042 0201 	orr.w	r2, r2, #1
 800285e:	609a      	str	r2, [r3, #8]

    /* Delay for ADC stabilization time */
    /* Compute number of CPU cycles to wait for */
    counter = (ADC_STAB_DELAY_US * (SystemCoreClock / 1000000U));
 8002860:	4b52      	ldr	r3, [pc, #328]	@ (80029ac <HAL_ADC_Start+0x18c>)
 8002862:	681b      	ldr	r3, [r3, #0]
 8002864:	4a52      	ldr	r2, [pc, #328]	@ (80029b0 <HAL_ADC_Start+0x190>)
 8002866:	fba2 2303 	umull	r2, r3, r2, r3
 800286a:	0c9a      	lsrs	r2, r3, #18
 800286c:	4613      	mov	r3, r2
 800286e:	005b      	lsls	r3, r3, #1
 8002870:	4413      	add	r3, r2
 8002872:	60bb      	str	r3, [r7, #8]
    while (counter != 0U)
 8002874:	e002      	b.n	800287c <HAL_ADC_Start+0x5c>
    {
      counter--;
 8002876:	68bb      	ldr	r3, [r7, #8]
 8002878:	3b01      	subs	r3, #1
 800287a:	60bb      	str	r3, [r7, #8]
    while (counter != 0U)
 800287c:	68bb      	ldr	r3, [r7, #8]
 800287e:	2b00      	cmp	r3, #0
 8002880:	d1f9      	bne.n	8002876 <HAL_ADC_Start+0x56>
    }
  }

  /* Start conversion if ADC is effectively enabled */
  if (HAL_IS_BIT_SET(hadc->Instance->CR2, ADC_CR2_ADON))
 8002882:	687b      	ldr	r3, [r7, #4]
 8002884:	681b      	ldr	r3, [r3, #0]
 8002886:	689b      	ldr	r3, [r3, #8]
 8002888:	f003 0301 	and.w	r3, r3, #1
 800288c:	2b01      	cmp	r3, #1
 800288e:	d17a      	bne.n	8002986 <HAL_ADC_Start+0x166>
  {
    /* Set ADC state                                                          */
    /* - Clear state bitfield related to regular group conversion results     */
    /* - Set state bitfield related to regular group operation                */
    ADC_STATE_CLR_SET(hadc->State,
 8002890:	687b      	ldr	r3, [r7, #4]
 8002892:	6c1b      	ldr	r3, [r3, #64]	@ 0x40
 8002894:	f423 63e0 	bic.w	r3, r3, #1792	@ 0x700
 8002898:	f023 0301 	bic.w	r3, r3, #1
 800289c:	f443 7280 	orr.w	r2, r3, #256	@ 0x100
 80028a0:	687b      	ldr	r3, [r7, #4]
 80028a2:	641a      	str	r2, [r3, #64]	@ 0x40
                      HAL_ADC_STATE_READY | HAL_ADC_STATE_REG_EOC | HAL_ADC_STATE_REG_OVR,
                      HAL_ADC_STATE_REG_BUSY);

    /* If conversions on group regular are also triggering group injected,    */
    /* update ADC state.                                                      */
    if (READ_BIT(hadc->Instance->CR1, ADC_CR1_JAUTO) != RESET)
 80028a4:	687b      	ldr	r3, [r7, #4]
 80028a6:	681b      	ldr	r3, [r3, #0]
 80028a8:	685b      	ldr	r3, [r3, #4]
 80028aa:	f403 6380 	and.w	r3, r3, #1024	@ 0x400
 80028ae:	2b00      	cmp	r3, #0
 80028b0:	d007      	beq.n	80028c2 <HAL_ADC_Start+0xa2>
    {
      ADC_STATE_CLR_SET(hadc->State, HAL_ADC_STATE_INJ_EOC, HAL_ADC_STATE_INJ_BUSY);
 80028b2:	687b      	ldr	r3, [r7, #4]
 80028b4:	6c1b      	ldr	r3, [r3, #64]	@ 0x40
 80028b6:	f423 5340 	bic.w	r3, r3, #12288	@ 0x3000
 80028ba:	f443 5280 	orr.w	r2, r3, #4096	@ 0x1000
 80028be:	687b      	ldr	r3, [r7, #4]
 80028c0:	641a      	str	r2, [r3, #64]	@ 0x40
    }

    /* State machine update: Check if an injected conversion is ongoing */
    if (HAL_IS_BIT_SET(hadc->State, HAL_ADC_STATE_INJ_BUSY))
 80028c2:	687b      	ldr	r3, [r7, #4]
 80028c4:	6c1b      	ldr	r3, [r3, #64]	@ 0x40
 80028c6:	f403 5380 	and.w	r3, r3, #4096	@ 0x1000
 80028ca:	f5b3 5f80 	cmp.w	r3, #4096	@ 0x1000
 80028ce:	d106      	bne.n	80028de <HAL_ADC_Start+0xbe>
    {
      /* Reset ADC error code fields related to conversions on group regular */
      CLEAR_BIT(hadc->ErrorCode, (HAL_ADC_ERROR_OVR | HAL_ADC_ERROR_DMA));
 80028d0:	687b      	ldr	r3, [r7, #4]
 80028d2:	6c5b      	ldr	r3, [r3, #68]	@ 0x44
 80028d4:	f023 0206 	bic.w	r2, r3, #6
 80028d8:	687b      	ldr	r3, [r7, #4]
 80028da:	645a      	str	r2, [r3, #68]	@ 0x44
 80028dc:	e002      	b.n	80028e4 <HAL_ADC_Start+0xc4>
    }
    else
    {
      /* Reset ADC all error code fields */
      ADC_CLEAR_ERRORCODE(hadc);
 80028de:	687b      	ldr	r3, [r7, #4]
 80028e0:	2200      	movs	r2, #0
 80028e2:	645a      	str	r2, [r3, #68]	@ 0x44
    }

    /* Process unlocked */
    /* Unlock before starting ADC conversions: in case of potential           */
    /* interruption, to let the process to ADC IRQ Handler.                   */
    __HAL_UNLOCK(hadc);
 80028e4:	687b      	ldr	r3, [r7, #4]
 80028e6:	2200      	movs	r2, #0
 80028e8:	f883 203c 	strb.w	r2, [r3, #60]	@ 0x3c

    /* Pointer to the common control register to which is belonging hadc    */
    /* (Depending on STM32F4 product, there may be up to 3 ADCs and 1 common */
    /* control register)                                                    */
    tmpADC_Common = ADC_COMMON_REGISTER(hadc);
 80028ec:	4b31      	ldr	r3, [pc, #196]	@ (80029b4 <HAL_ADC_Start+0x194>)
 80028ee:	60fb      	str	r3, [r7, #12]

    /* Clear regular group conversion flag and overrun flag */
    /* (To ensure of no unknown state from potential previous ADC operations) */
    __HAL_ADC_CLEAR_FLAG(hadc, ADC_FLAG_EOC | ADC_FLAG_OVR);
 80028f0:	687b      	ldr	r3, [r7, #4]
 80028f2:	681b      	ldr	r3, [r3, #0]
 80028f4:	f06f 0222 	mvn.w	r2, #34	@ 0x22
 80028f8:	601a      	str	r2, [r3, #0]

    /* Check if Multimode enabled */
    if (HAL_IS_BIT_CLR(tmpADC_Common->CCR, ADC_CCR_MULTI))
 80028fa:	68fb      	ldr	r3, [r7, #12]
 80028fc:	685b      	ldr	r3, [r3, #4]
 80028fe:	f003 031f 	and.w	r3, r3, #31
 8002902:	2b00      	cmp	r3, #0
 8002904:	d12a      	bne.n	800295c <HAL_ADC_Start+0x13c>
    {
#if defined(ADC2) && defined(ADC3)
      if ((hadc->Instance == ADC1) || ((hadc->Instance == ADC2) && ((ADC->CCR & ADC_CCR_MULTI_Msk) < ADC_CCR_MULTI_0)) \
 8002906:	687b      	ldr	r3, [r7, #4]
 8002908:	681b      	ldr	r3, [r3, #0]
 800290a:	4a2b      	ldr	r2, [pc, #172]	@ (80029b8 <HAL_ADC_Start+0x198>)
 800290c:	4293      	cmp	r3, r2
 800290e:	d015      	beq.n	800293c <HAL_ADC_Start+0x11c>
 8002910:	687b      	ldr	r3, [r7, #4]
 8002912:	681b      	ldr	r3, [r3, #0]
 8002914:	4a29      	ldr	r2, [pc, #164]	@ (80029bc <HAL_ADC_Start+0x19c>)
 8002916:	4293      	cmp	r3, r2
 8002918:	d105      	bne.n	8002926 <HAL_ADC_Start+0x106>
 800291a:	4b26      	ldr	r3, [pc, #152]	@ (80029b4 <HAL_ADC_Start+0x194>)
 800291c:	685b      	ldr	r3, [r3, #4]
 800291e:	f003 031f 	and.w	r3, r3, #31
 8002922:	2b00      	cmp	r3, #0
 8002924:	d00a      	beq.n	800293c <HAL_ADC_Start+0x11c>
          || ((hadc->Instance == ADC3) && ((ADC->CCR & ADC_CCR_MULTI_Msk) < ADC_CCR_MULTI_4)))
 8002926:	687b      	ldr	r3, [r7, #4]
 8002928:	681b      	ldr	r3, [r3, #0]
 800292a:	4a25      	ldr	r2, [pc, #148]	@ (80029c0 <HAL_ADC_Start+0x1a0>)
 800292c:	4293      	cmp	r3, r2
 800292e:	d136      	bne.n	800299e <HAL_ADC_Start+0x17e>
 8002930:	4b20      	ldr	r3, [pc, #128]	@ (80029b4 <HAL_ADC_Start+0x194>)
 8002932:	685b      	ldr	r3, [r3, #4]
 8002934:	f003 0310 	and.w	r3, r3, #16
 8002938:	2b00      	cmp	r3, #0
 800293a:	d130      	bne.n	800299e <HAL_ADC_Start+0x17e>
      {
#endif /* ADC2 || ADC3 */
        /* if no external trigger present enable software conversion of regular channels */
        if ((hadc->Instance->CR2 & ADC_CR2_EXTEN) == RESET)
 800293c:	687b      	ldr	r3, [r7, #4]
 800293e:	681b      	ldr	r3, [r3, #0]
 8002940:	689b      	ldr	r3, [r3, #8]
 8002942:	f003 5340 	and.w	r3, r3, #805306368	@ 0x30000000
 8002946:	2b00      	cmp	r3, #0
 8002948:	d129      	bne.n	800299e <HAL_ADC_Start+0x17e>
        {
          /* Enable the selected ADC software conversion for regular group */
          hadc->Instance->CR2 |= (uint32_t)ADC_CR2_SWSTART;
 800294a:	687b      	ldr	r3, [r7, #4]
 800294c:	681b      	ldr	r3, [r3, #0]
 800294e:	689a      	ldr	r2, [r3, #8]
 8002950:	687b      	ldr	r3, [r7, #4]
 8002952:	681b      	ldr	r3, [r3, #0]
 8002954:	f042 4280 	orr.w	r2, r2, #1073741824	@ 0x40000000
 8002958:	609a      	str	r2, [r3, #8]
 800295a:	e020      	b.n	800299e <HAL_ADC_Start+0x17e>
#endif /* ADC2 || ADC3 */
    }
    else
    {
      /* if instance of handle correspond to ADC1 and  no external trigger present enable software conversion of regular channels */
      if ((hadc->Instance == ADC1) && ((hadc->Instance->CR2 & ADC_CR2_EXTEN) == RESET))
 800295c:	687b      	ldr	r3, [r7, #4]
 800295e:	681b      	ldr	r3, [r3, #0]
 8002960:	4a15      	ldr	r2, [pc, #84]	@ (80029b8 <HAL_ADC_Start+0x198>)
 8002962:	4293      	cmp	r3, r2
 8002964:	d11b      	bne.n	800299e <HAL_ADC_Start+0x17e>
 8002966:	687b      	ldr	r3, [r7, #4]
 8002968:	681b      	ldr	r3, [r3, #0]
 800296a:	689b      	ldr	r3, [r3, #8]
 800296c:	f003 5340 	and.w	r3, r3, #805306368	@ 0x30000000
 8002970:	2b00      	cmp	r3, #0
 8002972:	d114      	bne.n	800299e <HAL_ADC_Start+0x17e>
      {
        /* Enable the selected ADC software conversion for regular group */
        hadc->Instance->CR2 |= (uint32_t)ADC_CR2_SWSTART;
 8002974:	687b      	ldr	r3, [r7, #4]
 8002976:	681b      	ldr	r3, [r3, #0]
 8002978:	689a      	ldr	r2, [r3, #8]
 800297a:	687b      	ldr	r3, [r7, #4]
 800297c:	681b      	ldr	r3, [r3, #0]
 800297e:	f042 4280 	orr.w	r2, r2, #1073741824	@ 0x40000000
 8002982:	609a      	str	r2, [r3, #8]
 8002984:	e00b      	b.n	800299e <HAL_ADC_Start+0x17e>
    }
  }
  else
  {
    /* Update ADC state machine to error */
    SET_BIT(hadc->State, HAL_ADC_STATE_ERROR_INTERNAL);
 8002986:	687b      	ldr	r3, [r7, #4]
 8002988:	6c1b      	ldr	r3, [r3, #64]	@ 0x40
 800298a:	f043 0210 	orr.w	r2, r3, #16
 800298e:	687b      	ldr	r3, [r7, #4]
 8002990:	641a      	str	r2, [r3, #64]	@ 0x40

    /* Set ADC error code to ADC IP internal error */
    SET_BIT(hadc->ErrorCode, HAL_ADC_ERROR_INTERNAL);
 8002992:	687b      	ldr	r3, [r7, #4]
 8002994:	6c5b      	ldr	r3, [r3, #68]	@ 0x44
 8002996:	f043 0201 	orr.w	r2, r3, #1
 800299a:	687b      	ldr	r3, [r7, #4]
 800299c:	645a      	str	r2, [r3, #68]	@ 0x44
  }

  /* Return function status */
  return HAL_OK;
 800299e:	2300      	movs	r3, #0
}
 80029a0:	4618      	mov	r0, r3
 80029a2:	3714      	adds	r7, #20
 80029a4:	46bd      	mov	sp, r7
 80029a6:	f85d 7b04 	ldr.w	r7, [sp], #4
 80029aa:	4770      	bx	lr
 80029ac:	20000000 	.word	0x20000000
 80029b0:	431bde83 	.word	0x431bde83
 80029b4:	40012300 	.word	0x40012300
 80029b8:	40012000 	.word	0x40012000
 80029bc:	40012100 	.word	0x40012100
 80029c0:	40012200 	.word	0x40012200

080029c4 <HAL_ADC_PollForConversion>:
  *         the configuration information for the specified ADC.
  * @param  Timeout Timeout value in millisecond.
  * @retval HAL status
  */
HAL_StatusTypeDef HAL_ADC_PollForConversion(ADC_HandleTypeDef *hadc, uint32_t Timeout)
{
 80029c4:	b580      	push	{r7, lr}
 80029c6:	b084      	sub	sp, #16
 80029c8:	af00      	add	r7, sp, #0
 80029ca:	6078      	str	r0, [r7, #4]
 80029cc:	6039      	str	r1, [r7, #0]
  uint32_t tickstart = 0U;
 80029ce:	2300      	movs	r3, #0
 80029d0:	60fb      	str	r3, [r7, #12]
  /* each conversion:                                                       */
  /* Particular case is ADC configured in DMA mode and ADC sequencer with   */
  /* several ranks and polling for end of each conversion.                  */
  /* For code simplicity sake, this particular case is generalized to       */
  /* ADC configured in DMA mode and polling for end of each conversion.     */
  if (HAL_IS_BIT_SET(hadc->Instance->CR2, ADC_CR2_EOCS) &&
 80029d2:	687b      	ldr	r3, [r7, #4]
 80029d4:	681b      	ldr	r3, [r3, #0]
 80029d6:	689b      	ldr	r3, [r3, #8]
 80029d8:	f403 6380 	and.w	r3, r3, #1024	@ 0x400
 80029dc:	f5b3 6f80 	cmp.w	r3, #1024	@ 0x400
 80029e0:	d113      	bne.n	8002a0a <HAL_ADC_PollForConversion+0x46>
      HAL_IS_BIT_SET(hadc->Instance->CR2, ADC_CR2_DMA))
 80029e2:	687b      	ldr	r3, [r7, #4]
 80029e4:	681b      	ldr	r3, [r3, #0]
 80029e6:	689b      	ldr	r3, [r3, #8]
 80029e8:	f403 7380 	and.w	r3, r3, #256	@ 0x100
  if (HAL_IS_BIT_SET(hadc->Instance->CR2, ADC_CR2_EOCS) &&
 80029ec:	f5b3 7f80 	cmp.w	r3, #256	@ 0x100
 80029f0:	d10b      	bne.n	8002a0a <HAL_ADC_PollForConversion+0x46>
  {
    /* Update ADC state machine to error */
    SET_BIT(hadc->State, HAL_ADC_STATE_ERROR_CONFIG);
 80029f2:	687b      	ldr	r3, [r7, #4]
 80029f4:	6c1b      	ldr	r3, [r3, #64]	@ 0x40
 80029f6:	f043 0220 	orr.w	r2, r3, #32
 80029fa:	687b      	ldr	r3, [r7, #4]
 80029fc:	641a      	str	r2, [r3, #64]	@ 0x40

    /* Process unlocked */
    __HAL_UNLOCK(hadc);
 80029fe:	687b      	ldr	r3, [r7, #4]
 8002a00:	2200      	movs	r2, #0
 8002a02:	f883 203c 	strb.w	r2, [r3, #60]	@ 0x3c

    return HAL_ERROR;
 8002a06:	2301      	movs	r3, #1
 8002a08:	e063      	b.n	8002ad2 <HAL_ADC_PollForConversion+0x10e>
  }

  /* Get tick */
  tickstart = HAL_GetTick();
 8002a0a:	f7ff fe95 	bl	8002738 <HAL_GetTick>
 8002a0e:	60f8      	str	r0, [r7, #12]

  /* Check End of conversion flag */
  while (!(__HAL_ADC_GET_FLAG(hadc, ADC_FLAG_EOC)))
 8002a10:	e021      	b.n	8002a56 <HAL_ADC_PollForConversion+0x92>
  {
    /* Check if timeout is disabled (set to infinite wait) */
    if (Timeout != HAL_MAX_DELAY)
 8002a12:	683b      	ldr	r3, [r7, #0]
 8002a14:	f1b3 3fff 	cmp.w	r3, #4294967295	@ 0xffffffff
 8002a18:	d01d      	beq.n	8002a56 <HAL_ADC_PollForConversion+0x92>
    {
      if ((Timeout == 0U) || ((HAL_GetTick() - tickstart) > Timeout))
 8002a1a:	683b      	ldr	r3, [r7, #0]
 8002a1c:	2b00      	cmp	r3, #0
 8002a1e:	d007      	beq.n	8002a30 <HAL_ADC_PollForConversion+0x6c>
 8002a20:	f7ff fe8a 	bl	8002738 <HAL_GetTick>
 8002a24:	4602      	mov	r2, r0
 8002a26:	68fb      	ldr	r3, [r7, #12]
 8002a28:	1ad3      	subs	r3, r2, r3
 8002a2a:	683a      	ldr	r2, [r7, #0]
 8002a2c:	429a      	cmp	r2, r3
 8002a2e:	d212      	bcs.n	8002a56 <HAL_ADC_PollForConversion+0x92>
      {
        /* New check to avoid false timeout detection in case of preemption */
        if (!(__HAL_ADC_GET_FLAG(hadc, ADC_FLAG_EOC)))
 8002a30:	687b      	ldr	r3, [r7, #4]
 8002a32:	681b      	ldr	r3, [r3, #0]
 8002a34:	681b      	ldr	r3, [r3, #0]
 8002a36:	f003 0302 	and.w	r3, r3, #2
 8002a3a:	2b02      	cmp	r3, #2
 8002a3c:	d00b      	beq.n	8002a56 <HAL_ADC_PollForConversion+0x92>
        {
          /* Update ADC state machine to timeout */
          SET_BIT(hadc->State, HAL_ADC_STATE_TIMEOUT);
 8002a3e:	687b      	ldr	r3, [r7, #4]
 8002a40:	6c1b      	ldr	r3, [r3, #64]	@ 0x40
 8002a42:	f043 0204 	orr.w	r2, r3, #4
 8002a46:	687b      	ldr	r3, [r7, #4]
 8002a48:	641a      	str	r2, [r3, #64]	@ 0x40

          /* Process unlocked */
          __HAL_UNLOCK(hadc);
 8002a4a:	687b      	ldr	r3, [r7, #4]
 8002a4c:	2200      	movs	r2, #0
 8002a4e:	f883 203c 	strb.w	r2, [r3, #60]	@ 0x3c

          return HAL_TIMEOUT;
 8002a52:	2303      	movs	r3, #3
 8002a54:	e03d      	b.n	8002ad2 <HAL_ADC_PollForConversion+0x10e>
  while (!(__HAL_ADC_GET_FLAG(hadc, ADC_FLAG_EOC)))
 8002a56:	687b      	ldr	r3, [r7, #4]
 8002a58:	681b      	ldr	r3, [r3, #0]
 8002a5a:	681b      	ldr	r3, [r3, #0]
 8002a5c:	f003 0302 	and.w	r3, r3, #2
 8002a60:	2b02      	cmp	r3, #2
 8002a62:	d1d6      	bne.n	8002a12 <HAL_ADC_PollForConversion+0x4e>
      }
    }
  }

  /* Clear regular group conversion flag */
  __HAL_ADC_CLEAR_FLAG(hadc, ADC_FLAG_STRT | ADC_FLAG_EOC);
 8002a64:	687b      	ldr	r3, [r7, #4]
 8002a66:	681b      	ldr	r3, [r3, #0]
 8002a68:	f06f 0212 	mvn.w	r2, #18
 8002a6c:	601a      	str	r2, [r3, #0]

  /* Update ADC state machine */
  SET_BIT(hadc->State, HAL_ADC_STATE_REG_EOC);
 8002a6e:	687b      	ldr	r3, [r7, #4]
 8002a70:	6c1b      	ldr	r3, [r3, #64]	@ 0x40
 8002a72:	f443 7200 	orr.w	r2, r3, #512	@ 0x200
 8002a76:	687b      	ldr	r3, [r7, #4]
 8002a78:	641a      	str	r2, [r3, #64]	@ 0x40
  /* by external trigger, continuous mode or scan sequence on going.          */
  /* Note: On STM32F4, there is no independent flag of end of sequence.       */
  /*       The test of scan sequence on going is done either with scan        */
  /*       sequence disabled or with end of conversion flag set to            */
  /*       of end of sequence.                                                */
  if (ADC_IS_SOFTWARE_START_REGULAR(hadc)                   &&
 8002a7a:	687b      	ldr	r3, [r7, #4]
 8002a7c:	681b      	ldr	r3, [r3, #0]
 8002a7e:	689b      	ldr	r3, [r3, #8]
 8002a80:	f003 5340 	and.w	r3, r3, #805306368	@ 0x30000000
 8002a84:	2b00      	cmp	r3, #0
 8002a86:	d123      	bne.n	8002ad0 <HAL_ADC_PollForConversion+0x10c>
      (hadc->Init.ContinuousConvMode == DISABLE)            &&
 8002a88:	687b      	ldr	r3, [r7, #4]
 8002a8a:	7e1b      	ldrb	r3, [r3, #24]
  if (ADC_IS_SOFTWARE_START_REGULAR(hadc)                   &&
 8002a8c:	2b00      	cmp	r3, #0
 8002a8e:	d11f      	bne.n	8002ad0 <HAL_ADC_PollForConversion+0x10c>
      (HAL_IS_BIT_CLR(hadc->Instance->SQR1, ADC_SQR1_L) ||
 8002a90:	687b      	ldr	r3, [r7, #4]
 8002a92:	681b      	ldr	r3, [r3, #0]
 8002a94:	6adb      	ldr	r3, [r3, #44]	@ 0x2c
 8002a96:	f403 0370 	and.w	r3, r3, #15728640	@ 0xf00000
      (hadc->Init.ContinuousConvMode == DISABLE)            &&
 8002a9a:	2b00      	cmp	r3, #0
 8002a9c:	d006      	beq.n	8002aac <HAL_ADC_PollForConversion+0xe8>
       HAL_IS_BIT_CLR(hadc->Instance->CR2, ADC_CR2_EOCS)))
 8002a9e:	687b      	ldr	r3, [r7, #4]
 8002aa0:	681b      	ldr	r3, [r3, #0]
 8002aa2:	689b      	ldr	r3, [r3, #8]
 8002aa4:	f403 6380 	and.w	r3, r3, #1024	@ 0x400
      (HAL_IS_BIT_CLR(hadc->Instance->SQR1, ADC_SQR1_L) ||
 8002aa8:	2b00      	cmp	r3, #0
 8002aaa:	d111      	bne.n	8002ad0 <HAL_ADC_PollForConversion+0x10c>
  {
    /* Set ADC state */
    CLEAR_BIT(hadc->State, HAL_ADC_STATE_REG_BUSY);
 8002aac:	687b      	ldr	r3, [r7, #4]
 8002aae:	6c1b      	ldr	r3, [r3, #64]	@ 0x40
 8002ab0:	f423 7280 	bic.w	r2, r3, #256	@ 0x100
 8002ab4:	687b      	ldr	r3, [r7, #4]
 8002ab6:	641a      	str	r2, [r3, #64]	@ 0x40

    if (HAL_IS_BIT_CLR(hadc->State, HAL_ADC_STATE_INJ_BUSY))
 8002ab8:	687b      	ldr	r3, [r7, #4]
 8002aba:	6c1b      	ldr	r3, [r3, #64]	@ 0x40
 8002abc:	f403 5380 	and.w	r3, r3, #4096	@ 0x1000
 8002ac0:	2b00      	cmp	r3, #0
 8002ac2:	d105      	bne.n	8002ad0 <HAL_ADC_PollForConversion+0x10c>
    {
      SET_BIT(hadc->State, HAL_ADC_STATE_READY);
 8002ac4:	687b      	ldr	r3, [r7, #4]
 8002ac6:	6c1b      	ldr	r3, [r3, #64]	@ 0x40
 8002ac8:	f043 0201 	orr.w	r2, r3, #1
 8002acc:	687b      	ldr	r3, [r7, #4]
 8002ace:	641a      	str	r2, [r3, #64]	@ 0x40
    }
  }

  /* Return ADC state */
  return HAL_OK;
 8002ad0:	2300      	movs	r3, #0
}
 8002ad2:	4618      	mov	r0, r3
 8002ad4:	3710      	adds	r7, #16
 8002ad6:	46bd      	mov	sp, r7
 8002ad8:	bd80      	pop	{r7, pc}

08002ada <HAL_ADC_GetValue>:
  * @param  hadc pointer to a ADC_HandleTypeDef structure that contains
  *         the configuration information for the specified ADC.
  * @retval Converted value
  */
uint32_t HAL_ADC_GetValue(ADC_HandleTypeDef *hadc)
{
 8002ada:	b480      	push	{r7}
 8002adc:	b083      	sub	sp, #12
 8002ade:	af00      	add	r7, sp, #0
 8002ae0:	6078      	str	r0, [r7, #4]
  /* Return the selected ADC converted value */
  return hadc->Instance->DR;
 8002ae2:	687b      	ldr	r3, [r7, #4]
 8002ae4:	681b      	ldr	r3, [r3, #0]
 8002ae6:	6cdb      	ldr	r3, [r3, #76]	@ 0x4c
}
 8002ae8:	4618      	mov	r0, r3
 8002aea:	370c      	adds	r7, #12
 8002aec:	46bd      	mov	sp, r7
 8002aee:	f85d 7b04 	ldr.w	r7, [sp], #4
 8002af2:	4770      	bx	lr

08002af4 <HAL_ADC_ConfigChannel>:
*         the configuration information for the specified ADC.
* @param  sConfig ADC configuration structure.
* @retval HAL status
*/
HAL_StatusTypeDef HAL_ADC_ConfigChannel(ADC_HandleTypeDef *hadc, ADC_ChannelConfTypeDef *sConfig)
{
 8002af4:	b480      	push	{r7}
 8002af6:	b085      	sub	sp, #20
 8002af8:	af00      	add	r7, sp, #0
 8002afa:	6078      	str	r0, [r7, #4]
 8002afc:	6039      	str	r1, [r7, #0]
  __IO uint32_t counter = 0U;
 8002afe:	2300      	movs	r3, #0
 8002b00:	60bb      	str	r3, [r7, #8]
  assert_param(IS_ADC_CHANNEL(sConfig->Channel));
  assert_param(IS_ADC_REGULAR_RANK(sConfig->Rank));
  assert_param(IS_ADC_SAMPLE_TIME(sConfig->SamplingTime));

  /* Process locked */
  __HAL_LOCK(hadc);
 8002b02:	687b      	ldr	r3, [r7, #4]
 8002b04:	f893 303c 	ldrb.w	r3, [r3, #60]	@ 0x3c
 8002b08:	2b01      	cmp	r3, #1
 8002b0a:	d101      	bne.n	8002b10 <HAL_ADC_ConfigChannel+0x1c>
 8002b0c:	2302      	movs	r3, #2
 8002b0e:	e113      	b.n	8002d38 <HAL_ADC_ConfigChannel+0x244>
 8002b10:	687b      	ldr	r3, [r7, #4]
 8002b12:	2201      	movs	r2, #1
 8002b14:	f883 203c 	strb.w	r2, [r3, #60]	@ 0x3c

  /* if ADC_Channel_10 ... ADC_Channel_18 is selected */
  if (sConfig->Channel > ADC_CHANNEL_9)
 8002b18:	683b      	ldr	r3, [r7, #0]
 8002b1a:	681b      	ldr	r3, [r3, #0]
 8002b1c:	2b09      	cmp	r3, #9
 8002b1e:	d925      	bls.n	8002b6c <HAL_ADC_ConfigChannel+0x78>
  {
    /* Clear the old sample time */
    hadc->Instance->SMPR1 &= ~ADC_SMPR1(ADC_SMPR1_SMP10, sConfig->Channel);
 8002b20:	687b      	ldr	r3, [r7, #4]
 8002b22:	681b      	ldr	r3, [r3, #0]
 8002b24:	68d9      	ldr	r1, [r3, #12]
 8002b26:	683b      	ldr	r3, [r7, #0]
 8002b28:	681b      	ldr	r3, [r3, #0]
 8002b2a:	b29b      	uxth	r3, r3
 8002b2c:	461a      	mov	r2, r3
 8002b2e:	4613      	mov	r3, r2
 8002b30:	005b      	lsls	r3, r3, #1
 8002b32:	4413      	add	r3, r2
 8002b34:	3b1e      	subs	r3, #30
 8002b36:	2207      	movs	r2, #7
 8002b38:	fa02 f303 	lsl.w	r3, r2, r3
 8002b3c:	43da      	mvns	r2, r3
 8002b3e:	687b      	ldr	r3, [r7, #4]
 8002b40:	681b      	ldr	r3, [r3, #0]
 8002b42:	400a      	ands	r2, r1
 8002b44:	60da      	str	r2, [r3, #12]

    /* Set the new sample time */
    hadc->Instance->SMPR1 |= ADC_SMPR1(sConfig->SamplingTime, sConfig->Channel);
 8002b46:	687b      	ldr	r3, [r7, #4]
 8002b48:	681b      	ldr	r3, [r3, #0]
 8002b4a:	68d9      	ldr	r1, [r3, #12]
 8002b4c:	683b      	ldr	r3, [r7, #0]
 8002b4e:	689a      	ldr	r2, [r3, #8]
 8002b50:	683b      	ldr	r3, [r7, #0]
 8002b52:	681b      	ldr	r3, [r3, #0]
 8002b54:	b29b      	uxth	r3, r3
 8002b56:	4618      	mov	r0, r3
 8002b58:	4603      	mov	r3, r0
 8002b5a:	005b      	lsls	r3, r3, #1
 8002b5c:	4403      	add	r3, r0
 8002b5e:	3b1e      	subs	r3, #30
 8002b60:	409a      	lsls	r2, r3
 8002b62:	687b      	ldr	r3, [r7, #4]
 8002b64:	681b      	ldr	r3, [r3, #0]
 8002b66:	430a      	orrs	r2, r1
 8002b68:	60da      	str	r2, [r3, #12]
 8002b6a:	e022      	b.n	8002bb2 <HAL_ADC_ConfigChannel+0xbe>
  }
  else /* ADC_Channel include in ADC_Channel_[0..9] */
  {
    /* Clear the old sample time */
    hadc->Instance->SMPR2 &= ~ADC_SMPR2(ADC_SMPR2_SMP0, sConfig->Channel);
 8002b6c:	687b      	ldr	r3, [r7, #4]
 8002b6e:	681b      	ldr	r3, [r3, #0]
 8002b70:	6919      	ldr	r1, [r3, #16]
 8002b72:	683b      	ldr	r3, [r7, #0]
 8002b74:	681b      	ldr	r3, [r3, #0]
 8002b76:	b29b      	uxth	r3, r3
 8002b78:	461a      	mov	r2, r3
 8002b7a:	4613      	mov	r3, r2
 8002b7c:	005b      	lsls	r3, r3, #1
 8002b7e:	4413      	add	r3, r2
 8002b80:	2207      	movs	r2, #7
 8002b82:	fa02 f303 	lsl.w	r3, r2, r3
 8002b86:	43da      	mvns	r2, r3
 8002b88:	687b      	ldr	r3, [r7, #4]
 8002b8a:	681b      	ldr	r3, [r3, #0]
 8002b8c:	400a      	ands	r2, r1
 8002b8e:	611a      	str	r2, [r3, #16]

    /* Set the new sample time */
    hadc->Instance->SMPR2 |= ADC_SMPR2(sConfig->SamplingTime, sConfig->Channel);
 8002b90:	687b      	ldr	r3, [r7, #4]
 8002b92:	681b      	ldr	r3, [r3, #0]
 8002b94:	6919      	ldr	r1, [r3, #16]
 8002b96:	683b      	ldr	r3, [r7, #0]
 8002b98:	689a      	ldr	r2, [r3, #8]
 8002b9a:	683b      	ldr	r3, [r7, #0]
 8002b9c:	681b      	ldr	r3, [r3, #0]
 8002b9e:	b29b      	uxth	r3, r3
 8002ba0:	4618      	mov	r0, r3
 8002ba2:	4603      	mov	r3, r0
 8002ba4:	005b      	lsls	r3, r3, #1
 8002ba6:	4403      	add	r3, r0
 8002ba8:	409a      	lsls	r2, r3
 8002baa:	687b      	ldr	r3, [r7, #4]
 8002bac:	681b      	ldr	r3, [r3, #0]
 8002bae:	430a      	orrs	r2, r1
 8002bb0:	611a      	str	r2, [r3, #16]
  }

  /* For Rank 1 to 6 */
  if (sConfig->Rank < 7U)
 8002bb2:	683b      	ldr	r3, [r7, #0]
 8002bb4:	685b      	ldr	r3, [r3, #4]
 8002bb6:	2b06      	cmp	r3, #6
 8002bb8:	d824      	bhi.n	8002c04 <HAL_ADC_ConfigChannel+0x110>
  {
    /* Clear the old SQx bits for the selected rank */
    hadc->Instance->SQR3 &= ~ADC_SQR3_RK(ADC_SQR3_SQ1, sConfig->Rank);
 8002bba:	687b      	ldr	r3, [r7, #4]
 8002bbc:	681b      	ldr	r3, [r3, #0]
 8002bbe:	6b59      	ldr	r1, [r3, #52]	@ 0x34
 8002bc0:	683b      	ldr	r3, [r7, #0]
 8002bc2:	685a      	ldr	r2, [r3, #4]
 8002bc4:	4613      	mov	r3, r2
 8002bc6:	009b      	lsls	r3, r3, #2
 8002bc8:	4413      	add	r3, r2
 8002bca:	3b05      	subs	r3, #5
 8002bcc:	221f      	movs	r2, #31
 8002bce:	fa02 f303 	lsl.w	r3, r2, r3
 8002bd2:	43da      	mvns	r2, r3
 8002bd4:	687b      	ldr	r3, [r7, #4]
 8002bd6:	681b      	ldr	r3, [r3, #0]
 8002bd8:	400a      	ands	r2, r1
 8002bda:	635a      	str	r2, [r3, #52]	@ 0x34

    /* Set the SQx bits for the selected rank */
    hadc->Instance->SQR3 |= ADC_SQR3_RK(sConfig->Channel, sConfig->Rank);
 8002bdc:	687b      	ldr	r3, [r7, #4]
 8002bde:	681b      	ldr	r3, [r3, #0]
 8002be0:	6b59      	ldr	r1, [r3, #52]	@ 0x34
 8002be2:	683b      	ldr	r3, [r7, #0]
 8002be4:	681b      	ldr	r3, [r3, #0]
 8002be6:	b29b      	uxth	r3, r3
 8002be8:	4618      	mov	r0, r3
 8002bea:	683b      	ldr	r3, [r7, #0]
 8002bec:	685a      	ldr	r2, [r3, #4]
 8002bee:	4613      	mov	r3, r2
 8002bf0:	009b      	lsls	r3, r3, #2
 8002bf2:	4413      	add	r3, r2
 8002bf4:	3b05      	subs	r3, #5
 8002bf6:	fa00 f203 	lsl.w	r2, r0, r3
 8002bfa:	687b      	ldr	r3, [r7, #4]
 8002bfc:	681b      	ldr	r3, [r3, #0]
 8002bfe:	430a      	orrs	r2, r1
 8002c00:	635a      	str	r2, [r3, #52]	@ 0x34
 8002c02:	e04c      	b.n	8002c9e <HAL_ADC_ConfigChannel+0x1aa>
  }
  /* For Rank 7 to 12 */
  else if (sConfig->Rank < 13U)
 8002c04:	683b      	ldr	r3, [r7, #0]
 8002c06:	685b      	ldr	r3, [r3, #4]
 8002c08:	2b0c      	cmp	r3, #12
 8002c0a:	d824      	bhi.n	8002c56 <HAL_ADC_ConfigChannel+0x162>
  {
    /* Clear the old SQx bits for the selected rank */
    hadc->Instance->SQR2 &= ~ADC_SQR2_RK(ADC_SQR2_SQ7, sConfig->Rank);
 8002c0c:	687b      	ldr	r3, [r7, #4]
 8002c0e:	681b      	ldr	r3, [r3, #0]
 8002c10:	6b19      	ldr	r1, [r3, #48]	@ 0x30
 8002c12:	683b      	ldr	r3, [r7, #0]
 8002c14:	685a      	ldr	r2, [r3, #4]
 8002c16:	4613      	mov	r3, r2
 8002c18:	009b      	lsls	r3, r3, #2
 8002c1a:	4413      	add	r3, r2
 8002c1c:	3b23      	subs	r3, #35	@ 0x23
 8002c1e:	221f      	movs	r2, #31
 8002c20:	fa02 f303 	lsl.w	r3, r2, r3
 8002c24:	43da      	mvns	r2, r3
 8002c26:	687b      	ldr	r3, [r7, #4]
 8002c28:	681b      	ldr	r3, [r3, #0]
 8002c2a:	400a      	ands	r2, r1
 8002c2c:	631a      	str	r2, [r3, #48]	@ 0x30

    /* Set the SQx bits for the selected rank */
    hadc->Instance->SQR2 |= ADC_SQR2_RK(sConfig->Channel, sConfig->Rank);
 8002c2e:	687b      	ldr	r3, [r7, #4]
 8002c30:	681b      	ldr	r3, [r3, #0]
 8002c32:	6b19      	ldr	r1, [r3, #48]	@ 0x30
 8002c34:	683b      	ldr	r3, [r7, #0]
 8002c36:	681b      	ldr	r3, [r3, #0]
 8002c38:	b29b      	uxth	r3, r3
 8002c3a:	4618      	mov	r0, r3
 8002c3c:	683b      	ldr	r3, [r7, #0]
 8002c3e:	685a      	ldr	r2, [r3, #4]
 8002c40:	4613      	mov	r3, r2
 8002c42:	009b      	lsls	r3, r3, #2
 8002c44:	4413      	add	r3, r2
 8002c46:	3b23      	subs	r3, #35	@ 0x23
 8002c48:	fa00 f203 	lsl.w	r2, r0, r3
 8002c4c:	687b      	ldr	r3, [r7, #4]
 8002c4e:	681b      	ldr	r3, [r3, #0]
 8002c50:	430a      	orrs	r2, r1
 8002c52:	631a      	str	r2, [r3, #48]	@ 0x30
 8002c54:	e023      	b.n	8002c9e <HAL_ADC_ConfigChannel+0x1aa>
  }
  /* For Rank 13 to 16 */
  else
  {
    /* Clear the old SQx bits for the selected rank */
    hadc->Instance->SQR1 &= ~ADC_SQR1_RK(ADC_SQR1_SQ13, sConfig->Rank);
 8002c56:	687b      	ldr	r3, [r7, #4]
 8002c58:	681b      	ldr	r3, [r3, #0]
 8002c5a:	6ad9      	ldr	r1, [r3, #44]	@ 0x2c
 8002c5c:	683b      	ldr	r3, [r7, #0]
 8002c5e:	685a      	ldr	r2, [r3, #4]
 8002c60:	4613      	mov	r3, r2
 8002c62:	009b      	lsls	r3, r3, #2
 8002c64:	4413      	add	r3, r2
 8002c66:	3b41      	subs	r3, #65	@ 0x41
 8002c68:	221f      	movs	r2, #31
 8002c6a:	fa02 f303 	lsl.w	r3, r2, r3
 8002c6e:	43da      	mvns	r2, r3
 8002c70:	687b      	ldr	r3, [r7, #4]
 8002c72:	681b      	ldr	r3, [r3, #0]
 8002c74:	400a      	ands	r2, r1
 8002c76:	62da      	str	r2, [r3, #44]	@ 0x2c

    /* Set the SQx bits for the selected rank */
    hadc->Instance->SQR1 |= ADC_SQR1_RK(sConfig->Channel, sConfig->Rank);
 8002c78:	687b      	ldr	r3, [r7, #4]
 8002c7a:	681b      	ldr	r3, [r3, #0]
 8002c7c:	6ad9      	ldr	r1, [r3, #44]	@ 0x2c
 8002c7e:	683b      	ldr	r3, [r7, #0]
 8002c80:	681b      	ldr	r3, [r3, #0]
 8002c82:	b29b      	uxth	r3, r3
 8002c84:	4618      	mov	r0, r3
 8002c86:	683b      	ldr	r3, [r7, #0]
 8002c88:	685a      	ldr	r2, [r3, #4]
 8002c8a:	4613      	mov	r3, r2
 8002c8c:	009b      	lsls	r3, r3, #2
 8002c8e:	4413      	add	r3, r2
 8002c90:	3b41      	subs	r3, #65	@ 0x41
 8002c92:	fa00 f203 	lsl.w	r2, r0, r3
 8002c96:	687b      	ldr	r3, [r7, #4]
 8002c98:	681b      	ldr	r3, [r3, #0]
 8002c9a:	430a      	orrs	r2, r1
 8002c9c:	62da      	str	r2, [r3, #44]	@ 0x2c
  }

  /* Pointer to the common control register to which is belonging hadc    */
  /* (Depending on STM32F4 product, there may be up to 3 ADCs and 1 common */
  /* control register)                                                    */
  tmpADC_Common = ADC_COMMON_REGISTER(hadc);
 8002c9e:	4b29      	ldr	r3, [pc, #164]	@ (8002d44 <HAL_ADC_ConfigChannel+0x250>)
 8002ca0:	60fb      	str	r3, [r7, #12]

  /* if ADC1 Channel_18 is selected for VBAT Channel ennable VBATE */
  if ((hadc->Instance == ADC1) && (sConfig->Channel == ADC_CHANNEL_VBAT))
 8002ca2:	687b      	ldr	r3, [r7, #4]
 8002ca4:	681b      	ldr	r3, [r3, #0]
 8002ca6:	4a28      	ldr	r2, [pc, #160]	@ (8002d48 <HAL_ADC_ConfigChannel+0x254>)
 8002ca8:	4293      	cmp	r3, r2
 8002caa:	d10f      	bne.n	8002ccc <HAL_ADC_ConfigChannel+0x1d8>
 8002cac:	683b      	ldr	r3, [r7, #0]
 8002cae:	681b      	ldr	r3, [r3, #0]
 8002cb0:	2b12      	cmp	r3, #18
 8002cb2:	d10b      	bne.n	8002ccc <HAL_ADC_ConfigChannel+0x1d8>
  {
    /* Disable the TEMPSENSOR channel in case of using board with multiplixed ADC_CHANNEL_VBAT & ADC_CHANNEL_TEMPSENSOR*/
    if ((uint16_t)ADC_CHANNEL_TEMPSENSOR == (uint16_t)ADC_CHANNEL_VBAT)
    {
      tmpADC_Common->CCR &= ~ADC_CCR_TSVREFE;
 8002cb4:	68fb      	ldr	r3, [r7, #12]
 8002cb6:	685b      	ldr	r3, [r3, #4]
 8002cb8:	f423 0200 	bic.w	r2, r3, #8388608	@ 0x800000
 8002cbc:	68fb      	ldr	r3, [r7, #12]
 8002cbe:	605a      	str	r2, [r3, #4]
    }
    /* Enable the VBAT channel*/
    tmpADC_Common->CCR |= ADC_CCR_VBATE;
 8002cc0:	68fb      	ldr	r3, [r7, #12]
 8002cc2:	685b      	ldr	r3, [r3, #4]
 8002cc4:	f443 0280 	orr.w	r2, r3, #4194304	@ 0x400000
 8002cc8:	68fb      	ldr	r3, [r7, #12]
 8002cca:	605a      	str	r2, [r3, #4]
  }

  /* if ADC1 Channel_16 or Channel_18 is selected for Temperature sensor or
     Channel_17 is selected for VREFINT enable TSVREFE */
  if ((hadc->Instance == ADC1) && ((sConfig->Channel == ADC_CHANNEL_TEMPSENSOR) || (sConfig->Channel == ADC_CHANNEL_VREFINT)))
 8002ccc:	687b      	ldr	r3, [r7, #4]
 8002cce:	681b      	ldr	r3, [r3, #0]
 8002cd0:	4a1d      	ldr	r2, [pc, #116]	@ (8002d48 <HAL_ADC_ConfigChannel+0x254>)
 8002cd2:	4293      	cmp	r3, r2
 8002cd4:	d12b      	bne.n	8002d2e <HAL_ADC_ConfigChannel+0x23a>
 8002cd6:	683b      	ldr	r3, [r7, #0]
 8002cd8:	681b      	ldr	r3, [r3, #0]
 8002cda:	4a1c      	ldr	r2, [pc, #112]	@ (8002d4c <HAL_ADC_ConfigChannel+0x258>)
 8002cdc:	4293      	cmp	r3, r2
 8002cde:	d003      	beq.n	8002ce8 <HAL_ADC_ConfigChannel+0x1f4>
 8002ce0:	683b      	ldr	r3, [r7, #0]
 8002ce2:	681b      	ldr	r3, [r3, #0]
 8002ce4:	2b11      	cmp	r3, #17
 8002ce6:	d122      	bne.n	8002d2e <HAL_ADC_ConfigChannel+0x23a>
  {
    /* Disable the VBAT channel in case of using board with multiplixed ADC_CHANNEL_VBAT & ADC_CHANNEL_TEMPSENSOR*/
    if ((uint16_t)ADC_CHANNEL_TEMPSENSOR == (uint16_t)ADC_CHANNEL_VBAT)
    {
      tmpADC_Common->CCR &= ~ADC_CCR_VBATE;
 8002ce8:	68fb      	ldr	r3, [r7, #12]
 8002cea:	685b      	ldr	r3, [r3, #4]
 8002cec:	f423 0280 	bic.w	r2, r3, #4194304	@ 0x400000
 8002cf0:	68fb      	ldr	r3, [r7, #12]
 8002cf2:	605a      	str	r2, [r3, #4]
    }
    /* Enable the Temperature sensor and VREFINT channel*/
    tmpADC_Common->CCR |= ADC_CCR_TSVREFE;
 8002cf4:	68fb      	ldr	r3, [r7, #12]
 8002cf6:	685b      	ldr	r3, [r3, #4]
 8002cf8:	f443 0200 	orr.w	r2, r3, #8388608	@ 0x800000
 8002cfc:	68fb      	ldr	r3, [r7, #12]
 8002cfe:	605a      	str	r2, [r3, #4]

    if (sConfig->Channel == ADC_CHANNEL_TEMPSENSOR)
 8002d00:	683b      	ldr	r3, [r7, #0]
 8002d02:	681b      	ldr	r3, [r3, #0]
 8002d04:	4a11      	ldr	r2, [pc, #68]	@ (8002d4c <HAL_ADC_ConfigChannel+0x258>)
 8002d06:	4293      	cmp	r3, r2
 8002d08:	d111      	bne.n	8002d2e <HAL_ADC_ConfigChannel+0x23a>
    {
      /* Delay for temperature sensor stabilization time */
      /* Compute number of CPU cycles to wait for */
      counter = (ADC_TEMPSENSOR_DELAY_US * (SystemCoreClock / 1000000U));
 8002d0a:	4b11      	ldr	r3, [pc, #68]	@ (8002d50 <HAL_ADC_ConfigChannel+0x25c>)
 8002d0c:	681b      	ldr	r3, [r3, #0]
 8002d0e:	4a11      	ldr	r2, [pc, #68]	@ (8002d54 <HAL_ADC_ConfigChannel+0x260>)
 8002d10:	fba2 2303 	umull	r2, r3, r2, r3
 8002d14:	0c9a      	lsrs	r2, r3, #18
 8002d16:	4613      	mov	r3, r2
 8002d18:	009b      	lsls	r3, r3, #2
 8002d1a:	4413      	add	r3, r2
 8002d1c:	005b      	lsls	r3, r3, #1
 8002d1e:	60bb      	str	r3, [r7, #8]
      while (counter != 0U)
 8002d20:	e002      	b.n	8002d28 <HAL_ADC_ConfigChannel+0x234>
      {
        counter--;
 8002d22:	68bb      	ldr	r3, [r7, #8]
 8002d24:	3b01      	subs	r3, #1
 8002d26:	60bb      	str	r3, [r7, #8]
      while (counter != 0U)
 8002d28:	68bb      	ldr	r3, [r7, #8]
 8002d2a:	2b00      	cmp	r3, #0
 8002d2c:	d1f9      	bne.n	8002d22 <HAL_ADC_ConfigChannel+0x22e>
      }
    }
  }

  /* Process unlocked */
  __HAL_UNLOCK(hadc);
 8002d2e:	687b      	ldr	r3, [r7, #4]
 8002d30:	2200      	movs	r2, #0
 8002d32:	f883 203c 	strb.w	r2, [r3, #60]	@ 0x3c

  /* Return function status */
  return HAL_OK;
 8002d36:	2300      	movs	r3, #0
}
 8002d38:	4618      	mov	r0, r3
 8002d3a:	3714      	adds	r7, #20
 8002d3c:	46bd      	mov	sp, r7
 8002d3e:	f85d 7b04 	ldr.w	r7, [sp], #4
 8002d42:	4770      	bx	lr
 8002d44:	40012300 	.word	0x40012300
 8002d48:	40012000 	.word	0x40012000
 8002d4c:	10000012 	.word	0x10000012
 8002d50:	20000000 	.word	0x20000000
 8002d54:	431bde83 	.word	0x431bde83

08002d58 <ADC_Init>:
  * @param  hadc pointer to a ADC_HandleTypeDef structure that contains
  *         the configuration information for the specified ADC.
  * @retval None
  */
static void ADC_Init(ADC_HandleTypeDef *hadc)
{
 8002d58:	b480      	push	{r7}
 8002d5a:	b085      	sub	sp, #20
 8002d5c:	af00      	add	r7, sp, #0
 8002d5e:	6078      	str	r0, [r7, #4]

  /* Set ADC parameters */
  /* Pointer to the common control register to which is belonging hadc    */
  /* (Depending on STM32F4 product, there may be up to 3 ADCs and 1 common */
  /* control register)                                                    */
  tmpADC_Common = ADC_COMMON_REGISTER(hadc);
 8002d60:	4b79      	ldr	r3, [pc, #484]	@ (8002f48 <ADC_Init+0x1f0>)
 8002d62:	60fb      	str	r3, [r7, #12]

  /* Set the ADC clock prescaler */
  tmpADC_Common->CCR &= ~(ADC_CCR_ADCPRE);
 8002d64:	68fb      	ldr	r3, [r7, #12]
 8002d66:	685b      	ldr	r3, [r3, #4]
 8002d68:	f423 3240 	bic.w	r2, r3, #196608	@ 0x30000
 8002d6c:	68fb      	ldr	r3, [r7, #12]
 8002d6e:	605a      	str	r2, [r3, #4]
  tmpADC_Common->CCR |=  hadc->Init.ClockPrescaler;
 8002d70:	68fb      	ldr	r3, [r7, #12]
 8002d72:	685a      	ldr	r2, [r3, #4]
 8002d74:	687b      	ldr	r3, [r7, #4]
 8002d76:	685b      	ldr	r3, [r3, #4]
 8002d78:	431a      	orrs	r2, r3
 8002d7a:	68fb      	ldr	r3, [r7, #12]
 8002d7c:	605a      	str	r2, [r3, #4]

  /* Set ADC scan mode */
  hadc->Instance->CR1 &= ~(ADC_CR1_SCAN);
 8002d7e:	687b      	ldr	r3, [r7, #4]
 8002d80:	681b      	ldr	r3, [r3, #0]
 8002d82:	685a      	ldr	r2, [r3, #4]
 8002d84:	687b      	ldr	r3, [r7, #4]
 8002d86:	681b      	ldr	r3, [r3, #0]
 8002d88:	f422 7280 	bic.w	r2, r2, #256	@ 0x100
 8002d8c:	605a      	str	r2, [r3, #4]
  hadc->Instance->CR1 |=  ADC_CR1_SCANCONV(hadc->Init.ScanConvMode);
 8002d8e:	687b      	ldr	r3, [r7, #4]
 8002d90:	681b      	ldr	r3, [r3, #0]
 8002d92:	6859      	ldr	r1, [r3, #4]
 8002d94:	687b      	ldr	r3, [r7, #4]
 8002d96:	691b      	ldr	r3, [r3, #16]
 8002d98:	021a      	lsls	r2, r3, #8
 8002d9a:	687b      	ldr	r3, [r7, #4]
 8002d9c:	681b      	ldr	r3, [r3, #0]
 8002d9e:	430a      	orrs	r2, r1
 8002da0:	605a      	str	r2, [r3, #4]

  /* Set ADC resolution */
  hadc->Instance->CR1 &= ~(ADC_CR1_RES);
 8002da2:	687b      	ldr	r3, [r7, #4]
 8002da4:	681b      	ldr	r3, [r3, #0]
 8002da6:	685a      	ldr	r2, [r3, #4]
 8002da8:	687b      	ldr	r3, [r7, #4]
 8002daa:	681b      	ldr	r3, [r3, #0]
 8002dac:	f022 7240 	bic.w	r2, r2, #50331648	@ 0x3000000
 8002db0:	605a      	str	r2, [r3, #4]
  hadc->Instance->CR1 |=  hadc->Init.Resolution;
 8002db2:	687b      	ldr	r3, [r7, #4]
 8002db4:	681b      	ldr	r3, [r3, #0]
 8002db6:	6859      	ldr	r1, [r3, #4]
 8002db8:	687b      	ldr	r3, [r7, #4]
 8002dba:	689a      	ldr	r2, [r3, #8]
 8002dbc:	687b      	ldr	r3, [r7, #4]
 8002dbe:	681b      	ldr	r3, [r3, #0]
 8002dc0:	430a      	orrs	r2, r1
 8002dc2:	605a      	str	r2, [r3, #4]

  /* Set ADC data alignment */
  hadc->Instance->CR2 &= ~(ADC_CR2_ALIGN);
 8002dc4:	687b      	ldr	r3, [r7, #4]
 8002dc6:	681b      	ldr	r3, [r3, #0]
 8002dc8:	689a      	ldr	r2, [r3, #8]
 8002dca:	687b      	ldr	r3, [r7, #4]
 8002dcc:	681b      	ldr	r3, [r3, #0]
 8002dce:	f422 6200 	bic.w	r2, r2, #2048	@ 0x800
 8002dd2:	609a      	str	r2, [r3, #8]
  hadc->Instance->CR2 |= hadc->Init.DataAlign;
 8002dd4:	687b      	ldr	r3, [r7, #4]
 8002dd6:	681b      	ldr	r3, [r3, #0]
 8002dd8:	6899      	ldr	r1, [r3, #8]
 8002dda:	687b      	ldr	r3, [r7, #4]
 8002ddc:	68da      	ldr	r2, [r3, #12]
 8002dde:	687b      	ldr	r3, [r7, #4]
 8002de0:	681b      	ldr	r3, [r3, #0]
 8002de2:	430a      	orrs	r2, r1
 8002de4:	609a      	str	r2, [r3, #8]
  /* Enable external trigger if trigger selection is different of software  */
  /* start.                                                                 */
  /* Note: This configuration keeps the hardware feature of parameter       */
  /*       ExternalTrigConvEdge "trigger edge none" equivalent to           */
  /*       software start.                                                  */
  if (hadc->Init.ExternalTrigConv != ADC_SOFTWARE_START)
 8002de6:	687b      	ldr	r3, [r7, #4]
 8002de8:	6a9b      	ldr	r3, [r3, #40]	@ 0x28
 8002dea:	4a58      	ldr	r2, [pc, #352]	@ (8002f4c <ADC_Init+0x1f4>)
 8002dec:	4293      	cmp	r3, r2
 8002dee:	d022      	beq.n	8002e36 <ADC_Init+0xde>
  {
    /* Select external trigger to start conversion */
    hadc->Instance->CR2 &= ~(ADC_CR2_EXTSEL);
 8002df0:	687b      	ldr	r3, [r7, #4]
 8002df2:	681b      	ldr	r3, [r3, #0]
 8002df4:	689a      	ldr	r2, [r3, #8]
 8002df6:	687b      	ldr	r3, [r7, #4]
 8002df8:	681b      	ldr	r3, [r3, #0]
 8002dfa:	f022 6270 	bic.w	r2, r2, #251658240	@ 0xf000000
 8002dfe:	609a      	str	r2, [r3, #8]
    hadc->Instance->CR2 |= hadc->Init.ExternalTrigConv;
 8002e00:	687b      	ldr	r3, [r7, #4]
 8002e02:	681b      	ldr	r3, [r3, #0]
 8002e04:	6899      	ldr	r1, [r3, #8]
 8002e06:	687b      	ldr	r3, [r7, #4]
 8002e08:	6a9a      	ldr	r2, [r3, #40]	@ 0x28
 8002e0a:	687b      	ldr	r3, [r7, #4]
 8002e0c:	681b      	ldr	r3, [r3, #0]
 8002e0e:	430a      	orrs	r2, r1
 8002e10:	609a      	str	r2, [r3, #8]

    /* Select external trigger polarity */
    hadc->Instance->CR2 &= ~(ADC_CR2_EXTEN);
 8002e12:	687b      	ldr	r3, [r7, #4]
 8002e14:	681b      	ldr	r3, [r3, #0]
 8002e16:	689a      	ldr	r2, [r3, #8]
 8002e18:	687b      	ldr	r3, [r7, #4]
 8002e1a:	681b      	ldr	r3, [r3, #0]
 8002e1c:	f022 5240 	bic.w	r2, r2, #805306368	@ 0x30000000
 8002e20:	609a      	str	r2, [r3, #8]
    hadc->Instance->CR2 |= hadc->Init.ExternalTrigConvEdge;
 8002e22:	687b      	ldr	r3, [r7, #4]
 8002e24:	681b      	ldr	r3, [r3, #0]
 8002e26:	6899      	ldr	r1, [r3, #8]
 8002e28:	687b      	ldr	r3, [r7, #4]
 8002e2a:	6ada      	ldr	r2, [r3, #44]	@ 0x2c
 8002e2c:	687b      	ldr	r3, [r7, #4]
 8002e2e:	681b      	ldr	r3, [r3, #0]
 8002e30:	430a      	orrs	r2, r1
 8002e32:	609a      	str	r2, [r3, #8]
 8002e34:	e00f      	b.n	8002e56 <ADC_Init+0xfe>
  }
  else
  {
    /* Reset the external trigger */
    hadc->Instance->CR2 &= ~(ADC_CR2_EXTSEL);
 8002e36:	687b      	ldr	r3, [r7, #4]
 8002e38:	681b      	ldr	r3, [r3, #0]
 8002e3a:	689a      	ldr	r2, [r3, #8]
 8002e3c:	687b      	ldr	r3, [r7, #4]
 8002e3e:	681b      	ldr	r3, [r3, #0]
 8002e40:	f022 6270 	bic.w	r2, r2, #251658240	@ 0xf000000
 8002e44:	609a      	str	r2, [r3, #8]
    hadc->Instance->CR2 &= ~(ADC_CR2_EXTEN);
 8002e46:	687b      	ldr	r3, [r7, #4]
 8002e48:	681b      	ldr	r3, [r3, #0]
 8002e4a:	689a      	ldr	r2, [r3, #8]
 8002e4c:	687b      	ldr	r3, [r7, #4]
 8002e4e:	681b      	ldr	r3, [r3, #0]
 8002e50:	f022 5240 	bic.w	r2, r2, #805306368	@ 0x30000000
 8002e54:	609a      	str	r2, [r3, #8]
  }

  /* Enable or disable ADC continuous conversion mode */
  hadc->Instance->CR2 &= ~(ADC_CR2_CONT);
 8002e56:	687b      	ldr	r3, [r7, #4]
 8002e58:	681b      	ldr	r3, [r3, #0]
 8002e5a:	689a      	ldr	r2, [r3, #8]
 8002e5c:	687b      	ldr	r3, [r7, #4]
 8002e5e:	681b      	ldr	r3, [r3, #0]
 8002e60:	f022 0202 	bic.w	r2, r2, #2
 8002e64:	609a      	str	r2, [r3, #8]
  hadc->Instance->CR2 |= ADC_CR2_CONTINUOUS((uint32_t)hadc->Init.ContinuousConvMode);
 8002e66:	687b      	ldr	r3, [r7, #4]
 8002e68:	681b      	ldr	r3, [r3, #0]
 8002e6a:	6899      	ldr	r1, [r3, #8]
 8002e6c:	687b      	ldr	r3, [r7, #4]
 8002e6e:	7e1b      	ldrb	r3, [r3, #24]
 8002e70:	005a      	lsls	r2, r3, #1
 8002e72:	687b      	ldr	r3, [r7, #4]
 8002e74:	681b      	ldr	r3, [r3, #0]
 8002e76:	430a      	orrs	r2, r1
 8002e78:	609a      	str	r2, [r3, #8]

  if (hadc->Init.DiscontinuousConvMode != DISABLE)
 8002e7a:	687b      	ldr	r3, [r7, #4]
 8002e7c:	f893 3020 	ldrb.w	r3, [r3, #32]
 8002e80:	2b00      	cmp	r3, #0
 8002e82:	d01b      	beq.n	8002ebc <ADC_Init+0x164>
  {
    assert_param(IS_ADC_REGULAR_DISC_NUMBER(hadc->Init.NbrOfDiscConversion));

    /* Enable the selected ADC regular discontinuous mode */
    hadc->Instance->CR1 |= (uint32_t)ADC_CR1_DISCEN;
 8002e84:	687b      	ldr	r3, [r7, #4]
 8002e86:	681b      	ldr	r3, [r3, #0]
 8002e88:	685a      	ldr	r2, [r3, #4]
 8002e8a:	687b      	ldr	r3, [r7, #4]
 8002e8c:	681b      	ldr	r3, [r3, #0]
 8002e8e:	f442 6200 	orr.w	r2, r2, #2048	@ 0x800
 8002e92:	605a      	str	r2, [r3, #4]

    /* Set the number of channels to be converted in discontinuous mode */
    hadc->Instance->CR1 &= ~(ADC_CR1_DISCNUM);
 8002e94:	687b      	ldr	r3, [r7, #4]
 8002e96:	681b      	ldr	r3, [r3, #0]
 8002e98:	685a      	ldr	r2, [r3, #4]
 8002e9a:	687b      	ldr	r3, [r7, #4]
 8002e9c:	681b      	ldr	r3, [r3, #0]
 8002e9e:	f422 4260 	bic.w	r2, r2, #57344	@ 0xe000
 8002ea2:	605a      	str	r2, [r3, #4]
    hadc->Instance->CR1 |=  ADC_CR1_DISCONTINUOUS(hadc->Init.NbrOfDiscConversion);
 8002ea4:	687b      	ldr	r3, [r7, #4]
 8002ea6:	681b      	ldr	r3, [r3, #0]
 8002ea8:	6859      	ldr	r1, [r3, #4]
 8002eaa:	687b      	ldr	r3, [r7, #4]
 8002eac:	6a5b      	ldr	r3, [r3, #36]	@ 0x24
 8002eae:	3b01      	subs	r3, #1
 8002eb0:	035a      	lsls	r2, r3, #13
 8002eb2:	687b      	ldr	r3, [r7, #4]
 8002eb4:	681b      	ldr	r3, [r3, #0]
 8002eb6:	430a      	orrs	r2, r1
 8002eb8:	605a      	str	r2, [r3, #4]
 8002eba:	e007      	b.n	8002ecc <ADC_Init+0x174>
  }
  else
  {
    /* Disable the selected ADC regular discontinuous mode */
    hadc->Instance->CR1 &= ~(ADC_CR1_DISCEN);
 8002ebc:	687b      	ldr	r3, [r7, #4]
 8002ebe:	681b      	ldr	r3, [r3, #0]
 8002ec0:	685a      	ldr	r2, [r3, #4]
 8002ec2:	687b      	ldr	r3, [r7, #4]
 8002ec4:	681b      	ldr	r3, [r3, #0]
 8002ec6:	f422 6200 	bic.w	r2, r2, #2048	@ 0x800
 8002eca:	605a      	str	r2, [r3, #4]
  }

  /* Set ADC number of conversion */
  hadc->Instance->SQR1 &= ~(ADC_SQR1_L);
 8002ecc:	687b      	ldr	r3, [r7, #4]
 8002ece:	681b      	ldr	r3, [r3, #0]
 8002ed0:	6ada      	ldr	r2, [r3, #44]	@ 0x2c
 8002ed2:	687b      	ldr	r3, [r7, #4]
 8002ed4:	681b      	ldr	r3, [r3, #0]
 8002ed6:	f422 0270 	bic.w	r2, r2, #15728640	@ 0xf00000
 8002eda:	62da      	str	r2, [r3, #44]	@ 0x2c
  hadc->Instance->SQR1 |=  ADC_SQR1(hadc->Init.NbrOfConversion);
 8002edc:	687b      	ldr	r3, [r7, #4]
 8002ede:	681b      	ldr	r3, [r3, #0]
 8002ee0:	6ad9      	ldr	r1, [r3, #44]	@ 0x2c
 8002ee2:	687b      	ldr	r3, [r7, #4]
 8002ee4:	69db      	ldr	r3, [r3, #28]
 8002ee6:	3b01      	subs	r3, #1
 8002ee8:	051a      	lsls	r2, r3, #20
 8002eea:	687b      	ldr	r3, [r7, #4]
 8002eec:	681b      	ldr	r3, [r3, #0]
 8002eee:	430a      	orrs	r2, r1
 8002ef0:	62da      	str	r2, [r3, #44]	@ 0x2c

  /* Enable or disable ADC DMA continuous request */
  hadc->Instance->CR2 &= ~(ADC_CR2_DDS);
 8002ef2:	687b      	ldr	r3, [r7, #4]
 8002ef4:	681b      	ldr	r3, [r3, #0]
 8002ef6:	689a      	ldr	r2, [r3, #8]
 8002ef8:	687b      	ldr	r3, [r7, #4]
 8002efa:	681b      	ldr	r3, [r3, #0]
 8002efc:	f422 7200 	bic.w	r2, r2, #512	@ 0x200
 8002f00:	609a      	str	r2, [r3, #8]
  hadc->Instance->CR2 |= ADC_CR2_DMAContReq((uint32_t)hadc->Init.DMAContinuousRequests);
 8002f02:	687b      	ldr	r3, [r7, #4]
 8002f04:	681b      	ldr	r3, [r3, #0]
 8002f06:	6899      	ldr	r1, [r3, #8]
 8002f08:	687b      	ldr	r3, [r7, #4]
 8002f0a:	f893 3030 	ldrb.w	r3, [r3, #48]	@ 0x30
 8002f0e:	025a      	lsls	r2, r3, #9
 8002f10:	687b      	ldr	r3, [r7, #4]
 8002f12:	681b      	ldr	r3, [r3, #0]
 8002f14:	430a      	orrs	r2, r1
 8002f16:	609a      	str	r2, [r3, #8]

  /* Enable or disable ADC end of conversion selection */
  hadc->Instance->CR2 &= ~(ADC_CR2_EOCS);
 8002f18:	687b      	ldr	r3, [r7, #4]
 8002f1a:	681b      	ldr	r3, [r3, #0]
 8002f1c:	689a      	ldr	r2, [r3, #8]
 8002f1e:	687b      	ldr	r3, [r7, #4]
 8002f20:	681b      	ldr	r3, [r3, #0]
 8002f22:	f422 6280 	bic.w	r2, r2, #1024	@ 0x400
 8002f26:	609a      	str	r2, [r3, #8]
  hadc->Instance->CR2 |= ADC_CR2_EOCSelection(hadc->Init.EOCSelection);
 8002f28:	687b      	ldr	r3, [r7, #4]
 8002f2a:	681b      	ldr	r3, [r3, #0]
 8002f2c:	6899      	ldr	r1, [r3, #8]
 8002f2e:	687b      	ldr	r3, [r7, #4]
 8002f30:	695b      	ldr	r3, [r3, #20]
 8002f32:	029a      	lsls	r2, r3, #10
 8002f34:	687b      	ldr	r3, [r7, #4]
 8002f36:	681b      	ldr	r3, [r3, #0]
 8002f38:	430a      	orrs	r2, r1
 8002f3a:	609a      	str	r2, [r3, #8]
}
 8002f3c:	bf00      	nop
 8002f3e:	3714      	adds	r7, #20
 8002f40:	46bd      	mov	sp, r7
 8002f42:	f85d 7b04 	ldr.w	r7, [sp], #4
 8002f46:	4770      	bx	lr
 8002f48:	40012300 	.word	0x40012300
 8002f4c:	0f000001 	.word	0x0f000001

08002f50 <HAL_ADCEx_InjectedStart>:
  * @param  hadc pointer to a ADC_HandleTypeDef structure that contains
  *         the configuration information for the specified ADC.
  * @retval HAL status
  */
HAL_StatusTypeDef HAL_ADCEx_InjectedStart(ADC_HandleTypeDef *hadc)
{
 8002f50:	b480      	push	{r7}
 8002f52:	b087      	sub	sp, #28
 8002f54:	af00      	add	r7, sp, #0
 8002f56:	6078      	str	r0, [r7, #4]
  __IO uint32_t counter = 0U;
 8002f58:	2300      	movs	r3, #0
 8002f5a:	60bb      	str	r3, [r7, #8]
  uint32_t tmp1 = 0U, tmp2 = 0U;
 8002f5c:	2300      	movs	r3, #0
 8002f5e:	617b      	str	r3, [r7, #20]
 8002f60:	2300      	movs	r3, #0
 8002f62:	613b      	str	r3, [r7, #16]
  ADC_Common_TypeDef *tmpADC_Common;

  /* Process locked */
  __HAL_LOCK(hadc);
 8002f64:	687b      	ldr	r3, [r7, #4]
 8002f66:	f893 303c 	ldrb.w	r3, [r3, #60]	@ 0x3c
 8002f6a:	2b01      	cmp	r3, #1
 8002f6c:	d101      	bne.n	8002f72 <HAL_ADCEx_InjectedStart+0x22>
 8002f6e:	2302      	movs	r3, #2
 8002f70:	e0aa      	b.n	80030c8 <HAL_ADCEx_InjectedStart+0x178>
 8002f72:	687b      	ldr	r3, [r7, #4]
 8002f74:	2201      	movs	r2, #1
 8002f76:	f883 203c 	strb.w	r2, [r3, #60]	@ 0x3c

  /* Enable the ADC peripheral */

  /* Check if ADC peripheral is disabled in order to enable it and wait during
     Tstab time the ADC's stabilization */
  if ((hadc->Instance->CR2 & ADC_CR2_ADON) != ADC_CR2_ADON)
 8002f7a:	687b      	ldr	r3, [r7, #4]
 8002f7c:	681b      	ldr	r3, [r3, #0]
 8002f7e:	689b      	ldr	r3, [r3, #8]
 8002f80:	f003 0301 	and.w	r3, r3, #1
 8002f84:	2b01      	cmp	r3, #1
 8002f86:	d018      	beq.n	8002fba <HAL_ADCEx_InjectedStart+0x6a>
  {
    /* Enable the Peripheral */
    __HAL_ADC_ENABLE(hadc);
 8002f88:	687b      	ldr	r3, [r7, #4]
 8002f8a:	681b      	ldr	r3, [r3, #0]
 8002f8c:	689a      	ldr	r2, [r3, #8]
 8002f8e:	687b      	ldr	r3, [r7, #4]
 8002f90:	681b      	ldr	r3, [r3, #0]
 8002f92:	f042 0201 	orr.w	r2, r2, #1
 8002f96:	609a      	str	r2, [r3, #8]

    /* Delay for ADC stabilization time */
    /* Compute number of CPU cycles to wait for */
    counter = (ADC_STAB_DELAY_US * (SystemCoreClock / 1000000U));
 8002f98:	4b4e      	ldr	r3, [pc, #312]	@ (80030d4 <HAL_ADCEx_InjectedStart+0x184>)
 8002f9a:	681b      	ldr	r3, [r3, #0]
 8002f9c:	4a4e      	ldr	r2, [pc, #312]	@ (80030d8 <HAL_ADCEx_InjectedStart+0x188>)
 8002f9e:	fba2 2303 	umull	r2, r3, r2, r3
 8002fa2:	0c9a      	lsrs	r2, r3, #18
 8002fa4:	4613      	mov	r3, r2
 8002fa6:	005b      	lsls	r3, r3, #1
 8002fa8:	4413      	add	r3, r2
 8002faa:	60bb      	str	r3, [r7, #8]
    while (counter != 0U)
 8002fac:	e002      	b.n	8002fb4 <HAL_ADCEx_InjectedStart+0x64>
    {
      counter--;
 8002fae:	68bb      	ldr	r3, [r7, #8]
 8002fb0:	3b01      	subs	r3, #1
 8002fb2:	60bb      	str	r3, [r7, #8]
    while (counter != 0U)
 8002fb4:	68bb      	ldr	r3, [r7, #8]
 8002fb6:	2b00      	cmp	r3, #0
 8002fb8:	d1f9      	bne.n	8002fae <HAL_ADCEx_InjectedStart+0x5e>
    }
  }

  /* Start conversion if ADC is effectively enabled */
  if (HAL_IS_BIT_SET(hadc->Instance->CR2, ADC_CR2_ADON))
 8002fba:	687b      	ldr	r3, [r7, #4]
 8002fbc:	681b      	ldr	r3, [r3, #0]
 8002fbe:	689b      	ldr	r3, [r3, #8]
 8002fc0:	f003 0301 	and.w	r3, r3, #1
 8002fc4:	2b01      	cmp	r3, #1
 8002fc6:	d172      	bne.n	80030ae <HAL_ADCEx_InjectedStart+0x15e>
  {
    /* Set ADC state                                                          */
    /* - Clear state bitfield related to injected group conversion results    */
    /* - Set state bitfield related to injected operation                     */
    ADC_STATE_CLR_SET(hadc->State,
 8002fc8:	687b      	ldr	r3, [r7, #4]
 8002fca:	6c1b      	ldr	r3, [r3, #64]	@ 0x40
 8002fcc:	f423 5340 	bic.w	r3, r3, #12288	@ 0x3000
 8002fd0:	f023 0301 	bic.w	r3, r3, #1
 8002fd4:	f443 5280 	orr.w	r2, r3, #4096	@ 0x1000
 8002fd8:	687b      	ldr	r3, [r7, #4]
 8002fda:	641a      	str	r2, [r3, #64]	@ 0x40

    /* Check if a regular conversion is ongoing */
    /* Note: On this device, there is no ADC error code fields related to     */
    /*       conversions on group injected only. In case of conversion on     */
    /*       going on group regular, no error code is reset.                  */
    if (HAL_IS_BIT_CLR(hadc->State, HAL_ADC_STATE_REG_BUSY))
 8002fdc:	687b      	ldr	r3, [r7, #4]
 8002fde:	6c1b      	ldr	r3, [r3, #64]	@ 0x40
 8002fe0:	f403 7380 	and.w	r3, r3, #256	@ 0x100
 8002fe4:	2b00      	cmp	r3, #0
 8002fe6:	d102      	bne.n	8002fee <HAL_ADCEx_InjectedStart+0x9e>
    {
      /* Reset ADC all error code fields */
      ADC_CLEAR_ERRORCODE(hadc);
 8002fe8:	687b      	ldr	r3, [r7, #4]
 8002fea:	2200      	movs	r2, #0
 8002fec:	645a      	str	r2, [r3, #68]	@ 0x44
    }

    /* Process unlocked */
    /* Unlock before starting ADC conversions: in case of potential           */
    /* interruption, to let the process to ADC IRQ Handler.                   */
    __HAL_UNLOCK(hadc);
 8002fee:	687b      	ldr	r3, [r7, #4]
 8002ff0:	2200      	movs	r2, #0
 8002ff2:	f883 203c 	strb.w	r2, [r3, #60]	@ 0x3c

    /* Clear injected group conversion flag */
    /* (To ensure of no unknown state from potential previous ADC operations) */
    __HAL_ADC_CLEAR_FLAG(hadc, ADC_FLAG_JEOC);
 8002ff6:	687b      	ldr	r3, [r7, #4]
 8002ff8:	681b      	ldr	r3, [r3, #0]
 8002ffa:	f06f 0204 	mvn.w	r2, #4
 8002ffe:	601a      	str	r2, [r3, #0]

    /* Pointer to the common control register to which is belonging hadc    */
    /* (Depending on STM32F4 product, there may be up to 3 ADC and 1 common */
    /* control register)                                                    */
    tmpADC_Common = ADC_COMMON_REGISTER(hadc);
 8003000:	4b36      	ldr	r3, [pc, #216]	@ (80030dc <HAL_ADCEx_InjectedStart+0x18c>)
 8003002:	60fb      	str	r3, [r7, #12]

    /* Check if Multimode enabled */
    if (HAL_IS_BIT_CLR(tmpADC_Common->CCR, ADC_CCR_MULTI))
 8003004:	68fb      	ldr	r3, [r7, #12]
 8003006:	685b      	ldr	r3, [r3, #4]
 8003008:	f003 031f 	and.w	r3, r3, #31
 800300c:	2b00      	cmp	r3, #0
 800300e:	d124      	bne.n	800305a <HAL_ADCEx_InjectedStart+0x10a>
    {
      tmp1 = HAL_IS_BIT_CLR(hadc->Instance->CR2, ADC_CR2_JEXTEN);
 8003010:	687b      	ldr	r3, [r7, #4]
 8003012:	681b      	ldr	r3, [r3, #0]
 8003014:	689b      	ldr	r3, [r3, #8]
 8003016:	f403 1340 	and.w	r3, r3, #3145728	@ 0x300000
 800301a:	2b00      	cmp	r3, #0
 800301c:	bf0c      	ite	eq
 800301e:	2301      	moveq	r3, #1
 8003020:	2300      	movne	r3, #0
 8003022:	b2db      	uxtb	r3, r3
 8003024:	617b      	str	r3, [r7, #20]
      tmp2 = HAL_IS_BIT_CLR(hadc->Instance->CR1, ADC_CR1_JAUTO);
 8003026:	687b      	ldr	r3, [r7, #4]
 8003028:	681b      	ldr	r3, [r3, #0]
 800302a:	685b      	ldr	r3, [r3, #4]
 800302c:	f403 6380 	and.w	r3, r3, #1024	@ 0x400
 8003030:	2b00      	cmp	r3, #0
 8003032:	bf0c      	ite	eq
 8003034:	2301      	moveq	r3, #1
 8003036:	2300      	movne	r3, #0
 8003038:	b2db      	uxtb	r3, r3
 800303a:	613b      	str	r3, [r7, #16]
      if (tmp1 && tmp2)
 800303c:	697b      	ldr	r3, [r7, #20]
 800303e:	2b00      	cmp	r3, #0
 8003040:	d041      	beq.n	80030c6 <HAL_ADCEx_InjectedStart+0x176>
 8003042:	693b      	ldr	r3, [r7, #16]
 8003044:	2b00      	cmp	r3, #0
 8003046:	d03e      	beq.n	80030c6 <HAL_ADCEx_InjectedStart+0x176>
      {
        /* Enable the selected ADC software conversion for injected group */
        hadc->Instance->CR2 |= ADC_CR2_JSWSTART;
 8003048:	687b      	ldr	r3, [r7, #4]
 800304a:	681b      	ldr	r3, [r3, #0]
 800304c:	689a      	ldr	r2, [r3, #8]
 800304e:	687b      	ldr	r3, [r7, #4]
 8003050:	681b      	ldr	r3, [r3, #0]
 8003052:	f442 0280 	orr.w	r2, r2, #4194304	@ 0x400000
 8003056:	609a      	str	r2, [r3, #8]
 8003058:	e035      	b.n	80030c6 <HAL_ADCEx_InjectedStart+0x176>
      }
    }
    else
    {
      tmp1 = HAL_IS_BIT_CLR(hadc->Instance->CR2, ADC_CR2_JEXTEN);
 800305a:	687b      	ldr	r3, [r7, #4]
 800305c:	681b      	ldr	r3, [r3, #0]
 800305e:	689b      	ldr	r3, [r3, #8]
 8003060:	f403 1340 	and.w	r3, r3, #3145728	@ 0x300000
 8003064:	2b00      	cmp	r3, #0
 8003066:	bf0c      	ite	eq
 8003068:	2301      	moveq	r3, #1
 800306a:	2300      	movne	r3, #0
 800306c:	b2db      	uxtb	r3, r3
 800306e:	617b      	str	r3, [r7, #20]
      tmp2 = HAL_IS_BIT_CLR(hadc->Instance->CR1, ADC_CR1_JAUTO);
 8003070:	687b      	ldr	r3, [r7, #4]
 8003072:	681b      	ldr	r3, [r3, #0]
 8003074:	685b      	ldr	r3, [r3, #4]
 8003076:	f403 6380 	and.w	r3, r3, #1024	@ 0x400
 800307a:	2b00      	cmp	r3, #0
 800307c:	bf0c      	ite	eq
 800307e:	2301      	moveq	r3, #1
 8003080:	2300      	movne	r3, #0
 8003082:	b2db      	uxtb	r3, r3
 8003084:	613b      	str	r3, [r7, #16]
      if ((hadc->Instance == ADC1) && tmp1 && tmp2)
 8003086:	687b      	ldr	r3, [r7, #4]
 8003088:	681b      	ldr	r3, [r3, #0]
 800308a:	4a15      	ldr	r2, [pc, #84]	@ (80030e0 <HAL_ADCEx_InjectedStart+0x190>)
 800308c:	4293      	cmp	r3, r2
 800308e:	d11a      	bne.n	80030c6 <HAL_ADCEx_InjectedStart+0x176>
 8003090:	697b      	ldr	r3, [r7, #20]
 8003092:	2b00      	cmp	r3, #0
 8003094:	d017      	beq.n	80030c6 <HAL_ADCEx_InjectedStart+0x176>
 8003096:	693b      	ldr	r3, [r7, #16]
 8003098:	2b00      	cmp	r3, #0
 800309a:	d014      	beq.n	80030c6 <HAL_ADCEx_InjectedStart+0x176>
      {
        /* Enable the selected ADC software conversion for injected group */
        hadc->Instance->CR2 |= ADC_CR2_JSWSTART;
 800309c:	687b      	ldr	r3, [r7, #4]
 800309e:	681b      	ldr	r3, [r3, #0]
 80030a0:	689a      	ldr	r2, [r3, #8]
 80030a2:	687b      	ldr	r3, [r7, #4]
 80030a4:	681b      	ldr	r3, [r3, #0]
 80030a6:	f442 0280 	orr.w	r2, r2, #4194304	@ 0x400000
 80030aa:	609a      	str	r2, [r3, #8]
 80030ac:	e00b      	b.n	80030c6 <HAL_ADCEx_InjectedStart+0x176>
    }
  }
  else
  {
    /* Update ADC state machine to error */
    SET_BIT(hadc->State, HAL_ADC_STATE_ERROR_INTERNAL);
 80030ae:	687b      	ldr	r3, [r7, #4]
 80030b0:	6c1b      	ldr	r3, [r3, #64]	@ 0x40
 80030b2:	f043 0210 	orr.w	r2, r3, #16
 80030b6:	687b      	ldr	r3, [r7, #4]
 80030b8:	641a      	str	r2, [r3, #64]	@ 0x40

    /* Set ADC error code to ADC IP internal error */
    SET_BIT(hadc->ErrorCode, HAL_ADC_ERROR_INTERNAL);
 80030ba:	687b      	ldr	r3, [r7, #4]
 80030bc:	6c5b      	ldr	r3, [r3, #68]	@ 0x44
 80030be:	f043 0201 	orr.w	r2, r3, #1
 80030c2:	687b      	ldr	r3, [r7, #4]
 80030c4:	645a      	str	r2, [r3, #68]	@ 0x44
  }

  /* Return function status */
  return HAL_OK;
 80030c6:	2300      	movs	r3, #0
}
 80030c8:	4618      	mov	r0, r3
 80030ca:	371c      	adds	r7, #28
 80030cc:	46bd      	mov	sp, r7
 80030ce:	f85d 7b04 	ldr.w	r7, [sp], #4
 80030d2:	4770      	bx	lr
 80030d4:	20000000 	.word	0x20000000
 80030d8:	431bde83 	.word	0x431bde83
 80030dc:	40012300 	.word	0x40012300
 80030e0:	40012000 	.word	0x40012000

080030e4 <HAL_CAN_Init>:
  * @param  hcan pointer to a CAN_HandleTypeDef structure that contains
  *         the configuration information for the specified CAN.
  * @retval HAL status
  */
HAL_StatusTypeDef HAL_CAN_Init(CAN_HandleTypeDef *hcan)
{
 80030e4:	b580      	push	{r7, lr}
 80030e6:	b084      	sub	sp, #16
 80030e8:	af00      	add	r7, sp, #0
 80030ea:	6078      	str	r0, [r7, #4]
  uint32_t tickstart;

  /* Check CAN handle */
  if (hcan == NULL)
 80030ec:	687b      	ldr	r3, [r7, #4]
 80030ee:	2b00      	cmp	r3, #0
 80030f0:	d101      	bne.n	80030f6 <HAL_CAN_Init+0x12>
  {
    return HAL_ERROR;
 80030f2:	2301      	movs	r3, #1
 80030f4:	e0ed      	b.n	80032d2 <HAL_CAN_Init+0x1ee>
    /* Init the low level hardware: CLOCK, NVIC */
    hcan->MspInitCallback(hcan);
  }

#else
  if (hcan->State == HAL_CAN_STATE_RESET)
 80030f6:	687b      	ldr	r3, [r7, #4]
 80030f8:	f893 3020 	ldrb.w	r3, [r3, #32]
 80030fc:	b2db      	uxtb	r3, r3
 80030fe:	2b00      	cmp	r3, #0
 8003100:	d102      	bne.n	8003108 <HAL_CAN_Init+0x24>
  {
    /* Init the low level hardware: CLOCK, NVIC */
    HAL_CAN_MspInit(hcan);
 8003102:	6878      	ldr	r0, [r7, #4]
 8003104:	f7ff f884 	bl	8002210 <HAL_CAN_MspInit>
  }
#endif /* USE_HAL_CAN_REGISTER_CALLBACKS */

  /* Request initialisation */
  SET_BIT(hcan->Instance->MCR, CAN_MCR_INRQ);
 8003108:	687b      	ldr	r3, [r7, #4]
 800310a:	681b      	ldr	r3, [r3, #0]
 800310c:	681a      	ldr	r2, [r3, #0]
 800310e:	687b      	ldr	r3, [r7, #4]
 8003110:	681b      	ldr	r3, [r3, #0]
 8003112:	f042 0201 	orr.w	r2, r2, #1
 8003116:	601a      	str	r2, [r3, #0]

  /* Get tick */
  tickstart = HAL_GetTick();
 8003118:	f7ff fb0e 	bl	8002738 <HAL_GetTick>
 800311c:	60f8      	str	r0, [r7, #12]

  /* Wait initialisation acknowledge */
  while ((hcan->Instance->MSR & CAN_MSR_INAK) == 0U)
 800311e:	e012      	b.n	8003146 <HAL_CAN_Init+0x62>
  {
    if ((HAL_GetTick() - tickstart) > CAN_TIMEOUT_VALUE)
 8003120:	f7ff fb0a 	bl	8002738 <HAL_GetTick>
 8003124:	4602      	mov	r2, r0
 8003126:	68fb      	ldr	r3, [r7, #12]
 8003128:	1ad3      	subs	r3, r2, r3
 800312a:	2b0a      	cmp	r3, #10
 800312c:	d90b      	bls.n	8003146 <HAL_CAN_Init+0x62>
    {
      /* Update error code */
      hcan->ErrorCode |= HAL_CAN_ERROR_TIMEOUT;
 800312e:	687b      	ldr	r3, [r7, #4]
 8003130:	6a5b      	ldr	r3, [r3, #36]	@ 0x24
 8003132:	f443 3200 	orr.w	r2, r3, #131072	@ 0x20000
 8003136:	687b      	ldr	r3, [r7, #4]
 8003138:	625a      	str	r2, [r3, #36]	@ 0x24

      /* Change CAN state */
      hcan->State = HAL_CAN_STATE_ERROR;
 800313a:	687b      	ldr	r3, [r7, #4]
 800313c:	2205      	movs	r2, #5
 800313e:	f883 2020 	strb.w	r2, [r3, #32]

      return HAL_ERROR;
 8003142:	2301      	movs	r3, #1
 8003144:	e0c5      	b.n	80032d2 <HAL_CAN_Init+0x1ee>
  while ((hcan->Instance->MSR & CAN_MSR_INAK) == 0U)
 8003146:	687b      	ldr	r3, [r7, #4]
 8003148:	681b      	ldr	r3, [r3, #0]
 800314a:	685b      	ldr	r3, [r3, #4]
 800314c:	f003 0301 	and.w	r3, r3, #1
 8003150:	2b00      	cmp	r3, #0
 8003152:	d0e5      	beq.n	8003120 <HAL_CAN_Init+0x3c>
    }
  }

  /* Exit from sleep mode */
  CLEAR_BIT(hcan->Instance->MCR, CAN_MCR_SLEEP);
 8003154:	687b      	ldr	r3, [r7, #4]
 8003156:	681b      	ldr	r3, [r3, #0]
 8003158:	681a      	ldr	r2, [r3, #0]
 800315a:	687b      	ldr	r3, [r7, #4]
 800315c:	681b      	ldr	r3, [r3, #0]
 800315e:	f022 0202 	bic.w	r2, r2, #2
 8003162:	601a      	str	r2, [r3, #0]

  /* Get tick */
  tickstart = HAL_GetTick();
 8003164:	f7ff fae8 	bl	8002738 <HAL_GetTick>
 8003168:	60f8      	str	r0, [r7, #12]

  /* Check Sleep mode leave acknowledge */
  while ((hcan->Instance->MSR & CAN_MSR_SLAK) != 0U)
 800316a:	e012      	b.n	8003192 <HAL_CAN_Init+0xae>
  {
    if ((HAL_GetTick() - tickstart) > CAN_TIMEOUT_VALUE)
 800316c:	f7ff fae4 	bl	8002738 <HAL_GetTick>
 8003170:	4602      	mov	r2, r0
 8003172:	68fb      	ldr	r3, [r7, #12]
 8003174:	1ad3      	subs	r3, r2, r3
 8003176:	2b0a      	cmp	r3, #10
 8003178:	d90b      	bls.n	8003192 <HAL_CAN_Init+0xae>
    {
      /* Update error code */
      hcan->ErrorCode |= HAL_CAN_ERROR_TIMEOUT;
 800317a:	687b      	ldr	r3, [r7, #4]
 800317c:	6a5b      	ldr	r3, [r3, #36]	@ 0x24
 800317e:	f443 3200 	orr.w	r2, r3, #131072	@ 0x20000
 8003182:	687b      	ldr	r3, [r7, #4]
 8003184:	625a      	str	r2, [r3, #36]	@ 0x24

      /* Change CAN state */
      hcan->State = HAL_CAN_STATE_ERROR;
 8003186:	687b      	ldr	r3, [r7, #4]
 8003188:	2205      	movs	r2, #5
 800318a:	f883 2020 	strb.w	r2, [r3, #32]

      return HAL_ERROR;
 800318e:	2301      	movs	r3, #1
 8003190:	e09f      	b.n	80032d2 <HAL_CAN_Init+0x1ee>
  while ((hcan->Instance->MSR & CAN_MSR_SLAK) != 0U)
 8003192:	687b      	ldr	r3, [r7, #4]
 8003194:	681b      	ldr	r3, [r3, #0]
 8003196:	685b      	ldr	r3, [r3, #4]
 8003198:	f003 0302 	and.w	r3, r3, #2
 800319c:	2b00      	cmp	r3, #0
 800319e:	d1e5      	bne.n	800316c <HAL_CAN_Init+0x88>
    }
  }

  /* Set the time triggered communication mode */
  if (hcan->Init.TimeTriggeredMode == ENABLE)
 80031a0:	687b      	ldr	r3, [r7, #4]
 80031a2:	7e1b      	ldrb	r3, [r3, #24]
 80031a4:	2b01      	cmp	r3, #1
 80031a6:	d108      	bne.n	80031ba <HAL_CAN_Init+0xd6>
  {
    SET_BIT(hcan->Instance->MCR, CAN_MCR_TTCM);
 80031a8:	687b      	ldr	r3, [r7, #4]
 80031aa:	681b      	ldr	r3, [r3, #0]
 80031ac:	681a      	ldr	r2, [r3, #0]
 80031ae:	687b      	ldr	r3, [r7, #4]
 80031b0:	681b      	ldr	r3, [r3, #0]
 80031b2:	f042 0280 	orr.w	r2, r2, #128	@ 0x80
 80031b6:	601a      	str	r2, [r3, #0]
 80031b8:	e007      	b.n	80031ca <HAL_CAN_Init+0xe6>
  }
  else
  {
    CLEAR_BIT(hcan->Instance->MCR, CAN_MCR_TTCM);
 80031ba:	687b      	ldr	r3, [r7, #4]
 80031bc:	681b      	ldr	r3, [r3, #0]
 80031be:	681a      	ldr	r2, [r3, #0]
 80031c0:	687b      	ldr	r3, [r7, #4]
 80031c2:	681b      	ldr	r3, [r3, #0]
 80031c4:	f022 0280 	bic.w	r2, r2, #128	@ 0x80
 80031c8:	601a      	str	r2, [r3, #0]
  }

  /* Set the automatic bus-off management */
  if (hcan->Init.AutoBusOff == ENABLE)
 80031ca:	687b      	ldr	r3, [r7, #4]
 80031cc:	7e5b      	ldrb	r3, [r3, #25]
 80031ce:	2b01      	cmp	r3, #1
 80031d0:	d108      	bne.n	80031e4 <HAL_CAN_Init+0x100>
  {
    SET_BIT(hcan->Instance->MCR, CAN_MCR_ABOM);
 80031d2:	687b      	ldr	r3, [r7, #4]
 80031d4:	681b      	ldr	r3, [r3, #0]
 80031d6:	681a      	ldr	r2, [r3, #0]
 80031d8:	687b      	ldr	r3, [r7, #4]
 80031da:	681b      	ldr	r3, [r3, #0]
 80031dc:	f042 0240 	orr.w	r2, r2, #64	@ 0x40
 80031e0:	601a      	str	r2, [r3, #0]
 80031e2:	e007      	b.n	80031f4 <HAL_CAN_Init+0x110>
  }
  else
  {
    CLEAR_BIT(hcan->Instance->MCR, CAN_MCR_ABOM);
 80031e4:	687b      	ldr	r3, [r7, #4]
 80031e6:	681b      	ldr	r3, [r3, #0]
 80031e8:	681a      	ldr	r2, [r3, #0]
 80031ea:	687b      	ldr	r3, [r7, #4]
 80031ec:	681b      	ldr	r3, [r3, #0]
 80031ee:	f022 0240 	bic.w	r2, r2, #64	@ 0x40
 80031f2:	601a      	str	r2, [r3, #0]
  }

  /* Set the automatic wake-up mode */
  if (hcan->Init.AutoWakeUp == ENABLE)
 80031f4:	687b      	ldr	r3, [r7, #4]
 80031f6:	7e9b      	ldrb	r3, [r3, #26]
 80031f8:	2b01      	cmp	r3, #1
 80031fa:	d108      	bne.n	800320e <HAL_CAN_Init+0x12a>
  {
    SET_BIT(hcan->Instance->MCR, CAN_MCR_AWUM);
 80031fc:	687b      	ldr	r3, [r7, #4]
 80031fe:	681b      	ldr	r3, [r3, #0]
 8003200:	681a      	ldr	r2, [r3, #0]
 8003202:	687b      	ldr	r3, [r7, #4]
 8003204:	681b      	ldr	r3, [r3, #0]
 8003206:	f042 0220 	orr.w	r2, r2, #32
 800320a:	601a      	str	r2, [r3, #0]
 800320c:	e007      	b.n	800321e <HAL_CAN_Init+0x13a>
  }
  else
  {
    CLEAR_BIT(hcan->Instance->MCR, CAN_MCR_AWUM);
 800320e:	687b      	ldr	r3, [r7, #4]
 8003210:	681b      	ldr	r3, [r3, #0]
 8003212:	681a      	ldr	r2, [r3, #0]
 8003214:	687b      	ldr	r3, [r7, #4]
 8003216:	681b      	ldr	r3, [r3, #0]
 8003218:	f022 0220 	bic.w	r2, r2, #32
 800321c:	601a      	str	r2, [r3, #0]
  }

  /* Set the automatic retransmission */
  if (hcan->Init.AutoRetransmission == ENABLE)
 800321e:	687b      	ldr	r3, [r7, #4]
 8003220:	7edb      	ldrb	r3, [r3, #27]
 8003222:	2b01      	cmp	r3, #1
 8003224:	d108      	bne.n	8003238 <HAL_CAN_Init+0x154>
  {
    CLEAR_BIT(hcan->Instance->MCR, CAN_MCR_NART);
 8003226:	687b      	ldr	r3, [r7, #4]
 8003228:	681b      	ldr	r3, [r3, #0]
 800322a:	681a      	ldr	r2, [r3, #0]
 800322c:	687b      	ldr	r3, [r7, #4]
 800322e:	681b      	ldr	r3, [r3, #0]
 8003230:	f022 0210 	bic.w	r2, r2, #16
 8003234:	601a      	str	r2, [r3, #0]
 8003236:	e007      	b.n	8003248 <HAL_CAN_Init+0x164>
  }
  else
  {
    SET_BIT(hcan->Instance->MCR, CAN_MCR_NART);
 8003238:	687b      	ldr	r3, [r7, #4]
 800323a:	681b      	ldr	r3, [r3, #0]
 800323c:	681a      	ldr	r2, [r3, #0]
 800323e:	687b      	ldr	r3, [r7, #4]
 8003240:	681b      	ldr	r3, [r3, #0]
 8003242:	f042 0210 	orr.w	r2, r2, #16
 8003246:	601a      	str	r2, [r3, #0]
  }

  /* Set the receive FIFO locked mode */
  if (hcan->Init.ReceiveFifoLocked == ENABLE)
 8003248:	687b      	ldr	r3, [r7, #4]
 800324a:	7f1b      	ldrb	r3, [r3, #28]
 800324c:	2b01      	cmp	r3, #1
 800324e:	d108      	bne.n	8003262 <HAL_CAN_Init+0x17e>
  {
    SET_BIT(hcan->Instance->MCR, CAN_MCR_RFLM);
 8003250:	687b      	ldr	r3, [r7, #4]
 8003252:	681b      	ldr	r3, [r3, #0]
 8003254:	681a      	ldr	r2, [r3, #0]
 8003256:	687b      	ldr	r3, [r7, #4]
 8003258:	681b      	ldr	r3, [r3, #0]
 800325a:	f042 0208 	orr.w	r2, r2, #8
 800325e:	601a      	str	r2, [r3, #0]
 8003260:	e007      	b.n	8003272 <HAL_CAN_Init+0x18e>
  }
  else
  {
    CLEAR_BIT(hcan->Instance->MCR, CAN_MCR_RFLM);
 8003262:	687b      	ldr	r3, [r7, #4]
 8003264:	681b      	ldr	r3, [r3, #0]
 8003266:	681a      	ldr	r2, [r3, #0]
 8003268:	687b      	ldr	r3, [r7, #4]
 800326a:	681b      	ldr	r3, [r3, #0]
 800326c:	f022 0208 	bic.w	r2, r2, #8
 8003270:	601a      	str	r2, [r3, #0]
  }

  /* Set the transmit FIFO priority */
  if (hcan->Init.TransmitFifoPriority == ENABLE)
 8003272:	687b      	ldr	r3, [r7, #4]
 8003274:	7f5b      	ldrb	r3, [r3, #29]
 8003276:	2b01      	cmp	r3, #1
 8003278:	d108      	bne.n	800328c <HAL_CAN_Init+0x1a8>
  {
    SET_BIT(hcan->Instance->MCR, CAN_MCR_TXFP);
 800327a:	687b      	ldr	r3, [r7, #4]
 800327c:	681b      	ldr	r3, [r3, #0]
 800327e:	681a      	ldr	r2, [r3, #0]
 8003280:	687b      	ldr	r3, [r7, #4]
 8003282:	681b      	ldr	r3, [r3, #0]
 8003284:	f042 0204 	orr.w	r2, r2, #4
 8003288:	601a      	str	r2, [r3, #0]
 800328a:	e007      	b.n	800329c <HAL_CAN_Init+0x1b8>
  }
  else
  {
    CLEAR_BIT(hcan->Instance->MCR, CAN_MCR_TXFP);
 800328c:	687b      	ldr	r3, [r7, #4]
 800328e:	681b      	ldr	r3, [r3, #0]
 8003290:	681a      	ldr	r2, [r3, #0]
 8003292:	687b      	ldr	r3, [r7, #4]
 8003294:	681b      	ldr	r3, [r3, #0]
 8003296:	f022 0204 	bic.w	r2, r2, #4
 800329a:	601a      	str	r2, [r3, #0]
  }

  /* Set the bit timing register */
  WRITE_REG(hcan->Instance->BTR, (uint32_t)(hcan->Init.Mode           |
 800329c:	687b      	ldr	r3, [r7, #4]
 800329e:	689a      	ldr	r2, [r3, #8]
 80032a0:	687b      	ldr	r3, [r7, #4]
 80032a2:	68db      	ldr	r3, [r3, #12]
 80032a4:	431a      	orrs	r2, r3
 80032a6:	687b      	ldr	r3, [r7, #4]
 80032a8:	691b      	ldr	r3, [r3, #16]
 80032aa:	431a      	orrs	r2, r3
 80032ac:	687b      	ldr	r3, [r7, #4]
 80032ae:	695b      	ldr	r3, [r3, #20]
 80032b0:	ea42 0103 	orr.w	r1, r2, r3
 80032b4:	687b      	ldr	r3, [r7, #4]
 80032b6:	685b      	ldr	r3, [r3, #4]
 80032b8:	1e5a      	subs	r2, r3, #1
 80032ba:	687b      	ldr	r3, [r7, #4]
 80032bc:	681b      	ldr	r3, [r3, #0]
 80032be:	430a      	orrs	r2, r1
 80032c0:	61da      	str	r2, [r3, #28]
                                            hcan->Init.TimeSeg1       |
                                            hcan->Init.TimeSeg2       |
                                            (hcan->Init.Prescaler - 1U)));

  /* Initialize the error code */
  hcan->ErrorCode = HAL_CAN_ERROR_NONE;
 80032c2:	687b      	ldr	r3, [r7, #4]
 80032c4:	2200      	movs	r2, #0
 80032c6:	625a      	str	r2, [r3, #36]	@ 0x24

  /* Initialize the CAN state */
  hcan->State = HAL_CAN_STATE_READY;
 80032c8:	687b      	ldr	r3, [r7, #4]
 80032ca:	2201      	movs	r2, #1
 80032cc:	f883 2020 	strb.w	r2, [r3, #32]

  /* Return function status */
  return HAL_OK;
 80032d0:	2300      	movs	r3, #0
}
 80032d2:	4618      	mov	r0, r3
 80032d4:	3710      	adds	r7, #16
 80032d6:	46bd      	mov	sp, r7
 80032d8:	bd80      	pop	{r7, pc}
	...

080032dc <HAL_CAN_ConfigFilter>:
  * @param  sFilterConfig pointer to a CAN_FilterTypeDef structure that
  *         contains the filter configuration information.
  * @retval None
  */
HAL_StatusTypeDef HAL_CAN_ConfigFilter(CAN_HandleTypeDef *hcan, const CAN_FilterTypeDef *sFilterConfig)
{
 80032dc:	b480      	push	{r7}
 80032de:	b087      	sub	sp, #28
 80032e0:	af00      	add	r7, sp, #0
 80032e2:	6078      	str	r0, [r7, #4]
 80032e4:	6039      	str	r1, [r7, #0]
  uint32_t filternbrbitpos;
  CAN_TypeDef *can_ip = hcan->Instance;
 80032e6:	687b      	ldr	r3, [r7, #4]
 80032e8:	681b      	ldr	r3, [r3, #0]
 80032ea:	617b      	str	r3, [r7, #20]
  HAL_CAN_StateTypeDef state = hcan->State;
 80032ec:	687b      	ldr	r3, [r7, #4]
 80032ee:	f893 3020 	ldrb.w	r3, [r3, #32]
 80032f2:	74fb      	strb	r3, [r7, #19]

  if ((state == HAL_CAN_STATE_READY) ||
 80032f4:	7cfb      	ldrb	r3, [r7, #19]
 80032f6:	2b01      	cmp	r3, #1
 80032f8:	d003      	beq.n	8003302 <HAL_CAN_ConfigFilter+0x26>
 80032fa:	7cfb      	ldrb	r3, [r7, #19]
 80032fc:	2b02      	cmp	r3, #2
 80032fe:	f040 80be 	bne.w	800347e <HAL_CAN_ConfigFilter+0x1a2>
      assert_param(IS_CAN_FILTER_BANK_DUAL(sFilterConfig->SlaveStartFilterBank));
    }
#elif defined(CAN2)
    /* CAN1 and CAN2 are dual instances with 28 common filters banks */
    /* Select master instance to access the filter banks */
    can_ip = CAN1;
 8003302:	4b65      	ldr	r3, [pc, #404]	@ (8003498 <HAL_CAN_ConfigFilter+0x1bc>)
 8003304:	617b      	str	r3, [r7, #20]
    /* Check the parameters */
    assert_param(IS_CAN_FILTER_BANK_SINGLE(sFilterConfig->FilterBank));
#endif /* CAN3 */

    /* Initialisation mode for the filter */
    SET_BIT(can_ip->FMR, CAN_FMR_FINIT);
 8003306:	697b      	ldr	r3, [r7, #20]
 8003308:	f8d3 3200 	ldr.w	r3, [r3, #512]	@ 0x200
 800330c:	f043 0201 	orr.w	r2, r3, #1
 8003310:	697b      	ldr	r3, [r7, #20]
 8003312:	f8c3 2200 	str.w	r2, [r3, #512]	@ 0x200
      SET_BIT(can_ip->FMR, sFilterConfig->SlaveStartFilterBank << CAN_FMR_CAN2SB_Pos);
    }

#elif defined(CAN2)
    /* Select the start filter number of CAN2 slave instance */
    CLEAR_BIT(can_ip->FMR, CAN_FMR_CAN2SB);
 8003316:	697b      	ldr	r3, [r7, #20]
 8003318:	f8d3 3200 	ldr.w	r3, [r3, #512]	@ 0x200
 800331c:	f423 527c 	bic.w	r2, r3, #16128	@ 0x3f00
 8003320:	697b      	ldr	r3, [r7, #20]
 8003322:	f8c3 2200 	str.w	r2, [r3, #512]	@ 0x200
    SET_BIT(can_ip->FMR, sFilterConfig->SlaveStartFilterBank << CAN_FMR_CAN2SB_Pos);
 8003326:	697b      	ldr	r3, [r7, #20]
 8003328:	f8d3 2200 	ldr.w	r2, [r3, #512]	@ 0x200
 800332c:	683b      	ldr	r3, [r7, #0]
 800332e:	6a5b      	ldr	r3, [r3, #36]	@ 0x24
 8003330:	021b      	lsls	r3, r3, #8
 8003332:	431a      	orrs	r2, r3
 8003334:	697b      	ldr	r3, [r7, #20]
 8003336:	f8c3 2200 	str.w	r2, [r3, #512]	@ 0x200

#endif /* CAN3 */
    /* Convert filter number into bit position */
    filternbrbitpos = (uint32_t)1 << (sFilterConfig->FilterBank & 0x1FU);
 800333a:	683b      	ldr	r3, [r7, #0]
 800333c:	695b      	ldr	r3, [r3, #20]
 800333e:	f003 031f 	and.w	r3, r3, #31
 8003342:	2201      	movs	r2, #1
 8003344:	fa02 f303 	lsl.w	r3, r2, r3
 8003348:	60fb      	str	r3, [r7, #12]

    /* Filter Deactivation */
    CLEAR_BIT(can_ip->FA1R, filternbrbitpos);
 800334a:	697b      	ldr	r3, [r7, #20]
 800334c:	f8d3 221c 	ldr.w	r2, [r3, #540]	@ 0x21c
 8003350:	68fb      	ldr	r3, [r7, #12]
 8003352:	43db      	mvns	r3, r3
 8003354:	401a      	ands	r2, r3
 8003356:	697b      	ldr	r3, [r7, #20]
 8003358:	f8c3 221c 	str.w	r2, [r3, #540]	@ 0x21c

    /* Filter Scale */
    if (sFilterConfig->FilterScale == CAN_FILTERSCALE_16BIT)
 800335c:	683b      	ldr	r3, [r7, #0]
 800335e:	69db      	ldr	r3, [r3, #28]
 8003360:	2b00      	cmp	r3, #0
 8003362:	d123      	bne.n	80033ac <HAL_CAN_ConfigFilter+0xd0>
    {
      /* 16-bit scale for the filter */
      CLEAR_BIT(can_ip->FS1R, filternbrbitpos);
 8003364:	697b      	ldr	r3, [r7, #20]
 8003366:	f8d3 220c 	ldr.w	r2, [r3, #524]	@ 0x20c
 800336a:	68fb      	ldr	r3, [r7, #12]
 800336c:	43db      	mvns	r3, r3
 800336e:	401a      	ands	r2, r3
 8003370:	697b      	ldr	r3, [r7, #20]
 8003372:	f8c3 220c 	str.w	r2, [r3, #524]	@ 0x20c

      /* First 16-bit identifier and First 16-bit mask */
      /* Or First 16-bit identifier and Second 16-bit identifier */
      can_ip->sFilterRegister[sFilterConfig->FilterBank].FR1 =
        ((0x0000FFFFU & (uint32_t)sFilterConfig->FilterMaskIdLow) << 16U) |
 8003376:	683b      	ldr	r3, [r7, #0]
 8003378:	68db      	ldr	r3, [r3, #12]
 800337a:	0419      	lsls	r1, r3, #16
        (0x0000FFFFU & (uint32_t)sFilterConfig->FilterIdLow);
 800337c:	683b      	ldr	r3, [r7, #0]
 800337e:	685b      	ldr	r3, [r3, #4]
 8003380:	b29b      	uxth	r3, r3
      can_ip->sFilterRegister[sFilterConfig->FilterBank].FR1 =
 8003382:	683a      	ldr	r2, [r7, #0]
 8003384:	6952      	ldr	r2, [r2, #20]
        ((0x0000FFFFU & (uint32_t)sFilterConfig->FilterMaskIdLow) << 16U) |
 8003386:	4319      	orrs	r1, r3
      can_ip->sFilterRegister[sFilterConfig->FilterBank].FR1 =
 8003388:	697b      	ldr	r3, [r7, #20]
 800338a:	3248      	adds	r2, #72	@ 0x48
 800338c:	f843 1032 	str.w	r1, [r3, r2, lsl #3]

      /* Second 16-bit identifier and Second 16-bit mask */
      /* Or Third 16-bit identifier and Fourth 16-bit identifier */
      can_ip->sFilterRegister[sFilterConfig->FilterBank].FR2 =
        ((0x0000FFFFU & (uint32_t)sFilterConfig->FilterMaskIdHigh) << 16U) |
 8003390:	683b      	ldr	r3, [r7, #0]
 8003392:	689b      	ldr	r3, [r3, #8]
 8003394:	0419      	lsls	r1, r3, #16
        (0x0000FFFFU & (uint32_t)sFilterConfig->FilterIdHigh);
 8003396:	683b      	ldr	r3, [r7, #0]
 8003398:	681b      	ldr	r3, [r3, #0]
 800339a:	b29a      	uxth	r2, r3
      can_ip->sFilterRegister[sFilterConfig->FilterBank].FR2 =
 800339c:	683b      	ldr	r3, [r7, #0]
 800339e:	695b      	ldr	r3, [r3, #20]
        ((0x0000FFFFU & (uint32_t)sFilterConfig->FilterMaskIdHigh) << 16U) |
 80033a0:	430a      	orrs	r2, r1
      can_ip->sFilterRegister[sFilterConfig->FilterBank].FR2 =
 80033a2:	6979      	ldr	r1, [r7, #20]
 80033a4:	3348      	adds	r3, #72	@ 0x48
 80033a6:	00db      	lsls	r3, r3, #3
 80033a8:	440b      	add	r3, r1
 80033aa:	605a      	str	r2, [r3, #4]
    }

    if (sFilterConfig->FilterScale == CAN_FILTERSCALE_32BIT)
 80033ac:	683b      	ldr	r3, [r7, #0]
 80033ae:	69db      	ldr	r3, [r3, #28]
 80033b0:	2b01      	cmp	r3, #1
 80033b2:	d122      	bne.n	80033fa <HAL_CAN_ConfigFilter+0x11e>
    {
      /* 32-bit scale for the filter */
      SET_BIT(can_ip->FS1R, filternbrbitpos);
 80033b4:	697b      	ldr	r3, [r7, #20]
 80033b6:	f8d3 220c 	ldr.w	r2, [r3, #524]	@ 0x20c
 80033ba:	68fb      	ldr	r3, [r7, #12]
 80033bc:	431a      	orrs	r2, r3
 80033be:	697b      	ldr	r3, [r7, #20]
 80033c0:	f8c3 220c 	str.w	r2, [r3, #524]	@ 0x20c

      /* 32-bit identifier or First 32-bit identifier */
      can_ip->sFilterRegister[sFilterConfig->FilterBank].FR1 =
        ((0x0000FFFFU & (uint32_t)sFilterConfig->FilterIdHigh) << 16U) |
 80033c4:	683b      	ldr	r3, [r7, #0]
 80033c6:	681b      	ldr	r3, [r3, #0]
 80033c8:	0419      	lsls	r1, r3, #16
        (0x0000FFFFU & (uint32_t)sFilterConfig->FilterIdLow);
 80033ca:	683b      	ldr	r3, [r7, #0]
 80033cc:	685b      	ldr	r3, [r3, #4]
 80033ce:	b29b      	uxth	r3, r3
      can_ip->sFilterRegister[sFilterConfig->FilterBank].FR1 =
 80033d0:	683a      	ldr	r2, [r7, #0]
 80033d2:	6952      	ldr	r2, [r2, #20]
        ((0x0000FFFFU & (uint32_t)sFilterConfig->FilterIdHigh) << 16U) |
 80033d4:	4319      	orrs	r1, r3
      can_ip->sFilterRegister[sFilterConfig->FilterBank].FR1 =
 80033d6:	697b      	ldr	r3, [r7, #20]
 80033d8:	3248      	adds	r2, #72	@ 0x48
 80033da:	f843 1032 	str.w	r1, [r3, r2, lsl #3]

      /* 32-bit mask or Second 32-bit identifier */
      can_ip->sFilterRegister[sFilterConfig->FilterBank].FR2 =
        ((0x0000FFFFU & (uint32_t)sFilterConfig->FilterMaskIdHigh) << 16U) |
 80033de:	683b      	ldr	r3, [r7, #0]
 80033e0:	689b      	ldr	r3, [r3, #8]
 80033e2:	0419      	lsls	r1, r3, #16
        (0x0000FFFFU & (uint32_t)sFilterConfig->FilterMaskIdLow);
 80033e4:	683b      	ldr	r3, [r7, #0]
 80033e6:	68db      	ldr	r3, [r3, #12]
 80033e8:	b29a      	uxth	r2, r3
      can_ip->sFilterRegister[sFilterConfig->FilterBank].FR2 =
 80033ea:	683b      	ldr	r3, [r7, #0]
 80033ec:	695b      	ldr	r3, [r3, #20]
        ((0x0000FFFFU & (uint32_t)sFilterConfig->FilterMaskIdHigh) << 16U) |
 80033ee:	430a      	orrs	r2, r1
      can_ip->sFilterRegister[sFilterConfig->FilterBank].FR2 =
 80033f0:	6979      	ldr	r1, [r7, #20]
 80033f2:	3348      	adds	r3, #72	@ 0x48
 80033f4:	00db      	lsls	r3, r3, #3
 80033f6:	440b      	add	r3, r1
 80033f8:	605a      	str	r2, [r3, #4]
    }

    /* Filter Mode */
    if (sFilterConfig->FilterMode == CAN_FILTERMODE_IDMASK)
 80033fa:	683b      	ldr	r3, [r7, #0]
 80033fc:	699b      	ldr	r3, [r3, #24]
 80033fe:	2b00      	cmp	r3, #0
 8003400:	d109      	bne.n	8003416 <HAL_CAN_ConfigFilter+0x13a>
    {
      /* Id/Mask mode for the filter*/
      CLEAR_BIT(can_ip->FM1R, filternbrbitpos);
 8003402:	697b      	ldr	r3, [r7, #20]
 8003404:	f8d3 2204 	ldr.w	r2, [r3, #516]	@ 0x204
 8003408:	68fb      	ldr	r3, [r7, #12]
 800340a:	43db      	mvns	r3, r3
 800340c:	401a      	ands	r2, r3
 800340e:	697b      	ldr	r3, [r7, #20]
 8003410:	f8c3 2204 	str.w	r2, [r3, #516]	@ 0x204
 8003414:	e007      	b.n	8003426 <HAL_CAN_ConfigFilter+0x14a>
    }
    else /* CAN_FilterInitStruct->CAN_FilterMode == CAN_FilterMode_IdList */
    {
      /* Identifier list mode for the filter*/
      SET_BIT(can_ip->FM1R, filternbrbitpos);
 8003416:	697b      	ldr	r3, [r7, #20]
 8003418:	f8d3 2204 	ldr.w	r2, [r3, #516]	@ 0x204
 800341c:	68fb      	ldr	r3, [r7, #12]
 800341e:	431a      	orrs	r2, r3
 8003420:	697b      	ldr	r3, [r7, #20]
 8003422:	f8c3 2204 	str.w	r2, [r3, #516]	@ 0x204
    }

    /* Filter FIFO assignment */
    if (sFilterConfig->FilterFIFOAssignment == CAN_FILTER_FIFO0)
 8003426:	683b      	ldr	r3, [r7, #0]
 8003428:	691b      	ldr	r3, [r3, #16]
 800342a:	2b00      	cmp	r3, #0
 800342c:	d109      	bne.n	8003442 <HAL_CAN_ConfigFilter+0x166>
    {
      /* FIFO 0 assignation for the filter */
      CLEAR_BIT(can_ip->FFA1R, filternbrbitpos);
 800342e:	697b      	ldr	r3, [r7, #20]
 8003430:	f8d3 2214 	ldr.w	r2, [r3, #532]	@ 0x214
 8003434:	68fb      	ldr	r3, [r7, #12]
 8003436:	43db      	mvns	r3, r3
 8003438:	401a      	ands	r2, r3
 800343a:	697b      	ldr	r3, [r7, #20]
 800343c:	f8c3 2214 	str.w	r2, [r3, #532]	@ 0x214
 8003440:	e007      	b.n	8003452 <HAL_CAN_ConfigFilter+0x176>
    }
    else
    {
      /* FIFO 1 assignation for the filter */
      SET_BIT(can_ip->FFA1R, filternbrbitpos);
 8003442:	697b      	ldr	r3, [r7, #20]
 8003444:	f8d3 2214 	ldr.w	r2, [r3, #532]	@ 0x214
 8003448:	68fb      	ldr	r3, [r7, #12]
 800344a:	431a      	orrs	r2, r3
 800344c:	697b      	ldr	r3, [r7, #20]
 800344e:	f8c3 2214 	str.w	r2, [r3, #532]	@ 0x214
    }

    /* Filter activation */
    if (sFilterConfig->FilterActivation == CAN_FILTER_ENABLE)
 8003452:	683b      	ldr	r3, [r7, #0]
 8003454:	6a1b      	ldr	r3, [r3, #32]
 8003456:	2b01      	cmp	r3, #1
 8003458:	d107      	bne.n	800346a <HAL_CAN_ConfigFilter+0x18e>
    {
      SET_BIT(can_ip->FA1R, filternbrbitpos);
 800345a:	697b      	ldr	r3, [r7, #20]
 800345c:	f8d3 221c 	ldr.w	r2, [r3, #540]	@ 0x21c
 8003460:	68fb      	ldr	r3, [r7, #12]
 8003462:	431a      	orrs	r2, r3
 8003464:	697b      	ldr	r3, [r7, #20]
 8003466:	f8c3 221c 	str.w	r2, [r3, #540]	@ 0x21c
    }

    /* Leave the initialisation mode for the filter */
    CLEAR_BIT(can_ip->FMR, CAN_FMR_FINIT);
 800346a:	697b      	ldr	r3, [r7, #20]
 800346c:	f8d3 3200 	ldr.w	r3, [r3, #512]	@ 0x200
 8003470:	f023 0201 	bic.w	r2, r3, #1
 8003474:	697b      	ldr	r3, [r7, #20]
 8003476:	f8c3 2200 	str.w	r2, [r3, #512]	@ 0x200

    /* Return function status */
    return HAL_OK;
 800347a:	2300      	movs	r3, #0
 800347c:	e006      	b.n	800348c <HAL_CAN_ConfigFilter+0x1b0>
  }
  else
  {
    /* Update error code */
    hcan->ErrorCode |= HAL_CAN_ERROR_NOT_INITIALIZED;
 800347e:	687b      	ldr	r3, [r7, #4]
 8003480:	6a5b      	ldr	r3, [r3, #36]	@ 0x24
 8003482:	f443 2280 	orr.w	r2, r3, #262144	@ 0x40000
 8003486:	687b      	ldr	r3, [r7, #4]
 8003488:	625a      	str	r2, [r3, #36]	@ 0x24

    return HAL_ERROR;
 800348a:	2301      	movs	r3, #1
  }
}
 800348c:	4618      	mov	r0, r3
 800348e:	371c      	adds	r7, #28
 8003490:	46bd      	mov	sp, r7
 8003492:	f85d 7b04 	ldr.w	r7, [sp], #4
 8003496:	4770      	bx	lr
 8003498:	40006400 	.word	0x40006400

0800349c <HAL_CAN_Start>:
  * @param  hcan pointer to an CAN_HandleTypeDef structure that contains
  *         the configuration information for the specified CAN.
  * @retval HAL status
  */
HAL_StatusTypeDef HAL_CAN_Start(CAN_HandleTypeDef *hcan)
{
 800349c:	b580      	push	{r7, lr}
 800349e:	b084      	sub	sp, #16
 80034a0:	af00      	add	r7, sp, #0
 80034a2:	6078      	str	r0, [r7, #4]
  uint32_t tickstart;

  if (hcan->State == HAL_CAN_STATE_READY)
 80034a4:	687b      	ldr	r3, [r7, #4]
 80034a6:	f893 3020 	ldrb.w	r3, [r3, #32]
 80034aa:	b2db      	uxtb	r3, r3
 80034ac:	2b01      	cmp	r3, #1
 80034ae:	d12e      	bne.n	800350e <HAL_CAN_Start+0x72>
  {
    /* Change CAN peripheral state */
    hcan->State = HAL_CAN_STATE_LISTENING;
 80034b0:	687b      	ldr	r3, [r7, #4]
 80034b2:	2202      	movs	r2, #2
 80034b4:	f883 2020 	strb.w	r2, [r3, #32]

    /* Request leave initialisation */
    CLEAR_BIT(hcan->Instance->MCR, CAN_MCR_INRQ);
 80034b8:	687b      	ldr	r3, [r7, #4]
 80034ba:	681b      	ldr	r3, [r3, #0]
 80034bc:	681a      	ldr	r2, [r3, #0]
 80034be:	687b      	ldr	r3, [r7, #4]
 80034c0:	681b      	ldr	r3, [r3, #0]
 80034c2:	f022 0201 	bic.w	r2, r2, #1
 80034c6:	601a      	str	r2, [r3, #0]

    /* Get tick */
    tickstart = HAL_GetTick();
 80034c8:	f7ff f936 	bl	8002738 <HAL_GetTick>
 80034cc:	60f8      	str	r0, [r7, #12]

    /* Wait the acknowledge */
    while ((hcan->Instance->MSR & CAN_MSR_INAK) != 0U)
 80034ce:	e012      	b.n	80034f6 <HAL_CAN_Start+0x5a>
    {
      /* Check for the Timeout */
      if ((HAL_GetTick() - tickstart) > CAN_TIMEOUT_VALUE)
 80034d0:	f7ff f932 	bl	8002738 <HAL_GetTick>
 80034d4:	4602      	mov	r2, r0
 80034d6:	68fb      	ldr	r3, [r7, #12]
 80034d8:	1ad3      	subs	r3, r2, r3
 80034da:	2b0a      	cmp	r3, #10
 80034dc:	d90b      	bls.n	80034f6 <HAL_CAN_Start+0x5a>
      {
        /* Update error code */
        hcan->ErrorCode |= HAL_CAN_ERROR_TIMEOUT;
 80034de:	687b      	ldr	r3, [r7, #4]
 80034e0:	6a5b      	ldr	r3, [r3, #36]	@ 0x24
 80034e2:	f443 3200 	orr.w	r2, r3, #131072	@ 0x20000
 80034e6:	687b      	ldr	r3, [r7, #4]
 80034e8:	625a      	str	r2, [r3, #36]	@ 0x24

        /* Change CAN state */
        hcan->State = HAL_CAN_STATE_ERROR;
 80034ea:	687b      	ldr	r3, [r7, #4]
 80034ec:	2205      	movs	r2, #5
 80034ee:	f883 2020 	strb.w	r2, [r3, #32]

        return HAL_ERROR;
 80034f2:	2301      	movs	r3, #1
 80034f4:	e012      	b.n	800351c <HAL_CAN_Start+0x80>
    while ((hcan->Instance->MSR & CAN_MSR_INAK) != 0U)
 80034f6:	687b      	ldr	r3, [r7, #4]
 80034f8:	681b      	ldr	r3, [r3, #0]
 80034fa:	685b      	ldr	r3, [r3, #4]
 80034fc:	f003 0301 	and.w	r3, r3, #1
 8003500:	2b00      	cmp	r3, #0
 8003502:	d1e5      	bne.n	80034d0 <HAL_CAN_Start+0x34>
      }
    }

    /* Reset the CAN ErrorCode */
    hcan->ErrorCode = HAL_CAN_ERROR_NONE;
 8003504:	687b      	ldr	r3, [r7, #4]
 8003506:	2200      	movs	r2, #0
 8003508:	625a      	str	r2, [r3, #36]	@ 0x24

    /* Return function status */
    return HAL_OK;
 800350a:	2300      	movs	r3, #0
 800350c:	e006      	b.n	800351c <HAL_CAN_Start+0x80>
  }
  else
  {
    /* Update error code */
    hcan->ErrorCode |= HAL_CAN_ERROR_NOT_READY;
 800350e:	687b      	ldr	r3, [r7, #4]
 8003510:	6a5b      	ldr	r3, [r3, #36]	@ 0x24
 8003512:	f443 2200 	orr.w	r2, r3, #524288	@ 0x80000
 8003516:	687b      	ldr	r3, [r7, #4]
 8003518:	625a      	str	r2, [r3, #36]	@ 0x24

    return HAL_ERROR;
 800351a:	2301      	movs	r3, #1
  }
}
 800351c:	4618      	mov	r0, r3
 800351e:	3710      	adds	r7, #16
 8003520:	46bd      	mov	sp, r7
 8003522:	bd80      	pop	{r7, pc}

08003524 <HAL_CAN_AddTxMessage>:
  *         This parameter can be a value of @arg CAN_Tx_Mailboxes.
  * @retval HAL status
  */
HAL_StatusTypeDef HAL_CAN_AddTxMessage(CAN_HandleTypeDef *hcan, const CAN_TxHeaderTypeDef *pHeader,
                                       const uint8_t aData[], uint32_t *pTxMailbox)
{
 8003524:	b480      	push	{r7}
 8003526:	b089      	sub	sp, #36	@ 0x24
 8003528:	af00      	add	r7, sp, #0
 800352a:	60f8      	str	r0, [r7, #12]
 800352c:	60b9      	str	r1, [r7, #8]
 800352e:	607a      	str	r2, [r7, #4]
 8003530:	603b      	str	r3, [r7, #0]
  uint32_t transmitmailbox;
  HAL_CAN_StateTypeDef state = hcan->State;
 8003532:	68fb      	ldr	r3, [r7, #12]
 8003534:	f893 3020 	ldrb.w	r3, [r3, #32]
 8003538:	77fb      	strb	r3, [r7, #31]
  uint32_t tsr = READ_REG(hcan->Instance->TSR);
 800353a:	68fb      	ldr	r3, [r7, #12]
 800353c:	681b      	ldr	r3, [r3, #0]
 800353e:	689b      	ldr	r3, [r3, #8]
 8003540:	61bb      	str	r3, [r7, #24]
  {
    assert_param(IS_CAN_EXTID(pHeader->ExtId));
  }
  assert_param(IS_FUNCTIONAL_STATE(pHeader->TransmitGlobalTime));

  if ((state == HAL_CAN_STATE_READY) ||
 8003542:	7ffb      	ldrb	r3, [r7, #31]
 8003544:	2b01      	cmp	r3, #1
 8003546:	d003      	beq.n	8003550 <HAL_CAN_AddTxMessage+0x2c>
 8003548:	7ffb      	ldrb	r3, [r7, #31]
 800354a:	2b02      	cmp	r3, #2
 800354c:	f040 80ad 	bne.w	80036aa <HAL_CAN_AddTxMessage+0x186>
      (state == HAL_CAN_STATE_LISTENING))
  {
    /* Check that all the Tx mailboxes are not full */
    if (((tsr & CAN_TSR_TME0) != 0U) ||
 8003550:	69bb      	ldr	r3, [r7, #24]
 8003552:	f003 6380 	and.w	r3, r3, #67108864	@ 0x4000000
 8003556:	2b00      	cmp	r3, #0
 8003558:	d10a      	bne.n	8003570 <HAL_CAN_AddTxMessage+0x4c>
        ((tsr & CAN_TSR_TME1) != 0U) ||
 800355a:	69bb      	ldr	r3, [r7, #24]
 800355c:	f003 6300 	and.w	r3, r3, #134217728	@ 0x8000000
    if (((tsr & CAN_TSR_TME0) != 0U) ||
 8003560:	2b00      	cmp	r3, #0
 8003562:	d105      	bne.n	8003570 <HAL_CAN_AddTxMessage+0x4c>
        ((tsr & CAN_TSR_TME2) != 0U))
 8003564:	69bb      	ldr	r3, [r7, #24]
 8003566:	f003 5380 	and.w	r3, r3, #268435456	@ 0x10000000
        ((tsr & CAN_TSR_TME1) != 0U) ||
 800356a:	2b00      	cmp	r3, #0
 800356c:	f000 8095 	beq.w	800369a <HAL_CAN_AddTxMessage+0x176>
    {
      /* Select an empty transmit mailbox */
      transmitmailbox = (tsr & CAN_TSR_CODE) >> CAN_TSR_CODE_Pos;
 8003570:	69bb      	ldr	r3, [r7, #24]
 8003572:	0e1b      	lsrs	r3, r3, #24
 8003574:	f003 0303 	and.w	r3, r3, #3
 8003578:	617b      	str	r3, [r7, #20]

      /* Store the Tx mailbox */
      *pTxMailbox = (uint32_t)1 << transmitmailbox;
 800357a:	2201      	movs	r2, #1
 800357c:	697b      	ldr	r3, [r7, #20]
 800357e:	409a      	lsls	r2, r3
 8003580:	683b      	ldr	r3, [r7, #0]
 8003582:	601a      	str	r2, [r3, #0]

      /* Set up the Id */
      if (pHeader->IDE == CAN_ID_STD)
 8003584:	68bb      	ldr	r3, [r7, #8]
 8003586:	689b      	ldr	r3, [r3, #8]
 8003588:	2b00      	cmp	r3, #0
 800358a:	d10d      	bne.n	80035a8 <HAL_CAN_AddTxMessage+0x84>
      {
        hcan->Instance->sTxMailBox[transmitmailbox].TIR = ((pHeader->StdId << CAN_TI0R_STID_Pos) |
 800358c:	68bb      	ldr	r3, [r7, #8]
 800358e:	681b      	ldr	r3, [r3, #0]
 8003590:	055a      	lsls	r2, r3, #21
                                                           pHeader->RTR);
 8003592:	68bb      	ldr	r3, [r7, #8]
 8003594:	68db      	ldr	r3, [r3, #12]
        hcan->Instance->sTxMailBox[transmitmailbox].TIR = ((pHeader->StdId << CAN_TI0R_STID_Pos) |
 8003596:	68f9      	ldr	r1, [r7, #12]
 8003598:	6809      	ldr	r1, [r1, #0]
 800359a:	431a      	orrs	r2, r3
 800359c:	697b      	ldr	r3, [r7, #20]
 800359e:	3318      	adds	r3, #24
 80035a0:	011b      	lsls	r3, r3, #4
 80035a2:	440b      	add	r3, r1
 80035a4:	601a      	str	r2, [r3, #0]
 80035a6:	e00f      	b.n	80035c8 <HAL_CAN_AddTxMessage+0xa4>
      }
      else
      {
        hcan->Instance->sTxMailBox[transmitmailbox].TIR = ((pHeader->ExtId << CAN_TI0R_EXID_Pos) |
 80035a8:	68bb      	ldr	r3, [r7, #8]
 80035aa:	685b      	ldr	r3, [r3, #4]
 80035ac:	00da      	lsls	r2, r3, #3
                                                           pHeader->IDE |
 80035ae:	68bb      	ldr	r3, [r7, #8]
 80035b0:	689b      	ldr	r3, [r3, #8]
        hcan->Instance->sTxMailBox[transmitmailbox].TIR = ((pHeader->ExtId << CAN_TI0R_EXID_Pos) |
 80035b2:	431a      	orrs	r2, r3
                                                           pHeader->RTR);
 80035b4:	68bb      	ldr	r3, [r7, #8]
 80035b6:	68db      	ldr	r3, [r3, #12]
        hcan->Instance->sTxMailBox[transmitmailbox].TIR = ((pHeader->ExtId << CAN_TI0R_EXID_Pos) |
 80035b8:	68f9      	ldr	r1, [r7, #12]
 80035ba:	6809      	ldr	r1, [r1, #0]
                                                           pHeader->IDE |
 80035bc:	431a      	orrs	r2, r3
        hcan->Instance->sTxMailBox[transmitmailbox].TIR = ((pHeader->ExtId << CAN_TI0R_EXID_Pos) |
 80035be:	697b      	ldr	r3, [r7, #20]
 80035c0:	3318      	adds	r3, #24
 80035c2:	011b      	lsls	r3, r3, #4
 80035c4:	440b      	add	r3, r1
 80035c6:	601a      	str	r2, [r3, #0]
      }

      /* Set up the DLC */
      hcan->Instance->sTxMailBox[transmitmailbox].TDTR = (pHeader->DLC);
 80035c8:	68fb      	ldr	r3, [r7, #12]
 80035ca:	6819      	ldr	r1, [r3, #0]
 80035cc:	68bb      	ldr	r3, [r7, #8]
 80035ce:	691a      	ldr	r2, [r3, #16]
 80035d0:	697b      	ldr	r3, [r7, #20]
 80035d2:	3318      	adds	r3, #24
 80035d4:	011b      	lsls	r3, r3, #4
 80035d6:	440b      	add	r3, r1
 80035d8:	3304      	adds	r3, #4
 80035da:	601a      	str	r2, [r3, #0]

      /* Set up the Transmit Global Time mode */
      if (pHeader->TransmitGlobalTime == ENABLE)
 80035dc:	68bb      	ldr	r3, [r7, #8]
 80035de:	7d1b      	ldrb	r3, [r3, #20]
 80035e0:	2b01      	cmp	r3, #1
 80035e2:	d111      	bne.n	8003608 <HAL_CAN_AddTxMessage+0xe4>
      {
        SET_BIT(hcan->Instance->sTxMailBox[transmitmailbox].TDTR, CAN_TDT0R_TGT);
 80035e4:	68fb      	ldr	r3, [r7, #12]
 80035e6:	681a      	ldr	r2, [r3, #0]
 80035e8:	697b      	ldr	r3, [r7, #20]
 80035ea:	3318      	adds	r3, #24
 80035ec:	011b      	lsls	r3, r3, #4
 80035ee:	4413      	add	r3, r2
 80035f0:	3304      	adds	r3, #4
 80035f2:	681b      	ldr	r3, [r3, #0]
 80035f4:	68fa      	ldr	r2, [r7, #12]
 80035f6:	6811      	ldr	r1, [r2, #0]
 80035f8:	f443 7280 	orr.w	r2, r3, #256	@ 0x100
 80035fc:	697b      	ldr	r3, [r7, #20]
 80035fe:	3318      	adds	r3, #24
 8003600:	011b      	lsls	r3, r3, #4
 8003602:	440b      	add	r3, r1
 8003604:	3304      	adds	r3, #4
 8003606:	601a      	str	r2, [r3, #0]
      }

      /* Set up the data field */
      WRITE_REG(hcan->Instance->sTxMailBox[transmitmailbox].TDHR,
 8003608:	687b      	ldr	r3, [r7, #4]
 800360a:	3307      	adds	r3, #7
 800360c:	781b      	ldrb	r3, [r3, #0]
 800360e:	061a      	lsls	r2, r3, #24
 8003610:	687b      	ldr	r3, [r7, #4]
 8003612:	3306      	adds	r3, #6
 8003614:	781b      	ldrb	r3, [r3, #0]
 8003616:	041b      	lsls	r3, r3, #16
 8003618:	431a      	orrs	r2, r3
 800361a:	687b      	ldr	r3, [r7, #4]
 800361c:	3305      	adds	r3, #5
 800361e:	781b      	ldrb	r3, [r3, #0]
 8003620:	021b      	lsls	r3, r3, #8
 8003622:	4313      	orrs	r3, r2
 8003624:	687a      	ldr	r2, [r7, #4]
 8003626:	3204      	adds	r2, #4
 8003628:	7812      	ldrb	r2, [r2, #0]
 800362a:	4610      	mov	r0, r2
 800362c:	68fa      	ldr	r2, [r7, #12]
 800362e:	6811      	ldr	r1, [r2, #0]
 8003630:	ea43 0200 	orr.w	r2, r3, r0
 8003634:	697b      	ldr	r3, [r7, #20]
 8003636:	011b      	lsls	r3, r3, #4
 8003638:	440b      	add	r3, r1
 800363a:	f503 73c6 	add.w	r3, r3, #396	@ 0x18c
 800363e:	601a      	str	r2, [r3, #0]
                ((uint32_t)aData[7] << CAN_TDH0R_DATA7_Pos) |
                ((uint32_t)aData[6] << CAN_TDH0R_DATA6_Pos) |
                ((uint32_t)aData[5] << CAN_TDH0R_DATA5_Pos) |
                ((uint32_t)aData[4] << CAN_TDH0R_DATA4_Pos));
      WRITE_REG(hcan->Instance->sTxMailBox[transmitmailbox].TDLR,
 8003640:	687b      	ldr	r3, [r7, #4]
 8003642:	3303      	adds	r3, #3
 8003644:	781b      	ldrb	r3, [r3, #0]
 8003646:	061a      	lsls	r2, r3, #24
 8003648:	687b      	ldr	r3, [r7, #4]
 800364a:	3302      	adds	r3, #2
 800364c:	781b      	ldrb	r3, [r3, #0]
 800364e:	041b      	lsls	r3, r3, #16
 8003650:	431a      	orrs	r2, r3
 8003652:	687b      	ldr	r3, [r7, #4]
 8003654:	3301      	adds	r3, #1
 8003656:	781b      	ldrb	r3, [r3, #0]
 8003658:	021b      	lsls	r3, r3, #8
 800365a:	4313      	orrs	r3, r2
 800365c:	687a      	ldr	r2, [r7, #4]
 800365e:	7812      	ldrb	r2, [r2, #0]
 8003660:	4610      	mov	r0, r2
 8003662:	68fa      	ldr	r2, [r7, #12]
 8003664:	6811      	ldr	r1, [r2, #0]
 8003666:	ea43 0200 	orr.w	r2, r3, r0
 800366a:	697b      	ldr	r3, [r7, #20]
 800366c:	011b      	lsls	r3, r3, #4
 800366e:	440b      	add	r3, r1
 8003670:	f503 73c4 	add.w	r3, r3, #392	@ 0x188
 8003674:	601a      	str	r2, [r3, #0]
                ((uint32_t)aData[2] << CAN_TDL0R_DATA2_Pos) |
                ((uint32_t)aData[1] << CAN_TDL0R_DATA1_Pos) |
                ((uint32_t)aData[0] << CAN_TDL0R_DATA0_Pos));

      /* Request transmission */
      SET_BIT(hcan->Instance->sTxMailBox[transmitmailbox].TIR, CAN_TI0R_TXRQ);
 8003676:	68fb      	ldr	r3, [r7, #12]
 8003678:	681a      	ldr	r2, [r3, #0]
 800367a:	697b      	ldr	r3, [r7, #20]
 800367c:	3318      	adds	r3, #24
 800367e:	011b      	lsls	r3, r3, #4
 8003680:	4413      	add	r3, r2
 8003682:	681b      	ldr	r3, [r3, #0]
 8003684:	68fa      	ldr	r2, [r7, #12]
 8003686:	6811      	ldr	r1, [r2, #0]
 8003688:	f043 0201 	orr.w	r2, r3, #1
 800368c:	697b      	ldr	r3, [r7, #20]
 800368e:	3318      	adds	r3, #24
 8003690:	011b      	lsls	r3, r3, #4
 8003692:	440b      	add	r3, r1
 8003694:	601a      	str	r2, [r3, #0]

      /* Return function status */
      return HAL_OK;
 8003696:	2300      	movs	r3, #0
 8003698:	e00e      	b.n	80036b8 <HAL_CAN_AddTxMessage+0x194>
    }
    else
    {
      /* Update error code */
      hcan->ErrorCode |= HAL_CAN_ERROR_PARAM;
 800369a:	68fb      	ldr	r3, [r7, #12]
 800369c:	6a5b      	ldr	r3, [r3, #36]	@ 0x24
 800369e:	f443 1200 	orr.w	r2, r3, #2097152	@ 0x200000
 80036a2:	68fb      	ldr	r3, [r7, #12]
 80036a4:	625a      	str	r2, [r3, #36]	@ 0x24

      return HAL_ERROR;
 80036a6:	2301      	movs	r3, #1
 80036a8:	e006      	b.n	80036b8 <HAL_CAN_AddTxMessage+0x194>
    }
  }
  else
  {
    /* Update error code */
    hcan->ErrorCode |= HAL_CAN_ERROR_NOT_INITIALIZED;
 80036aa:	68fb      	ldr	r3, [r7, #12]
 80036ac:	6a5b      	ldr	r3, [r3, #36]	@ 0x24
 80036ae:	f443 2280 	orr.w	r2, r3, #262144	@ 0x40000
 80036b2:	68fb      	ldr	r3, [r7, #12]
 80036b4:	625a      	str	r2, [r3, #36]	@ 0x24

    return HAL_ERROR;
 80036b6:	2301      	movs	r3, #1
  }
}
 80036b8:	4618      	mov	r0, r3
 80036ba:	3724      	adds	r7, #36	@ 0x24
 80036bc:	46bd      	mov	sp, r7
 80036be:	f85d 7b04 	ldr.w	r7, [sp], #4
 80036c2:	4770      	bx	lr

080036c4 <HAL_CAN_GetTxMailboxesFreeLevel>:
  * @param  hcan pointer to a CAN_HandleTypeDef structure that contains
  *         the configuration information for the specified CAN.
  * @retval Number of free Tx Mailboxes.
  */
uint32_t HAL_CAN_GetTxMailboxesFreeLevel(const CAN_HandleTypeDef *hcan)
{
 80036c4:	b480      	push	{r7}
 80036c6:	b085      	sub	sp, #20
 80036c8:	af00      	add	r7, sp, #0
 80036ca:	6078      	str	r0, [r7, #4]
  uint32_t freelevel = 0U;
 80036cc:	2300      	movs	r3, #0
 80036ce:	60fb      	str	r3, [r7, #12]
  HAL_CAN_StateTypeDef state = hcan->State;
 80036d0:	687b      	ldr	r3, [r7, #4]
 80036d2:	f893 3020 	ldrb.w	r3, [r3, #32]
 80036d6:	72fb      	strb	r3, [r7, #11]

  if ((state == HAL_CAN_STATE_READY) ||
 80036d8:	7afb      	ldrb	r3, [r7, #11]
 80036da:	2b01      	cmp	r3, #1
 80036dc:	d002      	beq.n	80036e4 <HAL_CAN_GetTxMailboxesFreeLevel+0x20>
 80036de:	7afb      	ldrb	r3, [r7, #11]
 80036e0:	2b02      	cmp	r3, #2
 80036e2:	d11d      	bne.n	8003720 <HAL_CAN_GetTxMailboxesFreeLevel+0x5c>
      (state == HAL_CAN_STATE_LISTENING))
  {
    /* Check Tx Mailbox 0 status */
    if ((hcan->Instance->TSR & CAN_TSR_TME0) != 0U)
 80036e4:	687b      	ldr	r3, [r7, #4]
 80036e6:	681b      	ldr	r3, [r3, #0]
 80036e8:	689b      	ldr	r3, [r3, #8]
 80036ea:	f003 6380 	and.w	r3, r3, #67108864	@ 0x4000000
 80036ee:	2b00      	cmp	r3, #0
 80036f0:	d002      	beq.n	80036f8 <HAL_CAN_GetTxMailboxesFreeLevel+0x34>
    {
      freelevel++;
 80036f2:	68fb      	ldr	r3, [r7, #12]
 80036f4:	3301      	adds	r3, #1
 80036f6:	60fb      	str	r3, [r7, #12]
    }

    /* Check Tx Mailbox 1 status */
    if ((hcan->Instance->TSR & CAN_TSR_TME1) != 0U)
 80036f8:	687b      	ldr	r3, [r7, #4]
 80036fa:	681b      	ldr	r3, [r3, #0]
 80036fc:	689b      	ldr	r3, [r3, #8]
 80036fe:	f003 6300 	and.w	r3, r3, #134217728	@ 0x8000000
 8003702:	2b00      	cmp	r3, #0
 8003704:	d002      	beq.n	800370c <HAL_CAN_GetTxMailboxesFreeLevel+0x48>
    {
      freelevel++;
 8003706:	68fb      	ldr	r3, [r7, #12]
 8003708:	3301      	adds	r3, #1
 800370a:	60fb      	str	r3, [r7, #12]
    }

    /* Check Tx Mailbox 2 status */
    if ((hcan->Instance->TSR & CAN_TSR_TME2) != 0U)
 800370c:	687b      	ldr	r3, [r7, #4]
 800370e:	681b      	ldr	r3, [r3, #0]
 8003710:	689b      	ldr	r3, [r3, #8]
 8003712:	f003 5380 	and.w	r3, r3, #268435456	@ 0x10000000
 8003716:	2b00      	cmp	r3, #0
 8003718:	d002      	beq.n	8003720 <HAL_CAN_GetTxMailboxesFreeLevel+0x5c>
    {
      freelevel++;
 800371a:	68fb      	ldr	r3, [r7, #12]
 800371c:	3301      	adds	r3, #1
 800371e:	60fb      	str	r3, [r7, #12]
    }
  }

  /* Return Tx Mailboxes free level */
  return freelevel;
 8003720:	68fb      	ldr	r3, [r7, #12]
}
 8003722:	4618      	mov	r0, r3
 8003724:	3714      	adds	r7, #20
 8003726:	46bd      	mov	sp, r7
 8003728:	f85d 7b04 	ldr.w	r7, [sp], #4
 800372c:	4770      	bx	lr

0800372e <HAL_CAN_GetRxMessage>:
  * @param  aData array where the payload of the Rx frame will be stored.
  * @retval HAL status
  */
HAL_StatusTypeDef HAL_CAN_GetRxMessage(CAN_HandleTypeDef *hcan, uint32_t RxFifo,
                                       CAN_RxHeaderTypeDef *pHeader, uint8_t aData[])
{
 800372e:	b480      	push	{r7}
 8003730:	b087      	sub	sp, #28
 8003732:	af00      	add	r7, sp, #0
 8003734:	60f8      	str	r0, [r7, #12]
 8003736:	60b9      	str	r1, [r7, #8]
 8003738:	607a      	str	r2, [r7, #4]
 800373a:	603b      	str	r3, [r7, #0]
  HAL_CAN_StateTypeDef state = hcan->State;
 800373c:	68fb      	ldr	r3, [r7, #12]
 800373e:	f893 3020 	ldrb.w	r3, [r3, #32]
 8003742:	75fb      	strb	r3, [r7, #23]

  assert_param(IS_CAN_RX_FIFO(RxFifo));

  if ((state == HAL_CAN_STATE_READY) ||
 8003744:	7dfb      	ldrb	r3, [r7, #23]
 8003746:	2b01      	cmp	r3, #1
 8003748:	d003      	beq.n	8003752 <HAL_CAN_GetRxMessage+0x24>
 800374a:	7dfb      	ldrb	r3, [r7, #23]
 800374c:	2b02      	cmp	r3, #2
 800374e:	f040 8103 	bne.w	8003958 <HAL_CAN_GetRxMessage+0x22a>
      (state == HAL_CAN_STATE_LISTENING))
  {
    /* Check the Rx FIFO */
    if (RxFifo == CAN_RX_FIFO0) /* Rx element is assigned to Rx FIFO 0 */
 8003752:	68bb      	ldr	r3, [r7, #8]
 8003754:	2b00      	cmp	r3, #0
 8003756:	d10e      	bne.n	8003776 <HAL_CAN_GetRxMessage+0x48>
    {
      /* Check that the Rx FIFO 0 is not empty */
      if ((hcan->Instance->RF0R & CAN_RF0R_FMP0) == 0U)
 8003758:	68fb      	ldr	r3, [r7, #12]
 800375a:	681b      	ldr	r3, [r3, #0]
 800375c:	68db      	ldr	r3, [r3, #12]
 800375e:	f003 0303 	and.w	r3, r3, #3
 8003762:	2b00      	cmp	r3, #0
 8003764:	d116      	bne.n	8003794 <HAL_CAN_GetRxMessage+0x66>
      {
        /* Update error code */
        hcan->ErrorCode |= HAL_CAN_ERROR_PARAM;
 8003766:	68fb      	ldr	r3, [r7, #12]
 8003768:	6a5b      	ldr	r3, [r3, #36]	@ 0x24
 800376a:	f443 1200 	orr.w	r2, r3, #2097152	@ 0x200000
 800376e:	68fb      	ldr	r3, [r7, #12]
 8003770:	625a      	str	r2, [r3, #36]	@ 0x24

        return HAL_ERROR;
 8003772:	2301      	movs	r3, #1
 8003774:	e0f7      	b.n	8003966 <HAL_CAN_GetRxMessage+0x238>
      }
    }
    else /* Rx element is assigned to Rx FIFO 1 */
    {
      /* Check that the Rx FIFO 1 is not empty */
      if ((hcan->Instance->RF1R & CAN_RF1R_FMP1) == 0U)
 8003776:	68fb      	ldr	r3, [r7, #12]
 8003778:	681b      	ldr	r3, [r3, #0]
 800377a:	691b      	ldr	r3, [r3, #16]
 800377c:	f003 0303 	and.w	r3, r3, #3
 8003780:	2b00      	cmp	r3, #0
 8003782:	d107      	bne.n	8003794 <HAL_CAN_GetRxMessage+0x66>
      {
        /* Update error code */
        hcan->ErrorCode |= HAL_CAN_ERROR_PARAM;
 8003784:	68fb      	ldr	r3, [r7, #12]
 8003786:	6a5b      	ldr	r3, [r3, #36]	@ 0x24
 8003788:	f443 1200 	orr.w	r2, r3, #2097152	@ 0x200000
 800378c:	68fb      	ldr	r3, [r7, #12]
 800378e:	625a      	str	r2, [r3, #36]	@ 0x24

        return HAL_ERROR;
 8003790:	2301      	movs	r3, #1
 8003792:	e0e8      	b.n	8003966 <HAL_CAN_GetRxMessage+0x238>
      }
    }

    /* Get the header */
    pHeader->IDE = CAN_RI0R_IDE & hcan->Instance->sFIFOMailBox[RxFifo].RIR;
 8003794:	68fb      	ldr	r3, [r7, #12]
 8003796:	681a      	ldr	r2, [r3, #0]
 8003798:	68bb      	ldr	r3, [r7, #8]
 800379a:	331b      	adds	r3, #27
 800379c:	011b      	lsls	r3, r3, #4
 800379e:	4413      	add	r3, r2
 80037a0:	681b      	ldr	r3, [r3, #0]
 80037a2:	f003 0204 	and.w	r2, r3, #4
 80037a6:	687b      	ldr	r3, [r7, #4]
 80037a8:	609a      	str	r2, [r3, #8]
    if (pHeader->IDE == CAN_ID_STD)
 80037aa:	687b      	ldr	r3, [r7, #4]
 80037ac:	689b      	ldr	r3, [r3, #8]
 80037ae:	2b00      	cmp	r3, #0
 80037b0:	d10c      	bne.n	80037cc <HAL_CAN_GetRxMessage+0x9e>
    {
      pHeader->StdId = (CAN_RI0R_STID & hcan->Instance->sFIFOMailBox[RxFifo].RIR) >> CAN_TI0R_STID_Pos;
 80037b2:	68fb      	ldr	r3, [r7, #12]
 80037b4:	681a      	ldr	r2, [r3, #0]
 80037b6:	68bb      	ldr	r3, [r7, #8]
 80037b8:	331b      	adds	r3, #27
 80037ba:	011b      	lsls	r3, r3, #4
 80037bc:	4413      	add	r3, r2
 80037be:	681b      	ldr	r3, [r3, #0]
 80037c0:	0d5b      	lsrs	r3, r3, #21
 80037c2:	f3c3 020a 	ubfx	r2, r3, #0, #11
 80037c6:	687b      	ldr	r3, [r7, #4]
 80037c8:	601a      	str	r2, [r3, #0]
 80037ca:	e00b      	b.n	80037e4 <HAL_CAN_GetRxMessage+0xb6>
    }
    else
    {
      pHeader->ExtId = ((CAN_RI0R_EXID | CAN_RI0R_STID) &
                        hcan->Instance->sFIFOMailBox[RxFifo].RIR) >> CAN_RI0R_EXID_Pos;
 80037cc:	68fb      	ldr	r3, [r7, #12]
 80037ce:	681a      	ldr	r2, [r3, #0]
 80037d0:	68bb      	ldr	r3, [r7, #8]
 80037d2:	331b      	adds	r3, #27
 80037d4:	011b      	lsls	r3, r3, #4
 80037d6:	4413      	add	r3, r2
 80037d8:	681b      	ldr	r3, [r3, #0]
 80037da:	08db      	lsrs	r3, r3, #3
 80037dc:	f023 4260 	bic.w	r2, r3, #3758096384	@ 0xe0000000
      pHeader->ExtId = ((CAN_RI0R_EXID | CAN_RI0R_STID) &
 80037e0:	687b      	ldr	r3, [r7, #4]
 80037e2:	605a      	str	r2, [r3, #4]
    }
    pHeader->RTR = (CAN_RI0R_RTR & hcan->Instance->sFIFOMailBox[RxFifo].RIR);
 80037e4:	68fb      	ldr	r3, [r7, #12]
 80037e6:	681a      	ldr	r2, [r3, #0]
 80037e8:	68bb      	ldr	r3, [r7, #8]
 80037ea:	331b      	adds	r3, #27
 80037ec:	011b      	lsls	r3, r3, #4
 80037ee:	4413      	add	r3, r2
 80037f0:	681b      	ldr	r3, [r3, #0]
 80037f2:	f003 0202 	and.w	r2, r3, #2
 80037f6:	687b      	ldr	r3, [r7, #4]
 80037f8:	60da      	str	r2, [r3, #12]
    if (((CAN_RDT0R_DLC & hcan->Instance->sFIFOMailBox[RxFifo].RDTR) >> CAN_RDT0R_DLC_Pos) >= 8U)
 80037fa:	68fb      	ldr	r3, [r7, #12]
 80037fc:	681a      	ldr	r2, [r3, #0]
 80037fe:	68bb      	ldr	r3, [r7, #8]
 8003800:	331b      	adds	r3, #27
 8003802:	011b      	lsls	r3, r3, #4
 8003804:	4413      	add	r3, r2
 8003806:	3304      	adds	r3, #4
 8003808:	681b      	ldr	r3, [r3, #0]
 800380a:	f003 0308 	and.w	r3, r3, #8
 800380e:	2b00      	cmp	r3, #0
 8003810:	d003      	beq.n	800381a <HAL_CAN_GetRxMessage+0xec>
    {
      /* Truncate DLC to 8 if received field is over range */
      pHeader->DLC = 8U;
 8003812:	687b      	ldr	r3, [r7, #4]
 8003814:	2208      	movs	r2, #8
 8003816:	611a      	str	r2, [r3, #16]
 8003818:	e00b      	b.n	8003832 <HAL_CAN_GetRxMessage+0x104>
    }
    else
    {
      pHeader->DLC = (CAN_RDT0R_DLC & hcan->Instance->sFIFOMailBox[RxFifo].RDTR) >> CAN_RDT0R_DLC_Pos;
 800381a:	68fb      	ldr	r3, [r7, #12]
 800381c:	681a      	ldr	r2, [r3, #0]
 800381e:	68bb      	ldr	r3, [r7, #8]
 8003820:	331b      	adds	r3, #27
 8003822:	011b      	lsls	r3, r3, #4
 8003824:	4413      	add	r3, r2
 8003826:	3304      	adds	r3, #4
 8003828:	681b      	ldr	r3, [r3, #0]
 800382a:	f003 020f 	and.w	r2, r3, #15
 800382e:	687b      	ldr	r3, [r7, #4]
 8003830:	611a      	str	r2, [r3, #16]
    }
    pHeader->FilterMatchIndex = (CAN_RDT0R_FMI & hcan->Instance->sFIFOMailBox[RxFifo].RDTR) >> CAN_RDT0R_FMI_Pos;
 8003832:	68fb      	ldr	r3, [r7, #12]
 8003834:	681a      	ldr	r2, [r3, #0]
 8003836:	68bb      	ldr	r3, [r7, #8]
 8003838:	331b      	adds	r3, #27
 800383a:	011b      	lsls	r3, r3, #4
 800383c:	4413      	add	r3, r2
 800383e:	3304      	adds	r3, #4
 8003840:	681b      	ldr	r3, [r3, #0]
 8003842:	0a1b      	lsrs	r3, r3, #8
 8003844:	b2da      	uxtb	r2, r3
 8003846:	687b      	ldr	r3, [r7, #4]
 8003848:	619a      	str	r2, [r3, #24]
    pHeader->Timestamp = (CAN_RDT0R_TIME & hcan->Instance->sFIFOMailBox[RxFifo].RDTR) >> CAN_RDT0R_TIME_Pos;
 800384a:	68fb      	ldr	r3, [r7, #12]
 800384c:	681a      	ldr	r2, [r3, #0]
 800384e:	68bb      	ldr	r3, [r7, #8]
 8003850:	331b      	adds	r3, #27
 8003852:	011b      	lsls	r3, r3, #4
 8003854:	4413      	add	r3, r2
 8003856:	3304      	adds	r3, #4
 8003858:	681b      	ldr	r3, [r3, #0]
 800385a:	0c1b      	lsrs	r3, r3, #16
 800385c:	b29a      	uxth	r2, r3
 800385e:	687b      	ldr	r3, [r7, #4]
 8003860:	615a      	str	r2, [r3, #20]

    /* Get the data */
    aData[0] = (uint8_t)((CAN_RDL0R_DATA0 & hcan->Instance->sFIFOMailBox[RxFifo].RDLR) >> CAN_RDL0R_DATA0_Pos);
 8003862:	68fb      	ldr	r3, [r7, #12]
 8003864:	681a      	ldr	r2, [r3, #0]
 8003866:	68bb      	ldr	r3, [r7, #8]
 8003868:	011b      	lsls	r3, r3, #4
 800386a:	4413      	add	r3, r2
 800386c:	f503 73dc 	add.w	r3, r3, #440	@ 0x1b8
 8003870:	681b      	ldr	r3, [r3, #0]
 8003872:	b2da      	uxtb	r2, r3
 8003874:	683b      	ldr	r3, [r7, #0]
 8003876:	701a      	strb	r2, [r3, #0]
    aData[1] = (uint8_t)((CAN_RDL0R_DATA1 & hcan->Instance->sFIFOMailBox[RxFifo].RDLR) >> CAN_RDL0R_DATA1_Pos);
 8003878:	68fb      	ldr	r3, [r7, #12]
 800387a:	681a      	ldr	r2, [r3, #0]
 800387c:	68bb      	ldr	r3, [r7, #8]
 800387e:	011b      	lsls	r3, r3, #4
 8003880:	4413      	add	r3, r2
 8003882:	f503 73dc 	add.w	r3, r3, #440	@ 0x1b8
 8003886:	681b      	ldr	r3, [r3, #0]
 8003888:	0a1a      	lsrs	r2, r3, #8
 800388a:	683b      	ldr	r3, [r7, #0]
 800388c:	3301      	adds	r3, #1
 800388e:	b2d2      	uxtb	r2, r2
 8003890:	701a      	strb	r2, [r3, #0]
    aData[2] = (uint8_t)((CAN_RDL0R_DATA2 & hcan->Instance->sFIFOMailBox[RxFifo].RDLR) >> CAN_RDL0R_DATA2_Pos);
 8003892:	68fb      	ldr	r3, [r7, #12]
 8003894:	681a      	ldr	r2, [r3, #0]
 8003896:	68bb      	ldr	r3, [r7, #8]
 8003898:	011b      	lsls	r3, r3, #4
 800389a:	4413      	add	r3, r2
 800389c:	f503 73dc 	add.w	r3, r3, #440	@ 0x1b8
 80038a0:	681b      	ldr	r3, [r3, #0]
 80038a2:	0c1a      	lsrs	r2, r3, #16
 80038a4:	683b      	ldr	r3, [r7, #0]
 80038a6:	3302      	adds	r3, #2
 80038a8:	b2d2      	uxtb	r2, r2
 80038aa:	701a      	strb	r2, [r3, #0]
    aData[3] = (uint8_t)((CAN_RDL0R_DATA3 & hcan->Instance->sFIFOMailBox[RxFifo].RDLR) >> CAN_RDL0R_DATA3_Pos);
 80038ac:	68fb      	ldr	r3, [r7, #12]
 80038ae:	681a      	ldr	r2, [r3, #0]
 80038b0:	68bb      	ldr	r3, [r7, #8]
 80038b2:	011b      	lsls	r3, r3, #4
 80038b4:	4413      	add	r3, r2
 80038b6:	f503 73dc 	add.w	r3, r3, #440	@ 0x1b8
 80038ba:	681b      	ldr	r3, [r3, #0]
 80038bc:	0e1a      	lsrs	r2, r3, #24
 80038be:	683b      	ldr	r3, [r7, #0]
 80038c0:	3303      	adds	r3, #3
 80038c2:	b2d2      	uxtb	r2, r2
 80038c4:	701a      	strb	r2, [r3, #0]
    aData[4] = (uint8_t)((CAN_RDH0R_DATA4 & hcan->Instance->sFIFOMailBox[RxFifo].RDHR) >> CAN_RDH0R_DATA4_Pos);
 80038c6:	68fb      	ldr	r3, [r7, #12]
 80038c8:	681a      	ldr	r2, [r3, #0]
 80038ca:	68bb      	ldr	r3, [r7, #8]
 80038cc:	011b      	lsls	r3, r3, #4
 80038ce:	4413      	add	r3, r2
 80038d0:	f503 73de 	add.w	r3, r3, #444	@ 0x1bc
 80038d4:	681a      	ldr	r2, [r3, #0]
 80038d6:	683b      	ldr	r3, [r7, #0]
 80038d8:	3304      	adds	r3, #4
 80038da:	b2d2      	uxtb	r2, r2
 80038dc:	701a      	strb	r2, [r3, #0]
    aData[5] = (uint8_t)((CAN_RDH0R_DATA5 & hcan->Instance->sFIFOMailBox[RxFifo].RDHR) >> CAN_RDH0R_DATA5_Pos);
 80038de:	68fb      	ldr	r3, [r7, #12]
 80038e0:	681a      	ldr	r2, [r3, #0]
 80038e2:	68bb      	ldr	r3, [r7, #8]
 80038e4:	011b      	lsls	r3, r3, #4
 80038e6:	4413      	add	r3, r2
 80038e8:	f503 73de 	add.w	r3, r3, #444	@ 0x1bc
 80038ec:	681b      	ldr	r3, [r3, #0]
 80038ee:	0a1a      	lsrs	r2, r3, #8
 80038f0:	683b      	ldr	r3, [r7, #0]
 80038f2:	3305      	adds	r3, #5
 80038f4:	b2d2      	uxtb	r2, r2
 80038f6:	701a      	strb	r2, [r3, #0]
    aData[6] = (uint8_t)((CAN_RDH0R_DATA6 & hcan->Instance->sFIFOMailBox[RxFifo].RDHR) >> CAN_RDH0R_DATA6_Pos);
 80038f8:	68fb      	ldr	r3, [r7, #12]
 80038fa:	681a      	ldr	r2, [r3, #0]
 80038fc:	68bb      	ldr	r3, [r7, #8]
 80038fe:	011b      	lsls	r3, r3, #4
 8003900:	4413      	add	r3, r2
 8003902:	f503 73de 	add.w	r3, r3, #444	@ 0x1bc
 8003906:	681b      	ldr	r3, [r3, #0]
 8003908:	0c1a      	lsrs	r2, r3, #16
 800390a:	683b      	ldr	r3, [r7, #0]
 800390c:	3306      	adds	r3, #6
 800390e:	b2d2      	uxtb	r2, r2
 8003910:	701a      	strb	r2, [r3, #0]
    aData[7] = (uint8_t)((CAN_RDH0R_DATA7 & hcan->Instance->sFIFOMailBox[RxFifo].RDHR) >> CAN_RDH0R_DATA7_Pos);
 8003912:	68fb      	ldr	r3, [r7, #12]
 8003914:	681a      	ldr	r2, [r3, #0]
 8003916:	68bb      	ldr	r3, [r7, #8]
 8003918:	011b      	lsls	r3, r3, #4
 800391a:	4413      	add	r3, r2
 800391c:	f503 73de 	add.w	r3, r3, #444	@ 0x1bc
 8003920:	681b      	ldr	r3, [r3, #0]
 8003922:	0e1a      	lsrs	r2, r3, #24
 8003924:	683b      	ldr	r3, [r7, #0]
 8003926:	3307      	adds	r3, #7
 8003928:	b2d2      	uxtb	r2, r2
 800392a:	701a      	strb	r2, [r3, #0]

    /* Release the FIFO */
    if (RxFifo == CAN_RX_FIFO0) /* Rx element is assigned to Rx FIFO 0 */
 800392c:	68bb      	ldr	r3, [r7, #8]
 800392e:	2b00      	cmp	r3, #0
 8003930:	d108      	bne.n	8003944 <HAL_CAN_GetRxMessage+0x216>
    {
      /* Release RX FIFO 0 */
      SET_BIT(hcan->Instance->RF0R, CAN_RF0R_RFOM0);
 8003932:	68fb      	ldr	r3, [r7, #12]
 8003934:	681b      	ldr	r3, [r3, #0]
 8003936:	68da      	ldr	r2, [r3, #12]
 8003938:	68fb      	ldr	r3, [r7, #12]
 800393a:	681b      	ldr	r3, [r3, #0]
 800393c:	f042 0220 	orr.w	r2, r2, #32
 8003940:	60da      	str	r2, [r3, #12]
 8003942:	e007      	b.n	8003954 <HAL_CAN_GetRxMessage+0x226>
    }
    else /* Rx element is assigned to Rx FIFO 1 */
    {
      /* Release RX FIFO 1 */
      SET_BIT(hcan->Instance->RF1R, CAN_RF1R_RFOM1);
 8003944:	68fb      	ldr	r3, [r7, #12]
 8003946:	681b      	ldr	r3, [r3, #0]
 8003948:	691a      	ldr	r2, [r3, #16]
 800394a:	68fb      	ldr	r3, [r7, #12]
 800394c:	681b      	ldr	r3, [r3, #0]
 800394e:	f042 0220 	orr.w	r2, r2, #32
 8003952:	611a      	str	r2, [r3, #16]
    }

    /* Return function status */
    return HAL_OK;
 8003954:	2300      	movs	r3, #0
 8003956:	e006      	b.n	8003966 <HAL_CAN_GetRxMessage+0x238>
  }
  else
  {
    /* Update error code */
    hcan->ErrorCode |= HAL_CAN_ERROR_NOT_INITIALIZED;
 8003958:	68fb      	ldr	r3, [r7, #12]
 800395a:	6a5b      	ldr	r3, [r3, #36]	@ 0x24
 800395c:	f443 2280 	orr.w	r2, r3, #262144	@ 0x40000
 8003960:	68fb      	ldr	r3, [r7, #12]
 8003962:	625a      	str	r2, [r3, #36]	@ 0x24

    return HAL_ERROR;
 8003964:	2301      	movs	r3, #1
  }
}
 8003966:	4618      	mov	r0, r3
 8003968:	371c      	adds	r7, #28
 800396a:	46bd      	mov	sp, r7
 800396c:	f85d 7b04 	ldr.w	r7, [sp], #4
 8003970:	4770      	bx	lr

08003972 <HAL_CAN_ActivateNotification>:
  * @param  ActiveITs indicates which interrupts will be enabled.
  *         This parameter can be any combination of @arg CAN_Interrupts.
  * @retval HAL status
  */
HAL_StatusTypeDef HAL_CAN_ActivateNotification(CAN_HandleTypeDef *hcan, uint32_t ActiveITs)
{
 8003972:	b480      	push	{r7}
 8003974:	b085      	sub	sp, #20
 8003976:	af00      	add	r7, sp, #0
 8003978:	6078      	str	r0, [r7, #4]
 800397a:	6039      	str	r1, [r7, #0]
  HAL_CAN_StateTypeDef state = hcan->State;
 800397c:	687b      	ldr	r3, [r7, #4]
 800397e:	f893 3020 	ldrb.w	r3, [r3, #32]
 8003982:	73fb      	strb	r3, [r7, #15]

  /* Check function parameters */
  assert_param(IS_CAN_IT(ActiveITs));

  if ((state == HAL_CAN_STATE_READY) ||
 8003984:	7bfb      	ldrb	r3, [r7, #15]
 8003986:	2b01      	cmp	r3, #1
 8003988:	d002      	beq.n	8003990 <HAL_CAN_ActivateNotification+0x1e>
 800398a:	7bfb      	ldrb	r3, [r7, #15]
 800398c:	2b02      	cmp	r3, #2
 800398e:	d109      	bne.n	80039a4 <HAL_CAN_ActivateNotification+0x32>
      (state == HAL_CAN_STATE_LISTENING))
  {
    /* Enable the selected interrupts */
    __HAL_CAN_ENABLE_IT(hcan, ActiveITs);
 8003990:	687b      	ldr	r3, [r7, #4]
 8003992:	681b      	ldr	r3, [r3, #0]
 8003994:	6959      	ldr	r1, [r3, #20]
 8003996:	687b      	ldr	r3, [r7, #4]
 8003998:	681b      	ldr	r3, [r3, #0]
 800399a:	683a      	ldr	r2, [r7, #0]
 800399c:	430a      	orrs	r2, r1
 800399e:	615a      	str	r2, [r3, #20]

    /* Return function status */
    return HAL_OK;
 80039a0:	2300      	movs	r3, #0
 80039a2:	e006      	b.n	80039b2 <HAL_CAN_ActivateNotification+0x40>
  }
  else
  {
    /* Update error code */
    hcan->ErrorCode |= HAL_CAN_ERROR_NOT_INITIALIZED;
 80039a4:	687b      	ldr	r3, [r7, #4]
 80039a6:	6a5b      	ldr	r3, [r3, #36]	@ 0x24
 80039a8:	f443 2280 	orr.w	r2, r3, #262144	@ 0x40000
 80039ac:	687b      	ldr	r3, [r7, #4]
 80039ae:	625a      	str	r2, [r3, #36]	@ 0x24

    return HAL_ERROR;
 80039b0:	2301      	movs	r3, #1
  }
}
 80039b2:	4618      	mov	r0, r3
 80039b4:	3714      	adds	r7, #20
 80039b6:	46bd      	mov	sp, r7
 80039b8:	f85d 7b04 	ldr.w	r7, [sp], #4
 80039bc:	4770      	bx	lr

080039be <HAL_CAN_IRQHandler>:
  * @param  hcan pointer to a CAN_HandleTypeDef structure that contains
  *         the configuration information for the specified CAN.
  * @retval None
  */
void HAL_CAN_IRQHandler(CAN_HandleTypeDef *hcan)
{
 80039be:	b580      	push	{r7, lr}
 80039c0:	b08a      	sub	sp, #40	@ 0x28
 80039c2:	af00      	add	r7, sp, #0
 80039c4:	6078      	str	r0, [r7, #4]
  uint32_t errorcode = HAL_CAN_ERROR_NONE;
 80039c6:	2300      	movs	r3, #0
 80039c8:	627b      	str	r3, [r7, #36]	@ 0x24
  uint32_t interrupts = READ_REG(hcan->Instance->IER);
 80039ca:	687b      	ldr	r3, [r7, #4]
 80039cc:	681b      	ldr	r3, [r3, #0]
 80039ce:	695b      	ldr	r3, [r3, #20]
 80039d0:	623b      	str	r3, [r7, #32]
  uint32_t msrflags = READ_REG(hcan->Instance->MSR);
 80039d2:	687b      	ldr	r3, [r7, #4]
 80039d4:	681b      	ldr	r3, [r3, #0]
 80039d6:	685b      	ldr	r3, [r3, #4]
 80039d8:	61fb      	str	r3, [r7, #28]
  uint32_t tsrflags = READ_REG(hcan->Instance->TSR);
 80039da:	687b      	ldr	r3, [r7, #4]
 80039dc:	681b      	ldr	r3, [r3, #0]
 80039de:	689b      	ldr	r3, [r3, #8]
 80039e0:	61bb      	str	r3, [r7, #24]
  uint32_t rf0rflags = READ_REG(hcan->Instance->RF0R);
 80039e2:	687b      	ldr	r3, [r7, #4]
 80039e4:	681b      	ldr	r3, [r3, #0]
 80039e6:	68db      	ldr	r3, [r3, #12]
 80039e8:	617b      	str	r3, [r7, #20]
  uint32_t rf1rflags = READ_REG(hcan->Instance->RF1R);
 80039ea:	687b      	ldr	r3, [r7, #4]
 80039ec:	681b      	ldr	r3, [r3, #0]
 80039ee:	691b      	ldr	r3, [r3, #16]
 80039f0:	613b      	str	r3, [r7, #16]
  uint32_t esrflags = READ_REG(hcan->Instance->ESR);
 80039f2:	687b      	ldr	r3, [r7, #4]
 80039f4:	681b      	ldr	r3, [r3, #0]
 80039f6:	699b      	ldr	r3, [r3, #24]
 80039f8:	60fb      	str	r3, [r7, #12]

  /* Transmit Mailbox empty interrupt management *****************************/
  if ((interrupts & CAN_IT_TX_MAILBOX_EMPTY) != 0U)
 80039fa:	6a3b      	ldr	r3, [r7, #32]
 80039fc:	f003 0301 	and.w	r3, r3, #1
 8003a00:	2b00      	cmp	r3, #0
 8003a02:	d07c      	beq.n	8003afe <HAL_CAN_IRQHandler+0x140>
  {
    /* Transmit Mailbox 0 management *****************************************/
    if ((tsrflags & CAN_TSR_RQCP0) != 0U)
 8003a04:	69bb      	ldr	r3, [r7, #24]
 8003a06:	f003 0301 	and.w	r3, r3, #1
 8003a0a:	2b00      	cmp	r3, #0
 8003a0c:	d023      	beq.n	8003a56 <HAL_CAN_IRQHandler+0x98>
    {
      /* Clear the Transmission Complete flag (and TXOK0,ALST0,TERR0 bits) */
      __HAL_CAN_CLEAR_FLAG(hcan, CAN_FLAG_RQCP0);
 8003a0e:	687b      	ldr	r3, [r7, #4]
 8003a10:	681b      	ldr	r3, [r3, #0]
 8003a12:	2201      	movs	r2, #1
 8003a14:	609a      	str	r2, [r3, #8]

      if ((tsrflags & CAN_TSR_TXOK0) != 0U)
 8003a16:	69bb      	ldr	r3, [r7, #24]
 8003a18:	f003 0302 	and.w	r3, r3, #2
 8003a1c:	2b00      	cmp	r3, #0
 8003a1e:	d003      	beq.n	8003a28 <HAL_CAN_IRQHandler+0x6a>
#if USE_HAL_CAN_REGISTER_CALLBACKS == 1
        /* Call registered callback*/
        hcan->TxMailbox0CompleteCallback(hcan);
#else
        /* Call weak (surcharged) callback */
        HAL_CAN_TxMailbox0CompleteCallback(hcan);
 8003a20:	6878      	ldr	r0, [r7, #4]
 8003a22:	f000 f983 	bl	8003d2c <HAL_CAN_TxMailbox0CompleteCallback>
 8003a26:	e016      	b.n	8003a56 <HAL_CAN_IRQHandler+0x98>
#endif /* USE_HAL_CAN_REGISTER_CALLBACKS */
      }
      else
      {
        if ((tsrflags & CAN_TSR_ALST0) != 0U)
 8003a28:	69bb      	ldr	r3, [r7, #24]
 8003a2a:	f003 0304 	and.w	r3, r3, #4
 8003a2e:	2b00      	cmp	r3, #0
 8003a30:	d004      	beq.n	8003a3c <HAL_CAN_IRQHandler+0x7e>
        {
          /* Update error code */
          errorcode |= HAL_CAN_ERROR_TX_ALST0;
 8003a32:	6a7b      	ldr	r3, [r7, #36]	@ 0x24
 8003a34:	f443 6300 	orr.w	r3, r3, #2048	@ 0x800
 8003a38:	627b      	str	r3, [r7, #36]	@ 0x24
 8003a3a:	e00c      	b.n	8003a56 <HAL_CAN_IRQHandler+0x98>
        }
        else if ((tsrflags & CAN_TSR_TERR0) != 0U)
 8003a3c:	69bb      	ldr	r3, [r7, #24]
 8003a3e:	f003 0308 	and.w	r3, r3, #8
 8003a42:	2b00      	cmp	r3, #0
 8003a44:	d004      	beq.n	8003a50 <HAL_CAN_IRQHandler+0x92>
        {
          /* Update error code */
          errorcode |= HAL_CAN_ERROR_TX_TERR0;
 8003a46:	6a7b      	ldr	r3, [r7, #36]	@ 0x24
 8003a48:	f443 5380 	orr.w	r3, r3, #4096	@ 0x1000
 8003a4c:	627b      	str	r3, [r7, #36]	@ 0x24
 8003a4e:	e002      	b.n	8003a56 <HAL_CAN_IRQHandler+0x98>
#if USE_HAL_CAN_REGISTER_CALLBACKS == 1
          /* Call registered callback*/
          hcan->TxMailbox0AbortCallback(hcan);
#else
          /* Call weak (surcharged) callback */
          HAL_CAN_TxMailbox0AbortCallback(hcan);
 8003a50:	6878      	ldr	r0, [r7, #4]
 8003a52:	f000 f989 	bl	8003d68 <HAL_CAN_TxMailbox0AbortCallback>
        }
      }
    }

    /* Transmit Mailbox 1 management *****************************************/
    if ((tsrflags & CAN_TSR_RQCP1) != 0U)
 8003a56:	69bb      	ldr	r3, [r7, #24]
 8003a58:	f403 7380 	and.w	r3, r3, #256	@ 0x100
 8003a5c:	2b00      	cmp	r3, #0
 8003a5e:	d024      	beq.n	8003aaa <HAL_CAN_IRQHandler+0xec>
    {
      /* Clear the Transmission Complete flag (and TXOK1,ALST1,TERR1 bits) */
      __HAL_CAN_CLEAR_FLAG(hcan, CAN_FLAG_RQCP1);
 8003a60:	687b      	ldr	r3, [r7, #4]
 8003a62:	681b      	ldr	r3, [r3, #0]
 8003a64:	f44f 7280 	mov.w	r2, #256	@ 0x100
 8003a68:	609a      	str	r2, [r3, #8]

      if ((tsrflags & CAN_TSR_TXOK1) != 0U)
 8003a6a:	69bb      	ldr	r3, [r7, #24]
 8003a6c:	f403 7300 	and.w	r3, r3, #512	@ 0x200
 8003a70:	2b00      	cmp	r3, #0
 8003a72:	d003      	beq.n	8003a7c <HAL_CAN_IRQHandler+0xbe>
#if USE_HAL_CAN_REGISTER_CALLBACKS == 1
        /* Call registered callback*/
        hcan->TxMailbox1CompleteCallback(hcan);
#else
        /* Call weak (surcharged) callback */
        HAL_CAN_TxMailbox1CompleteCallback(hcan);
 8003a74:	6878      	ldr	r0, [r7, #4]
 8003a76:	f000 f963 	bl	8003d40 <HAL_CAN_TxMailbox1CompleteCallback>
 8003a7a:	e016      	b.n	8003aaa <HAL_CAN_IRQHandler+0xec>
#endif /* USE_HAL_CAN_REGISTER_CALLBACKS */
      }
      else
      {
        if ((tsrflags & CAN_TSR_ALST1) != 0U)
 8003a7c:	69bb      	ldr	r3, [r7, #24]
 8003a7e:	f403 6380 	and.w	r3, r3, #1024	@ 0x400
 8003a82:	2b00      	cmp	r3, #0
 8003a84:	d004      	beq.n	8003a90 <HAL_CAN_IRQHandler+0xd2>
        {
          /* Update error code */
          errorcode |= HAL_CAN_ERROR_TX_ALST1;
 8003a86:	6a7b      	ldr	r3, [r7, #36]	@ 0x24
 8003a88:	f443 5300 	orr.w	r3, r3, #8192	@ 0x2000
 8003a8c:	627b      	str	r3, [r7, #36]	@ 0x24
 8003a8e:	e00c      	b.n	8003aaa <HAL_CAN_IRQHandler+0xec>
        }
        else if ((tsrflags & CAN_TSR_TERR1) != 0U)
 8003a90:	69bb      	ldr	r3, [r7, #24]
 8003a92:	f403 6300 	and.w	r3, r3, #2048	@ 0x800
 8003a96:	2b00      	cmp	r3, #0
 8003a98:	d004      	beq.n	8003aa4 <HAL_CAN_IRQHandler+0xe6>
        {
          /* Update error code */
          errorcode |= HAL_CAN_ERROR_TX_TERR1;
 8003a9a:	6a7b      	ldr	r3, [r7, #36]	@ 0x24
 8003a9c:	f443 4380 	orr.w	r3, r3, #16384	@ 0x4000
 8003aa0:	627b      	str	r3, [r7, #36]	@ 0x24
 8003aa2:	e002      	b.n	8003aaa <HAL_CAN_IRQHandler+0xec>
#if USE_HAL_CAN_REGISTER_CALLBACKS == 1
          /* Call registered callback*/
          hcan->TxMailbox1AbortCallback(hcan);
#else
          /* Call weak (surcharged) callback */
          HAL_CAN_TxMailbox1AbortCallback(hcan);
 8003aa4:	6878      	ldr	r0, [r7, #4]
 8003aa6:	f000 f969 	bl	8003d7c <HAL_CAN_TxMailbox1AbortCallback>
        }
      }
    }

    /* Transmit Mailbox 2 management *****************************************/
    if ((tsrflags & CAN_TSR_RQCP2) != 0U)
 8003aaa:	69bb      	ldr	r3, [r7, #24]
 8003aac:	f403 3380 	and.w	r3, r3, #65536	@ 0x10000
 8003ab0:	2b00      	cmp	r3, #0
 8003ab2:	d024      	beq.n	8003afe <HAL_CAN_IRQHandler+0x140>
    {
      /* Clear the Transmission Complete flag (and TXOK2,ALST2,TERR2 bits) */
      __HAL_CAN_CLEAR_FLAG(hcan, CAN_FLAG_RQCP2);
 8003ab4:	687b      	ldr	r3, [r7, #4]
 8003ab6:	681b      	ldr	r3, [r3, #0]
 8003ab8:	f44f 3280 	mov.w	r2, #65536	@ 0x10000
 8003abc:	609a      	str	r2, [r3, #8]

      if ((tsrflags & CAN_TSR_TXOK2) != 0U)
 8003abe:	69bb      	ldr	r3, [r7, #24]
 8003ac0:	f403 3300 	and.w	r3, r3, #131072	@ 0x20000
 8003ac4:	2b00      	cmp	r3, #0
 8003ac6:	d003      	beq.n	8003ad0 <HAL_CAN_IRQHandler+0x112>
#if USE_HAL_CAN_REGISTER_CALLBACKS == 1
        /* Call registered callback*/
        hcan->TxMailbox2CompleteCallback(hcan);
#else
        /* Call weak (surcharged) callback */
        HAL_CAN_TxMailbox2CompleteCallback(hcan);
 8003ac8:	6878      	ldr	r0, [r7, #4]
 8003aca:	f000 f943 	bl	8003d54 <HAL_CAN_TxMailbox2CompleteCallback>
 8003ace:	e016      	b.n	8003afe <HAL_CAN_IRQHandler+0x140>
#endif /* USE_HAL_CAN_REGISTER_CALLBACKS */
      }
      else
      {
        if ((tsrflags & CAN_TSR_ALST2) != 0U)
 8003ad0:	69bb      	ldr	r3, [r7, #24]
 8003ad2:	f403 2380 	and.w	r3, r3, #262144	@ 0x40000
 8003ad6:	2b00      	cmp	r3, #0
 8003ad8:	d004      	beq.n	8003ae4 <HAL_CAN_IRQHandler+0x126>
        {
          /* Update error code */
          errorcode |= HAL_CAN_ERROR_TX_ALST2;
 8003ada:	6a7b      	ldr	r3, [r7, #36]	@ 0x24
 8003adc:	f443 4300 	orr.w	r3, r3, #32768	@ 0x8000
 8003ae0:	627b      	str	r3, [r7, #36]	@ 0x24
 8003ae2:	e00c      	b.n	8003afe <HAL_CAN_IRQHandler+0x140>
        }
        else if ((tsrflags & CAN_TSR_TERR2) != 0U)
 8003ae4:	69bb      	ldr	r3, [r7, #24]
 8003ae6:	f403 2300 	and.w	r3, r3, #524288	@ 0x80000
 8003aea:	2b00      	cmp	r3, #0
 8003aec:	d004      	beq.n	8003af8 <HAL_CAN_IRQHandler+0x13a>
        {
          /* Update error code */
          errorcode |= HAL_CAN_ERROR_TX_TERR2;
 8003aee:	6a7b      	ldr	r3, [r7, #36]	@ 0x24
 8003af0:	f443 3380 	orr.w	r3, r3, #65536	@ 0x10000
 8003af4:	627b      	str	r3, [r7, #36]	@ 0x24
 8003af6:	e002      	b.n	8003afe <HAL_CAN_IRQHandler+0x140>
#if USE_HAL_CAN_REGISTER_CALLBACKS == 1
          /* Call registered callback*/
          hcan->TxMailbox2AbortCallback(hcan);
#else
          /* Call weak (surcharged) callback */
          HAL_CAN_TxMailbox2AbortCallback(hcan);
 8003af8:	6878      	ldr	r0, [r7, #4]
 8003afa:	f000 f949 	bl	8003d90 <HAL_CAN_TxMailbox2AbortCallback>
      }
    }
  }

  /* Receive FIFO 0 overrun interrupt management *****************************/
  if ((interrupts & CAN_IT_RX_FIFO0_OVERRUN) != 0U)
 8003afe:	6a3b      	ldr	r3, [r7, #32]
 8003b00:	f003 0308 	and.w	r3, r3, #8
 8003b04:	2b00      	cmp	r3, #0
 8003b06:	d00c      	beq.n	8003b22 <HAL_CAN_IRQHandler+0x164>
  {
    if ((rf0rflags & CAN_RF0R_FOVR0) != 0U)
 8003b08:	697b      	ldr	r3, [r7, #20]
 8003b0a:	f003 0310 	and.w	r3, r3, #16
 8003b0e:	2b00      	cmp	r3, #0
 8003b10:	d007      	beq.n	8003b22 <HAL_CAN_IRQHandler+0x164>
    {
      /* Set CAN error code to Rx Fifo 0 overrun error */
      errorcode |= HAL_CAN_ERROR_RX_FOV0;
 8003b12:	6a7b      	ldr	r3, [r7, #36]	@ 0x24
 8003b14:	f443 7300 	orr.w	r3, r3, #512	@ 0x200
 8003b18:	627b      	str	r3, [r7, #36]	@ 0x24

      /* Clear FIFO0 Overrun Flag */
      __HAL_CAN_CLEAR_FLAG(hcan, CAN_FLAG_FOV0);
 8003b1a:	687b      	ldr	r3, [r7, #4]
 8003b1c:	681b      	ldr	r3, [r3, #0]
 8003b1e:	2210      	movs	r2, #16
 8003b20:	60da      	str	r2, [r3, #12]
    }
  }

  /* Receive FIFO 0 full interrupt management ********************************/
  if ((interrupts & CAN_IT_RX_FIFO0_FULL) != 0U)
 8003b22:	6a3b      	ldr	r3, [r7, #32]
 8003b24:	f003 0304 	and.w	r3, r3, #4
 8003b28:	2b00      	cmp	r3, #0
 8003b2a:	d00b      	beq.n	8003b44 <HAL_CAN_IRQHandler+0x186>
  {
    if ((rf0rflags & CAN_RF0R_FULL0) != 0U)
 8003b2c:	697b      	ldr	r3, [r7, #20]
 8003b2e:	f003 0308 	and.w	r3, r3, #8
 8003b32:	2b00      	cmp	r3, #0
 8003b34:	d006      	beq.n	8003b44 <HAL_CAN_IRQHandler+0x186>
    {
      /* Clear FIFO 0 full Flag */
      __HAL_CAN_CLEAR_FLAG(hcan, CAN_FLAG_FF0);
 8003b36:	687b      	ldr	r3, [r7, #4]
 8003b38:	681b      	ldr	r3, [r3, #0]
 8003b3a:	2208      	movs	r2, #8
 8003b3c:	60da      	str	r2, [r3, #12]
#if USE_HAL_CAN_REGISTER_CALLBACKS == 1
      /* Call registered callback*/
      hcan->RxFifo0FullCallback(hcan);
#else
      /* Call weak (surcharged) callback */
      HAL_CAN_RxFifo0FullCallback(hcan);
 8003b3e:	6878      	ldr	r0, [r7, #4]
 8003b40:	f000 f930 	bl	8003da4 <HAL_CAN_RxFifo0FullCallback>
#endif /* USE_HAL_CAN_REGISTER_CALLBACKS */
    }
  }

  /* Receive FIFO 0 message pending interrupt management *********************/
  if ((interrupts & CAN_IT_RX_FIFO0_MSG_PENDING) != 0U)
 8003b44:	6a3b      	ldr	r3, [r7, #32]
 8003b46:	f003 0302 	and.w	r3, r3, #2
 8003b4a:	2b00      	cmp	r3, #0
 8003b4c:	d009      	beq.n	8003b62 <HAL_CAN_IRQHandler+0x1a4>
  {
    /* Check if message is still pending */
    if ((hcan->Instance->RF0R & CAN_RF0R_FMP0) != 0U)
 8003b4e:	687b      	ldr	r3, [r7, #4]
 8003b50:	681b      	ldr	r3, [r3, #0]
 8003b52:	68db      	ldr	r3, [r3, #12]
 8003b54:	f003 0303 	and.w	r3, r3, #3
 8003b58:	2b00      	cmp	r3, #0
 8003b5a:	d002      	beq.n	8003b62 <HAL_CAN_IRQHandler+0x1a4>
#if USE_HAL_CAN_REGISTER_CALLBACKS == 1
      /* Call registered callback*/
      hcan->RxFifo0MsgPendingCallback(hcan);
#else
      /* Call weak (surcharged) callback */
      HAL_CAN_RxFifo0MsgPendingCallback(hcan);
 8003b5c:	6878      	ldr	r0, [r7, #4]
 8003b5e:	f7fe f8b9 	bl	8001cd4 <HAL_CAN_RxFifo0MsgPendingCallback>
#endif /* USE_HAL_CAN_REGISTER_CALLBACKS */
    }
  }

  /* Receive FIFO 1 overrun interrupt management *****************************/
  if ((interrupts & CAN_IT_RX_FIFO1_OVERRUN) != 0U)
 8003b62:	6a3b      	ldr	r3, [r7, #32]
 8003b64:	f003 0340 	and.w	r3, r3, #64	@ 0x40
 8003b68:	2b00      	cmp	r3, #0
 8003b6a:	d00c      	beq.n	8003b86 <HAL_CAN_IRQHandler+0x1c8>
  {
    if ((rf1rflags & CAN_RF1R_FOVR1) != 0U)
 8003b6c:	693b      	ldr	r3, [r7, #16]
 8003b6e:	f003 0310 	and.w	r3, r3, #16
 8003b72:	2b00      	cmp	r3, #0
 8003b74:	d007      	beq.n	8003b86 <HAL_CAN_IRQHandler+0x1c8>
    {
      /* Set CAN error code to Rx Fifo 1 overrun error */
      errorcode |= HAL_CAN_ERROR_RX_FOV1;
 8003b76:	6a7b      	ldr	r3, [r7, #36]	@ 0x24
 8003b78:	f443 6380 	orr.w	r3, r3, #1024	@ 0x400
 8003b7c:	627b      	str	r3, [r7, #36]	@ 0x24

      /* Clear FIFO1 Overrun Flag */
      __HAL_CAN_CLEAR_FLAG(hcan, CAN_FLAG_FOV1);
 8003b7e:	687b      	ldr	r3, [r7, #4]
 8003b80:	681b      	ldr	r3, [r3, #0]
 8003b82:	2210      	movs	r2, #16
 8003b84:	611a      	str	r2, [r3, #16]
    }
  }

  /* Receive FIFO 1 full interrupt management ********************************/
  if ((interrupts & CAN_IT_RX_FIFO1_FULL) != 0U)
 8003b86:	6a3b      	ldr	r3, [r7, #32]
 8003b88:	f003 0320 	and.w	r3, r3, #32
 8003b8c:	2b00      	cmp	r3, #0
 8003b8e:	d00b      	beq.n	8003ba8 <HAL_CAN_IRQHandler+0x1ea>
  {
    if ((rf1rflags & CAN_RF1R_FULL1) != 0U)
 8003b90:	693b      	ldr	r3, [r7, #16]
 8003b92:	f003 0308 	and.w	r3, r3, #8
 8003b96:	2b00      	cmp	r3, #0
 8003b98:	d006      	beq.n	8003ba8 <HAL_CAN_IRQHandler+0x1ea>
    {
      /* Clear FIFO 1 full Flag */
      __HAL_CAN_CLEAR_FLAG(hcan, CAN_FLAG_FF1);
 8003b9a:	687b      	ldr	r3, [r7, #4]
 8003b9c:	681b      	ldr	r3, [r3, #0]
 8003b9e:	2208      	movs	r2, #8
 8003ba0:	611a      	str	r2, [r3, #16]
#if USE_HAL_CAN_REGISTER_CALLBACKS == 1
      /* Call registered callback*/
      hcan->RxFifo1FullCallback(hcan);
#else
      /* Call weak (surcharged) callback */
      HAL_CAN_RxFifo1FullCallback(hcan);
 8003ba2:	6878      	ldr	r0, [r7, #4]
 8003ba4:	f000 f912 	bl	8003dcc <HAL_CAN_RxFifo1FullCallback>
#endif /* USE_HAL_CAN_REGISTER_CALLBACKS */
    }
  }

  /* Receive FIFO 1 message pending interrupt management *********************/
  if ((interrupts & CAN_IT_RX_FIFO1_MSG_PENDING) != 0U)
 8003ba8:	6a3b      	ldr	r3, [r7, #32]
 8003baa:	f003 0310 	and.w	r3, r3, #16
 8003bae:	2b00      	cmp	r3, #0
 8003bb0:	d009      	beq.n	8003bc6 <HAL_CAN_IRQHandler+0x208>
  {
    /* Check if message is still pending */
    if ((hcan->Instance->RF1R & CAN_RF1R_FMP1) != 0U)
 8003bb2:	687b      	ldr	r3, [r7, #4]
 8003bb4:	681b      	ldr	r3, [r3, #0]
 8003bb6:	691b      	ldr	r3, [r3, #16]
 8003bb8:	f003 0303 	and.w	r3, r3, #3
 8003bbc:	2b00      	cmp	r3, #0
 8003bbe:	d002      	beq.n	8003bc6 <HAL_CAN_IRQHandler+0x208>
#if USE_HAL_CAN_REGISTER_CALLBACKS == 1
      /* Call registered callback*/
      hcan->RxFifo1MsgPendingCallback(hcan);
#else
      /* Call weak (surcharged) callback */
      HAL_CAN_RxFifo1MsgPendingCallback(hcan);
 8003bc0:	6878      	ldr	r0, [r7, #4]
 8003bc2:	f000 f8f9 	bl	8003db8 <HAL_CAN_RxFifo1MsgPendingCallback>
#endif /* USE_HAL_CAN_REGISTER_CALLBACKS */
    }
  }

  /* Sleep interrupt management *********************************************/
  if ((interrupts & CAN_IT_SLEEP_ACK) != 0U)
 8003bc6:	6a3b      	ldr	r3, [r7, #32]
 8003bc8:	f403 3300 	and.w	r3, r3, #131072	@ 0x20000
 8003bcc:	2b00      	cmp	r3, #0
 8003bce:	d00b      	beq.n	8003be8 <HAL_CAN_IRQHandler+0x22a>
  {
    if ((msrflags & CAN_MSR_SLAKI) != 0U)
 8003bd0:	69fb      	ldr	r3, [r7, #28]
 8003bd2:	f003 0310 	and.w	r3, r3, #16
 8003bd6:	2b00      	cmp	r3, #0
 8003bd8:	d006      	beq.n	8003be8 <HAL_CAN_IRQHandler+0x22a>
    {
      /* Clear Sleep interrupt Flag */
      __HAL_CAN_CLEAR_FLAG(hcan, CAN_FLAG_SLAKI);
 8003bda:	687b      	ldr	r3, [r7, #4]
 8003bdc:	681b      	ldr	r3, [r3, #0]
 8003bde:	2210      	movs	r2, #16
 8003be0:	605a      	str	r2, [r3, #4]
#if USE_HAL_CAN_REGISTER_CALLBACKS == 1
      /* Call registered callback*/
      hcan->SleepCallback(hcan);
#else
      /* Call weak (surcharged) callback */
      HAL_CAN_SleepCallback(hcan);
 8003be2:	6878      	ldr	r0, [r7, #4]
 8003be4:	f000 f8fc 	bl	8003de0 <HAL_CAN_SleepCallback>
#endif /* USE_HAL_CAN_REGISTER_CALLBACKS */
    }
  }

  /* WakeUp interrupt management *********************************************/
  if ((interrupts & CAN_IT_WAKEUP) != 0U)
 8003be8:	6a3b      	ldr	r3, [r7, #32]
 8003bea:	f403 3380 	and.w	r3, r3, #65536	@ 0x10000
 8003bee:	2b00      	cmp	r3, #0
 8003bf0:	d00b      	beq.n	8003c0a <HAL_CAN_IRQHandler+0x24c>
  {
    if ((msrflags & CAN_MSR_WKUI) != 0U)
 8003bf2:	69fb      	ldr	r3, [r7, #28]
 8003bf4:	f003 0308 	and.w	r3, r3, #8
 8003bf8:	2b00      	cmp	r3, #0
 8003bfa:	d006      	beq.n	8003c0a <HAL_CAN_IRQHandler+0x24c>
    {
      /* Clear WakeUp Flag */
      __HAL_CAN_CLEAR_FLAG(hcan, CAN_FLAG_WKU);
 8003bfc:	687b      	ldr	r3, [r7, #4]
 8003bfe:	681b      	ldr	r3, [r3, #0]
 8003c00:	2208      	movs	r2, #8
 8003c02:	605a      	str	r2, [r3, #4]
#if USE_HAL_CAN_REGISTER_CALLBACKS == 1
      /* Call registered callback*/
      hcan->WakeUpFromRxMsgCallback(hcan);
#else
      /* Call weak (surcharged) callback */
      HAL_CAN_WakeUpFromRxMsgCallback(hcan);
 8003c04:	6878      	ldr	r0, [r7, #4]
 8003c06:	f000 f8f5 	bl	8003df4 <HAL_CAN_WakeUpFromRxMsgCallback>
#endif /* USE_HAL_CAN_REGISTER_CALLBACKS */
    }
  }

  /* Error interrupts management *********************************************/
  if ((interrupts & CAN_IT_ERROR) != 0U)
 8003c0a:	6a3b      	ldr	r3, [r7, #32]
 8003c0c:	f403 4300 	and.w	r3, r3, #32768	@ 0x8000
 8003c10:	2b00      	cmp	r3, #0
 8003c12:	d07b      	beq.n	8003d0c <HAL_CAN_IRQHandler+0x34e>
  {
    if ((msrflags & CAN_MSR_ERRI) != 0U)
 8003c14:	69fb      	ldr	r3, [r7, #28]
 8003c16:	f003 0304 	and.w	r3, r3, #4
 8003c1a:	2b00      	cmp	r3, #0
 8003c1c:	d072      	beq.n	8003d04 <HAL_CAN_IRQHandler+0x346>
    {
      /* Check Error Warning Flag */
      if (((interrupts & CAN_IT_ERROR_WARNING) != 0U) &&
 8003c1e:	6a3b      	ldr	r3, [r7, #32]
 8003c20:	f403 7380 	and.w	r3, r3, #256	@ 0x100
 8003c24:	2b00      	cmp	r3, #0
 8003c26:	d008      	beq.n	8003c3a <HAL_CAN_IRQHandler+0x27c>
          ((esrflags & CAN_ESR_EWGF) != 0U))
 8003c28:	68fb      	ldr	r3, [r7, #12]
 8003c2a:	f003 0301 	and.w	r3, r3, #1
      if (((interrupts & CAN_IT_ERROR_WARNING) != 0U) &&
 8003c2e:	2b00      	cmp	r3, #0
 8003c30:	d003      	beq.n	8003c3a <HAL_CAN_IRQHandler+0x27c>
      {
        /* Set CAN error code to Error Warning */
        errorcode |= HAL_CAN_ERROR_EWG;
 8003c32:	6a7b      	ldr	r3, [r7, #36]	@ 0x24
 8003c34:	f043 0301 	orr.w	r3, r3, #1
 8003c38:	627b      	str	r3, [r7, #36]	@ 0x24

        /* No need for clear of Error Warning Flag as read-only */
      }

      /* Check Error Passive Flag */
      if (((interrupts & CAN_IT_ERROR_PASSIVE) != 0U) &&
 8003c3a:	6a3b      	ldr	r3, [r7, #32]
 8003c3c:	f403 7300 	and.w	r3, r3, #512	@ 0x200
 8003c40:	2b00      	cmp	r3, #0
 8003c42:	d008      	beq.n	8003c56 <HAL_CAN_IRQHandler+0x298>
          ((esrflags & CAN_ESR_EPVF) != 0U))
 8003c44:	68fb      	ldr	r3, [r7, #12]
 8003c46:	f003 0302 	and.w	r3, r3, #2
      if (((interrupts & CAN_IT_ERROR_PASSIVE) != 0U) &&
 8003c4a:	2b00      	cmp	r3, #0
 8003c4c:	d003      	beq.n	8003c56 <HAL_CAN_IRQHandler+0x298>
      {
        /* Set CAN error code to Error Passive */
        errorcode |= HAL_CAN_ERROR_EPV;
 8003c4e:	6a7b      	ldr	r3, [r7, #36]	@ 0x24
 8003c50:	f043 0302 	orr.w	r3, r3, #2
 8003c54:	627b      	str	r3, [r7, #36]	@ 0x24

        /* No need for clear of Error Passive Flag as read-only */
      }

      /* Check Bus-off Flag */
      if (((interrupts & CAN_IT_BUSOFF) != 0U) &&
 8003c56:	6a3b      	ldr	r3, [r7, #32]
 8003c58:	f403 6380 	and.w	r3, r3, #1024	@ 0x400
 8003c5c:	2b00      	cmp	r3, #0
 8003c5e:	d008      	beq.n	8003c72 <HAL_CAN_IRQHandler+0x2b4>
          ((esrflags & CAN_ESR_BOFF) != 0U))
 8003c60:	68fb      	ldr	r3, [r7, #12]
 8003c62:	f003 0304 	and.w	r3, r3, #4
      if (((interrupts & CAN_IT_BUSOFF) != 0U) &&
 8003c66:	2b00      	cmp	r3, #0
 8003c68:	d003      	beq.n	8003c72 <HAL_CAN_IRQHandler+0x2b4>
      {
        /* Set CAN error code to Bus-Off */
        errorcode |= HAL_CAN_ERROR_BOF;
 8003c6a:	6a7b      	ldr	r3, [r7, #36]	@ 0x24
 8003c6c:	f043 0304 	orr.w	r3, r3, #4
 8003c70:	627b      	str	r3, [r7, #36]	@ 0x24

        /* No need for clear of Error Bus-Off as read-only */
      }

      /* Check Last Error Code Flag */
      if (((interrupts & CAN_IT_LAST_ERROR_CODE) != 0U) &&
 8003c72:	6a3b      	ldr	r3, [r7, #32]
 8003c74:	f403 6300 	and.w	r3, r3, #2048	@ 0x800
 8003c78:	2b00      	cmp	r3, #0
 8003c7a:	d043      	beq.n	8003d04 <HAL_CAN_IRQHandler+0x346>
          ((esrflags & CAN_ESR_LEC) != 0U))
 8003c7c:	68fb      	ldr	r3, [r7, #12]
 8003c7e:	f003 0370 	and.w	r3, r3, #112	@ 0x70
      if (((interrupts & CAN_IT_LAST_ERROR_CODE) != 0U) &&
 8003c82:	2b00      	cmp	r3, #0
 8003c84:	d03e      	beq.n	8003d04 <HAL_CAN_IRQHandler+0x346>
      {
        switch (esrflags & CAN_ESR_LEC)
 8003c86:	68fb      	ldr	r3, [r7, #12]
 8003c88:	f003 0370 	and.w	r3, r3, #112	@ 0x70
 8003c8c:	2b60      	cmp	r3, #96	@ 0x60
 8003c8e:	d02b      	beq.n	8003ce8 <HAL_CAN_IRQHandler+0x32a>
 8003c90:	2b60      	cmp	r3, #96	@ 0x60
 8003c92:	d82e      	bhi.n	8003cf2 <HAL_CAN_IRQHandler+0x334>
 8003c94:	2b50      	cmp	r3, #80	@ 0x50
 8003c96:	d022      	beq.n	8003cde <HAL_CAN_IRQHandler+0x320>
 8003c98:	2b50      	cmp	r3, #80	@ 0x50
 8003c9a:	d82a      	bhi.n	8003cf2 <HAL_CAN_IRQHandler+0x334>
 8003c9c:	2b40      	cmp	r3, #64	@ 0x40
 8003c9e:	d019      	beq.n	8003cd4 <HAL_CAN_IRQHandler+0x316>
 8003ca0:	2b40      	cmp	r3, #64	@ 0x40
 8003ca2:	d826      	bhi.n	8003cf2 <HAL_CAN_IRQHandler+0x334>
 8003ca4:	2b30      	cmp	r3, #48	@ 0x30
 8003ca6:	d010      	beq.n	8003cca <HAL_CAN_IRQHandler+0x30c>
 8003ca8:	2b30      	cmp	r3, #48	@ 0x30
 8003caa:	d822      	bhi.n	8003cf2 <HAL_CAN_IRQHandler+0x334>
 8003cac:	2b10      	cmp	r3, #16
 8003cae:	d002      	beq.n	8003cb6 <HAL_CAN_IRQHandler+0x2f8>
 8003cb0:	2b20      	cmp	r3, #32
 8003cb2:	d005      	beq.n	8003cc0 <HAL_CAN_IRQHandler+0x302>
          case (CAN_ESR_LEC_2 | CAN_ESR_LEC_1):
            /* Set CAN error code to CRC error */
            errorcode |= HAL_CAN_ERROR_CRC;
            break;
          default:
            break;
 8003cb4:	e01d      	b.n	8003cf2 <HAL_CAN_IRQHandler+0x334>
            errorcode |= HAL_CAN_ERROR_STF;
 8003cb6:	6a7b      	ldr	r3, [r7, #36]	@ 0x24
 8003cb8:	f043 0308 	orr.w	r3, r3, #8
 8003cbc:	627b      	str	r3, [r7, #36]	@ 0x24
            break;
 8003cbe:	e019      	b.n	8003cf4 <HAL_CAN_IRQHandler+0x336>
            errorcode |= HAL_CAN_ERROR_FOR;
 8003cc0:	6a7b      	ldr	r3, [r7, #36]	@ 0x24
 8003cc2:	f043 0310 	orr.w	r3, r3, #16
 8003cc6:	627b      	str	r3, [r7, #36]	@ 0x24
            break;
 8003cc8:	e014      	b.n	8003cf4 <HAL_CAN_IRQHandler+0x336>
            errorcode |= HAL_CAN_ERROR_ACK;
 8003cca:	6a7b      	ldr	r3, [r7, #36]	@ 0x24
 8003ccc:	f043 0320 	orr.w	r3, r3, #32
 8003cd0:	627b      	str	r3, [r7, #36]	@ 0x24
            break;
 8003cd2:	e00f      	b.n	8003cf4 <HAL_CAN_IRQHandler+0x336>
            errorcode |= HAL_CAN_ERROR_BR;
 8003cd4:	6a7b      	ldr	r3, [r7, #36]	@ 0x24
 8003cd6:	f043 0340 	orr.w	r3, r3, #64	@ 0x40
 8003cda:	627b      	str	r3, [r7, #36]	@ 0x24
            break;
 8003cdc:	e00a      	b.n	8003cf4 <HAL_CAN_IRQHandler+0x336>
            errorcode |= HAL_CAN_ERROR_BD;
 8003cde:	6a7b      	ldr	r3, [r7, #36]	@ 0x24
 8003ce0:	f043 0380 	orr.w	r3, r3, #128	@ 0x80
 8003ce4:	627b      	str	r3, [r7, #36]	@ 0x24
            break;
 8003ce6:	e005      	b.n	8003cf4 <HAL_CAN_IRQHandler+0x336>
            errorcode |= HAL_CAN_ERROR_CRC;
 8003ce8:	6a7b      	ldr	r3, [r7, #36]	@ 0x24
 8003cea:	f443 7380 	orr.w	r3, r3, #256	@ 0x100
 8003cee:	627b      	str	r3, [r7, #36]	@ 0x24
            break;
 8003cf0:	e000      	b.n	8003cf4 <HAL_CAN_IRQHandler+0x336>
            break;
 8003cf2:	bf00      	nop
        }

        /* Clear Last error code Flag */
        CLEAR_BIT(hcan->Instance->ESR, CAN_ESR_LEC);
 8003cf4:	687b      	ldr	r3, [r7, #4]
 8003cf6:	681b      	ldr	r3, [r3, #0]
 8003cf8:	699a      	ldr	r2, [r3, #24]
 8003cfa:	687b      	ldr	r3, [r7, #4]
 8003cfc:	681b      	ldr	r3, [r3, #0]
 8003cfe:	f022 0270 	bic.w	r2, r2, #112	@ 0x70
 8003d02:	619a      	str	r2, [r3, #24]
      }
    }

    /* Clear ERRI Flag */
    __HAL_CAN_CLEAR_FLAG(hcan, CAN_FLAG_ERRI);
 8003d04:	687b      	ldr	r3, [r7, #4]
 8003d06:	681b      	ldr	r3, [r3, #0]
 8003d08:	2204      	movs	r2, #4
 8003d0a:	605a      	str	r2, [r3, #4]
  }

  /* Call the Error call Back in case of Errors */
  if (errorcode != HAL_CAN_ERROR_NONE)
 8003d0c:	6a7b      	ldr	r3, [r7, #36]	@ 0x24
 8003d0e:	2b00      	cmp	r3, #0
 8003d10:	d008      	beq.n	8003d24 <HAL_CAN_IRQHandler+0x366>
  {
    /* Update error code in handle */
    hcan->ErrorCode |= errorcode;
 8003d12:	687b      	ldr	r3, [r7, #4]
 8003d14:	6a5a      	ldr	r2, [r3, #36]	@ 0x24
 8003d16:	6a7b      	ldr	r3, [r7, #36]	@ 0x24
 8003d18:	431a      	orrs	r2, r3
 8003d1a:	687b      	ldr	r3, [r7, #4]
 8003d1c:	625a      	str	r2, [r3, #36]	@ 0x24
#if USE_HAL_CAN_REGISTER_CALLBACKS == 1
    /* Call registered callback*/
    hcan->ErrorCallback(hcan);
#else
    /* Call weak (surcharged) callback */
    HAL_CAN_ErrorCallback(hcan);
 8003d1e:	6878      	ldr	r0, [r7, #4]
 8003d20:	f000 f872 	bl	8003e08 <HAL_CAN_ErrorCallback>
#endif /* USE_HAL_CAN_REGISTER_CALLBACKS */
  }
}
 8003d24:	bf00      	nop
 8003d26:	3728      	adds	r7, #40	@ 0x28
 8003d28:	46bd      	mov	sp, r7
 8003d2a:	bd80      	pop	{r7, pc}

08003d2c <HAL_CAN_TxMailbox0CompleteCallback>:
  * @param  hcan pointer to a CAN_HandleTypeDef structure that contains
  *         the configuration information for the specified CAN.
  * @retval None
  */
__weak void HAL_CAN_TxMailbox0CompleteCallback(CAN_HandleTypeDef *hcan)
{
 8003d2c:	b480      	push	{r7}
 8003d2e:	b083      	sub	sp, #12
 8003d30:	af00      	add	r7, sp, #0
 8003d32:	6078      	str	r0, [r7, #4]

  /* NOTE : This function Should not be modified, when the callback is needed,
            the HAL_CAN_TxMailbox0CompleteCallback could be implemented in the
            user file
   */
}
 8003d34:	bf00      	nop
 8003d36:	370c      	adds	r7, #12
 8003d38:	46bd      	mov	sp, r7
 8003d3a:	f85d 7b04 	ldr.w	r7, [sp], #4
 8003d3e:	4770      	bx	lr

08003d40 <HAL_CAN_TxMailbox1CompleteCallback>:
  * @param  hcan pointer to a CAN_HandleTypeDef structure that contains
  *         the configuration information for the specified CAN.
  * @retval None
  */
__weak void HAL_CAN_TxMailbox1CompleteCallback(CAN_HandleTypeDef *hcan)
{
 8003d40:	b480      	push	{r7}
 8003d42:	b083      	sub	sp, #12
 8003d44:	af00      	add	r7, sp, #0
 8003d46:	6078      	str	r0, [r7, #4]

  /* NOTE : This function Should not be modified, when the callback is needed,
            the HAL_CAN_TxMailbox1CompleteCallback could be implemented in the
            user file
   */
}
 8003d48:	bf00      	nop
 8003d4a:	370c      	adds	r7, #12
 8003d4c:	46bd      	mov	sp, r7
 8003d4e:	f85d 7b04 	ldr.w	r7, [sp], #4
 8003d52:	4770      	bx	lr

08003d54 <HAL_CAN_TxMailbox2CompleteCallback>:
  * @param  hcan pointer to a CAN_HandleTypeDef structure that contains
  *         the configuration information for the specified CAN.
  * @retval None
  */
__weak void HAL_CAN_TxMailbox2CompleteCallback(CAN_HandleTypeDef *hcan)
{
 8003d54:	b480      	push	{r7}
 8003d56:	b083      	sub	sp, #12
 8003d58:	af00      	add	r7, sp, #0
 8003d5a:	6078      	str	r0, [r7, #4]

  /* NOTE : This function Should not be modified, when the callback is needed,
            the HAL_CAN_TxMailbox2CompleteCallback could be implemented in the
            user file
   */
}
 8003d5c:	bf00      	nop
 8003d5e:	370c      	adds	r7, #12
 8003d60:	46bd      	mov	sp, r7
 8003d62:	f85d 7b04 	ldr.w	r7, [sp], #4
 8003d66:	4770      	bx	lr

08003d68 <HAL_CAN_TxMailbox0AbortCallback>:
  * @param  hcan pointer to an CAN_HandleTypeDef structure that contains
  *         the configuration information for the specified CAN.
  * @retval None
  */
__weak void HAL_CAN_TxMailbox0AbortCallback(CAN_HandleTypeDef *hcan)
{
 8003d68:	b480      	push	{r7}
 8003d6a:	b083      	sub	sp, #12
 8003d6c:	af00      	add	r7, sp, #0
 8003d6e:	6078      	str	r0, [r7, #4]

  /* NOTE : This function Should not be modified, when the callback is needed,
            the HAL_CAN_TxMailbox0AbortCallback could be implemented in the
            user file
   */
}
 8003d70:	bf00      	nop
 8003d72:	370c      	adds	r7, #12
 8003d74:	46bd      	mov	sp, r7
 8003d76:	f85d 7b04 	ldr.w	r7, [sp], #4
 8003d7a:	4770      	bx	lr

08003d7c <HAL_CAN_TxMailbox1AbortCallback>:
  * @param  hcan pointer to an CAN_HandleTypeDef structure that contains
  *         the configuration information for the specified CAN.
  * @retval None
  */
__weak void HAL_CAN_TxMailbox1AbortCallback(CAN_HandleTypeDef *hcan)
{
 8003d7c:	b480      	push	{r7}
 8003d7e:	b083      	sub	sp, #12
 8003d80:	af00      	add	r7, sp, #0
 8003d82:	6078      	str	r0, [r7, #4]

  /* NOTE : This function Should not be modified, when the callback is needed,
            the HAL_CAN_TxMailbox1AbortCallback could be implemented in the
            user file
   */
}
 8003d84:	bf00      	nop
 8003d86:	370c      	adds	r7, #12
 8003d88:	46bd      	mov	sp, r7
 8003d8a:	f85d 7b04 	ldr.w	r7, [sp], #4
 8003d8e:	4770      	bx	lr

08003d90 <HAL_CAN_TxMailbox2AbortCallback>:
  * @param  hcan pointer to an CAN_HandleTypeDef structure that contains
  *         the configuration information for the specified CAN.
  * @retval None
  */
__weak void HAL_CAN_TxMailbox2AbortCallback(CAN_HandleTypeDef *hcan)
{
 8003d90:	b480      	push	{r7}
 8003d92:	b083      	sub	sp, #12
 8003d94:	af00      	add	r7, sp, #0
 8003d96:	6078      	str	r0, [r7, #4]

  /* NOTE : This function Should not be modified, when the callback is needed,
            the HAL_CAN_TxMailbox2AbortCallback could be implemented in the
            user file
   */
}
 8003d98:	bf00      	nop
 8003d9a:	370c      	adds	r7, #12
 8003d9c:	46bd      	mov	sp, r7
 8003d9e:	f85d 7b04 	ldr.w	r7, [sp], #4
 8003da2:	4770      	bx	lr

08003da4 <HAL_CAN_RxFifo0FullCallback>:
  * @param  hcan pointer to a CAN_HandleTypeDef structure that contains
  *         the configuration information for the specified CAN.
  * @retval None
  */
__weak void HAL_CAN_RxFifo0FullCallback(CAN_HandleTypeDef *hcan)
{
 8003da4:	b480      	push	{r7}
 8003da6:	b083      	sub	sp, #12
 8003da8:	af00      	add	r7, sp, #0
 8003daa:	6078      	str	r0, [r7, #4]

  /* NOTE : This function Should not be modified, when the callback is needed,
            the HAL_CAN_RxFifo0FullCallback could be implemented in the user
            file
   */
}
 8003dac:	bf00      	nop
 8003dae:	370c      	adds	r7, #12
 8003db0:	46bd      	mov	sp, r7
 8003db2:	f85d 7b04 	ldr.w	r7, [sp], #4
 8003db6:	4770      	bx	lr

08003db8 <HAL_CAN_RxFifo1MsgPendingCallback>:
  * @param  hcan pointer to a CAN_HandleTypeDef structure that contains
  *         the configuration information for the specified CAN.
  * @retval None
  */
__weak void HAL_CAN_RxFifo1MsgPendingCallback(CAN_HandleTypeDef *hcan)
{
 8003db8:	b480      	push	{r7}
 8003dba:	b083      	sub	sp, #12
 8003dbc:	af00      	add	r7, sp, #0
 8003dbe:	6078      	str	r0, [r7, #4]

  /* NOTE : This function Should not be modified, when the callback is needed,
            the HAL_CAN_RxFifo1MsgPendingCallback could be implemented in the
            user file
   */
}
 8003dc0:	bf00      	nop
 8003dc2:	370c      	adds	r7, #12
 8003dc4:	46bd      	mov	sp, r7
 8003dc6:	f85d 7b04 	ldr.w	r7, [sp], #4
 8003dca:	4770      	bx	lr

08003dcc <HAL_CAN_RxFifo1FullCallback>:
  * @param  hcan pointer to a CAN_HandleTypeDef structure that contains
  *         the configuration information for the specified CAN.
  * @retval None
  */
__weak void HAL_CAN_RxFifo1FullCallback(CAN_HandleTypeDef *hcan)
{
 8003dcc:	b480      	push	{r7}
 8003dce:	b083      	sub	sp, #12
 8003dd0:	af00      	add	r7, sp, #0
 8003dd2:	6078      	str	r0, [r7, #4]

  /* NOTE : This function Should not be modified, when the callback is needed,
            the HAL_CAN_RxFifo1FullCallback could be implemented in the user
            file
   */
}
 8003dd4:	bf00      	nop
 8003dd6:	370c      	adds	r7, #12
 8003dd8:	46bd      	mov	sp, r7
 8003dda:	f85d 7b04 	ldr.w	r7, [sp], #4
 8003dde:	4770      	bx	lr

08003de0 <HAL_CAN_SleepCallback>:
  * @param  hcan pointer to a CAN_HandleTypeDef structure that contains
  *         the configuration information for the specified CAN.
  * @retval None
  */
__weak void HAL_CAN_SleepCallback(CAN_HandleTypeDef *hcan)
{
 8003de0:	b480      	push	{r7}
 8003de2:	b083      	sub	sp, #12
 8003de4:	af00      	add	r7, sp, #0
 8003de6:	6078      	str	r0, [r7, #4]
  UNUSED(hcan);

  /* NOTE : This function Should not be modified, when the callback is needed,
            the HAL_CAN_SleepCallback could be implemented in the user file
   */
}
 8003de8:	bf00      	nop
 8003dea:	370c      	adds	r7, #12
 8003dec:	46bd      	mov	sp, r7
 8003dee:	f85d 7b04 	ldr.w	r7, [sp], #4
 8003df2:	4770      	bx	lr

08003df4 <HAL_CAN_WakeUpFromRxMsgCallback>:
  * @param  hcan pointer to a CAN_HandleTypeDef structure that contains
  *         the configuration information for the specified CAN.
  * @retval None
  */
__weak void HAL_CAN_WakeUpFromRxMsgCallback(CAN_HandleTypeDef *hcan)
{
 8003df4:	b480      	push	{r7}
 8003df6:	b083      	sub	sp, #12
 8003df8:	af00      	add	r7, sp, #0
 8003dfa:	6078      	str	r0, [r7, #4]

  /* NOTE : This function Should not be modified, when the callback is needed,
            the HAL_CAN_WakeUpFromRxMsgCallback could be implemented in the
            user file
   */
}
 8003dfc:	bf00      	nop
 8003dfe:	370c      	adds	r7, #12
 8003e00:	46bd      	mov	sp, r7
 8003e02:	f85d 7b04 	ldr.w	r7, [sp], #4
 8003e06:	4770      	bx	lr

08003e08 <HAL_CAN_ErrorCallback>:
  * @param  hcan pointer to a CAN_HandleTypeDef structure that contains
  *         the configuration information for the specified CAN.
  * @retval None
  */
__weak void HAL_CAN_ErrorCallback(CAN_HandleTypeDef *hcan)
{
 8003e08:	b480      	push	{r7}
 8003e0a:	b083      	sub	sp, #12
 8003e0c:	af00      	add	r7, sp, #0
 8003e0e:	6078      	str	r0, [r7, #4]
  UNUSED(hcan);

  /* NOTE : This function Should not be modified, when the callback is needed,
            the HAL_CAN_ErrorCallback could be implemented in the user file
   */
}
 8003e10:	bf00      	nop
 8003e12:	370c      	adds	r7, #12
 8003e14:	46bd      	mov	sp, r7
 8003e16:	f85d 7b04 	ldr.w	r7, [sp], #4
 8003e1a:	4770      	bx	lr

08003e1c <__NVIC_SetPriorityGrouping>:
           In case of a conflict between priority grouping and available
           priority bits (__NVIC_PRIO_BITS), the smallest possible priority group is set.
  \param [in]      PriorityGroup  Priority grouping field.
 */
__STATIC_INLINE void __NVIC_SetPriorityGrouping(uint32_t PriorityGroup)
{
 8003e1c:	b480      	push	{r7}
 8003e1e:	b085      	sub	sp, #20
 8003e20:	af00      	add	r7, sp, #0
 8003e22:	6078      	str	r0, [r7, #4]
  uint32_t reg_value;
  uint32_t PriorityGroupTmp = (PriorityGroup & (uint32_t)0x07UL);             /* only values 0..7 are used          */
 8003e24:	687b      	ldr	r3, [r7, #4]
 8003e26:	f003 0307 	and.w	r3, r3, #7
 8003e2a:	60fb      	str	r3, [r7, #12]

  reg_value  =  SCB->AIRCR;                                                   /* read old register configuration    */
 8003e2c:	4b0c      	ldr	r3, [pc, #48]	@ (8003e60 <__NVIC_SetPriorityGrouping+0x44>)
 8003e2e:	68db      	ldr	r3, [r3, #12]
 8003e30:	60bb      	str	r3, [r7, #8]
  reg_value &= ~((uint32_t)(SCB_AIRCR_VECTKEY_Msk | SCB_AIRCR_PRIGROUP_Msk)); /* clear bits to change               */
 8003e32:	68ba      	ldr	r2, [r7, #8]
 8003e34:	f64f 03ff 	movw	r3, #63743	@ 0xf8ff
 8003e38:	4013      	ands	r3, r2
 8003e3a:	60bb      	str	r3, [r7, #8]
  reg_value  =  (reg_value                                   |
                ((uint32_t)0x5FAUL << SCB_AIRCR_VECTKEY_Pos) |
                (PriorityGroupTmp << SCB_AIRCR_PRIGROUP_Pos)  );              /* Insert write key and priority group */
 8003e3c:	68fb      	ldr	r3, [r7, #12]
 8003e3e:	021a      	lsls	r2, r3, #8
                ((uint32_t)0x5FAUL << SCB_AIRCR_VECTKEY_Pos) |
 8003e40:	68bb      	ldr	r3, [r7, #8]
 8003e42:	4313      	orrs	r3, r2
  reg_value  =  (reg_value                                   |
 8003e44:	f043 63bf 	orr.w	r3, r3, #100139008	@ 0x5f80000
 8003e48:	f443 3300 	orr.w	r3, r3, #131072	@ 0x20000
 8003e4c:	60bb      	str	r3, [r7, #8]
  SCB->AIRCR =  reg_value;
 8003e4e:	4a04      	ldr	r2, [pc, #16]	@ (8003e60 <__NVIC_SetPriorityGrouping+0x44>)
 8003e50:	68bb      	ldr	r3, [r7, #8]
 8003e52:	60d3      	str	r3, [r2, #12]
}
 8003e54:	bf00      	nop
 8003e56:	3714      	adds	r7, #20
 8003e58:	46bd      	mov	sp, r7
 8003e5a:	f85d 7b04 	ldr.w	r7, [sp], #4
 8003e5e:	4770      	bx	lr
 8003e60:	e000ed00 	.word	0xe000ed00

08003e64 <__NVIC_GetPriorityGrouping>:
  \brief   Get Priority Grouping
  \details Reads the priority grouping field from the NVIC Interrupt Controller.
  \return                Priority grouping field (SCB->AIRCR [10:8] PRIGROUP field).
 */
__STATIC_INLINE uint32_t __NVIC_GetPriorityGrouping(void)
{
 8003e64:	b480      	push	{r7}
 8003e66:	af00      	add	r7, sp, #0
  return ((uint32_t)((SCB->AIRCR & SCB_AIRCR_PRIGROUP_Msk) >> SCB_AIRCR_PRIGROUP_Pos));
 8003e68:	4b04      	ldr	r3, [pc, #16]	@ (8003e7c <__NVIC_GetPriorityGrouping+0x18>)
 8003e6a:	68db      	ldr	r3, [r3, #12]
 8003e6c:	0a1b      	lsrs	r3, r3, #8
 8003e6e:	f003 0307 	and.w	r3, r3, #7
}
 8003e72:	4618      	mov	r0, r3
 8003e74:	46bd      	mov	sp, r7
 8003e76:	f85d 7b04 	ldr.w	r7, [sp], #4
 8003e7a:	4770      	bx	lr
 8003e7c:	e000ed00 	.word	0xe000ed00

08003e80 <__NVIC_EnableIRQ>:
  \details Enables a device specific interrupt in the NVIC interrupt controller.
  \param [in]      IRQn  Device specific interrupt number.
  \note    IRQn must not be negative.
 */
__STATIC_INLINE void __NVIC_EnableIRQ(IRQn_Type IRQn)
{
 8003e80:	b480      	push	{r7}
 8003e82:	b083      	sub	sp, #12
 8003e84:	af00      	add	r7, sp, #0
 8003e86:	4603      	mov	r3, r0
 8003e88:	71fb      	strb	r3, [r7, #7]
  if ((int32_t)(IRQn) >= 0)
 8003e8a:	f997 3007 	ldrsb.w	r3, [r7, #7]
 8003e8e:	2b00      	cmp	r3, #0
 8003e90:	db0b      	blt.n	8003eaa <__NVIC_EnableIRQ+0x2a>
  {
    __COMPILER_BARRIER();
    NVIC->ISER[(((uint32_t)IRQn) >> 5UL)] = (uint32_t)(1UL << (((uint32_t)IRQn) & 0x1FUL));
 8003e92:	79fb      	ldrb	r3, [r7, #7]
 8003e94:	f003 021f 	and.w	r2, r3, #31
 8003e98:	4907      	ldr	r1, [pc, #28]	@ (8003eb8 <__NVIC_EnableIRQ+0x38>)
 8003e9a:	f997 3007 	ldrsb.w	r3, [r7, #7]
 8003e9e:	095b      	lsrs	r3, r3, #5
 8003ea0:	2001      	movs	r0, #1
 8003ea2:	fa00 f202 	lsl.w	r2, r0, r2
 8003ea6:	f841 2023 	str.w	r2, [r1, r3, lsl #2]
    __COMPILER_BARRIER();
  }
}
 8003eaa:	bf00      	nop
 8003eac:	370c      	adds	r7, #12
 8003eae:	46bd      	mov	sp, r7
 8003eb0:	f85d 7b04 	ldr.w	r7, [sp], #4
 8003eb4:	4770      	bx	lr
 8003eb6:	bf00      	nop
 8003eb8:	e000e100 	.word	0xe000e100

08003ebc <__NVIC_SetPriority>:
  \param [in]      IRQn  Interrupt number.
  \param [in]  priority  Priority to set.
  \note    The priority cannot be set for every processor exception.
 */
__STATIC_INLINE void __NVIC_SetPriority(IRQn_Type IRQn, uint32_t priority)
{
 8003ebc:	b480      	push	{r7}
 8003ebe:	b083      	sub	sp, #12
 8003ec0:	af00      	add	r7, sp, #0
 8003ec2:	4603      	mov	r3, r0
 8003ec4:	6039      	str	r1, [r7, #0]
 8003ec6:	71fb      	strb	r3, [r7, #7]
  if ((int32_t)(IRQn) >= 0)
 8003ec8:	f997 3007 	ldrsb.w	r3, [r7, #7]
 8003ecc:	2b00      	cmp	r3, #0
 8003ece:	db0a      	blt.n	8003ee6 <__NVIC_SetPriority+0x2a>
  {
    NVIC->IP[((uint32_t)IRQn)]               = (uint8_t)((priority << (8U - __NVIC_PRIO_BITS)) & (uint32_t)0xFFUL);
 8003ed0:	683b      	ldr	r3, [r7, #0]
 8003ed2:	b2da      	uxtb	r2, r3
 8003ed4:	490c      	ldr	r1, [pc, #48]	@ (8003f08 <__NVIC_SetPriority+0x4c>)
 8003ed6:	f997 3007 	ldrsb.w	r3, [r7, #7]
 8003eda:	0112      	lsls	r2, r2, #4
 8003edc:	b2d2      	uxtb	r2, r2
 8003ede:	440b      	add	r3, r1
 8003ee0:	f883 2300 	strb.w	r2, [r3, #768]	@ 0x300
  }
  else
  {
    SCB->SHP[(((uint32_t)IRQn) & 0xFUL)-4UL] = (uint8_t)((priority << (8U - __NVIC_PRIO_BITS)) & (uint32_t)0xFFUL);
  }
}
 8003ee4:	e00a      	b.n	8003efc <__NVIC_SetPriority+0x40>
    SCB->SHP[(((uint32_t)IRQn) & 0xFUL)-4UL] = (uint8_t)((priority << (8U - __NVIC_PRIO_BITS)) & (uint32_t)0xFFUL);
 8003ee6:	683b      	ldr	r3, [r7, #0]
 8003ee8:	b2da      	uxtb	r2, r3
 8003eea:	4908      	ldr	r1, [pc, #32]	@ (8003f0c <__NVIC_SetPriority+0x50>)
 8003eec:	79fb      	ldrb	r3, [r7, #7]
 8003eee:	f003 030f 	and.w	r3, r3, #15
 8003ef2:	3b04      	subs	r3, #4
 8003ef4:	0112      	lsls	r2, r2, #4
 8003ef6:	b2d2      	uxtb	r2, r2
 8003ef8:	440b      	add	r3, r1
 8003efa:	761a      	strb	r2, [r3, #24]
}
 8003efc:	bf00      	nop
 8003efe:	370c      	adds	r7, #12
 8003f00:	46bd      	mov	sp, r7
 8003f02:	f85d 7b04 	ldr.w	r7, [sp], #4
 8003f06:	4770      	bx	lr
 8003f08:	e000e100 	.word	0xe000e100
 8003f0c:	e000ed00 	.word	0xe000ed00

08003f10 <NVIC_EncodePriority>:
  \param [in]   PreemptPriority  Preemptive priority value (starting from 0).
  \param [in]       SubPriority  Subpriority value (starting from 0).
  \return                        Encoded priority. Value can be used in the function \ref NVIC_SetPriority().
 */
__STATIC_INLINE uint32_t NVIC_EncodePriority (uint32_t PriorityGroup, uint32_t PreemptPriority, uint32_t SubPriority)
{
 8003f10:	b480      	push	{r7}
 8003f12:	b089      	sub	sp, #36	@ 0x24
 8003f14:	af00      	add	r7, sp, #0
 8003f16:	60f8      	str	r0, [r7, #12]
 8003f18:	60b9      	str	r1, [r7, #8]
 8003f1a:	607a      	str	r2, [r7, #4]
  uint32_t PriorityGroupTmp = (PriorityGroup & (uint32_t)0x07UL);   /* only values 0..7 are used          */
 8003f1c:	68fb      	ldr	r3, [r7, #12]
 8003f1e:	f003 0307 	and.w	r3, r3, #7
 8003f22:	61fb      	str	r3, [r7, #28]
  uint32_t PreemptPriorityBits;
  uint32_t SubPriorityBits;

  PreemptPriorityBits = ((7UL - PriorityGroupTmp) > (uint32_t)(__NVIC_PRIO_BITS)) ? (uint32_t)(__NVIC_PRIO_BITS) : (uint32_t)(7UL - PriorityGroupTmp);
 8003f24:	69fb      	ldr	r3, [r7, #28]
 8003f26:	f1c3 0307 	rsb	r3, r3, #7
 8003f2a:	2b04      	cmp	r3, #4
 8003f2c:	bf28      	it	cs
 8003f2e:	2304      	movcs	r3, #4
 8003f30:	61bb      	str	r3, [r7, #24]
  SubPriorityBits     = ((PriorityGroupTmp + (uint32_t)(__NVIC_PRIO_BITS)) < (uint32_t)7UL) ? (uint32_t)0UL : (uint32_t)((PriorityGroupTmp - 7UL) + (uint32_t)(__NVIC_PRIO_BITS));
 8003f32:	69fb      	ldr	r3, [r7, #28]
 8003f34:	3304      	adds	r3, #4
 8003f36:	2b06      	cmp	r3, #6
 8003f38:	d902      	bls.n	8003f40 <NVIC_EncodePriority+0x30>
 8003f3a:	69fb      	ldr	r3, [r7, #28]
 8003f3c:	3b03      	subs	r3, #3
 8003f3e:	e000      	b.n	8003f42 <NVIC_EncodePriority+0x32>
 8003f40:	2300      	movs	r3, #0
 8003f42:	617b      	str	r3, [r7, #20]

  return (
           ((PreemptPriority & (uint32_t)((1UL << (PreemptPriorityBits)) - 1UL)) << SubPriorityBits) |
 8003f44:	f04f 32ff 	mov.w	r2, #4294967295	@ 0xffffffff
 8003f48:	69bb      	ldr	r3, [r7, #24]
 8003f4a:	fa02 f303 	lsl.w	r3, r2, r3
 8003f4e:	43da      	mvns	r2, r3
 8003f50:	68bb      	ldr	r3, [r7, #8]
 8003f52:	401a      	ands	r2, r3
 8003f54:	697b      	ldr	r3, [r7, #20]
 8003f56:	409a      	lsls	r2, r3
           ((SubPriority     & (uint32_t)((1UL << (SubPriorityBits    )) - 1UL)))
 8003f58:	f04f 31ff 	mov.w	r1, #4294967295	@ 0xffffffff
 8003f5c:	697b      	ldr	r3, [r7, #20]
 8003f5e:	fa01 f303 	lsl.w	r3, r1, r3
 8003f62:	43d9      	mvns	r1, r3
 8003f64:	687b      	ldr	r3, [r7, #4]
 8003f66:	400b      	ands	r3, r1
           ((PreemptPriority & (uint32_t)((1UL << (PreemptPriorityBits)) - 1UL)) << SubPriorityBits) |
 8003f68:	4313      	orrs	r3, r2
         );
}
 8003f6a:	4618      	mov	r0, r3
 8003f6c:	3724      	adds	r7, #36	@ 0x24
 8003f6e:	46bd      	mov	sp, r7
 8003f70:	f85d 7b04 	ldr.w	r7, [sp], #4
 8003f74:	4770      	bx	lr
	...

08003f78 <SysTick_Config>:
  \note    When the variable <b>__Vendor_SysTickConfig</b> is set to 1, then the
           function <b>SysTick_Config</b> is not included. In this case, the file <b><i>device</i>.h</b>
           must contain a vendor-specific implementation of this function.
 */
__STATIC_INLINE uint32_t SysTick_Config(uint32_t ticks)
{
 8003f78:	b580      	push	{r7, lr}
 8003f7a:	b082      	sub	sp, #8
 8003f7c:	af00      	add	r7, sp, #0
 8003f7e:	6078      	str	r0, [r7, #4]
  if ((ticks - 1UL) > SysTick_LOAD_RELOAD_Msk)
 8003f80:	687b      	ldr	r3, [r7, #4]
 8003f82:	3b01      	subs	r3, #1
 8003f84:	f1b3 7f80 	cmp.w	r3, #16777216	@ 0x1000000
 8003f88:	d301      	bcc.n	8003f8e <SysTick_Config+0x16>
  {
    return (1UL);                                                   /* Reload value impossible */
 8003f8a:	2301      	movs	r3, #1
 8003f8c:	e00f      	b.n	8003fae <SysTick_Config+0x36>
  }

  SysTick->LOAD  = (uint32_t)(ticks - 1UL);                         /* set reload register */
 8003f8e:	4a0a      	ldr	r2, [pc, #40]	@ (8003fb8 <SysTick_Config+0x40>)
 8003f90:	687b      	ldr	r3, [r7, #4]
 8003f92:	3b01      	subs	r3, #1
 8003f94:	6053      	str	r3, [r2, #4]
  NVIC_SetPriority (SysTick_IRQn, (1UL << __NVIC_PRIO_BITS) - 1UL); /* set Priority for Systick Interrupt */
 8003f96:	210f      	movs	r1, #15
 8003f98:	f04f 30ff 	mov.w	r0, #4294967295	@ 0xffffffff
 8003f9c:	f7ff ff8e 	bl	8003ebc <__NVIC_SetPriority>
  SysTick->VAL   = 0UL;                                             /* Load the SysTick Counter Value */
 8003fa0:	4b05      	ldr	r3, [pc, #20]	@ (8003fb8 <SysTick_Config+0x40>)
 8003fa2:	2200      	movs	r2, #0
 8003fa4:	609a      	str	r2, [r3, #8]
  SysTick->CTRL  = SysTick_CTRL_CLKSOURCE_Msk |
 8003fa6:	4b04      	ldr	r3, [pc, #16]	@ (8003fb8 <SysTick_Config+0x40>)
 8003fa8:	2207      	movs	r2, #7
 8003faa:	601a      	str	r2, [r3, #0]
                   SysTick_CTRL_TICKINT_Msk   |
                   SysTick_CTRL_ENABLE_Msk;                         /* Enable SysTick IRQ and SysTick Timer */
  return (0UL);                                                     /* Function successful */
 8003fac:	2300      	movs	r3, #0
}
 8003fae:	4618      	mov	r0, r3
 8003fb0:	3708      	adds	r7, #8
 8003fb2:	46bd      	mov	sp, r7
 8003fb4:	bd80      	pop	{r7, pc}
 8003fb6:	bf00      	nop
 8003fb8:	e000e010 	.word	0xe000e010

08003fbc <HAL_NVIC_SetPriorityGrouping>:
  * @note   When the NVIC_PriorityGroup_0 is selected, IRQ preemption is no more possible. 
  *         The pending IRQ priority will be managed only by the subpriority. 
  * @retval None
  */
void HAL_NVIC_SetPriorityGrouping(uint32_t PriorityGroup)
{
 8003fbc:	b580      	push	{r7, lr}
 8003fbe:	b082      	sub	sp, #8
 8003fc0:	af00      	add	r7, sp, #0
 8003fc2:	6078      	str	r0, [r7, #4]
  /* Check the parameters */
  assert_param(IS_NVIC_PRIORITY_GROUP(PriorityGroup));
  
  /* Set the PRIGROUP[10:8] bits according to the PriorityGroup parameter value */
  NVIC_SetPriorityGrouping(PriorityGroup);
 8003fc4:	6878      	ldr	r0, [r7, #4]
 8003fc6:	f7ff ff29 	bl	8003e1c <__NVIC_SetPriorityGrouping>
}
 8003fca:	bf00      	nop
 8003fcc:	3708      	adds	r7, #8
 8003fce:	46bd      	mov	sp, r7
 8003fd0:	bd80      	pop	{r7, pc}

08003fd2 <HAL_NVIC_SetPriority>:
  *         This parameter can be a value between 0 and 15
  *         A lower priority value indicates a higher priority.          
  * @retval None
  */
void HAL_NVIC_SetPriority(IRQn_Type IRQn, uint32_t PreemptPriority, uint32_t SubPriority)
{ 
 8003fd2:	b580      	push	{r7, lr}
 8003fd4:	b086      	sub	sp, #24
 8003fd6:	af00      	add	r7, sp, #0
 8003fd8:	4603      	mov	r3, r0
 8003fda:	60b9      	str	r1, [r7, #8]
 8003fdc:	607a      	str	r2, [r7, #4]
 8003fde:	73fb      	strb	r3, [r7, #15]
  uint32_t prioritygroup = 0x00U;
 8003fe0:	2300      	movs	r3, #0
 8003fe2:	617b      	str	r3, [r7, #20]
  
  /* Check the parameters */
  assert_param(IS_NVIC_SUB_PRIORITY(SubPriority));
  assert_param(IS_NVIC_PREEMPTION_PRIORITY(PreemptPriority));
  
  prioritygroup = NVIC_GetPriorityGrouping();
 8003fe4:	f7ff ff3e 	bl	8003e64 <__NVIC_GetPriorityGrouping>
 8003fe8:	6178      	str	r0, [r7, #20]
  
  NVIC_SetPriority(IRQn, NVIC_EncodePriority(prioritygroup, PreemptPriority, SubPriority));
 8003fea:	687a      	ldr	r2, [r7, #4]
 8003fec:	68b9      	ldr	r1, [r7, #8]
 8003fee:	6978      	ldr	r0, [r7, #20]
 8003ff0:	f7ff ff8e 	bl	8003f10 <NVIC_EncodePriority>
 8003ff4:	4602      	mov	r2, r0
 8003ff6:	f997 300f 	ldrsb.w	r3, [r7, #15]
 8003ffa:	4611      	mov	r1, r2
 8003ffc:	4618      	mov	r0, r3
 8003ffe:	f7ff ff5d 	bl	8003ebc <__NVIC_SetPriority>
}
 8004002:	bf00      	nop
 8004004:	3718      	adds	r7, #24
 8004006:	46bd      	mov	sp, r7
 8004008:	bd80      	pop	{r7, pc}

0800400a <HAL_NVIC_EnableIRQ>:
  *         This parameter can be an enumerator of IRQn_Type enumeration
  *         (For the complete STM32 Devices IRQ Channels list, please refer to the appropriate CMSIS device file (stm32f4xxxx.h))
  * @retval None
  */
void HAL_NVIC_EnableIRQ(IRQn_Type IRQn)
{
 800400a:	b580      	push	{r7, lr}
 800400c:	b082      	sub	sp, #8
 800400e:	af00      	add	r7, sp, #0
 8004010:	4603      	mov	r3, r0
 8004012:	71fb      	strb	r3, [r7, #7]
  /* Check the parameters */
  assert_param(IS_NVIC_DEVICE_IRQ(IRQn));
  
  /* Enable interrupt */
  NVIC_EnableIRQ(IRQn);
 8004014:	f997 3007 	ldrsb.w	r3, [r7, #7]
 8004018:	4618      	mov	r0, r3
 800401a:	f7ff ff31 	bl	8003e80 <__NVIC_EnableIRQ>
}
 800401e:	bf00      	nop
 8004020:	3708      	adds	r7, #8
 8004022:	46bd      	mov	sp, r7
 8004024:	bd80      	pop	{r7, pc}

08004026 <HAL_SYSTICK_Config>:
  * @param  TicksNumb Specifies the ticks Number of ticks between two interrupts.
  * @retval status:  - 0  Function succeeded.
  *                  - 1  Function failed.
  */
uint32_t HAL_SYSTICK_Config(uint32_t TicksNumb)
{
 8004026:	b580      	push	{r7, lr}
 8004028:	b082      	sub	sp, #8
 800402a:	af00      	add	r7, sp, #0
 800402c:	6078      	str	r0, [r7, #4]
   return SysTick_Config(TicksNumb);
 800402e:	6878      	ldr	r0, [r7, #4]
 8004030:	f7ff ffa2 	bl	8003f78 <SysTick_Config>
 8004034:	4603      	mov	r3, r0
}
 8004036:	4618      	mov	r0, r3
 8004038:	3708      	adds	r7, #8
 800403a:	46bd      	mov	sp, r7
 800403c:	bd80      	pop	{r7, pc}
	...

08004040 <HAL_GPIO_Init>:
  * @param  GPIO_Init pointer to a GPIO_InitTypeDef structure that contains
  *         the configuration information for the specified GPIO peripheral.
  * @retval None
  */
void HAL_GPIO_Init(GPIO_TypeDef  *GPIOx, GPIO_InitTypeDef *GPIO_Init)
{
 8004040:	b480      	push	{r7}
 8004042:	b089      	sub	sp, #36	@ 0x24
 8004044:	af00      	add	r7, sp, #0
 8004046:	6078      	str	r0, [r7, #4]
 8004048:	6039      	str	r1, [r7, #0]
  uint32_t position;
  uint32_t ioposition = 0x00U;
 800404a:	2300      	movs	r3, #0
 800404c:	617b      	str	r3, [r7, #20]
  uint32_t iocurrent = 0x00U;
 800404e:	2300      	movs	r3, #0
 8004050:	613b      	str	r3, [r7, #16]
  uint32_t temp = 0x00U;
 8004052:	2300      	movs	r3, #0
 8004054:	61bb      	str	r3, [r7, #24]
  assert_param(IS_GPIO_ALL_INSTANCE(GPIOx));
  assert_param(IS_GPIO_PIN(GPIO_Init->Pin));
  assert_param(IS_GPIO_MODE(GPIO_Init->Mode));

  /* Configure the port pins */
  for(position = 0U; position < GPIO_NUMBER; position++)
 8004056:	2300      	movs	r3, #0
 8004058:	61fb      	str	r3, [r7, #28]
 800405a:	e165      	b.n	8004328 <HAL_GPIO_Init+0x2e8>
  {
    /* Get the IO position */
    ioposition = 0x01U << position;
 800405c:	2201      	movs	r2, #1
 800405e:	69fb      	ldr	r3, [r7, #28]
 8004060:	fa02 f303 	lsl.w	r3, r2, r3
 8004064:	617b      	str	r3, [r7, #20]
    /* Get the current IO position */
    iocurrent = (uint32_t)(GPIO_Init->Pin) & ioposition;
 8004066:	683b      	ldr	r3, [r7, #0]
 8004068:	681b      	ldr	r3, [r3, #0]
 800406a:	697a      	ldr	r2, [r7, #20]
 800406c:	4013      	ands	r3, r2
 800406e:	613b      	str	r3, [r7, #16]

    if(iocurrent == ioposition)
 8004070:	693a      	ldr	r2, [r7, #16]
 8004072:	697b      	ldr	r3, [r7, #20]
 8004074:	429a      	cmp	r2, r3
 8004076:	f040 8154 	bne.w	8004322 <HAL_GPIO_Init+0x2e2>
    {
      /*--------------------- GPIO Mode Configuration ------------------------*/
      /* In case of Output or Alternate function mode selection */
      if(((GPIO_Init->Mode & GPIO_MODE) == MODE_OUTPUT) || \
 800407a:	683b      	ldr	r3, [r7, #0]
 800407c:	685b      	ldr	r3, [r3, #4]
 800407e:	f003 0303 	and.w	r3, r3, #3
 8004082:	2b01      	cmp	r3, #1
 8004084:	d005      	beq.n	8004092 <HAL_GPIO_Init+0x52>
          (GPIO_Init->Mode & GPIO_MODE) == MODE_AF)
 8004086:	683b      	ldr	r3, [r7, #0]
 8004088:	685b      	ldr	r3, [r3, #4]
 800408a:	f003 0303 	and.w	r3, r3, #3
      if(((GPIO_Init->Mode & GPIO_MODE) == MODE_OUTPUT) || \
 800408e:	2b02      	cmp	r3, #2
 8004090:	d130      	bne.n	80040f4 <HAL_GPIO_Init+0xb4>
      {
        /* Check the Speed parameter */
        assert_param(IS_GPIO_SPEED(GPIO_Init->Speed));
        /* Configure the IO Speed */
        temp = GPIOx->OSPEEDR; 
 8004092:	687b      	ldr	r3, [r7, #4]
 8004094:	689b      	ldr	r3, [r3, #8]
 8004096:	61bb      	str	r3, [r7, #24]
        temp &= ~(GPIO_OSPEEDER_OSPEEDR0 << (position * 2U));
 8004098:	69fb      	ldr	r3, [r7, #28]
 800409a:	005b      	lsls	r3, r3, #1
 800409c:	2203      	movs	r2, #3
 800409e:	fa02 f303 	lsl.w	r3, r2, r3
 80040a2:	43db      	mvns	r3, r3
 80040a4:	69ba      	ldr	r2, [r7, #24]
 80040a6:	4013      	ands	r3, r2
 80040a8:	61bb      	str	r3, [r7, #24]
        temp |= (GPIO_Init->Speed << (position * 2U));
 80040aa:	683b      	ldr	r3, [r7, #0]
 80040ac:	68da      	ldr	r2, [r3, #12]
 80040ae:	69fb      	ldr	r3, [r7, #28]
 80040b0:	005b      	lsls	r3, r3, #1
 80040b2:	fa02 f303 	lsl.w	r3, r2, r3
 80040b6:	69ba      	ldr	r2, [r7, #24]
 80040b8:	4313      	orrs	r3, r2
 80040ba:	61bb      	str	r3, [r7, #24]
        GPIOx->OSPEEDR = temp;
 80040bc:	687b      	ldr	r3, [r7, #4]
 80040be:	69ba      	ldr	r2, [r7, #24]
 80040c0:	609a      	str	r2, [r3, #8]

        /* Configure the IO Output Type */
        temp = GPIOx->OTYPER;
 80040c2:	687b      	ldr	r3, [r7, #4]
 80040c4:	685b      	ldr	r3, [r3, #4]
 80040c6:	61bb      	str	r3, [r7, #24]
        temp &= ~(GPIO_OTYPER_OT_0 << position) ;
 80040c8:	2201      	movs	r2, #1
 80040ca:	69fb      	ldr	r3, [r7, #28]
 80040cc:	fa02 f303 	lsl.w	r3, r2, r3
 80040d0:	43db      	mvns	r3, r3
 80040d2:	69ba      	ldr	r2, [r7, #24]
 80040d4:	4013      	ands	r3, r2
 80040d6:	61bb      	str	r3, [r7, #24]
        temp |= (((GPIO_Init->Mode & OUTPUT_TYPE) >> OUTPUT_TYPE_Pos) << position);
 80040d8:	683b      	ldr	r3, [r7, #0]
 80040da:	685b      	ldr	r3, [r3, #4]
 80040dc:	091b      	lsrs	r3, r3, #4
 80040de:	f003 0201 	and.w	r2, r3, #1
 80040e2:	69fb      	ldr	r3, [r7, #28]
 80040e4:	fa02 f303 	lsl.w	r3, r2, r3
 80040e8:	69ba      	ldr	r2, [r7, #24]
 80040ea:	4313      	orrs	r3, r2
 80040ec:	61bb      	str	r3, [r7, #24]
        GPIOx->OTYPER = temp;
 80040ee:	687b      	ldr	r3, [r7, #4]
 80040f0:	69ba      	ldr	r2, [r7, #24]
 80040f2:	605a      	str	r2, [r3, #4]
       }

      if((GPIO_Init->Mode & GPIO_MODE) != MODE_ANALOG)
 80040f4:	683b      	ldr	r3, [r7, #0]
 80040f6:	685b      	ldr	r3, [r3, #4]
 80040f8:	f003 0303 	and.w	r3, r3, #3
 80040fc:	2b03      	cmp	r3, #3
 80040fe:	d017      	beq.n	8004130 <HAL_GPIO_Init+0xf0>
      {
        /* Check the parameters */
        assert_param(IS_GPIO_PULL(GPIO_Init->Pull));
        
        /* Activate the Pull-up or Pull down resistor for the current IO */
        temp = GPIOx->PUPDR;
 8004100:	687b      	ldr	r3, [r7, #4]
 8004102:	68db      	ldr	r3, [r3, #12]
 8004104:	61bb      	str	r3, [r7, #24]
        temp &= ~(GPIO_PUPDR_PUPDR0 << (position * 2U));
 8004106:	69fb      	ldr	r3, [r7, #28]
 8004108:	005b      	lsls	r3, r3, #1
 800410a:	2203      	movs	r2, #3
 800410c:	fa02 f303 	lsl.w	r3, r2, r3
 8004110:	43db      	mvns	r3, r3
 8004112:	69ba      	ldr	r2, [r7, #24]
 8004114:	4013      	ands	r3, r2
 8004116:	61bb      	str	r3, [r7, #24]
        temp |= ((GPIO_Init->Pull) << (position * 2U));
 8004118:	683b      	ldr	r3, [r7, #0]
 800411a:	689a      	ldr	r2, [r3, #8]
 800411c:	69fb      	ldr	r3, [r7, #28]
 800411e:	005b      	lsls	r3, r3, #1
 8004120:	fa02 f303 	lsl.w	r3, r2, r3
 8004124:	69ba      	ldr	r2, [r7, #24]
 8004126:	4313      	orrs	r3, r2
 8004128:	61bb      	str	r3, [r7, #24]
        GPIOx->PUPDR = temp;
 800412a:	687b      	ldr	r3, [r7, #4]
 800412c:	69ba      	ldr	r2, [r7, #24]
 800412e:	60da      	str	r2, [r3, #12]
      }

      /* In case of Alternate function mode selection */
      if((GPIO_Init->Mode & GPIO_MODE) == MODE_AF)
 8004130:	683b      	ldr	r3, [r7, #0]
 8004132:	685b      	ldr	r3, [r3, #4]
 8004134:	f003 0303 	and.w	r3, r3, #3
 8004138:	2b02      	cmp	r3, #2
 800413a:	d123      	bne.n	8004184 <HAL_GPIO_Init+0x144>
      {
        /* Check the Alternate function parameter */
        assert_param(IS_GPIO_AF(GPIO_Init->Alternate));
        /* Configure Alternate function mapped with the current IO */
        temp = GPIOx->AFR[position >> 3U];
 800413c:	69fb      	ldr	r3, [r7, #28]
 800413e:	08da      	lsrs	r2, r3, #3
 8004140:	687b      	ldr	r3, [r7, #4]
 8004142:	3208      	adds	r2, #8
 8004144:	f853 3022 	ldr.w	r3, [r3, r2, lsl #2]
 8004148:	61bb      	str	r3, [r7, #24]
        temp &= ~(0xFU << ((uint32_t)(position & 0x07U) * 4U)) ;
 800414a:	69fb      	ldr	r3, [r7, #28]
 800414c:	f003 0307 	and.w	r3, r3, #7
 8004150:	009b      	lsls	r3, r3, #2
 8004152:	220f      	movs	r2, #15
 8004154:	fa02 f303 	lsl.w	r3, r2, r3
 8004158:	43db      	mvns	r3, r3
 800415a:	69ba      	ldr	r2, [r7, #24]
 800415c:	4013      	ands	r3, r2
 800415e:	61bb      	str	r3, [r7, #24]
        temp |= ((uint32_t)(GPIO_Init->Alternate) << (((uint32_t)position & 0x07U) * 4U));
 8004160:	683b      	ldr	r3, [r7, #0]
 8004162:	691a      	ldr	r2, [r3, #16]
 8004164:	69fb      	ldr	r3, [r7, #28]
 8004166:	f003 0307 	and.w	r3, r3, #7
 800416a:	009b      	lsls	r3, r3, #2
 800416c:	fa02 f303 	lsl.w	r3, r2, r3
 8004170:	69ba      	ldr	r2, [r7, #24]
 8004172:	4313      	orrs	r3, r2
 8004174:	61bb      	str	r3, [r7, #24]
        GPIOx->AFR[position >> 3U] = temp;
 8004176:	69fb      	ldr	r3, [r7, #28]
 8004178:	08da      	lsrs	r2, r3, #3
 800417a:	687b      	ldr	r3, [r7, #4]
 800417c:	3208      	adds	r2, #8
 800417e:	69b9      	ldr	r1, [r7, #24]
 8004180:	f843 1022 	str.w	r1, [r3, r2, lsl #2]
      }

      /* Configure IO Direction mode (Input, Output, Alternate or Analog) */
      temp = GPIOx->MODER;
 8004184:	687b      	ldr	r3, [r7, #4]
 8004186:	681b      	ldr	r3, [r3, #0]
 8004188:	61bb      	str	r3, [r7, #24]
      temp &= ~(GPIO_MODER_MODER0 << (position * 2U));
 800418a:	69fb      	ldr	r3, [r7, #28]
 800418c:	005b      	lsls	r3, r3, #1
 800418e:	2203      	movs	r2, #3
 8004190:	fa02 f303 	lsl.w	r3, r2, r3
 8004194:	43db      	mvns	r3, r3
 8004196:	69ba      	ldr	r2, [r7, #24]
 8004198:	4013      	ands	r3, r2
 800419a:	61bb      	str	r3, [r7, #24]
      temp |= ((GPIO_Init->Mode & GPIO_MODE) << (position * 2U));
 800419c:	683b      	ldr	r3, [r7, #0]
 800419e:	685b      	ldr	r3, [r3, #4]
 80041a0:	f003 0203 	and.w	r2, r3, #3
 80041a4:	69fb      	ldr	r3, [r7, #28]
 80041a6:	005b      	lsls	r3, r3, #1
 80041a8:	fa02 f303 	lsl.w	r3, r2, r3
 80041ac:	69ba      	ldr	r2, [r7, #24]
 80041ae:	4313      	orrs	r3, r2
 80041b0:	61bb      	str	r3, [r7, #24]
      GPIOx->MODER = temp;
 80041b2:	687b      	ldr	r3, [r7, #4]
 80041b4:	69ba      	ldr	r2, [r7, #24]
 80041b6:	601a      	str	r2, [r3, #0]

      /*--------------------- EXTI Mode Configuration ------------------------*/
      /* Configure the External Interrupt or event for the current IO */
      if((GPIO_Init->Mode & EXTI_MODE) != 0x00U)
 80041b8:	683b      	ldr	r3, [r7, #0]
 80041ba:	685b      	ldr	r3, [r3, #4]
 80041bc:	f403 3340 	and.w	r3, r3, #196608	@ 0x30000
 80041c0:	2b00      	cmp	r3, #0
 80041c2:	f000 80ae 	beq.w	8004322 <HAL_GPIO_Init+0x2e2>
      {
        /* Enable SYSCFG Clock */
        __HAL_RCC_SYSCFG_CLK_ENABLE();
 80041c6:	2300      	movs	r3, #0
 80041c8:	60fb      	str	r3, [r7, #12]
 80041ca:	4b5d      	ldr	r3, [pc, #372]	@ (8004340 <HAL_GPIO_Init+0x300>)
 80041cc:	6c5b      	ldr	r3, [r3, #68]	@ 0x44
 80041ce:	4a5c      	ldr	r2, [pc, #368]	@ (8004340 <HAL_GPIO_Init+0x300>)
 80041d0:	f443 4380 	orr.w	r3, r3, #16384	@ 0x4000
 80041d4:	6453      	str	r3, [r2, #68]	@ 0x44
 80041d6:	4b5a      	ldr	r3, [pc, #360]	@ (8004340 <HAL_GPIO_Init+0x300>)
 80041d8:	6c5b      	ldr	r3, [r3, #68]	@ 0x44
 80041da:	f403 4380 	and.w	r3, r3, #16384	@ 0x4000
 80041de:	60fb      	str	r3, [r7, #12]
 80041e0:	68fb      	ldr	r3, [r7, #12]

        temp = SYSCFG->EXTICR[position >> 2U];
 80041e2:	4a58      	ldr	r2, [pc, #352]	@ (8004344 <HAL_GPIO_Init+0x304>)
 80041e4:	69fb      	ldr	r3, [r7, #28]
 80041e6:	089b      	lsrs	r3, r3, #2
 80041e8:	3302      	adds	r3, #2
 80041ea:	f852 3023 	ldr.w	r3, [r2, r3, lsl #2]
 80041ee:	61bb      	str	r3, [r7, #24]
        temp &= ~(0x0FU << (4U * (position & 0x03U)));
 80041f0:	69fb      	ldr	r3, [r7, #28]
 80041f2:	f003 0303 	and.w	r3, r3, #3
 80041f6:	009b      	lsls	r3, r3, #2
 80041f8:	220f      	movs	r2, #15
 80041fa:	fa02 f303 	lsl.w	r3, r2, r3
 80041fe:	43db      	mvns	r3, r3
 8004200:	69ba      	ldr	r2, [r7, #24]
 8004202:	4013      	ands	r3, r2
 8004204:	61bb      	str	r3, [r7, #24]
        temp |= ((uint32_t)(GPIO_GET_INDEX(GPIOx)) << (4U * (position & 0x03U)));
 8004206:	687b      	ldr	r3, [r7, #4]
 8004208:	4a4f      	ldr	r2, [pc, #316]	@ (8004348 <HAL_GPIO_Init+0x308>)
 800420a:	4293      	cmp	r3, r2
 800420c:	d025      	beq.n	800425a <HAL_GPIO_Init+0x21a>
 800420e:	687b      	ldr	r3, [r7, #4]
 8004210:	4a4e      	ldr	r2, [pc, #312]	@ (800434c <HAL_GPIO_Init+0x30c>)
 8004212:	4293      	cmp	r3, r2
 8004214:	d01f      	beq.n	8004256 <HAL_GPIO_Init+0x216>
 8004216:	687b      	ldr	r3, [r7, #4]
 8004218:	4a4d      	ldr	r2, [pc, #308]	@ (8004350 <HAL_GPIO_Init+0x310>)
 800421a:	4293      	cmp	r3, r2
 800421c:	d019      	beq.n	8004252 <HAL_GPIO_Init+0x212>
 800421e:	687b      	ldr	r3, [r7, #4]
 8004220:	4a4c      	ldr	r2, [pc, #304]	@ (8004354 <HAL_GPIO_Init+0x314>)
 8004222:	4293      	cmp	r3, r2
 8004224:	d013      	beq.n	800424e <HAL_GPIO_Init+0x20e>
 8004226:	687b      	ldr	r3, [r7, #4]
 8004228:	4a4b      	ldr	r2, [pc, #300]	@ (8004358 <HAL_GPIO_Init+0x318>)
 800422a:	4293      	cmp	r3, r2
 800422c:	d00d      	beq.n	800424a <HAL_GPIO_Init+0x20a>
 800422e:	687b      	ldr	r3, [r7, #4]
 8004230:	4a4a      	ldr	r2, [pc, #296]	@ (800435c <HAL_GPIO_Init+0x31c>)
 8004232:	4293      	cmp	r3, r2
 8004234:	d007      	beq.n	8004246 <HAL_GPIO_Init+0x206>
 8004236:	687b      	ldr	r3, [r7, #4]
 8004238:	4a49      	ldr	r2, [pc, #292]	@ (8004360 <HAL_GPIO_Init+0x320>)
 800423a:	4293      	cmp	r3, r2
 800423c:	d101      	bne.n	8004242 <HAL_GPIO_Init+0x202>
 800423e:	2306      	movs	r3, #6
 8004240:	e00c      	b.n	800425c <HAL_GPIO_Init+0x21c>
 8004242:	2307      	movs	r3, #7
 8004244:	e00a      	b.n	800425c <HAL_GPIO_Init+0x21c>
 8004246:	2305      	movs	r3, #5
 8004248:	e008      	b.n	800425c <HAL_GPIO_Init+0x21c>
 800424a:	2304      	movs	r3, #4
 800424c:	e006      	b.n	800425c <HAL_GPIO_Init+0x21c>
 800424e:	2303      	movs	r3, #3
 8004250:	e004      	b.n	800425c <HAL_GPIO_Init+0x21c>
 8004252:	2302      	movs	r3, #2
 8004254:	e002      	b.n	800425c <HAL_GPIO_Init+0x21c>
 8004256:	2301      	movs	r3, #1
 8004258:	e000      	b.n	800425c <HAL_GPIO_Init+0x21c>
 800425a:	2300      	movs	r3, #0
 800425c:	69fa      	ldr	r2, [r7, #28]
 800425e:	f002 0203 	and.w	r2, r2, #3
 8004262:	0092      	lsls	r2, r2, #2
 8004264:	4093      	lsls	r3, r2
 8004266:	69ba      	ldr	r2, [r7, #24]
 8004268:	4313      	orrs	r3, r2
 800426a:	61bb      	str	r3, [r7, #24]
        SYSCFG->EXTICR[position >> 2U] = temp;
 800426c:	4935      	ldr	r1, [pc, #212]	@ (8004344 <HAL_GPIO_Init+0x304>)
 800426e:	69fb      	ldr	r3, [r7, #28]
 8004270:	089b      	lsrs	r3, r3, #2
 8004272:	3302      	adds	r3, #2
 8004274:	69ba      	ldr	r2, [r7, #24]
 8004276:	f841 2023 	str.w	r2, [r1, r3, lsl #2]

        /* Clear Rising Falling edge configuration */
        temp = EXTI->RTSR;
 800427a:	4b3a      	ldr	r3, [pc, #232]	@ (8004364 <HAL_GPIO_Init+0x324>)
 800427c:	689b      	ldr	r3, [r3, #8]
 800427e:	61bb      	str	r3, [r7, #24]
        temp &= ~((uint32_t)iocurrent);
 8004280:	693b      	ldr	r3, [r7, #16]
 8004282:	43db      	mvns	r3, r3
 8004284:	69ba      	ldr	r2, [r7, #24]
 8004286:	4013      	ands	r3, r2
 8004288:	61bb      	str	r3, [r7, #24]
        if((GPIO_Init->Mode & TRIGGER_RISING) != 0x00U)
 800428a:	683b      	ldr	r3, [r7, #0]
 800428c:	685b      	ldr	r3, [r3, #4]
 800428e:	f403 1380 	and.w	r3, r3, #1048576	@ 0x100000
 8004292:	2b00      	cmp	r3, #0
 8004294:	d003      	beq.n	800429e <HAL_GPIO_Init+0x25e>
        {
          temp |= iocurrent;
 8004296:	69ba      	ldr	r2, [r7, #24]
 8004298:	693b      	ldr	r3, [r7, #16]
 800429a:	4313      	orrs	r3, r2
 800429c:	61bb      	str	r3, [r7, #24]
        }
        EXTI->RTSR = temp;
 800429e:	4a31      	ldr	r2, [pc, #196]	@ (8004364 <HAL_GPIO_Init+0x324>)
 80042a0:	69bb      	ldr	r3, [r7, #24]
 80042a2:	6093      	str	r3, [r2, #8]

        temp = EXTI->FTSR;
 80042a4:	4b2f      	ldr	r3, [pc, #188]	@ (8004364 <HAL_GPIO_Init+0x324>)
 80042a6:	68db      	ldr	r3, [r3, #12]
 80042a8:	61bb      	str	r3, [r7, #24]
        temp &= ~((uint32_t)iocurrent);
 80042aa:	693b      	ldr	r3, [r7, #16]
 80042ac:	43db      	mvns	r3, r3
 80042ae:	69ba      	ldr	r2, [r7, #24]
 80042b0:	4013      	ands	r3, r2
 80042b2:	61bb      	str	r3, [r7, #24]
        if((GPIO_Init->Mode & TRIGGER_FALLING) != 0x00U)
 80042b4:	683b      	ldr	r3, [r7, #0]
 80042b6:	685b      	ldr	r3, [r3, #4]
 80042b8:	f403 1300 	and.w	r3, r3, #2097152	@ 0x200000
 80042bc:	2b00      	cmp	r3, #0
 80042be:	d003      	beq.n	80042c8 <HAL_GPIO_Init+0x288>
        {
          temp |= iocurrent;
 80042c0:	69ba      	ldr	r2, [r7, #24]
 80042c2:	693b      	ldr	r3, [r7, #16]
 80042c4:	4313      	orrs	r3, r2
 80042c6:	61bb      	str	r3, [r7, #24]
        }
        EXTI->FTSR = temp;
 80042c8:	4a26      	ldr	r2, [pc, #152]	@ (8004364 <HAL_GPIO_Init+0x324>)
 80042ca:	69bb      	ldr	r3, [r7, #24]
 80042cc:	60d3      	str	r3, [r2, #12]

        temp = EXTI->EMR;
 80042ce:	4b25      	ldr	r3, [pc, #148]	@ (8004364 <HAL_GPIO_Init+0x324>)
 80042d0:	685b      	ldr	r3, [r3, #4]
 80042d2:	61bb      	str	r3, [r7, #24]
        temp &= ~((uint32_t)iocurrent);
 80042d4:	693b      	ldr	r3, [r7, #16]
 80042d6:	43db      	mvns	r3, r3
 80042d8:	69ba      	ldr	r2, [r7, #24]
 80042da:	4013      	ands	r3, r2
 80042dc:	61bb      	str	r3, [r7, #24]
        if((GPIO_Init->Mode & EXTI_EVT) != 0x00U)
 80042de:	683b      	ldr	r3, [r7, #0]
 80042e0:	685b      	ldr	r3, [r3, #4]
 80042e2:	f403 3300 	and.w	r3, r3, #131072	@ 0x20000
 80042e6:	2b00      	cmp	r3, #0
 80042e8:	d003      	beq.n	80042f2 <HAL_GPIO_Init+0x2b2>
        {
          temp |= iocurrent;
 80042ea:	69ba      	ldr	r2, [r7, #24]
 80042ec:	693b      	ldr	r3, [r7, #16]
 80042ee:	4313      	orrs	r3, r2
 80042f0:	61bb      	str	r3, [r7, #24]
        }
        EXTI->EMR = temp;
 80042f2:	4a1c      	ldr	r2, [pc, #112]	@ (8004364 <HAL_GPIO_Init+0x324>)
 80042f4:	69bb      	ldr	r3, [r7, #24]
 80042f6:	6053      	str	r3, [r2, #4]

        /* Clear EXTI line configuration */
        temp = EXTI->IMR;
 80042f8:	4b1a      	ldr	r3, [pc, #104]	@ (8004364 <HAL_GPIO_Init+0x324>)
 80042fa:	681b      	ldr	r3, [r3, #0]
 80042fc:	61bb      	str	r3, [r7, #24]
        temp &= ~((uint32_t)iocurrent);
 80042fe:	693b      	ldr	r3, [r7, #16]
 8004300:	43db      	mvns	r3, r3
 8004302:	69ba      	ldr	r2, [r7, #24]
 8004304:	4013      	ands	r3, r2
 8004306:	61bb      	str	r3, [r7, #24]
        if((GPIO_Init->Mode & EXTI_IT) != 0x00U)
 8004308:	683b      	ldr	r3, [r7, #0]
 800430a:	685b      	ldr	r3, [r3, #4]
 800430c:	f403 3380 	and.w	r3, r3, #65536	@ 0x10000
 8004310:	2b00      	cmp	r3, #0
 8004312:	d003      	beq.n	800431c <HAL_GPIO_Init+0x2dc>
        {
          temp |= iocurrent;
 8004314:	69ba      	ldr	r2, [r7, #24]
 8004316:	693b      	ldr	r3, [r7, #16]
 8004318:	4313      	orrs	r3, r2
 800431a:	61bb      	str	r3, [r7, #24]
        }
        EXTI->IMR = temp;
 800431c:	4a11      	ldr	r2, [pc, #68]	@ (8004364 <HAL_GPIO_Init+0x324>)
 800431e:	69bb      	ldr	r3, [r7, #24]
 8004320:	6013      	str	r3, [r2, #0]
  for(position = 0U; position < GPIO_NUMBER; position++)
 8004322:	69fb      	ldr	r3, [r7, #28]
 8004324:	3301      	adds	r3, #1
 8004326:	61fb      	str	r3, [r7, #28]
 8004328:	69fb      	ldr	r3, [r7, #28]
 800432a:	2b0f      	cmp	r3, #15
 800432c:	f67f ae96 	bls.w	800405c <HAL_GPIO_Init+0x1c>
      }
    }
  }
}
 8004330:	bf00      	nop
 8004332:	bf00      	nop
 8004334:	3724      	adds	r7, #36	@ 0x24
 8004336:	46bd      	mov	sp, r7
 8004338:	f85d 7b04 	ldr.w	r7, [sp], #4
 800433c:	4770      	bx	lr
 800433e:	bf00      	nop
 8004340:	40023800 	.word	0x40023800
 8004344:	40013800 	.word	0x40013800
 8004348:	40020000 	.word	0x40020000
 800434c:	40020400 	.word	0x40020400
 8004350:	40020800 	.word	0x40020800
 8004354:	40020c00 	.word	0x40020c00
 8004358:	40021000 	.word	0x40021000
 800435c:	40021400 	.word	0x40021400
 8004360:	40021800 	.word	0x40021800
 8004364:	40013c00 	.word	0x40013c00

08004368 <HAL_GPIO_WritePin>:
  *            @arg GPIO_PIN_RESET: to clear the port pin
  *            @arg GPIO_PIN_SET: to set the port pin
  * @retval None
  */
void HAL_GPIO_WritePin(GPIO_TypeDef* GPIOx, uint16_t GPIO_Pin, GPIO_PinState PinState)
{
 8004368:	b480      	push	{r7}
 800436a:	b083      	sub	sp, #12
 800436c:	af00      	add	r7, sp, #0
 800436e:	6078      	str	r0, [r7, #4]
 8004370:	460b      	mov	r3, r1
 8004372:	807b      	strh	r3, [r7, #2]
 8004374:	4613      	mov	r3, r2
 8004376:	707b      	strb	r3, [r7, #1]
  /* Check the parameters */
  assert_param(IS_GPIO_PIN(GPIO_Pin));
  assert_param(IS_GPIO_PIN_ACTION(PinState));

  if(PinState != GPIO_PIN_RESET)
 8004378:	787b      	ldrb	r3, [r7, #1]
 800437a:	2b00      	cmp	r3, #0
 800437c:	d003      	beq.n	8004386 <HAL_GPIO_WritePin+0x1e>
  {
    GPIOx->BSRR = GPIO_Pin;
 800437e:	887a      	ldrh	r2, [r7, #2]
 8004380:	687b      	ldr	r3, [r7, #4]
 8004382:	619a      	str	r2, [r3, #24]
  }
  else
  {
    GPIOx->BSRR = (uint32_t)GPIO_Pin << 16U;
  }
}
 8004384:	e003      	b.n	800438e <HAL_GPIO_WritePin+0x26>
    GPIOx->BSRR = (uint32_t)GPIO_Pin << 16U;
 8004386:	887b      	ldrh	r3, [r7, #2]
 8004388:	041a      	lsls	r2, r3, #16
 800438a:	687b      	ldr	r3, [r7, #4]
 800438c:	619a      	str	r2, [r3, #24]
}
 800438e:	bf00      	nop
 8004390:	370c      	adds	r7, #12
 8004392:	46bd      	mov	sp, r7
 8004394:	f85d 7b04 	ldr.w	r7, [sp], #4
 8004398:	4770      	bx	lr
	...

0800439c <HAL_I2C_Init>:
  * @param  hi2c Pointer to a I2C_HandleTypeDef structure that contains
  *                the configuration information for the specified I2C.
  * @retval HAL status
  */
HAL_StatusTypeDef HAL_I2C_Init(I2C_HandleTypeDef *hi2c)
{
 800439c:	b580      	push	{r7, lr}
 800439e:	b084      	sub	sp, #16
 80043a0:	af00      	add	r7, sp, #0
 80043a2:	6078      	str	r0, [r7, #4]
  uint32_t freqrange;
  uint32_t pclk1;

  /* Check the I2C handle allocation */
  if (hi2c == NULL)
 80043a4:	687b      	ldr	r3, [r7, #4]
 80043a6:	2b00      	cmp	r3, #0
 80043a8:	d101      	bne.n	80043ae <HAL_I2C_Init+0x12>
  {
    return HAL_ERROR;
 80043aa:	2301      	movs	r3, #1
 80043ac:	e12b      	b.n	8004606 <HAL_I2C_Init+0x26a>
  assert_param(IS_I2C_DUAL_ADDRESS(hi2c->Init.DualAddressMode));
  assert_param(IS_I2C_OWN_ADDRESS2(hi2c->Init.OwnAddress2));
  assert_param(IS_I2C_GENERAL_CALL(hi2c->Init.GeneralCallMode));
  assert_param(IS_I2C_NO_STRETCH(hi2c->Init.NoStretchMode));

  if (hi2c->State == HAL_I2C_STATE_RESET)
 80043ae:	687b      	ldr	r3, [r7, #4]
 80043b0:	f893 303d 	ldrb.w	r3, [r3, #61]	@ 0x3d
 80043b4:	b2db      	uxtb	r3, r3
 80043b6:	2b00      	cmp	r3, #0
 80043b8:	d106      	bne.n	80043c8 <HAL_I2C_Init+0x2c>
  {
    /* Allocate lock resource and initialize it */
    hi2c->Lock = HAL_UNLOCKED;
 80043ba:	687b      	ldr	r3, [r7, #4]
 80043bc:	2200      	movs	r2, #0
 80043be:	f883 203c 	strb.w	r2, [r3, #60]	@ 0x3c

    /* Init the low level hardware : GPIO, CLOCK, NVIC */
    hi2c->MspInitCallback(hi2c);
#else
    /* Init the low level hardware : GPIO, CLOCK, NVIC */
    HAL_I2C_MspInit(hi2c);
 80043c2:	6878      	ldr	r0, [r7, #4]
 80043c4:	f7fd ff7c 	bl	80022c0 <HAL_I2C_MspInit>
#endif /* USE_HAL_I2C_REGISTER_CALLBACKS */
  }

  hi2c->State = HAL_I2C_STATE_BUSY;
 80043c8:	687b      	ldr	r3, [r7, #4]
 80043ca:	2224      	movs	r2, #36	@ 0x24
 80043cc:	f883 203d 	strb.w	r2, [r3, #61]	@ 0x3d

  /* Disable the selected I2C peripheral */
  __HAL_I2C_DISABLE(hi2c);
 80043d0:	687b      	ldr	r3, [r7, #4]
 80043d2:	681b      	ldr	r3, [r3, #0]
 80043d4:	681a      	ldr	r2, [r3, #0]
 80043d6:	687b      	ldr	r3, [r7, #4]
 80043d8:	681b      	ldr	r3, [r3, #0]
 80043da:	f022 0201 	bic.w	r2, r2, #1
 80043de:	601a      	str	r2, [r3, #0]

  /*Reset I2C*/
  hi2c->Instance->CR1 |= I2C_CR1_SWRST;
 80043e0:	687b      	ldr	r3, [r7, #4]
 80043e2:	681b      	ldr	r3, [r3, #0]
 80043e4:	681a      	ldr	r2, [r3, #0]
 80043e6:	687b      	ldr	r3, [r7, #4]
 80043e8:	681b      	ldr	r3, [r3, #0]
 80043ea:	f442 4200 	orr.w	r2, r2, #32768	@ 0x8000
 80043ee:	601a      	str	r2, [r3, #0]
  hi2c->Instance->CR1 &= ~I2C_CR1_SWRST;
 80043f0:	687b      	ldr	r3, [r7, #4]
 80043f2:	681b      	ldr	r3, [r3, #0]
 80043f4:	681a      	ldr	r2, [r3, #0]
 80043f6:	687b      	ldr	r3, [r7, #4]
 80043f8:	681b      	ldr	r3, [r3, #0]
 80043fa:	f422 4200 	bic.w	r2, r2, #32768	@ 0x8000
 80043fe:	601a      	str	r2, [r3, #0]

  /* Get PCLK1 frequency */
  pclk1 = HAL_RCC_GetPCLK1Freq();
 8004400:	f000 fa52 	bl	80048a8 <HAL_RCC_GetPCLK1Freq>
 8004404:	60f8      	str	r0, [r7, #12]

  /* Check the minimum allowed PCLK1 frequency */
  if (I2C_MIN_PCLK_FREQ(pclk1, hi2c->Init.ClockSpeed) == 1U)
 8004406:	687b      	ldr	r3, [r7, #4]
 8004408:	685b      	ldr	r3, [r3, #4]
 800440a:	4a81      	ldr	r2, [pc, #516]	@ (8004610 <HAL_I2C_Init+0x274>)
 800440c:	4293      	cmp	r3, r2
 800440e:	d807      	bhi.n	8004420 <HAL_I2C_Init+0x84>
 8004410:	68fb      	ldr	r3, [r7, #12]
 8004412:	4a80      	ldr	r2, [pc, #512]	@ (8004614 <HAL_I2C_Init+0x278>)
 8004414:	4293      	cmp	r3, r2
 8004416:	bf94      	ite	ls
 8004418:	2301      	movls	r3, #1
 800441a:	2300      	movhi	r3, #0
 800441c:	b2db      	uxtb	r3, r3
 800441e:	e006      	b.n	800442e <HAL_I2C_Init+0x92>
 8004420:	68fb      	ldr	r3, [r7, #12]
 8004422:	4a7d      	ldr	r2, [pc, #500]	@ (8004618 <HAL_I2C_Init+0x27c>)
 8004424:	4293      	cmp	r3, r2
 8004426:	bf94      	ite	ls
 8004428:	2301      	movls	r3, #1
 800442a:	2300      	movhi	r3, #0
 800442c:	b2db      	uxtb	r3, r3
 800442e:	2b00      	cmp	r3, #0
 8004430:	d001      	beq.n	8004436 <HAL_I2C_Init+0x9a>
  {
    return HAL_ERROR;
 8004432:	2301      	movs	r3, #1
 8004434:	e0e7      	b.n	8004606 <HAL_I2C_Init+0x26a>
  }

  /* Calculate frequency range */
  freqrange = I2C_FREQRANGE(pclk1);
 8004436:	68fb      	ldr	r3, [r7, #12]
 8004438:	4a78      	ldr	r2, [pc, #480]	@ (800461c <HAL_I2C_Init+0x280>)
 800443a:	fba2 2303 	umull	r2, r3, r2, r3
 800443e:	0c9b      	lsrs	r3, r3, #18
 8004440:	60bb      	str	r3, [r7, #8]

  /*---------------------------- I2Cx CR2 Configuration ----------------------*/
  /* Configure I2Cx: Frequency range */
  MODIFY_REG(hi2c->Instance->CR2, I2C_CR2_FREQ, freqrange);
 8004442:	687b      	ldr	r3, [r7, #4]
 8004444:	681b      	ldr	r3, [r3, #0]
 8004446:	685b      	ldr	r3, [r3, #4]
 8004448:	f023 013f 	bic.w	r1, r3, #63	@ 0x3f
 800444c:	687b      	ldr	r3, [r7, #4]
 800444e:	681b      	ldr	r3, [r3, #0]
 8004450:	68ba      	ldr	r2, [r7, #8]
 8004452:	430a      	orrs	r2, r1
 8004454:	605a      	str	r2, [r3, #4]

  /*---------------------------- I2Cx TRISE Configuration --------------------*/
  /* Configure I2Cx: Rise Time */
  MODIFY_REG(hi2c->Instance->TRISE, I2C_TRISE_TRISE, I2C_RISE_TIME(freqrange, hi2c->Init.ClockSpeed));
 8004456:	687b      	ldr	r3, [r7, #4]
 8004458:	681b      	ldr	r3, [r3, #0]
 800445a:	6a1b      	ldr	r3, [r3, #32]
 800445c:	f023 013f 	bic.w	r1, r3, #63	@ 0x3f
 8004460:	687b      	ldr	r3, [r7, #4]
 8004462:	685b      	ldr	r3, [r3, #4]
 8004464:	4a6a      	ldr	r2, [pc, #424]	@ (8004610 <HAL_I2C_Init+0x274>)
 8004466:	4293      	cmp	r3, r2
 8004468:	d802      	bhi.n	8004470 <HAL_I2C_Init+0xd4>
 800446a:	68bb      	ldr	r3, [r7, #8]
 800446c:	3301      	adds	r3, #1
 800446e:	e009      	b.n	8004484 <HAL_I2C_Init+0xe8>
 8004470:	68bb      	ldr	r3, [r7, #8]
 8004472:	f44f 7296 	mov.w	r2, #300	@ 0x12c
 8004476:	fb02 f303 	mul.w	r3, r2, r3
 800447a:	4a69      	ldr	r2, [pc, #420]	@ (8004620 <HAL_I2C_Init+0x284>)
 800447c:	fba2 2303 	umull	r2, r3, r2, r3
 8004480:	099b      	lsrs	r3, r3, #6
 8004482:	3301      	adds	r3, #1
 8004484:	687a      	ldr	r2, [r7, #4]
 8004486:	6812      	ldr	r2, [r2, #0]
 8004488:	430b      	orrs	r3, r1
 800448a:	6213      	str	r3, [r2, #32]

  /*---------------------------- I2Cx CCR Configuration ----------------------*/
  /* Configure I2Cx: Speed */
  MODIFY_REG(hi2c->Instance->CCR, (I2C_CCR_FS | I2C_CCR_DUTY | I2C_CCR_CCR), I2C_SPEED(pclk1, hi2c->Init.ClockSpeed, hi2c->Init.DutyCycle));
 800448c:	687b      	ldr	r3, [r7, #4]
 800448e:	681b      	ldr	r3, [r3, #0]
 8004490:	69db      	ldr	r3, [r3, #28]
 8004492:	f423 424f 	bic.w	r2, r3, #52992	@ 0xcf00
 8004496:	f022 02ff 	bic.w	r2, r2, #255	@ 0xff
 800449a:	687b      	ldr	r3, [r7, #4]
 800449c:	685b      	ldr	r3, [r3, #4]
 800449e:	495c      	ldr	r1, [pc, #368]	@ (8004610 <HAL_I2C_Init+0x274>)
 80044a0:	428b      	cmp	r3, r1
 80044a2:	d819      	bhi.n	80044d8 <HAL_I2C_Init+0x13c>
 80044a4:	68fb      	ldr	r3, [r7, #12]
 80044a6:	1e59      	subs	r1, r3, #1
 80044a8:	687b      	ldr	r3, [r7, #4]
 80044aa:	685b      	ldr	r3, [r3, #4]
 80044ac:	005b      	lsls	r3, r3, #1
 80044ae:	fbb1 f3f3 	udiv	r3, r1, r3
 80044b2:	1c59      	adds	r1, r3, #1
 80044b4:	f640 73fc 	movw	r3, #4092	@ 0xffc
 80044b8:	400b      	ands	r3, r1
 80044ba:	2b00      	cmp	r3, #0
 80044bc:	d00a      	beq.n	80044d4 <HAL_I2C_Init+0x138>
 80044be:	68fb      	ldr	r3, [r7, #12]
 80044c0:	1e59      	subs	r1, r3, #1
 80044c2:	687b      	ldr	r3, [r7, #4]
 80044c4:	685b      	ldr	r3, [r3, #4]
 80044c6:	005b      	lsls	r3, r3, #1
 80044c8:	fbb1 f3f3 	udiv	r3, r1, r3
 80044cc:	3301      	adds	r3, #1
 80044ce:	f3c3 030b 	ubfx	r3, r3, #0, #12
 80044d2:	e051      	b.n	8004578 <HAL_I2C_Init+0x1dc>
 80044d4:	2304      	movs	r3, #4
 80044d6:	e04f      	b.n	8004578 <HAL_I2C_Init+0x1dc>
 80044d8:	687b      	ldr	r3, [r7, #4]
 80044da:	689b      	ldr	r3, [r3, #8]
 80044dc:	2b00      	cmp	r3, #0
 80044de:	d111      	bne.n	8004504 <HAL_I2C_Init+0x168>
 80044e0:	68fb      	ldr	r3, [r7, #12]
 80044e2:	1e58      	subs	r0, r3, #1
 80044e4:	687b      	ldr	r3, [r7, #4]
 80044e6:	6859      	ldr	r1, [r3, #4]
 80044e8:	460b      	mov	r3, r1
 80044ea:	005b      	lsls	r3, r3, #1
 80044ec:	440b      	add	r3, r1
 80044ee:	fbb0 f3f3 	udiv	r3, r0, r3
 80044f2:	3301      	adds	r3, #1
 80044f4:	f3c3 030b 	ubfx	r3, r3, #0, #12
 80044f8:	2b00      	cmp	r3, #0
 80044fa:	bf0c      	ite	eq
 80044fc:	2301      	moveq	r3, #1
 80044fe:	2300      	movne	r3, #0
 8004500:	b2db      	uxtb	r3, r3
 8004502:	e012      	b.n	800452a <HAL_I2C_Init+0x18e>
 8004504:	68fb      	ldr	r3, [r7, #12]
 8004506:	1e58      	subs	r0, r3, #1
 8004508:	687b      	ldr	r3, [r7, #4]
 800450a:	6859      	ldr	r1, [r3, #4]
 800450c:	460b      	mov	r3, r1
 800450e:	009b      	lsls	r3, r3, #2
 8004510:	440b      	add	r3, r1
 8004512:	0099      	lsls	r1, r3, #2
 8004514:	440b      	add	r3, r1
 8004516:	fbb0 f3f3 	udiv	r3, r0, r3
 800451a:	3301      	adds	r3, #1
 800451c:	f3c3 030b 	ubfx	r3, r3, #0, #12
 8004520:	2b00      	cmp	r3, #0
 8004522:	bf0c      	ite	eq
 8004524:	2301      	moveq	r3, #1
 8004526:	2300      	movne	r3, #0
 8004528:	b2db      	uxtb	r3, r3
 800452a:	2b00      	cmp	r3, #0
 800452c:	d001      	beq.n	8004532 <HAL_I2C_Init+0x196>
 800452e:	2301      	movs	r3, #1
 8004530:	e022      	b.n	8004578 <HAL_I2C_Init+0x1dc>
 8004532:	687b      	ldr	r3, [r7, #4]
 8004534:	689b      	ldr	r3, [r3, #8]
 8004536:	2b00      	cmp	r3, #0
 8004538:	d10e      	bne.n	8004558 <HAL_I2C_Init+0x1bc>
 800453a:	68fb      	ldr	r3, [r7, #12]
 800453c:	1e58      	subs	r0, r3, #1
 800453e:	687b      	ldr	r3, [r7, #4]
 8004540:	6859      	ldr	r1, [r3, #4]
 8004542:	460b      	mov	r3, r1
 8004544:	005b      	lsls	r3, r3, #1
 8004546:	440b      	add	r3, r1
 8004548:	fbb0 f3f3 	udiv	r3, r0, r3
 800454c:	3301      	adds	r3, #1
 800454e:	f3c3 030b 	ubfx	r3, r3, #0, #12
 8004552:	f443 4300 	orr.w	r3, r3, #32768	@ 0x8000
 8004556:	e00f      	b.n	8004578 <HAL_I2C_Init+0x1dc>
 8004558:	68fb      	ldr	r3, [r7, #12]
 800455a:	1e58      	subs	r0, r3, #1
 800455c:	687b      	ldr	r3, [r7, #4]
 800455e:	6859      	ldr	r1, [r3, #4]
 8004560:	460b      	mov	r3, r1
 8004562:	009b      	lsls	r3, r3, #2
 8004564:	440b      	add	r3, r1
 8004566:	0099      	lsls	r1, r3, #2
 8004568:	440b      	add	r3, r1
 800456a:	fbb0 f3f3 	udiv	r3, r0, r3
 800456e:	3301      	adds	r3, #1
 8004570:	f3c3 030b 	ubfx	r3, r3, #0, #12
 8004574:	f443 4340 	orr.w	r3, r3, #49152	@ 0xc000
 8004578:	6879      	ldr	r1, [r7, #4]
 800457a:	6809      	ldr	r1, [r1, #0]
 800457c:	4313      	orrs	r3, r2
 800457e:	61cb      	str	r3, [r1, #28]

  /*---------------------------- I2Cx CR1 Configuration ----------------------*/
  /* Configure I2Cx: Generalcall and NoStretch mode */
  MODIFY_REG(hi2c->Instance->CR1, (I2C_CR1_ENGC | I2C_CR1_NOSTRETCH), (hi2c->Init.GeneralCallMode | hi2c->Init.NoStretchMode));
 8004580:	687b      	ldr	r3, [r7, #4]
 8004582:	681b      	ldr	r3, [r3, #0]
 8004584:	681b      	ldr	r3, [r3, #0]
 8004586:	f023 01c0 	bic.w	r1, r3, #192	@ 0xc0
 800458a:	687b      	ldr	r3, [r7, #4]
 800458c:	69da      	ldr	r2, [r3, #28]
 800458e:	687b      	ldr	r3, [r7, #4]
 8004590:	6a1b      	ldr	r3, [r3, #32]
 8004592:	431a      	orrs	r2, r3
 8004594:	687b      	ldr	r3, [r7, #4]
 8004596:	681b      	ldr	r3, [r3, #0]
 8004598:	430a      	orrs	r2, r1
 800459a:	601a      	str	r2, [r3, #0]

  /*---------------------------- I2Cx OAR1 Configuration ---------------------*/
  /* Configure I2Cx: Own Address1 and addressing mode */
  MODIFY_REG(hi2c->Instance->OAR1, (I2C_OAR1_ADDMODE | I2C_OAR1_ADD8_9 | I2C_OAR1_ADD1_7 | I2C_OAR1_ADD0), (hi2c->Init.AddressingMode | hi2c->Init.OwnAddress1));
 800459c:	687b      	ldr	r3, [r7, #4]
 800459e:	681b      	ldr	r3, [r3, #0]
 80045a0:	689b      	ldr	r3, [r3, #8]
 80045a2:	f423 4303 	bic.w	r3, r3, #33536	@ 0x8300
 80045a6:	f023 03ff 	bic.w	r3, r3, #255	@ 0xff
 80045aa:	687a      	ldr	r2, [r7, #4]
 80045ac:	6911      	ldr	r1, [r2, #16]
 80045ae:	687a      	ldr	r2, [r7, #4]
 80045b0:	68d2      	ldr	r2, [r2, #12]
 80045b2:	4311      	orrs	r1, r2
 80045b4:	687a      	ldr	r2, [r7, #4]
 80045b6:	6812      	ldr	r2, [r2, #0]
 80045b8:	430b      	orrs	r3, r1
 80045ba:	6093      	str	r3, [r2, #8]

  /*---------------------------- I2Cx OAR2 Configuration ---------------------*/
  /* Configure I2Cx: Dual mode and Own Address2 */
  MODIFY_REG(hi2c->Instance->OAR2, (I2C_OAR2_ENDUAL | I2C_OAR2_ADD2), (hi2c->Init.DualAddressMode | hi2c->Init.OwnAddress2));
 80045bc:	687b      	ldr	r3, [r7, #4]
 80045be:	681b      	ldr	r3, [r3, #0]
 80045c0:	68db      	ldr	r3, [r3, #12]
 80045c2:	f023 01ff 	bic.w	r1, r3, #255	@ 0xff
 80045c6:	687b      	ldr	r3, [r7, #4]
 80045c8:	695a      	ldr	r2, [r3, #20]
 80045ca:	687b      	ldr	r3, [r7, #4]
 80045cc:	699b      	ldr	r3, [r3, #24]
 80045ce:	431a      	orrs	r2, r3
 80045d0:	687b      	ldr	r3, [r7, #4]
 80045d2:	681b      	ldr	r3, [r3, #0]
 80045d4:	430a      	orrs	r2, r1
 80045d6:	60da      	str	r2, [r3, #12]

  /* Enable the selected I2C peripheral */
  __HAL_I2C_ENABLE(hi2c);
 80045d8:	687b      	ldr	r3, [r7, #4]
 80045da:	681b      	ldr	r3, [r3, #0]
 80045dc:	681a      	ldr	r2, [r3, #0]
 80045de:	687b      	ldr	r3, [r7, #4]
 80045e0:	681b      	ldr	r3, [r3, #0]
 80045e2:	f042 0201 	orr.w	r2, r2, #1
 80045e6:	601a      	str	r2, [r3, #0]

  hi2c->ErrorCode = HAL_I2C_ERROR_NONE;
 80045e8:	687b      	ldr	r3, [r7, #4]
 80045ea:	2200      	movs	r2, #0
 80045ec:	641a      	str	r2, [r3, #64]	@ 0x40
  hi2c->State = HAL_I2C_STATE_READY;
 80045ee:	687b      	ldr	r3, [r7, #4]
 80045f0:	2220      	movs	r2, #32
 80045f2:	f883 203d 	strb.w	r2, [r3, #61]	@ 0x3d
  hi2c->PreviousState = I2C_STATE_NONE;
 80045f6:	687b      	ldr	r3, [r7, #4]
 80045f8:	2200      	movs	r2, #0
 80045fa:	631a      	str	r2, [r3, #48]	@ 0x30
  hi2c->Mode = HAL_I2C_MODE_NONE;
 80045fc:	687b      	ldr	r3, [r7, #4]
 80045fe:	2200      	movs	r2, #0
 8004600:	f883 203e 	strb.w	r2, [r3, #62]	@ 0x3e

  return HAL_OK;
 8004604:	2300      	movs	r3, #0
}
 8004606:	4618      	mov	r0, r3
 8004608:	3710      	adds	r7, #16
 800460a:	46bd      	mov	sp, r7
 800460c:	bd80      	pop	{r7, pc}
 800460e:	bf00      	nop
 8004610:	000186a0 	.word	0x000186a0
 8004614:	001e847f 	.word	0x001e847f
 8004618:	003d08ff 	.word	0x003d08ff
 800461c:	431bde83 	.word	0x431bde83
 8004620:	10624dd3 	.word	0x10624dd3

08004624 <HAL_PWREx_EnableOverDrive>:
  *         During the Over-drive switch activation, no peripheral clocks should be enabled.   
  *         The peripheral clocks must be enabled once the Over-drive mode is activated.   
  * @retval HAL status
  */
HAL_StatusTypeDef HAL_PWREx_EnableOverDrive(void)
{
 8004624:	b580      	push	{r7, lr}
 8004626:	b082      	sub	sp, #8
 8004628:	af00      	add	r7, sp, #0
  uint32_t tickstart = 0U;
 800462a:	2300      	movs	r3, #0
 800462c:	607b      	str	r3, [r7, #4]

  __HAL_RCC_PWR_CLK_ENABLE();
 800462e:	2300      	movs	r3, #0
 8004630:	603b      	str	r3, [r7, #0]
 8004632:	4b20      	ldr	r3, [pc, #128]	@ (80046b4 <HAL_PWREx_EnableOverDrive+0x90>)
 8004634:	6c1b      	ldr	r3, [r3, #64]	@ 0x40
 8004636:	4a1f      	ldr	r2, [pc, #124]	@ (80046b4 <HAL_PWREx_EnableOverDrive+0x90>)
 8004638:	f043 5380 	orr.w	r3, r3, #268435456	@ 0x10000000
 800463c:	6413      	str	r3, [r2, #64]	@ 0x40
 800463e:	4b1d      	ldr	r3, [pc, #116]	@ (80046b4 <HAL_PWREx_EnableOverDrive+0x90>)
 8004640:	6c1b      	ldr	r3, [r3, #64]	@ 0x40
 8004642:	f003 5380 	and.w	r3, r3, #268435456	@ 0x10000000
 8004646:	603b      	str	r3, [r7, #0]
 8004648:	683b      	ldr	r3, [r7, #0]
  
  /* Enable the Over-drive to extend the clock frequency to 180 Mhz */
  __HAL_PWR_OVERDRIVE_ENABLE();
 800464a:	4b1b      	ldr	r3, [pc, #108]	@ (80046b8 <HAL_PWREx_EnableOverDrive+0x94>)
 800464c:	2201      	movs	r2, #1
 800464e:	601a      	str	r2, [r3, #0]

  /* Get tick */
  tickstart = HAL_GetTick();
 8004650:	f7fe f872 	bl	8002738 <HAL_GetTick>
 8004654:	6078      	str	r0, [r7, #4]

  while(!__HAL_PWR_GET_FLAG(PWR_FLAG_ODRDY))
 8004656:	e009      	b.n	800466c <HAL_PWREx_EnableOverDrive+0x48>
  {
    if((HAL_GetTick() - tickstart) > PWR_OVERDRIVE_TIMEOUT_VALUE)
 8004658:	f7fe f86e 	bl	8002738 <HAL_GetTick>
 800465c:	4602      	mov	r2, r0
 800465e:	687b      	ldr	r3, [r7, #4]
 8004660:	1ad3      	subs	r3, r2, r3
 8004662:	f5b3 7f7a 	cmp.w	r3, #1000	@ 0x3e8
 8004666:	d901      	bls.n	800466c <HAL_PWREx_EnableOverDrive+0x48>
    {
      return HAL_TIMEOUT;
 8004668:	2303      	movs	r3, #3
 800466a:	e01f      	b.n	80046ac <HAL_PWREx_EnableOverDrive+0x88>
  while(!__HAL_PWR_GET_FLAG(PWR_FLAG_ODRDY))
 800466c:	4b13      	ldr	r3, [pc, #76]	@ (80046bc <HAL_PWREx_EnableOverDrive+0x98>)
 800466e:	685b      	ldr	r3, [r3, #4]
 8004670:	f403 3380 	and.w	r3, r3, #65536	@ 0x10000
 8004674:	f5b3 3f80 	cmp.w	r3, #65536	@ 0x10000
 8004678:	d1ee      	bne.n	8004658 <HAL_PWREx_EnableOverDrive+0x34>
    }
  }
  
  /* Enable the Over-drive switch */
  __HAL_PWR_OVERDRIVESWITCHING_ENABLE();
 800467a:	4b11      	ldr	r3, [pc, #68]	@ (80046c0 <HAL_PWREx_EnableOverDrive+0x9c>)
 800467c:	2201      	movs	r2, #1
 800467e:	601a      	str	r2, [r3, #0]

  /* Get tick */
  tickstart = HAL_GetTick();
 8004680:	f7fe f85a 	bl	8002738 <HAL_GetTick>
 8004684:	6078      	str	r0, [r7, #4]

  while(!__HAL_PWR_GET_FLAG(PWR_FLAG_ODSWRDY))
 8004686:	e009      	b.n	800469c <HAL_PWREx_EnableOverDrive+0x78>
  {
    if((HAL_GetTick() - tickstart ) > PWR_OVERDRIVE_TIMEOUT_VALUE)
 8004688:	f7fe f856 	bl	8002738 <HAL_GetTick>
 800468c:	4602      	mov	r2, r0
 800468e:	687b      	ldr	r3, [r7, #4]
 8004690:	1ad3      	subs	r3, r2, r3
 8004692:	f5b3 7f7a 	cmp.w	r3, #1000	@ 0x3e8
 8004696:	d901      	bls.n	800469c <HAL_PWREx_EnableOverDrive+0x78>
    {
      return HAL_TIMEOUT;
 8004698:	2303      	movs	r3, #3
 800469a:	e007      	b.n	80046ac <HAL_PWREx_EnableOverDrive+0x88>
  while(!__HAL_PWR_GET_FLAG(PWR_FLAG_ODSWRDY))
 800469c:	4b07      	ldr	r3, [pc, #28]	@ (80046bc <HAL_PWREx_EnableOverDrive+0x98>)
 800469e:	685b      	ldr	r3, [r3, #4]
 80046a0:	f403 3300 	and.w	r3, r3, #131072	@ 0x20000
 80046a4:	f5b3 3f00 	cmp.w	r3, #131072	@ 0x20000
 80046a8:	d1ee      	bne.n	8004688 <HAL_PWREx_EnableOverDrive+0x64>
    }
  } 
  return HAL_OK;
 80046aa:	2300      	movs	r3, #0
}
 80046ac:	4618      	mov	r0, r3
 80046ae:	3708      	adds	r7, #8
 80046b0:	46bd      	mov	sp, r7
 80046b2:	bd80      	pop	{r7, pc}
 80046b4:	40023800 	.word	0x40023800
 80046b8:	420e0040 	.word	0x420e0040
 80046bc:	40007000 	.word	0x40007000
 80046c0:	420e0044 	.word	0x420e0044

080046c4 <HAL_RCC_ClockConfig>:
  *         HPRE[3:0] bits to ensure that HCLK not exceed the maximum allowed frequency
  *         (for more details refer to section above "Initialization/de-initialization functions")
  * @retval None
  */
HAL_StatusTypeDef HAL_RCC_ClockConfig(RCC_ClkInitTypeDef  *RCC_ClkInitStruct, uint32_t FLatency)
{
 80046c4:	b580      	push	{r7, lr}
 80046c6:	b084      	sub	sp, #16
 80046c8:	af00      	add	r7, sp, #0
 80046ca:	6078      	str	r0, [r7, #4]
 80046cc:	6039      	str	r1, [r7, #0]
  uint32_t tickstart;

  /* Check Null pointer */
  if (RCC_ClkInitStruct == NULL)
 80046ce:	687b      	ldr	r3, [r7, #4]
 80046d0:	2b00      	cmp	r3, #0
 80046d2:	d101      	bne.n	80046d8 <HAL_RCC_ClockConfig+0x14>
  {
    return HAL_ERROR;
 80046d4:	2301      	movs	r3, #1
 80046d6:	e0cc      	b.n	8004872 <HAL_RCC_ClockConfig+0x1ae>
  /* To correctly read data from FLASH memory, the number of wait states (LATENCY)
    must be correctly programmed according to the frequency of the CPU clock
    (HCLK) and the supply voltage of the device. */

  /* Increasing the number of wait states because of higher CPU frequency */
  if (FLatency > __HAL_FLASH_GET_LATENCY())
 80046d8:	4b68      	ldr	r3, [pc, #416]	@ (800487c <HAL_RCC_ClockConfig+0x1b8>)
 80046da:	681b      	ldr	r3, [r3, #0]
 80046dc:	f003 030f 	and.w	r3, r3, #15
 80046e0:	683a      	ldr	r2, [r7, #0]
 80046e2:	429a      	cmp	r2, r3
 80046e4:	d90c      	bls.n	8004700 <HAL_RCC_ClockConfig+0x3c>
  {
    /* Program the new number of wait states to the LATENCY bits in the FLASH_ACR register */
    __HAL_FLASH_SET_LATENCY(FLatency);
 80046e6:	4b65      	ldr	r3, [pc, #404]	@ (800487c <HAL_RCC_ClockConfig+0x1b8>)
 80046e8:	683a      	ldr	r2, [r7, #0]
 80046ea:	b2d2      	uxtb	r2, r2
 80046ec:	701a      	strb	r2, [r3, #0]

    /* Check that the new number of wait states is taken into account to access the Flash
    memory by reading the FLASH_ACR register */
    if (__HAL_FLASH_GET_LATENCY() != FLatency)
 80046ee:	4b63      	ldr	r3, [pc, #396]	@ (800487c <HAL_RCC_ClockConfig+0x1b8>)
 80046f0:	681b      	ldr	r3, [r3, #0]
 80046f2:	f003 030f 	and.w	r3, r3, #15
 80046f6:	683a      	ldr	r2, [r7, #0]
 80046f8:	429a      	cmp	r2, r3
 80046fa:	d001      	beq.n	8004700 <HAL_RCC_ClockConfig+0x3c>
    {
      return HAL_ERROR;
 80046fc:	2301      	movs	r3, #1
 80046fe:	e0b8      	b.n	8004872 <HAL_RCC_ClockConfig+0x1ae>
    }
  }

  /*-------------------------- HCLK Configuration --------------------------*/
  if (((RCC_ClkInitStruct->ClockType) & RCC_CLOCKTYPE_HCLK) == RCC_CLOCKTYPE_HCLK)
 8004700:	687b      	ldr	r3, [r7, #4]
 8004702:	681b      	ldr	r3, [r3, #0]
 8004704:	f003 0302 	and.w	r3, r3, #2
 8004708:	2b00      	cmp	r3, #0
 800470a:	d020      	beq.n	800474e <HAL_RCC_ClockConfig+0x8a>
  {
    /* Set the highest APBx dividers in order to ensure that we do not go through
       a non-spec phase whatever we decrease or increase HCLK. */
    if (((RCC_ClkInitStruct->ClockType) & RCC_CLOCKTYPE_PCLK1) == RCC_CLOCKTYPE_PCLK1)
 800470c:	687b      	ldr	r3, [r7, #4]
 800470e:	681b      	ldr	r3, [r3, #0]
 8004710:	f003 0304 	and.w	r3, r3, #4
 8004714:	2b00      	cmp	r3, #0
 8004716:	d005      	beq.n	8004724 <HAL_RCC_ClockConfig+0x60>
    {
      MODIFY_REG(RCC->CFGR, RCC_CFGR_PPRE1, RCC_HCLK_DIV16);
 8004718:	4b59      	ldr	r3, [pc, #356]	@ (8004880 <HAL_RCC_ClockConfig+0x1bc>)
 800471a:	689b      	ldr	r3, [r3, #8]
 800471c:	4a58      	ldr	r2, [pc, #352]	@ (8004880 <HAL_RCC_ClockConfig+0x1bc>)
 800471e:	f443 53e0 	orr.w	r3, r3, #7168	@ 0x1c00
 8004722:	6093      	str	r3, [r2, #8]
    }

    if (((RCC_ClkInitStruct->ClockType) & RCC_CLOCKTYPE_PCLK2) == RCC_CLOCKTYPE_PCLK2)
 8004724:	687b      	ldr	r3, [r7, #4]
 8004726:	681b      	ldr	r3, [r3, #0]
 8004728:	f003 0308 	and.w	r3, r3, #8
 800472c:	2b00      	cmp	r3, #0
 800472e:	d005      	beq.n	800473c <HAL_RCC_ClockConfig+0x78>
    {
      MODIFY_REG(RCC->CFGR, RCC_CFGR_PPRE2, (RCC_HCLK_DIV16 << 3));
 8004730:	4b53      	ldr	r3, [pc, #332]	@ (8004880 <HAL_RCC_ClockConfig+0x1bc>)
 8004732:	689b      	ldr	r3, [r3, #8]
 8004734:	4a52      	ldr	r2, [pc, #328]	@ (8004880 <HAL_RCC_ClockConfig+0x1bc>)
 8004736:	f443 4360 	orr.w	r3, r3, #57344	@ 0xe000
 800473a:	6093      	str	r3, [r2, #8]
    }

    assert_param(IS_RCC_HCLK(RCC_ClkInitStruct->AHBCLKDivider));
    MODIFY_REG(RCC->CFGR, RCC_CFGR_HPRE, RCC_ClkInitStruct->AHBCLKDivider);
 800473c:	4b50      	ldr	r3, [pc, #320]	@ (8004880 <HAL_RCC_ClockConfig+0x1bc>)
 800473e:	689b      	ldr	r3, [r3, #8]
 8004740:	f023 02f0 	bic.w	r2, r3, #240	@ 0xf0
 8004744:	687b      	ldr	r3, [r7, #4]
 8004746:	689b      	ldr	r3, [r3, #8]
 8004748:	494d      	ldr	r1, [pc, #308]	@ (8004880 <HAL_RCC_ClockConfig+0x1bc>)
 800474a:	4313      	orrs	r3, r2
 800474c:	608b      	str	r3, [r1, #8]
  }

  /*------------------------- SYSCLK Configuration ---------------------------*/
  if (((RCC_ClkInitStruct->ClockType) & RCC_CLOCKTYPE_SYSCLK) == RCC_CLOCKTYPE_SYSCLK)
 800474e:	687b      	ldr	r3, [r7, #4]
 8004750:	681b      	ldr	r3, [r3, #0]
 8004752:	f003 0301 	and.w	r3, r3, #1
 8004756:	2b00      	cmp	r3, #0
 8004758:	d044      	beq.n	80047e4 <HAL_RCC_ClockConfig+0x120>
  {
    assert_param(IS_RCC_SYSCLKSOURCE(RCC_ClkInitStruct->SYSCLKSource));

    /* HSE is selected as System Clock Source */
    if (RCC_ClkInitStruct->SYSCLKSource == RCC_SYSCLKSOURCE_HSE)
 800475a:	687b      	ldr	r3, [r7, #4]
 800475c:	685b      	ldr	r3, [r3, #4]
 800475e:	2b01      	cmp	r3, #1
 8004760:	d107      	bne.n	8004772 <HAL_RCC_ClockConfig+0xae>
    {
      /* Check the HSE ready flag */
      if (__HAL_RCC_GET_FLAG(RCC_FLAG_HSERDY) == RESET)
 8004762:	4b47      	ldr	r3, [pc, #284]	@ (8004880 <HAL_RCC_ClockConfig+0x1bc>)
 8004764:	681b      	ldr	r3, [r3, #0]
 8004766:	f403 3300 	and.w	r3, r3, #131072	@ 0x20000
 800476a:	2b00      	cmp	r3, #0
 800476c:	d119      	bne.n	80047a2 <HAL_RCC_ClockConfig+0xde>
      {
        return HAL_ERROR;
 800476e:	2301      	movs	r3, #1
 8004770:	e07f      	b.n	8004872 <HAL_RCC_ClockConfig+0x1ae>
      }
    }
    /* PLL is selected as System Clock Source */
    else if ((RCC_ClkInitStruct->SYSCLKSource == RCC_SYSCLKSOURCE_PLLCLK)   ||
 8004772:	687b      	ldr	r3, [r7, #4]
 8004774:	685b      	ldr	r3, [r3, #4]
 8004776:	2b02      	cmp	r3, #2
 8004778:	d003      	beq.n	8004782 <HAL_RCC_ClockConfig+0xbe>
             (RCC_ClkInitStruct->SYSCLKSource == RCC_SYSCLKSOURCE_PLLRCLK))
 800477a:	687b      	ldr	r3, [r7, #4]
 800477c:	685b      	ldr	r3, [r3, #4]
    else if ((RCC_ClkInitStruct->SYSCLKSource == RCC_SYSCLKSOURCE_PLLCLK)   ||
 800477e:	2b03      	cmp	r3, #3
 8004780:	d107      	bne.n	8004792 <HAL_RCC_ClockConfig+0xce>
    {
      /* Check the PLL ready flag */
      if (__HAL_RCC_GET_FLAG(RCC_FLAG_PLLRDY) == RESET)
 8004782:	4b3f      	ldr	r3, [pc, #252]	@ (8004880 <HAL_RCC_ClockConfig+0x1bc>)
 8004784:	681b      	ldr	r3, [r3, #0]
 8004786:	f003 7300 	and.w	r3, r3, #33554432	@ 0x2000000
 800478a:	2b00      	cmp	r3, #0
 800478c:	d109      	bne.n	80047a2 <HAL_RCC_ClockConfig+0xde>
      {
        return HAL_ERROR;
 800478e:	2301      	movs	r3, #1
 8004790:	e06f      	b.n	8004872 <HAL_RCC_ClockConfig+0x1ae>
    }
    /* HSI is selected as System Clock Source */
    else
    {
      /* Check the HSI ready flag */
      if (__HAL_RCC_GET_FLAG(RCC_FLAG_HSIRDY) == RESET)
 8004792:	4b3b      	ldr	r3, [pc, #236]	@ (8004880 <HAL_RCC_ClockConfig+0x1bc>)
 8004794:	681b      	ldr	r3, [r3, #0]
 8004796:	f003 0302 	and.w	r3, r3, #2
 800479a:	2b00      	cmp	r3, #0
 800479c:	d101      	bne.n	80047a2 <HAL_RCC_ClockConfig+0xde>
      {
        return HAL_ERROR;
 800479e:	2301      	movs	r3, #1
 80047a0:	e067      	b.n	8004872 <HAL_RCC_ClockConfig+0x1ae>
      }
    }

    __HAL_RCC_SYSCLK_CONFIG(RCC_ClkInitStruct->SYSCLKSource);
 80047a2:	4b37      	ldr	r3, [pc, #220]	@ (8004880 <HAL_RCC_ClockConfig+0x1bc>)
 80047a4:	689b      	ldr	r3, [r3, #8]
 80047a6:	f023 0203 	bic.w	r2, r3, #3
 80047aa:	687b      	ldr	r3, [r7, #4]
 80047ac:	685b      	ldr	r3, [r3, #4]
 80047ae:	4934      	ldr	r1, [pc, #208]	@ (8004880 <HAL_RCC_ClockConfig+0x1bc>)
 80047b0:	4313      	orrs	r3, r2
 80047b2:	608b      	str	r3, [r1, #8]

    /* Get Start Tick */
    tickstart = HAL_GetTick();
 80047b4:	f7fd ffc0 	bl	8002738 <HAL_GetTick>
 80047b8:	60f8      	str	r0, [r7, #12]

    while (__HAL_RCC_GET_SYSCLK_SOURCE() != (RCC_ClkInitStruct->SYSCLKSource << RCC_CFGR_SWS_Pos))
 80047ba:	e00a      	b.n	80047d2 <HAL_RCC_ClockConfig+0x10e>
    {
      if ((HAL_GetTick() - tickstart) > CLOCKSWITCH_TIMEOUT_VALUE)
 80047bc:	f7fd ffbc 	bl	8002738 <HAL_GetTick>
 80047c0:	4602      	mov	r2, r0
 80047c2:	68fb      	ldr	r3, [r7, #12]
 80047c4:	1ad3      	subs	r3, r2, r3
 80047c6:	f241 3288 	movw	r2, #5000	@ 0x1388
 80047ca:	4293      	cmp	r3, r2
 80047cc:	d901      	bls.n	80047d2 <HAL_RCC_ClockConfig+0x10e>
      {
        return HAL_TIMEOUT;
 80047ce:	2303      	movs	r3, #3
 80047d0:	e04f      	b.n	8004872 <HAL_RCC_ClockConfig+0x1ae>
    while (__HAL_RCC_GET_SYSCLK_SOURCE() != (RCC_ClkInitStruct->SYSCLKSource << RCC_CFGR_SWS_Pos))
 80047d2:	4b2b      	ldr	r3, [pc, #172]	@ (8004880 <HAL_RCC_ClockConfig+0x1bc>)
 80047d4:	689b      	ldr	r3, [r3, #8]
 80047d6:	f003 020c 	and.w	r2, r3, #12
 80047da:	687b      	ldr	r3, [r7, #4]
 80047dc:	685b      	ldr	r3, [r3, #4]
 80047de:	009b      	lsls	r3, r3, #2
 80047e0:	429a      	cmp	r2, r3
 80047e2:	d1eb      	bne.n	80047bc <HAL_RCC_ClockConfig+0xf8>
      }
    }
  }

  /* Decreasing the number of wait states because of lower CPU frequency */
  if (FLatency < __HAL_FLASH_GET_LATENCY())
 80047e4:	4b25      	ldr	r3, [pc, #148]	@ (800487c <HAL_RCC_ClockConfig+0x1b8>)
 80047e6:	681b      	ldr	r3, [r3, #0]
 80047e8:	f003 030f 	and.w	r3, r3, #15
 80047ec:	683a      	ldr	r2, [r7, #0]
 80047ee:	429a      	cmp	r2, r3
 80047f0:	d20c      	bcs.n	800480c <HAL_RCC_ClockConfig+0x148>
  {
    /* Program the new number of wait states to the LATENCY bits in the FLASH_ACR register */
    __HAL_FLASH_SET_LATENCY(FLatency);
 80047f2:	4b22      	ldr	r3, [pc, #136]	@ (800487c <HAL_RCC_ClockConfig+0x1b8>)
 80047f4:	683a      	ldr	r2, [r7, #0]
 80047f6:	b2d2      	uxtb	r2, r2
 80047f8:	701a      	strb	r2, [r3, #0]

    /* Check that the new number of wait states is taken into account to access the Flash
    memory by reading the FLASH_ACR register */
    if (__HAL_FLASH_GET_LATENCY() != FLatency)
 80047fa:	4b20      	ldr	r3, [pc, #128]	@ (800487c <HAL_RCC_ClockConfig+0x1b8>)
 80047fc:	681b      	ldr	r3, [r3, #0]
 80047fe:	f003 030f 	and.w	r3, r3, #15
 8004802:	683a      	ldr	r2, [r7, #0]
 8004804:	429a      	cmp	r2, r3
 8004806:	d001      	beq.n	800480c <HAL_RCC_ClockConfig+0x148>
    {
      return HAL_ERROR;
 8004808:	2301      	movs	r3, #1
 800480a:	e032      	b.n	8004872 <HAL_RCC_ClockConfig+0x1ae>
    }
  }

  /*-------------------------- PCLK1 Configuration ---------------------------*/
  if (((RCC_ClkInitStruct->ClockType) & RCC_CLOCKTYPE_PCLK1) == RCC_CLOCKTYPE_PCLK1)
 800480c:	687b      	ldr	r3, [r7, #4]
 800480e:	681b      	ldr	r3, [r3, #0]
 8004810:	f003 0304 	and.w	r3, r3, #4
 8004814:	2b00      	cmp	r3, #0
 8004816:	d008      	beq.n	800482a <HAL_RCC_ClockConfig+0x166>
  {
    assert_param(IS_RCC_PCLK(RCC_ClkInitStruct->APB1CLKDivider));
    MODIFY_REG(RCC->CFGR, RCC_CFGR_PPRE1, RCC_ClkInitStruct->APB1CLKDivider);
 8004818:	4b19      	ldr	r3, [pc, #100]	@ (8004880 <HAL_RCC_ClockConfig+0x1bc>)
 800481a:	689b      	ldr	r3, [r3, #8]
 800481c:	f423 52e0 	bic.w	r2, r3, #7168	@ 0x1c00
 8004820:	687b      	ldr	r3, [r7, #4]
 8004822:	68db      	ldr	r3, [r3, #12]
 8004824:	4916      	ldr	r1, [pc, #88]	@ (8004880 <HAL_RCC_ClockConfig+0x1bc>)
 8004826:	4313      	orrs	r3, r2
 8004828:	608b      	str	r3, [r1, #8]
  }

  /*-------------------------- PCLK2 Configuration ---------------------------*/
  if (((RCC_ClkInitStruct->ClockType) & RCC_CLOCKTYPE_PCLK2) == RCC_CLOCKTYPE_PCLK2)
 800482a:	687b      	ldr	r3, [r7, #4]
 800482c:	681b      	ldr	r3, [r3, #0]
 800482e:	f003 0308 	and.w	r3, r3, #8
 8004832:	2b00      	cmp	r3, #0
 8004834:	d009      	beq.n	800484a <HAL_RCC_ClockConfig+0x186>
  {
    assert_param(IS_RCC_PCLK(RCC_ClkInitStruct->APB2CLKDivider));
    MODIFY_REG(RCC->CFGR, RCC_CFGR_PPRE2, ((RCC_ClkInitStruct->APB2CLKDivider) << 3U));
 8004836:	4b12      	ldr	r3, [pc, #72]	@ (8004880 <HAL_RCC_ClockConfig+0x1bc>)
 8004838:	689b      	ldr	r3, [r3, #8]
 800483a:	f423 4260 	bic.w	r2, r3, #57344	@ 0xe000
 800483e:	687b      	ldr	r3, [r7, #4]
 8004840:	691b      	ldr	r3, [r3, #16]
 8004842:	00db      	lsls	r3, r3, #3
 8004844:	490e      	ldr	r1, [pc, #56]	@ (8004880 <HAL_RCC_ClockConfig+0x1bc>)
 8004846:	4313      	orrs	r3, r2
 8004848:	608b      	str	r3, [r1, #8]
  }

  /* Update the SystemCoreClock global variable */
  SystemCoreClock = HAL_RCC_GetSysClockFreq() >> AHBPrescTable[(RCC->CFGR & RCC_CFGR_HPRE) >> RCC_CFGR_HPRE_Pos];
 800484a:	f000 f855 	bl	80048f8 <HAL_RCC_GetSysClockFreq>
 800484e:	4602      	mov	r2, r0
 8004850:	4b0b      	ldr	r3, [pc, #44]	@ (8004880 <HAL_RCC_ClockConfig+0x1bc>)
 8004852:	689b      	ldr	r3, [r3, #8]
 8004854:	091b      	lsrs	r3, r3, #4
 8004856:	f003 030f 	and.w	r3, r3, #15
 800485a:	490a      	ldr	r1, [pc, #40]	@ (8004884 <HAL_RCC_ClockConfig+0x1c0>)
 800485c:	5ccb      	ldrb	r3, [r1, r3]
 800485e:	fa22 f303 	lsr.w	r3, r2, r3
 8004862:	4a09      	ldr	r2, [pc, #36]	@ (8004888 <HAL_RCC_ClockConfig+0x1c4>)
 8004864:	6013      	str	r3, [r2, #0]

  /* Configure the source of time base considering new system clocks settings */
  HAL_InitTick(uwTickPrio);
 8004866:	4b09      	ldr	r3, [pc, #36]	@ (800488c <HAL_RCC_ClockConfig+0x1c8>)
 8004868:	681b      	ldr	r3, [r3, #0]
 800486a:	4618      	mov	r0, r3
 800486c:	f7fd ff20 	bl	80026b0 <HAL_InitTick>

  return HAL_OK;
 8004870:	2300      	movs	r3, #0
}
 8004872:	4618      	mov	r0, r3
 8004874:	3710      	adds	r7, #16
 8004876:	46bd      	mov	sp, r7
 8004878:	bd80      	pop	{r7, pc}
 800487a:	bf00      	nop
 800487c:	40023c00 	.word	0x40023c00
 8004880:	40023800 	.word	0x40023800
 8004884:	080088c8 	.word	0x080088c8
 8004888:	20000000 	.word	0x20000000
 800488c:	20000004 	.word	0x20000004

08004890 <HAL_RCC_GetHCLKFreq>:
  * @note   The SystemCoreClock CMSIS variable is used to store System Clock Frequency
  *         and updated within this function
  * @retval HCLK frequency
  */
uint32_t HAL_RCC_GetHCLKFreq(void)
{
 8004890:	b480      	push	{r7}
 8004892:	af00      	add	r7, sp, #0
  return SystemCoreClock;
 8004894:	4b03      	ldr	r3, [pc, #12]	@ (80048a4 <HAL_RCC_GetHCLKFreq+0x14>)
 8004896:	681b      	ldr	r3, [r3, #0]
}
 8004898:	4618      	mov	r0, r3
 800489a:	46bd      	mov	sp, r7
 800489c:	f85d 7b04 	ldr.w	r7, [sp], #4
 80048a0:	4770      	bx	lr
 80048a2:	bf00      	nop
 80048a4:	20000000 	.word	0x20000000

080048a8 <HAL_RCC_GetPCLK1Freq>:
  * @note   Each time PCLK1 changes, this function must be called to update the
  *         right PCLK1 value. Otherwise, any configuration based on this function will be incorrect.
  * @retval PCLK1 frequency
  */
uint32_t HAL_RCC_GetPCLK1Freq(void)
{
 80048a8:	b580      	push	{r7, lr}
 80048aa:	af00      	add	r7, sp, #0
  /* Get HCLK source and Compute PCLK1 frequency ---------------------------*/
  return (HAL_RCC_GetHCLKFreq() >> APBPrescTable[(RCC->CFGR & RCC_CFGR_PPRE1) >> RCC_CFGR_PPRE1_Pos]);
 80048ac:	f7ff fff0 	bl	8004890 <HAL_RCC_GetHCLKFreq>
 80048b0:	4602      	mov	r2, r0
 80048b2:	4b05      	ldr	r3, [pc, #20]	@ (80048c8 <HAL_RCC_GetPCLK1Freq+0x20>)
 80048b4:	689b      	ldr	r3, [r3, #8]
 80048b6:	0a9b      	lsrs	r3, r3, #10
 80048b8:	f003 0307 	and.w	r3, r3, #7
 80048bc:	4903      	ldr	r1, [pc, #12]	@ (80048cc <HAL_RCC_GetPCLK1Freq+0x24>)
 80048be:	5ccb      	ldrb	r3, [r1, r3]
 80048c0:	fa22 f303 	lsr.w	r3, r2, r3
}
 80048c4:	4618      	mov	r0, r3
 80048c6:	bd80      	pop	{r7, pc}
 80048c8:	40023800 	.word	0x40023800
 80048cc:	080088d8 	.word	0x080088d8

080048d0 <HAL_RCC_GetPCLK2Freq>:
  * @note   Each time PCLK2 changes, this function must be called to update the
  *         right PCLK2 value. Otherwise, any configuration based on this function will be incorrect.
  * @retval PCLK2 frequency
  */
uint32_t HAL_RCC_GetPCLK2Freq(void)
{
 80048d0:	b580      	push	{r7, lr}
 80048d2:	af00      	add	r7, sp, #0
  /* Get HCLK source and Compute PCLK2 frequency ---------------------------*/
  return (HAL_RCC_GetHCLKFreq() >> APBPrescTable[(RCC->CFGR & RCC_CFGR_PPRE2) >> RCC_CFGR_PPRE2_Pos]);
 80048d4:	f7ff ffdc 	bl	8004890 <HAL_RCC_GetHCLKFreq>
 80048d8:	4602      	mov	r2, r0
 80048da:	4b05      	ldr	r3, [pc, #20]	@ (80048f0 <HAL_RCC_GetPCLK2Freq+0x20>)
 80048dc:	689b      	ldr	r3, [r3, #8]
 80048de:	0b5b      	lsrs	r3, r3, #13
 80048e0:	f003 0307 	and.w	r3, r3, #7
 80048e4:	4903      	ldr	r1, [pc, #12]	@ (80048f4 <HAL_RCC_GetPCLK2Freq+0x24>)
 80048e6:	5ccb      	ldrb	r3, [r1, r3]
 80048e8:	fa22 f303 	lsr.w	r3, r2, r3
}
 80048ec:	4618      	mov	r0, r3
 80048ee:	bd80      	pop	{r7, pc}
 80048f0:	40023800 	.word	0x40023800
 80048f4:	080088d8 	.word	0x080088d8

080048f8 <HAL_RCC_GetSysClockFreq>:
  *
  *
  * @retval SYSCLK frequency
  */
uint32_t HAL_RCC_GetSysClockFreq(void)
{
 80048f8:	e92d 4fb0 	stmdb	sp!, {r4, r5, r7, r8, r9, sl, fp, lr}
 80048fc:	b0ae      	sub	sp, #184	@ 0xb8
 80048fe:	af00      	add	r7, sp, #0
  uint32_t pllm = 0U;
 8004900:	2300      	movs	r3, #0
 8004902:	f8c7 30ac 	str.w	r3, [r7, #172]	@ 0xac
  uint32_t pllvco = 0U;
 8004906:	2300      	movs	r3, #0
 8004908:	f8c7 30b4 	str.w	r3, [r7, #180]	@ 0xb4
  uint32_t pllp = 0U;
 800490c:	2300      	movs	r3, #0
 800490e:	f8c7 30a8 	str.w	r3, [r7, #168]	@ 0xa8
  uint32_t pllr = 0U;
 8004912:	2300      	movs	r3, #0
 8004914:	f8c7 30a4 	str.w	r3, [r7, #164]	@ 0xa4
  uint32_t sysclockfreq = 0U;
 8004918:	2300      	movs	r3, #0
 800491a:	f8c7 30b0 	str.w	r3, [r7, #176]	@ 0xb0

  /* Get SYSCLK source -------------------------------------------------------*/
  switch (RCC->CFGR & RCC_CFGR_SWS)
 800491e:	4bcb      	ldr	r3, [pc, #812]	@ (8004c4c <HAL_RCC_GetSysClockFreq+0x354>)
 8004920:	689b      	ldr	r3, [r3, #8]
 8004922:	f003 030c 	and.w	r3, r3, #12
 8004926:	2b0c      	cmp	r3, #12
 8004928:	f200 8206 	bhi.w	8004d38 <HAL_RCC_GetSysClockFreq+0x440>
 800492c:	a201      	add	r2, pc, #4	@ (adr r2, 8004934 <HAL_RCC_GetSysClockFreq+0x3c>)
 800492e:	f852 f023 	ldr.w	pc, [r2, r3, lsl #2]
 8004932:	bf00      	nop
 8004934:	08004969 	.word	0x08004969
 8004938:	08004d39 	.word	0x08004d39
 800493c:	08004d39 	.word	0x08004d39
 8004940:	08004d39 	.word	0x08004d39
 8004944:	08004971 	.word	0x08004971
 8004948:	08004d39 	.word	0x08004d39
 800494c:	08004d39 	.word	0x08004d39
 8004950:	08004d39 	.word	0x08004d39
 8004954:	08004979 	.word	0x08004979
 8004958:	08004d39 	.word	0x08004d39
 800495c:	08004d39 	.word	0x08004d39
 8004960:	08004d39 	.word	0x08004d39
 8004964:	08004b69 	.word	0x08004b69
  {
    case RCC_CFGR_SWS_HSI:  /* HSI used as system clock source */
    {
      sysclockfreq = HSI_VALUE;
 8004968:	4bb9      	ldr	r3, [pc, #740]	@ (8004c50 <HAL_RCC_GetSysClockFreq+0x358>)
 800496a:	f8c7 30b0 	str.w	r3, [r7, #176]	@ 0xb0
      break;
 800496e:	e1e7      	b.n	8004d40 <HAL_RCC_GetSysClockFreq+0x448>
    }
    case RCC_CFGR_SWS_HSE:  /* HSE used as system clock  source */
    {
      sysclockfreq = HSE_VALUE;
 8004970:	4bb8      	ldr	r3, [pc, #736]	@ (8004c54 <HAL_RCC_GetSysClockFreq+0x35c>)
 8004972:	f8c7 30b0 	str.w	r3, [r7, #176]	@ 0xb0
      break;
 8004976:	e1e3      	b.n	8004d40 <HAL_RCC_GetSysClockFreq+0x448>
    }
    case RCC_CFGR_SWS_PLL:  /* PLL/PLLP used as system clock  source */
    {
      /* PLL_VCO = (HSE_VALUE or HSI_VALUE / PLLM) * PLLN
      SYSCLK = PLL_VCO / PLLP */
      pllm = RCC->PLLCFGR & RCC_PLLCFGR_PLLM;
 8004978:	4bb4      	ldr	r3, [pc, #720]	@ (8004c4c <HAL_RCC_GetSysClockFreq+0x354>)
 800497a:	685b      	ldr	r3, [r3, #4]
 800497c:	f003 033f 	and.w	r3, r3, #63	@ 0x3f
 8004980:	f8c7 30ac 	str.w	r3, [r7, #172]	@ 0xac
      if (__HAL_RCC_GET_PLL_OSCSOURCE() != RCC_PLLSOURCE_HSI)
 8004984:	4bb1      	ldr	r3, [pc, #708]	@ (8004c4c <HAL_RCC_GetSysClockFreq+0x354>)
 8004986:	685b      	ldr	r3, [r3, #4]
 8004988:	f403 0380 	and.w	r3, r3, #4194304	@ 0x400000
 800498c:	2b00      	cmp	r3, #0
 800498e:	d071      	beq.n	8004a74 <HAL_RCC_GetSysClockFreq+0x17c>
      {
        /* HSE used as PLL clock source */
        pllvco = (uint32_t)((((uint64_t) HSE_VALUE * ((uint64_t)((RCC->PLLCFGR & RCC_PLLCFGR_PLLN) >> RCC_PLLCFGR_PLLN_Pos)))) / (uint64_t)pllm);
 8004990:	4bae      	ldr	r3, [pc, #696]	@ (8004c4c <HAL_RCC_GetSysClockFreq+0x354>)
 8004992:	685b      	ldr	r3, [r3, #4]
 8004994:	099b      	lsrs	r3, r3, #6
 8004996:	2200      	movs	r2, #0
 8004998:	f8c7 3098 	str.w	r3, [r7, #152]	@ 0x98
 800499c:	f8c7 209c 	str.w	r2, [r7, #156]	@ 0x9c
 80049a0:	f8d7 3098 	ldr.w	r3, [r7, #152]	@ 0x98
 80049a4:	f3c3 0308 	ubfx	r3, r3, #0, #9
 80049a8:	f8c7 3090 	str.w	r3, [r7, #144]	@ 0x90
 80049ac:	2300      	movs	r3, #0
 80049ae:	f8c7 3094 	str.w	r3, [r7, #148]	@ 0x94
 80049b2:	e9d7 4524 	ldrd	r4, r5, [r7, #144]	@ 0x90
 80049b6:	4622      	mov	r2, r4
 80049b8:	462b      	mov	r3, r5
 80049ba:	f04f 0000 	mov.w	r0, #0
 80049be:	f04f 0100 	mov.w	r1, #0
 80049c2:	0159      	lsls	r1, r3, #5
 80049c4:	ea41 61d2 	orr.w	r1, r1, r2, lsr #27
 80049c8:	0150      	lsls	r0, r2, #5
 80049ca:	4602      	mov	r2, r0
 80049cc:	460b      	mov	r3, r1
 80049ce:	4621      	mov	r1, r4
 80049d0:	1a51      	subs	r1, r2, r1
 80049d2:	6439      	str	r1, [r7, #64]	@ 0x40
 80049d4:	4629      	mov	r1, r5
 80049d6:	eb63 0301 	sbc.w	r3, r3, r1
 80049da:	647b      	str	r3, [r7, #68]	@ 0x44
 80049dc:	f04f 0200 	mov.w	r2, #0
 80049e0:	f04f 0300 	mov.w	r3, #0
 80049e4:	e9d7 8910 	ldrd	r8, r9, [r7, #64]	@ 0x40
 80049e8:	4649      	mov	r1, r9
 80049ea:	018b      	lsls	r3, r1, #6
 80049ec:	4641      	mov	r1, r8
 80049ee:	ea43 6391 	orr.w	r3, r3, r1, lsr #26
 80049f2:	4641      	mov	r1, r8
 80049f4:	018a      	lsls	r2, r1, #6
 80049f6:	4641      	mov	r1, r8
 80049f8:	1a51      	subs	r1, r2, r1
 80049fa:	63b9      	str	r1, [r7, #56]	@ 0x38
 80049fc:	4649      	mov	r1, r9
 80049fe:	eb63 0301 	sbc.w	r3, r3, r1
 8004a02:	63fb      	str	r3, [r7, #60]	@ 0x3c
 8004a04:	f04f 0200 	mov.w	r2, #0
 8004a08:	f04f 0300 	mov.w	r3, #0
 8004a0c:	e9d7 890e 	ldrd	r8, r9, [r7, #56]	@ 0x38
 8004a10:	4649      	mov	r1, r9
 8004a12:	00cb      	lsls	r3, r1, #3
 8004a14:	4641      	mov	r1, r8
 8004a16:	ea43 7351 	orr.w	r3, r3, r1, lsr #29
 8004a1a:	4641      	mov	r1, r8
 8004a1c:	00ca      	lsls	r2, r1, #3
 8004a1e:	4610      	mov	r0, r2
 8004a20:	4619      	mov	r1, r3
 8004a22:	4603      	mov	r3, r0
 8004a24:	4622      	mov	r2, r4
 8004a26:	189b      	adds	r3, r3, r2
 8004a28:	633b      	str	r3, [r7, #48]	@ 0x30
 8004a2a:	462b      	mov	r3, r5
 8004a2c:	460a      	mov	r2, r1
 8004a2e:	eb42 0303 	adc.w	r3, r2, r3
 8004a32:	637b      	str	r3, [r7, #52]	@ 0x34
 8004a34:	f04f 0200 	mov.w	r2, #0
 8004a38:	f04f 0300 	mov.w	r3, #0
 8004a3c:	e9d7 450c 	ldrd	r4, r5, [r7, #48]	@ 0x30
 8004a40:	4629      	mov	r1, r5
 8004a42:	024b      	lsls	r3, r1, #9
 8004a44:	4621      	mov	r1, r4
 8004a46:	ea43 53d1 	orr.w	r3, r3, r1, lsr #23
 8004a4a:	4621      	mov	r1, r4
 8004a4c:	024a      	lsls	r2, r1, #9
 8004a4e:	4610      	mov	r0, r2
 8004a50:	4619      	mov	r1, r3
 8004a52:	f8d7 30ac 	ldr.w	r3, [r7, #172]	@ 0xac
 8004a56:	2200      	movs	r2, #0
 8004a58:	f8c7 3088 	str.w	r3, [r7, #136]	@ 0x88
 8004a5c:	f8c7 208c 	str.w	r2, [r7, #140]	@ 0x8c
 8004a60:	e9d7 2322 	ldrd	r2, r3, [r7, #136]	@ 0x88
 8004a64:	f7fc f910 	bl	8000c88 <__aeabi_uldivmod>
 8004a68:	4602      	mov	r2, r0
 8004a6a:	460b      	mov	r3, r1
 8004a6c:	4613      	mov	r3, r2
 8004a6e:	f8c7 30b4 	str.w	r3, [r7, #180]	@ 0xb4
 8004a72:	e067      	b.n	8004b44 <HAL_RCC_GetSysClockFreq+0x24c>
      }
      else
      {
        /* HSI used as PLL clock source */
        pllvco = (uint32_t)((((uint64_t) HSI_VALUE * ((uint64_t)((RCC->PLLCFGR & RCC_PLLCFGR_PLLN) >> RCC_PLLCFGR_PLLN_Pos)))) / (uint64_t)pllm);
 8004a74:	4b75      	ldr	r3, [pc, #468]	@ (8004c4c <HAL_RCC_GetSysClockFreq+0x354>)
 8004a76:	685b      	ldr	r3, [r3, #4]
 8004a78:	099b      	lsrs	r3, r3, #6
 8004a7a:	2200      	movs	r2, #0
 8004a7c:	f8c7 3080 	str.w	r3, [r7, #128]	@ 0x80
 8004a80:	f8c7 2084 	str.w	r2, [r7, #132]	@ 0x84
 8004a84:	f8d7 3080 	ldr.w	r3, [r7, #128]	@ 0x80
 8004a88:	f3c3 0308 	ubfx	r3, r3, #0, #9
 8004a8c:	67bb      	str	r3, [r7, #120]	@ 0x78
 8004a8e:	2300      	movs	r3, #0
 8004a90:	67fb      	str	r3, [r7, #124]	@ 0x7c
 8004a92:	e9d7 451e 	ldrd	r4, r5, [r7, #120]	@ 0x78
 8004a96:	4622      	mov	r2, r4
 8004a98:	462b      	mov	r3, r5
 8004a9a:	f04f 0000 	mov.w	r0, #0
 8004a9e:	f04f 0100 	mov.w	r1, #0
 8004aa2:	0159      	lsls	r1, r3, #5
 8004aa4:	ea41 61d2 	orr.w	r1, r1, r2, lsr #27
 8004aa8:	0150      	lsls	r0, r2, #5
 8004aaa:	4602      	mov	r2, r0
 8004aac:	460b      	mov	r3, r1
 8004aae:	4621      	mov	r1, r4
 8004ab0:	1a51      	subs	r1, r2, r1
 8004ab2:	62b9      	str	r1, [r7, #40]	@ 0x28
 8004ab4:	4629      	mov	r1, r5
 8004ab6:	eb63 0301 	sbc.w	r3, r3, r1
 8004aba:	62fb      	str	r3, [r7, #44]	@ 0x2c
 8004abc:	f04f 0200 	mov.w	r2, #0
 8004ac0:	f04f 0300 	mov.w	r3, #0
 8004ac4:	e9d7 890a 	ldrd	r8, r9, [r7, #40]	@ 0x28
 8004ac8:	4649      	mov	r1, r9
 8004aca:	018b      	lsls	r3, r1, #6
 8004acc:	4641      	mov	r1, r8
 8004ace:	ea43 6391 	orr.w	r3, r3, r1, lsr #26
 8004ad2:	4641      	mov	r1, r8
 8004ad4:	018a      	lsls	r2, r1, #6
 8004ad6:	4641      	mov	r1, r8
 8004ad8:	ebb2 0a01 	subs.w	sl, r2, r1
 8004adc:	4649      	mov	r1, r9
 8004ade:	eb63 0b01 	sbc.w	fp, r3, r1
 8004ae2:	f04f 0200 	mov.w	r2, #0
 8004ae6:	f04f 0300 	mov.w	r3, #0
 8004aea:	ea4f 03cb 	mov.w	r3, fp, lsl #3
 8004aee:	ea43 735a 	orr.w	r3, r3, sl, lsr #29
 8004af2:	ea4f 02ca 	mov.w	r2, sl, lsl #3
 8004af6:	4692      	mov	sl, r2
 8004af8:	469b      	mov	fp, r3
 8004afa:	4623      	mov	r3, r4
 8004afc:	eb1a 0303 	adds.w	r3, sl, r3
 8004b00:	623b      	str	r3, [r7, #32]
 8004b02:	462b      	mov	r3, r5
 8004b04:	eb4b 0303 	adc.w	r3, fp, r3
 8004b08:	627b      	str	r3, [r7, #36]	@ 0x24
 8004b0a:	f04f 0200 	mov.w	r2, #0
 8004b0e:	f04f 0300 	mov.w	r3, #0
 8004b12:	e9d7 4508 	ldrd	r4, r5, [r7, #32]
 8004b16:	4629      	mov	r1, r5
 8004b18:	028b      	lsls	r3, r1, #10
 8004b1a:	4621      	mov	r1, r4
 8004b1c:	ea43 5391 	orr.w	r3, r3, r1, lsr #22
 8004b20:	4621      	mov	r1, r4
 8004b22:	028a      	lsls	r2, r1, #10
 8004b24:	4610      	mov	r0, r2
 8004b26:	4619      	mov	r1, r3
 8004b28:	f8d7 30ac 	ldr.w	r3, [r7, #172]	@ 0xac
 8004b2c:	2200      	movs	r2, #0
 8004b2e:	673b      	str	r3, [r7, #112]	@ 0x70
 8004b30:	677a      	str	r2, [r7, #116]	@ 0x74
 8004b32:	e9d7 231c 	ldrd	r2, r3, [r7, #112]	@ 0x70
 8004b36:	f7fc f8a7 	bl	8000c88 <__aeabi_uldivmod>
 8004b3a:	4602      	mov	r2, r0
 8004b3c:	460b      	mov	r3, r1
 8004b3e:	4613      	mov	r3, r2
 8004b40:	f8c7 30b4 	str.w	r3, [r7, #180]	@ 0xb4
      }
      pllp = ((((RCC->PLLCFGR & RCC_PLLCFGR_PLLP) >> RCC_PLLCFGR_PLLP_Pos) + 1U) * 2U);
 8004b44:	4b41      	ldr	r3, [pc, #260]	@ (8004c4c <HAL_RCC_GetSysClockFreq+0x354>)
 8004b46:	685b      	ldr	r3, [r3, #4]
 8004b48:	0c1b      	lsrs	r3, r3, #16
 8004b4a:	f003 0303 	and.w	r3, r3, #3
 8004b4e:	3301      	adds	r3, #1
 8004b50:	005b      	lsls	r3, r3, #1
 8004b52:	f8c7 30a8 	str.w	r3, [r7, #168]	@ 0xa8

      sysclockfreq = pllvco / pllp;
 8004b56:	f8d7 20b4 	ldr.w	r2, [r7, #180]	@ 0xb4
 8004b5a:	f8d7 30a8 	ldr.w	r3, [r7, #168]	@ 0xa8
 8004b5e:	fbb2 f3f3 	udiv	r3, r2, r3
 8004b62:	f8c7 30b0 	str.w	r3, [r7, #176]	@ 0xb0
      break;
 8004b66:	e0eb      	b.n	8004d40 <HAL_RCC_GetSysClockFreq+0x448>
    }
    case RCC_CFGR_SWS_PLLR:  /* PLL/PLLR used as system clock  source */
    {
      /* PLL_VCO = (HSE_VALUE or HSI_VALUE / PLLM) * PLLN
      SYSCLK = PLL_VCO / PLLR */
      pllm = RCC->PLLCFGR & RCC_PLLCFGR_PLLM;
 8004b68:	4b38      	ldr	r3, [pc, #224]	@ (8004c4c <HAL_RCC_GetSysClockFreq+0x354>)
 8004b6a:	685b      	ldr	r3, [r3, #4]
 8004b6c:	f003 033f 	and.w	r3, r3, #63	@ 0x3f
 8004b70:	f8c7 30ac 	str.w	r3, [r7, #172]	@ 0xac
      if (__HAL_RCC_GET_PLL_OSCSOURCE() != RCC_PLLSOURCE_HSI)
 8004b74:	4b35      	ldr	r3, [pc, #212]	@ (8004c4c <HAL_RCC_GetSysClockFreq+0x354>)
 8004b76:	685b      	ldr	r3, [r3, #4]
 8004b78:	f403 0380 	and.w	r3, r3, #4194304	@ 0x400000
 8004b7c:	2b00      	cmp	r3, #0
 8004b7e:	d06b      	beq.n	8004c58 <HAL_RCC_GetSysClockFreq+0x360>
      {
        /* HSE used as PLL clock source */
        pllvco = (uint32_t)((((uint64_t) HSE_VALUE * ((uint64_t)((RCC->PLLCFGR & RCC_PLLCFGR_PLLN) >> RCC_PLLCFGR_PLLN_Pos)))) / (uint64_t)pllm);
 8004b80:	4b32      	ldr	r3, [pc, #200]	@ (8004c4c <HAL_RCC_GetSysClockFreq+0x354>)
 8004b82:	685b      	ldr	r3, [r3, #4]
 8004b84:	099b      	lsrs	r3, r3, #6
 8004b86:	2200      	movs	r2, #0
 8004b88:	66bb      	str	r3, [r7, #104]	@ 0x68
 8004b8a:	66fa      	str	r2, [r7, #108]	@ 0x6c
 8004b8c:	6ebb      	ldr	r3, [r7, #104]	@ 0x68
 8004b8e:	f3c3 0308 	ubfx	r3, r3, #0, #9
 8004b92:	663b      	str	r3, [r7, #96]	@ 0x60
 8004b94:	2300      	movs	r3, #0
 8004b96:	667b      	str	r3, [r7, #100]	@ 0x64
 8004b98:	e9d7 4518 	ldrd	r4, r5, [r7, #96]	@ 0x60
 8004b9c:	4622      	mov	r2, r4
 8004b9e:	462b      	mov	r3, r5
 8004ba0:	f04f 0000 	mov.w	r0, #0
 8004ba4:	f04f 0100 	mov.w	r1, #0
 8004ba8:	0159      	lsls	r1, r3, #5
 8004baa:	ea41 61d2 	orr.w	r1, r1, r2, lsr #27
 8004bae:	0150      	lsls	r0, r2, #5
 8004bb0:	4602      	mov	r2, r0
 8004bb2:	460b      	mov	r3, r1
 8004bb4:	4621      	mov	r1, r4
 8004bb6:	1a51      	subs	r1, r2, r1
 8004bb8:	61b9      	str	r1, [r7, #24]
 8004bba:	4629      	mov	r1, r5
 8004bbc:	eb63 0301 	sbc.w	r3, r3, r1
 8004bc0:	61fb      	str	r3, [r7, #28]
 8004bc2:	f04f 0200 	mov.w	r2, #0
 8004bc6:	f04f 0300 	mov.w	r3, #0
 8004bca:	e9d7 ab06 	ldrd	sl, fp, [r7, #24]
 8004bce:	4659      	mov	r1, fp
 8004bd0:	018b      	lsls	r3, r1, #6
 8004bd2:	4651      	mov	r1, sl
 8004bd4:	ea43 6391 	orr.w	r3, r3, r1, lsr #26
 8004bd8:	4651      	mov	r1, sl
 8004bda:	018a      	lsls	r2, r1, #6
 8004bdc:	4651      	mov	r1, sl
 8004bde:	ebb2 0801 	subs.w	r8, r2, r1
 8004be2:	4659      	mov	r1, fp
 8004be4:	eb63 0901 	sbc.w	r9, r3, r1
 8004be8:	f04f 0200 	mov.w	r2, #0
 8004bec:	f04f 0300 	mov.w	r3, #0
 8004bf0:	ea4f 03c9 	mov.w	r3, r9, lsl #3
 8004bf4:	ea43 7358 	orr.w	r3, r3, r8, lsr #29
 8004bf8:	ea4f 02c8 	mov.w	r2, r8, lsl #3
 8004bfc:	4690      	mov	r8, r2
 8004bfe:	4699      	mov	r9, r3
 8004c00:	4623      	mov	r3, r4
 8004c02:	eb18 0303 	adds.w	r3, r8, r3
 8004c06:	613b      	str	r3, [r7, #16]
 8004c08:	462b      	mov	r3, r5
 8004c0a:	eb49 0303 	adc.w	r3, r9, r3
 8004c0e:	617b      	str	r3, [r7, #20]
 8004c10:	f04f 0200 	mov.w	r2, #0
 8004c14:	f04f 0300 	mov.w	r3, #0
 8004c18:	e9d7 4504 	ldrd	r4, r5, [r7, #16]
 8004c1c:	4629      	mov	r1, r5
 8004c1e:	024b      	lsls	r3, r1, #9
 8004c20:	4621      	mov	r1, r4
 8004c22:	ea43 53d1 	orr.w	r3, r3, r1, lsr #23
 8004c26:	4621      	mov	r1, r4
 8004c28:	024a      	lsls	r2, r1, #9
 8004c2a:	4610      	mov	r0, r2
 8004c2c:	4619      	mov	r1, r3
 8004c2e:	f8d7 30ac 	ldr.w	r3, [r7, #172]	@ 0xac
 8004c32:	2200      	movs	r2, #0
 8004c34:	65bb      	str	r3, [r7, #88]	@ 0x58
 8004c36:	65fa      	str	r2, [r7, #92]	@ 0x5c
 8004c38:	e9d7 2316 	ldrd	r2, r3, [r7, #88]	@ 0x58
 8004c3c:	f7fc f824 	bl	8000c88 <__aeabi_uldivmod>
 8004c40:	4602      	mov	r2, r0
 8004c42:	460b      	mov	r3, r1
 8004c44:	4613      	mov	r3, r2
 8004c46:	f8c7 30b4 	str.w	r3, [r7, #180]	@ 0xb4
 8004c4a:	e065      	b.n	8004d18 <HAL_RCC_GetSysClockFreq+0x420>
 8004c4c:	40023800 	.word	0x40023800
 8004c50:	00f42400 	.word	0x00f42400
 8004c54:	007a1200 	.word	0x007a1200
      }
      else
      {
        /* HSI used as PLL clock source */
        pllvco = (uint32_t)((((uint64_t) HSI_VALUE * ((uint64_t)((RCC->PLLCFGR & RCC_PLLCFGR_PLLN) >> RCC_PLLCFGR_PLLN_Pos)))) / (uint64_t)pllm);
 8004c58:	4b3d      	ldr	r3, [pc, #244]	@ (8004d50 <HAL_RCC_GetSysClockFreq+0x458>)
 8004c5a:	685b      	ldr	r3, [r3, #4]
 8004c5c:	099b      	lsrs	r3, r3, #6
 8004c5e:	2200      	movs	r2, #0
 8004c60:	4618      	mov	r0, r3
 8004c62:	4611      	mov	r1, r2
 8004c64:	f3c0 0308 	ubfx	r3, r0, #0, #9
 8004c68:	653b      	str	r3, [r7, #80]	@ 0x50
 8004c6a:	2300      	movs	r3, #0
 8004c6c:	657b      	str	r3, [r7, #84]	@ 0x54
 8004c6e:	e9d7 8914 	ldrd	r8, r9, [r7, #80]	@ 0x50
 8004c72:	4642      	mov	r2, r8
 8004c74:	464b      	mov	r3, r9
 8004c76:	f04f 0000 	mov.w	r0, #0
 8004c7a:	f04f 0100 	mov.w	r1, #0
 8004c7e:	0159      	lsls	r1, r3, #5
 8004c80:	ea41 61d2 	orr.w	r1, r1, r2, lsr #27
 8004c84:	0150      	lsls	r0, r2, #5
 8004c86:	4602      	mov	r2, r0
 8004c88:	460b      	mov	r3, r1
 8004c8a:	4641      	mov	r1, r8
 8004c8c:	1a51      	subs	r1, r2, r1
 8004c8e:	60b9      	str	r1, [r7, #8]
 8004c90:	4649      	mov	r1, r9
 8004c92:	eb63 0301 	sbc.w	r3, r3, r1
 8004c96:	60fb      	str	r3, [r7, #12]
 8004c98:	f04f 0200 	mov.w	r2, #0
 8004c9c:	f04f 0300 	mov.w	r3, #0
 8004ca0:	e9d7 ab02 	ldrd	sl, fp, [r7, #8]
 8004ca4:	4659      	mov	r1, fp
 8004ca6:	018b      	lsls	r3, r1, #6
 8004ca8:	4651      	mov	r1, sl
 8004caa:	ea43 6391 	orr.w	r3, r3, r1, lsr #26
 8004cae:	4651      	mov	r1, sl
 8004cb0:	018a      	lsls	r2, r1, #6
 8004cb2:	4651      	mov	r1, sl
 8004cb4:	1a54      	subs	r4, r2, r1
 8004cb6:	4659      	mov	r1, fp
 8004cb8:	eb63 0501 	sbc.w	r5, r3, r1
 8004cbc:	f04f 0200 	mov.w	r2, #0
 8004cc0:	f04f 0300 	mov.w	r3, #0
 8004cc4:	00eb      	lsls	r3, r5, #3
 8004cc6:	ea43 7354 	orr.w	r3, r3, r4, lsr #29
 8004cca:	00e2      	lsls	r2, r4, #3
 8004ccc:	4614      	mov	r4, r2
 8004cce:	461d      	mov	r5, r3
 8004cd0:	4643      	mov	r3, r8
 8004cd2:	18e3      	adds	r3, r4, r3
 8004cd4:	603b      	str	r3, [r7, #0]
 8004cd6:	464b      	mov	r3, r9
 8004cd8:	eb45 0303 	adc.w	r3, r5, r3
 8004cdc:	607b      	str	r3, [r7, #4]
 8004cde:	f04f 0200 	mov.w	r2, #0
 8004ce2:	f04f 0300 	mov.w	r3, #0
 8004ce6:	e9d7 4500 	ldrd	r4, r5, [r7]
 8004cea:	4629      	mov	r1, r5
 8004cec:	028b      	lsls	r3, r1, #10
 8004cee:	4621      	mov	r1, r4
 8004cf0:	ea43 5391 	orr.w	r3, r3, r1, lsr #22
 8004cf4:	4621      	mov	r1, r4
 8004cf6:	028a      	lsls	r2, r1, #10
 8004cf8:	4610      	mov	r0, r2
 8004cfa:	4619      	mov	r1, r3
 8004cfc:	f8d7 30ac 	ldr.w	r3, [r7, #172]	@ 0xac
 8004d00:	2200      	movs	r2, #0
 8004d02:	64bb      	str	r3, [r7, #72]	@ 0x48
 8004d04:	64fa      	str	r2, [r7, #76]	@ 0x4c
 8004d06:	e9d7 2312 	ldrd	r2, r3, [r7, #72]	@ 0x48
 8004d0a:	f7fb ffbd 	bl	8000c88 <__aeabi_uldivmod>
 8004d0e:	4602      	mov	r2, r0
 8004d10:	460b      	mov	r3, r1
 8004d12:	4613      	mov	r3, r2
 8004d14:	f8c7 30b4 	str.w	r3, [r7, #180]	@ 0xb4
      }
      pllr = ((RCC->PLLCFGR & RCC_PLLCFGR_PLLR) >> RCC_PLLCFGR_PLLR_Pos);
 8004d18:	4b0d      	ldr	r3, [pc, #52]	@ (8004d50 <HAL_RCC_GetSysClockFreq+0x458>)
 8004d1a:	685b      	ldr	r3, [r3, #4]
 8004d1c:	0f1b      	lsrs	r3, r3, #28
 8004d1e:	f003 0307 	and.w	r3, r3, #7
 8004d22:	f8c7 30a4 	str.w	r3, [r7, #164]	@ 0xa4

      sysclockfreq = pllvco / pllr;
 8004d26:	f8d7 20b4 	ldr.w	r2, [r7, #180]	@ 0xb4
 8004d2a:	f8d7 30a4 	ldr.w	r3, [r7, #164]	@ 0xa4
 8004d2e:	fbb2 f3f3 	udiv	r3, r2, r3
 8004d32:	f8c7 30b0 	str.w	r3, [r7, #176]	@ 0xb0
      break;
 8004d36:	e003      	b.n	8004d40 <HAL_RCC_GetSysClockFreq+0x448>
    }
    default:
    {
      sysclockfreq = HSI_VALUE;
 8004d38:	4b06      	ldr	r3, [pc, #24]	@ (8004d54 <HAL_RCC_GetSysClockFreq+0x45c>)
 8004d3a:	f8c7 30b0 	str.w	r3, [r7, #176]	@ 0xb0
      break;
 8004d3e:	bf00      	nop
    }
  }
  return sysclockfreq;
 8004d40:	f8d7 30b0 	ldr.w	r3, [r7, #176]	@ 0xb0
}
 8004d44:	4618      	mov	r0, r3
 8004d46:	37b8      	adds	r7, #184	@ 0xb8
 8004d48:	46bd      	mov	sp, r7
 8004d4a:	e8bd 8fb0 	ldmia.w	sp!, {r4, r5, r7, r8, r9, sl, fp, pc}
 8004d4e:	bf00      	nop
 8004d50:	40023800 	.word	0x40023800
 8004d54:	00f42400 	.word	0x00f42400

08004d58 <HAL_RCC_OscConfig>:
  * @note   This function add the PLL/PLLR factor management during PLL configuration this feature
  *         is only available in STM32F410xx/STM32F446xx/STM32F469xx/STM32F479xx/STM32F412Zx/STM32F412Vx/STM32F412Rx/STM32F412Cx devices
  * @retval HAL status
  */
HAL_StatusTypeDef HAL_RCC_OscConfig(RCC_OscInitTypeDef  *RCC_OscInitStruct)
{
 8004d58:	b580      	push	{r7, lr}
 8004d5a:	b086      	sub	sp, #24
 8004d5c:	af00      	add	r7, sp, #0
 8004d5e:	6078      	str	r0, [r7, #4]
  uint32_t tickstart;
  uint32_t pll_config;

  /* Check Null pointer */
  if (RCC_OscInitStruct == NULL)
 8004d60:	687b      	ldr	r3, [r7, #4]
 8004d62:	2b00      	cmp	r3, #0
 8004d64:	d101      	bne.n	8004d6a <HAL_RCC_OscConfig+0x12>
  {
    return HAL_ERROR;
 8004d66:	2301      	movs	r3, #1
 8004d68:	e28d      	b.n	8005286 <HAL_RCC_OscConfig+0x52e>
  }

  /* Check the parameters */
  assert_param(IS_RCC_OSCILLATORTYPE(RCC_OscInitStruct->OscillatorType));
  /*------------------------------- HSE Configuration ------------------------*/
  if (((RCC_OscInitStruct->OscillatorType) & RCC_OSCILLATORTYPE_HSE) == RCC_OSCILLATORTYPE_HSE)
 8004d6a:	687b      	ldr	r3, [r7, #4]
 8004d6c:	681b      	ldr	r3, [r3, #0]
 8004d6e:	f003 0301 	and.w	r3, r3, #1
 8004d72:	2b00      	cmp	r3, #0
 8004d74:	f000 8083 	beq.w	8004e7e <HAL_RCC_OscConfig+0x126>
  {
    /* Check the parameters */
    assert_param(IS_RCC_HSE(RCC_OscInitStruct->HSEState));
    /* When the HSE is used as system clock or clock source for PLL in these cases HSE will not disabled */
#if defined(STM32F446xx)
    if ((__HAL_RCC_GET_SYSCLK_SOURCE() == RCC_CFGR_SWS_HSE)
 8004d78:	4b94      	ldr	r3, [pc, #592]	@ (8004fcc <HAL_RCC_OscConfig+0x274>)
 8004d7a:	689b      	ldr	r3, [r3, #8]
 8004d7c:	f003 030c 	and.w	r3, r3, #12
 8004d80:	2b04      	cmp	r3, #4
 8004d82:	d019      	beq.n	8004db8 <HAL_RCC_OscConfig+0x60>
        || \
        ((__HAL_RCC_GET_SYSCLK_SOURCE() == RCC_CFGR_SWS_PLL) && ((RCC->PLLCFGR & RCC_PLLCFGR_PLLSRC) == RCC_PLLCFGR_PLLSRC_HSE)) || \
 8004d84:	4b91      	ldr	r3, [pc, #580]	@ (8004fcc <HAL_RCC_OscConfig+0x274>)
 8004d86:	689b      	ldr	r3, [r3, #8]
 8004d88:	f003 030c 	and.w	r3, r3, #12
        || \
 8004d8c:	2b08      	cmp	r3, #8
 8004d8e:	d106      	bne.n	8004d9e <HAL_RCC_OscConfig+0x46>
        ((__HAL_RCC_GET_SYSCLK_SOURCE() == RCC_CFGR_SWS_PLL) && ((RCC->PLLCFGR & RCC_PLLCFGR_PLLSRC) == RCC_PLLCFGR_PLLSRC_HSE)) || \
 8004d90:	4b8e      	ldr	r3, [pc, #568]	@ (8004fcc <HAL_RCC_OscConfig+0x274>)
 8004d92:	685b      	ldr	r3, [r3, #4]
 8004d94:	f403 0380 	and.w	r3, r3, #4194304	@ 0x400000
 8004d98:	f5b3 0f80 	cmp.w	r3, #4194304	@ 0x400000
 8004d9c:	d00c      	beq.n	8004db8 <HAL_RCC_OscConfig+0x60>
        ((__HAL_RCC_GET_SYSCLK_SOURCE() == RCC_CFGR_SWS_PLLR) && ((RCC->PLLCFGR & RCC_PLLCFGR_PLLSRC) == RCC_PLLCFGR_PLLSRC_HSE)))
 8004d9e:	4b8b      	ldr	r3, [pc, #556]	@ (8004fcc <HAL_RCC_OscConfig+0x274>)
 8004da0:	689b      	ldr	r3, [r3, #8]
 8004da2:	f003 030c 	and.w	r3, r3, #12
        ((__HAL_RCC_GET_SYSCLK_SOURCE() == RCC_CFGR_SWS_PLL) && ((RCC->PLLCFGR & RCC_PLLCFGR_PLLSRC) == RCC_PLLCFGR_PLLSRC_HSE)) || \
 8004da6:	2b0c      	cmp	r3, #12
 8004da8:	d112      	bne.n	8004dd0 <HAL_RCC_OscConfig+0x78>
        ((__HAL_RCC_GET_SYSCLK_SOURCE() == RCC_CFGR_SWS_PLLR) && ((RCC->PLLCFGR & RCC_PLLCFGR_PLLSRC) == RCC_PLLCFGR_PLLSRC_HSE)))
 8004daa:	4b88      	ldr	r3, [pc, #544]	@ (8004fcc <HAL_RCC_OscConfig+0x274>)
 8004dac:	685b      	ldr	r3, [r3, #4]
 8004dae:	f403 0380 	and.w	r3, r3, #4194304	@ 0x400000
 8004db2:	f5b3 0f80 	cmp.w	r3, #4194304	@ 0x400000
 8004db6:	d10b      	bne.n	8004dd0 <HAL_RCC_OscConfig+0x78>
    if ((__HAL_RCC_GET_SYSCLK_SOURCE() == RCC_CFGR_SWS_HSE)
        || \
        ((__HAL_RCC_GET_SYSCLK_SOURCE() == RCC_CFGR_SWS_PLL) && ((RCC->PLLCFGR & RCC_PLLCFGR_PLLSRC) == RCC_PLLCFGR_PLLSRC_HSE)))
#endif /* STM32F446xx */
    {
      if ((__HAL_RCC_GET_FLAG(RCC_FLAG_HSERDY) != RESET) && (RCC_OscInitStruct->HSEState == RCC_HSE_OFF))
 8004db8:	4b84      	ldr	r3, [pc, #528]	@ (8004fcc <HAL_RCC_OscConfig+0x274>)
 8004dba:	681b      	ldr	r3, [r3, #0]
 8004dbc:	f403 3300 	and.w	r3, r3, #131072	@ 0x20000
 8004dc0:	2b00      	cmp	r3, #0
 8004dc2:	d05b      	beq.n	8004e7c <HAL_RCC_OscConfig+0x124>
 8004dc4:	687b      	ldr	r3, [r7, #4]
 8004dc6:	685b      	ldr	r3, [r3, #4]
 8004dc8:	2b00      	cmp	r3, #0
 8004dca:	d157      	bne.n	8004e7c <HAL_RCC_OscConfig+0x124>
      {
        return HAL_ERROR;
 8004dcc:	2301      	movs	r3, #1
 8004dce:	e25a      	b.n	8005286 <HAL_RCC_OscConfig+0x52e>
      }
    }
    else
    {
      /* Set the new HSE configuration ---------------------------------------*/
      __HAL_RCC_HSE_CONFIG(RCC_OscInitStruct->HSEState);
 8004dd0:	687b      	ldr	r3, [r7, #4]
 8004dd2:	685b      	ldr	r3, [r3, #4]
 8004dd4:	f5b3 3f80 	cmp.w	r3, #65536	@ 0x10000
 8004dd8:	d106      	bne.n	8004de8 <HAL_RCC_OscConfig+0x90>
 8004dda:	4b7c      	ldr	r3, [pc, #496]	@ (8004fcc <HAL_RCC_OscConfig+0x274>)
 8004ddc:	681b      	ldr	r3, [r3, #0]
 8004dde:	4a7b      	ldr	r2, [pc, #492]	@ (8004fcc <HAL_RCC_OscConfig+0x274>)
 8004de0:	f443 3380 	orr.w	r3, r3, #65536	@ 0x10000
 8004de4:	6013      	str	r3, [r2, #0]
 8004de6:	e01d      	b.n	8004e24 <HAL_RCC_OscConfig+0xcc>
 8004de8:	687b      	ldr	r3, [r7, #4]
 8004dea:	685b      	ldr	r3, [r3, #4]
 8004dec:	f5b3 2fa0 	cmp.w	r3, #327680	@ 0x50000
 8004df0:	d10c      	bne.n	8004e0c <HAL_RCC_OscConfig+0xb4>
 8004df2:	4b76      	ldr	r3, [pc, #472]	@ (8004fcc <HAL_RCC_OscConfig+0x274>)
 8004df4:	681b      	ldr	r3, [r3, #0]
 8004df6:	4a75      	ldr	r2, [pc, #468]	@ (8004fcc <HAL_RCC_OscConfig+0x274>)
 8004df8:	f443 2380 	orr.w	r3, r3, #262144	@ 0x40000
 8004dfc:	6013      	str	r3, [r2, #0]
 8004dfe:	4b73      	ldr	r3, [pc, #460]	@ (8004fcc <HAL_RCC_OscConfig+0x274>)
 8004e00:	681b      	ldr	r3, [r3, #0]
 8004e02:	4a72      	ldr	r2, [pc, #456]	@ (8004fcc <HAL_RCC_OscConfig+0x274>)
 8004e04:	f443 3380 	orr.w	r3, r3, #65536	@ 0x10000
 8004e08:	6013      	str	r3, [r2, #0]
 8004e0a:	e00b      	b.n	8004e24 <HAL_RCC_OscConfig+0xcc>
 8004e0c:	4b6f      	ldr	r3, [pc, #444]	@ (8004fcc <HAL_RCC_OscConfig+0x274>)
 8004e0e:	681b      	ldr	r3, [r3, #0]
 8004e10:	4a6e      	ldr	r2, [pc, #440]	@ (8004fcc <HAL_RCC_OscConfig+0x274>)
 8004e12:	f423 3380 	bic.w	r3, r3, #65536	@ 0x10000
 8004e16:	6013      	str	r3, [r2, #0]
 8004e18:	4b6c      	ldr	r3, [pc, #432]	@ (8004fcc <HAL_RCC_OscConfig+0x274>)
 8004e1a:	681b      	ldr	r3, [r3, #0]
 8004e1c:	4a6b      	ldr	r2, [pc, #428]	@ (8004fcc <HAL_RCC_OscConfig+0x274>)
 8004e1e:	f423 2380 	bic.w	r3, r3, #262144	@ 0x40000
 8004e22:	6013      	str	r3, [r2, #0]

      /* Check the HSE State */
      if ((RCC_OscInitStruct->HSEState) != RCC_HSE_OFF)
 8004e24:	687b      	ldr	r3, [r7, #4]
 8004e26:	685b      	ldr	r3, [r3, #4]
 8004e28:	2b00      	cmp	r3, #0
 8004e2a:	d013      	beq.n	8004e54 <HAL_RCC_OscConfig+0xfc>
      {
        /* Get Start Tick*/
        tickstart = HAL_GetTick();
 8004e2c:	f7fd fc84 	bl	8002738 <HAL_GetTick>
 8004e30:	6138      	str	r0, [r7, #16]

        /* Wait till HSE is ready */
        while (__HAL_RCC_GET_FLAG(RCC_FLAG_HSERDY) == RESET)
 8004e32:	e008      	b.n	8004e46 <HAL_RCC_OscConfig+0xee>
        {
          if ((HAL_GetTick() - tickstart) > HSE_TIMEOUT_VALUE)
 8004e34:	f7fd fc80 	bl	8002738 <HAL_GetTick>
 8004e38:	4602      	mov	r2, r0
 8004e3a:	693b      	ldr	r3, [r7, #16]
 8004e3c:	1ad3      	subs	r3, r2, r3
 8004e3e:	2b64      	cmp	r3, #100	@ 0x64
 8004e40:	d901      	bls.n	8004e46 <HAL_RCC_OscConfig+0xee>
          {
            return HAL_TIMEOUT;
 8004e42:	2303      	movs	r3, #3
 8004e44:	e21f      	b.n	8005286 <HAL_RCC_OscConfig+0x52e>
        while (__HAL_RCC_GET_FLAG(RCC_FLAG_HSERDY) == RESET)
 8004e46:	4b61      	ldr	r3, [pc, #388]	@ (8004fcc <HAL_RCC_OscConfig+0x274>)
 8004e48:	681b      	ldr	r3, [r3, #0]
 8004e4a:	f403 3300 	and.w	r3, r3, #131072	@ 0x20000
 8004e4e:	2b00      	cmp	r3, #0
 8004e50:	d0f0      	beq.n	8004e34 <HAL_RCC_OscConfig+0xdc>
 8004e52:	e014      	b.n	8004e7e <HAL_RCC_OscConfig+0x126>
        }
      }
      else
      {
        /* Get Start Tick*/
        tickstart = HAL_GetTick();
 8004e54:	f7fd fc70 	bl	8002738 <HAL_GetTick>
 8004e58:	6138      	str	r0, [r7, #16]

        /* Wait till HSE is bypassed or disabled */
        while (__HAL_RCC_GET_FLAG(RCC_FLAG_HSERDY) != RESET)
 8004e5a:	e008      	b.n	8004e6e <HAL_RCC_OscConfig+0x116>
        {
          if ((HAL_GetTick() - tickstart) > HSE_TIMEOUT_VALUE)
 8004e5c:	f7fd fc6c 	bl	8002738 <HAL_GetTick>
 8004e60:	4602      	mov	r2, r0
 8004e62:	693b      	ldr	r3, [r7, #16]
 8004e64:	1ad3      	subs	r3, r2, r3
 8004e66:	2b64      	cmp	r3, #100	@ 0x64
 8004e68:	d901      	bls.n	8004e6e <HAL_RCC_OscConfig+0x116>
          {
            return HAL_TIMEOUT;
 8004e6a:	2303      	movs	r3, #3
 8004e6c:	e20b      	b.n	8005286 <HAL_RCC_OscConfig+0x52e>
        while (__HAL_RCC_GET_FLAG(RCC_FLAG_HSERDY) != RESET)
 8004e6e:	4b57      	ldr	r3, [pc, #348]	@ (8004fcc <HAL_RCC_OscConfig+0x274>)
 8004e70:	681b      	ldr	r3, [r3, #0]
 8004e72:	f403 3300 	and.w	r3, r3, #131072	@ 0x20000
 8004e76:	2b00      	cmp	r3, #0
 8004e78:	d1f0      	bne.n	8004e5c <HAL_RCC_OscConfig+0x104>
 8004e7a:	e000      	b.n	8004e7e <HAL_RCC_OscConfig+0x126>
      if ((__HAL_RCC_GET_FLAG(RCC_FLAG_HSERDY) != RESET) && (RCC_OscInitStruct->HSEState == RCC_HSE_OFF))
 8004e7c:	bf00      	nop
        }
      }
    }
  }
  /*----------------------------- HSI Configuration --------------------------*/
  if (((RCC_OscInitStruct->OscillatorType) & RCC_OSCILLATORTYPE_HSI) == RCC_OSCILLATORTYPE_HSI)
 8004e7e:	687b      	ldr	r3, [r7, #4]
 8004e80:	681b      	ldr	r3, [r3, #0]
 8004e82:	f003 0302 	and.w	r3, r3, #2
 8004e86:	2b00      	cmp	r3, #0
 8004e88:	d06f      	beq.n	8004f6a <HAL_RCC_OscConfig+0x212>
    assert_param(IS_RCC_HSI(RCC_OscInitStruct->HSIState));
    assert_param(IS_RCC_CALIBRATION_VALUE(RCC_OscInitStruct->HSICalibrationValue));

    /* Check if HSI is used as system clock or as PLL source when PLL is selected as system clock */
#if defined(STM32F446xx)
    if ((__HAL_RCC_GET_SYSCLK_SOURCE() == RCC_CFGR_SWS_HSI)
 8004e8a:	4b50      	ldr	r3, [pc, #320]	@ (8004fcc <HAL_RCC_OscConfig+0x274>)
 8004e8c:	689b      	ldr	r3, [r3, #8]
 8004e8e:	f003 030c 	and.w	r3, r3, #12
 8004e92:	2b00      	cmp	r3, #0
 8004e94:	d017      	beq.n	8004ec6 <HAL_RCC_OscConfig+0x16e>
        || \
        ((__HAL_RCC_GET_SYSCLK_SOURCE() == RCC_CFGR_SWS_PLL) && ((RCC->PLLCFGR & RCC_PLLCFGR_PLLSRC) == RCC_PLLCFGR_PLLSRC_HSI)) || \
 8004e96:	4b4d      	ldr	r3, [pc, #308]	@ (8004fcc <HAL_RCC_OscConfig+0x274>)
 8004e98:	689b      	ldr	r3, [r3, #8]
 8004e9a:	f003 030c 	and.w	r3, r3, #12
        || \
 8004e9e:	2b08      	cmp	r3, #8
 8004ea0:	d105      	bne.n	8004eae <HAL_RCC_OscConfig+0x156>
        ((__HAL_RCC_GET_SYSCLK_SOURCE() == RCC_CFGR_SWS_PLL) && ((RCC->PLLCFGR & RCC_PLLCFGR_PLLSRC) == RCC_PLLCFGR_PLLSRC_HSI)) || \
 8004ea2:	4b4a      	ldr	r3, [pc, #296]	@ (8004fcc <HAL_RCC_OscConfig+0x274>)
 8004ea4:	685b      	ldr	r3, [r3, #4]
 8004ea6:	f403 0380 	and.w	r3, r3, #4194304	@ 0x400000
 8004eaa:	2b00      	cmp	r3, #0
 8004eac:	d00b      	beq.n	8004ec6 <HAL_RCC_OscConfig+0x16e>
        ((__HAL_RCC_GET_SYSCLK_SOURCE() == RCC_CFGR_SWS_PLLR) && ((RCC->PLLCFGR & RCC_PLLCFGR_PLLSRC) == RCC_PLLCFGR_PLLSRC_HSI)))
 8004eae:	4b47      	ldr	r3, [pc, #284]	@ (8004fcc <HAL_RCC_OscConfig+0x274>)
 8004eb0:	689b      	ldr	r3, [r3, #8]
 8004eb2:	f003 030c 	and.w	r3, r3, #12
        ((__HAL_RCC_GET_SYSCLK_SOURCE() == RCC_CFGR_SWS_PLL) && ((RCC->PLLCFGR & RCC_PLLCFGR_PLLSRC) == RCC_PLLCFGR_PLLSRC_HSI)) || \
 8004eb6:	2b0c      	cmp	r3, #12
 8004eb8:	d11c      	bne.n	8004ef4 <HAL_RCC_OscConfig+0x19c>
        ((__HAL_RCC_GET_SYSCLK_SOURCE() == RCC_CFGR_SWS_PLLR) && ((RCC->PLLCFGR & RCC_PLLCFGR_PLLSRC) == RCC_PLLCFGR_PLLSRC_HSI)))
 8004eba:	4b44      	ldr	r3, [pc, #272]	@ (8004fcc <HAL_RCC_OscConfig+0x274>)
 8004ebc:	685b      	ldr	r3, [r3, #4]
 8004ebe:	f403 0380 	and.w	r3, r3, #4194304	@ 0x400000
 8004ec2:	2b00      	cmp	r3, #0
 8004ec4:	d116      	bne.n	8004ef4 <HAL_RCC_OscConfig+0x19c>
        || \
        ((__HAL_RCC_GET_SYSCLK_SOURCE() == RCC_CFGR_SWS_PLL) && ((RCC->PLLCFGR & RCC_PLLCFGR_PLLSRC) == RCC_PLLCFGR_PLLSRC_HSI)))
#endif /* STM32F446xx */
    {
      /* When HSI is used as system clock it will not disabled */
      if ((__HAL_RCC_GET_FLAG(RCC_FLAG_HSIRDY) != RESET) && (RCC_OscInitStruct->HSIState != RCC_HSI_ON))
 8004ec6:	4b41      	ldr	r3, [pc, #260]	@ (8004fcc <HAL_RCC_OscConfig+0x274>)
 8004ec8:	681b      	ldr	r3, [r3, #0]
 8004eca:	f003 0302 	and.w	r3, r3, #2
 8004ece:	2b00      	cmp	r3, #0
 8004ed0:	d005      	beq.n	8004ede <HAL_RCC_OscConfig+0x186>
 8004ed2:	687b      	ldr	r3, [r7, #4]
 8004ed4:	68db      	ldr	r3, [r3, #12]
 8004ed6:	2b01      	cmp	r3, #1
 8004ed8:	d001      	beq.n	8004ede <HAL_RCC_OscConfig+0x186>
      {
        return HAL_ERROR;
 8004eda:	2301      	movs	r3, #1
 8004edc:	e1d3      	b.n	8005286 <HAL_RCC_OscConfig+0x52e>
      }
      /* Otherwise, just the calibration is allowed */
      else
      {
        /* Adjusts the Internal High Speed oscillator (HSI) calibration value.*/
        __HAL_RCC_HSI_CALIBRATIONVALUE_ADJUST(RCC_OscInitStruct->HSICalibrationValue);
 8004ede:	4b3b      	ldr	r3, [pc, #236]	@ (8004fcc <HAL_RCC_OscConfig+0x274>)
 8004ee0:	681b      	ldr	r3, [r3, #0]
 8004ee2:	f023 02f8 	bic.w	r2, r3, #248	@ 0xf8
 8004ee6:	687b      	ldr	r3, [r7, #4]
 8004ee8:	691b      	ldr	r3, [r3, #16]
 8004eea:	00db      	lsls	r3, r3, #3
 8004eec:	4937      	ldr	r1, [pc, #220]	@ (8004fcc <HAL_RCC_OscConfig+0x274>)
 8004eee:	4313      	orrs	r3, r2
 8004ef0:	600b      	str	r3, [r1, #0]
      if ((__HAL_RCC_GET_FLAG(RCC_FLAG_HSIRDY) != RESET) && (RCC_OscInitStruct->HSIState != RCC_HSI_ON))
 8004ef2:	e03a      	b.n	8004f6a <HAL_RCC_OscConfig+0x212>
      }
    }
    else
    {
      /* Check the HSI State */
      if ((RCC_OscInitStruct->HSIState) != RCC_HSI_OFF)
 8004ef4:	687b      	ldr	r3, [r7, #4]
 8004ef6:	68db      	ldr	r3, [r3, #12]
 8004ef8:	2b00      	cmp	r3, #0
 8004efa:	d020      	beq.n	8004f3e <HAL_RCC_OscConfig+0x1e6>
      {
        /* Enable the Internal High Speed oscillator (HSI). */
        __HAL_RCC_HSI_ENABLE();
 8004efc:	4b34      	ldr	r3, [pc, #208]	@ (8004fd0 <HAL_RCC_OscConfig+0x278>)
 8004efe:	2201      	movs	r2, #1
 8004f00:	601a      	str	r2, [r3, #0]

        /* Get Start Tick*/
        tickstart = HAL_GetTick();
 8004f02:	f7fd fc19 	bl	8002738 <HAL_GetTick>
 8004f06:	6138      	str	r0, [r7, #16]

        /* Wait till HSI is ready */
        while (__HAL_RCC_GET_FLAG(RCC_FLAG_HSIRDY) == RESET)
 8004f08:	e008      	b.n	8004f1c <HAL_RCC_OscConfig+0x1c4>
        {
          if ((HAL_GetTick() - tickstart) > HSI_TIMEOUT_VALUE)
 8004f0a:	f7fd fc15 	bl	8002738 <HAL_GetTick>
 8004f0e:	4602      	mov	r2, r0
 8004f10:	693b      	ldr	r3, [r7, #16]
 8004f12:	1ad3      	subs	r3, r2, r3
 8004f14:	2b02      	cmp	r3, #2
 8004f16:	d901      	bls.n	8004f1c <HAL_RCC_OscConfig+0x1c4>
          {
            return HAL_TIMEOUT;
 8004f18:	2303      	movs	r3, #3
 8004f1a:	e1b4      	b.n	8005286 <HAL_RCC_OscConfig+0x52e>
        while (__HAL_RCC_GET_FLAG(RCC_FLAG_HSIRDY) == RESET)
 8004f1c:	4b2b      	ldr	r3, [pc, #172]	@ (8004fcc <HAL_RCC_OscConfig+0x274>)
 8004f1e:	681b      	ldr	r3, [r3, #0]
 8004f20:	f003 0302 	and.w	r3, r3, #2
 8004f24:	2b00      	cmp	r3, #0
 8004f26:	d0f0      	beq.n	8004f0a <HAL_RCC_OscConfig+0x1b2>
          }
        }

        /* Adjusts the Internal High Speed oscillator (HSI) calibration value.*/
        __HAL_RCC_HSI_CALIBRATIONVALUE_ADJUST(RCC_OscInitStruct->HSICalibrationValue);
 8004f28:	4b28      	ldr	r3, [pc, #160]	@ (8004fcc <HAL_RCC_OscConfig+0x274>)
 8004f2a:	681b      	ldr	r3, [r3, #0]
 8004f2c:	f023 02f8 	bic.w	r2, r3, #248	@ 0xf8
 8004f30:	687b      	ldr	r3, [r7, #4]
 8004f32:	691b      	ldr	r3, [r3, #16]
 8004f34:	00db      	lsls	r3, r3, #3
 8004f36:	4925      	ldr	r1, [pc, #148]	@ (8004fcc <HAL_RCC_OscConfig+0x274>)
 8004f38:	4313      	orrs	r3, r2
 8004f3a:	600b      	str	r3, [r1, #0]
 8004f3c:	e015      	b.n	8004f6a <HAL_RCC_OscConfig+0x212>
      }
      else
      {
        /* Disable the Internal High Speed oscillator (HSI). */
        __HAL_RCC_HSI_DISABLE();
 8004f3e:	4b24      	ldr	r3, [pc, #144]	@ (8004fd0 <HAL_RCC_OscConfig+0x278>)
 8004f40:	2200      	movs	r2, #0
 8004f42:	601a      	str	r2, [r3, #0]

        /* Get Start Tick*/
        tickstart = HAL_GetTick();
 8004f44:	f7fd fbf8 	bl	8002738 <HAL_GetTick>
 8004f48:	6138      	str	r0, [r7, #16]

        /* Wait till HSI is ready */
        while (__HAL_RCC_GET_FLAG(RCC_FLAG_HSIRDY) != RESET)
 8004f4a:	e008      	b.n	8004f5e <HAL_RCC_OscConfig+0x206>
        {
          if ((HAL_GetTick() - tickstart) > HSI_TIMEOUT_VALUE)
 8004f4c:	f7fd fbf4 	bl	8002738 <HAL_GetTick>
 8004f50:	4602      	mov	r2, r0
 8004f52:	693b      	ldr	r3, [r7, #16]
 8004f54:	1ad3      	subs	r3, r2, r3
 8004f56:	2b02      	cmp	r3, #2
 8004f58:	d901      	bls.n	8004f5e <HAL_RCC_OscConfig+0x206>
          {
            return HAL_TIMEOUT;
 8004f5a:	2303      	movs	r3, #3
 8004f5c:	e193      	b.n	8005286 <HAL_RCC_OscConfig+0x52e>
        while (__HAL_RCC_GET_FLAG(RCC_FLAG_HSIRDY) != RESET)
 8004f5e:	4b1b      	ldr	r3, [pc, #108]	@ (8004fcc <HAL_RCC_OscConfig+0x274>)
 8004f60:	681b      	ldr	r3, [r3, #0]
 8004f62:	f003 0302 	and.w	r3, r3, #2
 8004f66:	2b00      	cmp	r3, #0
 8004f68:	d1f0      	bne.n	8004f4c <HAL_RCC_OscConfig+0x1f4>
        }
      }
    }
  }
  /*------------------------------ LSI Configuration -------------------------*/
  if (((RCC_OscInitStruct->OscillatorType) & RCC_OSCILLATORTYPE_LSI) == RCC_OSCILLATORTYPE_LSI)
 8004f6a:	687b      	ldr	r3, [r7, #4]
 8004f6c:	681b      	ldr	r3, [r3, #0]
 8004f6e:	f003 0308 	and.w	r3, r3, #8
 8004f72:	2b00      	cmp	r3, #0
 8004f74:	d036      	beq.n	8004fe4 <HAL_RCC_OscConfig+0x28c>
  {
    /* Check the parameters */
    assert_param(IS_RCC_LSI(RCC_OscInitStruct->LSIState));

    /* Check the LSI State */
    if ((RCC_OscInitStruct->LSIState) != RCC_LSI_OFF)
 8004f76:	687b      	ldr	r3, [r7, #4]
 8004f78:	695b      	ldr	r3, [r3, #20]
 8004f7a:	2b00      	cmp	r3, #0
 8004f7c:	d016      	beq.n	8004fac <HAL_RCC_OscConfig+0x254>
    {
      /* Enable the Internal Low Speed oscillator (LSI). */
      __HAL_RCC_LSI_ENABLE();
 8004f7e:	4b15      	ldr	r3, [pc, #84]	@ (8004fd4 <HAL_RCC_OscConfig+0x27c>)
 8004f80:	2201      	movs	r2, #1
 8004f82:	601a      	str	r2, [r3, #0]

      /* Get Start Tick*/
      tickstart = HAL_GetTick();
 8004f84:	f7fd fbd8 	bl	8002738 <HAL_GetTick>
 8004f88:	6138      	str	r0, [r7, #16]

      /* Wait till LSI is ready */
      while (__HAL_RCC_GET_FLAG(RCC_FLAG_LSIRDY) == RESET)
 8004f8a:	e008      	b.n	8004f9e <HAL_RCC_OscConfig+0x246>
      {
        if ((HAL_GetTick() - tickstart) > LSI_TIMEOUT_VALUE)
 8004f8c:	f7fd fbd4 	bl	8002738 <HAL_GetTick>
 8004f90:	4602      	mov	r2, r0
 8004f92:	693b      	ldr	r3, [r7, #16]
 8004f94:	1ad3      	subs	r3, r2, r3
 8004f96:	2b02      	cmp	r3, #2
 8004f98:	d901      	bls.n	8004f9e <HAL_RCC_OscConfig+0x246>
        {
          return HAL_TIMEOUT;
 8004f9a:	2303      	movs	r3, #3
 8004f9c:	e173      	b.n	8005286 <HAL_RCC_OscConfig+0x52e>
      while (__HAL_RCC_GET_FLAG(RCC_FLAG_LSIRDY) == RESET)
 8004f9e:	4b0b      	ldr	r3, [pc, #44]	@ (8004fcc <HAL_RCC_OscConfig+0x274>)
 8004fa0:	6f5b      	ldr	r3, [r3, #116]	@ 0x74
 8004fa2:	f003 0302 	and.w	r3, r3, #2
 8004fa6:	2b00      	cmp	r3, #0
 8004fa8:	d0f0      	beq.n	8004f8c <HAL_RCC_OscConfig+0x234>
 8004faa:	e01b      	b.n	8004fe4 <HAL_RCC_OscConfig+0x28c>
      }
    }
    else
    {
      /* Disable the Internal Low Speed oscillator (LSI). */
      __HAL_RCC_LSI_DISABLE();
 8004fac:	4b09      	ldr	r3, [pc, #36]	@ (8004fd4 <HAL_RCC_OscConfig+0x27c>)
 8004fae:	2200      	movs	r2, #0
 8004fb0:	601a      	str	r2, [r3, #0]

      /* Get Start Tick*/
      tickstart = HAL_GetTick();
 8004fb2:	f7fd fbc1 	bl	8002738 <HAL_GetTick>
 8004fb6:	6138      	str	r0, [r7, #16]

      /* Wait till LSI is ready */
      while (__HAL_RCC_GET_FLAG(RCC_FLAG_LSIRDY) != RESET)
 8004fb8:	e00e      	b.n	8004fd8 <HAL_RCC_OscConfig+0x280>
      {
        if ((HAL_GetTick() - tickstart) > LSI_TIMEOUT_VALUE)
 8004fba:	f7fd fbbd 	bl	8002738 <HAL_GetTick>
 8004fbe:	4602      	mov	r2, r0
 8004fc0:	693b      	ldr	r3, [r7, #16]
 8004fc2:	1ad3      	subs	r3, r2, r3
 8004fc4:	2b02      	cmp	r3, #2
 8004fc6:	d907      	bls.n	8004fd8 <HAL_RCC_OscConfig+0x280>
        {
          return HAL_TIMEOUT;
 8004fc8:	2303      	movs	r3, #3
 8004fca:	e15c      	b.n	8005286 <HAL_RCC_OscConfig+0x52e>
 8004fcc:	40023800 	.word	0x40023800
 8004fd0:	42470000 	.word	0x42470000
 8004fd4:	42470e80 	.word	0x42470e80
      while (__HAL_RCC_GET_FLAG(RCC_FLAG_LSIRDY) != RESET)
 8004fd8:	4b8a      	ldr	r3, [pc, #552]	@ (8005204 <HAL_RCC_OscConfig+0x4ac>)
 8004fda:	6f5b      	ldr	r3, [r3, #116]	@ 0x74
 8004fdc:	f003 0302 	and.w	r3, r3, #2
 8004fe0:	2b00      	cmp	r3, #0
 8004fe2:	d1ea      	bne.n	8004fba <HAL_RCC_OscConfig+0x262>
        }
      }
    }
  }
  /*------------------------------ LSE Configuration -------------------------*/
  if (((RCC_OscInitStruct->OscillatorType) & RCC_OSCILLATORTYPE_LSE) == RCC_OSCILLATORTYPE_LSE)
 8004fe4:	687b      	ldr	r3, [r7, #4]
 8004fe6:	681b      	ldr	r3, [r3, #0]
 8004fe8:	f003 0304 	and.w	r3, r3, #4
 8004fec:	2b00      	cmp	r3, #0
 8004fee:	f000 8097 	beq.w	8005120 <HAL_RCC_OscConfig+0x3c8>
  {
    FlagStatus       pwrclkchanged = RESET;
 8004ff2:	2300      	movs	r3, #0
 8004ff4:	75fb      	strb	r3, [r7, #23]
    /* Check the parameters */
    assert_param(IS_RCC_LSE(RCC_OscInitStruct->LSEState));

    /* Update LSE configuration in Backup Domain control register    */
    /* Requires to enable write access to Backup Domain of necessary */
    if (__HAL_RCC_PWR_IS_CLK_DISABLED())
 8004ff6:	4b83      	ldr	r3, [pc, #524]	@ (8005204 <HAL_RCC_OscConfig+0x4ac>)
 8004ff8:	6c1b      	ldr	r3, [r3, #64]	@ 0x40
 8004ffa:	f003 5380 	and.w	r3, r3, #268435456	@ 0x10000000
 8004ffe:	2b00      	cmp	r3, #0
 8005000:	d10f      	bne.n	8005022 <HAL_RCC_OscConfig+0x2ca>
    {
      __HAL_RCC_PWR_CLK_ENABLE();
 8005002:	2300      	movs	r3, #0
 8005004:	60bb      	str	r3, [r7, #8]
 8005006:	4b7f      	ldr	r3, [pc, #508]	@ (8005204 <HAL_RCC_OscConfig+0x4ac>)
 8005008:	6c1b      	ldr	r3, [r3, #64]	@ 0x40
 800500a:	4a7e      	ldr	r2, [pc, #504]	@ (8005204 <HAL_RCC_OscConfig+0x4ac>)
 800500c:	f043 5380 	orr.w	r3, r3, #268435456	@ 0x10000000
 8005010:	6413      	str	r3, [r2, #64]	@ 0x40
 8005012:	4b7c      	ldr	r3, [pc, #496]	@ (8005204 <HAL_RCC_OscConfig+0x4ac>)
 8005014:	6c1b      	ldr	r3, [r3, #64]	@ 0x40
 8005016:	f003 5380 	and.w	r3, r3, #268435456	@ 0x10000000
 800501a:	60bb      	str	r3, [r7, #8]
 800501c:	68bb      	ldr	r3, [r7, #8]
      pwrclkchanged = SET;
 800501e:	2301      	movs	r3, #1
 8005020:	75fb      	strb	r3, [r7, #23]
    }

    if (HAL_IS_BIT_CLR(PWR->CR, PWR_CR_DBP))
 8005022:	4b79      	ldr	r3, [pc, #484]	@ (8005208 <HAL_RCC_OscConfig+0x4b0>)
 8005024:	681b      	ldr	r3, [r3, #0]
 8005026:	f403 7380 	and.w	r3, r3, #256	@ 0x100
 800502a:	2b00      	cmp	r3, #0
 800502c:	d118      	bne.n	8005060 <HAL_RCC_OscConfig+0x308>
    {
      /* Enable write access to Backup domain */
      SET_BIT(PWR->CR, PWR_CR_DBP);
 800502e:	4b76      	ldr	r3, [pc, #472]	@ (8005208 <HAL_RCC_OscConfig+0x4b0>)
 8005030:	681b      	ldr	r3, [r3, #0]
 8005032:	4a75      	ldr	r2, [pc, #468]	@ (8005208 <HAL_RCC_OscConfig+0x4b0>)
 8005034:	f443 7380 	orr.w	r3, r3, #256	@ 0x100
 8005038:	6013      	str	r3, [r2, #0]

      /* Wait for Backup domain Write protection disable */
      tickstart = HAL_GetTick();
 800503a:	f7fd fb7d 	bl	8002738 <HAL_GetTick>
 800503e:	6138      	str	r0, [r7, #16]

      while (HAL_IS_BIT_CLR(PWR->CR, PWR_CR_DBP))
 8005040:	e008      	b.n	8005054 <HAL_RCC_OscConfig+0x2fc>
      {
        if ((HAL_GetTick() - tickstart) > RCC_DBP_TIMEOUT_VALUE)
 8005042:	f7fd fb79 	bl	8002738 <HAL_GetTick>
 8005046:	4602      	mov	r2, r0
 8005048:	693b      	ldr	r3, [r7, #16]
 800504a:	1ad3      	subs	r3, r2, r3
 800504c:	2b02      	cmp	r3, #2
 800504e:	d901      	bls.n	8005054 <HAL_RCC_OscConfig+0x2fc>
        {
          return HAL_TIMEOUT;
 8005050:	2303      	movs	r3, #3
 8005052:	e118      	b.n	8005286 <HAL_RCC_OscConfig+0x52e>
      while (HAL_IS_BIT_CLR(PWR->CR, PWR_CR_DBP))
 8005054:	4b6c      	ldr	r3, [pc, #432]	@ (8005208 <HAL_RCC_OscConfig+0x4b0>)
 8005056:	681b      	ldr	r3, [r3, #0]
 8005058:	f403 7380 	and.w	r3, r3, #256	@ 0x100
 800505c:	2b00      	cmp	r3, #0
 800505e:	d0f0      	beq.n	8005042 <HAL_RCC_OscConfig+0x2ea>
        }
      }
    }

    /* Set the new LSE configuration -----------------------------------------*/
    __HAL_RCC_LSE_CONFIG(RCC_OscInitStruct->LSEState);
 8005060:	687b      	ldr	r3, [r7, #4]
 8005062:	689b      	ldr	r3, [r3, #8]
 8005064:	2b01      	cmp	r3, #1
 8005066:	d106      	bne.n	8005076 <HAL_RCC_OscConfig+0x31e>
 8005068:	4b66      	ldr	r3, [pc, #408]	@ (8005204 <HAL_RCC_OscConfig+0x4ac>)
 800506a:	6f1b      	ldr	r3, [r3, #112]	@ 0x70
 800506c:	4a65      	ldr	r2, [pc, #404]	@ (8005204 <HAL_RCC_OscConfig+0x4ac>)
 800506e:	f043 0301 	orr.w	r3, r3, #1
 8005072:	6713      	str	r3, [r2, #112]	@ 0x70
 8005074:	e01c      	b.n	80050b0 <HAL_RCC_OscConfig+0x358>
 8005076:	687b      	ldr	r3, [r7, #4]
 8005078:	689b      	ldr	r3, [r3, #8]
 800507a:	2b05      	cmp	r3, #5
 800507c:	d10c      	bne.n	8005098 <HAL_RCC_OscConfig+0x340>
 800507e:	4b61      	ldr	r3, [pc, #388]	@ (8005204 <HAL_RCC_OscConfig+0x4ac>)
 8005080:	6f1b      	ldr	r3, [r3, #112]	@ 0x70
 8005082:	4a60      	ldr	r2, [pc, #384]	@ (8005204 <HAL_RCC_OscConfig+0x4ac>)
 8005084:	f043 0304 	orr.w	r3, r3, #4
 8005088:	6713      	str	r3, [r2, #112]	@ 0x70
 800508a:	4b5e      	ldr	r3, [pc, #376]	@ (8005204 <HAL_RCC_OscConfig+0x4ac>)
 800508c:	6f1b      	ldr	r3, [r3, #112]	@ 0x70
 800508e:	4a5d      	ldr	r2, [pc, #372]	@ (8005204 <HAL_RCC_OscConfig+0x4ac>)
 8005090:	f043 0301 	orr.w	r3, r3, #1
 8005094:	6713      	str	r3, [r2, #112]	@ 0x70
 8005096:	e00b      	b.n	80050b0 <HAL_RCC_OscConfig+0x358>
 8005098:	4b5a      	ldr	r3, [pc, #360]	@ (8005204 <HAL_RCC_OscConfig+0x4ac>)
 800509a:	6f1b      	ldr	r3, [r3, #112]	@ 0x70
 800509c:	4a59      	ldr	r2, [pc, #356]	@ (8005204 <HAL_RCC_OscConfig+0x4ac>)
 800509e:	f023 0301 	bic.w	r3, r3, #1
 80050a2:	6713      	str	r3, [r2, #112]	@ 0x70
 80050a4:	4b57      	ldr	r3, [pc, #348]	@ (8005204 <HAL_RCC_OscConfig+0x4ac>)
 80050a6:	6f1b      	ldr	r3, [r3, #112]	@ 0x70
 80050a8:	4a56      	ldr	r2, [pc, #344]	@ (8005204 <HAL_RCC_OscConfig+0x4ac>)
 80050aa:	f023 0304 	bic.w	r3, r3, #4
 80050ae:	6713      	str	r3, [r2, #112]	@ 0x70
    /* Check the LSE State */
    if ((RCC_OscInitStruct->LSEState) != RCC_LSE_OFF)
 80050b0:	687b      	ldr	r3, [r7, #4]
 80050b2:	689b      	ldr	r3, [r3, #8]
 80050b4:	2b00      	cmp	r3, #0
 80050b6:	d015      	beq.n	80050e4 <HAL_RCC_OscConfig+0x38c>
    {
      /* Get Start Tick*/
      tickstart = HAL_GetTick();
 80050b8:	f7fd fb3e 	bl	8002738 <HAL_GetTick>
 80050bc:	6138      	str	r0, [r7, #16]

      /* Wait till LSE is ready */
      while (__HAL_RCC_GET_FLAG(RCC_FLAG_LSERDY) == RESET)
 80050be:	e00a      	b.n	80050d6 <HAL_RCC_OscConfig+0x37e>
      {
        if ((HAL_GetTick() - tickstart) > RCC_LSE_TIMEOUT_VALUE)
 80050c0:	f7fd fb3a 	bl	8002738 <HAL_GetTick>
 80050c4:	4602      	mov	r2, r0
 80050c6:	693b      	ldr	r3, [r7, #16]
 80050c8:	1ad3      	subs	r3, r2, r3
 80050ca:	f241 3288 	movw	r2, #5000	@ 0x1388
 80050ce:	4293      	cmp	r3, r2
 80050d0:	d901      	bls.n	80050d6 <HAL_RCC_OscConfig+0x37e>
        {
          return HAL_TIMEOUT;
 80050d2:	2303      	movs	r3, #3
 80050d4:	e0d7      	b.n	8005286 <HAL_RCC_OscConfig+0x52e>
      while (__HAL_RCC_GET_FLAG(RCC_FLAG_LSERDY) == RESET)
 80050d6:	4b4b      	ldr	r3, [pc, #300]	@ (8005204 <HAL_RCC_OscConfig+0x4ac>)
 80050d8:	6f1b      	ldr	r3, [r3, #112]	@ 0x70
 80050da:	f003 0302 	and.w	r3, r3, #2
 80050de:	2b00      	cmp	r3, #0
 80050e0:	d0ee      	beq.n	80050c0 <HAL_RCC_OscConfig+0x368>
 80050e2:	e014      	b.n	800510e <HAL_RCC_OscConfig+0x3b6>
      }
    }
    else
    {
      /* Get Start Tick*/
      tickstart = HAL_GetTick();
 80050e4:	f7fd fb28 	bl	8002738 <HAL_GetTick>
 80050e8:	6138      	str	r0, [r7, #16]

      /* Wait till LSE is ready */
      while (__HAL_RCC_GET_FLAG(RCC_FLAG_LSERDY) != RESET)
 80050ea:	e00a      	b.n	8005102 <HAL_RCC_OscConfig+0x3aa>
      {
        if ((HAL_GetTick() - tickstart) > RCC_LSE_TIMEOUT_VALUE)
 80050ec:	f7fd fb24 	bl	8002738 <HAL_GetTick>
 80050f0:	4602      	mov	r2, r0
 80050f2:	693b      	ldr	r3, [r7, #16]
 80050f4:	1ad3      	subs	r3, r2, r3
 80050f6:	f241 3288 	movw	r2, #5000	@ 0x1388
 80050fa:	4293      	cmp	r3, r2
 80050fc:	d901      	bls.n	8005102 <HAL_RCC_OscConfig+0x3aa>
        {
          return HAL_TIMEOUT;
 80050fe:	2303      	movs	r3, #3
 8005100:	e0c1      	b.n	8005286 <HAL_RCC_OscConfig+0x52e>
      while (__HAL_RCC_GET_FLAG(RCC_FLAG_LSERDY) != RESET)
 8005102:	4b40      	ldr	r3, [pc, #256]	@ (8005204 <HAL_RCC_OscConfig+0x4ac>)
 8005104:	6f1b      	ldr	r3, [r3, #112]	@ 0x70
 8005106:	f003 0302 	and.w	r3, r3, #2
 800510a:	2b00      	cmp	r3, #0
 800510c:	d1ee      	bne.n	80050ec <HAL_RCC_OscConfig+0x394>
        }
      }
    }

    /* Restore clock configuration if changed */
    if (pwrclkchanged == SET)
 800510e:	7dfb      	ldrb	r3, [r7, #23]
 8005110:	2b01      	cmp	r3, #1
 8005112:	d105      	bne.n	8005120 <HAL_RCC_OscConfig+0x3c8>
    {
      __HAL_RCC_PWR_CLK_DISABLE();
 8005114:	4b3b      	ldr	r3, [pc, #236]	@ (8005204 <HAL_RCC_OscConfig+0x4ac>)
 8005116:	6c1b      	ldr	r3, [r3, #64]	@ 0x40
 8005118:	4a3a      	ldr	r2, [pc, #232]	@ (8005204 <HAL_RCC_OscConfig+0x4ac>)
 800511a:	f023 5380 	bic.w	r3, r3, #268435456	@ 0x10000000
 800511e:	6413      	str	r3, [r2, #64]	@ 0x40
    }
  }
  /*-------------------------------- PLL Configuration -----------------------*/
  /* Check the parameters */
  assert_param(IS_RCC_PLL(RCC_OscInitStruct->PLL.PLLState));
  if ((RCC_OscInitStruct->PLL.PLLState) != RCC_PLL_NONE)
 8005120:	687b      	ldr	r3, [r7, #4]
 8005122:	699b      	ldr	r3, [r3, #24]
 8005124:	2b00      	cmp	r3, #0
 8005126:	f000 80ad 	beq.w	8005284 <HAL_RCC_OscConfig+0x52c>
  {
    /* Check if the PLL is used as system clock or not */
    if (__HAL_RCC_GET_SYSCLK_SOURCE() != RCC_CFGR_SWS_PLL)
 800512a:	4b36      	ldr	r3, [pc, #216]	@ (8005204 <HAL_RCC_OscConfig+0x4ac>)
 800512c:	689b      	ldr	r3, [r3, #8]
 800512e:	f003 030c 	and.w	r3, r3, #12
 8005132:	2b08      	cmp	r3, #8
 8005134:	d060      	beq.n	80051f8 <HAL_RCC_OscConfig+0x4a0>
    {
      if ((RCC_OscInitStruct->PLL.PLLState) == RCC_PLL_ON)
 8005136:	687b      	ldr	r3, [r7, #4]
 8005138:	699b      	ldr	r3, [r3, #24]
 800513a:	2b02      	cmp	r3, #2
 800513c:	d145      	bne.n	80051ca <HAL_RCC_OscConfig+0x472>
        assert_param(IS_RCC_PLLP_VALUE(RCC_OscInitStruct->PLL.PLLP));
        assert_param(IS_RCC_PLLQ_VALUE(RCC_OscInitStruct->PLL.PLLQ));
        assert_param(IS_RCC_PLLR_VALUE(RCC_OscInitStruct->PLL.PLLR));

        /* Disable the main PLL. */
        __HAL_RCC_PLL_DISABLE();
 800513e:	4b33      	ldr	r3, [pc, #204]	@ (800520c <HAL_RCC_OscConfig+0x4b4>)
 8005140:	2200      	movs	r2, #0
 8005142:	601a      	str	r2, [r3, #0]

        /* Get Start Tick*/
        tickstart = HAL_GetTick();
 8005144:	f7fd faf8 	bl	8002738 <HAL_GetTick>
 8005148:	6138      	str	r0, [r7, #16]

        /* Wait till PLL is ready */
        while (__HAL_RCC_GET_FLAG(RCC_FLAG_PLLRDY) != RESET)
 800514a:	e008      	b.n	800515e <HAL_RCC_OscConfig+0x406>
        {
          if ((HAL_GetTick() - tickstart) > PLL_TIMEOUT_VALUE)
 800514c:	f7fd faf4 	bl	8002738 <HAL_GetTick>
 8005150:	4602      	mov	r2, r0
 8005152:	693b      	ldr	r3, [r7, #16]
 8005154:	1ad3      	subs	r3, r2, r3
 8005156:	2b02      	cmp	r3, #2
 8005158:	d901      	bls.n	800515e <HAL_RCC_OscConfig+0x406>
          {
            return HAL_TIMEOUT;
 800515a:	2303      	movs	r3, #3
 800515c:	e093      	b.n	8005286 <HAL_RCC_OscConfig+0x52e>
        while (__HAL_RCC_GET_FLAG(RCC_FLAG_PLLRDY) != RESET)
 800515e:	4b29      	ldr	r3, [pc, #164]	@ (8005204 <HAL_RCC_OscConfig+0x4ac>)
 8005160:	681b      	ldr	r3, [r3, #0]
 8005162:	f003 7300 	and.w	r3, r3, #33554432	@ 0x2000000
 8005166:	2b00      	cmp	r3, #0
 8005168:	d1f0      	bne.n	800514c <HAL_RCC_OscConfig+0x3f4>
          }
        }

        /* Configure the main PLL clock source, multiplication and division factors. */
        WRITE_REG(RCC->PLLCFGR, (RCC_OscInitStruct->PLL.PLLSource                                            | \
 800516a:	687b      	ldr	r3, [r7, #4]
 800516c:	69da      	ldr	r2, [r3, #28]
 800516e:	687b      	ldr	r3, [r7, #4]
 8005170:	6a1b      	ldr	r3, [r3, #32]
 8005172:	431a      	orrs	r2, r3
 8005174:	687b      	ldr	r3, [r7, #4]
 8005176:	6a5b      	ldr	r3, [r3, #36]	@ 0x24
 8005178:	019b      	lsls	r3, r3, #6
 800517a:	431a      	orrs	r2, r3
 800517c:	687b      	ldr	r3, [r7, #4]
 800517e:	6a9b      	ldr	r3, [r3, #40]	@ 0x28
 8005180:	085b      	lsrs	r3, r3, #1
 8005182:	3b01      	subs	r3, #1
 8005184:	041b      	lsls	r3, r3, #16
 8005186:	431a      	orrs	r2, r3
 8005188:	687b      	ldr	r3, [r7, #4]
 800518a:	6adb      	ldr	r3, [r3, #44]	@ 0x2c
 800518c:	061b      	lsls	r3, r3, #24
 800518e:	431a      	orrs	r2, r3
 8005190:	687b      	ldr	r3, [r7, #4]
 8005192:	6b1b      	ldr	r3, [r3, #48]	@ 0x30
 8005194:	071b      	lsls	r3, r3, #28
 8005196:	491b      	ldr	r1, [pc, #108]	@ (8005204 <HAL_RCC_OscConfig+0x4ac>)
 8005198:	4313      	orrs	r3, r2
 800519a:	604b      	str	r3, [r1, #4]
                                 (RCC_OscInitStruct->PLL.PLLN << RCC_PLLCFGR_PLLN_Pos)                       | \
                                 (((RCC_OscInitStruct->PLL.PLLP >> 1U) - 1U) << RCC_PLLCFGR_PLLP_Pos)        | \
                                 (RCC_OscInitStruct->PLL.PLLQ << RCC_PLLCFGR_PLLQ_Pos)                       | \
                                 (RCC_OscInitStruct->PLL.PLLR << RCC_PLLCFGR_PLLR_Pos)));
        /* Enable the main PLL. */
        __HAL_RCC_PLL_ENABLE();
 800519c:	4b1b      	ldr	r3, [pc, #108]	@ (800520c <HAL_RCC_OscConfig+0x4b4>)
 800519e:	2201      	movs	r2, #1
 80051a0:	601a      	str	r2, [r3, #0]

        /* Get Start Tick*/
        tickstart = HAL_GetTick();
 80051a2:	f7fd fac9 	bl	8002738 <HAL_GetTick>
 80051a6:	6138      	str	r0, [r7, #16]

        /* Wait till PLL is ready */
        while (__HAL_RCC_GET_FLAG(RCC_FLAG_PLLRDY) == RESET)
 80051a8:	e008      	b.n	80051bc <HAL_RCC_OscConfig+0x464>
        {
          if ((HAL_GetTick() - tickstart) > PLL_TIMEOUT_VALUE)
 80051aa:	f7fd fac5 	bl	8002738 <HAL_GetTick>
 80051ae:	4602      	mov	r2, r0
 80051b0:	693b      	ldr	r3, [r7, #16]
 80051b2:	1ad3      	subs	r3, r2, r3
 80051b4:	2b02      	cmp	r3, #2
 80051b6:	d901      	bls.n	80051bc <HAL_RCC_OscConfig+0x464>
          {
            return HAL_TIMEOUT;
 80051b8:	2303      	movs	r3, #3
 80051ba:	e064      	b.n	8005286 <HAL_RCC_OscConfig+0x52e>
        while (__HAL_RCC_GET_FLAG(RCC_FLAG_PLLRDY) == RESET)
 80051bc:	4b11      	ldr	r3, [pc, #68]	@ (8005204 <HAL_RCC_OscConfig+0x4ac>)
 80051be:	681b      	ldr	r3, [r3, #0]
 80051c0:	f003 7300 	and.w	r3, r3, #33554432	@ 0x2000000
 80051c4:	2b00      	cmp	r3, #0
 80051c6:	d0f0      	beq.n	80051aa <HAL_RCC_OscConfig+0x452>
 80051c8:	e05c      	b.n	8005284 <HAL_RCC_OscConfig+0x52c>
        }
      }
      else
      {
        /* Disable the main PLL. */
        __HAL_RCC_PLL_DISABLE();
 80051ca:	4b10      	ldr	r3, [pc, #64]	@ (800520c <HAL_RCC_OscConfig+0x4b4>)
 80051cc:	2200      	movs	r2, #0
 80051ce:	601a      	str	r2, [r3, #0]

        /* Get Start Tick*/
        tickstart = HAL_GetTick();
 80051d0:	f7fd fab2 	bl	8002738 <HAL_GetTick>
 80051d4:	6138      	str	r0, [r7, #16]

        /* Wait till PLL is ready */
        while (__HAL_RCC_GET_FLAG(RCC_FLAG_PLLRDY) != RESET)
 80051d6:	e008      	b.n	80051ea <HAL_RCC_OscConfig+0x492>
        {
          if ((HAL_GetTick() - tickstart) > PLL_TIMEOUT_VALUE)
 80051d8:	f7fd faae 	bl	8002738 <HAL_GetTick>
 80051dc:	4602      	mov	r2, r0
 80051de:	693b      	ldr	r3, [r7, #16]
 80051e0:	1ad3      	subs	r3, r2, r3
 80051e2:	2b02      	cmp	r3, #2
 80051e4:	d901      	bls.n	80051ea <HAL_RCC_OscConfig+0x492>
          {
            return HAL_TIMEOUT;
 80051e6:	2303      	movs	r3, #3
 80051e8:	e04d      	b.n	8005286 <HAL_RCC_OscConfig+0x52e>
        while (__HAL_RCC_GET_FLAG(RCC_FLAG_PLLRDY) != RESET)
 80051ea:	4b06      	ldr	r3, [pc, #24]	@ (8005204 <HAL_RCC_OscConfig+0x4ac>)
 80051ec:	681b      	ldr	r3, [r3, #0]
 80051ee:	f003 7300 	and.w	r3, r3, #33554432	@ 0x2000000
 80051f2:	2b00      	cmp	r3, #0
 80051f4:	d1f0      	bne.n	80051d8 <HAL_RCC_OscConfig+0x480>
 80051f6:	e045      	b.n	8005284 <HAL_RCC_OscConfig+0x52c>
      }
    }
    else
    {
      /* Check if there is a request to disable the PLL used as System clock source */
      if ((RCC_OscInitStruct->PLL.PLLState) == RCC_PLL_OFF)
 80051f8:	687b      	ldr	r3, [r7, #4]
 80051fa:	699b      	ldr	r3, [r3, #24]
 80051fc:	2b01      	cmp	r3, #1
 80051fe:	d107      	bne.n	8005210 <HAL_RCC_OscConfig+0x4b8>
      {
        return HAL_ERROR;
 8005200:	2301      	movs	r3, #1
 8005202:	e040      	b.n	8005286 <HAL_RCC_OscConfig+0x52e>
 8005204:	40023800 	.word	0x40023800
 8005208:	40007000 	.word	0x40007000
 800520c:	42470060 	.word	0x42470060
      }
      else
      {
        /* Do not return HAL_ERROR if request repeats the current configuration */
        pll_config = RCC->PLLCFGR;
 8005210:	4b1f      	ldr	r3, [pc, #124]	@ (8005290 <HAL_RCC_OscConfig+0x538>)
 8005212:	685b      	ldr	r3, [r3, #4]
 8005214:	60fb      	str	r3, [r7, #12]
#if defined (RCC_PLLCFGR_PLLR)
        if (((RCC_OscInitStruct->PLL.PLLState) == RCC_PLL_OFF) ||
 8005216:	687b      	ldr	r3, [r7, #4]
 8005218:	699b      	ldr	r3, [r3, #24]
 800521a:	2b01      	cmp	r3, #1
 800521c:	d030      	beq.n	8005280 <HAL_RCC_OscConfig+0x528>
            (READ_BIT(pll_config, RCC_PLLCFGR_PLLSRC) != RCC_OscInitStruct->PLL.PLLSource) ||
 800521e:	68fb      	ldr	r3, [r7, #12]
 8005220:	f403 0280 	and.w	r2, r3, #4194304	@ 0x400000
 8005224:	687b      	ldr	r3, [r7, #4]
 8005226:	69db      	ldr	r3, [r3, #28]
        if (((RCC_OscInitStruct->PLL.PLLState) == RCC_PLL_OFF) ||
 8005228:	429a      	cmp	r2, r3
 800522a:	d129      	bne.n	8005280 <HAL_RCC_OscConfig+0x528>
            (READ_BIT(pll_config, RCC_PLLCFGR_PLLM) != (RCC_OscInitStruct->PLL.PLLM) << RCC_PLLCFGR_PLLM_Pos) ||
 800522c:	68fb      	ldr	r3, [r7, #12]
 800522e:	f003 023f 	and.w	r2, r3, #63	@ 0x3f
 8005232:	687b      	ldr	r3, [r7, #4]
 8005234:	6a1b      	ldr	r3, [r3, #32]
            (READ_BIT(pll_config, RCC_PLLCFGR_PLLSRC) != RCC_OscInitStruct->PLL.PLLSource) ||
 8005236:	429a      	cmp	r2, r3
 8005238:	d122      	bne.n	8005280 <HAL_RCC_OscConfig+0x528>
            (READ_BIT(pll_config, RCC_PLLCFGR_PLLN) != (RCC_OscInitStruct->PLL.PLLN) << RCC_PLLCFGR_PLLN_Pos) ||
 800523a:	68fa      	ldr	r2, [r7, #12]
 800523c:	f647 73c0 	movw	r3, #32704	@ 0x7fc0
 8005240:	4013      	ands	r3, r2
 8005242:	687a      	ldr	r2, [r7, #4]
 8005244:	6a52      	ldr	r2, [r2, #36]	@ 0x24
 8005246:	0192      	lsls	r2, r2, #6
            (READ_BIT(pll_config, RCC_PLLCFGR_PLLM) != (RCC_OscInitStruct->PLL.PLLM) << RCC_PLLCFGR_PLLM_Pos) ||
 8005248:	4293      	cmp	r3, r2
 800524a:	d119      	bne.n	8005280 <HAL_RCC_OscConfig+0x528>
            (READ_BIT(pll_config, RCC_PLLCFGR_PLLP) != (((RCC_OscInitStruct->PLL.PLLP >> 1U) - 1U)) << RCC_PLLCFGR_PLLP_Pos) ||
 800524c:	68fb      	ldr	r3, [r7, #12]
 800524e:	f403 3240 	and.w	r2, r3, #196608	@ 0x30000
 8005252:	687b      	ldr	r3, [r7, #4]
 8005254:	6a9b      	ldr	r3, [r3, #40]	@ 0x28
 8005256:	085b      	lsrs	r3, r3, #1
 8005258:	3b01      	subs	r3, #1
 800525a:	041b      	lsls	r3, r3, #16
            (READ_BIT(pll_config, RCC_PLLCFGR_PLLN) != (RCC_OscInitStruct->PLL.PLLN) << RCC_PLLCFGR_PLLN_Pos) ||
 800525c:	429a      	cmp	r2, r3
 800525e:	d10f      	bne.n	8005280 <HAL_RCC_OscConfig+0x528>
            (READ_BIT(pll_config, RCC_PLLCFGR_PLLQ) != (RCC_OscInitStruct->PLL.PLLQ << RCC_PLLCFGR_PLLQ_Pos)) ||
 8005260:	68fb      	ldr	r3, [r7, #12]
 8005262:	f003 6270 	and.w	r2, r3, #251658240	@ 0xf000000
 8005266:	687b      	ldr	r3, [r7, #4]
 8005268:	6adb      	ldr	r3, [r3, #44]	@ 0x2c
 800526a:	061b      	lsls	r3, r3, #24
            (READ_BIT(pll_config, RCC_PLLCFGR_PLLP) != (((RCC_OscInitStruct->PLL.PLLP >> 1U) - 1U)) << RCC_PLLCFGR_PLLP_Pos) ||
 800526c:	429a      	cmp	r2, r3
 800526e:	d107      	bne.n	8005280 <HAL_RCC_OscConfig+0x528>
            (READ_BIT(pll_config, RCC_PLLCFGR_PLLR) != (RCC_OscInitStruct->PLL.PLLR << RCC_PLLCFGR_PLLR_Pos)))
 8005270:	68fb      	ldr	r3, [r7, #12]
 8005272:	f003 42e0 	and.w	r2, r3, #1879048192	@ 0x70000000
 8005276:	687b      	ldr	r3, [r7, #4]
 8005278:	6b1b      	ldr	r3, [r3, #48]	@ 0x30
 800527a:	071b      	lsls	r3, r3, #28
            (READ_BIT(pll_config, RCC_PLLCFGR_PLLQ) != (RCC_OscInitStruct->PLL.PLLQ << RCC_PLLCFGR_PLLQ_Pos)) ||
 800527c:	429a      	cmp	r2, r3
 800527e:	d001      	beq.n	8005284 <HAL_RCC_OscConfig+0x52c>
            (READ_BIT(pll_config, RCC_PLLCFGR_PLLN) != (RCC_OscInitStruct->PLL.PLLN) << RCC_PLLCFGR_PLLN_Pos) ||
            (READ_BIT(pll_config, RCC_PLLCFGR_PLLP) != (((RCC_OscInitStruct->PLL.PLLP >> 1U) - 1U)) << RCC_PLLCFGR_PLLP_Pos) ||
            (READ_BIT(pll_config, RCC_PLLCFGR_PLLQ) != (RCC_OscInitStruct->PLL.PLLQ << RCC_PLLCFGR_PLLQ_Pos)))
#endif /* RCC_PLLCFGR_PLLR */
        {
          return HAL_ERROR;
 8005280:	2301      	movs	r3, #1
 8005282:	e000      	b.n	8005286 <HAL_RCC_OscConfig+0x52e>
        }
      }
    }
  }
  return HAL_OK;
 8005284:	2300      	movs	r3, #0
}
 8005286:	4618      	mov	r0, r3
 8005288:	3718      	adds	r7, #24
 800528a:	46bd      	mov	sp, r7
 800528c:	bd80      	pop	{r7, pc}
 800528e:	bf00      	nop
 8005290:	40023800 	.word	0x40023800

08005294 <HAL_UART_Init>:
  * @param  huart  Pointer to a UART_HandleTypeDef structure that contains
  *                the configuration information for the specified UART module.
  * @retval HAL status
  */
HAL_StatusTypeDef HAL_UART_Init(UART_HandleTypeDef *huart)
{
 8005294:	b580      	push	{r7, lr}
 8005296:	b082      	sub	sp, #8
 8005298:	af00      	add	r7, sp, #0
 800529a:	6078      	str	r0, [r7, #4]
  /* Check the UART handle allocation */
  if (huart == NULL)
 800529c:	687b      	ldr	r3, [r7, #4]
 800529e:	2b00      	cmp	r3, #0
 80052a0:	d101      	bne.n	80052a6 <HAL_UART_Init+0x12>
  {
    return HAL_ERROR;
 80052a2:	2301      	movs	r3, #1
 80052a4:	e042      	b.n	800532c <HAL_UART_Init+0x98>
    assert_param(IS_UART_INSTANCE(huart->Instance));
  }
  assert_param(IS_UART_WORD_LENGTH(huart->Init.WordLength));
  assert_param(IS_UART_OVERSAMPLING(huart->Init.OverSampling));

  if (huart->gState == HAL_UART_STATE_RESET)
 80052a6:	687b      	ldr	r3, [r7, #4]
 80052a8:	f893 3041 	ldrb.w	r3, [r3, #65]	@ 0x41
 80052ac:	b2db      	uxtb	r3, r3
 80052ae:	2b00      	cmp	r3, #0
 80052b0:	d106      	bne.n	80052c0 <HAL_UART_Init+0x2c>
  {
    /* Allocate lock resource and initialize it */
    huart->Lock = HAL_UNLOCKED;
 80052b2:	687b      	ldr	r3, [r7, #4]
 80052b4:	2200      	movs	r2, #0
 80052b6:	f883 2040 	strb.w	r2, [r3, #64]	@ 0x40

    /* Init the low level hardware */
    huart->MspInitCallback(huart);
#else
    /* Init the low level hardware : GPIO, CLOCK */
    HAL_UART_MspInit(huart);
 80052ba:	6878      	ldr	r0, [r7, #4]
 80052bc:	f7fd f848 	bl	8002350 <HAL_UART_MspInit>
#endif /* (USE_HAL_UART_REGISTER_CALLBACKS) */
  }

  huart->gState = HAL_UART_STATE_BUSY;
 80052c0:	687b      	ldr	r3, [r7, #4]
 80052c2:	2224      	movs	r2, #36	@ 0x24
 80052c4:	f883 2041 	strb.w	r2, [r3, #65]	@ 0x41

  /* Disable the peripheral */
  __HAL_UART_DISABLE(huart);
 80052c8:	687b      	ldr	r3, [r7, #4]
 80052ca:	681b      	ldr	r3, [r3, #0]
 80052cc:	68da      	ldr	r2, [r3, #12]
 80052ce:	687b      	ldr	r3, [r7, #4]
 80052d0:	681b      	ldr	r3, [r3, #0]
 80052d2:	f422 5200 	bic.w	r2, r2, #8192	@ 0x2000
 80052d6:	60da      	str	r2, [r3, #12]

  /* Set the UART Communication parameters */
  UART_SetConfig(huart);
 80052d8:	6878      	ldr	r0, [r7, #4]
 80052da:	f000 f973 	bl	80055c4 <UART_SetConfig>

  /* In asynchronous mode, the following bits must be kept cleared:
     - LINEN and CLKEN bits in the USART_CR2 register,
     - SCEN, HDSEL and IREN  bits in the USART_CR3 register.*/
  CLEAR_BIT(huart->Instance->CR2, (USART_CR2_LINEN | USART_CR2_CLKEN));
 80052de:	687b      	ldr	r3, [r7, #4]
 80052e0:	681b      	ldr	r3, [r3, #0]
 80052e2:	691a      	ldr	r2, [r3, #16]
 80052e4:	687b      	ldr	r3, [r7, #4]
 80052e6:	681b      	ldr	r3, [r3, #0]
 80052e8:	f422 4290 	bic.w	r2, r2, #18432	@ 0x4800
 80052ec:	611a      	str	r2, [r3, #16]
  CLEAR_BIT(huart->Instance->CR3, (USART_CR3_SCEN | USART_CR3_HDSEL | USART_CR3_IREN));
 80052ee:	687b      	ldr	r3, [r7, #4]
 80052f0:	681b      	ldr	r3, [r3, #0]
 80052f2:	695a      	ldr	r2, [r3, #20]
 80052f4:	687b      	ldr	r3, [r7, #4]
 80052f6:	681b      	ldr	r3, [r3, #0]
 80052f8:	f022 022a 	bic.w	r2, r2, #42	@ 0x2a
 80052fc:	615a      	str	r2, [r3, #20]

  /* Enable the peripheral */
  __HAL_UART_ENABLE(huart);
 80052fe:	687b      	ldr	r3, [r7, #4]
 8005300:	681b      	ldr	r3, [r3, #0]
 8005302:	68da      	ldr	r2, [r3, #12]
 8005304:	687b      	ldr	r3, [r7, #4]
 8005306:	681b      	ldr	r3, [r3, #0]
 8005308:	f442 5200 	orr.w	r2, r2, #8192	@ 0x2000
 800530c:	60da      	str	r2, [r3, #12]

  /* Initialize the UART state */
  huart->ErrorCode = HAL_UART_ERROR_NONE;
 800530e:	687b      	ldr	r3, [r7, #4]
 8005310:	2200      	movs	r2, #0
 8005312:	645a      	str	r2, [r3, #68]	@ 0x44
  huart->gState = HAL_UART_STATE_READY;
 8005314:	687b      	ldr	r3, [r7, #4]
 8005316:	2220      	movs	r2, #32
 8005318:	f883 2041 	strb.w	r2, [r3, #65]	@ 0x41
  huart->RxState = HAL_UART_STATE_READY;
 800531c:	687b      	ldr	r3, [r7, #4]
 800531e:	2220      	movs	r2, #32
 8005320:	f883 2042 	strb.w	r2, [r3, #66]	@ 0x42
  huart->RxEventType = HAL_UART_RXEVENT_TC;
 8005324:	687b      	ldr	r3, [r7, #4]
 8005326:	2200      	movs	r2, #0
 8005328:	635a      	str	r2, [r3, #52]	@ 0x34

  return HAL_OK;
 800532a:	2300      	movs	r3, #0
}
 800532c:	4618      	mov	r0, r3
 800532e:	3708      	adds	r7, #8
 8005330:	46bd      	mov	sp, r7
 8005332:	bd80      	pop	{r7, pc}

08005334 <HAL_UART_Transmit>:
  * @param  Size  Amount of data elements (u8 or u16) to be sent
  * @param  Timeout Timeout duration
  * @retval HAL status
  */
HAL_StatusTypeDef HAL_UART_Transmit(UART_HandleTypeDef *huart, const uint8_t *pData, uint16_t Size, uint32_t Timeout)
{
 8005334:	b580      	push	{r7, lr}
 8005336:	b08a      	sub	sp, #40	@ 0x28
 8005338:	af02      	add	r7, sp, #8
 800533a:	60f8      	str	r0, [r7, #12]
 800533c:	60b9      	str	r1, [r7, #8]
 800533e:	603b      	str	r3, [r7, #0]
 8005340:	4613      	mov	r3, r2
 8005342:	80fb      	strh	r3, [r7, #6]
  const uint8_t  *pdata8bits;
  const uint16_t *pdata16bits;
  uint32_t tickstart = 0U;
 8005344:	2300      	movs	r3, #0
 8005346:	617b      	str	r3, [r7, #20]

  /* Check that a Tx process is not already ongoing */
  if (huart->gState == HAL_UART_STATE_READY)
 8005348:	68fb      	ldr	r3, [r7, #12]
 800534a:	f893 3041 	ldrb.w	r3, [r3, #65]	@ 0x41
 800534e:	b2db      	uxtb	r3, r3
 8005350:	2b20      	cmp	r3, #32
 8005352:	d175      	bne.n	8005440 <HAL_UART_Transmit+0x10c>
  {
    if ((pData == NULL) || (Size == 0U))
 8005354:	68bb      	ldr	r3, [r7, #8]
 8005356:	2b00      	cmp	r3, #0
 8005358:	d002      	beq.n	8005360 <HAL_UART_Transmit+0x2c>
 800535a:	88fb      	ldrh	r3, [r7, #6]
 800535c:	2b00      	cmp	r3, #0
 800535e:	d101      	bne.n	8005364 <HAL_UART_Transmit+0x30>
    {
      return  HAL_ERROR;
 8005360:	2301      	movs	r3, #1
 8005362:	e06e      	b.n	8005442 <HAL_UART_Transmit+0x10e>
    }

    huart->ErrorCode = HAL_UART_ERROR_NONE;
 8005364:	68fb      	ldr	r3, [r7, #12]
 8005366:	2200      	movs	r2, #0
 8005368:	645a      	str	r2, [r3, #68]	@ 0x44
    huart->gState = HAL_UART_STATE_BUSY_TX;
 800536a:	68fb      	ldr	r3, [r7, #12]
 800536c:	2221      	movs	r2, #33	@ 0x21
 800536e:	f883 2041 	strb.w	r2, [r3, #65]	@ 0x41

    /* Init tickstart for timeout management */
    tickstart = HAL_GetTick();
 8005372:	f7fd f9e1 	bl	8002738 <HAL_GetTick>
 8005376:	6178      	str	r0, [r7, #20]

    huart->TxXferSize = Size;
 8005378:	68fb      	ldr	r3, [r7, #12]
 800537a:	88fa      	ldrh	r2, [r7, #6]
 800537c:	849a      	strh	r2, [r3, #36]	@ 0x24
    huart->TxXferCount = Size;
 800537e:	68fb      	ldr	r3, [r7, #12]
 8005380:	88fa      	ldrh	r2, [r7, #6]
 8005382:	84da      	strh	r2, [r3, #38]	@ 0x26

    /* In case of 9bits/No Parity transfer, pData needs to be handled as a uint16_t pointer */
    if ((huart->Init.WordLength == UART_WORDLENGTH_9B) && (huart->Init.Parity == UART_PARITY_NONE))
 8005384:	68fb      	ldr	r3, [r7, #12]
 8005386:	689b      	ldr	r3, [r3, #8]
 8005388:	f5b3 5f80 	cmp.w	r3, #4096	@ 0x1000
 800538c:	d108      	bne.n	80053a0 <HAL_UART_Transmit+0x6c>
 800538e:	68fb      	ldr	r3, [r7, #12]
 8005390:	691b      	ldr	r3, [r3, #16]
 8005392:	2b00      	cmp	r3, #0
 8005394:	d104      	bne.n	80053a0 <HAL_UART_Transmit+0x6c>
    {
      pdata8bits  = NULL;
 8005396:	2300      	movs	r3, #0
 8005398:	61fb      	str	r3, [r7, #28]
      pdata16bits = (const uint16_t *) pData;
 800539a:	68bb      	ldr	r3, [r7, #8]
 800539c:	61bb      	str	r3, [r7, #24]
 800539e:	e003      	b.n	80053a8 <HAL_UART_Transmit+0x74>
    }
    else
    {
      pdata8bits  = pData;
 80053a0:	68bb      	ldr	r3, [r7, #8]
 80053a2:	61fb      	str	r3, [r7, #28]
      pdata16bits = NULL;
 80053a4:	2300      	movs	r3, #0
 80053a6:	61bb      	str	r3, [r7, #24]
    }

    while (huart->TxXferCount > 0U)
 80053a8:	e02e      	b.n	8005408 <HAL_UART_Transmit+0xd4>
    {
      if (UART_WaitOnFlagUntilTimeout(huart, UART_FLAG_TXE, RESET, tickstart, Timeout) != HAL_OK)
 80053aa:	683b      	ldr	r3, [r7, #0]
 80053ac:	9300      	str	r3, [sp, #0]
 80053ae:	697b      	ldr	r3, [r7, #20]
 80053b0:	2200      	movs	r2, #0
 80053b2:	2180      	movs	r1, #128	@ 0x80
 80053b4:	68f8      	ldr	r0, [r7, #12]
 80053b6:	f000 f848 	bl	800544a <UART_WaitOnFlagUntilTimeout>
 80053ba:	4603      	mov	r3, r0
 80053bc:	2b00      	cmp	r3, #0
 80053be:	d005      	beq.n	80053cc <HAL_UART_Transmit+0x98>
      {
        huart->gState = HAL_UART_STATE_READY;
 80053c0:	68fb      	ldr	r3, [r7, #12]
 80053c2:	2220      	movs	r2, #32
 80053c4:	f883 2041 	strb.w	r2, [r3, #65]	@ 0x41

        return HAL_TIMEOUT;
 80053c8:	2303      	movs	r3, #3
 80053ca:	e03a      	b.n	8005442 <HAL_UART_Transmit+0x10e>
      }
      if (pdata8bits == NULL)
 80053cc:	69fb      	ldr	r3, [r7, #28]
 80053ce:	2b00      	cmp	r3, #0
 80053d0:	d10b      	bne.n	80053ea <HAL_UART_Transmit+0xb6>
      {
        huart->Instance->DR = (uint16_t)(*pdata16bits & 0x01FFU);
 80053d2:	69bb      	ldr	r3, [r7, #24]
 80053d4:	881b      	ldrh	r3, [r3, #0]
 80053d6:	461a      	mov	r2, r3
 80053d8:	68fb      	ldr	r3, [r7, #12]
 80053da:	681b      	ldr	r3, [r3, #0]
 80053dc:	f3c2 0208 	ubfx	r2, r2, #0, #9
 80053e0:	605a      	str	r2, [r3, #4]
        pdata16bits++;
 80053e2:	69bb      	ldr	r3, [r7, #24]
 80053e4:	3302      	adds	r3, #2
 80053e6:	61bb      	str	r3, [r7, #24]
 80053e8:	e007      	b.n	80053fa <HAL_UART_Transmit+0xc6>
      }
      else
      {
        huart->Instance->DR = (uint8_t)(*pdata8bits & 0xFFU);
 80053ea:	69fb      	ldr	r3, [r7, #28]
 80053ec:	781a      	ldrb	r2, [r3, #0]
 80053ee:	68fb      	ldr	r3, [r7, #12]
 80053f0:	681b      	ldr	r3, [r3, #0]
 80053f2:	605a      	str	r2, [r3, #4]
        pdata8bits++;
 80053f4:	69fb      	ldr	r3, [r7, #28]
 80053f6:	3301      	adds	r3, #1
 80053f8:	61fb      	str	r3, [r7, #28]
      }
      huart->TxXferCount--;
 80053fa:	68fb      	ldr	r3, [r7, #12]
 80053fc:	8cdb      	ldrh	r3, [r3, #38]	@ 0x26
 80053fe:	b29b      	uxth	r3, r3
 8005400:	3b01      	subs	r3, #1
 8005402:	b29a      	uxth	r2, r3
 8005404:	68fb      	ldr	r3, [r7, #12]
 8005406:	84da      	strh	r2, [r3, #38]	@ 0x26
    while (huart->TxXferCount > 0U)
 8005408:	68fb      	ldr	r3, [r7, #12]
 800540a:	8cdb      	ldrh	r3, [r3, #38]	@ 0x26
 800540c:	b29b      	uxth	r3, r3
 800540e:	2b00      	cmp	r3, #0
 8005410:	d1cb      	bne.n	80053aa <HAL_UART_Transmit+0x76>
    }

    if (UART_WaitOnFlagUntilTimeout(huart, UART_FLAG_TC, RESET, tickstart, Timeout) != HAL_OK)
 8005412:	683b      	ldr	r3, [r7, #0]
 8005414:	9300      	str	r3, [sp, #0]
 8005416:	697b      	ldr	r3, [r7, #20]
 8005418:	2200      	movs	r2, #0
 800541a:	2140      	movs	r1, #64	@ 0x40
 800541c:	68f8      	ldr	r0, [r7, #12]
 800541e:	f000 f814 	bl	800544a <UART_WaitOnFlagUntilTimeout>
 8005422:	4603      	mov	r3, r0
 8005424:	2b00      	cmp	r3, #0
 8005426:	d005      	beq.n	8005434 <HAL_UART_Transmit+0x100>
    {
      huart->gState = HAL_UART_STATE_READY;
 8005428:	68fb      	ldr	r3, [r7, #12]
 800542a:	2220      	movs	r2, #32
 800542c:	f883 2041 	strb.w	r2, [r3, #65]	@ 0x41

      return HAL_TIMEOUT;
 8005430:	2303      	movs	r3, #3
 8005432:	e006      	b.n	8005442 <HAL_UART_Transmit+0x10e>
    }

    /* At end of Tx process, restore huart->gState to Ready */
    huart->gState = HAL_UART_STATE_READY;
 8005434:	68fb      	ldr	r3, [r7, #12]
 8005436:	2220      	movs	r2, #32
 8005438:	f883 2041 	strb.w	r2, [r3, #65]	@ 0x41

    return HAL_OK;
 800543c:	2300      	movs	r3, #0
 800543e:	e000      	b.n	8005442 <HAL_UART_Transmit+0x10e>
  }
  else
  {
    return HAL_BUSY;
 8005440:	2302      	movs	r3, #2
  }
}
 8005442:	4618      	mov	r0, r3
 8005444:	3720      	adds	r7, #32
 8005446:	46bd      	mov	sp, r7
 8005448:	bd80      	pop	{r7, pc}

0800544a <UART_WaitOnFlagUntilTimeout>:
  * @param  Timeout Timeout duration
  * @retval HAL status
  */
static HAL_StatusTypeDef UART_WaitOnFlagUntilTimeout(UART_HandleTypeDef *huart, uint32_t Flag, FlagStatus Status,
                                                     uint32_t Tickstart, uint32_t Timeout)
{
 800544a:	b580      	push	{r7, lr}
 800544c:	b086      	sub	sp, #24
 800544e:	af00      	add	r7, sp, #0
 8005450:	60f8      	str	r0, [r7, #12]
 8005452:	60b9      	str	r1, [r7, #8]
 8005454:	603b      	str	r3, [r7, #0]
 8005456:	4613      	mov	r3, r2
 8005458:	71fb      	strb	r3, [r7, #7]
  /* Wait until flag is set */
  while ((__HAL_UART_GET_FLAG(huart, Flag) ? SET : RESET) == Status)
 800545a:	e03b      	b.n	80054d4 <UART_WaitOnFlagUntilTimeout+0x8a>
  {
    /* Check for the Timeout */
    if (Timeout != HAL_MAX_DELAY)
 800545c:	6a3b      	ldr	r3, [r7, #32]
 800545e:	f1b3 3fff 	cmp.w	r3, #4294967295	@ 0xffffffff
 8005462:	d037      	beq.n	80054d4 <UART_WaitOnFlagUntilTimeout+0x8a>
    {
      if (((HAL_GetTick() - Tickstart) > Timeout) || (Timeout == 0U))
 8005464:	f7fd f968 	bl	8002738 <HAL_GetTick>
 8005468:	4602      	mov	r2, r0
 800546a:	683b      	ldr	r3, [r7, #0]
 800546c:	1ad3      	subs	r3, r2, r3
 800546e:	6a3a      	ldr	r2, [r7, #32]
 8005470:	429a      	cmp	r2, r3
 8005472:	d302      	bcc.n	800547a <UART_WaitOnFlagUntilTimeout+0x30>
 8005474:	6a3b      	ldr	r3, [r7, #32]
 8005476:	2b00      	cmp	r3, #0
 8005478:	d101      	bne.n	800547e <UART_WaitOnFlagUntilTimeout+0x34>
      {

        return HAL_TIMEOUT;
 800547a:	2303      	movs	r3, #3
 800547c:	e03a      	b.n	80054f4 <UART_WaitOnFlagUntilTimeout+0xaa>
      }

      if ((READ_BIT(huart->Instance->CR1, USART_CR1_RE) != 0U) && (Flag != UART_FLAG_TXE) && (Flag != UART_FLAG_TC))
 800547e:	68fb      	ldr	r3, [r7, #12]
 8005480:	681b      	ldr	r3, [r3, #0]
 8005482:	68db      	ldr	r3, [r3, #12]
 8005484:	f003 0304 	and.w	r3, r3, #4
 8005488:	2b00      	cmp	r3, #0
 800548a:	d023      	beq.n	80054d4 <UART_WaitOnFlagUntilTimeout+0x8a>
 800548c:	68bb      	ldr	r3, [r7, #8]
 800548e:	2b80      	cmp	r3, #128	@ 0x80
 8005490:	d020      	beq.n	80054d4 <UART_WaitOnFlagUntilTimeout+0x8a>
 8005492:	68bb      	ldr	r3, [r7, #8]
 8005494:	2b40      	cmp	r3, #64	@ 0x40
 8005496:	d01d      	beq.n	80054d4 <UART_WaitOnFlagUntilTimeout+0x8a>
      {
        if (__HAL_UART_GET_FLAG(huart, UART_FLAG_ORE) == SET)
 8005498:	68fb      	ldr	r3, [r7, #12]
 800549a:	681b      	ldr	r3, [r3, #0]
 800549c:	681b      	ldr	r3, [r3, #0]
 800549e:	f003 0308 	and.w	r3, r3, #8
 80054a2:	2b08      	cmp	r3, #8
 80054a4:	d116      	bne.n	80054d4 <UART_WaitOnFlagUntilTimeout+0x8a>
        {
          /* Clear Overrun Error flag*/
          __HAL_UART_CLEAR_OREFLAG(huart);
 80054a6:	2300      	movs	r3, #0
 80054a8:	617b      	str	r3, [r7, #20]
 80054aa:	68fb      	ldr	r3, [r7, #12]
 80054ac:	681b      	ldr	r3, [r3, #0]
 80054ae:	681b      	ldr	r3, [r3, #0]
 80054b0:	617b      	str	r3, [r7, #20]
 80054b2:	68fb      	ldr	r3, [r7, #12]
 80054b4:	681b      	ldr	r3, [r3, #0]
 80054b6:	685b      	ldr	r3, [r3, #4]
 80054b8:	617b      	str	r3, [r7, #20]
 80054ba:	697b      	ldr	r3, [r7, #20]

          /* Blocking error : transfer is aborted
          Set the UART state ready to be able to start again the process,
          Disable Rx Interrupts if ongoing */
          UART_EndRxTransfer(huart);
 80054bc:	68f8      	ldr	r0, [r7, #12]
 80054be:	f000 f81d 	bl	80054fc <UART_EndRxTransfer>

          huart->ErrorCode = HAL_UART_ERROR_ORE;
 80054c2:	68fb      	ldr	r3, [r7, #12]
 80054c4:	2208      	movs	r2, #8
 80054c6:	645a      	str	r2, [r3, #68]	@ 0x44

          /* Process Unlocked */
          __HAL_UNLOCK(huart);
 80054c8:	68fb      	ldr	r3, [r7, #12]
 80054ca:	2200      	movs	r2, #0
 80054cc:	f883 2040 	strb.w	r2, [r3, #64]	@ 0x40

          return HAL_ERROR;
 80054d0:	2301      	movs	r3, #1
 80054d2:	e00f      	b.n	80054f4 <UART_WaitOnFlagUntilTimeout+0xaa>
  while ((__HAL_UART_GET_FLAG(huart, Flag) ? SET : RESET) == Status)
 80054d4:	68fb      	ldr	r3, [r7, #12]
 80054d6:	681b      	ldr	r3, [r3, #0]
 80054d8:	681a      	ldr	r2, [r3, #0]
 80054da:	68bb      	ldr	r3, [r7, #8]
 80054dc:	4013      	ands	r3, r2
 80054de:	68ba      	ldr	r2, [r7, #8]
 80054e0:	429a      	cmp	r2, r3
 80054e2:	bf0c      	ite	eq
 80054e4:	2301      	moveq	r3, #1
 80054e6:	2300      	movne	r3, #0
 80054e8:	b2db      	uxtb	r3, r3
 80054ea:	461a      	mov	r2, r3
 80054ec:	79fb      	ldrb	r3, [r7, #7]
 80054ee:	429a      	cmp	r2, r3
 80054f0:	d0b4      	beq.n	800545c <UART_WaitOnFlagUntilTimeout+0x12>
        }
      }
    }
  }
  return HAL_OK;
 80054f2:	2300      	movs	r3, #0
}
 80054f4:	4618      	mov	r0, r3
 80054f6:	3718      	adds	r7, #24
 80054f8:	46bd      	mov	sp, r7
 80054fa:	bd80      	pop	{r7, pc}

080054fc <UART_EndRxTransfer>:
  * @brief  End ongoing Rx transfer on UART peripheral (following error detection or Reception completion).
  * @param  huart UART handle.
  * @retval None
  */
static void UART_EndRxTransfer(UART_HandleTypeDef *huart)
{
 80054fc:	b480      	push	{r7}
 80054fe:	b095      	sub	sp, #84	@ 0x54
 8005500:	af00      	add	r7, sp, #0
 8005502:	6078      	str	r0, [r7, #4]
  /* Disable RXNE, PE and ERR (Frame error, noise error, overrun error) interrupts */
  ATOMIC_CLEAR_BIT(huart->Instance->CR1, (USART_CR1_RXNEIE | USART_CR1_PEIE));
 8005504:	687b      	ldr	r3, [r7, #4]
 8005506:	681b      	ldr	r3, [r3, #0]
 8005508:	330c      	adds	r3, #12
 800550a:	637b      	str	r3, [r7, #52]	@ 0x34
   __ASM volatile ("ldrex %0, %1" : "=r" (result) : "Q" (*addr) );
 800550c:	6b7b      	ldr	r3, [r7, #52]	@ 0x34
 800550e:	e853 3f00 	ldrex	r3, [r3]
 8005512:	633b      	str	r3, [r7, #48]	@ 0x30
   return(result);
 8005514:	6b3b      	ldr	r3, [r7, #48]	@ 0x30
 8005516:	f423 7390 	bic.w	r3, r3, #288	@ 0x120
 800551a:	64fb      	str	r3, [r7, #76]	@ 0x4c
 800551c:	687b      	ldr	r3, [r7, #4]
 800551e:	681b      	ldr	r3, [r3, #0]
 8005520:	330c      	adds	r3, #12
 8005522:	6cfa      	ldr	r2, [r7, #76]	@ 0x4c
 8005524:	643a      	str	r2, [r7, #64]	@ 0x40
 8005526:	63fb      	str	r3, [r7, #60]	@ 0x3c
   __ASM volatile ("strex %0, %2, %1" : "=&r" (result), "=Q" (*addr) : "r" (value) );
 8005528:	6bf9      	ldr	r1, [r7, #60]	@ 0x3c
 800552a:	6c3a      	ldr	r2, [r7, #64]	@ 0x40
 800552c:	e841 2300 	strex	r3, r2, [r1]
 8005530:	63bb      	str	r3, [r7, #56]	@ 0x38
   return(result);
 8005532:	6bbb      	ldr	r3, [r7, #56]	@ 0x38
 8005534:	2b00      	cmp	r3, #0
 8005536:	d1e5      	bne.n	8005504 <UART_EndRxTransfer+0x8>
  ATOMIC_CLEAR_BIT(huart->Instance->CR3, USART_CR3_EIE);
 8005538:	687b      	ldr	r3, [r7, #4]
 800553a:	681b      	ldr	r3, [r3, #0]
 800553c:	3314      	adds	r3, #20
 800553e:	623b      	str	r3, [r7, #32]
   __ASM volatile ("ldrex %0, %1" : "=r" (result) : "Q" (*addr) );
 8005540:	6a3b      	ldr	r3, [r7, #32]
 8005542:	e853 3f00 	ldrex	r3, [r3]
 8005546:	61fb      	str	r3, [r7, #28]
   return(result);
 8005548:	69fb      	ldr	r3, [r7, #28]
 800554a:	f023 0301 	bic.w	r3, r3, #1
 800554e:	64bb      	str	r3, [r7, #72]	@ 0x48
 8005550:	687b      	ldr	r3, [r7, #4]
 8005552:	681b      	ldr	r3, [r3, #0]
 8005554:	3314      	adds	r3, #20
 8005556:	6cba      	ldr	r2, [r7, #72]	@ 0x48
 8005558:	62fa      	str	r2, [r7, #44]	@ 0x2c
 800555a:	62bb      	str	r3, [r7, #40]	@ 0x28
   __ASM volatile ("strex %0, %2, %1" : "=&r" (result), "=Q" (*addr) : "r" (value) );
 800555c:	6ab9      	ldr	r1, [r7, #40]	@ 0x28
 800555e:	6afa      	ldr	r2, [r7, #44]	@ 0x2c
 8005560:	e841 2300 	strex	r3, r2, [r1]
 8005564:	627b      	str	r3, [r7, #36]	@ 0x24
   return(result);
 8005566:	6a7b      	ldr	r3, [r7, #36]	@ 0x24
 8005568:	2b00      	cmp	r3, #0
 800556a:	d1e5      	bne.n	8005538 <UART_EndRxTransfer+0x3c>

  /* In case of reception waiting for IDLE event, disable also the IDLE IE interrupt source */
  if (huart->ReceptionType == HAL_UART_RECEPTION_TOIDLE)
 800556c:	687b      	ldr	r3, [r7, #4]
 800556e:	6b1b      	ldr	r3, [r3, #48]	@ 0x30
 8005570:	2b01      	cmp	r3, #1
 8005572:	d119      	bne.n	80055a8 <UART_EndRxTransfer+0xac>
  {
    ATOMIC_CLEAR_BIT(huart->Instance->CR1, USART_CR1_IDLEIE);
 8005574:	687b      	ldr	r3, [r7, #4]
 8005576:	681b      	ldr	r3, [r3, #0]
 8005578:	330c      	adds	r3, #12
 800557a:	60fb      	str	r3, [r7, #12]
   __ASM volatile ("ldrex %0, %1" : "=r" (result) : "Q" (*addr) );
 800557c:	68fb      	ldr	r3, [r7, #12]
 800557e:	e853 3f00 	ldrex	r3, [r3]
 8005582:	60bb      	str	r3, [r7, #8]
   return(result);
 8005584:	68bb      	ldr	r3, [r7, #8]
 8005586:	f023 0310 	bic.w	r3, r3, #16
 800558a:	647b      	str	r3, [r7, #68]	@ 0x44
 800558c:	687b      	ldr	r3, [r7, #4]
 800558e:	681b      	ldr	r3, [r3, #0]
 8005590:	330c      	adds	r3, #12
 8005592:	6c7a      	ldr	r2, [r7, #68]	@ 0x44
 8005594:	61ba      	str	r2, [r7, #24]
 8005596:	617b      	str	r3, [r7, #20]
   __ASM volatile ("strex %0, %2, %1" : "=&r" (result), "=Q" (*addr) : "r" (value) );
 8005598:	6979      	ldr	r1, [r7, #20]
 800559a:	69ba      	ldr	r2, [r7, #24]
 800559c:	e841 2300 	strex	r3, r2, [r1]
 80055a0:	613b      	str	r3, [r7, #16]
   return(result);
 80055a2:	693b      	ldr	r3, [r7, #16]
 80055a4:	2b00      	cmp	r3, #0
 80055a6:	d1e5      	bne.n	8005574 <UART_EndRxTransfer+0x78>
  }

  /* At end of Rx process, restore huart->RxState to Ready */
  huart->RxState = HAL_UART_STATE_READY;
 80055a8:	687b      	ldr	r3, [r7, #4]
 80055aa:	2220      	movs	r2, #32
 80055ac:	f883 2042 	strb.w	r2, [r3, #66]	@ 0x42
  huart->ReceptionType = HAL_UART_RECEPTION_STANDARD;
 80055b0:	687b      	ldr	r3, [r7, #4]
 80055b2:	2200      	movs	r2, #0
 80055b4:	631a      	str	r2, [r3, #48]	@ 0x30
}
 80055b6:	bf00      	nop
 80055b8:	3754      	adds	r7, #84	@ 0x54
 80055ba:	46bd      	mov	sp, r7
 80055bc:	f85d 7b04 	ldr.w	r7, [sp], #4
 80055c0:	4770      	bx	lr
	...

080055c4 <UART_SetConfig>:
  * @param  huart  Pointer to a UART_HandleTypeDef structure that contains
  *                the configuration information for the specified UART module.
  * @retval None
  */
static void UART_SetConfig(UART_HandleTypeDef *huart)
{
 80055c4:	e92d 4fb0 	stmdb	sp!, {r4, r5, r7, r8, r9, sl, fp, lr}
 80055c8:	b0c0      	sub	sp, #256	@ 0x100
 80055ca:	af00      	add	r7, sp, #0
 80055cc:	f8c7 00f4 	str.w	r0, [r7, #244]	@ 0xf4
  assert_param(IS_UART_MODE(huart->Init.Mode));

  /*-------------------------- USART CR2 Configuration -----------------------*/
  /* Configure the UART Stop Bits: Set STOP[13:12] bits
     according to huart->Init.StopBits value */
  MODIFY_REG(huart->Instance->CR2, USART_CR2_STOP, huart->Init.StopBits);
 80055d0:	f8d7 30f4 	ldr.w	r3, [r7, #244]	@ 0xf4
 80055d4:	681b      	ldr	r3, [r3, #0]
 80055d6:	691b      	ldr	r3, [r3, #16]
 80055d8:	f423 5040 	bic.w	r0, r3, #12288	@ 0x3000
 80055dc:	f8d7 30f4 	ldr.w	r3, [r7, #244]	@ 0xf4
 80055e0:	68d9      	ldr	r1, [r3, #12]
 80055e2:	f8d7 30f4 	ldr.w	r3, [r7, #244]	@ 0xf4
 80055e6:	681a      	ldr	r2, [r3, #0]
 80055e8:	ea40 0301 	orr.w	r3, r0, r1
 80055ec:	6113      	str	r3, [r2, #16]
     Set the M bits according to huart->Init.WordLength value
     Set PCE and PS bits according to huart->Init.Parity value
     Set TE and RE bits according to huart->Init.Mode value
     Set OVER8 bit according to huart->Init.OverSampling value */

  tmpreg = (uint32_t)huart->Init.WordLength | huart->Init.Parity | huart->Init.Mode | huart->Init.OverSampling;
 80055ee:	f8d7 30f4 	ldr.w	r3, [r7, #244]	@ 0xf4
 80055f2:	689a      	ldr	r2, [r3, #8]
 80055f4:	f8d7 30f4 	ldr.w	r3, [r7, #244]	@ 0xf4
 80055f8:	691b      	ldr	r3, [r3, #16]
 80055fa:	431a      	orrs	r2, r3
 80055fc:	f8d7 30f4 	ldr.w	r3, [r7, #244]	@ 0xf4
 8005600:	695b      	ldr	r3, [r3, #20]
 8005602:	431a      	orrs	r2, r3
 8005604:	f8d7 30f4 	ldr.w	r3, [r7, #244]	@ 0xf4
 8005608:	69db      	ldr	r3, [r3, #28]
 800560a:	4313      	orrs	r3, r2
 800560c:	f8c7 30f8 	str.w	r3, [r7, #248]	@ 0xf8
  MODIFY_REG(huart->Instance->CR1,
 8005610:	f8d7 30f4 	ldr.w	r3, [r7, #244]	@ 0xf4
 8005614:	681b      	ldr	r3, [r3, #0]
 8005616:	68db      	ldr	r3, [r3, #12]
 8005618:	f423 4116 	bic.w	r1, r3, #38400	@ 0x9600
 800561c:	f021 010c 	bic.w	r1, r1, #12
 8005620:	f8d7 30f4 	ldr.w	r3, [r7, #244]	@ 0xf4
 8005624:	681a      	ldr	r2, [r3, #0]
 8005626:	f8d7 30f8 	ldr.w	r3, [r7, #248]	@ 0xf8
 800562a:	430b      	orrs	r3, r1
 800562c:	60d3      	str	r3, [r2, #12]
             (uint32_t)(USART_CR1_M | USART_CR1_PCE | USART_CR1_PS | USART_CR1_TE | USART_CR1_RE | USART_CR1_OVER8),
             tmpreg);

  /*-------------------------- USART CR3 Configuration -----------------------*/
  /* Configure the UART HFC: Set CTSE and RTSE bits according to huart->Init.HwFlowCtl value */
  MODIFY_REG(huart->Instance->CR3, (USART_CR3_RTSE | USART_CR3_CTSE), huart->Init.HwFlowCtl);
 800562e:	f8d7 30f4 	ldr.w	r3, [r7, #244]	@ 0xf4
 8005632:	681b      	ldr	r3, [r3, #0]
 8005634:	695b      	ldr	r3, [r3, #20]
 8005636:	f423 7040 	bic.w	r0, r3, #768	@ 0x300
 800563a:	f8d7 30f4 	ldr.w	r3, [r7, #244]	@ 0xf4
 800563e:	6999      	ldr	r1, [r3, #24]
 8005640:	f8d7 30f4 	ldr.w	r3, [r7, #244]	@ 0xf4
 8005644:	681a      	ldr	r2, [r3, #0]
 8005646:	ea40 0301 	orr.w	r3, r0, r1
 800564a:	6153      	str	r3, [r2, #20]
    if ((huart->Instance == USART1) || (huart->Instance == USART6) || (huart->Instance == UART9) || (huart->Instance == UART10))
    {
      pclk = HAL_RCC_GetPCLK2Freq();
    }
#elif defined(USART6)
    if ((huart->Instance == USART1) || (huart->Instance == USART6))
 800564c:	f8d7 30f4 	ldr.w	r3, [r7, #244]	@ 0xf4
 8005650:	681a      	ldr	r2, [r3, #0]
 8005652:	4b8f      	ldr	r3, [pc, #572]	@ (8005890 <UART_SetConfig+0x2cc>)
 8005654:	429a      	cmp	r2, r3
 8005656:	d005      	beq.n	8005664 <UART_SetConfig+0xa0>
 8005658:	f8d7 30f4 	ldr.w	r3, [r7, #244]	@ 0xf4
 800565c:	681a      	ldr	r2, [r3, #0]
 800565e:	4b8d      	ldr	r3, [pc, #564]	@ (8005894 <UART_SetConfig+0x2d0>)
 8005660:	429a      	cmp	r2, r3
 8005662:	d104      	bne.n	800566e <UART_SetConfig+0xaa>
    {
      pclk = HAL_RCC_GetPCLK2Freq();
 8005664:	f7ff f934 	bl	80048d0 <HAL_RCC_GetPCLK2Freq>
 8005668:	f8c7 00fc 	str.w	r0, [r7, #252]	@ 0xfc
 800566c:	e003      	b.n	8005676 <UART_SetConfig+0xb2>
      pclk = HAL_RCC_GetPCLK2Freq();
    }
#endif /* USART6 */
    else
    {
      pclk = HAL_RCC_GetPCLK1Freq();
 800566e:	f7ff f91b 	bl	80048a8 <HAL_RCC_GetPCLK1Freq>
 8005672:	f8c7 00fc 	str.w	r0, [r7, #252]	@ 0xfc
    }
  /*-------------------------- USART BRR Configuration ---------------------*/
  if (huart->Init.OverSampling == UART_OVERSAMPLING_8)
 8005676:	f8d7 30f4 	ldr.w	r3, [r7, #244]	@ 0xf4
 800567a:	69db      	ldr	r3, [r3, #28]
 800567c:	f5b3 4f00 	cmp.w	r3, #32768	@ 0x8000
 8005680:	f040 810c 	bne.w	800589c <UART_SetConfig+0x2d8>
  {
    huart->Instance->BRR = UART_BRR_SAMPLING8(pclk, huart->Init.BaudRate);
 8005684:	f8d7 30fc 	ldr.w	r3, [r7, #252]	@ 0xfc
 8005688:	2200      	movs	r2, #0
 800568a:	f8c7 30e8 	str.w	r3, [r7, #232]	@ 0xe8
 800568e:	f8c7 20ec 	str.w	r2, [r7, #236]	@ 0xec
 8005692:	e9d7 453a 	ldrd	r4, r5, [r7, #232]	@ 0xe8
 8005696:	4622      	mov	r2, r4
 8005698:	462b      	mov	r3, r5
 800569a:	1891      	adds	r1, r2, r2
 800569c:	65b9      	str	r1, [r7, #88]	@ 0x58
 800569e:	415b      	adcs	r3, r3
 80056a0:	65fb      	str	r3, [r7, #92]	@ 0x5c
 80056a2:	e9d7 2316 	ldrd	r2, r3, [r7, #88]	@ 0x58
 80056a6:	4621      	mov	r1, r4
 80056a8:	eb12 0801 	adds.w	r8, r2, r1
 80056ac:	4629      	mov	r1, r5
 80056ae:	eb43 0901 	adc.w	r9, r3, r1
 80056b2:	f04f 0200 	mov.w	r2, #0
 80056b6:	f04f 0300 	mov.w	r3, #0
 80056ba:	ea4f 03c9 	mov.w	r3, r9, lsl #3
 80056be:	ea43 7358 	orr.w	r3, r3, r8, lsr #29
 80056c2:	ea4f 02c8 	mov.w	r2, r8, lsl #3
 80056c6:	4690      	mov	r8, r2
 80056c8:	4699      	mov	r9, r3
 80056ca:	4623      	mov	r3, r4
 80056cc:	eb18 0303 	adds.w	r3, r8, r3
 80056d0:	f8c7 30e0 	str.w	r3, [r7, #224]	@ 0xe0
 80056d4:	462b      	mov	r3, r5
 80056d6:	eb49 0303 	adc.w	r3, r9, r3
 80056da:	f8c7 30e4 	str.w	r3, [r7, #228]	@ 0xe4
 80056de:	f8d7 30f4 	ldr.w	r3, [r7, #244]	@ 0xf4
 80056e2:	685b      	ldr	r3, [r3, #4]
 80056e4:	2200      	movs	r2, #0
 80056e6:	f8c7 30d8 	str.w	r3, [r7, #216]	@ 0xd8
 80056ea:	f8c7 20dc 	str.w	r2, [r7, #220]	@ 0xdc
 80056ee:	e9d7 1236 	ldrd	r1, r2, [r7, #216]	@ 0xd8
 80056f2:	460b      	mov	r3, r1
 80056f4:	18db      	adds	r3, r3, r3
 80056f6:	653b      	str	r3, [r7, #80]	@ 0x50
 80056f8:	4613      	mov	r3, r2
 80056fa:	eb42 0303 	adc.w	r3, r2, r3
 80056fe:	657b      	str	r3, [r7, #84]	@ 0x54
 8005700:	e9d7 2314 	ldrd	r2, r3, [r7, #80]	@ 0x50
 8005704:	e9d7 0138 	ldrd	r0, r1, [r7, #224]	@ 0xe0
 8005708:	f7fb fabe 	bl	8000c88 <__aeabi_uldivmod>
 800570c:	4602      	mov	r2, r0
 800570e:	460b      	mov	r3, r1
 8005710:	4b61      	ldr	r3, [pc, #388]	@ (8005898 <UART_SetConfig+0x2d4>)
 8005712:	fba3 2302 	umull	r2, r3, r3, r2
 8005716:	095b      	lsrs	r3, r3, #5
 8005718:	011c      	lsls	r4, r3, #4
 800571a:	f8d7 30fc 	ldr.w	r3, [r7, #252]	@ 0xfc
 800571e:	2200      	movs	r2, #0
 8005720:	f8c7 30d0 	str.w	r3, [r7, #208]	@ 0xd0
 8005724:	f8c7 20d4 	str.w	r2, [r7, #212]	@ 0xd4
 8005728:	e9d7 8934 	ldrd	r8, r9, [r7, #208]	@ 0xd0
 800572c:	4642      	mov	r2, r8
 800572e:	464b      	mov	r3, r9
 8005730:	1891      	adds	r1, r2, r2
 8005732:	64b9      	str	r1, [r7, #72]	@ 0x48
 8005734:	415b      	adcs	r3, r3
 8005736:	64fb      	str	r3, [r7, #76]	@ 0x4c
 8005738:	e9d7 2312 	ldrd	r2, r3, [r7, #72]	@ 0x48
 800573c:	4641      	mov	r1, r8
 800573e:	eb12 0a01 	adds.w	sl, r2, r1
 8005742:	4649      	mov	r1, r9
 8005744:	eb43 0b01 	adc.w	fp, r3, r1
 8005748:	f04f 0200 	mov.w	r2, #0
 800574c:	f04f 0300 	mov.w	r3, #0
 8005750:	ea4f 03cb 	mov.w	r3, fp, lsl #3
 8005754:	ea43 735a 	orr.w	r3, r3, sl, lsr #29
 8005758:	ea4f 02ca 	mov.w	r2, sl, lsl #3
 800575c:	4692      	mov	sl, r2
 800575e:	469b      	mov	fp, r3
 8005760:	4643      	mov	r3, r8
 8005762:	eb1a 0303 	adds.w	r3, sl, r3
 8005766:	f8c7 30c8 	str.w	r3, [r7, #200]	@ 0xc8
 800576a:	464b      	mov	r3, r9
 800576c:	eb4b 0303 	adc.w	r3, fp, r3
 8005770:	f8c7 30cc 	str.w	r3, [r7, #204]	@ 0xcc
 8005774:	f8d7 30f4 	ldr.w	r3, [r7, #244]	@ 0xf4
 8005778:	685b      	ldr	r3, [r3, #4]
 800577a:	2200      	movs	r2, #0
 800577c:	f8c7 30c0 	str.w	r3, [r7, #192]	@ 0xc0
 8005780:	f8c7 20c4 	str.w	r2, [r7, #196]	@ 0xc4
 8005784:	e9d7 1230 	ldrd	r1, r2, [r7, #192]	@ 0xc0
 8005788:	460b      	mov	r3, r1
 800578a:	18db      	adds	r3, r3, r3
 800578c:	643b      	str	r3, [r7, #64]	@ 0x40
 800578e:	4613      	mov	r3, r2
 8005790:	eb42 0303 	adc.w	r3, r2, r3
 8005794:	647b      	str	r3, [r7, #68]	@ 0x44
 8005796:	e9d7 2310 	ldrd	r2, r3, [r7, #64]	@ 0x40
 800579a:	e9d7 0132 	ldrd	r0, r1, [r7, #200]	@ 0xc8
 800579e:	f7fb fa73 	bl	8000c88 <__aeabi_uldivmod>
 80057a2:	4602      	mov	r2, r0
 80057a4:	460b      	mov	r3, r1
 80057a6:	4611      	mov	r1, r2
 80057a8:	4b3b      	ldr	r3, [pc, #236]	@ (8005898 <UART_SetConfig+0x2d4>)
 80057aa:	fba3 2301 	umull	r2, r3, r3, r1
 80057ae:	095b      	lsrs	r3, r3, #5
 80057b0:	2264      	movs	r2, #100	@ 0x64
 80057b2:	fb02 f303 	mul.w	r3, r2, r3
 80057b6:	1acb      	subs	r3, r1, r3
 80057b8:	00db      	lsls	r3, r3, #3
 80057ba:	f103 0232 	add.w	r2, r3, #50	@ 0x32
 80057be:	4b36      	ldr	r3, [pc, #216]	@ (8005898 <UART_SetConfig+0x2d4>)
 80057c0:	fba3 2302 	umull	r2, r3, r3, r2
 80057c4:	095b      	lsrs	r3, r3, #5
 80057c6:	005b      	lsls	r3, r3, #1
 80057c8:	f403 73f8 	and.w	r3, r3, #496	@ 0x1f0
 80057cc:	441c      	add	r4, r3
 80057ce:	f8d7 30fc 	ldr.w	r3, [r7, #252]	@ 0xfc
 80057d2:	2200      	movs	r2, #0
 80057d4:	f8c7 30b8 	str.w	r3, [r7, #184]	@ 0xb8
 80057d8:	f8c7 20bc 	str.w	r2, [r7, #188]	@ 0xbc
 80057dc:	e9d7 892e 	ldrd	r8, r9, [r7, #184]	@ 0xb8
 80057e0:	4642      	mov	r2, r8
 80057e2:	464b      	mov	r3, r9
 80057e4:	1891      	adds	r1, r2, r2
 80057e6:	63b9      	str	r1, [r7, #56]	@ 0x38
 80057e8:	415b      	adcs	r3, r3
 80057ea:	63fb      	str	r3, [r7, #60]	@ 0x3c
 80057ec:	e9d7 230e 	ldrd	r2, r3, [r7, #56]	@ 0x38
 80057f0:	4641      	mov	r1, r8
 80057f2:	1851      	adds	r1, r2, r1
 80057f4:	6339      	str	r1, [r7, #48]	@ 0x30
 80057f6:	4649      	mov	r1, r9
 80057f8:	414b      	adcs	r3, r1
 80057fa:	637b      	str	r3, [r7, #52]	@ 0x34
 80057fc:	f04f 0200 	mov.w	r2, #0
 8005800:	f04f 0300 	mov.w	r3, #0
 8005804:	e9d7 ab0c 	ldrd	sl, fp, [r7, #48]	@ 0x30
 8005808:	4659      	mov	r1, fp
 800580a:	00cb      	lsls	r3, r1, #3
 800580c:	4651      	mov	r1, sl
 800580e:	ea43 7351 	orr.w	r3, r3, r1, lsr #29
 8005812:	4651      	mov	r1, sl
 8005814:	00ca      	lsls	r2, r1, #3
 8005816:	4610      	mov	r0, r2
 8005818:	4619      	mov	r1, r3
 800581a:	4603      	mov	r3, r0
 800581c:	4642      	mov	r2, r8
 800581e:	189b      	adds	r3, r3, r2
 8005820:	f8c7 30b0 	str.w	r3, [r7, #176]	@ 0xb0
 8005824:	464b      	mov	r3, r9
 8005826:	460a      	mov	r2, r1
 8005828:	eb42 0303 	adc.w	r3, r2, r3
 800582c:	f8c7 30b4 	str.w	r3, [r7, #180]	@ 0xb4
 8005830:	f8d7 30f4 	ldr.w	r3, [r7, #244]	@ 0xf4
 8005834:	685b      	ldr	r3, [r3, #4]
 8005836:	2200      	movs	r2, #0
 8005838:	f8c7 30a8 	str.w	r3, [r7, #168]	@ 0xa8
 800583c:	f8c7 20ac 	str.w	r2, [r7, #172]	@ 0xac
 8005840:	e9d7 122a 	ldrd	r1, r2, [r7, #168]	@ 0xa8
 8005844:	460b      	mov	r3, r1
 8005846:	18db      	adds	r3, r3, r3
 8005848:	62bb      	str	r3, [r7, #40]	@ 0x28
 800584a:	4613      	mov	r3, r2
 800584c:	eb42 0303 	adc.w	r3, r2, r3
 8005850:	62fb      	str	r3, [r7, #44]	@ 0x2c
 8005852:	e9d7 230a 	ldrd	r2, r3, [r7, #40]	@ 0x28
 8005856:	e9d7 012c 	ldrd	r0, r1, [r7, #176]	@ 0xb0
 800585a:	f7fb fa15 	bl	8000c88 <__aeabi_uldivmod>
 800585e:	4602      	mov	r2, r0
 8005860:	460b      	mov	r3, r1
 8005862:	4b0d      	ldr	r3, [pc, #52]	@ (8005898 <UART_SetConfig+0x2d4>)
 8005864:	fba3 1302 	umull	r1, r3, r3, r2
 8005868:	095b      	lsrs	r3, r3, #5
 800586a:	2164      	movs	r1, #100	@ 0x64
 800586c:	fb01 f303 	mul.w	r3, r1, r3
 8005870:	1ad3      	subs	r3, r2, r3
 8005872:	00db      	lsls	r3, r3, #3
 8005874:	3332      	adds	r3, #50	@ 0x32
 8005876:	4a08      	ldr	r2, [pc, #32]	@ (8005898 <UART_SetConfig+0x2d4>)
 8005878:	fba2 2303 	umull	r2, r3, r2, r3
 800587c:	095b      	lsrs	r3, r3, #5
 800587e:	f003 0207 	and.w	r2, r3, #7
 8005882:	f8d7 30f4 	ldr.w	r3, [r7, #244]	@ 0xf4
 8005886:	681b      	ldr	r3, [r3, #0]
 8005888:	4422      	add	r2, r4
 800588a:	609a      	str	r2, [r3, #8]
  }
  else
  {
    huart->Instance->BRR = UART_BRR_SAMPLING16(pclk, huart->Init.BaudRate);
  }
}
 800588c:	e106      	b.n	8005a9c <UART_SetConfig+0x4d8>
 800588e:	bf00      	nop
 8005890:	40011000 	.word	0x40011000
 8005894:	40011400 	.word	0x40011400
 8005898:	51eb851f 	.word	0x51eb851f
    huart->Instance->BRR = UART_BRR_SAMPLING16(pclk, huart->Init.BaudRate);
 800589c:	f8d7 30fc 	ldr.w	r3, [r7, #252]	@ 0xfc
 80058a0:	2200      	movs	r2, #0
 80058a2:	f8c7 30a0 	str.w	r3, [r7, #160]	@ 0xa0
 80058a6:	f8c7 20a4 	str.w	r2, [r7, #164]	@ 0xa4
 80058aa:	e9d7 8928 	ldrd	r8, r9, [r7, #160]	@ 0xa0
 80058ae:	4642      	mov	r2, r8
 80058b0:	464b      	mov	r3, r9
 80058b2:	1891      	adds	r1, r2, r2
 80058b4:	6239      	str	r1, [r7, #32]
 80058b6:	415b      	adcs	r3, r3
 80058b8:	627b      	str	r3, [r7, #36]	@ 0x24
 80058ba:	e9d7 2308 	ldrd	r2, r3, [r7, #32]
 80058be:	4641      	mov	r1, r8
 80058c0:	1854      	adds	r4, r2, r1
 80058c2:	4649      	mov	r1, r9
 80058c4:	eb43 0501 	adc.w	r5, r3, r1
 80058c8:	f04f 0200 	mov.w	r2, #0
 80058cc:	f04f 0300 	mov.w	r3, #0
 80058d0:	00eb      	lsls	r3, r5, #3
 80058d2:	ea43 7354 	orr.w	r3, r3, r4, lsr #29
 80058d6:	00e2      	lsls	r2, r4, #3
 80058d8:	4614      	mov	r4, r2
 80058da:	461d      	mov	r5, r3
 80058dc:	4643      	mov	r3, r8
 80058de:	18e3      	adds	r3, r4, r3
 80058e0:	f8c7 3098 	str.w	r3, [r7, #152]	@ 0x98
 80058e4:	464b      	mov	r3, r9
 80058e6:	eb45 0303 	adc.w	r3, r5, r3
 80058ea:	f8c7 309c 	str.w	r3, [r7, #156]	@ 0x9c
 80058ee:	f8d7 30f4 	ldr.w	r3, [r7, #244]	@ 0xf4
 80058f2:	685b      	ldr	r3, [r3, #4]
 80058f4:	2200      	movs	r2, #0
 80058f6:	f8c7 3090 	str.w	r3, [r7, #144]	@ 0x90
 80058fa:	f8c7 2094 	str.w	r2, [r7, #148]	@ 0x94
 80058fe:	f04f 0200 	mov.w	r2, #0
 8005902:	f04f 0300 	mov.w	r3, #0
 8005906:	e9d7 4524 	ldrd	r4, r5, [r7, #144]	@ 0x90
 800590a:	4629      	mov	r1, r5
 800590c:	008b      	lsls	r3, r1, #2
 800590e:	4621      	mov	r1, r4
 8005910:	ea43 7391 	orr.w	r3, r3, r1, lsr #30
 8005914:	4621      	mov	r1, r4
 8005916:	008a      	lsls	r2, r1, #2
 8005918:	e9d7 0126 	ldrd	r0, r1, [r7, #152]	@ 0x98
 800591c:	f7fb f9b4 	bl	8000c88 <__aeabi_uldivmod>
 8005920:	4602      	mov	r2, r0
 8005922:	460b      	mov	r3, r1
 8005924:	4b60      	ldr	r3, [pc, #384]	@ (8005aa8 <UART_SetConfig+0x4e4>)
 8005926:	fba3 2302 	umull	r2, r3, r3, r2
 800592a:	095b      	lsrs	r3, r3, #5
 800592c:	011c      	lsls	r4, r3, #4
 800592e:	f8d7 30fc 	ldr.w	r3, [r7, #252]	@ 0xfc
 8005932:	2200      	movs	r2, #0
 8005934:	f8c7 3088 	str.w	r3, [r7, #136]	@ 0x88
 8005938:	f8c7 208c 	str.w	r2, [r7, #140]	@ 0x8c
 800593c:	e9d7 8922 	ldrd	r8, r9, [r7, #136]	@ 0x88
 8005940:	4642      	mov	r2, r8
 8005942:	464b      	mov	r3, r9
 8005944:	1891      	adds	r1, r2, r2
 8005946:	61b9      	str	r1, [r7, #24]
 8005948:	415b      	adcs	r3, r3
 800594a:	61fb      	str	r3, [r7, #28]
 800594c:	e9d7 2306 	ldrd	r2, r3, [r7, #24]
 8005950:	4641      	mov	r1, r8
 8005952:	1851      	adds	r1, r2, r1
 8005954:	6139      	str	r1, [r7, #16]
 8005956:	4649      	mov	r1, r9
 8005958:	414b      	adcs	r3, r1
 800595a:	617b      	str	r3, [r7, #20]
 800595c:	f04f 0200 	mov.w	r2, #0
 8005960:	f04f 0300 	mov.w	r3, #0
 8005964:	e9d7 ab04 	ldrd	sl, fp, [r7, #16]
 8005968:	4659      	mov	r1, fp
 800596a:	00cb      	lsls	r3, r1, #3
 800596c:	4651      	mov	r1, sl
 800596e:	ea43 7351 	orr.w	r3, r3, r1, lsr #29
 8005972:	4651      	mov	r1, sl
 8005974:	00ca      	lsls	r2, r1, #3
 8005976:	4610      	mov	r0, r2
 8005978:	4619      	mov	r1, r3
 800597a:	4603      	mov	r3, r0
 800597c:	4642      	mov	r2, r8
 800597e:	189b      	adds	r3, r3, r2
 8005980:	f8c7 3080 	str.w	r3, [r7, #128]	@ 0x80
 8005984:	464b      	mov	r3, r9
 8005986:	460a      	mov	r2, r1
 8005988:	eb42 0303 	adc.w	r3, r2, r3
 800598c:	f8c7 3084 	str.w	r3, [r7, #132]	@ 0x84
 8005990:	f8d7 30f4 	ldr.w	r3, [r7, #244]	@ 0xf4
 8005994:	685b      	ldr	r3, [r3, #4]
 8005996:	2200      	movs	r2, #0
 8005998:	67bb      	str	r3, [r7, #120]	@ 0x78
 800599a:	67fa      	str	r2, [r7, #124]	@ 0x7c
 800599c:	f04f 0200 	mov.w	r2, #0
 80059a0:	f04f 0300 	mov.w	r3, #0
 80059a4:	e9d7 891e 	ldrd	r8, r9, [r7, #120]	@ 0x78
 80059a8:	4649      	mov	r1, r9
 80059aa:	008b      	lsls	r3, r1, #2
 80059ac:	4641      	mov	r1, r8
 80059ae:	ea43 7391 	orr.w	r3, r3, r1, lsr #30
 80059b2:	4641      	mov	r1, r8
 80059b4:	008a      	lsls	r2, r1, #2
 80059b6:	e9d7 0120 	ldrd	r0, r1, [r7, #128]	@ 0x80
 80059ba:	f7fb f965 	bl	8000c88 <__aeabi_uldivmod>
 80059be:	4602      	mov	r2, r0
 80059c0:	460b      	mov	r3, r1
 80059c2:	4611      	mov	r1, r2
 80059c4:	4b38      	ldr	r3, [pc, #224]	@ (8005aa8 <UART_SetConfig+0x4e4>)
 80059c6:	fba3 2301 	umull	r2, r3, r3, r1
 80059ca:	095b      	lsrs	r3, r3, #5
 80059cc:	2264      	movs	r2, #100	@ 0x64
 80059ce:	fb02 f303 	mul.w	r3, r2, r3
 80059d2:	1acb      	subs	r3, r1, r3
 80059d4:	011b      	lsls	r3, r3, #4
 80059d6:	3332      	adds	r3, #50	@ 0x32
 80059d8:	4a33      	ldr	r2, [pc, #204]	@ (8005aa8 <UART_SetConfig+0x4e4>)
 80059da:	fba2 2303 	umull	r2, r3, r2, r3
 80059de:	095b      	lsrs	r3, r3, #5
 80059e0:	f003 03f0 	and.w	r3, r3, #240	@ 0xf0
 80059e4:	441c      	add	r4, r3
 80059e6:	f8d7 30fc 	ldr.w	r3, [r7, #252]	@ 0xfc
 80059ea:	2200      	movs	r2, #0
 80059ec:	673b      	str	r3, [r7, #112]	@ 0x70
 80059ee:	677a      	str	r2, [r7, #116]	@ 0x74
 80059f0:	e9d7 891c 	ldrd	r8, r9, [r7, #112]	@ 0x70
 80059f4:	4642      	mov	r2, r8
 80059f6:	464b      	mov	r3, r9
 80059f8:	1891      	adds	r1, r2, r2
 80059fa:	60b9      	str	r1, [r7, #8]
 80059fc:	415b      	adcs	r3, r3
 80059fe:	60fb      	str	r3, [r7, #12]
 8005a00:	e9d7 2302 	ldrd	r2, r3, [r7, #8]
 8005a04:	4641      	mov	r1, r8
 8005a06:	1851      	adds	r1, r2, r1
 8005a08:	6039      	str	r1, [r7, #0]
 8005a0a:	4649      	mov	r1, r9
 8005a0c:	414b      	adcs	r3, r1
 8005a0e:	607b      	str	r3, [r7, #4]
 8005a10:	f04f 0200 	mov.w	r2, #0
 8005a14:	f04f 0300 	mov.w	r3, #0
 8005a18:	e9d7 ab00 	ldrd	sl, fp, [r7]
 8005a1c:	4659      	mov	r1, fp
 8005a1e:	00cb      	lsls	r3, r1, #3
 8005a20:	4651      	mov	r1, sl
 8005a22:	ea43 7351 	orr.w	r3, r3, r1, lsr #29
 8005a26:	4651      	mov	r1, sl
 8005a28:	00ca      	lsls	r2, r1, #3
 8005a2a:	4610      	mov	r0, r2
 8005a2c:	4619      	mov	r1, r3
 8005a2e:	4603      	mov	r3, r0
 8005a30:	4642      	mov	r2, r8
 8005a32:	189b      	adds	r3, r3, r2
 8005a34:	66bb      	str	r3, [r7, #104]	@ 0x68
 8005a36:	464b      	mov	r3, r9
 8005a38:	460a      	mov	r2, r1
 8005a3a:	eb42 0303 	adc.w	r3, r2, r3
 8005a3e:	66fb      	str	r3, [r7, #108]	@ 0x6c
 8005a40:	f8d7 30f4 	ldr.w	r3, [r7, #244]	@ 0xf4
 8005a44:	685b      	ldr	r3, [r3, #4]
 8005a46:	2200      	movs	r2, #0
 8005a48:	663b      	str	r3, [r7, #96]	@ 0x60
 8005a4a:	667a      	str	r2, [r7, #100]	@ 0x64
 8005a4c:	f04f 0200 	mov.w	r2, #0
 8005a50:	f04f 0300 	mov.w	r3, #0
 8005a54:	e9d7 8918 	ldrd	r8, r9, [r7, #96]	@ 0x60
 8005a58:	4649      	mov	r1, r9
 8005a5a:	008b      	lsls	r3, r1, #2
 8005a5c:	4641      	mov	r1, r8
 8005a5e:	ea43 7391 	orr.w	r3, r3, r1, lsr #30
 8005a62:	4641      	mov	r1, r8
 8005a64:	008a      	lsls	r2, r1, #2
 8005a66:	e9d7 011a 	ldrd	r0, r1, [r7, #104]	@ 0x68
 8005a6a:	f7fb f90d 	bl	8000c88 <__aeabi_uldivmod>
 8005a6e:	4602      	mov	r2, r0
 8005a70:	460b      	mov	r3, r1
 8005a72:	4b0d      	ldr	r3, [pc, #52]	@ (8005aa8 <UART_SetConfig+0x4e4>)
 8005a74:	fba3 1302 	umull	r1, r3, r3, r2
 8005a78:	095b      	lsrs	r3, r3, #5
 8005a7a:	2164      	movs	r1, #100	@ 0x64
 8005a7c:	fb01 f303 	mul.w	r3, r1, r3
 8005a80:	1ad3      	subs	r3, r2, r3
 8005a82:	011b      	lsls	r3, r3, #4
 8005a84:	3332      	adds	r3, #50	@ 0x32
 8005a86:	4a08      	ldr	r2, [pc, #32]	@ (8005aa8 <UART_SetConfig+0x4e4>)
 8005a88:	fba2 2303 	umull	r2, r3, r2, r3
 8005a8c:	095b      	lsrs	r3, r3, #5
 8005a8e:	f003 020f 	and.w	r2, r3, #15
 8005a92:	f8d7 30f4 	ldr.w	r3, [r7, #244]	@ 0xf4
 8005a96:	681b      	ldr	r3, [r3, #0]
 8005a98:	4422      	add	r2, r4
 8005a9a:	609a      	str	r2, [r3, #8]
}
 8005a9c:	bf00      	nop
 8005a9e:	f507 7780 	add.w	r7, r7, #256	@ 0x100
 8005aa2:	46bd      	mov	sp, r7
 8005aa4:	e8bd 8fb0 	ldmia.w	sp!, {r4, r5, r7, r8, r9, sl, fp, pc}
 8005aa8:	51eb851f 	.word	0x51eb851f

08005aac <_calloc_r>:
 8005aac:	b570      	push	{r4, r5, r6, lr}
 8005aae:	fba1 5402 	umull	r5, r4, r1, r2
 8005ab2:	b93c      	cbnz	r4, 8005ac4 <_calloc_r+0x18>
 8005ab4:	4629      	mov	r1, r5
 8005ab6:	f000 fb01 	bl	80060bc <_malloc_r>
 8005aba:	4606      	mov	r6, r0
 8005abc:	b928      	cbnz	r0, 8005aca <_calloc_r+0x1e>
 8005abe:	2600      	movs	r6, #0
 8005ac0:	4630      	mov	r0, r6
 8005ac2:	bd70      	pop	{r4, r5, r6, pc}
 8005ac4:	220c      	movs	r2, #12
 8005ac6:	6002      	str	r2, [r0, #0]
 8005ac8:	e7f9      	b.n	8005abe <_calloc_r+0x12>
 8005aca:	462a      	mov	r2, r5
 8005acc:	4621      	mov	r1, r4
 8005ace:	f000 fdf1 	bl	80066b4 <memset>
 8005ad2:	e7f5      	b.n	8005ac0 <_calloc_r+0x14>

08005ad4 <__cvt>:
 8005ad4:	e92d 47ff 	stmdb	sp!, {r0, r1, r2, r3, r4, r5, r6, r7, r8, r9, sl, lr}
 8005ad8:	ec57 6b10 	vmov	r6, r7, d0
 8005adc:	2f00      	cmp	r7, #0
 8005ade:	460c      	mov	r4, r1
 8005ae0:	4619      	mov	r1, r3
 8005ae2:	463b      	mov	r3, r7
 8005ae4:	bfbb      	ittet	lt
 8005ae6:	f107 4300 	addlt.w	r3, r7, #2147483648	@ 0x80000000
 8005aea:	461f      	movlt	r7, r3
 8005aec:	2300      	movge	r3, #0
 8005aee:	232d      	movlt	r3, #45	@ 0x2d
 8005af0:	700b      	strb	r3, [r1, #0]
 8005af2:	9b0d      	ldr	r3, [sp, #52]	@ 0x34
 8005af4:	f8dd a030 	ldr.w	sl, [sp, #48]	@ 0x30
 8005af8:	4691      	mov	r9, r2
 8005afa:	f023 0820 	bic.w	r8, r3, #32
 8005afe:	bfbc      	itt	lt
 8005b00:	4632      	movlt	r2, r6
 8005b02:	4616      	movlt	r6, r2
 8005b04:	f1b8 0f46 	cmp.w	r8, #70	@ 0x46
 8005b08:	d005      	beq.n	8005b16 <__cvt+0x42>
 8005b0a:	f1b8 0f45 	cmp.w	r8, #69	@ 0x45
 8005b0e:	d100      	bne.n	8005b12 <__cvt+0x3e>
 8005b10:	3401      	adds	r4, #1
 8005b12:	2102      	movs	r1, #2
 8005b14:	e000      	b.n	8005b18 <__cvt+0x44>
 8005b16:	2103      	movs	r1, #3
 8005b18:	ab03      	add	r3, sp, #12
 8005b1a:	9301      	str	r3, [sp, #4]
 8005b1c:	ab02      	add	r3, sp, #8
 8005b1e:	9300      	str	r3, [sp, #0]
 8005b20:	ec47 6b10 	vmov	d0, r6, r7
 8005b24:	4653      	mov	r3, sl
 8005b26:	4622      	mov	r2, r4
 8005b28:	f000 fe96 	bl	8006858 <_dtoa_r>
 8005b2c:	f1b8 0f47 	cmp.w	r8, #71	@ 0x47
 8005b30:	4605      	mov	r5, r0
 8005b32:	d119      	bne.n	8005b68 <__cvt+0x94>
 8005b34:	f019 0f01 	tst.w	r9, #1
 8005b38:	d00e      	beq.n	8005b58 <__cvt+0x84>
 8005b3a:	eb00 0904 	add.w	r9, r0, r4
 8005b3e:	2200      	movs	r2, #0
 8005b40:	2300      	movs	r3, #0
 8005b42:	4630      	mov	r0, r6
 8005b44:	4639      	mov	r1, r7
 8005b46:	f7fa ffdf 	bl	8000b08 <__aeabi_dcmpeq>
 8005b4a:	b108      	cbz	r0, 8005b50 <__cvt+0x7c>
 8005b4c:	f8cd 900c 	str.w	r9, [sp, #12]
 8005b50:	2230      	movs	r2, #48	@ 0x30
 8005b52:	9b03      	ldr	r3, [sp, #12]
 8005b54:	454b      	cmp	r3, r9
 8005b56:	d31e      	bcc.n	8005b96 <__cvt+0xc2>
 8005b58:	9b03      	ldr	r3, [sp, #12]
 8005b5a:	9a0e      	ldr	r2, [sp, #56]	@ 0x38
 8005b5c:	1b5b      	subs	r3, r3, r5
 8005b5e:	4628      	mov	r0, r5
 8005b60:	6013      	str	r3, [r2, #0]
 8005b62:	b004      	add	sp, #16
 8005b64:	e8bd 87f0 	ldmia.w	sp!, {r4, r5, r6, r7, r8, r9, sl, pc}
 8005b68:	f1b8 0f46 	cmp.w	r8, #70	@ 0x46
 8005b6c:	eb00 0904 	add.w	r9, r0, r4
 8005b70:	d1e5      	bne.n	8005b3e <__cvt+0x6a>
 8005b72:	7803      	ldrb	r3, [r0, #0]
 8005b74:	2b30      	cmp	r3, #48	@ 0x30
 8005b76:	d10a      	bne.n	8005b8e <__cvt+0xba>
 8005b78:	2200      	movs	r2, #0
 8005b7a:	2300      	movs	r3, #0
 8005b7c:	4630      	mov	r0, r6
 8005b7e:	4639      	mov	r1, r7
 8005b80:	f7fa ffc2 	bl	8000b08 <__aeabi_dcmpeq>
 8005b84:	b918      	cbnz	r0, 8005b8e <__cvt+0xba>
 8005b86:	f1c4 0401 	rsb	r4, r4, #1
 8005b8a:	f8ca 4000 	str.w	r4, [sl]
 8005b8e:	f8da 3000 	ldr.w	r3, [sl]
 8005b92:	4499      	add	r9, r3
 8005b94:	e7d3      	b.n	8005b3e <__cvt+0x6a>
 8005b96:	1c59      	adds	r1, r3, #1
 8005b98:	9103      	str	r1, [sp, #12]
 8005b9a:	701a      	strb	r2, [r3, #0]
 8005b9c:	e7d9      	b.n	8005b52 <__cvt+0x7e>

08005b9e <__exponent>:
 8005b9e:	b5f7      	push	{r0, r1, r2, r4, r5, r6, r7, lr}
 8005ba0:	2900      	cmp	r1, #0
 8005ba2:	bfba      	itte	lt
 8005ba4:	4249      	neglt	r1, r1
 8005ba6:	232d      	movlt	r3, #45	@ 0x2d
 8005ba8:	232b      	movge	r3, #43	@ 0x2b
 8005baa:	2909      	cmp	r1, #9
 8005bac:	7002      	strb	r2, [r0, #0]
 8005bae:	7043      	strb	r3, [r0, #1]
 8005bb0:	dd29      	ble.n	8005c06 <__exponent+0x68>
 8005bb2:	f10d 0307 	add.w	r3, sp, #7
 8005bb6:	461d      	mov	r5, r3
 8005bb8:	270a      	movs	r7, #10
 8005bba:	461a      	mov	r2, r3
 8005bbc:	fbb1 f6f7 	udiv	r6, r1, r7
 8005bc0:	fb07 1416 	mls	r4, r7, r6, r1
 8005bc4:	3430      	adds	r4, #48	@ 0x30
 8005bc6:	f802 4c01 	strb.w	r4, [r2, #-1]
 8005bca:	460c      	mov	r4, r1
 8005bcc:	2c63      	cmp	r4, #99	@ 0x63
 8005bce:	f103 33ff 	add.w	r3, r3, #4294967295	@ 0xffffffff
 8005bd2:	4631      	mov	r1, r6
 8005bd4:	dcf1      	bgt.n	8005bba <__exponent+0x1c>
 8005bd6:	3130      	adds	r1, #48	@ 0x30
 8005bd8:	1e94      	subs	r4, r2, #2
 8005bda:	f803 1c01 	strb.w	r1, [r3, #-1]
 8005bde:	1c41      	adds	r1, r0, #1
 8005be0:	4623      	mov	r3, r4
 8005be2:	42ab      	cmp	r3, r5
 8005be4:	d30a      	bcc.n	8005bfc <__exponent+0x5e>
 8005be6:	f10d 0309 	add.w	r3, sp, #9
 8005bea:	1a9b      	subs	r3, r3, r2
 8005bec:	42ac      	cmp	r4, r5
 8005bee:	bf88      	it	hi
 8005bf0:	2300      	movhi	r3, #0
 8005bf2:	3302      	adds	r3, #2
 8005bf4:	4403      	add	r3, r0
 8005bf6:	1a18      	subs	r0, r3, r0
 8005bf8:	b003      	add	sp, #12
 8005bfa:	bdf0      	pop	{r4, r5, r6, r7, pc}
 8005bfc:	f813 6b01 	ldrb.w	r6, [r3], #1
 8005c00:	f801 6f01 	strb.w	r6, [r1, #1]!
 8005c04:	e7ed      	b.n	8005be2 <__exponent+0x44>
 8005c06:	2330      	movs	r3, #48	@ 0x30
 8005c08:	3130      	adds	r1, #48	@ 0x30
 8005c0a:	7083      	strb	r3, [r0, #2]
 8005c0c:	70c1      	strb	r1, [r0, #3]
 8005c0e:	1d03      	adds	r3, r0, #4
 8005c10:	e7f1      	b.n	8005bf6 <__exponent+0x58>
	...

08005c14 <_printf_float>:
 8005c14:	e92d 4ff0 	stmdb	sp!, {r4, r5, r6, r7, r8, r9, sl, fp, lr}
 8005c18:	b08d      	sub	sp, #52	@ 0x34
 8005c1a:	460c      	mov	r4, r1
 8005c1c:	f8dd 8058 	ldr.w	r8, [sp, #88]	@ 0x58
 8005c20:	4616      	mov	r6, r2
 8005c22:	461f      	mov	r7, r3
 8005c24:	4605      	mov	r5, r0
 8005c26:	f000 fd4d 	bl	80066c4 <_localeconv_r>
 8005c2a:	6803      	ldr	r3, [r0, #0]
 8005c2c:	9304      	str	r3, [sp, #16]
 8005c2e:	4618      	mov	r0, r3
 8005c30:	f7fa fb3e 	bl	80002b0 <strlen>
 8005c34:	2300      	movs	r3, #0
 8005c36:	930a      	str	r3, [sp, #40]	@ 0x28
 8005c38:	f8d8 3000 	ldr.w	r3, [r8]
 8005c3c:	9005      	str	r0, [sp, #20]
 8005c3e:	3307      	adds	r3, #7
 8005c40:	f023 0307 	bic.w	r3, r3, #7
 8005c44:	f103 0208 	add.w	r2, r3, #8
 8005c48:	f894 a018 	ldrb.w	sl, [r4, #24]
 8005c4c:	f8d4 b000 	ldr.w	fp, [r4]
 8005c50:	f8c8 2000 	str.w	r2, [r8]
 8005c54:	e9d3 8900 	ldrd	r8, r9, [r3]
 8005c58:	f029 4300 	bic.w	r3, r9, #2147483648	@ 0x80000000
 8005c5c:	9307      	str	r3, [sp, #28]
 8005c5e:	f8cd 8018 	str.w	r8, [sp, #24]
 8005c62:	e9c4 8912 	strd	r8, r9, [r4, #72]	@ 0x48
 8005c66:	e9dd 0106 	ldrd	r0, r1, [sp, #24]
 8005c6a:	4b9c      	ldr	r3, [pc, #624]	@ (8005edc <_printf_float+0x2c8>)
 8005c6c:	f04f 32ff 	mov.w	r2, #4294967295	@ 0xffffffff
 8005c70:	f7fa ff7c 	bl	8000b6c <__aeabi_dcmpun>
 8005c74:	bb70      	cbnz	r0, 8005cd4 <_printf_float+0xc0>
 8005c76:	e9dd 0106 	ldrd	r0, r1, [sp, #24]
 8005c7a:	4b98      	ldr	r3, [pc, #608]	@ (8005edc <_printf_float+0x2c8>)
 8005c7c:	f04f 32ff 	mov.w	r2, #4294967295	@ 0xffffffff
 8005c80:	f7fa ff56 	bl	8000b30 <__aeabi_dcmple>
 8005c84:	bb30      	cbnz	r0, 8005cd4 <_printf_float+0xc0>
 8005c86:	2200      	movs	r2, #0
 8005c88:	2300      	movs	r3, #0
 8005c8a:	4640      	mov	r0, r8
 8005c8c:	4649      	mov	r1, r9
 8005c8e:	f7fa ff45 	bl	8000b1c <__aeabi_dcmplt>
 8005c92:	b110      	cbz	r0, 8005c9a <_printf_float+0x86>
 8005c94:	232d      	movs	r3, #45	@ 0x2d
 8005c96:	f884 3043 	strb.w	r3, [r4, #67]	@ 0x43
 8005c9a:	4a91      	ldr	r2, [pc, #580]	@ (8005ee0 <_printf_float+0x2cc>)
 8005c9c:	4b91      	ldr	r3, [pc, #580]	@ (8005ee4 <_printf_float+0x2d0>)
 8005c9e:	f1ba 0f47 	cmp.w	sl, #71	@ 0x47
 8005ca2:	bf94      	ite	ls
 8005ca4:	4690      	movls	r8, r2
 8005ca6:	4698      	movhi	r8, r3
 8005ca8:	2303      	movs	r3, #3
 8005caa:	6123      	str	r3, [r4, #16]
 8005cac:	f02b 0304 	bic.w	r3, fp, #4
 8005cb0:	6023      	str	r3, [r4, #0]
 8005cb2:	f04f 0900 	mov.w	r9, #0
 8005cb6:	9700      	str	r7, [sp, #0]
 8005cb8:	4633      	mov	r3, r6
 8005cba:	aa0b      	add	r2, sp, #44	@ 0x2c
 8005cbc:	4621      	mov	r1, r4
 8005cbe:	4628      	mov	r0, r5
 8005cc0:	f000 fa7c 	bl	80061bc <_printf_common>
 8005cc4:	3001      	adds	r0, #1
 8005cc6:	f040 808d 	bne.w	8005de4 <_printf_float+0x1d0>
 8005cca:	f04f 30ff 	mov.w	r0, #4294967295	@ 0xffffffff
 8005cce:	b00d      	add	sp, #52	@ 0x34
 8005cd0:	e8bd 8ff0 	ldmia.w	sp!, {r4, r5, r6, r7, r8, r9, sl, fp, pc}
 8005cd4:	4642      	mov	r2, r8
 8005cd6:	464b      	mov	r3, r9
 8005cd8:	4640      	mov	r0, r8
 8005cda:	4649      	mov	r1, r9
 8005cdc:	f7fa ff46 	bl	8000b6c <__aeabi_dcmpun>
 8005ce0:	b140      	cbz	r0, 8005cf4 <_printf_float+0xe0>
 8005ce2:	464b      	mov	r3, r9
 8005ce4:	2b00      	cmp	r3, #0
 8005ce6:	bfbc      	itt	lt
 8005ce8:	232d      	movlt	r3, #45	@ 0x2d
 8005cea:	f884 3043 	strblt.w	r3, [r4, #67]	@ 0x43
 8005cee:	4a7e      	ldr	r2, [pc, #504]	@ (8005ee8 <_printf_float+0x2d4>)
 8005cf0:	4b7e      	ldr	r3, [pc, #504]	@ (8005eec <_printf_float+0x2d8>)
 8005cf2:	e7d4      	b.n	8005c9e <_printf_float+0x8a>
 8005cf4:	6863      	ldr	r3, [r4, #4]
 8005cf6:	f00a 02df 	and.w	r2, sl, #223	@ 0xdf
 8005cfa:	9206      	str	r2, [sp, #24]
 8005cfc:	1c5a      	adds	r2, r3, #1
 8005cfe:	d13b      	bne.n	8005d78 <_printf_float+0x164>
 8005d00:	2306      	movs	r3, #6
 8005d02:	6063      	str	r3, [r4, #4]
 8005d04:	f44b 6280 	orr.w	r2, fp, #1024	@ 0x400
 8005d08:	2300      	movs	r3, #0
 8005d0a:	6022      	str	r2, [r4, #0]
 8005d0c:	9303      	str	r3, [sp, #12]
 8005d0e:	ab0a      	add	r3, sp, #40	@ 0x28
 8005d10:	e9cd a301 	strd	sl, r3, [sp, #4]
 8005d14:	ab09      	add	r3, sp, #36	@ 0x24
 8005d16:	9300      	str	r3, [sp, #0]
 8005d18:	6861      	ldr	r1, [r4, #4]
 8005d1a:	ec49 8b10 	vmov	d0, r8, r9
 8005d1e:	f10d 0323 	add.w	r3, sp, #35	@ 0x23
 8005d22:	4628      	mov	r0, r5
 8005d24:	f7ff fed6 	bl	8005ad4 <__cvt>
 8005d28:	9b06      	ldr	r3, [sp, #24]
 8005d2a:	9909      	ldr	r1, [sp, #36]	@ 0x24
 8005d2c:	2b47      	cmp	r3, #71	@ 0x47
 8005d2e:	4680      	mov	r8, r0
 8005d30:	d129      	bne.n	8005d86 <_printf_float+0x172>
 8005d32:	1cc8      	adds	r0, r1, #3
 8005d34:	db02      	blt.n	8005d3c <_printf_float+0x128>
 8005d36:	6863      	ldr	r3, [r4, #4]
 8005d38:	4299      	cmp	r1, r3
 8005d3a:	dd41      	ble.n	8005dc0 <_printf_float+0x1ac>
 8005d3c:	f1aa 0a02 	sub.w	sl, sl, #2
 8005d40:	fa5f fa8a 	uxtb.w	sl, sl
 8005d44:	3901      	subs	r1, #1
 8005d46:	4652      	mov	r2, sl
 8005d48:	f104 0050 	add.w	r0, r4, #80	@ 0x50
 8005d4c:	9109      	str	r1, [sp, #36]	@ 0x24
 8005d4e:	f7ff ff26 	bl	8005b9e <__exponent>
 8005d52:	9a0a      	ldr	r2, [sp, #40]	@ 0x28
 8005d54:	1813      	adds	r3, r2, r0
 8005d56:	2a01      	cmp	r2, #1
 8005d58:	4681      	mov	r9, r0
 8005d5a:	6123      	str	r3, [r4, #16]
 8005d5c:	dc02      	bgt.n	8005d64 <_printf_float+0x150>
 8005d5e:	6822      	ldr	r2, [r4, #0]
 8005d60:	07d2      	lsls	r2, r2, #31
 8005d62:	d501      	bpl.n	8005d68 <_printf_float+0x154>
 8005d64:	3301      	adds	r3, #1
 8005d66:	6123      	str	r3, [r4, #16]
 8005d68:	f89d 3023 	ldrb.w	r3, [sp, #35]	@ 0x23
 8005d6c:	2b00      	cmp	r3, #0
 8005d6e:	d0a2      	beq.n	8005cb6 <_printf_float+0xa2>
 8005d70:	232d      	movs	r3, #45	@ 0x2d
 8005d72:	f884 3043 	strb.w	r3, [r4, #67]	@ 0x43
 8005d76:	e79e      	b.n	8005cb6 <_printf_float+0xa2>
 8005d78:	9a06      	ldr	r2, [sp, #24]
 8005d7a:	2a47      	cmp	r2, #71	@ 0x47
 8005d7c:	d1c2      	bne.n	8005d04 <_printf_float+0xf0>
 8005d7e:	2b00      	cmp	r3, #0
 8005d80:	d1c0      	bne.n	8005d04 <_printf_float+0xf0>
 8005d82:	2301      	movs	r3, #1
 8005d84:	e7bd      	b.n	8005d02 <_printf_float+0xee>
 8005d86:	f1ba 0f65 	cmp.w	sl, #101	@ 0x65
 8005d8a:	d9db      	bls.n	8005d44 <_printf_float+0x130>
 8005d8c:	f1ba 0f66 	cmp.w	sl, #102	@ 0x66
 8005d90:	d118      	bne.n	8005dc4 <_printf_float+0x1b0>
 8005d92:	2900      	cmp	r1, #0
 8005d94:	6863      	ldr	r3, [r4, #4]
 8005d96:	dd0b      	ble.n	8005db0 <_printf_float+0x19c>
 8005d98:	6121      	str	r1, [r4, #16]
 8005d9a:	b913      	cbnz	r3, 8005da2 <_printf_float+0x18e>
 8005d9c:	6822      	ldr	r2, [r4, #0]
 8005d9e:	07d0      	lsls	r0, r2, #31
 8005da0:	d502      	bpl.n	8005da8 <_printf_float+0x194>
 8005da2:	3301      	adds	r3, #1
 8005da4:	440b      	add	r3, r1
 8005da6:	6123      	str	r3, [r4, #16]
 8005da8:	65a1      	str	r1, [r4, #88]	@ 0x58
 8005daa:	f04f 0900 	mov.w	r9, #0
 8005dae:	e7db      	b.n	8005d68 <_printf_float+0x154>
 8005db0:	b913      	cbnz	r3, 8005db8 <_printf_float+0x1a4>
 8005db2:	6822      	ldr	r2, [r4, #0]
 8005db4:	07d2      	lsls	r2, r2, #31
 8005db6:	d501      	bpl.n	8005dbc <_printf_float+0x1a8>
 8005db8:	3302      	adds	r3, #2
 8005dba:	e7f4      	b.n	8005da6 <_printf_float+0x192>
 8005dbc:	2301      	movs	r3, #1
 8005dbe:	e7f2      	b.n	8005da6 <_printf_float+0x192>
 8005dc0:	f04f 0a67 	mov.w	sl, #103	@ 0x67
 8005dc4:	9b0a      	ldr	r3, [sp, #40]	@ 0x28
 8005dc6:	4299      	cmp	r1, r3
 8005dc8:	db05      	blt.n	8005dd6 <_printf_float+0x1c2>
 8005dca:	6823      	ldr	r3, [r4, #0]
 8005dcc:	6121      	str	r1, [r4, #16]
 8005dce:	07d8      	lsls	r0, r3, #31
 8005dd0:	d5ea      	bpl.n	8005da8 <_printf_float+0x194>
 8005dd2:	1c4b      	adds	r3, r1, #1
 8005dd4:	e7e7      	b.n	8005da6 <_printf_float+0x192>
 8005dd6:	2900      	cmp	r1, #0
 8005dd8:	bfd4      	ite	le
 8005dda:	f1c1 0202 	rsble	r2, r1, #2
 8005dde:	2201      	movgt	r2, #1
 8005de0:	4413      	add	r3, r2
 8005de2:	e7e0      	b.n	8005da6 <_printf_float+0x192>
 8005de4:	6823      	ldr	r3, [r4, #0]
 8005de6:	055a      	lsls	r2, r3, #21
 8005de8:	d407      	bmi.n	8005dfa <_printf_float+0x1e6>
 8005dea:	6923      	ldr	r3, [r4, #16]
 8005dec:	4642      	mov	r2, r8
 8005dee:	4631      	mov	r1, r6
 8005df0:	4628      	mov	r0, r5
 8005df2:	47b8      	blx	r7
 8005df4:	3001      	adds	r0, #1
 8005df6:	d12b      	bne.n	8005e50 <_printf_float+0x23c>
 8005df8:	e767      	b.n	8005cca <_printf_float+0xb6>
 8005dfa:	f1ba 0f65 	cmp.w	sl, #101	@ 0x65
 8005dfe:	f240 80dd 	bls.w	8005fbc <_printf_float+0x3a8>
 8005e02:	e9d4 0112 	ldrd	r0, r1, [r4, #72]	@ 0x48
 8005e06:	2200      	movs	r2, #0
 8005e08:	2300      	movs	r3, #0
 8005e0a:	f7fa fe7d 	bl	8000b08 <__aeabi_dcmpeq>
 8005e0e:	2800      	cmp	r0, #0
 8005e10:	d033      	beq.n	8005e7a <_printf_float+0x266>
 8005e12:	4a37      	ldr	r2, [pc, #220]	@ (8005ef0 <_printf_float+0x2dc>)
 8005e14:	2301      	movs	r3, #1
 8005e16:	4631      	mov	r1, r6
 8005e18:	4628      	mov	r0, r5
 8005e1a:	47b8      	blx	r7
 8005e1c:	3001      	adds	r0, #1
 8005e1e:	f43f af54 	beq.w	8005cca <_printf_float+0xb6>
 8005e22:	e9dd 3809 	ldrd	r3, r8, [sp, #36]	@ 0x24
 8005e26:	4543      	cmp	r3, r8
 8005e28:	db02      	blt.n	8005e30 <_printf_float+0x21c>
 8005e2a:	6823      	ldr	r3, [r4, #0]
 8005e2c:	07d8      	lsls	r0, r3, #31
 8005e2e:	d50f      	bpl.n	8005e50 <_printf_float+0x23c>
 8005e30:	e9dd 2304 	ldrd	r2, r3, [sp, #16]
 8005e34:	4631      	mov	r1, r6
 8005e36:	4628      	mov	r0, r5
 8005e38:	47b8      	blx	r7
 8005e3a:	3001      	adds	r0, #1
 8005e3c:	f43f af45 	beq.w	8005cca <_printf_float+0xb6>
 8005e40:	f04f 0900 	mov.w	r9, #0
 8005e44:	f108 38ff 	add.w	r8, r8, #4294967295	@ 0xffffffff
 8005e48:	f104 0a1a 	add.w	sl, r4, #26
 8005e4c:	45c8      	cmp	r8, r9
 8005e4e:	dc09      	bgt.n	8005e64 <_printf_float+0x250>
 8005e50:	6823      	ldr	r3, [r4, #0]
 8005e52:	079b      	lsls	r3, r3, #30
 8005e54:	f100 8103 	bmi.w	800605e <_printf_float+0x44a>
 8005e58:	68e0      	ldr	r0, [r4, #12]
 8005e5a:	9b0b      	ldr	r3, [sp, #44]	@ 0x2c
 8005e5c:	4298      	cmp	r0, r3
 8005e5e:	bfb8      	it	lt
 8005e60:	4618      	movlt	r0, r3
 8005e62:	e734      	b.n	8005cce <_printf_float+0xba>
 8005e64:	2301      	movs	r3, #1
 8005e66:	4652      	mov	r2, sl
 8005e68:	4631      	mov	r1, r6
 8005e6a:	4628      	mov	r0, r5
 8005e6c:	47b8      	blx	r7
 8005e6e:	3001      	adds	r0, #1
 8005e70:	f43f af2b 	beq.w	8005cca <_printf_float+0xb6>
 8005e74:	f109 0901 	add.w	r9, r9, #1
 8005e78:	e7e8      	b.n	8005e4c <_printf_float+0x238>
 8005e7a:	9b09      	ldr	r3, [sp, #36]	@ 0x24
 8005e7c:	2b00      	cmp	r3, #0
 8005e7e:	dc39      	bgt.n	8005ef4 <_printf_float+0x2e0>
 8005e80:	4a1b      	ldr	r2, [pc, #108]	@ (8005ef0 <_printf_float+0x2dc>)
 8005e82:	2301      	movs	r3, #1
 8005e84:	4631      	mov	r1, r6
 8005e86:	4628      	mov	r0, r5
 8005e88:	47b8      	blx	r7
 8005e8a:	3001      	adds	r0, #1
 8005e8c:	f43f af1d 	beq.w	8005cca <_printf_float+0xb6>
 8005e90:	e9dd 3909 	ldrd	r3, r9, [sp, #36]	@ 0x24
 8005e94:	ea59 0303 	orrs.w	r3, r9, r3
 8005e98:	d102      	bne.n	8005ea0 <_printf_float+0x28c>
 8005e9a:	6823      	ldr	r3, [r4, #0]
 8005e9c:	07d9      	lsls	r1, r3, #31
 8005e9e:	d5d7      	bpl.n	8005e50 <_printf_float+0x23c>
 8005ea0:	e9dd 2304 	ldrd	r2, r3, [sp, #16]
 8005ea4:	4631      	mov	r1, r6
 8005ea6:	4628      	mov	r0, r5
 8005ea8:	47b8      	blx	r7
 8005eaa:	3001      	adds	r0, #1
 8005eac:	f43f af0d 	beq.w	8005cca <_printf_float+0xb6>
 8005eb0:	f04f 0a00 	mov.w	sl, #0
 8005eb4:	f104 0b1a 	add.w	fp, r4, #26
 8005eb8:	9b09      	ldr	r3, [sp, #36]	@ 0x24
 8005eba:	425b      	negs	r3, r3
 8005ebc:	4553      	cmp	r3, sl
 8005ebe:	dc01      	bgt.n	8005ec4 <_printf_float+0x2b0>
 8005ec0:	464b      	mov	r3, r9
 8005ec2:	e793      	b.n	8005dec <_printf_float+0x1d8>
 8005ec4:	2301      	movs	r3, #1
 8005ec6:	465a      	mov	r2, fp
 8005ec8:	4631      	mov	r1, r6
 8005eca:	4628      	mov	r0, r5
 8005ecc:	47b8      	blx	r7
 8005ece:	3001      	adds	r0, #1
 8005ed0:	f43f aefb 	beq.w	8005cca <_printf_float+0xb6>
 8005ed4:	f10a 0a01 	add.w	sl, sl, #1
 8005ed8:	e7ee      	b.n	8005eb8 <_printf_float+0x2a4>
 8005eda:	bf00      	nop
 8005edc:	7fefffff 	.word	0x7fefffff
 8005ee0:	080088e0 	.word	0x080088e0
 8005ee4:	080088e4 	.word	0x080088e4
 8005ee8:	080088e8 	.word	0x080088e8
 8005eec:	080088ec 	.word	0x080088ec
 8005ef0:	080088f0 	.word	0x080088f0
 8005ef4:	6da3      	ldr	r3, [r4, #88]	@ 0x58
 8005ef6:	f8dd a028 	ldr.w	sl, [sp, #40]	@ 0x28
 8005efa:	4553      	cmp	r3, sl
 8005efc:	bfa8      	it	ge
 8005efe:	4653      	movge	r3, sl
 8005f00:	2b00      	cmp	r3, #0
 8005f02:	4699      	mov	r9, r3
 8005f04:	dc36      	bgt.n	8005f74 <_printf_float+0x360>
 8005f06:	f04f 0b00 	mov.w	fp, #0
 8005f0a:	ea29 79e9 	bic.w	r9, r9, r9, asr #31
 8005f0e:	f104 021a 	add.w	r2, r4, #26
 8005f12:	6da3      	ldr	r3, [r4, #88]	@ 0x58
 8005f14:	9306      	str	r3, [sp, #24]
 8005f16:	eba3 0309 	sub.w	r3, r3, r9
 8005f1a:	455b      	cmp	r3, fp
 8005f1c:	dc31      	bgt.n	8005f82 <_printf_float+0x36e>
 8005f1e:	9b09      	ldr	r3, [sp, #36]	@ 0x24
 8005f20:	459a      	cmp	sl, r3
 8005f22:	dc3a      	bgt.n	8005f9a <_printf_float+0x386>
 8005f24:	6823      	ldr	r3, [r4, #0]
 8005f26:	07da      	lsls	r2, r3, #31
 8005f28:	d437      	bmi.n	8005f9a <_printf_float+0x386>
 8005f2a:	9b09      	ldr	r3, [sp, #36]	@ 0x24
 8005f2c:	ebaa 0903 	sub.w	r9, sl, r3
 8005f30:	9b06      	ldr	r3, [sp, #24]
 8005f32:	ebaa 0303 	sub.w	r3, sl, r3
 8005f36:	4599      	cmp	r9, r3
 8005f38:	bfa8      	it	ge
 8005f3a:	4699      	movge	r9, r3
 8005f3c:	f1b9 0f00 	cmp.w	r9, #0
 8005f40:	dc33      	bgt.n	8005faa <_printf_float+0x396>
 8005f42:	f04f 0800 	mov.w	r8, #0
 8005f46:	ea29 79e9 	bic.w	r9, r9, r9, asr #31
 8005f4a:	f104 0b1a 	add.w	fp, r4, #26
 8005f4e:	9b09      	ldr	r3, [sp, #36]	@ 0x24
 8005f50:	ebaa 0303 	sub.w	r3, sl, r3
 8005f54:	eba3 0309 	sub.w	r3, r3, r9
 8005f58:	4543      	cmp	r3, r8
 8005f5a:	f77f af79 	ble.w	8005e50 <_printf_float+0x23c>
 8005f5e:	2301      	movs	r3, #1
 8005f60:	465a      	mov	r2, fp
 8005f62:	4631      	mov	r1, r6
 8005f64:	4628      	mov	r0, r5
 8005f66:	47b8      	blx	r7
 8005f68:	3001      	adds	r0, #1
 8005f6a:	f43f aeae 	beq.w	8005cca <_printf_float+0xb6>
 8005f6e:	f108 0801 	add.w	r8, r8, #1
 8005f72:	e7ec      	b.n	8005f4e <_printf_float+0x33a>
 8005f74:	4642      	mov	r2, r8
 8005f76:	4631      	mov	r1, r6
 8005f78:	4628      	mov	r0, r5
 8005f7a:	47b8      	blx	r7
 8005f7c:	3001      	adds	r0, #1
 8005f7e:	d1c2      	bne.n	8005f06 <_printf_float+0x2f2>
 8005f80:	e6a3      	b.n	8005cca <_printf_float+0xb6>
 8005f82:	2301      	movs	r3, #1
 8005f84:	4631      	mov	r1, r6
 8005f86:	4628      	mov	r0, r5
 8005f88:	9206      	str	r2, [sp, #24]
 8005f8a:	47b8      	blx	r7
 8005f8c:	3001      	adds	r0, #1
 8005f8e:	f43f ae9c 	beq.w	8005cca <_printf_float+0xb6>
 8005f92:	9a06      	ldr	r2, [sp, #24]
 8005f94:	f10b 0b01 	add.w	fp, fp, #1
 8005f98:	e7bb      	b.n	8005f12 <_printf_float+0x2fe>
 8005f9a:	e9dd 2304 	ldrd	r2, r3, [sp, #16]
 8005f9e:	4631      	mov	r1, r6
 8005fa0:	4628      	mov	r0, r5
 8005fa2:	47b8      	blx	r7
 8005fa4:	3001      	adds	r0, #1
 8005fa6:	d1c0      	bne.n	8005f2a <_printf_float+0x316>
 8005fa8:	e68f      	b.n	8005cca <_printf_float+0xb6>
 8005faa:	9a06      	ldr	r2, [sp, #24]
 8005fac:	464b      	mov	r3, r9
 8005fae:	4442      	add	r2, r8
 8005fb0:	4631      	mov	r1, r6
 8005fb2:	4628      	mov	r0, r5
 8005fb4:	47b8      	blx	r7
 8005fb6:	3001      	adds	r0, #1
 8005fb8:	d1c3      	bne.n	8005f42 <_printf_float+0x32e>
 8005fba:	e686      	b.n	8005cca <_printf_float+0xb6>
 8005fbc:	f8dd a028 	ldr.w	sl, [sp, #40]	@ 0x28
 8005fc0:	f1ba 0f01 	cmp.w	sl, #1
 8005fc4:	dc01      	bgt.n	8005fca <_printf_float+0x3b6>
 8005fc6:	07db      	lsls	r3, r3, #31
 8005fc8:	d536      	bpl.n	8006038 <_printf_float+0x424>
 8005fca:	2301      	movs	r3, #1
 8005fcc:	4642      	mov	r2, r8
 8005fce:	4631      	mov	r1, r6
 8005fd0:	4628      	mov	r0, r5
 8005fd2:	47b8      	blx	r7
 8005fd4:	3001      	adds	r0, #1
 8005fd6:	f43f ae78 	beq.w	8005cca <_printf_float+0xb6>
 8005fda:	e9dd 2304 	ldrd	r2, r3, [sp, #16]
 8005fde:	4631      	mov	r1, r6
 8005fe0:	4628      	mov	r0, r5
 8005fe2:	47b8      	blx	r7
 8005fe4:	3001      	adds	r0, #1
 8005fe6:	f43f ae70 	beq.w	8005cca <_printf_float+0xb6>
 8005fea:	e9d4 0112 	ldrd	r0, r1, [r4, #72]	@ 0x48
 8005fee:	2200      	movs	r2, #0
 8005ff0:	2300      	movs	r3, #0
 8005ff2:	f10a 3aff 	add.w	sl, sl, #4294967295	@ 0xffffffff
 8005ff6:	f7fa fd87 	bl	8000b08 <__aeabi_dcmpeq>
 8005ffa:	b9c0      	cbnz	r0, 800602e <_printf_float+0x41a>
 8005ffc:	4653      	mov	r3, sl
 8005ffe:	f108 0201 	add.w	r2, r8, #1
 8006002:	4631      	mov	r1, r6
 8006004:	4628      	mov	r0, r5
 8006006:	47b8      	blx	r7
 8006008:	3001      	adds	r0, #1
 800600a:	d10c      	bne.n	8006026 <_printf_float+0x412>
 800600c:	e65d      	b.n	8005cca <_printf_float+0xb6>
 800600e:	2301      	movs	r3, #1
 8006010:	465a      	mov	r2, fp
 8006012:	4631      	mov	r1, r6
 8006014:	4628      	mov	r0, r5
 8006016:	47b8      	blx	r7
 8006018:	3001      	adds	r0, #1
 800601a:	f43f ae56 	beq.w	8005cca <_printf_float+0xb6>
 800601e:	f108 0801 	add.w	r8, r8, #1
 8006022:	45d0      	cmp	r8, sl
 8006024:	dbf3      	blt.n	800600e <_printf_float+0x3fa>
 8006026:	464b      	mov	r3, r9
 8006028:	f104 0250 	add.w	r2, r4, #80	@ 0x50
 800602c:	e6df      	b.n	8005dee <_printf_float+0x1da>
 800602e:	f04f 0800 	mov.w	r8, #0
 8006032:	f104 0b1a 	add.w	fp, r4, #26
 8006036:	e7f4      	b.n	8006022 <_printf_float+0x40e>
 8006038:	2301      	movs	r3, #1
 800603a:	4642      	mov	r2, r8
 800603c:	e7e1      	b.n	8006002 <_printf_float+0x3ee>
 800603e:	2301      	movs	r3, #1
 8006040:	464a      	mov	r2, r9
 8006042:	4631      	mov	r1, r6
 8006044:	4628      	mov	r0, r5
 8006046:	47b8      	blx	r7
 8006048:	3001      	adds	r0, #1
 800604a:	f43f ae3e 	beq.w	8005cca <_printf_float+0xb6>
 800604e:	f108 0801 	add.w	r8, r8, #1
 8006052:	68e3      	ldr	r3, [r4, #12]
 8006054:	990b      	ldr	r1, [sp, #44]	@ 0x2c
 8006056:	1a5b      	subs	r3, r3, r1
 8006058:	4543      	cmp	r3, r8
 800605a:	dcf0      	bgt.n	800603e <_printf_float+0x42a>
 800605c:	e6fc      	b.n	8005e58 <_printf_float+0x244>
 800605e:	f04f 0800 	mov.w	r8, #0
 8006062:	f104 0919 	add.w	r9, r4, #25
 8006066:	e7f4      	b.n	8006052 <_printf_float+0x43e>

08006068 <malloc>:
 8006068:	4b02      	ldr	r3, [pc, #8]	@ (8006074 <malloc+0xc>)
 800606a:	4601      	mov	r1, r0
 800606c:	6818      	ldr	r0, [r3, #0]
 800606e:	f000 b825 	b.w	80060bc <_malloc_r>
 8006072:	bf00      	nop
 8006074:	20000018 	.word	0x20000018

08006078 <sbrk_aligned>:
 8006078:	b570      	push	{r4, r5, r6, lr}
 800607a:	4e0f      	ldr	r6, [pc, #60]	@ (80060b8 <sbrk_aligned+0x40>)
 800607c:	460c      	mov	r4, r1
 800607e:	6831      	ldr	r1, [r6, #0]
 8006080:	4605      	mov	r5, r0
 8006082:	b911      	cbnz	r1, 800608a <sbrk_aligned+0x12>
 8006084:	f000 fb22 	bl	80066cc <_sbrk_r>
 8006088:	6030      	str	r0, [r6, #0]
 800608a:	4621      	mov	r1, r4
 800608c:	4628      	mov	r0, r5
 800608e:	f000 fb1d 	bl	80066cc <_sbrk_r>
 8006092:	1c43      	adds	r3, r0, #1
 8006094:	d103      	bne.n	800609e <sbrk_aligned+0x26>
 8006096:	f04f 34ff 	mov.w	r4, #4294967295	@ 0xffffffff
 800609a:	4620      	mov	r0, r4
 800609c:	bd70      	pop	{r4, r5, r6, pc}
 800609e:	1cc4      	adds	r4, r0, #3
 80060a0:	f024 0403 	bic.w	r4, r4, #3
 80060a4:	42a0      	cmp	r0, r4
 80060a6:	d0f8      	beq.n	800609a <sbrk_aligned+0x22>
 80060a8:	1a21      	subs	r1, r4, r0
 80060aa:	4628      	mov	r0, r5
 80060ac:	f000 fb0e 	bl	80066cc <_sbrk_r>
 80060b0:	3001      	adds	r0, #1
 80060b2:	d1f2      	bne.n	800609a <sbrk_aligned+0x22>
 80060b4:	e7ef      	b.n	8006096 <sbrk_aligned+0x1e>
 80060b6:	bf00      	nop
 80060b8:	20000370 	.word	0x20000370

080060bc <_malloc_r>:
 80060bc:	e92d 43f8 	stmdb	sp!, {r3, r4, r5, r6, r7, r8, r9, lr}
 80060c0:	1ccd      	adds	r5, r1, #3
 80060c2:	f025 0503 	bic.w	r5, r5, #3
 80060c6:	3508      	adds	r5, #8
 80060c8:	2d0c      	cmp	r5, #12
 80060ca:	bf38      	it	cc
 80060cc:	250c      	movcc	r5, #12
 80060ce:	2d00      	cmp	r5, #0
 80060d0:	4606      	mov	r6, r0
 80060d2:	db01      	blt.n	80060d8 <_malloc_r+0x1c>
 80060d4:	42a9      	cmp	r1, r5
 80060d6:	d904      	bls.n	80060e2 <_malloc_r+0x26>
 80060d8:	230c      	movs	r3, #12
 80060da:	6033      	str	r3, [r6, #0]
 80060dc:	2000      	movs	r0, #0
 80060de:	e8bd 83f8 	ldmia.w	sp!, {r3, r4, r5, r6, r7, r8, r9, pc}
 80060e2:	f8df 80d4 	ldr.w	r8, [pc, #212]	@ 80061b8 <_malloc_r+0xfc>
 80060e6:	f000 f9f7 	bl	80064d8 <__malloc_lock>
 80060ea:	f8d8 3000 	ldr.w	r3, [r8]
 80060ee:	461c      	mov	r4, r3
 80060f0:	bb44      	cbnz	r4, 8006144 <_malloc_r+0x88>
 80060f2:	4629      	mov	r1, r5
 80060f4:	4630      	mov	r0, r6
 80060f6:	f7ff ffbf 	bl	8006078 <sbrk_aligned>
 80060fa:	1c43      	adds	r3, r0, #1
 80060fc:	4604      	mov	r4, r0
 80060fe:	d158      	bne.n	80061b2 <_malloc_r+0xf6>
 8006100:	f8d8 4000 	ldr.w	r4, [r8]
 8006104:	4627      	mov	r7, r4
 8006106:	2f00      	cmp	r7, #0
 8006108:	d143      	bne.n	8006192 <_malloc_r+0xd6>
 800610a:	2c00      	cmp	r4, #0
 800610c:	d04b      	beq.n	80061a6 <_malloc_r+0xea>
 800610e:	6823      	ldr	r3, [r4, #0]
 8006110:	4639      	mov	r1, r7
 8006112:	4630      	mov	r0, r6
 8006114:	eb04 0903 	add.w	r9, r4, r3
 8006118:	f000 fad8 	bl	80066cc <_sbrk_r>
 800611c:	4581      	cmp	r9, r0
 800611e:	d142      	bne.n	80061a6 <_malloc_r+0xea>
 8006120:	6821      	ldr	r1, [r4, #0]
 8006122:	1a6d      	subs	r5, r5, r1
 8006124:	4629      	mov	r1, r5
 8006126:	4630      	mov	r0, r6
 8006128:	f7ff ffa6 	bl	8006078 <sbrk_aligned>
 800612c:	3001      	adds	r0, #1
 800612e:	d03a      	beq.n	80061a6 <_malloc_r+0xea>
 8006130:	6823      	ldr	r3, [r4, #0]
 8006132:	442b      	add	r3, r5
 8006134:	6023      	str	r3, [r4, #0]
 8006136:	f8d8 3000 	ldr.w	r3, [r8]
 800613a:	685a      	ldr	r2, [r3, #4]
 800613c:	bb62      	cbnz	r2, 8006198 <_malloc_r+0xdc>
 800613e:	f8c8 7000 	str.w	r7, [r8]
 8006142:	e00f      	b.n	8006164 <_malloc_r+0xa8>
 8006144:	6822      	ldr	r2, [r4, #0]
 8006146:	1b52      	subs	r2, r2, r5
 8006148:	d420      	bmi.n	800618c <_malloc_r+0xd0>
 800614a:	2a0b      	cmp	r2, #11
 800614c:	d917      	bls.n	800617e <_malloc_r+0xc2>
 800614e:	1961      	adds	r1, r4, r5
 8006150:	42a3      	cmp	r3, r4
 8006152:	6025      	str	r5, [r4, #0]
 8006154:	bf18      	it	ne
 8006156:	6059      	strne	r1, [r3, #4]
 8006158:	6863      	ldr	r3, [r4, #4]
 800615a:	bf08      	it	eq
 800615c:	f8c8 1000 	streq.w	r1, [r8]
 8006160:	5162      	str	r2, [r4, r5]
 8006162:	604b      	str	r3, [r1, #4]
 8006164:	4630      	mov	r0, r6
 8006166:	f000 f9bd 	bl	80064e4 <__malloc_unlock>
 800616a:	f104 000b 	add.w	r0, r4, #11
 800616e:	1d23      	adds	r3, r4, #4
 8006170:	f020 0007 	bic.w	r0, r0, #7
 8006174:	1ac2      	subs	r2, r0, r3
 8006176:	bf1c      	itt	ne
 8006178:	1a1b      	subne	r3, r3, r0
 800617a:	50a3      	strne	r3, [r4, r2]
 800617c:	e7af      	b.n	80060de <_malloc_r+0x22>
 800617e:	6862      	ldr	r2, [r4, #4]
 8006180:	42a3      	cmp	r3, r4
 8006182:	bf0c      	ite	eq
 8006184:	f8c8 2000 	streq.w	r2, [r8]
 8006188:	605a      	strne	r2, [r3, #4]
 800618a:	e7eb      	b.n	8006164 <_malloc_r+0xa8>
 800618c:	4623      	mov	r3, r4
 800618e:	6864      	ldr	r4, [r4, #4]
 8006190:	e7ae      	b.n	80060f0 <_malloc_r+0x34>
 8006192:	463c      	mov	r4, r7
 8006194:	687f      	ldr	r7, [r7, #4]
 8006196:	e7b6      	b.n	8006106 <_malloc_r+0x4a>
 8006198:	461a      	mov	r2, r3
 800619a:	685b      	ldr	r3, [r3, #4]
 800619c:	42a3      	cmp	r3, r4
 800619e:	d1fb      	bne.n	8006198 <_malloc_r+0xdc>
 80061a0:	2300      	movs	r3, #0
 80061a2:	6053      	str	r3, [r2, #4]
 80061a4:	e7de      	b.n	8006164 <_malloc_r+0xa8>
 80061a6:	230c      	movs	r3, #12
 80061a8:	6033      	str	r3, [r6, #0]
 80061aa:	4630      	mov	r0, r6
 80061ac:	f000 f99a 	bl	80064e4 <__malloc_unlock>
 80061b0:	e794      	b.n	80060dc <_malloc_r+0x20>
 80061b2:	6005      	str	r5, [r0, #0]
 80061b4:	e7d6      	b.n	8006164 <_malloc_r+0xa8>
 80061b6:	bf00      	nop
 80061b8:	20000374 	.word	0x20000374

080061bc <_printf_common>:
 80061bc:	e92d 47f0 	stmdb	sp!, {r4, r5, r6, r7, r8, r9, sl, lr}
 80061c0:	4616      	mov	r6, r2
 80061c2:	4698      	mov	r8, r3
 80061c4:	688a      	ldr	r2, [r1, #8]
 80061c6:	690b      	ldr	r3, [r1, #16]
 80061c8:	f8dd 9020 	ldr.w	r9, [sp, #32]
 80061cc:	4293      	cmp	r3, r2
 80061ce:	bfb8      	it	lt
 80061d0:	4613      	movlt	r3, r2
 80061d2:	6033      	str	r3, [r6, #0]
 80061d4:	f891 2043 	ldrb.w	r2, [r1, #67]	@ 0x43
 80061d8:	4607      	mov	r7, r0
 80061da:	460c      	mov	r4, r1
 80061dc:	b10a      	cbz	r2, 80061e2 <_printf_common+0x26>
 80061de:	3301      	adds	r3, #1
 80061e0:	6033      	str	r3, [r6, #0]
 80061e2:	6823      	ldr	r3, [r4, #0]
 80061e4:	0699      	lsls	r1, r3, #26
 80061e6:	bf42      	ittt	mi
 80061e8:	6833      	ldrmi	r3, [r6, #0]
 80061ea:	3302      	addmi	r3, #2
 80061ec:	6033      	strmi	r3, [r6, #0]
 80061ee:	6825      	ldr	r5, [r4, #0]
 80061f0:	f015 0506 	ands.w	r5, r5, #6
 80061f4:	d106      	bne.n	8006204 <_printf_common+0x48>
 80061f6:	f104 0a19 	add.w	sl, r4, #25
 80061fa:	68e3      	ldr	r3, [r4, #12]
 80061fc:	6832      	ldr	r2, [r6, #0]
 80061fe:	1a9b      	subs	r3, r3, r2
 8006200:	42ab      	cmp	r3, r5
 8006202:	dc26      	bgt.n	8006252 <_printf_common+0x96>
 8006204:	f894 3043 	ldrb.w	r3, [r4, #67]	@ 0x43
 8006208:	6822      	ldr	r2, [r4, #0]
 800620a:	3b00      	subs	r3, #0
 800620c:	bf18      	it	ne
 800620e:	2301      	movne	r3, #1
 8006210:	0692      	lsls	r2, r2, #26
 8006212:	d42b      	bmi.n	800626c <_printf_common+0xb0>
 8006214:	f104 0243 	add.w	r2, r4, #67	@ 0x43
 8006218:	4641      	mov	r1, r8
 800621a:	4638      	mov	r0, r7
 800621c:	47c8      	blx	r9
 800621e:	3001      	adds	r0, #1
 8006220:	d01e      	beq.n	8006260 <_printf_common+0xa4>
 8006222:	6823      	ldr	r3, [r4, #0]
 8006224:	6922      	ldr	r2, [r4, #16]
 8006226:	f003 0306 	and.w	r3, r3, #6
 800622a:	2b04      	cmp	r3, #4
 800622c:	bf02      	ittt	eq
 800622e:	68e5      	ldreq	r5, [r4, #12]
 8006230:	6833      	ldreq	r3, [r6, #0]
 8006232:	1aed      	subeq	r5, r5, r3
 8006234:	68a3      	ldr	r3, [r4, #8]
 8006236:	bf0c      	ite	eq
 8006238:	ea25 75e5 	biceq.w	r5, r5, r5, asr #31
 800623c:	2500      	movne	r5, #0
 800623e:	4293      	cmp	r3, r2
 8006240:	bfc4      	itt	gt
 8006242:	1a9b      	subgt	r3, r3, r2
 8006244:	18ed      	addgt	r5, r5, r3
 8006246:	2600      	movs	r6, #0
 8006248:	341a      	adds	r4, #26
 800624a:	42b5      	cmp	r5, r6
 800624c:	d11a      	bne.n	8006284 <_printf_common+0xc8>
 800624e:	2000      	movs	r0, #0
 8006250:	e008      	b.n	8006264 <_printf_common+0xa8>
 8006252:	2301      	movs	r3, #1
 8006254:	4652      	mov	r2, sl
 8006256:	4641      	mov	r1, r8
 8006258:	4638      	mov	r0, r7
 800625a:	47c8      	blx	r9
 800625c:	3001      	adds	r0, #1
 800625e:	d103      	bne.n	8006268 <_printf_common+0xac>
 8006260:	f04f 30ff 	mov.w	r0, #4294967295	@ 0xffffffff
 8006264:	e8bd 87f0 	ldmia.w	sp!, {r4, r5, r6, r7, r8, r9, sl, pc}
 8006268:	3501      	adds	r5, #1
 800626a:	e7c6      	b.n	80061fa <_printf_common+0x3e>
 800626c:	18e1      	adds	r1, r4, r3
 800626e:	1c5a      	adds	r2, r3, #1
 8006270:	2030      	movs	r0, #48	@ 0x30
 8006272:	f881 0043 	strb.w	r0, [r1, #67]	@ 0x43
 8006276:	4422      	add	r2, r4
 8006278:	f894 1045 	ldrb.w	r1, [r4, #69]	@ 0x45
 800627c:	f882 1043 	strb.w	r1, [r2, #67]	@ 0x43
 8006280:	3302      	adds	r3, #2
 8006282:	e7c7      	b.n	8006214 <_printf_common+0x58>
 8006284:	2301      	movs	r3, #1
 8006286:	4622      	mov	r2, r4
 8006288:	4641      	mov	r1, r8
 800628a:	4638      	mov	r0, r7
 800628c:	47c8      	blx	r9
 800628e:	3001      	adds	r0, #1
 8006290:	d0e6      	beq.n	8006260 <_printf_common+0xa4>
 8006292:	3601      	adds	r6, #1
 8006294:	e7d9      	b.n	800624a <_printf_common+0x8e>
	...

08006298 <_printf_i>:
 8006298:	e92d 47ff 	stmdb	sp!, {r0, r1, r2, r3, r4, r5, r6, r7, r8, r9, sl, lr}
 800629c:	7e0f      	ldrb	r7, [r1, #24]
 800629e:	9e0c      	ldr	r6, [sp, #48]	@ 0x30
 80062a0:	2f78      	cmp	r7, #120	@ 0x78
 80062a2:	4691      	mov	r9, r2
 80062a4:	4680      	mov	r8, r0
 80062a6:	460c      	mov	r4, r1
 80062a8:	469a      	mov	sl, r3
 80062aa:	f101 0243 	add.w	r2, r1, #67	@ 0x43
 80062ae:	d807      	bhi.n	80062c0 <_printf_i+0x28>
 80062b0:	2f62      	cmp	r7, #98	@ 0x62
 80062b2:	d80a      	bhi.n	80062ca <_printf_i+0x32>
 80062b4:	2f00      	cmp	r7, #0
 80062b6:	f000 80d2 	beq.w	800645e <_printf_i+0x1c6>
 80062ba:	2f58      	cmp	r7, #88	@ 0x58
 80062bc:	f000 80b9 	beq.w	8006432 <_printf_i+0x19a>
 80062c0:	f104 0642 	add.w	r6, r4, #66	@ 0x42
 80062c4:	f884 7042 	strb.w	r7, [r4, #66]	@ 0x42
 80062c8:	e03a      	b.n	8006340 <_printf_i+0xa8>
 80062ca:	f1a7 0363 	sub.w	r3, r7, #99	@ 0x63
 80062ce:	2b15      	cmp	r3, #21
 80062d0:	d8f6      	bhi.n	80062c0 <_printf_i+0x28>
 80062d2:	a101      	add	r1, pc, #4	@ (adr r1, 80062d8 <_printf_i+0x40>)
 80062d4:	f851 f023 	ldr.w	pc, [r1, r3, lsl #2]
 80062d8:	08006331 	.word	0x08006331
 80062dc:	08006345 	.word	0x08006345
 80062e0:	080062c1 	.word	0x080062c1
 80062e4:	080062c1 	.word	0x080062c1
 80062e8:	080062c1 	.word	0x080062c1
 80062ec:	080062c1 	.word	0x080062c1
 80062f0:	08006345 	.word	0x08006345
 80062f4:	080062c1 	.word	0x080062c1
 80062f8:	080062c1 	.word	0x080062c1
 80062fc:	080062c1 	.word	0x080062c1
 8006300:	080062c1 	.word	0x080062c1
 8006304:	08006445 	.word	0x08006445
 8006308:	0800636f 	.word	0x0800636f
 800630c:	080063ff 	.word	0x080063ff
 8006310:	080062c1 	.word	0x080062c1
 8006314:	080062c1 	.word	0x080062c1
 8006318:	08006467 	.word	0x08006467
 800631c:	080062c1 	.word	0x080062c1
 8006320:	0800636f 	.word	0x0800636f
 8006324:	080062c1 	.word	0x080062c1
 8006328:	080062c1 	.word	0x080062c1
 800632c:	08006407 	.word	0x08006407
 8006330:	6833      	ldr	r3, [r6, #0]
 8006332:	1d1a      	adds	r2, r3, #4
 8006334:	681b      	ldr	r3, [r3, #0]
 8006336:	6032      	str	r2, [r6, #0]
 8006338:	f104 0642 	add.w	r6, r4, #66	@ 0x42
 800633c:	f884 3042 	strb.w	r3, [r4, #66]	@ 0x42
 8006340:	2301      	movs	r3, #1
 8006342:	e09d      	b.n	8006480 <_printf_i+0x1e8>
 8006344:	6833      	ldr	r3, [r6, #0]
 8006346:	6820      	ldr	r0, [r4, #0]
 8006348:	1d19      	adds	r1, r3, #4
 800634a:	6031      	str	r1, [r6, #0]
 800634c:	0606      	lsls	r6, r0, #24
 800634e:	d501      	bpl.n	8006354 <_printf_i+0xbc>
 8006350:	681d      	ldr	r5, [r3, #0]
 8006352:	e003      	b.n	800635c <_printf_i+0xc4>
 8006354:	0645      	lsls	r5, r0, #25
 8006356:	d5fb      	bpl.n	8006350 <_printf_i+0xb8>
 8006358:	f9b3 5000 	ldrsh.w	r5, [r3]
 800635c:	2d00      	cmp	r5, #0
 800635e:	da03      	bge.n	8006368 <_printf_i+0xd0>
 8006360:	232d      	movs	r3, #45	@ 0x2d
 8006362:	426d      	negs	r5, r5
 8006364:	f884 3043 	strb.w	r3, [r4, #67]	@ 0x43
 8006368:	4859      	ldr	r0, [pc, #356]	@ (80064d0 <_printf_i+0x238>)
 800636a:	230a      	movs	r3, #10
 800636c:	e011      	b.n	8006392 <_printf_i+0xfa>
 800636e:	6821      	ldr	r1, [r4, #0]
 8006370:	6833      	ldr	r3, [r6, #0]
 8006372:	0608      	lsls	r0, r1, #24
 8006374:	f853 5b04 	ldr.w	r5, [r3], #4
 8006378:	d402      	bmi.n	8006380 <_printf_i+0xe8>
 800637a:	0649      	lsls	r1, r1, #25
 800637c:	bf48      	it	mi
 800637e:	b2ad      	uxthmi	r5, r5
 8006380:	2f6f      	cmp	r7, #111	@ 0x6f
 8006382:	4853      	ldr	r0, [pc, #332]	@ (80064d0 <_printf_i+0x238>)
 8006384:	6033      	str	r3, [r6, #0]
 8006386:	bf14      	ite	ne
 8006388:	230a      	movne	r3, #10
 800638a:	2308      	moveq	r3, #8
 800638c:	2100      	movs	r1, #0
 800638e:	f884 1043 	strb.w	r1, [r4, #67]	@ 0x43
 8006392:	6866      	ldr	r6, [r4, #4]
 8006394:	60a6      	str	r6, [r4, #8]
 8006396:	2e00      	cmp	r6, #0
 8006398:	bfa2      	ittt	ge
 800639a:	6821      	ldrge	r1, [r4, #0]
 800639c:	f021 0104 	bicge.w	r1, r1, #4
 80063a0:	6021      	strge	r1, [r4, #0]
 80063a2:	b90d      	cbnz	r5, 80063a8 <_printf_i+0x110>
 80063a4:	2e00      	cmp	r6, #0
 80063a6:	d04b      	beq.n	8006440 <_printf_i+0x1a8>
 80063a8:	4616      	mov	r6, r2
 80063aa:	fbb5 f1f3 	udiv	r1, r5, r3
 80063ae:	fb03 5711 	mls	r7, r3, r1, r5
 80063b2:	5dc7      	ldrb	r7, [r0, r7]
 80063b4:	f806 7d01 	strb.w	r7, [r6, #-1]!
 80063b8:	462f      	mov	r7, r5
 80063ba:	42bb      	cmp	r3, r7
 80063bc:	460d      	mov	r5, r1
 80063be:	d9f4      	bls.n	80063aa <_printf_i+0x112>
 80063c0:	2b08      	cmp	r3, #8
 80063c2:	d10b      	bne.n	80063dc <_printf_i+0x144>
 80063c4:	6823      	ldr	r3, [r4, #0]
 80063c6:	07df      	lsls	r7, r3, #31
 80063c8:	d508      	bpl.n	80063dc <_printf_i+0x144>
 80063ca:	6923      	ldr	r3, [r4, #16]
 80063cc:	6861      	ldr	r1, [r4, #4]
 80063ce:	4299      	cmp	r1, r3
 80063d0:	bfde      	ittt	le
 80063d2:	2330      	movle	r3, #48	@ 0x30
 80063d4:	f806 3c01 	strble.w	r3, [r6, #-1]
 80063d8:	f106 36ff 	addle.w	r6, r6, #4294967295	@ 0xffffffff
 80063dc:	1b92      	subs	r2, r2, r6
 80063de:	6122      	str	r2, [r4, #16]
 80063e0:	f8cd a000 	str.w	sl, [sp]
 80063e4:	464b      	mov	r3, r9
 80063e6:	aa03      	add	r2, sp, #12
 80063e8:	4621      	mov	r1, r4
 80063ea:	4640      	mov	r0, r8
 80063ec:	f7ff fee6 	bl	80061bc <_printf_common>
 80063f0:	3001      	adds	r0, #1
 80063f2:	d14a      	bne.n	800648a <_printf_i+0x1f2>
 80063f4:	f04f 30ff 	mov.w	r0, #4294967295	@ 0xffffffff
 80063f8:	b004      	add	sp, #16
 80063fa:	e8bd 87f0 	ldmia.w	sp!, {r4, r5, r6, r7, r8, r9, sl, pc}
 80063fe:	6823      	ldr	r3, [r4, #0]
 8006400:	f043 0320 	orr.w	r3, r3, #32
 8006404:	6023      	str	r3, [r4, #0]
 8006406:	4833      	ldr	r0, [pc, #204]	@ (80064d4 <_printf_i+0x23c>)
 8006408:	2778      	movs	r7, #120	@ 0x78
 800640a:	f884 7045 	strb.w	r7, [r4, #69]	@ 0x45
 800640e:	6823      	ldr	r3, [r4, #0]
 8006410:	6831      	ldr	r1, [r6, #0]
 8006412:	061f      	lsls	r7, r3, #24
 8006414:	f851 5b04 	ldr.w	r5, [r1], #4
 8006418:	d402      	bmi.n	8006420 <_printf_i+0x188>
 800641a:	065f      	lsls	r7, r3, #25
 800641c:	bf48      	it	mi
 800641e:	b2ad      	uxthmi	r5, r5
 8006420:	6031      	str	r1, [r6, #0]
 8006422:	07d9      	lsls	r1, r3, #31
 8006424:	bf44      	itt	mi
 8006426:	f043 0320 	orrmi.w	r3, r3, #32
 800642a:	6023      	strmi	r3, [r4, #0]
 800642c:	b11d      	cbz	r5, 8006436 <_printf_i+0x19e>
 800642e:	2310      	movs	r3, #16
 8006430:	e7ac      	b.n	800638c <_printf_i+0xf4>
 8006432:	4827      	ldr	r0, [pc, #156]	@ (80064d0 <_printf_i+0x238>)
 8006434:	e7e9      	b.n	800640a <_printf_i+0x172>
 8006436:	6823      	ldr	r3, [r4, #0]
 8006438:	f023 0320 	bic.w	r3, r3, #32
 800643c:	6023      	str	r3, [r4, #0]
 800643e:	e7f6      	b.n	800642e <_printf_i+0x196>
 8006440:	4616      	mov	r6, r2
 8006442:	e7bd      	b.n	80063c0 <_printf_i+0x128>
 8006444:	6833      	ldr	r3, [r6, #0]
 8006446:	6825      	ldr	r5, [r4, #0]
 8006448:	6961      	ldr	r1, [r4, #20]
 800644a:	1d18      	adds	r0, r3, #4
 800644c:	6030      	str	r0, [r6, #0]
 800644e:	062e      	lsls	r6, r5, #24
 8006450:	681b      	ldr	r3, [r3, #0]
 8006452:	d501      	bpl.n	8006458 <_printf_i+0x1c0>
 8006454:	6019      	str	r1, [r3, #0]
 8006456:	e002      	b.n	800645e <_printf_i+0x1c6>
 8006458:	0668      	lsls	r0, r5, #25
 800645a:	d5fb      	bpl.n	8006454 <_printf_i+0x1bc>
 800645c:	8019      	strh	r1, [r3, #0]
 800645e:	2300      	movs	r3, #0
 8006460:	6123      	str	r3, [r4, #16]
 8006462:	4616      	mov	r6, r2
 8006464:	e7bc      	b.n	80063e0 <_printf_i+0x148>
 8006466:	6833      	ldr	r3, [r6, #0]
 8006468:	1d1a      	adds	r2, r3, #4
 800646a:	6032      	str	r2, [r6, #0]
 800646c:	681e      	ldr	r6, [r3, #0]
 800646e:	6862      	ldr	r2, [r4, #4]
 8006470:	2100      	movs	r1, #0
 8006472:	4630      	mov	r0, r6
 8006474:	f7f9 fecc 	bl	8000210 <memchr>
 8006478:	b108      	cbz	r0, 800647e <_printf_i+0x1e6>
 800647a:	1b80      	subs	r0, r0, r6
 800647c:	6060      	str	r0, [r4, #4]
 800647e:	6863      	ldr	r3, [r4, #4]
 8006480:	6123      	str	r3, [r4, #16]
 8006482:	2300      	movs	r3, #0
 8006484:	f884 3043 	strb.w	r3, [r4, #67]	@ 0x43
 8006488:	e7aa      	b.n	80063e0 <_printf_i+0x148>
 800648a:	6923      	ldr	r3, [r4, #16]
 800648c:	4632      	mov	r2, r6
 800648e:	4649      	mov	r1, r9
 8006490:	4640      	mov	r0, r8
 8006492:	47d0      	blx	sl
 8006494:	3001      	adds	r0, #1
 8006496:	d0ad      	beq.n	80063f4 <_printf_i+0x15c>
 8006498:	6823      	ldr	r3, [r4, #0]
 800649a:	079b      	lsls	r3, r3, #30
 800649c:	d413      	bmi.n	80064c6 <_printf_i+0x22e>
 800649e:	68e0      	ldr	r0, [r4, #12]
 80064a0:	9b03      	ldr	r3, [sp, #12]
 80064a2:	4298      	cmp	r0, r3
 80064a4:	bfb8      	it	lt
 80064a6:	4618      	movlt	r0, r3
 80064a8:	e7a6      	b.n	80063f8 <_printf_i+0x160>
 80064aa:	2301      	movs	r3, #1
 80064ac:	4632      	mov	r2, r6
 80064ae:	4649      	mov	r1, r9
 80064b0:	4640      	mov	r0, r8
 80064b2:	47d0      	blx	sl
 80064b4:	3001      	adds	r0, #1
 80064b6:	d09d      	beq.n	80063f4 <_printf_i+0x15c>
 80064b8:	3501      	adds	r5, #1
 80064ba:	68e3      	ldr	r3, [r4, #12]
 80064bc:	9903      	ldr	r1, [sp, #12]
 80064be:	1a5b      	subs	r3, r3, r1
 80064c0:	42ab      	cmp	r3, r5
 80064c2:	dcf2      	bgt.n	80064aa <_printf_i+0x212>
 80064c4:	e7eb      	b.n	800649e <_printf_i+0x206>
 80064c6:	2500      	movs	r5, #0
 80064c8:	f104 0619 	add.w	r6, r4, #25
 80064cc:	e7f5      	b.n	80064ba <_printf_i+0x222>
 80064ce:	bf00      	nop
 80064d0:	080088f2 	.word	0x080088f2
 80064d4:	08008903 	.word	0x08008903

080064d8 <__malloc_lock>:
 80064d8:	4801      	ldr	r0, [pc, #4]	@ (80064e0 <__malloc_lock+0x8>)
 80064da:	f000 b932 	b.w	8006742 <__retarget_lock_acquire_recursive>
 80064de:	bf00      	nop
 80064e0:	200004b4 	.word	0x200004b4

080064e4 <__malloc_unlock>:
 80064e4:	4801      	ldr	r0, [pc, #4]	@ (80064ec <__malloc_unlock+0x8>)
 80064e6:	f000 b92d 	b.w	8006744 <__retarget_lock_release_recursive>
 80064ea:	bf00      	nop
 80064ec:	200004b4 	.word	0x200004b4

080064f0 <siprintf>:
 80064f0:	b40e      	push	{r1, r2, r3}
 80064f2:	b500      	push	{lr}
 80064f4:	b09c      	sub	sp, #112	@ 0x70
 80064f6:	ab1d      	add	r3, sp, #116	@ 0x74
 80064f8:	9002      	str	r0, [sp, #8]
 80064fa:	9006      	str	r0, [sp, #24]
 80064fc:	f06f 4100 	mvn.w	r1, #2147483648	@ 0x80000000
 8006500:	4809      	ldr	r0, [pc, #36]	@ (8006528 <siprintf+0x38>)
 8006502:	9107      	str	r1, [sp, #28]
 8006504:	9104      	str	r1, [sp, #16]
 8006506:	4909      	ldr	r1, [pc, #36]	@ (800652c <siprintf+0x3c>)
 8006508:	f853 2b04 	ldr.w	r2, [r3], #4
 800650c:	9105      	str	r1, [sp, #20]
 800650e:	6800      	ldr	r0, [r0, #0]
 8006510:	9301      	str	r3, [sp, #4]
 8006512:	a902      	add	r1, sp, #8
 8006514:	f001 f80a 	bl	800752c <_svfiprintf_r>
 8006518:	9b02      	ldr	r3, [sp, #8]
 800651a:	2200      	movs	r2, #0
 800651c:	701a      	strb	r2, [r3, #0]
 800651e:	b01c      	add	sp, #112	@ 0x70
 8006520:	f85d eb04 	ldr.w	lr, [sp], #4
 8006524:	b003      	add	sp, #12
 8006526:	4770      	bx	lr
 8006528:	20000018 	.word	0x20000018
 800652c:	ffff0208 	.word	0xffff0208

08006530 <std>:
 8006530:	2300      	movs	r3, #0
 8006532:	b510      	push	{r4, lr}
 8006534:	4604      	mov	r4, r0
 8006536:	e9c0 3300 	strd	r3, r3, [r0]
 800653a:	e9c0 3304 	strd	r3, r3, [r0, #16]
 800653e:	6083      	str	r3, [r0, #8]
 8006540:	8181      	strh	r1, [r0, #12]
 8006542:	6643      	str	r3, [r0, #100]	@ 0x64
 8006544:	81c2      	strh	r2, [r0, #14]
 8006546:	6183      	str	r3, [r0, #24]
 8006548:	4619      	mov	r1, r3
 800654a:	2208      	movs	r2, #8
 800654c:	305c      	adds	r0, #92	@ 0x5c
 800654e:	f000 f8b1 	bl	80066b4 <memset>
 8006552:	4b0d      	ldr	r3, [pc, #52]	@ (8006588 <std+0x58>)
 8006554:	6263      	str	r3, [r4, #36]	@ 0x24
 8006556:	4b0d      	ldr	r3, [pc, #52]	@ (800658c <std+0x5c>)
 8006558:	62a3      	str	r3, [r4, #40]	@ 0x28
 800655a:	4b0d      	ldr	r3, [pc, #52]	@ (8006590 <std+0x60>)
 800655c:	62e3      	str	r3, [r4, #44]	@ 0x2c
 800655e:	4b0d      	ldr	r3, [pc, #52]	@ (8006594 <std+0x64>)
 8006560:	6323      	str	r3, [r4, #48]	@ 0x30
 8006562:	4b0d      	ldr	r3, [pc, #52]	@ (8006598 <std+0x68>)
 8006564:	6224      	str	r4, [r4, #32]
 8006566:	429c      	cmp	r4, r3
 8006568:	d006      	beq.n	8006578 <std+0x48>
 800656a:	f103 0268 	add.w	r2, r3, #104	@ 0x68
 800656e:	4294      	cmp	r4, r2
 8006570:	d002      	beq.n	8006578 <std+0x48>
 8006572:	33d0      	adds	r3, #208	@ 0xd0
 8006574:	429c      	cmp	r4, r3
 8006576:	d105      	bne.n	8006584 <std+0x54>
 8006578:	f104 0058 	add.w	r0, r4, #88	@ 0x58
 800657c:	e8bd 4010 	ldmia.w	sp!, {r4, lr}
 8006580:	f000 b8de 	b.w	8006740 <__retarget_lock_init_recursive>
 8006584:	bd10      	pop	{r4, pc}
 8006586:	bf00      	nop
 8006588:	08007f81 	.word	0x08007f81
 800658c:	08007fa3 	.word	0x08007fa3
 8006590:	08007fdb 	.word	0x08007fdb
 8006594:	08007fff 	.word	0x08007fff
 8006598:	20000378 	.word	0x20000378

0800659c <stdio_exit_handler>:
 800659c:	4a02      	ldr	r2, [pc, #8]	@ (80065a8 <stdio_exit_handler+0xc>)
 800659e:	4903      	ldr	r1, [pc, #12]	@ (80065ac <stdio_exit_handler+0x10>)
 80065a0:	4803      	ldr	r0, [pc, #12]	@ (80065b0 <stdio_exit_handler+0x14>)
 80065a2:	f000 b869 	b.w	8006678 <_fwalk_sglue>
 80065a6:	bf00      	nop
 80065a8:	2000000c 	.word	0x2000000c
 80065ac:	0800782d 	.word	0x0800782d
 80065b0:	2000001c 	.word	0x2000001c

080065b4 <cleanup_stdio>:
 80065b4:	6841      	ldr	r1, [r0, #4]
 80065b6:	4b0c      	ldr	r3, [pc, #48]	@ (80065e8 <cleanup_stdio+0x34>)
 80065b8:	4299      	cmp	r1, r3
 80065ba:	b510      	push	{r4, lr}
 80065bc:	4604      	mov	r4, r0
 80065be:	d001      	beq.n	80065c4 <cleanup_stdio+0x10>
 80065c0:	f001 f934 	bl	800782c <_fflush_r>
 80065c4:	68a1      	ldr	r1, [r4, #8]
 80065c6:	4b09      	ldr	r3, [pc, #36]	@ (80065ec <cleanup_stdio+0x38>)
 80065c8:	4299      	cmp	r1, r3
 80065ca:	d002      	beq.n	80065d2 <cleanup_stdio+0x1e>
 80065cc:	4620      	mov	r0, r4
 80065ce:	f001 f92d 	bl	800782c <_fflush_r>
 80065d2:	68e1      	ldr	r1, [r4, #12]
 80065d4:	4b06      	ldr	r3, [pc, #24]	@ (80065f0 <cleanup_stdio+0x3c>)
 80065d6:	4299      	cmp	r1, r3
 80065d8:	d004      	beq.n	80065e4 <cleanup_stdio+0x30>
 80065da:	4620      	mov	r0, r4
 80065dc:	e8bd 4010 	ldmia.w	sp!, {r4, lr}
 80065e0:	f001 b924 	b.w	800782c <_fflush_r>
 80065e4:	bd10      	pop	{r4, pc}
 80065e6:	bf00      	nop
 80065e8:	20000378 	.word	0x20000378
 80065ec:	200003e0 	.word	0x200003e0
 80065f0:	20000448 	.word	0x20000448

080065f4 <global_stdio_init.part.0>:
 80065f4:	b510      	push	{r4, lr}
 80065f6:	4b0b      	ldr	r3, [pc, #44]	@ (8006624 <global_stdio_init.part.0+0x30>)
 80065f8:	4c0b      	ldr	r4, [pc, #44]	@ (8006628 <global_stdio_init.part.0+0x34>)
 80065fa:	4a0c      	ldr	r2, [pc, #48]	@ (800662c <global_stdio_init.part.0+0x38>)
 80065fc:	601a      	str	r2, [r3, #0]
 80065fe:	4620      	mov	r0, r4
 8006600:	2200      	movs	r2, #0
 8006602:	2104      	movs	r1, #4
 8006604:	f7ff ff94 	bl	8006530 <std>
 8006608:	f104 0068 	add.w	r0, r4, #104	@ 0x68
 800660c:	2201      	movs	r2, #1
 800660e:	2109      	movs	r1, #9
 8006610:	f7ff ff8e 	bl	8006530 <std>
 8006614:	f104 00d0 	add.w	r0, r4, #208	@ 0xd0
 8006618:	2202      	movs	r2, #2
 800661a:	e8bd 4010 	ldmia.w	sp!, {r4, lr}
 800661e:	2112      	movs	r1, #18
 8006620:	f7ff bf86 	b.w	8006530 <std>
 8006624:	200004b0 	.word	0x200004b0
 8006628:	20000378 	.word	0x20000378
 800662c:	0800659d 	.word	0x0800659d

08006630 <__sfp_lock_acquire>:
 8006630:	4801      	ldr	r0, [pc, #4]	@ (8006638 <__sfp_lock_acquire+0x8>)
 8006632:	f000 b886 	b.w	8006742 <__retarget_lock_acquire_recursive>
 8006636:	bf00      	nop
 8006638:	200004b5 	.word	0x200004b5

0800663c <__sfp_lock_release>:
 800663c:	4801      	ldr	r0, [pc, #4]	@ (8006644 <__sfp_lock_release+0x8>)
 800663e:	f000 b881 	b.w	8006744 <__retarget_lock_release_recursive>
 8006642:	bf00      	nop
 8006644:	200004b5 	.word	0x200004b5

08006648 <__sinit>:
 8006648:	b510      	push	{r4, lr}
 800664a:	4604      	mov	r4, r0
 800664c:	f7ff fff0 	bl	8006630 <__sfp_lock_acquire>
 8006650:	6a23      	ldr	r3, [r4, #32]
 8006652:	b11b      	cbz	r3, 800665c <__sinit+0x14>
 8006654:	e8bd 4010 	ldmia.w	sp!, {r4, lr}
 8006658:	f7ff bff0 	b.w	800663c <__sfp_lock_release>
 800665c:	4b04      	ldr	r3, [pc, #16]	@ (8006670 <__sinit+0x28>)
 800665e:	6223      	str	r3, [r4, #32]
 8006660:	4b04      	ldr	r3, [pc, #16]	@ (8006674 <__sinit+0x2c>)
 8006662:	681b      	ldr	r3, [r3, #0]
 8006664:	2b00      	cmp	r3, #0
 8006666:	d1f5      	bne.n	8006654 <__sinit+0xc>
 8006668:	f7ff ffc4 	bl	80065f4 <global_stdio_init.part.0>
 800666c:	e7f2      	b.n	8006654 <__sinit+0xc>
 800666e:	bf00      	nop
 8006670:	080065b5 	.word	0x080065b5
 8006674:	200004b0 	.word	0x200004b0

08006678 <_fwalk_sglue>:
 8006678:	e92d 43f8 	stmdb	sp!, {r3, r4, r5, r6, r7, r8, r9, lr}
 800667c:	4607      	mov	r7, r0
 800667e:	4688      	mov	r8, r1
 8006680:	4614      	mov	r4, r2
 8006682:	2600      	movs	r6, #0
 8006684:	e9d4 9501 	ldrd	r9, r5, [r4, #4]
 8006688:	f1b9 0901 	subs.w	r9, r9, #1
 800668c:	d505      	bpl.n	800669a <_fwalk_sglue+0x22>
 800668e:	6824      	ldr	r4, [r4, #0]
 8006690:	2c00      	cmp	r4, #0
 8006692:	d1f7      	bne.n	8006684 <_fwalk_sglue+0xc>
 8006694:	4630      	mov	r0, r6
 8006696:	e8bd 83f8 	ldmia.w	sp!, {r3, r4, r5, r6, r7, r8, r9, pc}
 800669a:	89ab      	ldrh	r3, [r5, #12]
 800669c:	2b01      	cmp	r3, #1
 800669e:	d907      	bls.n	80066b0 <_fwalk_sglue+0x38>
 80066a0:	f9b5 300e 	ldrsh.w	r3, [r5, #14]
 80066a4:	3301      	adds	r3, #1
 80066a6:	d003      	beq.n	80066b0 <_fwalk_sglue+0x38>
 80066a8:	4629      	mov	r1, r5
 80066aa:	4638      	mov	r0, r7
 80066ac:	47c0      	blx	r8
 80066ae:	4306      	orrs	r6, r0
 80066b0:	3568      	adds	r5, #104	@ 0x68
 80066b2:	e7e9      	b.n	8006688 <_fwalk_sglue+0x10>

080066b4 <memset>:
 80066b4:	4402      	add	r2, r0
 80066b6:	4603      	mov	r3, r0
 80066b8:	4293      	cmp	r3, r2
 80066ba:	d100      	bne.n	80066be <memset+0xa>
 80066bc:	4770      	bx	lr
 80066be:	f803 1b01 	strb.w	r1, [r3], #1
 80066c2:	e7f9      	b.n	80066b8 <memset+0x4>

080066c4 <_localeconv_r>:
 80066c4:	4800      	ldr	r0, [pc, #0]	@ (80066c8 <_localeconv_r+0x4>)
 80066c6:	4770      	bx	lr
 80066c8:	20000158 	.word	0x20000158

080066cc <_sbrk_r>:
 80066cc:	b538      	push	{r3, r4, r5, lr}
 80066ce:	4d06      	ldr	r5, [pc, #24]	@ (80066e8 <_sbrk_r+0x1c>)
 80066d0:	2300      	movs	r3, #0
 80066d2:	4604      	mov	r4, r0
 80066d4:	4608      	mov	r0, r1
 80066d6:	602b      	str	r3, [r5, #0]
 80066d8:	f7fb ff56 	bl	8002588 <_sbrk>
 80066dc:	1c43      	adds	r3, r0, #1
 80066de:	d102      	bne.n	80066e6 <_sbrk_r+0x1a>
 80066e0:	682b      	ldr	r3, [r5, #0]
 80066e2:	b103      	cbz	r3, 80066e6 <_sbrk_r+0x1a>
 80066e4:	6023      	str	r3, [r4, #0]
 80066e6:	bd38      	pop	{r3, r4, r5, pc}
 80066e8:	200004b8 	.word	0x200004b8

080066ec <__errno>:
 80066ec:	4b01      	ldr	r3, [pc, #4]	@ (80066f4 <__errno+0x8>)
 80066ee:	6818      	ldr	r0, [r3, #0]
 80066f0:	4770      	bx	lr
 80066f2:	bf00      	nop
 80066f4:	20000018 	.word	0x20000018

080066f8 <__libc_init_array>:
 80066f8:	b570      	push	{r4, r5, r6, lr}
 80066fa:	4d0d      	ldr	r5, [pc, #52]	@ (8006730 <__libc_init_array+0x38>)
 80066fc:	4c0d      	ldr	r4, [pc, #52]	@ (8006734 <__libc_init_array+0x3c>)
 80066fe:	1b64      	subs	r4, r4, r5
 8006700:	10a4      	asrs	r4, r4, #2
 8006702:	2600      	movs	r6, #0
 8006704:	42a6      	cmp	r6, r4
 8006706:	d109      	bne.n	800671c <__libc_init_array+0x24>
 8006708:	4d0b      	ldr	r5, [pc, #44]	@ (8006738 <__libc_init_array+0x40>)
 800670a:	4c0c      	ldr	r4, [pc, #48]	@ (800673c <__libc_init_array+0x44>)
 800670c:	f002 f814 	bl	8008738 <_init>
 8006710:	1b64      	subs	r4, r4, r5
 8006712:	10a4      	asrs	r4, r4, #2
 8006714:	2600      	movs	r6, #0
 8006716:	42a6      	cmp	r6, r4
 8006718:	d105      	bne.n	8006726 <__libc_init_array+0x2e>
 800671a:	bd70      	pop	{r4, r5, r6, pc}
 800671c:	f855 3b04 	ldr.w	r3, [r5], #4
 8006720:	4798      	blx	r3
 8006722:	3601      	adds	r6, #1
 8006724:	e7ee      	b.n	8006704 <__libc_init_array+0xc>
 8006726:	f855 3b04 	ldr.w	r3, [r5], #4
 800672a:	4798      	blx	r3
 800672c:	3601      	adds	r6, #1
 800672e:	e7f2      	b.n	8006716 <__libc_init_array+0x1e>
 8006730:	08008c58 	.word	0x08008c58
 8006734:	08008c58 	.word	0x08008c58
 8006738:	08008c58 	.word	0x08008c58
 800673c:	08008c5c 	.word	0x08008c5c

08006740 <__retarget_lock_init_recursive>:
 8006740:	4770      	bx	lr

08006742 <__retarget_lock_acquire_recursive>:
 8006742:	4770      	bx	lr

08006744 <__retarget_lock_release_recursive>:
 8006744:	4770      	bx	lr

08006746 <quorem>:
 8006746:	e92d 4ff7 	stmdb	sp!, {r0, r1, r2, r4, r5, r6, r7, r8, r9, sl, fp, lr}
 800674a:	6903      	ldr	r3, [r0, #16]
 800674c:	690c      	ldr	r4, [r1, #16]
 800674e:	42a3      	cmp	r3, r4
 8006750:	4607      	mov	r7, r0
 8006752:	db7e      	blt.n	8006852 <quorem+0x10c>
 8006754:	3c01      	subs	r4, #1
 8006756:	f101 0814 	add.w	r8, r1, #20
 800675a:	00a3      	lsls	r3, r4, #2
 800675c:	f100 0514 	add.w	r5, r0, #20
 8006760:	9300      	str	r3, [sp, #0]
 8006762:	eb05 0384 	add.w	r3, r5, r4, lsl #2
 8006766:	9301      	str	r3, [sp, #4]
 8006768:	f858 3024 	ldr.w	r3, [r8, r4, lsl #2]
 800676c:	f855 2024 	ldr.w	r2, [r5, r4, lsl #2]
 8006770:	3301      	adds	r3, #1
 8006772:	429a      	cmp	r2, r3
 8006774:	eb08 0984 	add.w	r9, r8, r4, lsl #2
 8006778:	fbb2 f6f3 	udiv	r6, r2, r3
 800677c:	d32e      	bcc.n	80067dc <quorem+0x96>
 800677e:	f04f 0a00 	mov.w	sl, #0
 8006782:	46c4      	mov	ip, r8
 8006784:	46ae      	mov	lr, r5
 8006786:	46d3      	mov	fp, sl
 8006788:	f85c 3b04 	ldr.w	r3, [ip], #4
 800678c:	b298      	uxth	r0, r3
 800678e:	fb06 a000 	mla	r0, r6, r0, sl
 8006792:	0c02      	lsrs	r2, r0, #16
 8006794:	0c1b      	lsrs	r3, r3, #16
 8006796:	fb06 2303 	mla	r3, r6, r3, r2
 800679a:	f8de 2000 	ldr.w	r2, [lr]
 800679e:	b280      	uxth	r0, r0
 80067a0:	b292      	uxth	r2, r2
 80067a2:	1a12      	subs	r2, r2, r0
 80067a4:	445a      	add	r2, fp
 80067a6:	f8de 0000 	ldr.w	r0, [lr]
 80067aa:	ea4f 4a13 	mov.w	sl, r3, lsr #16
 80067ae:	b29b      	uxth	r3, r3
 80067b0:	ebc3 4322 	rsb	r3, r3, r2, asr #16
 80067b4:	eb03 4310 	add.w	r3, r3, r0, lsr #16
 80067b8:	b292      	uxth	r2, r2
 80067ba:	ea42 4203 	orr.w	r2, r2, r3, lsl #16
 80067be:	45e1      	cmp	r9, ip
 80067c0:	f84e 2b04 	str.w	r2, [lr], #4
 80067c4:	ea4f 4b23 	mov.w	fp, r3, asr #16
 80067c8:	d2de      	bcs.n	8006788 <quorem+0x42>
 80067ca:	9b00      	ldr	r3, [sp, #0]
 80067cc:	58eb      	ldr	r3, [r5, r3]
 80067ce:	b92b      	cbnz	r3, 80067dc <quorem+0x96>
 80067d0:	9b01      	ldr	r3, [sp, #4]
 80067d2:	3b04      	subs	r3, #4
 80067d4:	429d      	cmp	r5, r3
 80067d6:	461a      	mov	r2, r3
 80067d8:	d32f      	bcc.n	800683a <quorem+0xf4>
 80067da:	613c      	str	r4, [r7, #16]
 80067dc:	4638      	mov	r0, r7
 80067de:	f001 fac7 	bl	8007d70 <__mcmp>
 80067e2:	2800      	cmp	r0, #0
 80067e4:	db25      	blt.n	8006832 <quorem+0xec>
 80067e6:	4629      	mov	r1, r5
 80067e8:	2000      	movs	r0, #0
 80067ea:	f858 2b04 	ldr.w	r2, [r8], #4
 80067ee:	f8d1 c000 	ldr.w	ip, [r1]
 80067f2:	fa1f fe82 	uxth.w	lr, r2
 80067f6:	fa1f f38c 	uxth.w	r3, ip
 80067fa:	eba3 030e 	sub.w	r3, r3, lr
 80067fe:	4403      	add	r3, r0
 8006800:	0c12      	lsrs	r2, r2, #16
 8006802:	ebc2 4223 	rsb	r2, r2, r3, asr #16
 8006806:	eb02 421c 	add.w	r2, r2, ip, lsr #16
 800680a:	b29b      	uxth	r3, r3
 800680c:	ea43 4302 	orr.w	r3, r3, r2, lsl #16
 8006810:	45c1      	cmp	r9, r8
 8006812:	f841 3b04 	str.w	r3, [r1], #4
 8006816:	ea4f 4022 	mov.w	r0, r2, asr #16
 800681a:	d2e6      	bcs.n	80067ea <quorem+0xa4>
 800681c:	f855 2024 	ldr.w	r2, [r5, r4, lsl #2]
 8006820:	eb05 0384 	add.w	r3, r5, r4, lsl #2
 8006824:	b922      	cbnz	r2, 8006830 <quorem+0xea>
 8006826:	3b04      	subs	r3, #4
 8006828:	429d      	cmp	r5, r3
 800682a:	461a      	mov	r2, r3
 800682c:	d30b      	bcc.n	8006846 <quorem+0x100>
 800682e:	613c      	str	r4, [r7, #16]
 8006830:	3601      	adds	r6, #1
 8006832:	4630      	mov	r0, r6
 8006834:	b003      	add	sp, #12
 8006836:	e8bd 8ff0 	ldmia.w	sp!, {r4, r5, r6, r7, r8, r9, sl, fp, pc}
 800683a:	6812      	ldr	r2, [r2, #0]
 800683c:	3b04      	subs	r3, #4
 800683e:	2a00      	cmp	r2, #0
 8006840:	d1cb      	bne.n	80067da <quorem+0x94>
 8006842:	3c01      	subs	r4, #1
 8006844:	e7c6      	b.n	80067d4 <quorem+0x8e>
 8006846:	6812      	ldr	r2, [r2, #0]
 8006848:	3b04      	subs	r3, #4
 800684a:	2a00      	cmp	r2, #0
 800684c:	d1ef      	bne.n	800682e <quorem+0xe8>
 800684e:	3c01      	subs	r4, #1
 8006850:	e7ea      	b.n	8006828 <quorem+0xe2>
 8006852:	2000      	movs	r0, #0
 8006854:	e7ee      	b.n	8006834 <quorem+0xee>
	...

08006858 <_dtoa_r>:
 8006858:	e92d 4ff0 	stmdb	sp!, {r4, r5, r6, r7, r8, r9, sl, fp, lr}
 800685c:	69c7      	ldr	r7, [r0, #28]
 800685e:	b099      	sub	sp, #100	@ 0x64
 8006860:	ed8d 0b02 	vstr	d0, [sp, #8]
 8006864:	ec55 4b10 	vmov	r4, r5, d0
 8006868:	9e22      	ldr	r6, [sp, #136]	@ 0x88
 800686a:	9109      	str	r1, [sp, #36]	@ 0x24
 800686c:	4683      	mov	fp, r0
 800686e:	920e      	str	r2, [sp, #56]	@ 0x38
 8006870:	9313      	str	r3, [sp, #76]	@ 0x4c
 8006872:	b97f      	cbnz	r7, 8006894 <_dtoa_r+0x3c>
 8006874:	2010      	movs	r0, #16
 8006876:	f7ff fbf7 	bl	8006068 <malloc>
 800687a:	4602      	mov	r2, r0
 800687c:	f8cb 001c 	str.w	r0, [fp, #28]
 8006880:	b920      	cbnz	r0, 800688c <_dtoa_r+0x34>
 8006882:	4ba7      	ldr	r3, [pc, #668]	@ (8006b20 <_dtoa_r+0x2c8>)
 8006884:	21ef      	movs	r1, #239	@ 0xef
 8006886:	48a7      	ldr	r0, [pc, #668]	@ (8006b24 <_dtoa_r+0x2cc>)
 8006888:	f001 fc5a 	bl	8008140 <__assert_func>
 800688c:	e9c0 7701 	strd	r7, r7, [r0, #4]
 8006890:	6007      	str	r7, [r0, #0]
 8006892:	60c7      	str	r7, [r0, #12]
 8006894:	f8db 301c 	ldr.w	r3, [fp, #28]
 8006898:	6819      	ldr	r1, [r3, #0]
 800689a:	b159      	cbz	r1, 80068b4 <_dtoa_r+0x5c>
 800689c:	685a      	ldr	r2, [r3, #4]
 800689e:	604a      	str	r2, [r1, #4]
 80068a0:	2301      	movs	r3, #1
 80068a2:	4093      	lsls	r3, r2
 80068a4:	608b      	str	r3, [r1, #8]
 80068a6:	4658      	mov	r0, fp
 80068a8:	f001 f828 	bl	80078fc <_Bfree>
 80068ac:	f8db 301c 	ldr.w	r3, [fp, #28]
 80068b0:	2200      	movs	r2, #0
 80068b2:	601a      	str	r2, [r3, #0]
 80068b4:	1e2b      	subs	r3, r5, #0
 80068b6:	bfb9      	ittee	lt
 80068b8:	f023 4300 	biclt.w	r3, r3, #2147483648	@ 0x80000000
 80068bc:	9303      	strlt	r3, [sp, #12]
 80068be:	2300      	movge	r3, #0
 80068c0:	6033      	strge	r3, [r6, #0]
 80068c2:	9f03      	ldr	r7, [sp, #12]
 80068c4:	4b98      	ldr	r3, [pc, #608]	@ (8006b28 <_dtoa_r+0x2d0>)
 80068c6:	bfbc      	itt	lt
 80068c8:	2201      	movlt	r2, #1
 80068ca:	6032      	strlt	r2, [r6, #0]
 80068cc:	43bb      	bics	r3, r7
 80068ce:	d112      	bne.n	80068f6 <_dtoa_r+0x9e>
 80068d0:	9a13      	ldr	r2, [sp, #76]	@ 0x4c
 80068d2:	f242 730f 	movw	r3, #9999	@ 0x270f
 80068d6:	6013      	str	r3, [r2, #0]
 80068d8:	f3c7 0313 	ubfx	r3, r7, #0, #20
 80068dc:	4323      	orrs	r3, r4
 80068de:	f000 854d 	beq.w	800737c <_dtoa_r+0xb24>
 80068e2:	9b23      	ldr	r3, [sp, #140]	@ 0x8c
 80068e4:	f8df a254 	ldr.w	sl, [pc, #596]	@ 8006b3c <_dtoa_r+0x2e4>
 80068e8:	2b00      	cmp	r3, #0
 80068ea:	f000 854f 	beq.w	800738c <_dtoa_r+0xb34>
 80068ee:	f10a 0303 	add.w	r3, sl, #3
 80068f2:	f000 bd49 	b.w	8007388 <_dtoa_r+0xb30>
 80068f6:	ed9d 7b02 	vldr	d7, [sp, #8]
 80068fa:	2200      	movs	r2, #0
 80068fc:	ec51 0b17 	vmov	r0, r1, d7
 8006900:	2300      	movs	r3, #0
 8006902:	ed8d 7b0c 	vstr	d7, [sp, #48]	@ 0x30
 8006906:	f7fa f8ff 	bl	8000b08 <__aeabi_dcmpeq>
 800690a:	4680      	mov	r8, r0
 800690c:	b158      	cbz	r0, 8006926 <_dtoa_r+0xce>
 800690e:	9a13      	ldr	r2, [sp, #76]	@ 0x4c
 8006910:	2301      	movs	r3, #1
 8006912:	6013      	str	r3, [r2, #0]
 8006914:	9b23      	ldr	r3, [sp, #140]	@ 0x8c
 8006916:	b113      	cbz	r3, 800691e <_dtoa_r+0xc6>
 8006918:	9a23      	ldr	r2, [sp, #140]	@ 0x8c
 800691a:	4b84      	ldr	r3, [pc, #528]	@ (8006b2c <_dtoa_r+0x2d4>)
 800691c:	6013      	str	r3, [r2, #0]
 800691e:	f8df a220 	ldr.w	sl, [pc, #544]	@ 8006b40 <_dtoa_r+0x2e8>
 8006922:	f000 bd33 	b.w	800738c <_dtoa_r+0xb34>
 8006926:	ed9d 0b0c 	vldr	d0, [sp, #48]	@ 0x30
 800692a:	aa16      	add	r2, sp, #88	@ 0x58
 800692c:	a917      	add	r1, sp, #92	@ 0x5c
 800692e:	4658      	mov	r0, fp
 8006930:	f001 face 	bl	8007ed0 <__d2b>
 8006934:	f3c7 560a 	ubfx	r6, r7, #20, #11
 8006938:	4681      	mov	r9, r0
 800693a:	2e00      	cmp	r6, #0
 800693c:	d077      	beq.n	8006a2e <_dtoa_r+0x1d6>
 800693e:	9b0d      	ldr	r3, [sp, #52]	@ 0x34
 8006940:	f8cd 8050 	str.w	r8, [sp, #80]	@ 0x50
 8006944:	f3c3 0313 	ubfx	r3, r3, #0, #20
 8006948:	e9dd 010c 	ldrd	r0, r1, [sp, #48]	@ 0x30
 800694c:	f043 537f 	orr.w	r3, r3, #1069547520	@ 0x3fc00000
 8006950:	f443 1340 	orr.w	r3, r3, #3145728	@ 0x300000
 8006954:	f2a6 36ff 	subw	r6, r6, #1023	@ 0x3ff
 8006958:	4619      	mov	r1, r3
 800695a:	2200      	movs	r2, #0
 800695c:	4b74      	ldr	r3, [pc, #464]	@ (8006b30 <_dtoa_r+0x2d8>)
 800695e:	f7f9 fcb3 	bl	80002c8 <__aeabi_dsub>
 8006962:	a369      	add	r3, pc, #420	@ (adr r3, 8006b08 <_dtoa_r+0x2b0>)
 8006964:	e9d3 2300 	ldrd	r2, r3, [r3]
 8006968:	f7f9 fe66 	bl	8000638 <__aeabi_dmul>
 800696c:	a368      	add	r3, pc, #416	@ (adr r3, 8006b10 <_dtoa_r+0x2b8>)
 800696e:	e9d3 2300 	ldrd	r2, r3, [r3]
 8006972:	f7f9 fcab 	bl	80002cc <__adddf3>
 8006976:	4604      	mov	r4, r0
 8006978:	4630      	mov	r0, r6
 800697a:	460d      	mov	r5, r1
 800697c:	f7f9 fdf2 	bl	8000564 <__aeabi_i2d>
 8006980:	a365      	add	r3, pc, #404	@ (adr r3, 8006b18 <_dtoa_r+0x2c0>)
 8006982:	e9d3 2300 	ldrd	r2, r3, [r3]
 8006986:	f7f9 fe57 	bl	8000638 <__aeabi_dmul>
 800698a:	4602      	mov	r2, r0
 800698c:	460b      	mov	r3, r1
 800698e:	4620      	mov	r0, r4
 8006990:	4629      	mov	r1, r5
 8006992:	f7f9 fc9b 	bl	80002cc <__adddf3>
 8006996:	4604      	mov	r4, r0
 8006998:	460d      	mov	r5, r1
 800699a:	f7fa f8fd 	bl	8000b98 <__aeabi_d2iz>
 800699e:	2200      	movs	r2, #0
 80069a0:	4607      	mov	r7, r0
 80069a2:	2300      	movs	r3, #0
 80069a4:	4620      	mov	r0, r4
 80069a6:	4629      	mov	r1, r5
 80069a8:	f7fa f8b8 	bl	8000b1c <__aeabi_dcmplt>
 80069ac:	b140      	cbz	r0, 80069c0 <_dtoa_r+0x168>
 80069ae:	4638      	mov	r0, r7
 80069b0:	f7f9 fdd8 	bl	8000564 <__aeabi_i2d>
 80069b4:	4622      	mov	r2, r4
 80069b6:	462b      	mov	r3, r5
 80069b8:	f7fa f8a6 	bl	8000b08 <__aeabi_dcmpeq>
 80069bc:	b900      	cbnz	r0, 80069c0 <_dtoa_r+0x168>
 80069be:	3f01      	subs	r7, #1
 80069c0:	2f16      	cmp	r7, #22
 80069c2:	d851      	bhi.n	8006a68 <_dtoa_r+0x210>
 80069c4:	4b5b      	ldr	r3, [pc, #364]	@ (8006b34 <_dtoa_r+0x2dc>)
 80069c6:	eb03 03c7 	add.w	r3, r3, r7, lsl #3
 80069ca:	e9d3 2300 	ldrd	r2, r3, [r3]
 80069ce:	e9dd 010c 	ldrd	r0, r1, [sp, #48]	@ 0x30
 80069d2:	f7fa f8a3 	bl	8000b1c <__aeabi_dcmplt>
 80069d6:	2800      	cmp	r0, #0
 80069d8:	d048      	beq.n	8006a6c <_dtoa_r+0x214>
 80069da:	3f01      	subs	r7, #1
 80069dc:	2300      	movs	r3, #0
 80069de:	9312      	str	r3, [sp, #72]	@ 0x48
 80069e0:	9b16      	ldr	r3, [sp, #88]	@ 0x58
 80069e2:	1b9b      	subs	r3, r3, r6
 80069e4:	1e5a      	subs	r2, r3, #1
 80069e6:	bf44      	itt	mi
 80069e8:	f1c3 0801 	rsbmi	r8, r3, #1
 80069ec:	2300      	movmi	r3, #0
 80069ee:	9208      	str	r2, [sp, #32]
 80069f0:	bf54      	ite	pl
 80069f2:	f04f 0800 	movpl.w	r8, #0
 80069f6:	9308      	strmi	r3, [sp, #32]
 80069f8:	2f00      	cmp	r7, #0
 80069fa:	db39      	blt.n	8006a70 <_dtoa_r+0x218>
 80069fc:	9b08      	ldr	r3, [sp, #32]
 80069fe:	970f      	str	r7, [sp, #60]	@ 0x3c
 8006a00:	443b      	add	r3, r7
 8006a02:	9308      	str	r3, [sp, #32]
 8006a04:	2300      	movs	r3, #0
 8006a06:	930a      	str	r3, [sp, #40]	@ 0x28
 8006a08:	9b09      	ldr	r3, [sp, #36]	@ 0x24
 8006a0a:	2b09      	cmp	r3, #9
 8006a0c:	d864      	bhi.n	8006ad8 <_dtoa_r+0x280>
 8006a0e:	2b05      	cmp	r3, #5
 8006a10:	bfc4      	itt	gt
 8006a12:	3b04      	subgt	r3, #4
 8006a14:	9309      	strgt	r3, [sp, #36]	@ 0x24
 8006a16:	9b09      	ldr	r3, [sp, #36]	@ 0x24
 8006a18:	f1a3 0302 	sub.w	r3, r3, #2
 8006a1c:	bfcc      	ite	gt
 8006a1e:	2400      	movgt	r4, #0
 8006a20:	2401      	movle	r4, #1
 8006a22:	2b03      	cmp	r3, #3
 8006a24:	d863      	bhi.n	8006aee <_dtoa_r+0x296>
 8006a26:	e8df f003 	tbb	[pc, r3]
 8006a2a:	372a      	.short	0x372a
 8006a2c:	5535      	.short	0x5535
 8006a2e:	e9dd 6316 	ldrd	r6, r3, [sp, #88]	@ 0x58
 8006a32:	441e      	add	r6, r3
 8006a34:	f206 4332 	addw	r3, r6, #1074	@ 0x432
 8006a38:	2b20      	cmp	r3, #32
 8006a3a:	bfc1      	itttt	gt
 8006a3c:	f1c3 0340 	rsbgt	r3, r3, #64	@ 0x40
 8006a40:	409f      	lslgt	r7, r3
 8006a42:	f206 4312 	addwgt	r3, r6, #1042	@ 0x412
 8006a46:	fa24 f303 	lsrgt.w	r3, r4, r3
 8006a4a:	bfd6      	itet	le
 8006a4c:	f1c3 0320 	rsble	r3, r3, #32
 8006a50:	ea47 0003 	orrgt.w	r0, r7, r3
 8006a54:	fa04 f003 	lslle.w	r0, r4, r3
 8006a58:	f7f9 fd74 	bl	8000544 <__aeabi_ui2d>
 8006a5c:	2201      	movs	r2, #1
 8006a5e:	f1a1 73f8 	sub.w	r3, r1, #32505856	@ 0x1f00000
 8006a62:	3e01      	subs	r6, #1
 8006a64:	9214      	str	r2, [sp, #80]	@ 0x50
 8006a66:	e777      	b.n	8006958 <_dtoa_r+0x100>
 8006a68:	2301      	movs	r3, #1
 8006a6a:	e7b8      	b.n	80069de <_dtoa_r+0x186>
 8006a6c:	9012      	str	r0, [sp, #72]	@ 0x48
 8006a6e:	e7b7      	b.n	80069e0 <_dtoa_r+0x188>
 8006a70:	427b      	negs	r3, r7
 8006a72:	930a      	str	r3, [sp, #40]	@ 0x28
 8006a74:	2300      	movs	r3, #0
 8006a76:	eba8 0807 	sub.w	r8, r8, r7
 8006a7a:	930f      	str	r3, [sp, #60]	@ 0x3c
 8006a7c:	e7c4      	b.n	8006a08 <_dtoa_r+0x1b0>
 8006a7e:	2300      	movs	r3, #0
 8006a80:	930b      	str	r3, [sp, #44]	@ 0x2c
 8006a82:	9b0e      	ldr	r3, [sp, #56]	@ 0x38
 8006a84:	2b00      	cmp	r3, #0
 8006a86:	dc35      	bgt.n	8006af4 <_dtoa_r+0x29c>
 8006a88:	2301      	movs	r3, #1
 8006a8a:	9300      	str	r3, [sp, #0]
 8006a8c:	9307      	str	r3, [sp, #28]
 8006a8e:	461a      	mov	r2, r3
 8006a90:	920e      	str	r2, [sp, #56]	@ 0x38
 8006a92:	e00b      	b.n	8006aac <_dtoa_r+0x254>
 8006a94:	2301      	movs	r3, #1
 8006a96:	e7f3      	b.n	8006a80 <_dtoa_r+0x228>
 8006a98:	2300      	movs	r3, #0
 8006a9a:	930b      	str	r3, [sp, #44]	@ 0x2c
 8006a9c:	9b0e      	ldr	r3, [sp, #56]	@ 0x38
 8006a9e:	18fb      	adds	r3, r7, r3
 8006aa0:	9300      	str	r3, [sp, #0]
 8006aa2:	3301      	adds	r3, #1
 8006aa4:	2b01      	cmp	r3, #1
 8006aa6:	9307      	str	r3, [sp, #28]
 8006aa8:	bfb8      	it	lt
 8006aaa:	2301      	movlt	r3, #1
 8006aac:	f8db 001c 	ldr.w	r0, [fp, #28]
 8006ab0:	2100      	movs	r1, #0
 8006ab2:	2204      	movs	r2, #4
 8006ab4:	f102 0514 	add.w	r5, r2, #20
 8006ab8:	429d      	cmp	r5, r3
 8006aba:	d91f      	bls.n	8006afc <_dtoa_r+0x2a4>
 8006abc:	6041      	str	r1, [r0, #4]
 8006abe:	4658      	mov	r0, fp
 8006ac0:	f000 fedc 	bl	800787c <_Balloc>
 8006ac4:	4682      	mov	sl, r0
 8006ac6:	2800      	cmp	r0, #0
 8006ac8:	d13c      	bne.n	8006b44 <_dtoa_r+0x2ec>
 8006aca:	4b1b      	ldr	r3, [pc, #108]	@ (8006b38 <_dtoa_r+0x2e0>)
 8006acc:	4602      	mov	r2, r0
 8006ace:	f240 11af 	movw	r1, #431	@ 0x1af
 8006ad2:	e6d8      	b.n	8006886 <_dtoa_r+0x2e>
 8006ad4:	2301      	movs	r3, #1
 8006ad6:	e7e0      	b.n	8006a9a <_dtoa_r+0x242>
 8006ad8:	2401      	movs	r4, #1
 8006ada:	2300      	movs	r3, #0
 8006adc:	9309      	str	r3, [sp, #36]	@ 0x24
 8006ade:	940b      	str	r4, [sp, #44]	@ 0x2c
 8006ae0:	f04f 33ff 	mov.w	r3, #4294967295	@ 0xffffffff
 8006ae4:	9300      	str	r3, [sp, #0]
 8006ae6:	9307      	str	r3, [sp, #28]
 8006ae8:	2200      	movs	r2, #0
 8006aea:	2312      	movs	r3, #18
 8006aec:	e7d0      	b.n	8006a90 <_dtoa_r+0x238>
 8006aee:	2301      	movs	r3, #1
 8006af0:	930b      	str	r3, [sp, #44]	@ 0x2c
 8006af2:	e7f5      	b.n	8006ae0 <_dtoa_r+0x288>
 8006af4:	9b0e      	ldr	r3, [sp, #56]	@ 0x38
 8006af6:	9300      	str	r3, [sp, #0]
 8006af8:	9307      	str	r3, [sp, #28]
 8006afa:	e7d7      	b.n	8006aac <_dtoa_r+0x254>
 8006afc:	3101      	adds	r1, #1
 8006afe:	0052      	lsls	r2, r2, #1
 8006b00:	e7d8      	b.n	8006ab4 <_dtoa_r+0x25c>
 8006b02:	bf00      	nop
 8006b04:	f3af 8000 	nop.w
 8006b08:	636f4361 	.word	0x636f4361
 8006b0c:	3fd287a7 	.word	0x3fd287a7
 8006b10:	8b60c8b3 	.word	0x8b60c8b3
 8006b14:	3fc68a28 	.word	0x3fc68a28
 8006b18:	509f79fb 	.word	0x509f79fb
 8006b1c:	3fd34413 	.word	0x3fd34413
 8006b20:	08008921 	.word	0x08008921
 8006b24:	08008938 	.word	0x08008938
 8006b28:	7ff00000 	.word	0x7ff00000
 8006b2c:	080088f1 	.word	0x080088f1
 8006b30:	3ff80000 	.word	0x3ff80000
 8006b34:	08008a40 	.word	0x08008a40
 8006b38:	08008990 	.word	0x08008990
 8006b3c:	0800891d 	.word	0x0800891d
 8006b40:	080088f0 	.word	0x080088f0
 8006b44:	f8db 301c 	ldr.w	r3, [fp, #28]
 8006b48:	6018      	str	r0, [r3, #0]
 8006b4a:	9b07      	ldr	r3, [sp, #28]
 8006b4c:	2b0e      	cmp	r3, #14
 8006b4e:	f200 80a4 	bhi.w	8006c9a <_dtoa_r+0x442>
 8006b52:	2c00      	cmp	r4, #0
 8006b54:	f000 80a1 	beq.w	8006c9a <_dtoa_r+0x442>
 8006b58:	2f00      	cmp	r7, #0
 8006b5a:	dd33      	ble.n	8006bc4 <_dtoa_r+0x36c>
 8006b5c:	4bad      	ldr	r3, [pc, #692]	@ (8006e14 <_dtoa_r+0x5bc>)
 8006b5e:	f007 020f 	and.w	r2, r7, #15
 8006b62:	eb03 03c2 	add.w	r3, r3, r2, lsl #3
 8006b66:	ed93 7b00 	vldr	d7, [r3]
 8006b6a:	05f8      	lsls	r0, r7, #23
 8006b6c:	ed8d 7b04 	vstr	d7, [sp, #16]
 8006b70:	ea4f 1427 	mov.w	r4, r7, asr #4
 8006b74:	d516      	bpl.n	8006ba4 <_dtoa_r+0x34c>
 8006b76:	4ba8      	ldr	r3, [pc, #672]	@ (8006e18 <_dtoa_r+0x5c0>)
 8006b78:	e9dd 010c 	ldrd	r0, r1, [sp, #48]	@ 0x30
 8006b7c:	e9d3 2308 	ldrd	r2, r3, [r3, #32]
 8006b80:	f7f9 fe84 	bl	800088c <__aeabi_ddiv>
 8006b84:	e9cd 0102 	strd	r0, r1, [sp, #8]
 8006b88:	f004 040f 	and.w	r4, r4, #15
 8006b8c:	2603      	movs	r6, #3
 8006b8e:	4da2      	ldr	r5, [pc, #648]	@ (8006e18 <_dtoa_r+0x5c0>)
 8006b90:	b954      	cbnz	r4, 8006ba8 <_dtoa_r+0x350>
 8006b92:	e9dd 2304 	ldrd	r2, r3, [sp, #16]
 8006b96:	e9dd 0102 	ldrd	r0, r1, [sp, #8]
 8006b9a:	f7f9 fe77 	bl	800088c <__aeabi_ddiv>
 8006b9e:	e9cd 0102 	strd	r0, r1, [sp, #8]
 8006ba2:	e028      	b.n	8006bf6 <_dtoa_r+0x39e>
 8006ba4:	2602      	movs	r6, #2
 8006ba6:	e7f2      	b.n	8006b8e <_dtoa_r+0x336>
 8006ba8:	07e1      	lsls	r1, r4, #31
 8006baa:	d508      	bpl.n	8006bbe <_dtoa_r+0x366>
 8006bac:	e9dd 0104 	ldrd	r0, r1, [sp, #16]
 8006bb0:	e9d5 2300 	ldrd	r2, r3, [r5]
 8006bb4:	f7f9 fd40 	bl	8000638 <__aeabi_dmul>
 8006bb8:	e9cd 0104 	strd	r0, r1, [sp, #16]
 8006bbc:	3601      	adds	r6, #1
 8006bbe:	1064      	asrs	r4, r4, #1
 8006bc0:	3508      	adds	r5, #8
 8006bc2:	e7e5      	b.n	8006b90 <_dtoa_r+0x338>
 8006bc4:	f000 80d2 	beq.w	8006d6c <_dtoa_r+0x514>
 8006bc8:	427c      	negs	r4, r7
 8006bca:	4b92      	ldr	r3, [pc, #584]	@ (8006e14 <_dtoa_r+0x5bc>)
 8006bcc:	4d92      	ldr	r5, [pc, #584]	@ (8006e18 <_dtoa_r+0x5c0>)
 8006bce:	f004 020f 	and.w	r2, r4, #15
 8006bd2:	eb03 03c2 	add.w	r3, r3, r2, lsl #3
 8006bd6:	e9d3 2300 	ldrd	r2, r3, [r3]
 8006bda:	e9dd 010c 	ldrd	r0, r1, [sp, #48]	@ 0x30
 8006bde:	f7f9 fd2b 	bl	8000638 <__aeabi_dmul>
 8006be2:	e9cd 0102 	strd	r0, r1, [sp, #8]
 8006be6:	1124      	asrs	r4, r4, #4
 8006be8:	2300      	movs	r3, #0
 8006bea:	2602      	movs	r6, #2
 8006bec:	2c00      	cmp	r4, #0
 8006bee:	f040 80b2 	bne.w	8006d56 <_dtoa_r+0x4fe>
 8006bf2:	2b00      	cmp	r3, #0
 8006bf4:	d1d3      	bne.n	8006b9e <_dtoa_r+0x346>
 8006bf6:	9b12      	ldr	r3, [sp, #72]	@ 0x48
 8006bf8:	e9dd 4502 	ldrd	r4, r5, [sp, #8]
 8006bfc:	2b00      	cmp	r3, #0
 8006bfe:	f000 80b7 	beq.w	8006d70 <_dtoa_r+0x518>
 8006c02:	4b86      	ldr	r3, [pc, #536]	@ (8006e1c <_dtoa_r+0x5c4>)
 8006c04:	2200      	movs	r2, #0
 8006c06:	4620      	mov	r0, r4
 8006c08:	4629      	mov	r1, r5
 8006c0a:	f7f9 ff87 	bl	8000b1c <__aeabi_dcmplt>
 8006c0e:	2800      	cmp	r0, #0
 8006c10:	f000 80ae 	beq.w	8006d70 <_dtoa_r+0x518>
 8006c14:	9b07      	ldr	r3, [sp, #28]
 8006c16:	2b00      	cmp	r3, #0
 8006c18:	f000 80aa 	beq.w	8006d70 <_dtoa_r+0x518>
 8006c1c:	9b00      	ldr	r3, [sp, #0]
 8006c1e:	2b00      	cmp	r3, #0
 8006c20:	dd37      	ble.n	8006c92 <_dtoa_r+0x43a>
 8006c22:	1e7b      	subs	r3, r7, #1
 8006c24:	9304      	str	r3, [sp, #16]
 8006c26:	4620      	mov	r0, r4
 8006c28:	4b7d      	ldr	r3, [pc, #500]	@ (8006e20 <_dtoa_r+0x5c8>)
 8006c2a:	2200      	movs	r2, #0
 8006c2c:	4629      	mov	r1, r5
 8006c2e:	f7f9 fd03 	bl	8000638 <__aeabi_dmul>
 8006c32:	e9cd 0102 	strd	r0, r1, [sp, #8]
 8006c36:	9c00      	ldr	r4, [sp, #0]
 8006c38:	3601      	adds	r6, #1
 8006c3a:	4630      	mov	r0, r6
 8006c3c:	f7f9 fc92 	bl	8000564 <__aeabi_i2d>
 8006c40:	e9dd 2302 	ldrd	r2, r3, [sp, #8]
 8006c44:	f7f9 fcf8 	bl	8000638 <__aeabi_dmul>
 8006c48:	4b76      	ldr	r3, [pc, #472]	@ (8006e24 <_dtoa_r+0x5cc>)
 8006c4a:	2200      	movs	r2, #0
 8006c4c:	f7f9 fb3e 	bl	80002cc <__adddf3>
 8006c50:	4605      	mov	r5, r0
 8006c52:	f1a1 7650 	sub.w	r6, r1, #54525952	@ 0x3400000
 8006c56:	2c00      	cmp	r4, #0
 8006c58:	f040 808d 	bne.w	8006d76 <_dtoa_r+0x51e>
 8006c5c:	e9dd 0102 	ldrd	r0, r1, [sp, #8]
 8006c60:	4b71      	ldr	r3, [pc, #452]	@ (8006e28 <_dtoa_r+0x5d0>)
 8006c62:	2200      	movs	r2, #0
 8006c64:	f7f9 fb30 	bl	80002c8 <__aeabi_dsub>
 8006c68:	4602      	mov	r2, r0
 8006c6a:	460b      	mov	r3, r1
 8006c6c:	e9cd 2302 	strd	r2, r3, [sp, #8]
 8006c70:	462a      	mov	r2, r5
 8006c72:	4633      	mov	r3, r6
 8006c74:	f7f9 ff70 	bl	8000b58 <__aeabi_dcmpgt>
 8006c78:	2800      	cmp	r0, #0
 8006c7a:	f040 828b 	bne.w	8007194 <_dtoa_r+0x93c>
 8006c7e:	e9dd 0102 	ldrd	r0, r1, [sp, #8]
 8006c82:	462a      	mov	r2, r5
 8006c84:	f106 4300 	add.w	r3, r6, #2147483648	@ 0x80000000
 8006c88:	f7f9 ff48 	bl	8000b1c <__aeabi_dcmplt>
 8006c8c:	2800      	cmp	r0, #0
 8006c8e:	f040 8128 	bne.w	8006ee2 <_dtoa_r+0x68a>
 8006c92:	e9dd 340c 	ldrd	r3, r4, [sp, #48]	@ 0x30
 8006c96:	e9cd 3402 	strd	r3, r4, [sp, #8]
 8006c9a:	9b17      	ldr	r3, [sp, #92]	@ 0x5c
 8006c9c:	2b00      	cmp	r3, #0
 8006c9e:	f2c0 815a 	blt.w	8006f56 <_dtoa_r+0x6fe>
 8006ca2:	2f0e      	cmp	r7, #14
 8006ca4:	f300 8157 	bgt.w	8006f56 <_dtoa_r+0x6fe>
 8006ca8:	4b5a      	ldr	r3, [pc, #360]	@ (8006e14 <_dtoa_r+0x5bc>)
 8006caa:	eb03 03c7 	add.w	r3, r3, r7, lsl #3
 8006cae:	ed93 7b00 	vldr	d7, [r3]
 8006cb2:	9b0e      	ldr	r3, [sp, #56]	@ 0x38
 8006cb4:	2b00      	cmp	r3, #0
 8006cb6:	ed8d 7b00 	vstr	d7, [sp]
 8006cba:	da03      	bge.n	8006cc4 <_dtoa_r+0x46c>
 8006cbc:	9b07      	ldr	r3, [sp, #28]
 8006cbe:	2b00      	cmp	r3, #0
 8006cc0:	f340 8101 	ble.w	8006ec6 <_dtoa_r+0x66e>
 8006cc4:	e9dd 4502 	ldrd	r4, r5, [sp, #8]
 8006cc8:	4656      	mov	r6, sl
 8006cca:	e9dd 2300 	ldrd	r2, r3, [sp]
 8006cce:	4620      	mov	r0, r4
 8006cd0:	4629      	mov	r1, r5
 8006cd2:	f7f9 fddb 	bl	800088c <__aeabi_ddiv>
 8006cd6:	f7f9 ff5f 	bl	8000b98 <__aeabi_d2iz>
 8006cda:	4680      	mov	r8, r0
 8006cdc:	f7f9 fc42 	bl	8000564 <__aeabi_i2d>
 8006ce0:	e9dd 2300 	ldrd	r2, r3, [sp]
 8006ce4:	f7f9 fca8 	bl	8000638 <__aeabi_dmul>
 8006ce8:	4602      	mov	r2, r0
 8006cea:	460b      	mov	r3, r1
 8006cec:	4620      	mov	r0, r4
 8006cee:	4629      	mov	r1, r5
 8006cf0:	f108 0430 	add.w	r4, r8, #48	@ 0x30
 8006cf4:	f7f9 fae8 	bl	80002c8 <__aeabi_dsub>
 8006cf8:	f806 4b01 	strb.w	r4, [r6], #1
 8006cfc:	9d07      	ldr	r5, [sp, #28]
 8006cfe:	eba6 040a 	sub.w	r4, r6, sl
 8006d02:	42a5      	cmp	r5, r4
 8006d04:	4602      	mov	r2, r0
 8006d06:	460b      	mov	r3, r1
 8006d08:	f040 8117 	bne.w	8006f3a <_dtoa_r+0x6e2>
 8006d0c:	f7f9 fade 	bl	80002cc <__adddf3>
 8006d10:	e9dd 2300 	ldrd	r2, r3, [sp]
 8006d14:	4604      	mov	r4, r0
 8006d16:	460d      	mov	r5, r1
 8006d18:	f7f9 ff1e 	bl	8000b58 <__aeabi_dcmpgt>
 8006d1c:	2800      	cmp	r0, #0
 8006d1e:	f040 80f9 	bne.w	8006f14 <_dtoa_r+0x6bc>
 8006d22:	e9dd 2300 	ldrd	r2, r3, [sp]
 8006d26:	4620      	mov	r0, r4
 8006d28:	4629      	mov	r1, r5
 8006d2a:	f7f9 feed 	bl	8000b08 <__aeabi_dcmpeq>
 8006d2e:	b118      	cbz	r0, 8006d38 <_dtoa_r+0x4e0>
 8006d30:	f018 0f01 	tst.w	r8, #1
 8006d34:	f040 80ee 	bne.w	8006f14 <_dtoa_r+0x6bc>
 8006d38:	4649      	mov	r1, r9
 8006d3a:	4658      	mov	r0, fp
 8006d3c:	f000 fdde 	bl	80078fc <_Bfree>
 8006d40:	2300      	movs	r3, #0
 8006d42:	7033      	strb	r3, [r6, #0]
 8006d44:	9b13      	ldr	r3, [sp, #76]	@ 0x4c
 8006d46:	3701      	adds	r7, #1
 8006d48:	601f      	str	r7, [r3, #0]
 8006d4a:	9b23      	ldr	r3, [sp, #140]	@ 0x8c
 8006d4c:	2b00      	cmp	r3, #0
 8006d4e:	f000 831d 	beq.w	800738c <_dtoa_r+0xb34>
 8006d52:	601e      	str	r6, [r3, #0]
 8006d54:	e31a      	b.n	800738c <_dtoa_r+0xb34>
 8006d56:	07e2      	lsls	r2, r4, #31
 8006d58:	d505      	bpl.n	8006d66 <_dtoa_r+0x50e>
 8006d5a:	e9d5 2300 	ldrd	r2, r3, [r5]
 8006d5e:	f7f9 fc6b 	bl	8000638 <__aeabi_dmul>
 8006d62:	3601      	adds	r6, #1
 8006d64:	2301      	movs	r3, #1
 8006d66:	1064      	asrs	r4, r4, #1
 8006d68:	3508      	adds	r5, #8
 8006d6a:	e73f      	b.n	8006bec <_dtoa_r+0x394>
 8006d6c:	2602      	movs	r6, #2
 8006d6e:	e742      	b.n	8006bf6 <_dtoa_r+0x39e>
 8006d70:	9c07      	ldr	r4, [sp, #28]
 8006d72:	9704      	str	r7, [sp, #16]
 8006d74:	e761      	b.n	8006c3a <_dtoa_r+0x3e2>
 8006d76:	4b27      	ldr	r3, [pc, #156]	@ (8006e14 <_dtoa_r+0x5bc>)
 8006d78:	990b      	ldr	r1, [sp, #44]	@ 0x2c
 8006d7a:	eb03 03c4 	add.w	r3, r3, r4, lsl #3
 8006d7e:	e953 2302 	ldrd	r2, r3, [r3, #-8]
 8006d82:	4454      	add	r4, sl
 8006d84:	2900      	cmp	r1, #0
 8006d86:	d053      	beq.n	8006e30 <_dtoa_r+0x5d8>
 8006d88:	4928      	ldr	r1, [pc, #160]	@ (8006e2c <_dtoa_r+0x5d4>)
 8006d8a:	2000      	movs	r0, #0
 8006d8c:	f7f9 fd7e 	bl	800088c <__aeabi_ddiv>
 8006d90:	4633      	mov	r3, r6
 8006d92:	462a      	mov	r2, r5
 8006d94:	f7f9 fa98 	bl	80002c8 <__aeabi_dsub>
 8006d98:	e9cd 0110 	strd	r0, r1, [sp, #64]	@ 0x40
 8006d9c:	4656      	mov	r6, sl
 8006d9e:	e9dd 0102 	ldrd	r0, r1, [sp, #8]
 8006da2:	f7f9 fef9 	bl	8000b98 <__aeabi_d2iz>
 8006da6:	4605      	mov	r5, r0
 8006da8:	f7f9 fbdc 	bl	8000564 <__aeabi_i2d>
 8006dac:	4602      	mov	r2, r0
 8006dae:	460b      	mov	r3, r1
 8006db0:	e9dd 0102 	ldrd	r0, r1, [sp, #8]
 8006db4:	f7f9 fa88 	bl	80002c8 <__aeabi_dsub>
 8006db8:	3530      	adds	r5, #48	@ 0x30
 8006dba:	4602      	mov	r2, r0
 8006dbc:	460b      	mov	r3, r1
 8006dbe:	e9cd 2302 	strd	r2, r3, [sp, #8]
 8006dc2:	f806 5b01 	strb.w	r5, [r6], #1
 8006dc6:	e9dd 2310 	ldrd	r2, r3, [sp, #64]	@ 0x40
 8006dca:	f7f9 fea7 	bl	8000b1c <__aeabi_dcmplt>
 8006dce:	2800      	cmp	r0, #0
 8006dd0:	d171      	bne.n	8006eb6 <_dtoa_r+0x65e>
 8006dd2:	e9dd 2302 	ldrd	r2, r3, [sp, #8]
 8006dd6:	4911      	ldr	r1, [pc, #68]	@ (8006e1c <_dtoa_r+0x5c4>)
 8006dd8:	2000      	movs	r0, #0
 8006dda:	f7f9 fa75 	bl	80002c8 <__aeabi_dsub>
 8006dde:	e9dd 2310 	ldrd	r2, r3, [sp, #64]	@ 0x40
 8006de2:	f7f9 fe9b 	bl	8000b1c <__aeabi_dcmplt>
 8006de6:	2800      	cmp	r0, #0
 8006de8:	f040 8095 	bne.w	8006f16 <_dtoa_r+0x6be>
 8006dec:	42a6      	cmp	r6, r4
 8006dee:	f43f af50 	beq.w	8006c92 <_dtoa_r+0x43a>
 8006df2:	e9dd 0110 	ldrd	r0, r1, [sp, #64]	@ 0x40
 8006df6:	4b0a      	ldr	r3, [pc, #40]	@ (8006e20 <_dtoa_r+0x5c8>)
 8006df8:	2200      	movs	r2, #0
 8006dfa:	f7f9 fc1d 	bl	8000638 <__aeabi_dmul>
 8006dfe:	4b08      	ldr	r3, [pc, #32]	@ (8006e20 <_dtoa_r+0x5c8>)
 8006e00:	e9cd 0110 	strd	r0, r1, [sp, #64]	@ 0x40
 8006e04:	2200      	movs	r2, #0
 8006e06:	e9dd 0102 	ldrd	r0, r1, [sp, #8]
 8006e0a:	f7f9 fc15 	bl	8000638 <__aeabi_dmul>
 8006e0e:	e9cd 0102 	strd	r0, r1, [sp, #8]
 8006e12:	e7c4      	b.n	8006d9e <_dtoa_r+0x546>
 8006e14:	08008a40 	.word	0x08008a40
 8006e18:	08008a18 	.word	0x08008a18
 8006e1c:	3ff00000 	.word	0x3ff00000
 8006e20:	40240000 	.word	0x40240000
 8006e24:	401c0000 	.word	0x401c0000
 8006e28:	40140000 	.word	0x40140000
 8006e2c:	3fe00000 	.word	0x3fe00000
 8006e30:	4631      	mov	r1, r6
 8006e32:	4628      	mov	r0, r5
 8006e34:	f7f9 fc00 	bl	8000638 <__aeabi_dmul>
 8006e38:	e9cd 0110 	strd	r0, r1, [sp, #64]	@ 0x40
 8006e3c:	9415      	str	r4, [sp, #84]	@ 0x54
 8006e3e:	4656      	mov	r6, sl
 8006e40:	e9dd 0102 	ldrd	r0, r1, [sp, #8]
 8006e44:	f7f9 fea8 	bl	8000b98 <__aeabi_d2iz>
 8006e48:	4605      	mov	r5, r0
 8006e4a:	f7f9 fb8b 	bl	8000564 <__aeabi_i2d>
 8006e4e:	4602      	mov	r2, r0
 8006e50:	460b      	mov	r3, r1
 8006e52:	e9dd 0102 	ldrd	r0, r1, [sp, #8]
 8006e56:	f7f9 fa37 	bl	80002c8 <__aeabi_dsub>
 8006e5a:	3530      	adds	r5, #48	@ 0x30
 8006e5c:	f806 5b01 	strb.w	r5, [r6], #1
 8006e60:	4602      	mov	r2, r0
 8006e62:	460b      	mov	r3, r1
 8006e64:	42a6      	cmp	r6, r4
 8006e66:	e9cd 2302 	strd	r2, r3, [sp, #8]
 8006e6a:	f04f 0200 	mov.w	r2, #0
 8006e6e:	d124      	bne.n	8006eba <_dtoa_r+0x662>
 8006e70:	4bac      	ldr	r3, [pc, #688]	@ (8007124 <_dtoa_r+0x8cc>)
 8006e72:	e9dd 0110 	ldrd	r0, r1, [sp, #64]	@ 0x40
 8006e76:	f7f9 fa29 	bl	80002cc <__adddf3>
 8006e7a:	4602      	mov	r2, r0
 8006e7c:	460b      	mov	r3, r1
 8006e7e:	e9dd 0102 	ldrd	r0, r1, [sp, #8]
 8006e82:	f7f9 fe69 	bl	8000b58 <__aeabi_dcmpgt>
 8006e86:	2800      	cmp	r0, #0
 8006e88:	d145      	bne.n	8006f16 <_dtoa_r+0x6be>
 8006e8a:	e9dd 2310 	ldrd	r2, r3, [sp, #64]	@ 0x40
 8006e8e:	49a5      	ldr	r1, [pc, #660]	@ (8007124 <_dtoa_r+0x8cc>)
 8006e90:	2000      	movs	r0, #0
 8006e92:	f7f9 fa19 	bl	80002c8 <__aeabi_dsub>
 8006e96:	4602      	mov	r2, r0
 8006e98:	460b      	mov	r3, r1
 8006e9a:	e9dd 0102 	ldrd	r0, r1, [sp, #8]
 8006e9e:	f7f9 fe3d 	bl	8000b1c <__aeabi_dcmplt>
 8006ea2:	2800      	cmp	r0, #0
 8006ea4:	f43f aef5 	beq.w	8006c92 <_dtoa_r+0x43a>
 8006ea8:	9e15      	ldr	r6, [sp, #84]	@ 0x54
 8006eaa:	1e73      	subs	r3, r6, #1
 8006eac:	9315      	str	r3, [sp, #84]	@ 0x54
 8006eae:	f816 3c01 	ldrb.w	r3, [r6, #-1]
 8006eb2:	2b30      	cmp	r3, #48	@ 0x30
 8006eb4:	d0f8      	beq.n	8006ea8 <_dtoa_r+0x650>
 8006eb6:	9f04      	ldr	r7, [sp, #16]
 8006eb8:	e73e      	b.n	8006d38 <_dtoa_r+0x4e0>
 8006eba:	4b9b      	ldr	r3, [pc, #620]	@ (8007128 <_dtoa_r+0x8d0>)
 8006ebc:	f7f9 fbbc 	bl	8000638 <__aeabi_dmul>
 8006ec0:	e9cd 0102 	strd	r0, r1, [sp, #8]
 8006ec4:	e7bc      	b.n	8006e40 <_dtoa_r+0x5e8>
 8006ec6:	d10c      	bne.n	8006ee2 <_dtoa_r+0x68a>
 8006ec8:	4b98      	ldr	r3, [pc, #608]	@ (800712c <_dtoa_r+0x8d4>)
 8006eca:	2200      	movs	r2, #0
 8006ecc:	e9dd 0100 	ldrd	r0, r1, [sp]
 8006ed0:	f7f9 fbb2 	bl	8000638 <__aeabi_dmul>
 8006ed4:	e9dd 2302 	ldrd	r2, r3, [sp, #8]
 8006ed8:	f7f9 fe34 	bl	8000b44 <__aeabi_dcmpge>
 8006edc:	2800      	cmp	r0, #0
 8006ede:	f000 8157 	beq.w	8007190 <_dtoa_r+0x938>
 8006ee2:	2400      	movs	r4, #0
 8006ee4:	4625      	mov	r5, r4
 8006ee6:	9b0e      	ldr	r3, [sp, #56]	@ 0x38
 8006ee8:	43db      	mvns	r3, r3
 8006eea:	9304      	str	r3, [sp, #16]
 8006eec:	4656      	mov	r6, sl
 8006eee:	2700      	movs	r7, #0
 8006ef0:	4621      	mov	r1, r4
 8006ef2:	4658      	mov	r0, fp
 8006ef4:	f000 fd02 	bl	80078fc <_Bfree>
 8006ef8:	2d00      	cmp	r5, #0
 8006efa:	d0dc      	beq.n	8006eb6 <_dtoa_r+0x65e>
 8006efc:	b12f      	cbz	r7, 8006f0a <_dtoa_r+0x6b2>
 8006efe:	42af      	cmp	r7, r5
 8006f00:	d003      	beq.n	8006f0a <_dtoa_r+0x6b2>
 8006f02:	4639      	mov	r1, r7
 8006f04:	4658      	mov	r0, fp
 8006f06:	f000 fcf9 	bl	80078fc <_Bfree>
 8006f0a:	4629      	mov	r1, r5
 8006f0c:	4658      	mov	r0, fp
 8006f0e:	f000 fcf5 	bl	80078fc <_Bfree>
 8006f12:	e7d0      	b.n	8006eb6 <_dtoa_r+0x65e>
 8006f14:	9704      	str	r7, [sp, #16]
 8006f16:	4633      	mov	r3, r6
 8006f18:	461e      	mov	r6, r3
 8006f1a:	f813 2d01 	ldrb.w	r2, [r3, #-1]!
 8006f1e:	2a39      	cmp	r2, #57	@ 0x39
 8006f20:	d107      	bne.n	8006f32 <_dtoa_r+0x6da>
 8006f22:	459a      	cmp	sl, r3
 8006f24:	d1f8      	bne.n	8006f18 <_dtoa_r+0x6c0>
 8006f26:	9a04      	ldr	r2, [sp, #16]
 8006f28:	3201      	adds	r2, #1
 8006f2a:	9204      	str	r2, [sp, #16]
 8006f2c:	2230      	movs	r2, #48	@ 0x30
 8006f2e:	f88a 2000 	strb.w	r2, [sl]
 8006f32:	781a      	ldrb	r2, [r3, #0]
 8006f34:	3201      	adds	r2, #1
 8006f36:	701a      	strb	r2, [r3, #0]
 8006f38:	e7bd      	b.n	8006eb6 <_dtoa_r+0x65e>
 8006f3a:	4b7b      	ldr	r3, [pc, #492]	@ (8007128 <_dtoa_r+0x8d0>)
 8006f3c:	2200      	movs	r2, #0
 8006f3e:	f7f9 fb7b 	bl	8000638 <__aeabi_dmul>
 8006f42:	2200      	movs	r2, #0
 8006f44:	2300      	movs	r3, #0
 8006f46:	4604      	mov	r4, r0
 8006f48:	460d      	mov	r5, r1
 8006f4a:	f7f9 fddd 	bl	8000b08 <__aeabi_dcmpeq>
 8006f4e:	2800      	cmp	r0, #0
 8006f50:	f43f aebb 	beq.w	8006cca <_dtoa_r+0x472>
 8006f54:	e6f0      	b.n	8006d38 <_dtoa_r+0x4e0>
 8006f56:	9a0b      	ldr	r2, [sp, #44]	@ 0x2c
 8006f58:	2a00      	cmp	r2, #0
 8006f5a:	f000 80db 	beq.w	8007114 <_dtoa_r+0x8bc>
 8006f5e:	9a09      	ldr	r2, [sp, #36]	@ 0x24
 8006f60:	2a01      	cmp	r2, #1
 8006f62:	f300 80bf 	bgt.w	80070e4 <_dtoa_r+0x88c>
 8006f66:	9a14      	ldr	r2, [sp, #80]	@ 0x50
 8006f68:	2a00      	cmp	r2, #0
 8006f6a:	f000 80b7 	beq.w	80070dc <_dtoa_r+0x884>
 8006f6e:	f203 4333 	addw	r3, r3, #1075	@ 0x433
 8006f72:	9c0a      	ldr	r4, [sp, #40]	@ 0x28
 8006f74:	4646      	mov	r6, r8
 8006f76:	9a08      	ldr	r2, [sp, #32]
 8006f78:	2101      	movs	r1, #1
 8006f7a:	441a      	add	r2, r3
 8006f7c:	4658      	mov	r0, fp
 8006f7e:	4498      	add	r8, r3
 8006f80:	9208      	str	r2, [sp, #32]
 8006f82:	f000 fd6f 	bl	8007a64 <__i2b>
 8006f86:	4605      	mov	r5, r0
 8006f88:	b15e      	cbz	r6, 8006fa2 <_dtoa_r+0x74a>
 8006f8a:	9b08      	ldr	r3, [sp, #32]
 8006f8c:	2b00      	cmp	r3, #0
 8006f8e:	dd08      	ble.n	8006fa2 <_dtoa_r+0x74a>
 8006f90:	42b3      	cmp	r3, r6
 8006f92:	9a08      	ldr	r2, [sp, #32]
 8006f94:	bfa8      	it	ge
 8006f96:	4633      	movge	r3, r6
 8006f98:	eba8 0803 	sub.w	r8, r8, r3
 8006f9c:	1af6      	subs	r6, r6, r3
 8006f9e:	1ad3      	subs	r3, r2, r3
 8006fa0:	9308      	str	r3, [sp, #32]
 8006fa2:	9b0a      	ldr	r3, [sp, #40]	@ 0x28
 8006fa4:	b1f3      	cbz	r3, 8006fe4 <_dtoa_r+0x78c>
 8006fa6:	9b0b      	ldr	r3, [sp, #44]	@ 0x2c
 8006fa8:	2b00      	cmp	r3, #0
 8006faa:	f000 80b7 	beq.w	800711c <_dtoa_r+0x8c4>
 8006fae:	b18c      	cbz	r4, 8006fd4 <_dtoa_r+0x77c>
 8006fb0:	4629      	mov	r1, r5
 8006fb2:	4622      	mov	r2, r4
 8006fb4:	4658      	mov	r0, fp
 8006fb6:	f000 fe15 	bl	8007be4 <__pow5mult>
 8006fba:	464a      	mov	r2, r9
 8006fbc:	4601      	mov	r1, r0
 8006fbe:	4605      	mov	r5, r0
 8006fc0:	4658      	mov	r0, fp
 8006fc2:	f000 fd65 	bl	8007a90 <__multiply>
 8006fc6:	4649      	mov	r1, r9
 8006fc8:	9004      	str	r0, [sp, #16]
 8006fca:	4658      	mov	r0, fp
 8006fcc:	f000 fc96 	bl	80078fc <_Bfree>
 8006fd0:	9b04      	ldr	r3, [sp, #16]
 8006fd2:	4699      	mov	r9, r3
 8006fd4:	9b0a      	ldr	r3, [sp, #40]	@ 0x28
 8006fd6:	1b1a      	subs	r2, r3, r4
 8006fd8:	d004      	beq.n	8006fe4 <_dtoa_r+0x78c>
 8006fda:	4649      	mov	r1, r9
 8006fdc:	4658      	mov	r0, fp
 8006fde:	f000 fe01 	bl	8007be4 <__pow5mult>
 8006fe2:	4681      	mov	r9, r0
 8006fe4:	2101      	movs	r1, #1
 8006fe6:	4658      	mov	r0, fp
 8006fe8:	f000 fd3c 	bl	8007a64 <__i2b>
 8006fec:	9b0f      	ldr	r3, [sp, #60]	@ 0x3c
 8006fee:	4604      	mov	r4, r0
 8006ff0:	2b00      	cmp	r3, #0
 8006ff2:	f000 81cf 	beq.w	8007394 <_dtoa_r+0xb3c>
 8006ff6:	461a      	mov	r2, r3
 8006ff8:	4601      	mov	r1, r0
 8006ffa:	4658      	mov	r0, fp
 8006ffc:	f000 fdf2 	bl	8007be4 <__pow5mult>
 8007000:	9b09      	ldr	r3, [sp, #36]	@ 0x24
 8007002:	2b01      	cmp	r3, #1
 8007004:	4604      	mov	r4, r0
 8007006:	f300 8095 	bgt.w	8007134 <_dtoa_r+0x8dc>
 800700a:	9b02      	ldr	r3, [sp, #8]
 800700c:	2b00      	cmp	r3, #0
 800700e:	f040 8087 	bne.w	8007120 <_dtoa_r+0x8c8>
 8007012:	9b03      	ldr	r3, [sp, #12]
 8007014:	f3c3 0313 	ubfx	r3, r3, #0, #20
 8007018:	2b00      	cmp	r3, #0
 800701a:	f040 8089 	bne.w	8007130 <_dtoa_r+0x8d8>
 800701e:	9b03      	ldr	r3, [sp, #12]
 8007020:	f023 4300 	bic.w	r3, r3, #2147483648	@ 0x80000000
 8007024:	0d1b      	lsrs	r3, r3, #20
 8007026:	051b      	lsls	r3, r3, #20
 8007028:	b12b      	cbz	r3, 8007036 <_dtoa_r+0x7de>
 800702a:	9b08      	ldr	r3, [sp, #32]
 800702c:	3301      	adds	r3, #1
 800702e:	9308      	str	r3, [sp, #32]
 8007030:	f108 0801 	add.w	r8, r8, #1
 8007034:	2301      	movs	r3, #1
 8007036:	930a      	str	r3, [sp, #40]	@ 0x28
 8007038:	9b0f      	ldr	r3, [sp, #60]	@ 0x3c
 800703a:	2b00      	cmp	r3, #0
 800703c:	f000 81b0 	beq.w	80073a0 <_dtoa_r+0xb48>
 8007040:	6923      	ldr	r3, [r4, #16]
 8007042:	eb04 0383 	add.w	r3, r4, r3, lsl #2
 8007046:	6918      	ldr	r0, [r3, #16]
 8007048:	f000 fcc0 	bl	80079cc <__hi0bits>
 800704c:	f1c0 0020 	rsb	r0, r0, #32
 8007050:	9b08      	ldr	r3, [sp, #32]
 8007052:	4418      	add	r0, r3
 8007054:	f010 001f 	ands.w	r0, r0, #31
 8007058:	d077      	beq.n	800714a <_dtoa_r+0x8f2>
 800705a:	f1c0 0320 	rsb	r3, r0, #32
 800705e:	2b04      	cmp	r3, #4
 8007060:	dd6b      	ble.n	800713a <_dtoa_r+0x8e2>
 8007062:	9b08      	ldr	r3, [sp, #32]
 8007064:	f1c0 001c 	rsb	r0, r0, #28
 8007068:	4403      	add	r3, r0
 800706a:	4480      	add	r8, r0
 800706c:	4406      	add	r6, r0
 800706e:	9308      	str	r3, [sp, #32]
 8007070:	f1b8 0f00 	cmp.w	r8, #0
 8007074:	dd05      	ble.n	8007082 <_dtoa_r+0x82a>
 8007076:	4649      	mov	r1, r9
 8007078:	4642      	mov	r2, r8
 800707a:	4658      	mov	r0, fp
 800707c:	f000 fe0c 	bl	8007c98 <__lshift>
 8007080:	4681      	mov	r9, r0
 8007082:	9b08      	ldr	r3, [sp, #32]
 8007084:	2b00      	cmp	r3, #0
 8007086:	dd05      	ble.n	8007094 <_dtoa_r+0x83c>
 8007088:	4621      	mov	r1, r4
 800708a:	461a      	mov	r2, r3
 800708c:	4658      	mov	r0, fp
 800708e:	f000 fe03 	bl	8007c98 <__lshift>
 8007092:	4604      	mov	r4, r0
 8007094:	9b12      	ldr	r3, [sp, #72]	@ 0x48
 8007096:	2b00      	cmp	r3, #0
 8007098:	d059      	beq.n	800714e <_dtoa_r+0x8f6>
 800709a:	4621      	mov	r1, r4
 800709c:	4648      	mov	r0, r9
 800709e:	f000 fe67 	bl	8007d70 <__mcmp>
 80070a2:	2800      	cmp	r0, #0
 80070a4:	da53      	bge.n	800714e <_dtoa_r+0x8f6>
 80070a6:	1e7b      	subs	r3, r7, #1
 80070a8:	9304      	str	r3, [sp, #16]
 80070aa:	4649      	mov	r1, r9
 80070ac:	2300      	movs	r3, #0
 80070ae:	220a      	movs	r2, #10
 80070b0:	4658      	mov	r0, fp
 80070b2:	f000 fc45 	bl	8007940 <__multadd>
 80070b6:	9b0b      	ldr	r3, [sp, #44]	@ 0x2c
 80070b8:	4681      	mov	r9, r0
 80070ba:	2b00      	cmp	r3, #0
 80070bc:	f000 8172 	beq.w	80073a4 <_dtoa_r+0xb4c>
 80070c0:	2300      	movs	r3, #0
 80070c2:	4629      	mov	r1, r5
 80070c4:	220a      	movs	r2, #10
 80070c6:	4658      	mov	r0, fp
 80070c8:	f000 fc3a 	bl	8007940 <__multadd>
 80070cc:	9b00      	ldr	r3, [sp, #0]
 80070ce:	2b00      	cmp	r3, #0
 80070d0:	4605      	mov	r5, r0
 80070d2:	dc67      	bgt.n	80071a4 <_dtoa_r+0x94c>
 80070d4:	9b09      	ldr	r3, [sp, #36]	@ 0x24
 80070d6:	2b02      	cmp	r3, #2
 80070d8:	dc41      	bgt.n	800715e <_dtoa_r+0x906>
 80070da:	e063      	b.n	80071a4 <_dtoa_r+0x94c>
 80070dc:	9b16      	ldr	r3, [sp, #88]	@ 0x58
 80070de:	f1c3 0336 	rsb	r3, r3, #54	@ 0x36
 80070e2:	e746      	b.n	8006f72 <_dtoa_r+0x71a>
 80070e4:	9b07      	ldr	r3, [sp, #28]
 80070e6:	1e5c      	subs	r4, r3, #1
 80070e8:	9b0a      	ldr	r3, [sp, #40]	@ 0x28
 80070ea:	42a3      	cmp	r3, r4
 80070ec:	bfbf      	itttt	lt
 80070ee:	9b0a      	ldrlt	r3, [sp, #40]	@ 0x28
 80070f0:	9a0f      	ldrlt	r2, [sp, #60]	@ 0x3c
 80070f2:	940a      	strlt	r4, [sp, #40]	@ 0x28
 80070f4:	1ae3      	sublt	r3, r4, r3
 80070f6:	bfb4      	ite	lt
 80070f8:	18d2      	addlt	r2, r2, r3
 80070fa:	1b1c      	subge	r4, r3, r4
 80070fc:	9b07      	ldr	r3, [sp, #28]
 80070fe:	bfbc      	itt	lt
 8007100:	920f      	strlt	r2, [sp, #60]	@ 0x3c
 8007102:	2400      	movlt	r4, #0
 8007104:	2b00      	cmp	r3, #0
 8007106:	bfb5      	itete	lt
 8007108:	eba8 0603 	sublt.w	r6, r8, r3
 800710c:	9b07      	ldrge	r3, [sp, #28]
 800710e:	2300      	movlt	r3, #0
 8007110:	4646      	movge	r6, r8
 8007112:	e730      	b.n	8006f76 <_dtoa_r+0x71e>
 8007114:	9c0a      	ldr	r4, [sp, #40]	@ 0x28
 8007116:	9d0b      	ldr	r5, [sp, #44]	@ 0x2c
 8007118:	4646      	mov	r6, r8
 800711a:	e735      	b.n	8006f88 <_dtoa_r+0x730>
 800711c:	9a0a      	ldr	r2, [sp, #40]	@ 0x28
 800711e:	e75c      	b.n	8006fda <_dtoa_r+0x782>
 8007120:	2300      	movs	r3, #0
 8007122:	e788      	b.n	8007036 <_dtoa_r+0x7de>
 8007124:	3fe00000 	.word	0x3fe00000
 8007128:	40240000 	.word	0x40240000
 800712c:	40140000 	.word	0x40140000
 8007130:	9b02      	ldr	r3, [sp, #8]
 8007132:	e780      	b.n	8007036 <_dtoa_r+0x7de>
 8007134:	2300      	movs	r3, #0
 8007136:	930a      	str	r3, [sp, #40]	@ 0x28
 8007138:	e782      	b.n	8007040 <_dtoa_r+0x7e8>
 800713a:	d099      	beq.n	8007070 <_dtoa_r+0x818>
 800713c:	9a08      	ldr	r2, [sp, #32]
 800713e:	331c      	adds	r3, #28
 8007140:	441a      	add	r2, r3
 8007142:	4498      	add	r8, r3
 8007144:	441e      	add	r6, r3
 8007146:	9208      	str	r2, [sp, #32]
 8007148:	e792      	b.n	8007070 <_dtoa_r+0x818>
 800714a:	4603      	mov	r3, r0
 800714c:	e7f6      	b.n	800713c <_dtoa_r+0x8e4>
 800714e:	9b07      	ldr	r3, [sp, #28]
 8007150:	9704      	str	r7, [sp, #16]
 8007152:	2b00      	cmp	r3, #0
 8007154:	dc20      	bgt.n	8007198 <_dtoa_r+0x940>
 8007156:	9300      	str	r3, [sp, #0]
 8007158:	9b09      	ldr	r3, [sp, #36]	@ 0x24
 800715a:	2b02      	cmp	r3, #2
 800715c:	dd1e      	ble.n	800719c <_dtoa_r+0x944>
 800715e:	9b00      	ldr	r3, [sp, #0]
 8007160:	2b00      	cmp	r3, #0
 8007162:	f47f aec0 	bne.w	8006ee6 <_dtoa_r+0x68e>
 8007166:	4621      	mov	r1, r4
 8007168:	2205      	movs	r2, #5
 800716a:	4658      	mov	r0, fp
 800716c:	f000 fbe8 	bl	8007940 <__multadd>
 8007170:	4601      	mov	r1, r0
 8007172:	4604      	mov	r4, r0
 8007174:	4648      	mov	r0, r9
 8007176:	f000 fdfb 	bl	8007d70 <__mcmp>
 800717a:	2800      	cmp	r0, #0
 800717c:	f77f aeb3 	ble.w	8006ee6 <_dtoa_r+0x68e>
 8007180:	4656      	mov	r6, sl
 8007182:	2331      	movs	r3, #49	@ 0x31
 8007184:	f806 3b01 	strb.w	r3, [r6], #1
 8007188:	9b04      	ldr	r3, [sp, #16]
 800718a:	3301      	adds	r3, #1
 800718c:	9304      	str	r3, [sp, #16]
 800718e:	e6ae      	b.n	8006eee <_dtoa_r+0x696>
 8007190:	9c07      	ldr	r4, [sp, #28]
 8007192:	9704      	str	r7, [sp, #16]
 8007194:	4625      	mov	r5, r4
 8007196:	e7f3      	b.n	8007180 <_dtoa_r+0x928>
 8007198:	9b07      	ldr	r3, [sp, #28]
 800719a:	9300      	str	r3, [sp, #0]
 800719c:	9b0b      	ldr	r3, [sp, #44]	@ 0x2c
 800719e:	2b00      	cmp	r3, #0
 80071a0:	f000 8104 	beq.w	80073ac <_dtoa_r+0xb54>
 80071a4:	2e00      	cmp	r6, #0
 80071a6:	dd05      	ble.n	80071b4 <_dtoa_r+0x95c>
 80071a8:	4629      	mov	r1, r5
 80071aa:	4632      	mov	r2, r6
 80071ac:	4658      	mov	r0, fp
 80071ae:	f000 fd73 	bl	8007c98 <__lshift>
 80071b2:	4605      	mov	r5, r0
 80071b4:	9b0a      	ldr	r3, [sp, #40]	@ 0x28
 80071b6:	2b00      	cmp	r3, #0
 80071b8:	d05a      	beq.n	8007270 <_dtoa_r+0xa18>
 80071ba:	6869      	ldr	r1, [r5, #4]
 80071bc:	4658      	mov	r0, fp
 80071be:	f000 fb5d 	bl	800787c <_Balloc>
 80071c2:	4606      	mov	r6, r0
 80071c4:	b928      	cbnz	r0, 80071d2 <_dtoa_r+0x97a>
 80071c6:	4b84      	ldr	r3, [pc, #528]	@ (80073d8 <_dtoa_r+0xb80>)
 80071c8:	4602      	mov	r2, r0
 80071ca:	f240 21ef 	movw	r1, #751	@ 0x2ef
 80071ce:	f7ff bb5a 	b.w	8006886 <_dtoa_r+0x2e>
 80071d2:	692a      	ldr	r2, [r5, #16]
 80071d4:	3202      	adds	r2, #2
 80071d6:	0092      	lsls	r2, r2, #2
 80071d8:	f105 010c 	add.w	r1, r5, #12
 80071dc:	300c      	adds	r0, #12
 80071de:	f000 ffa1 	bl	8008124 <memcpy>
 80071e2:	2201      	movs	r2, #1
 80071e4:	4631      	mov	r1, r6
 80071e6:	4658      	mov	r0, fp
 80071e8:	f000 fd56 	bl	8007c98 <__lshift>
 80071ec:	f10a 0301 	add.w	r3, sl, #1
 80071f0:	9307      	str	r3, [sp, #28]
 80071f2:	9b00      	ldr	r3, [sp, #0]
 80071f4:	4453      	add	r3, sl
 80071f6:	930b      	str	r3, [sp, #44]	@ 0x2c
 80071f8:	9b02      	ldr	r3, [sp, #8]
 80071fa:	f003 0301 	and.w	r3, r3, #1
 80071fe:	462f      	mov	r7, r5
 8007200:	930a      	str	r3, [sp, #40]	@ 0x28
 8007202:	4605      	mov	r5, r0
 8007204:	9b07      	ldr	r3, [sp, #28]
 8007206:	4621      	mov	r1, r4
 8007208:	3b01      	subs	r3, #1
 800720a:	4648      	mov	r0, r9
 800720c:	9300      	str	r3, [sp, #0]
 800720e:	f7ff fa9a 	bl	8006746 <quorem>
 8007212:	4639      	mov	r1, r7
 8007214:	9002      	str	r0, [sp, #8]
 8007216:	f100 0830 	add.w	r8, r0, #48	@ 0x30
 800721a:	4648      	mov	r0, r9
 800721c:	f000 fda8 	bl	8007d70 <__mcmp>
 8007220:	462a      	mov	r2, r5
 8007222:	9008      	str	r0, [sp, #32]
 8007224:	4621      	mov	r1, r4
 8007226:	4658      	mov	r0, fp
 8007228:	f000 fdbe 	bl	8007da8 <__mdiff>
 800722c:	68c2      	ldr	r2, [r0, #12]
 800722e:	4606      	mov	r6, r0
 8007230:	bb02      	cbnz	r2, 8007274 <_dtoa_r+0xa1c>
 8007232:	4601      	mov	r1, r0
 8007234:	4648      	mov	r0, r9
 8007236:	f000 fd9b 	bl	8007d70 <__mcmp>
 800723a:	4602      	mov	r2, r0
 800723c:	4631      	mov	r1, r6
 800723e:	4658      	mov	r0, fp
 8007240:	920e      	str	r2, [sp, #56]	@ 0x38
 8007242:	f000 fb5b 	bl	80078fc <_Bfree>
 8007246:	9b09      	ldr	r3, [sp, #36]	@ 0x24
 8007248:	9a0e      	ldr	r2, [sp, #56]	@ 0x38
 800724a:	9e07      	ldr	r6, [sp, #28]
 800724c:	ea43 0102 	orr.w	r1, r3, r2
 8007250:	9b0a      	ldr	r3, [sp, #40]	@ 0x28
 8007252:	4319      	orrs	r1, r3
 8007254:	d110      	bne.n	8007278 <_dtoa_r+0xa20>
 8007256:	f1b8 0f39 	cmp.w	r8, #57	@ 0x39
 800725a:	d029      	beq.n	80072b0 <_dtoa_r+0xa58>
 800725c:	9b08      	ldr	r3, [sp, #32]
 800725e:	2b00      	cmp	r3, #0
 8007260:	dd02      	ble.n	8007268 <_dtoa_r+0xa10>
 8007262:	9b02      	ldr	r3, [sp, #8]
 8007264:	f103 0831 	add.w	r8, r3, #49	@ 0x31
 8007268:	9b00      	ldr	r3, [sp, #0]
 800726a:	f883 8000 	strb.w	r8, [r3]
 800726e:	e63f      	b.n	8006ef0 <_dtoa_r+0x698>
 8007270:	4628      	mov	r0, r5
 8007272:	e7bb      	b.n	80071ec <_dtoa_r+0x994>
 8007274:	2201      	movs	r2, #1
 8007276:	e7e1      	b.n	800723c <_dtoa_r+0x9e4>
 8007278:	9b08      	ldr	r3, [sp, #32]
 800727a:	2b00      	cmp	r3, #0
 800727c:	db04      	blt.n	8007288 <_dtoa_r+0xa30>
 800727e:	9909      	ldr	r1, [sp, #36]	@ 0x24
 8007280:	430b      	orrs	r3, r1
 8007282:	990a      	ldr	r1, [sp, #40]	@ 0x28
 8007284:	430b      	orrs	r3, r1
 8007286:	d120      	bne.n	80072ca <_dtoa_r+0xa72>
 8007288:	2a00      	cmp	r2, #0
 800728a:	dded      	ble.n	8007268 <_dtoa_r+0xa10>
 800728c:	4649      	mov	r1, r9
 800728e:	2201      	movs	r2, #1
 8007290:	4658      	mov	r0, fp
 8007292:	f000 fd01 	bl	8007c98 <__lshift>
 8007296:	4621      	mov	r1, r4
 8007298:	4681      	mov	r9, r0
 800729a:	f000 fd69 	bl	8007d70 <__mcmp>
 800729e:	2800      	cmp	r0, #0
 80072a0:	dc03      	bgt.n	80072aa <_dtoa_r+0xa52>
 80072a2:	d1e1      	bne.n	8007268 <_dtoa_r+0xa10>
 80072a4:	f018 0f01 	tst.w	r8, #1
 80072a8:	d0de      	beq.n	8007268 <_dtoa_r+0xa10>
 80072aa:	f1b8 0f39 	cmp.w	r8, #57	@ 0x39
 80072ae:	d1d8      	bne.n	8007262 <_dtoa_r+0xa0a>
 80072b0:	9a00      	ldr	r2, [sp, #0]
 80072b2:	2339      	movs	r3, #57	@ 0x39
 80072b4:	7013      	strb	r3, [r2, #0]
 80072b6:	4633      	mov	r3, r6
 80072b8:	461e      	mov	r6, r3
 80072ba:	3b01      	subs	r3, #1
 80072bc:	f816 2c01 	ldrb.w	r2, [r6, #-1]
 80072c0:	2a39      	cmp	r2, #57	@ 0x39
 80072c2:	d052      	beq.n	800736a <_dtoa_r+0xb12>
 80072c4:	3201      	adds	r2, #1
 80072c6:	701a      	strb	r2, [r3, #0]
 80072c8:	e612      	b.n	8006ef0 <_dtoa_r+0x698>
 80072ca:	2a00      	cmp	r2, #0
 80072cc:	dd07      	ble.n	80072de <_dtoa_r+0xa86>
 80072ce:	f1b8 0f39 	cmp.w	r8, #57	@ 0x39
 80072d2:	d0ed      	beq.n	80072b0 <_dtoa_r+0xa58>
 80072d4:	9a00      	ldr	r2, [sp, #0]
 80072d6:	f108 0301 	add.w	r3, r8, #1
 80072da:	7013      	strb	r3, [r2, #0]
 80072dc:	e608      	b.n	8006ef0 <_dtoa_r+0x698>
 80072de:	9b07      	ldr	r3, [sp, #28]
 80072e0:	9a07      	ldr	r2, [sp, #28]
 80072e2:	f803 8c01 	strb.w	r8, [r3, #-1]
 80072e6:	9b0b      	ldr	r3, [sp, #44]	@ 0x2c
 80072e8:	4293      	cmp	r3, r2
 80072ea:	d028      	beq.n	800733e <_dtoa_r+0xae6>
 80072ec:	4649      	mov	r1, r9
 80072ee:	2300      	movs	r3, #0
 80072f0:	220a      	movs	r2, #10
 80072f2:	4658      	mov	r0, fp
 80072f4:	f000 fb24 	bl	8007940 <__multadd>
 80072f8:	42af      	cmp	r7, r5
 80072fa:	4681      	mov	r9, r0
 80072fc:	f04f 0300 	mov.w	r3, #0
 8007300:	f04f 020a 	mov.w	r2, #10
 8007304:	4639      	mov	r1, r7
 8007306:	4658      	mov	r0, fp
 8007308:	d107      	bne.n	800731a <_dtoa_r+0xac2>
 800730a:	f000 fb19 	bl	8007940 <__multadd>
 800730e:	4607      	mov	r7, r0
 8007310:	4605      	mov	r5, r0
 8007312:	9b07      	ldr	r3, [sp, #28]
 8007314:	3301      	adds	r3, #1
 8007316:	9307      	str	r3, [sp, #28]
 8007318:	e774      	b.n	8007204 <_dtoa_r+0x9ac>
 800731a:	f000 fb11 	bl	8007940 <__multadd>
 800731e:	4629      	mov	r1, r5
 8007320:	4607      	mov	r7, r0
 8007322:	2300      	movs	r3, #0
 8007324:	220a      	movs	r2, #10
 8007326:	4658      	mov	r0, fp
 8007328:	f000 fb0a 	bl	8007940 <__multadd>
 800732c:	4605      	mov	r5, r0
 800732e:	e7f0      	b.n	8007312 <_dtoa_r+0xaba>
 8007330:	9b00      	ldr	r3, [sp, #0]
 8007332:	2b00      	cmp	r3, #0
 8007334:	bfcc      	ite	gt
 8007336:	461e      	movgt	r6, r3
 8007338:	2601      	movle	r6, #1
 800733a:	4456      	add	r6, sl
 800733c:	2700      	movs	r7, #0
 800733e:	4649      	mov	r1, r9
 8007340:	2201      	movs	r2, #1
 8007342:	4658      	mov	r0, fp
 8007344:	f000 fca8 	bl	8007c98 <__lshift>
 8007348:	4621      	mov	r1, r4
 800734a:	4681      	mov	r9, r0
 800734c:	f000 fd10 	bl	8007d70 <__mcmp>
 8007350:	2800      	cmp	r0, #0
 8007352:	dcb0      	bgt.n	80072b6 <_dtoa_r+0xa5e>
 8007354:	d102      	bne.n	800735c <_dtoa_r+0xb04>
 8007356:	f018 0f01 	tst.w	r8, #1
 800735a:	d1ac      	bne.n	80072b6 <_dtoa_r+0xa5e>
 800735c:	4633      	mov	r3, r6
 800735e:	461e      	mov	r6, r3
 8007360:	f813 2d01 	ldrb.w	r2, [r3, #-1]!
 8007364:	2a30      	cmp	r2, #48	@ 0x30
 8007366:	d0fa      	beq.n	800735e <_dtoa_r+0xb06>
 8007368:	e5c2      	b.n	8006ef0 <_dtoa_r+0x698>
 800736a:	459a      	cmp	sl, r3
 800736c:	d1a4      	bne.n	80072b8 <_dtoa_r+0xa60>
 800736e:	9b04      	ldr	r3, [sp, #16]
 8007370:	3301      	adds	r3, #1
 8007372:	9304      	str	r3, [sp, #16]
 8007374:	2331      	movs	r3, #49	@ 0x31
 8007376:	f88a 3000 	strb.w	r3, [sl]
 800737a:	e5b9      	b.n	8006ef0 <_dtoa_r+0x698>
 800737c:	9b23      	ldr	r3, [sp, #140]	@ 0x8c
 800737e:	f8df a05c 	ldr.w	sl, [pc, #92]	@ 80073dc <_dtoa_r+0xb84>
 8007382:	b11b      	cbz	r3, 800738c <_dtoa_r+0xb34>
 8007384:	f10a 0308 	add.w	r3, sl, #8
 8007388:	9a23      	ldr	r2, [sp, #140]	@ 0x8c
 800738a:	6013      	str	r3, [r2, #0]
 800738c:	4650      	mov	r0, sl
 800738e:	b019      	add	sp, #100	@ 0x64
 8007390:	e8bd 8ff0 	ldmia.w	sp!, {r4, r5, r6, r7, r8, r9, sl, fp, pc}
 8007394:	9b09      	ldr	r3, [sp, #36]	@ 0x24
 8007396:	2b01      	cmp	r3, #1
 8007398:	f77f ae37 	ble.w	800700a <_dtoa_r+0x7b2>
 800739c:	9b0f      	ldr	r3, [sp, #60]	@ 0x3c
 800739e:	930a      	str	r3, [sp, #40]	@ 0x28
 80073a0:	2001      	movs	r0, #1
 80073a2:	e655      	b.n	8007050 <_dtoa_r+0x7f8>
 80073a4:	9b00      	ldr	r3, [sp, #0]
 80073a6:	2b00      	cmp	r3, #0
 80073a8:	f77f aed6 	ble.w	8007158 <_dtoa_r+0x900>
 80073ac:	4656      	mov	r6, sl
 80073ae:	4621      	mov	r1, r4
 80073b0:	4648      	mov	r0, r9
 80073b2:	f7ff f9c8 	bl	8006746 <quorem>
 80073b6:	f100 0830 	add.w	r8, r0, #48	@ 0x30
 80073ba:	f806 8b01 	strb.w	r8, [r6], #1
 80073be:	9b00      	ldr	r3, [sp, #0]
 80073c0:	eba6 020a 	sub.w	r2, r6, sl
 80073c4:	4293      	cmp	r3, r2
 80073c6:	ddb3      	ble.n	8007330 <_dtoa_r+0xad8>
 80073c8:	4649      	mov	r1, r9
 80073ca:	2300      	movs	r3, #0
 80073cc:	220a      	movs	r2, #10
 80073ce:	4658      	mov	r0, fp
 80073d0:	f000 fab6 	bl	8007940 <__multadd>
 80073d4:	4681      	mov	r9, r0
 80073d6:	e7ea      	b.n	80073ae <_dtoa_r+0xb56>
 80073d8:	08008990 	.word	0x08008990
 80073dc:	08008914 	.word	0x08008914

080073e0 <_free_r>:
 80073e0:	b538      	push	{r3, r4, r5, lr}
 80073e2:	4605      	mov	r5, r0
 80073e4:	2900      	cmp	r1, #0
 80073e6:	d041      	beq.n	800746c <_free_r+0x8c>
 80073e8:	f851 3c04 	ldr.w	r3, [r1, #-4]
 80073ec:	1f0c      	subs	r4, r1, #4
 80073ee:	2b00      	cmp	r3, #0
 80073f0:	bfb8      	it	lt
 80073f2:	18e4      	addlt	r4, r4, r3
 80073f4:	f7ff f870 	bl	80064d8 <__malloc_lock>
 80073f8:	4a1d      	ldr	r2, [pc, #116]	@ (8007470 <_free_r+0x90>)
 80073fa:	6813      	ldr	r3, [r2, #0]
 80073fc:	b933      	cbnz	r3, 800740c <_free_r+0x2c>
 80073fe:	6063      	str	r3, [r4, #4]
 8007400:	6014      	str	r4, [r2, #0]
 8007402:	4628      	mov	r0, r5
 8007404:	e8bd 4038 	ldmia.w	sp!, {r3, r4, r5, lr}
 8007408:	f7ff b86c 	b.w	80064e4 <__malloc_unlock>
 800740c:	42a3      	cmp	r3, r4
 800740e:	d908      	bls.n	8007422 <_free_r+0x42>
 8007410:	6820      	ldr	r0, [r4, #0]
 8007412:	1821      	adds	r1, r4, r0
 8007414:	428b      	cmp	r3, r1
 8007416:	bf01      	itttt	eq
 8007418:	6819      	ldreq	r1, [r3, #0]
 800741a:	685b      	ldreq	r3, [r3, #4]
 800741c:	1809      	addeq	r1, r1, r0
 800741e:	6021      	streq	r1, [r4, #0]
 8007420:	e7ed      	b.n	80073fe <_free_r+0x1e>
 8007422:	461a      	mov	r2, r3
 8007424:	685b      	ldr	r3, [r3, #4]
 8007426:	b10b      	cbz	r3, 800742c <_free_r+0x4c>
 8007428:	42a3      	cmp	r3, r4
 800742a:	d9fa      	bls.n	8007422 <_free_r+0x42>
 800742c:	6811      	ldr	r1, [r2, #0]
 800742e:	1850      	adds	r0, r2, r1
 8007430:	42a0      	cmp	r0, r4
 8007432:	d10b      	bne.n	800744c <_free_r+0x6c>
 8007434:	6820      	ldr	r0, [r4, #0]
 8007436:	4401      	add	r1, r0
 8007438:	1850      	adds	r0, r2, r1
 800743a:	4283      	cmp	r3, r0
 800743c:	6011      	str	r1, [r2, #0]
 800743e:	d1e0      	bne.n	8007402 <_free_r+0x22>
 8007440:	6818      	ldr	r0, [r3, #0]
 8007442:	685b      	ldr	r3, [r3, #4]
 8007444:	6053      	str	r3, [r2, #4]
 8007446:	4408      	add	r0, r1
 8007448:	6010      	str	r0, [r2, #0]
 800744a:	e7da      	b.n	8007402 <_free_r+0x22>
 800744c:	d902      	bls.n	8007454 <_free_r+0x74>
 800744e:	230c      	movs	r3, #12
 8007450:	602b      	str	r3, [r5, #0]
 8007452:	e7d6      	b.n	8007402 <_free_r+0x22>
 8007454:	6820      	ldr	r0, [r4, #0]
 8007456:	1821      	adds	r1, r4, r0
 8007458:	428b      	cmp	r3, r1
 800745a:	bf04      	itt	eq
 800745c:	6819      	ldreq	r1, [r3, #0]
 800745e:	685b      	ldreq	r3, [r3, #4]
 8007460:	6063      	str	r3, [r4, #4]
 8007462:	bf04      	itt	eq
 8007464:	1809      	addeq	r1, r1, r0
 8007466:	6021      	streq	r1, [r4, #0]
 8007468:	6054      	str	r4, [r2, #4]
 800746a:	e7ca      	b.n	8007402 <_free_r+0x22>
 800746c:	bd38      	pop	{r3, r4, r5, pc}
 800746e:	bf00      	nop
 8007470:	20000374 	.word	0x20000374

08007474 <__ssputs_r>:
 8007474:	e92d 47f0 	stmdb	sp!, {r4, r5, r6, r7, r8, r9, sl, lr}
 8007478:	688e      	ldr	r6, [r1, #8]
 800747a:	461f      	mov	r7, r3
 800747c:	42be      	cmp	r6, r7
 800747e:	680b      	ldr	r3, [r1, #0]
 8007480:	4682      	mov	sl, r0
 8007482:	460c      	mov	r4, r1
 8007484:	4690      	mov	r8, r2
 8007486:	d82d      	bhi.n	80074e4 <__ssputs_r+0x70>
 8007488:	f9b1 200c 	ldrsh.w	r2, [r1, #12]
 800748c:	f412 6f90 	tst.w	r2, #1152	@ 0x480
 8007490:	d026      	beq.n	80074e0 <__ssputs_r+0x6c>
 8007492:	6965      	ldr	r5, [r4, #20]
 8007494:	6909      	ldr	r1, [r1, #16]
 8007496:	eb05 0545 	add.w	r5, r5, r5, lsl #1
 800749a:	eba3 0901 	sub.w	r9, r3, r1
 800749e:	eb05 75d5 	add.w	r5, r5, r5, lsr #31
 80074a2:	1c7b      	adds	r3, r7, #1
 80074a4:	444b      	add	r3, r9
 80074a6:	106d      	asrs	r5, r5, #1
 80074a8:	429d      	cmp	r5, r3
 80074aa:	bf38      	it	cc
 80074ac:	461d      	movcc	r5, r3
 80074ae:	0553      	lsls	r3, r2, #21
 80074b0:	d527      	bpl.n	8007502 <__ssputs_r+0x8e>
 80074b2:	4629      	mov	r1, r5
 80074b4:	f7fe fe02 	bl	80060bc <_malloc_r>
 80074b8:	4606      	mov	r6, r0
 80074ba:	b360      	cbz	r0, 8007516 <__ssputs_r+0xa2>
 80074bc:	6921      	ldr	r1, [r4, #16]
 80074be:	464a      	mov	r2, r9
 80074c0:	f000 fe30 	bl	8008124 <memcpy>
 80074c4:	89a3      	ldrh	r3, [r4, #12]
 80074c6:	f423 6390 	bic.w	r3, r3, #1152	@ 0x480
 80074ca:	f043 0380 	orr.w	r3, r3, #128	@ 0x80
 80074ce:	81a3      	strh	r3, [r4, #12]
 80074d0:	6126      	str	r6, [r4, #16]
 80074d2:	6165      	str	r5, [r4, #20]
 80074d4:	444e      	add	r6, r9
 80074d6:	eba5 0509 	sub.w	r5, r5, r9
 80074da:	6026      	str	r6, [r4, #0]
 80074dc:	60a5      	str	r5, [r4, #8]
 80074de:	463e      	mov	r6, r7
 80074e0:	42be      	cmp	r6, r7
 80074e2:	d900      	bls.n	80074e6 <__ssputs_r+0x72>
 80074e4:	463e      	mov	r6, r7
 80074e6:	6820      	ldr	r0, [r4, #0]
 80074e8:	4632      	mov	r2, r6
 80074ea:	4641      	mov	r1, r8
 80074ec:	f000 fdb9 	bl	8008062 <memmove>
 80074f0:	68a3      	ldr	r3, [r4, #8]
 80074f2:	1b9b      	subs	r3, r3, r6
 80074f4:	60a3      	str	r3, [r4, #8]
 80074f6:	6823      	ldr	r3, [r4, #0]
 80074f8:	4433      	add	r3, r6
 80074fa:	6023      	str	r3, [r4, #0]
 80074fc:	2000      	movs	r0, #0
 80074fe:	e8bd 87f0 	ldmia.w	sp!, {r4, r5, r6, r7, r8, r9, sl, pc}
 8007502:	462a      	mov	r2, r5
 8007504:	f000 fd7f 	bl	8008006 <_realloc_r>
 8007508:	4606      	mov	r6, r0
 800750a:	2800      	cmp	r0, #0
 800750c:	d1e0      	bne.n	80074d0 <__ssputs_r+0x5c>
 800750e:	6921      	ldr	r1, [r4, #16]
 8007510:	4650      	mov	r0, sl
 8007512:	f7ff ff65 	bl	80073e0 <_free_r>
 8007516:	230c      	movs	r3, #12
 8007518:	f8ca 3000 	str.w	r3, [sl]
 800751c:	89a3      	ldrh	r3, [r4, #12]
 800751e:	f043 0340 	orr.w	r3, r3, #64	@ 0x40
 8007522:	81a3      	strh	r3, [r4, #12]
 8007524:	f04f 30ff 	mov.w	r0, #4294967295	@ 0xffffffff
 8007528:	e7e9      	b.n	80074fe <__ssputs_r+0x8a>
	...

0800752c <_svfiprintf_r>:
 800752c:	e92d 4ff0 	stmdb	sp!, {r4, r5, r6, r7, r8, r9, sl, fp, lr}
 8007530:	4698      	mov	r8, r3
 8007532:	898b      	ldrh	r3, [r1, #12]
 8007534:	061b      	lsls	r3, r3, #24
 8007536:	b09d      	sub	sp, #116	@ 0x74
 8007538:	4607      	mov	r7, r0
 800753a:	460d      	mov	r5, r1
 800753c:	4614      	mov	r4, r2
 800753e:	d510      	bpl.n	8007562 <_svfiprintf_r+0x36>
 8007540:	690b      	ldr	r3, [r1, #16]
 8007542:	b973      	cbnz	r3, 8007562 <_svfiprintf_r+0x36>
 8007544:	2140      	movs	r1, #64	@ 0x40
 8007546:	f7fe fdb9 	bl	80060bc <_malloc_r>
 800754a:	6028      	str	r0, [r5, #0]
 800754c:	6128      	str	r0, [r5, #16]
 800754e:	b930      	cbnz	r0, 800755e <_svfiprintf_r+0x32>
 8007550:	230c      	movs	r3, #12
 8007552:	603b      	str	r3, [r7, #0]
 8007554:	f04f 30ff 	mov.w	r0, #4294967295	@ 0xffffffff
 8007558:	b01d      	add	sp, #116	@ 0x74
 800755a:	e8bd 8ff0 	ldmia.w	sp!, {r4, r5, r6, r7, r8, r9, sl, fp, pc}
 800755e:	2340      	movs	r3, #64	@ 0x40
 8007560:	616b      	str	r3, [r5, #20]
 8007562:	2300      	movs	r3, #0
 8007564:	9309      	str	r3, [sp, #36]	@ 0x24
 8007566:	2320      	movs	r3, #32
 8007568:	f88d 3029 	strb.w	r3, [sp, #41]	@ 0x29
 800756c:	f8cd 800c 	str.w	r8, [sp, #12]
 8007570:	2330      	movs	r3, #48	@ 0x30
 8007572:	f8df 819c 	ldr.w	r8, [pc, #412]	@ 8007710 <_svfiprintf_r+0x1e4>
 8007576:	f88d 302a 	strb.w	r3, [sp, #42]	@ 0x2a
 800757a:	f04f 0901 	mov.w	r9, #1
 800757e:	4623      	mov	r3, r4
 8007580:	469a      	mov	sl, r3
 8007582:	f813 2b01 	ldrb.w	r2, [r3], #1
 8007586:	b10a      	cbz	r2, 800758c <_svfiprintf_r+0x60>
 8007588:	2a25      	cmp	r2, #37	@ 0x25
 800758a:	d1f9      	bne.n	8007580 <_svfiprintf_r+0x54>
 800758c:	ebba 0b04 	subs.w	fp, sl, r4
 8007590:	d00b      	beq.n	80075aa <_svfiprintf_r+0x7e>
 8007592:	465b      	mov	r3, fp
 8007594:	4622      	mov	r2, r4
 8007596:	4629      	mov	r1, r5
 8007598:	4638      	mov	r0, r7
 800759a:	f7ff ff6b 	bl	8007474 <__ssputs_r>
 800759e:	3001      	adds	r0, #1
 80075a0:	f000 80a7 	beq.w	80076f2 <_svfiprintf_r+0x1c6>
 80075a4:	9a09      	ldr	r2, [sp, #36]	@ 0x24
 80075a6:	445a      	add	r2, fp
 80075a8:	9209      	str	r2, [sp, #36]	@ 0x24
 80075aa:	f89a 3000 	ldrb.w	r3, [sl]
 80075ae:	2b00      	cmp	r3, #0
 80075b0:	f000 809f 	beq.w	80076f2 <_svfiprintf_r+0x1c6>
 80075b4:	2300      	movs	r3, #0
 80075b6:	f04f 32ff 	mov.w	r2, #4294967295	@ 0xffffffff
 80075ba:	e9cd 2305 	strd	r2, r3, [sp, #20]
 80075be:	f10a 0a01 	add.w	sl, sl, #1
 80075c2:	9304      	str	r3, [sp, #16]
 80075c4:	9307      	str	r3, [sp, #28]
 80075c6:	f88d 3053 	strb.w	r3, [sp, #83]	@ 0x53
 80075ca:	931a      	str	r3, [sp, #104]	@ 0x68
 80075cc:	4654      	mov	r4, sl
 80075ce:	2205      	movs	r2, #5
 80075d0:	f814 1b01 	ldrb.w	r1, [r4], #1
 80075d4:	484e      	ldr	r0, [pc, #312]	@ (8007710 <_svfiprintf_r+0x1e4>)
 80075d6:	f7f8 fe1b 	bl	8000210 <memchr>
 80075da:	9a04      	ldr	r2, [sp, #16]
 80075dc:	b9d8      	cbnz	r0, 8007616 <_svfiprintf_r+0xea>
 80075de:	06d0      	lsls	r0, r2, #27
 80075e0:	bf44      	itt	mi
 80075e2:	2320      	movmi	r3, #32
 80075e4:	f88d 3053 	strbmi.w	r3, [sp, #83]	@ 0x53
 80075e8:	0711      	lsls	r1, r2, #28
 80075ea:	bf44      	itt	mi
 80075ec:	232b      	movmi	r3, #43	@ 0x2b
 80075ee:	f88d 3053 	strbmi.w	r3, [sp, #83]	@ 0x53
 80075f2:	f89a 3000 	ldrb.w	r3, [sl]
 80075f6:	2b2a      	cmp	r3, #42	@ 0x2a
 80075f8:	d015      	beq.n	8007626 <_svfiprintf_r+0xfa>
 80075fa:	9a07      	ldr	r2, [sp, #28]
 80075fc:	4654      	mov	r4, sl
 80075fe:	2000      	movs	r0, #0
 8007600:	f04f 0c0a 	mov.w	ip, #10
 8007604:	4621      	mov	r1, r4
 8007606:	f811 3b01 	ldrb.w	r3, [r1], #1
 800760a:	3b30      	subs	r3, #48	@ 0x30
 800760c:	2b09      	cmp	r3, #9
 800760e:	d94b      	bls.n	80076a8 <_svfiprintf_r+0x17c>
 8007610:	b1b0      	cbz	r0, 8007640 <_svfiprintf_r+0x114>
 8007612:	9207      	str	r2, [sp, #28]
 8007614:	e014      	b.n	8007640 <_svfiprintf_r+0x114>
 8007616:	eba0 0308 	sub.w	r3, r0, r8
 800761a:	fa09 f303 	lsl.w	r3, r9, r3
 800761e:	4313      	orrs	r3, r2
 8007620:	9304      	str	r3, [sp, #16]
 8007622:	46a2      	mov	sl, r4
 8007624:	e7d2      	b.n	80075cc <_svfiprintf_r+0xa0>
 8007626:	9b03      	ldr	r3, [sp, #12]
 8007628:	1d19      	adds	r1, r3, #4
 800762a:	681b      	ldr	r3, [r3, #0]
 800762c:	9103      	str	r1, [sp, #12]
 800762e:	2b00      	cmp	r3, #0
 8007630:	bfbb      	ittet	lt
 8007632:	425b      	neglt	r3, r3
 8007634:	f042 0202 	orrlt.w	r2, r2, #2
 8007638:	9307      	strge	r3, [sp, #28]
 800763a:	9307      	strlt	r3, [sp, #28]
 800763c:	bfb8      	it	lt
 800763e:	9204      	strlt	r2, [sp, #16]
 8007640:	7823      	ldrb	r3, [r4, #0]
 8007642:	2b2e      	cmp	r3, #46	@ 0x2e
 8007644:	d10a      	bne.n	800765c <_svfiprintf_r+0x130>
 8007646:	7863      	ldrb	r3, [r4, #1]
 8007648:	2b2a      	cmp	r3, #42	@ 0x2a
 800764a:	d132      	bne.n	80076b2 <_svfiprintf_r+0x186>
 800764c:	9b03      	ldr	r3, [sp, #12]
 800764e:	1d1a      	adds	r2, r3, #4
 8007650:	681b      	ldr	r3, [r3, #0]
 8007652:	9203      	str	r2, [sp, #12]
 8007654:	ea43 73e3 	orr.w	r3, r3, r3, asr #31
 8007658:	3402      	adds	r4, #2
 800765a:	9305      	str	r3, [sp, #20]
 800765c:	f8df a0c0 	ldr.w	sl, [pc, #192]	@ 8007720 <_svfiprintf_r+0x1f4>
 8007660:	7821      	ldrb	r1, [r4, #0]
 8007662:	2203      	movs	r2, #3
 8007664:	4650      	mov	r0, sl
 8007666:	f7f8 fdd3 	bl	8000210 <memchr>
 800766a:	b138      	cbz	r0, 800767c <_svfiprintf_r+0x150>
 800766c:	9b04      	ldr	r3, [sp, #16]
 800766e:	eba0 000a 	sub.w	r0, r0, sl
 8007672:	2240      	movs	r2, #64	@ 0x40
 8007674:	4082      	lsls	r2, r0
 8007676:	4313      	orrs	r3, r2
 8007678:	3401      	adds	r4, #1
 800767a:	9304      	str	r3, [sp, #16]
 800767c:	f814 1b01 	ldrb.w	r1, [r4], #1
 8007680:	4824      	ldr	r0, [pc, #144]	@ (8007714 <_svfiprintf_r+0x1e8>)
 8007682:	f88d 1028 	strb.w	r1, [sp, #40]	@ 0x28
 8007686:	2206      	movs	r2, #6
 8007688:	f7f8 fdc2 	bl	8000210 <memchr>
 800768c:	2800      	cmp	r0, #0
 800768e:	d036      	beq.n	80076fe <_svfiprintf_r+0x1d2>
 8007690:	4b21      	ldr	r3, [pc, #132]	@ (8007718 <_svfiprintf_r+0x1ec>)
 8007692:	bb1b      	cbnz	r3, 80076dc <_svfiprintf_r+0x1b0>
 8007694:	9b03      	ldr	r3, [sp, #12]
 8007696:	3307      	adds	r3, #7
 8007698:	f023 0307 	bic.w	r3, r3, #7
 800769c:	3308      	adds	r3, #8
 800769e:	9303      	str	r3, [sp, #12]
 80076a0:	9b09      	ldr	r3, [sp, #36]	@ 0x24
 80076a2:	4433      	add	r3, r6
 80076a4:	9309      	str	r3, [sp, #36]	@ 0x24
 80076a6:	e76a      	b.n	800757e <_svfiprintf_r+0x52>
 80076a8:	fb0c 3202 	mla	r2, ip, r2, r3
 80076ac:	460c      	mov	r4, r1
 80076ae:	2001      	movs	r0, #1
 80076b0:	e7a8      	b.n	8007604 <_svfiprintf_r+0xd8>
 80076b2:	2300      	movs	r3, #0
 80076b4:	3401      	adds	r4, #1
 80076b6:	9305      	str	r3, [sp, #20]
 80076b8:	4619      	mov	r1, r3
 80076ba:	f04f 0c0a 	mov.w	ip, #10
 80076be:	4620      	mov	r0, r4
 80076c0:	f810 2b01 	ldrb.w	r2, [r0], #1
 80076c4:	3a30      	subs	r2, #48	@ 0x30
 80076c6:	2a09      	cmp	r2, #9
 80076c8:	d903      	bls.n	80076d2 <_svfiprintf_r+0x1a6>
 80076ca:	2b00      	cmp	r3, #0
 80076cc:	d0c6      	beq.n	800765c <_svfiprintf_r+0x130>
 80076ce:	9105      	str	r1, [sp, #20]
 80076d0:	e7c4      	b.n	800765c <_svfiprintf_r+0x130>
 80076d2:	fb0c 2101 	mla	r1, ip, r1, r2
 80076d6:	4604      	mov	r4, r0
 80076d8:	2301      	movs	r3, #1
 80076da:	e7f0      	b.n	80076be <_svfiprintf_r+0x192>
 80076dc:	ab03      	add	r3, sp, #12
 80076de:	9300      	str	r3, [sp, #0]
 80076e0:	462a      	mov	r2, r5
 80076e2:	4b0e      	ldr	r3, [pc, #56]	@ (800771c <_svfiprintf_r+0x1f0>)
 80076e4:	a904      	add	r1, sp, #16
 80076e6:	4638      	mov	r0, r7
 80076e8:	f7fe fa94 	bl	8005c14 <_printf_float>
 80076ec:	1c42      	adds	r2, r0, #1
 80076ee:	4606      	mov	r6, r0
 80076f0:	d1d6      	bne.n	80076a0 <_svfiprintf_r+0x174>
 80076f2:	89ab      	ldrh	r3, [r5, #12]
 80076f4:	065b      	lsls	r3, r3, #25
 80076f6:	f53f af2d 	bmi.w	8007554 <_svfiprintf_r+0x28>
 80076fa:	9809      	ldr	r0, [sp, #36]	@ 0x24
 80076fc:	e72c      	b.n	8007558 <_svfiprintf_r+0x2c>
 80076fe:	ab03      	add	r3, sp, #12
 8007700:	9300      	str	r3, [sp, #0]
 8007702:	462a      	mov	r2, r5
 8007704:	4b05      	ldr	r3, [pc, #20]	@ (800771c <_svfiprintf_r+0x1f0>)
 8007706:	a904      	add	r1, sp, #16
 8007708:	4638      	mov	r0, r7
 800770a:	f7fe fdc5 	bl	8006298 <_printf_i>
 800770e:	e7ed      	b.n	80076ec <_svfiprintf_r+0x1c0>
 8007710:	080089a1 	.word	0x080089a1
 8007714:	080089ab 	.word	0x080089ab
 8007718:	08005c15 	.word	0x08005c15
 800771c:	08007475 	.word	0x08007475
 8007720:	080089a7 	.word	0x080089a7

08007724 <__sflush_r>:
 8007724:	f9b1 200c 	ldrsh.w	r2, [r1, #12]
 8007728:	e92d 41f0 	stmdb	sp!, {r4, r5, r6, r7, r8, lr}
 800772c:	0716      	lsls	r6, r2, #28
 800772e:	4605      	mov	r5, r0
 8007730:	460c      	mov	r4, r1
 8007732:	d454      	bmi.n	80077de <__sflush_r+0xba>
 8007734:	684b      	ldr	r3, [r1, #4]
 8007736:	2b00      	cmp	r3, #0
 8007738:	dc02      	bgt.n	8007740 <__sflush_r+0x1c>
 800773a:	6c0b      	ldr	r3, [r1, #64]	@ 0x40
 800773c:	2b00      	cmp	r3, #0
 800773e:	dd48      	ble.n	80077d2 <__sflush_r+0xae>
 8007740:	6ae6      	ldr	r6, [r4, #44]	@ 0x2c
 8007742:	2e00      	cmp	r6, #0
 8007744:	d045      	beq.n	80077d2 <__sflush_r+0xae>
 8007746:	2300      	movs	r3, #0
 8007748:	f412 5280 	ands.w	r2, r2, #4096	@ 0x1000
 800774c:	682f      	ldr	r7, [r5, #0]
 800774e:	6a21      	ldr	r1, [r4, #32]
 8007750:	602b      	str	r3, [r5, #0]
 8007752:	d030      	beq.n	80077b6 <__sflush_r+0x92>
 8007754:	6d62      	ldr	r2, [r4, #84]	@ 0x54
 8007756:	89a3      	ldrh	r3, [r4, #12]
 8007758:	0759      	lsls	r1, r3, #29
 800775a:	d505      	bpl.n	8007768 <__sflush_r+0x44>
 800775c:	6863      	ldr	r3, [r4, #4]
 800775e:	1ad2      	subs	r2, r2, r3
 8007760:	6b63      	ldr	r3, [r4, #52]	@ 0x34
 8007762:	b10b      	cbz	r3, 8007768 <__sflush_r+0x44>
 8007764:	6c23      	ldr	r3, [r4, #64]	@ 0x40
 8007766:	1ad2      	subs	r2, r2, r3
 8007768:	2300      	movs	r3, #0
 800776a:	6ae6      	ldr	r6, [r4, #44]	@ 0x2c
 800776c:	6a21      	ldr	r1, [r4, #32]
 800776e:	4628      	mov	r0, r5
 8007770:	47b0      	blx	r6
 8007772:	1c43      	adds	r3, r0, #1
 8007774:	89a3      	ldrh	r3, [r4, #12]
 8007776:	d106      	bne.n	8007786 <__sflush_r+0x62>
 8007778:	6829      	ldr	r1, [r5, #0]
 800777a:	291d      	cmp	r1, #29
 800777c:	d82b      	bhi.n	80077d6 <__sflush_r+0xb2>
 800777e:	4a2a      	ldr	r2, [pc, #168]	@ (8007828 <__sflush_r+0x104>)
 8007780:	410a      	asrs	r2, r1
 8007782:	07d6      	lsls	r6, r2, #31
 8007784:	d427      	bmi.n	80077d6 <__sflush_r+0xb2>
 8007786:	2200      	movs	r2, #0
 8007788:	6062      	str	r2, [r4, #4]
 800778a:	04d9      	lsls	r1, r3, #19
 800778c:	6922      	ldr	r2, [r4, #16]
 800778e:	6022      	str	r2, [r4, #0]
 8007790:	d504      	bpl.n	800779c <__sflush_r+0x78>
 8007792:	1c42      	adds	r2, r0, #1
 8007794:	d101      	bne.n	800779a <__sflush_r+0x76>
 8007796:	682b      	ldr	r3, [r5, #0]
 8007798:	b903      	cbnz	r3, 800779c <__sflush_r+0x78>
 800779a:	6560      	str	r0, [r4, #84]	@ 0x54
 800779c:	6b61      	ldr	r1, [r4, #52]	@ 0x34
 800779e:	602f      	str	r7, [r5, #0]
 80077a0:	b1b9      	cbz	r1, 80077d2 <__sflush_r+0xae>
 80077a2:	f104 0344 	add.w	r3, r4, #68	@ 0x44
 80077a6:	4299      	cmp	r1, r3
 80077a8:	d002      	beq.n	80077b0 <__sflush_r+0x8c>
 80077aa:	4628      	mov	r0, r5
 80077ac:	f7ff fe18 	bl	80073e0 <_free_r>
 80077b0:	2300      	movs	r3, #0
 80077b2:	6363      	str	r3, [r4, #52]	@ 0x34
 80077b4:	e00d      	b.n	80077d2 <__sflush_r+0xae>
 80077b6:	2301      	movs	r3, #1
 80077b8:	4628      	mov	r0, r5
 80077ba:	47b0      	blx	r6
 80077bc:	4602      	mov	r2, r0
 80077be:	1c50      	adds	r0, r2, #1
 80077c0:	d1c9      	bne.n	8007756 <__sflush_r+0x32>
 80077c2:	682b      	ldr	r3, [r5, #0]
 80077c4:	2b00      	cmp	r3, #0
 80077c6:	d0c6      	beq.n	8007756 <__sflush_r+0x32>
 80077c8:	2b1d      	cmp	r3, #29
 80077ca:	d001      	beq.n	80077d0 <__sflush_r+0xac>
 80077cc:	2b16      	cmp	r3, #22
 80077ce:	d11e      	bne.n	800780e <__sflush_r+0xea>
 80077d0:	602f      	str	r7, [r5, #0]
 80077d2:	2000      	movs	r0, #0
 80077d4:	e022      	b.n	800781c <__sflush_r+0xf8>
 80077d6:	f043 0340 	orr.w	r3, r3, #64	@ 0x40
 80077da:	b21b      	sxth	r3, r3
 80077dc:	e01b      	b.n	8007816 <__sflush_r+0xf2>
 80077de:	690f      	ldr	r7, [r1, #16]
 80077e0:	2f00      	cmp	r7, #0
 80077e2:	d0f6      	beq.n	80077d2 <__sflush_r+0xae>
 80077e4:	0793      	lsls	r3, r2, #30
 80077e6:	680e      	ldr	r6, [r1, #0]
 80077e8:	bf08      	it	eq
 80077ea:	694b      	ldreq	r3, [r1, #20]
 80077ec:	600f      	str	r7, [r1, #0]
 80077ee:	bf18      	it	ne
 80077f0:	2300      	movne	r3, #0
 80077f2:	eba6 0807 	sub.w	r8, r6, r7
 80077f6:	608b      	str	r3, [r1, #8]
 80077f8:	f1b8 0f00 	cmp.w	r8, #0
 80077fc:	dde9      	ble.n	80077d2 <__sflush_r+0xae>
 80077fe:	6a21      	ldr	r1, [r4, #32]
 8007800:	6aa6      	ldr	r6, [r4, #40]	@ 0x28
 8007802:	4643      	mov	r3, r8
 8007804:	463a      	mov	r2, r7
 8007806:	4628      	mov	r0, r5
 8007808:	47b0      	blx	r6
 800780a:	2800      	cmp	r0, #0
 800780c:	dc08      	bgt.n	8007820 <__sflush_r+0xfc>
 800780e:	f9b4 300c 	ldrsh.w	r3, [r4, #12]
 8007812:	f043 0340 	orr.w	r3, r3, #64	@ 0x40
 8007816:	81a3      	strh	r3, [r4, #12]
 8007818:	f04f 30ff 	mov.w	r0, #4294967295	@ 0xffffffff
 800781c:	e8bd 81f0 	ldmia.w	sp!, {r4, r5, r6, r7, r8, pc}
 8007820:	4407      	add	r7, r0
 8007822:	eba8 0800 	sub.w	r8, r8, r0
 8007826:	e7e7      	b.n	80077f8 <__sflush_r+0xd4>
 8007828:	dfbffffe 	.word	0xdfbffffe

0800782c <_fflush_r>:
 800782c:	b538      	push	{r3, r4, r5, lr}
 800782e:	690b      	ldr	r3, [r1, #16]
 8007830:	4605      	mov	r5, r0
 8007832:	460c      	mov	r4, r1
 8007834:	b913      	cbnz	r3, 800783c <_fflush_r+0x10>
 8007836:	2500      	movs	r5, #0
 8007838:	4628      	mov	r0, r5
 800783a:	bd38      	pop	{r3, r4, r5, pc}
 800783c:	b118      	cbz	r0, 8007846 <_fflush_r+0x1a>
 800783e:	6a03      	ldr	r3, [r0, #32]
 8007840:	b90b      	cbnz	r3, 8007846 <_fflush_r+0x1a>
 8007842:	f7fe ff01 	bl	8006648 <__sinit>
 8007846:	f9b4 300c 	ldrsh.w	r3, [r4, #12]
 800784a:	2b00      	cmp	r3, #0
 800784c:	d0f3      	beq.n	8007836 <_fflush_r+0xa>
 800784e:	6e62      	ldr	r2, [r4, #100]	@ 0x64
 8007850:	07d0      	lsls	r0, r2, #31
 8007852:	d404      	bmi.n	800785e <_fflush_r+0x32>
 8007854:	0599      	lsls	r1, r3, #22
 8007856:	d402      	bmi.n	800785e <_fflush_r+0x32>
 8007858:	6da0      	ldr	r0, [r4, #88]	@ 0x58
 800785a:	f7fe ff72 	bl	8006742 <__retarget_lock_acquire_recursive>
 800785e:	4628      	mov	r0, r5
 8007860:	4621      	mov	r1, r4
 8007862:	f7ff ff5f 	bl	8007724 <__sflush_r>
 8007866:	6e63      	ldr	r3, [r4, #100]	@ 0x64
 8007868:	07da      	lsls	r2, r3, #31
 800786a:	4605      	mov	r5, r0
 800786c:	d4e4      	bmi.n	8007838 <_fflush_r+0xc>
 800786e:	89a3      	ldrh	r3, [r4, #12]
 8007870:	059b      	lsls	r3, r3, #22
 8007872:	d4e1      	bmi.n	8007838 <_fflush_r+0xc>
 8007874:	6da0      	ldr	r0, [r4, #88]	@ 0x58
 8007876:	f7fe ff65 	bl	8006744 <__retarget_lock_release_recursive>
 800787a:	e7dd      	b.n	8007838 <_fflush_r+0xc>

0800787c <_Balloc>:
 800787c:	b570      	push	{r4, r5, r6, lr}
 800787e:	69c6      	ldr	r6, [r0, #28]
 8007880:	4604      	mov	r4, r0
 8007882:	460d      	mov	r5, r1
 8007884:	b976      	cbnz	r6, 80078a4 <_Balloc+0x28>
 8007886:	2010      	movs	r0, #16
 8007888:	f7fe fbee 	bl	8006068 <malloc>
 800788c:	4602      	mov	r2, r0
 800788e:	61e0      	str	r0, [r4, #28]
 8007890:	b920      	cbnz	r0, 800789c <_Balloc+0x20>
 8007892:	4b18      	ldr	r3, [pc, #96]	@ (80078f4 <_Balloc+0x78>)
 8007894:	4818      	ldr	r0, [pc, #96]	@ (80078f8 <_Balloc+0x7c>)
 8007896:	216b      	movs	r1, #107	@ 0x6b
 8007898:	f000 fc52 	bl	8008140 <__assert_func>
 800789c:	e9c0 6601 	strd	r6, r6, [r0, #4]
 80078a0:	6006      	str	r6, [r0, #0]
 80078a2:	60c6      	str	r6, [r0, #12]
 80078a4:	69e6      	ldr	r6, [r4, #28]
 80078a6:	68f3      	ldr	r3, [r6, #12]
 80078a8:	b183      	cbz	r3, 80078cc <_Balloc+0x50>
 80078aa:	69e3      	ldr	r3, [r4, #28]
 80078ac:	68db      	ldr	r3, [r3, #12]
 80078ae:	f853 0025 	ldr.w	r0, [r3, r5, lsl #2]
 80078b2:	b9b8      	cbnz	r0, 80078e4 <_Balloc+0x68>
 80078b4:	2101      	movs	r1, #1
 80078b6:	fa01 f605 	lsl.w	r6, r1, r5
 80078ba:	1d72      	adds	r2, r6, #5
 80078bc:	0092      	lsls	r2, r2, #2
 80078be:	4620      	mov	r0, r4
 80078c0:	f7fe f8f4 	bl	8005aac <_calloc_r>
 80078c4:	b160      	cbz	r0, 80078e0 <_Balloc+0x64>
 80078c6:	e9c0 5601 	strd	r5, r6, [r0, #4]
 80078ca:	e00e      	b.n	80078ea <_Balloc+0x6e>
 80078cc:	2221      	movs	r2, #33	@ 0x21
 80078ce:	2104      	movs	r1, #4
 80078d0:	4620      	mov	r0, r4
 80078d2:	f7fe f8eb 	bl	8005aac <_calloc_r>
 80078d6:	69e3      	ldr	r3, [r4, #28]
 80078d8:	60f0      	str	r0, [r6, #12]
 80078da:	68db      	ldr	r3, [r3, #12]
 80078dc:	2b00      	cmp	r3, #0
 80078de:	d1e4      	bne.n	80078aa <_Balloc+0x2e>
 80078e0:	2000      	movs	r0, #0
 80078e2:	bd70      	pop	{r4, r5, r6, pc}
 80078e4:	6802      	ldr	r2, [r0, #0]
 80078e6:	f843 2025 	str.w	r2, [r3, r5, lsl #2]
 80078ea:	2300      	movs	r3, #0
 80078ec:	e9c0 3303 	strd	r3, r3, [r0, #12]
 80078f0:	e7f7      	b.n	80078e2 <_Balloc+0x66>
 80078f2:	bf00      	nop
 80078f4:	08008921 	.word	0x08008921
 80078f8:	080089b2 	.word	0x080089b2

080078fc <_Bfree>:
 80078fc:	b570      	push	{r4, r5, r6, lr}
 80078fe:	69c6      	ldr	r6, [r0, #28]
 8007900:	4605      	mov	r5, r0
 8007902:	460c      	mov	r4, r1
 8007904:	b976      	cbnz	r6, 8007924 <_Bfree+0x28>
 8007906:	2010      	movs	r0, #16
 8007908:	f7fe fbae 	bl	8006068 <malloc>
 800790c:	4602      	mov	r2, r0
 800790e:	61e8      	str	r0, [r5, #28]
 8007910:	b920      	cbnz	r0, 800791c <_Bfree+0x20>
 8007912:	4b09      	ldr	r3, [pc, #36]	@ (8007938 <_Bfree+0x3c>)
 8007914:	4809      	ldr	r0, [pc, #36]	@ (800793c <_Bfree+0x40>)
 8007916:	218f      	movs	r1, #143	@ 0x8f
 8007918:	f000 fc12 	bl	8008140 <__assert_func>
 800791c:	e9c0 6601 	strd	r6, r6, [r0, #4]
 8007920:	6006      	str	r6, [r0, #0]
 8007922:	60c6      	str	r6, [r0, #12]
 8007924:	b13c      	cbz	r4, 8007936 <_Bfree+0x3a>
 8007926:	69eb      	ldr	r3, [r5, #28]
 8007928:	6862      	ldr	r2, [r4, #4]
 800792a:	68db      	ldr	r3, [r3, #12]
 800792c:	f853 1022 	ldr.w	r1, [r3, r2, lsl #2]
 8007930:	6021      	str	r1, [r4, #0]
 8007932:	f843 4022 	str.w	r4, [r3, r2, lsl #2]
 8007936:	bd70      	pop	{r4, r5, r6, pc}
 8007938:	08008921 	.word	0x08008921
 800793c:	080089b2 	.word	0x080089b2

08007940 <__multadd>:
 8007940:	e92d 41f0 	stmdb	sp!, {r4, r5, r6, r7, r8, lr}
 8007944:	690d      	ldr	r5, [r1, #16]
 8007946:	4607      	mov	r7, r0
 8007948:	460c      	mov	r4, r1
 800794a:	461e      	mov	r6, r3
 800794c:	f101 0c14 	add.w	ip, r1, #20
 8007950:	2000      	movs	r0, #0
 8007952:	f8dc 3000 	ldr.w	r3, [ip]
 8007956:	b299      	uxth	r1, r3
 8007958:	fb02 6101 	mla	r1, r2, r1, r6
 800795c:	0c1e      	lsrs	r6, r3, #16
 800795e:	0c0b      	lsrs	r3, r1, #16
 8007960:	fb02 3306 	mla	r3, r2, r6, r3
 8007964:	b289      	uxth	r1, r1
 8007966:	3001      	adds	r0, #1
 8007968:	eb01 4103 	add.w	r1, r1, r3, lsl #16
 800796c:	4285      	cmp	r5, r0
 800796e:	f84c 1b04 	str.w	r1, [ip], #4
 8007972:	ea4f 4613 	mov.w	r6, r3, lsr #16
 8007976:	dcec      	bgt.n	8007952 <__multadd+0x12>
 8007978:	b30e      	cbz	r6, 80079be <__multadd+0x7e>
 800797a:	68a3      	ldr	r3, [r4, #8]
 800797c:	42ab      	cmp	r3, r5
 800797e:	dc19      	bgt.n	80079b4 <__multadd+0x74>
 8007980:	6861      	ldr	r1, [r4, #4]
 8007982:	4638      	mov	r0, r7
 8007984:	3101      	adds	r1, #1
 8007986:	f7ff ff79 	bl	800787c <_Balloc>
 800798a:	4680      	mov	r8, r0
 800798c:	b928      	cbnz	r0, 800799a <__multadd+0x5a>
 800798e:	4602      	mov	r2, r0
 8007990:	4b0c      	ldr	r3, [pc, #48]	@ (80079c4 <__multadd+0x84>)
 8007992:	480d      	ldr	r0, [pc, #52]	@ (80079c8 <__multadd+0x88>)
 8007994:	21ba      	movs	r1, #186	@ 0xba
 8007996:	f000 fbd3 	bl	8008140 <__assert_func>
 800799a:	6922      	ldr	r2, [r4, #16]
 800799c:	3202      	adds	r2, #2
 800799e:	f104 010c 	add.w	r1, r4, #12
 80079a2:	0092      	lsls	r2, r2, #2
 80079a4:	300c      	adds	r0, #12
 80079a6:	f000 fbbd 	bl	8008124 <memcpy>
 80079aa:	4621      	mov	r1, r4
 80079ac:	4638      	mov	r0, r7
 80079ae:	f7ff ffa5 	bl	80078fc <_Bfree>
 80079b2:	4644      	mov	r4, r8
 80079b4:	eb04 0385 	add.w	r3, r4, r5, lsl #2
 80079b8:	3501      	adds	r5, #1
 80079ba:	615e      	str	r6, [r3, #20]
 80079bc:	6125      	str	r5, [r4, #16]
 80079be:	4620      	mov	r0, r4
 80079c0:	e8bd 81f0 	ldmia.w	sp!, {r4, r5, r6, r7, r8, pc}
 80079c4:	08008990 	.word	0x08008990
 80079c8:	080089b2 	.word	0x080089b2

080079cc <__hi0bits>:
 80079cc:	f5b0 3f80 	cmp.w	r0, #65536	@ 0x10000
 80079d0:	4603      	mov	r3, r0
 80079d2:	bf36      	itet	cc
 80079d4:	0403      	lslcc	r3, r0, #16
 80079d6:	2000      	movcs	r0, #0
 80079d8:	2010      	movcc	r0, #16
 80079da:	f1b3 7f80 	cmp.w	r3, #16777216	@ 0x1000000
 80079de:	bf3c      	itt	cc
 80079e0:	021b      	lslcc	r3, r3, #8
 80079e2:	3008      	addcc	r0, #8
 80079e4:	f1b3 5f80 	cmp.w	r3, #268435456	@ 0x10000000
 80079e8:	bf3c      	itt	cc
 80079ea:	011b      	lslcc	r3, r3, #4
 80079ec:	3004      	addcc	r0, #4
 80079ee:	f1b3 4f80 	cmp.w	r3, #1073741824	@ 0x40000000
 80079f2:	bf3c      	itt	cc
 80079f4:	009b      	lslcc	r3, r3, #2
 80079f6:	3002      	addcc	r0, #2
 80079f8:	2b00      	cmp	r3, #0
 80079fa:	db05      	blt.n	8007a08 <__hi0bits+0x3c>
 80079fc:	f013 4f80 	tst.w	r3, #1073741824	@ 0x40000000
 8007a00:	f100 0001 	add.w	r0, r0, #1
 8007a04:	bf08      	it	eq
 8007a06:	2020      	moveq	r0, #32
 8007a08:	4770      	bx	lr

08007a0a <__lo0bits>:
 8007a0a:	6803      	ldr	r3, [r0, #0]
 8007a0c:	4602      	mov	r2, r0
 8007a0e:	f013 0007 	ands.w	r0, r3, #7
 8007a12:	d00b      	beq.n	8007a2c <__lo0bits+0x22>
 8007a14:	07d9      	lsls	r1, r3, #31
 8007a16:	d421      	bmi.n	8007a5c <__lo0bits+0x52>
 8007a18:	0798      	lsls	r0, r3, #30
 8007a1a:	bf49      	itett	mi
 8007a1c:	085b      	lsrmi	r3, r3, #1
 8007a1e:	089b      	lsrpl	r3, r3, #2
 8007a20:	2001      	movmi	r0, #1
 8007a22:	6013      	strmi	r3, [r2, #0]
 8007a24:	bf5c      	itt	pl
 8007a26:	6013      	strpl	r3, [r2, #0]
 8007a28:	2002      	movpl	r0, #2
 8007a2a:	4770      	bx	lr
 8007a2c:	b299      	uxth	r1, r3
 8007a2e:	b909      	cbnz	r1, 8007a34 <__lo0bits+0x2a>
 8007a30:	0c1b      	lsrs	r3, r3, #16
 8007a32:	2010      	movs	r0, #16
 8007a34:	b2d9      	uxtb	r1, r3
 8007a36:	b909      	cbnz	r1, 8007a3c <__lo0bits+0x32>
 8007a38:	3008      	adds	r0, #8
 8007a3a:	0a1b      	lsrs	r3, r3, #8
 8007a3c:	0719      	lsls	r1, r3, #28
 8007a3e:	bf04      	itt	eq
 8007a40:	091b      	lsreq	r3, r3, #4
 8007a42:	3004      	addeq	r0, #4
 8007a44:	0799      	lsls	r1, r3, #30
 8007a46:	bf04      	itt	eq
 8007a48:	089b      	lsreq	r3, r3, #2
 8007a4a:	3002      	addeq	r0, #2
 8007a4c:	07d9      	lsls	r1, r3, #31
 8007a4e:	d403      	bmi.n	8007a58 <__lo0bits+0x4e>
 8007a50:	085b      	lsrs	r3, r3, #1
 8007a52:	f100 0001 	add.w	r0, r0, #1
 8007a56:	d003      	beq.n	8007a60 <__lo0bits+0x56>
 8007a58:	6013      	str	r3, [r2, #0]
 8007a5a:	4770      	bx	lr
 8007a5c:	2000      	movs	r0, #0
 8007a5e:	4770      	bx	lr
 8007a60:	2020      	movs	r0, #32
 8007a62:	4770      	bx	lr

08007a64 <__i2b>:
 8007a64:	b510      	push	{r4, lr}
 8007a66:	460c      	mov	r4, r1
 8007a68:	2101      	movs	r1, #1
 8007a6a:	f7ff ff07 	bl	800787c <_Balloc>
 8007a6e:	4602      	mov	r2, r0
 8007a70:	b928      	cbnz	r0, 8007a7e <__i2b+0x1a>
 8007a72:	4b05      	ldr	r3, [pc, #20]	@ (8007a88 <__i2b+0x24>)
 8007a74:	4805      	ldr	r0, [pc, #20]	@ (8007a8c <__i2b+0x28>)
 8007a76:	f240 1145 	movw	r1, #325	@ 0x145
 8007a7a:	f000 fb61 	bl	8008140 <__assert_func>
 8007a7e:	2301      	movs	r3, #1
 8007a80:	6144      	str	r4, [r0, #20]
 8007a82:	6103      	str	r3, [r0, #16]
 8007a84:	bd10      	pop	{r4, pc}
 8007a86:	bf00      	nop
 8007a88:	08008990 	.word	0x08008990
 8007a8c:	080089b2 	.word	0x080089b2

08007a90 <__multiply>:
 8007a90:	e92d 4ff0 	stmdb	sp!, {r4, r5, r6, r7, r8, r9, sl, fp, lr}
 8007a94:	4614      	mov	r4, r2
 8007a96:	690a      	ldr	r2, [r1, #16]
 8007a98:	6923      	ldr	r3, [r4, #16]
 8007a9a:	429a      	cmp	r2, r3
 8007a9c:	bfa8      	it	ge
 8007a9e:	4623      	movge	r3, r4
 8007aa0:	460f      	mov	r7, r1
 8007aa2:	bfa4      	itt	ge
 8007aa4:	460c      	movge	r4, r1
 8007aa6:	461f      	movge	r7, r3
 8007aa8:	f8d4 a010 	ldr.w	sl, [r4, #16]
 8007aac:	f8d7 9010 	ldr.w	r9, [r7, #16]
 8007ab0:	68a3      	ldr	r3, [r4, #8]
 8007ab2:	6861      	ldr	r1, [r4, #4]
 8007ab4:	eb0a 0609 	add.w	r6, sl, r9
 8007ab8:	42b3      	cmp	r3, r6
 8007aba:	b085      	sub	sp, #20
 8007abc:	bfb8      	it	lt
 8007abe:	3101      	addlt	r1, #1
 8007ac0:	f7ff fedc 	bl	800787c <_Balloc>
 8007ac4:	b930      	cbnz	r0, 8007ad4 <__multiply+0x44>
 8007ac6:	4602      	mov	r2, r0
 8007ac8:	4b44      	ldr	r3, [pc, #272]	@ (8007bdc <__multiply+0x14c>)
 8007aca:	4845      	ldr	r0, [pc, #276]	@ (8007be0 <__multiply+0x150>)
 8007acc:	f44f 71b1 	mov.w	r1, #354	@ 0x162
 8007ad0:	f000 fb36 	bl	8008140 <__assert_func>
 8007ad4:	f100 0514 	add.w	r5, r0, #20
 8007ad8:	eb05 0886 	add.w	r8, r5, r6, lsl #2
 8007adc:	462b      	mov	r3, r5
 8007ade:	2200      	movs	r2, #0
 8007ae0:	4543      	cmp	r3, r8
 8007ae2:	d321      	bcc.n	8007b28 <__multiply+0x98>
 8007ae4:	f107 0114 	add.w	r1, r7, #20
 8007ae8:	f104 0214 	add.w	r2, r4, #20
 8007aec:	eb02 028a 	add.w	r2, r2, sl, lsl #2
 8007af0:	eb01 0389 	add.w	r3, r1, r9, lsl #2
 8007af4:	9302      	str	r3, [sp, #8]
 8007af6:	1b13      	subs	r3, r2, r4
 8007af8:	3b15      	subs	r3, #21
 8007afa:	f023 0303 	bic.w	r3, r3, #3
 8007afe:	3304      	adds	r3, #4
 8007b00:	f104 0715 	add.w	r7, r4, #21
 8007b04:	42ba      	cmp	r2, r7
 8007b06:	bf38      	it	cc
 8007b08:	2304      	movcc	r3, #4
 8007b0a:	9301      	str	r3, [sp, #4]
 8007b0c:	9b02      	ldr	r3, [sp, #8]
 8007b0e:	9103      	str	r1, [sp, #12]
 8007b10:	428b      	cmp	r3, r1
 8007b12:	d80c      	bhi.n	8007b2e <__multiply+0x9e>
 8007b14:	2e00      	cmp	r6, #0
 8007b16:	dd03      	ble.n	8007b20 <__multiply+0x90>
 8007b18:	f858 3d04 	ldr.w	r3, [r8, #-4]!
 8007b1c:	2b00      	cmp	r3, #0
 8007b1e:	d05b      	beq.n	8007bd8 <__multiply+0x148>
 8007b20:	6106      	str	r6, [r0, #16]
 8007b22:	b005      	add	sp, #20
 8007b24:	e8bd 8ff0 	ldmia.w	sp!, {r4, r5, r6, r7, r8, r9, sl, fp, pc}
 8007b28:	f843 2b04 	str.w	r2, [r3], #4
 8007b2c:	e7d8      	b.n	8007ae0 <__multiply+0x50>
 8007b2e:	f8b1 a000 	ldrh.w	sl, [r1]
 8007b32:	f1ba 0f00 	cmp.w	sl, #0
 8007b36:	d024      	beq.n	8007b82 <__multiply+0xf2>
 8007b38:	f104 0e14 	add.w	lr, r4, #20
 8007b3c:	46a9      	mov	r9, r5
 8007b3e:	f04f 0c00 	mov.w	ip, #0
 8007b42:	f85e 7b04 	ldr.w	r7, [lr], #4
 8007b46:	f8d9 3000 	ldr.w	r3, [r9]
 8007b4a:	fa1f fb87 	uxth.w	fp, r7
 8007b4e:	b29b      	uxth	r3, r3
 8007b50:	fb0a 330b 	mla	r3, sl, fp, r3
 8007b54:	ea4f 4b17 	mov.w	fp, r7, lsr #16
 8007b58:	f8d9 7000 	ldr.w	r7, [r9]
 8007b5c:	4463      	add	r3, ip
 8007b5e:	ea4f 4c17 	mov.w	ip, r7, lsr #16
 8007b62:	fb0a c70b 	mla	r7, sl, fp, ip
 8007b66:	eb07 4713 	add.w	r7, r7, r3, lsr #16
 8007b6a:	b29b      	uxth	r3, r3
 8007b6c:	ea43 4307 	orr.w	r3, r3, r7, lsl #16
 8007b70:	4572      	cmp	r2, lr
 8007b72:	f849 3b04 	str.w	r3, [r9], #4
 8007b76:	ea4f 4c17 	mov.w	ip, r7, lsr #16
 8007b7a:	d8e2      	bhi.n	8007b42 <__multiply+0xb2>
 8007b7c:	9b01      	ldr	r3, [sp, #4]
 8007b7e:	f845 c003 	str.w	ip, [r5, r3]
 8007b82:	9b03      	ldr	r3, [sp, #12]
 8007b84:	f8b3 9002 	ldrh.w	r9, [r3, #2]
 8007b88:	3104      	adds	r1, #4
 8007b8a:	f1b9 0f00 	cmp.w	r9, #0
 8007b8e:	d021      	beq.n	8007bd4 <__multiply+0x144>
 8007b90:	682b      	ldr	r3, [r5, #0]
 8007b92:	f104 0c14 	add.w	ip, r4, #20
 8007b96:	46ae      	mov	lr, r5
 8007b98:	f04f 0a00 	mov.w	sl, #0
 8007b9c:	f8bc b000 	ldrh.w	fp, [ip]
 8007ba0:	f8be 7002 	ldrh.w	r7, [lr, #2]
 8007ba4:	fb09 770b 	mla	r7, r9, fp, r7
 8007ba8:	4457      	add	r7, sl
 8007baa:	b29b      	uxth	r3, r3
 8007bac:	ea43 4307 	orr.w	r3, r3, r7, lsl #16
 8007bb0:	f84e 3b04 	str.w	r3, [lr], #4
 8007bb4:	f85c 3b04 	ldr.w	r3, [ip], #4
 8007bb8:	ea4f 4a13 	mov.w	sl, r3, lsr #16
 8007bbc:	f8be 3000 	ldrh.w	r3, [lr]
 8007bc0:	fb09 330a 	mla	r3, r9, sl, r3
 8007bc4:	eb03 4317 	add.w	r3, r3, r7, lsr #16
 8007bc8:	4562      	cmp	r2, ip
 8007bca:	ea4f 4a13 	mov.w	sl, r3, lsr #16
 8007bce:	d8e5      	bhi.n	8007b9c <__multiply+0x10c>
 8007bd0:	9f01      	ldr	r7, [sp, #4]
 8007bd2:	51eb      	str	r3, [r5, r7]
 8007bd4:	3504      	adds	r5, #4
 8007bd6:	e799      	b.n	8007b0c <__multiply+0x7c>
 8007bd8:	3e01      	subs	r6, #1
 8007bda:	e79b      	b.n	8007b14 <__multiply+0x84>
 8007bdc:	08008990 	.word	0x08008990
 8007be0:	080089b2 	.word	0x080089b2

08007be4 <__pow5mult>:
 8007be4:	e92d 43f8 	stmdb	sp!, {r3, r4, r5, r6, r7, r8, r9, lr}
 8007be8:	4615      	mov	r5, r2
 8007bea:	f012 0203 	ands.w	r2, r2, #3
 8007bee:	4607      	mov	r7, r0
 8007bf0:	460e      	mov	r6, r1
 8007bf2:	d007      	beq.n	8007c04 <__pow5mult+0x20>
 8007bf4:	4c25      	ldr	r4, [pc, #148]	@ (8007c8c <__pow5mult+0xa8>)
 8007bf6:	3a01      	subs	r2, #1
 8007bf8:	2300      	movs	r3, #0
 8007bfa:	f854 2022 	ldr.w	r2, [r4, r2, lsl #2]
 8007bfe:	f7ff fe9f 	bl	8007940 <__multadd>
 8007c02:	4606      	mov	r6, r0
 8007c04:	10ad      	asrs	r5, r5, #2
 8007c06:	d03d      	beq.n	8007c84 <__pow5mult+0xa0>
 8007c08:	69fc      	ldr	r4, [r7, #28]
 8007c0a:	b97c      	cbnz	r4, 8007c2c <__pow5mult+0x48>
 8007c0c:	2010      	movs	r0, #16
 8007c0e:	f7fe fa2b 	bl	8006068 <malloc>
 8007c12:	4602      	mov	r2, r0
 8007c14:	61f8      	str	r0, [r7, #28]
 8007c16:	b928      	cbnz	r0, 8007c24 <__pow5mult+0x40>
 8007c18:	4b1d      	ldr	r3, [pc, #116]	@ (8007c90 <__pow5mult+0xac>)
 8007c1a:	481e      	ldr	r0, [pc, #120]	@ (8007c94 <__pow5mult+0xb0>)
 8007c1c:	f240 11b3 	movw	r1, #435	@ 0x1b3
 8007c20:	f000 fa8e 	bl	8008140 <__assert_func>
 8007c24:	e9c0 4401 	strd	r4, r4, [r0, #4]
 8007c28:	6004      	str	r4, [r0, #0]
 8007c2a:	60c4      	str	r4, [r0, #12]
 8007c2c:	f8d7 801c 	ldr.w	r8, [r7, #28]
 8007c30:	f8d8 4008 	ldr.w	r4, [r8, #8]
 8007c34:	b94c      	cbnz	r4, 8007c4a <__pow5mult+0x66>
 8007c36:	f240 2171 	movw	r1, #625	@ 0x271
 8007c3a:	4638      	mov	r0, r7
 8007c3c:	f7ff ff12 	bl	8007a64 <__i2b>
 8007c40:	2300      	movs	r3, #0
 8007c42:	f8c8 0008 	str.w	r0, [r8, #8]
 8007c46:	4604      	mov	r4, r0
 8007c48:	6003      	str	r3, [r0, #0]
 8007c4a:	f04f 0900 	mov.w	r9, #0
 8007c4e:	07eb      	lsls	r3, r5, #31
 8007c50:	d50a      	bpl.n	8007c68 <__pow5mult+0x84>
 8007c52:	4631      	mov	r1, r6
 8007c54:	4622      	mov	r2, r4
 8007c56:	4638      	mov	r0, r7
 8007c58:	f7ff ff1a 	bl	8007a90 <__multiply>
 8007c5c:	4631      	mov	r1, r6
 8007c5e:	4680      	mov	r8, r0
 8007c60:	4638      	mov	r0, r7
 8007c62:	f7ff fe4b 	bl	80078fc <_Bfree>
 8007c66:	4646      	mov	r6, r8
 8007c68:	106d      	asrs	r5, r5, #1
 8007c6a:	d00b      	beq.n	8007c84 <__pow5mult+0xa0>
 8007c6c:	6820      	ldr	r0, [r4, #0]
 8007c6e:	b938      	cbnz	r0, 8007c80 <__pow5mult+0x9c>
 8007c70:	4622      	mov	r2, r4
 8007c72:	4621      	mov	r1, r4
 8007c74:	4638      	mov	r0, r7
 8007c76:	f7ff ff0b 	bl	8007a90 <__multiply>
 8007c7a:	6020      	str	r0, [r4, #0]
 8007c7c:	f8c0 9000 	str.w	r9, [r0]
 8007c80:	4604      	mov	r4, r0
 8007c82:	e7e4      	b.n	8007c4e <__pow5mult+0x6a>
 8007c84:	4630      	mov	r0, r6
 8007c86:	e8bd 83f8 	ldmia.w	sp!, {r3, r4, r5, r6, r7, r8, r9, pc}
 8007c8a:	bf00      	nop
 8007c8c:	08008a0c 	.word	0x08008a0c
 8007c90:	08008921 	.word	0x08008921
 8007c94:	080089b2 	.word	0x080089b2

08007c98 <__lshift>:
 8007c98:	e92d 47f0 	stmdb	sp!, {r4, r5, r6, r7, r8, r9, sl, lr}
 8007c9c:	460c      	mov	r4, r1
 8007c9e:	6849      	ldr	r1, [r1, #4]
 8007ca0:	6923      	ldr	r3, [r4, #16]
 8007ca2:	eb03 1862 	add.w	r8, r3, r2, asr #5
 8007ca6:	68a3      	ldr	r3, [r4, #8]
 8007ca8:	4607      	mov	r7, r0
 8007caa:	4691      	mov	r9, r2
 8007cac:	ea4f 1a62 	mov.w	sl, r2, asr #5
 8007cb0:	f108 0601 	add.w	r6, r8, #1
 8007cb4:	42b3      	cmp	r3, r6
 8007cb6:	db0b      	blt.n	8007cd0 <__lshift+0x38>
 8007cb8:	4638      	mov	r0, r7
 8007cba:	f7ff fddf 	bl	800787c <_Balloc>
 8007cbe:	4605      	mov	r5, r0
 8007cc0:	b948      	cbnz	r0, 8007cd6 <__lshift+0x3e>
 8007cc2:	4602      	mov	r2, r0
 8007cc4:	4b28      	ldr	r3, [pc, #160]	@ (8007d68 <__lshift+0xd0>)
 8007cc6:	4829      	ldr	r0, [pc, #164]	@ (8007d6c <__lshift+0xd4>)
 8007cc8:	f44f 71ef 	mov.w	r1, #478	@ 0x1de
 8007ccc:	f000 fa38 	bl	8008140 <__assert_func>
 8007cd0:	3101      	adds	r1, #1
 8007cd2:	005b      	lsls	r3, r3, #1
 8007cd4:	e7ee      	b.n	8007cb4 <__lshift+0x1c>
 8007cd6:	2300      	movs	r3, #0
 8007cd8:	f100 0114 	add.w	r1, r0, #20
 8007cdc:	f100 0210 	add.w	r2, r0, #16
 8007ce0:	4618      	mov	r0, r3
 8007ce2:	4553      	cmp	r3, sl
 8007ce4:	db33      	blt.n	8007d4e <__lshift+0xb6>
 8007ce6:	6920      	ldr	r0, [r4, #16]
 8007ce8:	ea2a 7aea 	bic.w	sl, sl, sl, asr #31
 8007cec:	f104 0314 	add.w	r3, r4, #20
 8007cf0:	f019 091f 	ands.w	r9, r9, #31
 8007cf4:	eb01 018a 	add.w	r1, r1, sl, lsl #2
 8007cf8:	eb03 0c80 	add.w	ip, r3, r0, lsl #2
 8007cfc:	d02b      	beq.n	8007d56 <__lshift+0xbe>
 8007cfe:	f1c9 0e20 	rsb	lr, r9, #32
 8007d02:	468a      	mov	sl, r1
 8007d04:	2200      	movs	r2, #0
 8007d06:	6818      	ldr	r0, [r3, #0]
 8007d08:	fa00 f009 	lsl.w	r0, r0, r9
 8007d0c:	4310      	orrs	r0, r2
 8007d0e:	f84a 0b04 	str.w	r0, [sl], #4
 8007d12:	f853 2b04 	ldr.w	r2, [r3], #4
 8007d16:	459c      	cmp	ip, r3
 8007d18:	fa22 f20e 	lsr.w	r2, r2, lr
 8007d1c:	d8f3      	bhi.n	8007d06 <__lshift+0x6e>
 8007d1e:	ebac 0304 	sub.w	r3, ip, r4
 8007d22:	3b15      	subs	r3, #21
 8007d24:	f023 0303 	bic.w	r3, r3, #3
 8007d28:	3304      	adds	r3, #4
 8007d2a:	f104 0015 	add.w	r0, r4, #21
 8007d2e:	4584      	cmp	ip, r0
 8007d30:	bf38      	it	cc
 8007d32:	2304      	movcc	r3, #4
 8007d34:	50ca      	str	r2, [r1, r3]
 8007d36:	b10a      	cbz	r2, 8007d3c <__lshift+0xa4>
 8007d38:	f108 0602 	add.w	r6, r8, #2
 8007d3c:	3e01      	subs	r6, #1
 8007d3e:	4638      	mov	r0, r7
 8007d40:	612e      	str	r6, [r5, #16]
 8007d42:	4621      	mov	r1, r4
 8007d44:	f7ff fdda 	bl	80078fc <_Bfree>
 8007d48:	4628      	mov	r0, r5
 8007d4a:	e8bd 87f0 	ldmia.w	sp!, {r4, r5, r6, r7, r8, r9, sl, pc}
 8007d4e:	f842 0f04 	str.w	r0, [r2, #4]!
 8007d52:	3301      	adds	r3, #1
 8007d54:	e7c5      	b.n	8007ce2 <__lshift+0x4a>
 8007d56:	3904      	subs	r1, #4
 8007d58:	f853 2b04 	ldr.w	r2, [r3], #4
 8007d5c:	f841 2f04 	str.w	r2, [r1, #4]!
 8007d60:	459c      	cmp	ip, r3
 8007d62:	d8f9      	bhi.n	8007d58 <__lshift+0xc0>
 8007d64:	e7ea      	b.n	8007d3c <__lshift+0xa4>
 8007d66:	bf00      	nop
 8007d68:	08008990 	.word	0x08008990
 8007d6c:	080089b2 	.word	0x080089b2

08007d70 <__mcmp>:
 8007d70:	690a      	ldr	r2, [r1, #16]
 8007d72:	4603      	mov	r3, r0
 8007d74:	6900      	ldr	r0, [r0, #16]
 8007d76:	1a80      	subs	r0, r0, r2
 8007d78:	b530      	push	{r4, r5, lr}
 8007d7a:	d10e      	bne.n	8007d9a <__mcmp+0x2a>
 8007d7c:	3314      	adds	r3, #20
 8007d7e:	3114      	adds	r1, #20
 8007d80:	eb03 0482 	add.w	r4, r3, r2, lsl #2
 8007d84:	eb01 0182 	add.w	r1, r1, r2, lsl #2
 8007d88:	f854 5d04 	ldr.w	r5, [r4, #-4]!
 8007d8c:	f851 2d04 	ldr.w	r2, [r1, #-4]!
 8007d90:	4295      	cmp	r5, r2
 8007d92:	d003      	beq.n	8007d9c <__mcmp+0x2c>
 8007d94:	d205      	bcs.n	8007da2 <__mcmp+0x32>
 8007d96:	f04f 30ff 	mov.w	r0, #4294967295	@ 0xffffffff
 8007d9a:	bd30      	pop	{r4, r5, pc}
 8007d9c:	42a3      	cmp	r3, r4
 8007d9e:	d3f3      	bcc.n	8007d88 <__mcmp+0x18>
 8007da0:	e7fb      	b.n	8007d9a <__mcmp+0x2a>
 8007da2:	2001      	movs	r0, #1
 8007da4:	e7f9      	b.n	8007d9a <__mcmp+0x2a>
	...

08007da8 <__mdiff>:
 8007da8:	e92d 4ff7 	stmdb	sp!, {r0, r1, r2, r4, r5, r6, r7, r8, r9, sl, fp, lr}
 8007dac:	4689      	mov	r9, r1
 8007dae:	4606      	mov	r6, r0
 8007db0:	4611      	mov	r1, r2
 8007db2:	4648      	mov	r0, r9
 8007db4:	4614      	mov	r4, r2
 8007db6:	f7ff ffdb 	bl	8007d70 <__mcmp>
 8007dba:	1e05      	subs	r5, r0, #0
 8007dbc:	d112      	bne.n	8007de4 <__mdiff+0x3c>
 8007dbe:	4629      	mov	r1, r5
 8007dc0:	4630      	mov	r0, r6
 8007dc2:	f7ff fd5b 	bl	800787c <_Balloc>
 8007dc6:	4602      	mov	r2, r0
 8007dc8:	b928      	cbnz	r0, 8007dd6 <__mdiff+0x2e>
 8007dca:	4b3f      	ldr	r3, [pc, #252]	@ (8007ec8 <__mdiff+0x120>)
 8007dcc:	f240 2137 	movw	r1, #567	@ 0x237
 8007dd0:	483e      	ldr	r0, [pc, #248]	@ (8007ecc <__mdiff+0x124>)
 8007dd2:	f000 f9b5 	bl	8008140 <__assert_func>
 8007dd6:	2301      	movs	r3, #1
 8007dd8:	e9c0 3504 	strd	r3, r5, [r0, #16]
 8007ddc:	4610      	mov	r0, r2
 8007dde:	b003      	add	sp, #12
 8007de0:	e8bd 8ff0 	ldmia.w	sp!, {r4, r5, r6, r7, r8, r9, sl, fp, pc}
 8007de4:	bfbc      	itt	lt
 8007de6:	464b      	movlt	r3, r9
 8007de8:	46a1      	movlt	r9, r4
 8007dea:	4630      	mov	r0, r6
 8007dec:	f8d9 1004 	ldr.w	r1, [r9, #4]
 8007df0:	bfba      	itte	lt
 8007df2:	461c      	movlt	r4, r3
 8007df4:	2501      	movlt	r5, #1
 8007df6:	2500      	movge	r5, #0
 8007df8:	f7ff fd40 	bl	800787c <_Balloc>
 8007dfc:	4602      	mov	r2, r0
 8007dfe:	b918      	cbnz	r0, 8007e08 <__mdiff+0x60>
 8007e00:	4b31      	ldr	r3, [pc, #196]	@ (8007ec8 <__mdiff+0x120>)
 8007e02:	f240 2145 	movw	r1, #581	@ 0x245
 8007e06:	e7e3      	b.n	8007dd0 <__mdiff+0x28>
 8007e08:	f8d9 7010 	ldr.w	r7, [r9, #16]
 8007e0c:	6926      	ldr	r6, [r4, #16]
 8007e0e:	60c5      	str	r5, [r0, #12]
 8007e10:	f109 0310 	add.w	r3, r9, #16
 8007e14:	f109 0514 	add.w	r5, r9, #20
 8007e18:	f104 0e14 	add.w	lr, r4, #20
 8007e1c:	f100 0b14 	add.w	fp, r0, #20
 8007e20:	eb05 0887 	add.w	r8, r5, r7, lsl #2
 8007e24:	eb0e 0686 	add.w	r6, lr, r6, lsl #2
 8007e28:	9301      	str	r3, [sp, #4]
 8007e2a:	46d9      	mov	r9, fp
 8007e2c:	f04f 0c00 	mov.w	ip, #0
 8007e30:	9b01      	ldr	r3, [sp, #4]
 8007e32:	f85e 0b04 	ldr.w	r0, [lr], #4
 8007e36:	f853 af04 	ldr.w	sl, [r3, #4]!
 8007e3a:	9301      	str	r3, [sp, #4]
 8007e3c:	fa1f f38a 	uxth.w	r3, sl
 8007e40:	4619      	mov	r1, r3
 8007e42:	b283      	uxth	r3, r0
 8007e44:	1acb      	subs	r3, r1, r3
 8007e46:	0c00      	lsrs	r0, r0, #16
 8007e48:	4463      	add	r3, ip
 8007e4a:	ebc0 401a 	rsb	r0, r0, sl, lsr #16
 8007e4e:	eb00 4023 	add.w	r0, r0, r3, asr #16
 8007e52:	b29b      	uxth	r3, r3
 8007e54:	ea43 4300 	orr.w	r3, r3, r0, lsl #16
 8007e58:	4576      	cmp	r6, lr
 8007e5a:	f849 3b04 	str.w	r3, [r9], #4
 8007e5e:	ea4f 4c20 	mov.w	ip, r0, asr #16
 8007e62:	d8e5      	bhi.n	8007e30 <__mdiff+0x88>
 8007e64:	1b33      	subs	r3, r6, r4
 8007e66:	3b15      	subs	r3, #21
 8007e68:	f023 0303 	bic.w	r3, r3, #3
 8007e6c:	3415      	adds	r4, #21
 8007e6e:	3304      	adds	r3, #4
 8007e70:	42a6      	cmp	r6, r4
 8007e72:	bf38      	it	cc
 8007e74:	2304      	movcc	r3, #4
 8007e76:	441d      	add	r5, r3
 8007e78:	445b      	add	r3, fp
 8007e7a:	461e      	mov	r6, r3
 8007e7c:	462c      	mov	r4, r5
 8007e7e:	4544      	cmp	r4, r8
 8007e80:	d30e      	bcc.n	8007ea0 <__mdiff+0xf8>
 8007e82:	f108 0103 	add.w	r1, r8, #3
 8007e86:	1b49      	subs	r1, r1, r5
 8007e88:	f021 0103 	bic.w	r1, r1, #3
 8007e8c:	3d03      	subs	r5, #3
 8007e8e:	45a8      	cmp	r8, r5
 8007e90:	bf38      	it	cc
 8007e92:	2100      	movcc	r1, #0
 8007e94:	440b      	add	r3, r1
 8007e96:	f853 1d04 	ldr.w	r1, [r3, #-4]!
 8007e9a:	b191      	cbz	r1, 8007ec2 <__mdiff+0x11a>
 8007e9c:	6117      	str	r7, [r2, #16]
 8007e9e:	e79d      	b.n	8007ddc <__mdiff+0x34>
 8007ea0:	f854 1b04 	ldr.w	r1, [r4], #4
 8007ea4:	46e6      	mov	lr, ip
 8007ea6:	0c08      	lsrs	r0, r1, #16
 8007ea8:	fa1c fc81 	uxtah	ip, ip, r1
 8007eac:	4471      	add	r1, lr
 8007eae:	eb00 402c 	add.w	r0, r0, ip, asr #16
 8007eb2:	b289      	uxth	r1, r1
 8007eb4:	ea41 4100 	orr.w	r1, r1, r0, lsl #16
 8007eb8:	f846 1b04 	str.w	r1, [r6], #4
 8007ebc:	ea4f 4c20 	mov.w	ip, r0, asr #16
 8007ec0:	e7dd      	b.n	8007e7e <__mdiff+0xd6>
 8007ec2:	3f01      	subs	r7, #1
 8007ec4:	e7e7      	b.n	8007e96 <__mdiff+0xee>
 8007ec6:	bf00      	nop
 8007ec8:	08008990 	.word	0x08008990
 8007ecc:	080089b2 	.word	0x080089b2

08007ed0 <__d2b>:
 8007ed0:	e92d 43f7 	stmdb	sp!, {r0, r1, r2, r4, r5, r6, r7, r8, r9, lr}
 8007ed4:	460f      	mov	r7, r1
 8007ed6:	2101      	movs	r1, #1
 8007ed8:	ec59 8b10 	vmov	r8, r9, d0
 8007edc:	4616      	mov	r6, r2
 8007ede:	f7ff fccd 	bl	800787c <_Balloc>
 8007ee2:	4604      	mov	r4, r0
 8007ee4:	b930      	cbnz	r0, 8007ef4 <__d2b+0x24>
 8007ee6:	4602      	mov	r2, r0
 8007ee8:	4b23      	ldr	r3, [pc, #140]	@ (8007f78 <__d2b+0xa8>)
 8007eea:	4824      	ldr	r0, [pc, #144]	@ (8007f7c <__d2b+0xac>)
 8007eec:	f240 310f 	movw	r1, #783	@ 0x30f
 8007ef0:	f000 f926 	bl	8008140 <__assert_func>
 8007ef4:	f3c9 550a 	ubfx	r5, r9, #20, #11
 8007ef8:	f3c9 0313 	ubfx	r3, r9, #0, #20
 8007efc:	b10d      	cbz	r5, 8007f02 <__d2b+0x32>
 8007efe:	f443 1380 	orr.w	r3, r3, #1048576	@ 0x100000
 8007f02:	9301      	str	r3, [sp, #4]
 8007f04:	f1b8 0300 	subs.w	r3, r8, #0
 8007f08:	d023      	beq.n	8007f52 <__d2b+0x82>
 8007f0a:	4668      	mov	r0, sp
 8007f0c:	9300      	str	r3, [sp, #0]
 8007f0e:	f7ff fd7c 	bl	8007a0a <__lo0bits>
 8007f12:	e9dd 1200 	ldrd	r1, r2, [sp]
 8007f16:	b1d0      	cbz	r0, 8007f4e <__d2b+0x7e>
 8007f18:	f1c0 0320 	rsb	r3, r0, #32
 8007f1c:	fa02 f303 	lsl.w	r3, r2, r3
 8007f20:	430b      	orrs	r3, r1
 8007f22:	40c2      	lsrs	r2, r0
 8007f24:	6163      	str	r3, [r4, #20]
 8007f26:	9201      	str	r2, [sp, #4]
 8007f28:	9b01      	ldr	r3, [sp, #4]
 8007f2a:	61a3      	str	r3, [r4, #24]
 8007f2c:	2b00      	cmp	r3, #0
 8007f2e:	bf0c      	ite	eq
 8007f30:	2201      	moveq	r2, #1
 8007f32:	2202      	movne	r2, #2
 8007f34:	6122      	str	r2, [r4, #16]
 8007f36:	b1a5      	cbz	r5, 8007f62 <__d2b+0x92>
 8007f38:	f2a5 4533 	subw	r5, r5, #1075	@ 0x433
 8007f3c:	4405      	add	r5, r0
 8007f3e:	603d      	str	r5, [r7, #0]
 8007f40:	f1c0 0035 	rsb	r0, r0, #53	@ 0x35
 8007f44:	6030      	str	r0, [r6, #0]
 8007f46:	4620      	mov	r0, r4
 8007f48:	b003      	add	sp, #12
 8007f4a:	e8bd 83f0 	ldmia.w	sp!, {r4, r5, r6, r7, r8, r9, pc}
 8007f4e:	6161      	str	r1, [r4, #20]
 8007f50:	e7ea      	b.n	8007f28 <__d2b+0x58>
 8007f52:	a801      	add	r0, sp, #4
 8007f54:	f7ff fd59 	bl	8007a0a <__lo0bits>
 8007f58:	9b01      	ldr	r3, [sp, #4]
 8007f5a:	6163      	str	r3, [r4, #20]
 8007f5c:	3020      	adds	r0, #32
 8007f5e:	2201      	movs	r2, #1
 8007f60:	e7e8      	b.n	8007f34 <__d2b+0x64>
 8007f62:	eb04 0382 	add.w	r3, r4, r2, lsl #2
 8007f66:	f2a0 4032 	subw	r0, r0, #1074	@ 0x432
 8007f6a:	6038      	str	r0, [r7, #0]
 8007f6c:	6918      	ldr	r0, [r3, #16]
 8007f6e:	f7ff fd2d 	bl	80079cc <__hi0bits>
 8007f72:	ebc0 1042 	rsb	r0, r0, r2, lsl #5
 8007f76:	e7e5      	b.n	8007f44 <__d2b+0x74>
 8007f78:	08008990 	.word	0x08008990
 8007f7c:	080089b2 	.word	0x080089b2

08007f80 <__sread>:
 8007f80:	b510      	push	{r4, lr}
 8007f82:	460c      	mov	r4, r1
 8007f84:	f9b1 100e 	ldrsh.w	r1, [r1, #14]
 8007f88:	f000 f8a8 	bl	80080dc <_read_r>
 8007f8c:	2800      	cmp	r0, #0
 8007f8e:	bfab      	itete	ge
 8007f90:	6d63      	ldrge	r3, [r4, #84]	@ 0x54
 8007f92:	89a3      	ldrhlt	r3, [r4, #12]
 8007f94:	181b      	addge	r3, r3, r0
 8007f96:	f423 5380 	biclt.w	r3, r3, #4096	@ 0x1000
 8007f9a:	bfac      	ite	ge
 8007f9c:	6563      	strge	r3, [r4, #84]	@ 0x54
 8007f9e:	81a3      	strhlt	r3, [r4, #12]
 8007fa0:	bd10      	pop	{r4, pc}

08007fa2 <__swrite>:
 8007fa2:	e92d 41f0 	stmdb	sp!, {r4, r5, r6, r7, r8, lr}
 8007fa6:	461f      	mov	r7, r3
 8007fa8:	898b      	ldrh	r3, [r1, #12]
 8007faa:	05db      	lsls	r3, r3, #23
 8007fac:	4605      	mov	r5, r0
 8007fae:	460c      	mov	r4, r1
 8007fb0:	4616      	mov	r6, r2
 8007fb2:	d505      	bpl.n	8007fc0 <__swrite+0x1e>
 8007fb4:	f9b1 100e 	ldrsh.w	r1, [r1, #14]
 8007fb8:	2302      	movs	r3, #2
 8007fba:	2200      	movs	r2, #0
 8007fbc:	f000 f87c 	bl	80080b8 <_lseek_r>
 8007fc0:	89a3      	ldrh	r3, [r4, #12]
 8007fc2:	f9b4 100e 	ldrsh.w	r1, [r4, #14]
 8007fc6:	f423 5380 	bic.w	r3, r3, #4096	@ 0x1000
 8007fca:	81a3      	strh	r3, [r4, #12]
 8007fcc:	4632      	mov	r2, r6
 8007fce:	463b      	mov	r3, r7
 8007fd0:	4628      	mov	r0, r5
 8007fd2:	e8bd 41f0 	ldmia.w	sp!, {r4, r5, r6, r7, r8, lr}
 8007fd6:	f000 b893 	b.w	8008100 <_write_r>

08007fda <__sseek>:
 8007fda:	b510      	push	{r4, lr}
 8007fdc:	460c      	mov	r4, r1
 8007fde:	f9b1 100e 	ldrsh.w	r1, [r1, #14]
 8007fe2:	f000 f869 	bl	80080b8 <_lseek_r>
 8007fe6:	1c43      	adds	r3, r0, #1
 8007fe8:	89a3      	ldrh	r3, [r4, #12]
 8007fea:	bf15      	itete	ne
 8007fec:	6560      	strne	r0, [r4, #84]	@ 0x54
 8007fee:	f423 5380 	biceq.w	r3, r3, #4096	@ 0x1000
 8007ff2:	f443 5380 	orrne.w	r3, r3, #4096	@ 0x1000
 8007ff6:	81a3      	strheq	r3, [r4, #12]
 8007ff8:	bf18      	it	ne
 8007ffa:	81a3      	strhne	r3, [r4, #12]
 8007ffc:	bd10      	pop	{r4, pc}

08007ffe <__sclose>:
 8007ffe:	f9b1 100e 	ldrsh.w	r1, [r1, #14]
 8008002:	f000 b849 	b.w	8008098 <_close_r>

08008006 <_realloc_r>:
 8008006:	e92d 41f0 	stmdb	sp!, {r4, r5, r6, r7, r8, lr}
 800800a:	4680      	mov	r8, r0
 800800c:	4615      	mov	r5, r2
 800800e:	460c      	mov	r4, r1
 8008010:	b921      	cbnz	r1, 800801c <_realloc_r+0x16>
 8008012:	e8bd 41f0 	ldmia.w	sp!, {r4, r5, r6, r7, r8, lr}
 8008016:	4611      	mov	r1, r2
 8008018:	f7fe b850 	b.w	80060bc <_malloc_r>
 800801c:	b92a      	cbnz	r2, 800802a <_realloc_r+0x24>
 800801e:	f7ff f9df 	bl	80073e0 <_free_r>
 8008022:	2400      	movs	r4, #0
 8008024:	4620      	mov	r0, r4
 8008026:	e8bd 81f0 	ldmia.w	sp!, {r4, r5, r6, r7, r8, pc}
 800802a:	f000 f8b9 	bl	80081a0 <_malloc_usable_size_r>
 800802e:	4285      	cmp	r5, r0
 8008030:	4606      	mov	r6, r0
 8008032:	d802      	bhi.n	800803a <_realloc_r+0x34>
 8008034:	ebb5 0f50 	cmp.w	r5, r0, lsr #1
 8008038:	d8f4      	bhi.n	8008024 <_realloc_r+0x1e>
 800803a:	4629      	mov	r1, r5
 800803c:	4640      	mov	r0, r8
 800803e:	f7fe f83d 	bl	80060bc <_malloc_r>
 8008042:	4607      	mov	r7, r0
 8008044:	2800      	cmp	r0, #0
 8008046:	d0ec      	beq.n	8008022 <_realloc_r+0x1c>
 8008048:	42b5      	cmp	r5, r6
 800804a:	462a      	mov	r2, r5
 800804c:	4621      	mov	r1, r4
 800804e:	bf28      	it	cs
 8008050:	4632      	movcs	r2, r6
 8008052:	f000 f867 	bl	8008124 <memcpy>
 8008056:	4621      	mov	r1, r4
 8008058:	4640      	mov	r0, r8
 800805a:	f7ff f9c1 	bl	80073e0 <_free_r>
 800805e:	463c      	mov	r4, r7
 8008060:	e7e0      	b.n	8008024 <_realloc_r+0x1e>

08008062 <memmove>:
 8008062:	4288      	cmp	r0, r1
 8008064:	b510      	push	{r4, lr}
 8008066:	eb01 0402 	add.w	r4, r1, r2
 800806a:	d902      	bls.n	8008072 <memmove+0x10>
 800806c:	4284      	cmp	r4, r0
 800806e:	4623      	mov	r3, r4
 8008070:	d807      	bhi.n	8008082 <memmove+0x20>
 8008072:	1e43      	subs	r3, r0, #1
 8008074:	42a1      	cmp	r1, r4
 8008076:	d008      	beq.n	800808a <memmove+0x28>
 8008078:	f811 2b01 	ldrb.w	r2, [r1], #1
 800807c:	f803 2f01 	strb.w	r2, [r3, #1]!
 8008080:	e7f8      	b.n	8008074 <memmove+0x12>
 8008082:	4402      	add	r2, r0
 8008084:	4601      	mov	r1, r0
 8008086:	428a      	cmp	r2, r1
 8008088:	d100      	bne.n	800808c <memmove+0x2a>
 800808a:	bd10      	pop	{r4, pc}
 800808c:	f813 4d01 	ldrb.w	r4, [r3, #-1]!
 8008090:	f802 4d01 	strb.w	r4, [r2, #-1]!
 8008094:	e7f7      	b.n	8008086 <memmove+0x24>
	...

08008098 <_close_r>:
 8008098:	b538      	push	{r3, r4, r5, lr}
 800809a:	4d06      	ldr	r5, [pc, #24]	@ (80080b4 <_close_r+0x1c>)
 800809c:	2300      	movs	r3, #0
 800809e:	4604      	mov	r4, r0
 80080a0:	4608      	mov	r0, r1
 80080a2:	602b      	str	r3, [r5, #0]
 80080a4:	f7fa fa3c 	bl	8002520 <_close>
 80080a8:	1c43      	adds	r3, r0, #1
 80080aa:	d102      	bne.n	80080b2 <_close_r+0x1a>
 80080ac:	682b      	ldr	r3, [r5, #0]
 80080ae:	b103      	cbz	r3, 80080b2 <_close_r+0x1a>
 80080b0:	6023      	str	r3, [r4, #0]
 80080b2:	bd38      	pop	{r3, r4, r5, pc}
 80080b4:	200004b8 	.word	0x200004b8

080080b8 <_lseek_r>:
 80080b8:	b538      	push	{r3, r4, r5, lr}
 80080ba:	4d07      	ldr	r5, [pc, #28]	@ (80080d8 <_lseek_r+0x20>)
 80080bc:	4604      	mov	r4, r0
 80080be:	4608      	mov	r0, r1
 80080c0:	4611      	mov	r1, r2
 80080c2:	2200      	movs	r2, #0
 80080c4:	602a      	str	r2, [r5, #0]
 80080c6:	461a      	mov	r2, r3
 80080c8:	f7fa fa51 	bl	800256e <_lseek>
 80080cc:	1c43      	adds	r3, r0, #1
 80080ce:	d102      	bne.n	80080d6 <_lseek_r+0x1e>
 80080d0:	682b      	ldr	r3, [r5, #0]
 80080d2:	b103      	cbz	r3, 80080d6 <_lseek_r+0x1e>
 80080d4:	6023      	str	r3, [r4, #0]
 80080d6:	bd38      	pop	{r3, r4, r5, pc}
 80080d8:	200004b8 	.word	0x200004b8

080080dc <_read_r>:
 80080dc:	b538      	push	{r3, r4, r5, lr}
 80080de:	4d07      	ldr	r5, [pc, #28]	@ (80080fc <_read_r+0x20>)
 80080e0:	4604      	mov	r4, r0
 80080e2:	4608      	mov	r0, r1
 80080e4:	4611      	mov	r1, r2
 80080e6:	2200      	movs	r2, #0
 80080e8:	602a      	str	r2, [r5, #0]
 80080ea:	461a      	mov	r2, r3
 80080ec:	f7fa f9df 	bl	80024ae <_read>
 80080f0:	1c43      	adds	r3, r0, #1
 80080f2:	d102      	bne.n	80080fa <_read_r+0x1e>
 80080f4:	682b      	ldr	r3, [r5, #0]
 80080f6:	b103      	cbz	r3, 80080fa <_read_r+0x1e>
 80080f8:	6023      	str	r3, [r4, #0]
 80080fa:	bd38      	pop	{r3, r4, r5, pc}
 80080fc:	200004b8 	.word	0x200004b8

08008100 <_write_r>:
 8008100:	b538      	push	{r3, r4, r5, lr}
 8008102:	4d07      	ldr	r5, [pc, #28]	@ (8008120 <_write_r+0x20>)
 8008104:	4604      	mov	r4, r0
 8008106:	4608      	mov	r0, r1
 8008108:	4611      	mov	r1, r2
 800810a:	2200      	movs	r2, #0
 800810c:	602a      	str	r2, [r5, #0]
 800810e:	461a      	mov	r2, r3
 8008110:	f7fa f9ea 	bl	80024e8 <_write>
 8008114:	1c43      	adds	r3, r0, #1
 8008116:	d102      	bne.n	800811e <_write_r+0x1e>
 8008118:	682b      	ldr	r3, [r5, #0]
 800811a:	b103      	cbz	r3, 800811e <_write_r+0x1e>
 800811c:	6023      	str	r3, [r4, #0]
 800811e:	bd38      	pop	{r3, r4, r5, pc}
 8008120:	200004b8 	.word	0x200004b8

08008124 <memcpy>:
 8008124:	440a      	add	r2, r1
 8008126:	4291      	cmp	r1, r2
 8008128:	f100 33ff 	add.w	r3, r0, #4294967295	@ 0xffffffff
 800812c:	d100      	bne.n	8008130 <memcpy+0xc>
 800812e:	4770      	bx	lr
 8008130:	b510      	push	{r4, lr}
 8008132:	f811 4b01 	ldrb.w	r4, [r1], #1
 8008136:	f803 4f01 	strb.w	r4, [r3, #1]!
 800813a:	4291      	cmp	r1, r2
 800813c:	d1f9      	bne.n	8008132 <memcpy+0xe>
 800813e:	bd10      	pop	{r4, pc}

08008140 <__assert_func>:
 8008140:	b51f      	push	{r0, r1, r2, r3, r4, lr}
 8008142:	4614      	mov	r4, r2
 8008144:	461a      	mov	r2, r3
 8008146:	4b09      	ldr	r3, [pc, #36]	@ (800816c <__assert_func+0x2c>)
 8008148:	681b      	ldr	r3, [r3, #0]
 800814a:	4605      	mov	r5, r0
 800814c:	68d8      	ldr	r0, [r3, #12]
 800814e:	b954      	cbnz	r4, 8008166 <__assert_func+0x26>
 8008150:	4b07      	ldr	r3, [pc, #28]	@ (8008170 <__assert_func+0x30>)
 8008152:	461c      	mov	r4, r3
 8008154:	e9cd 3401 	strd	r3, r4, [sp, #4]
 8008158:	9100      	str	r1, [sp, #0]
 800815a:	462b      	mov	r3, r5
 800815c:	4905      	ldr	r1, [pc, #20]	@ (8008174 <__assert_func+0x34>)
 800815e:	f000 f827 	bl	80081b0 <fiprintf>
 8008162:	f000 f844 	bl	80081ee <abort>
 8008166:	4b04      	ldr	r3, [pc, #16]	@ (8008178 <__assert_func+0x38>)
 8008168:	e7f4      	b.n	8008154 <__assert_func+0x14>
 800816a:	bf00      	nop
 800816c:	20000018 	.word	0x20000018
 8008170:	08008c4e 	.word	0x08008c4e
 8008174:	08008c20 	.word	0x08008c20
 8008178:	08008c13 	.word	0x08008c13

0800817c <__ascii_mbtowc>:
 800817c:	b082      	sub	sp, #8
 800817e:	b901      	cbnz	r1, 8008182 <__ascii_mbtowc+0x6>
 8008180:	a901      	add	r1, sp, #4
 8008182:	b142      	cbz	r2, 8008196 <__ascii_mbtowc+0x1a>
 8008184:	b14b      	cbz	r3, 800819a <__ascii_mbtowc+0x1e>
 8008186:	7813      	ldrb	r3, [r2, #0]
 8008188:	600b      	str	r3, [r1, #0]
 800818a:	7812      	ldrb	r2, [r2, #0]
 800818c:	1e10      	subs	r0, r2, #0
 800818e:	bf18      	it	ne
 8008190:	2001      	movne	r0, #1
 8008192:	b002      	add	sp, #8
 8008194:	4770      	bx	lr
 8008196:	4610      	mov	r0, r2
 8008198:	e7fb      	b.n	8008192 <__ascii_mbtowc+0x16>
 800819a:	f06f 0001 	mvn.w	r0, #1
 800819e:	e7f8      	b.n	8008192 <__ascii_mbtowc+0x16>

080081a0 <_malloc_usable_size_r>:
 80081a0:	f851 3c04 	ldr.w	r3, [r1, #-4]
 80081a4:	1f18      	subs	r0, r3, #4
 80081a6:	2b00      	cmp	r3, #0
 80081a8:	bfbc      	itt	lt
 80081aa:	580b      	ldrlt	r3, [r1, r0]
 80081ac:	18c0      	addlt	r0, r0, r3
 80081ae:	4770      	bx	lr

080081b0 <fiprintf>:
 80081b0:	b40e      	push	{r1, r2, r3}
 80081b2:	b503      	push	{r0, r1, lr}
 80081b4:	4601      	mov	r1, r0
 80081b6:	ab03      	add	r3, sp, #12
 80081b8:	4805      	ldr	r0, [pc, #20]	@ (80081d0 <fiprintf+0x20>)
 80081ba:	f853 2b04 	ldr.w	r2, [r3], #4
 80081be:	6800      	ldr	r0, [r0, #0]
 80081c0:	9301      	str	r3, [sp, #4]
 80081c2:	f000 f845 	bl	8008250 <_vfiprintf_r>
 80081c6:	b002      	add	sp, #8
 80081c8:	f85d eb04 	ldr.w	lr, [sp], #4
 80081cc:	b003      	add	sp, #12
 80081ce:	4770      	bx	lr
 80081d0:	20000018 	.word	0x20000018

080081d4 <__ascii_wctomb>:
 80081d4:	4603      	mov	r3, r0
 80081d6:	4608      	mov	r0, r1
 80081d8:	b141      	cbz	r1, 80081ec <__ascii_wctomb+0x18>
 80081da:	2aff      	cmp	r2, #255	@ 0xff
 80081dc:	d904      	bls.n	80081e8 <__ascii_wctomb+0x14>
 80081de:	228a      	movs	r2, #138	@ 0x8a
 80081e0:	601a      	str	r2, [r3, #0]
 80081e2:	f04f 30ff 	mov.w	r0, #4294967295	@ 0xffffffff
 80081e6:	4770      	bx	lr
 80081e8:	700a      	strb	r2, [r1, #0]
 80081ea:	2001      	movs	r0, #1
 80081ec:	4770      	bx	lr

080081ee <abort>:
 80081ee:	b508      	push	{r3, lr}
 80081f0:	2006      	movs	r0, #6
 80081f2:	f000 fa85 	bl	8008700 <raise>
 80081f6:	2001      	movs	r0, #1
 80081f8:	f7fa f94e 	bl	8002498 <_exit>

080081fc <__sfputc_r>:
 80081fc:	6893      	ldr	r3, [r2, #8]
 80081fe:	3b01      	subs	r3, #1
 8008200:	2b00      	cmp	r3, #0
 8008202:	b410      	push	{r4}
 8008204:	6093      	str	r3, [r2, #8]
 8008206:	da08      	bge.n	800821a <__sfputc_r+0x1e>
 8008208:	6994      	ldr	r4, [r2, #24]
 800820a:	42a3      	cmp	r3, r4
 800820c:	db01      	blt.n	8008212 <__sfputc_r+0x16>
 800820e:	290a      	cmp	r1, #10
 8008210:	d103      	bne.n	800821a <__sfputc_r+0x1e>
 8008212:	f85d 4b04 	ldr.w	r4, [sp], #4
 8008216:	f000 b933 	b.w	8008480 <__swbuf_r>
 800821a:	6813      	ldr	r3, [r2, #0]
 800821c:	1c58      	adds	r0, r3, #1
 800821e:	6010      	str	r0, [r2, #0]
 8008220:	7019      	strb	r1, [r3, #0]
 8008222:	4608      	mov	r0, r1
 8008224:	f85d 4b04 	ldr.w	r4, [sp], #4
 8008228:	4770      	bx	lr

0800822a <__sfputs_r>:
 800822a:	b5f8      	push	{r3, r4, r5, r6, r7, lr}
 800822c:	4606      	mov	r6, r0
 800822e:	460f      	mov	r7, r1
 8008230:	4614      	mov	r4, r2
 8008232:	18d5      	adds	r5, r2, r3
 8008234:	42ac      	cmp	r4, r5
 8008236:	d101      	bne.n	800823c <__sfputs_r+0x12>
 8008238:	2000      	movs	r0, #0
 800823a:	e007      	b.n	800824c <__sfputs_r+0x22>
 800823c:	f814 1b01 	ldrb.w	r1, [r4], #1
 8008240:	463a      	mov	r2, r7
 8008242:	4630      	mov	r0, r6
 8008244:	f7ff ffda 	bl	80081fc <__sfputc_r>
 8008248:	1c43      	adds	r3, r0, #1
 800824a:	d1f3      	bne.n	8008234 <__sfputs_r+0xa>
 800824c:	bdf8      	pop	{r3, r4, r5, r6, r7, pc}
	...

08008250 <_vfiprintf_r>:
 8008250:	e92d 4ff0 	stmdb	sp!, {r4, r5, r6, r7, r8, r9, sl, fp, lr}
 8008254:	460d      	mov	r5, r1
 8008256:	b09d      	sub	sp, #116	@ 0x74
 8008258:	4614      	mov	r4, r2
 800825a:	4698      	mov	r8, r3
 800825c:	4606      	mov	r6, r0
 800825e:	b118      	cbz	r0, 8008268 <_vfiprintf_r+0x18>
 8008260:	6a03      	ldr	r3, [r0, #32]
 8008262:	b90b      	cbnz	r3, 8008268 <_vfiprintf_r+0x18>
 8008264:	f7fe f9f0 	bl	8006648 <__sinit>
 8008268:	6e6b      	ldr	r3, [r5, #100]	@ 0x64
 800826a:	07d9      	lsls	r1, r3, #31
 800826c:	d405      	bmi.n	800827a <_vfiprintf_r+0x2a>
 800826e:	89ab      	ldrh	r3, [r5, #12]
 8008270:	059a      	lsls	r2, r3, #22
 8008272:	d402      	bmi.n	800827a <_vfiprintf_r+0x2a>
 8008274:	6da8      	ldr	r0, [r5, #88]	@ 0x58
 8008276:	f7fe fa64 	bl	8006742 <__retarget_lock_acquire_recursive>
 800827a:	89ab      	ldrh	r3, [r5, #12]
 800827c:	071b      	lsls	r3, r3, #28
 800827e:	d501      	bpl.n	8008284 <_vfiprintf_r+0x34>
 8008280:	692b      	ldr	r3, [r5, #16]
 8008282:	b99b      	cbnz	r3, 80082ac <_vfiprintf_r+0x5c>
 8008284:	4629      	mov	r1, r5
 8008286:	4630      	mov	r0, r6
 8008288:	f000 f938 	bl	80084fc <__swsetup_r>
 800828c:	b170      	cbz	r0, 80082ac <_vfiprintf_r+0x5c>
 800828e:	6e6b      	ldr	r3, [r5, #100]	@ 0x64
 8008290:	07dc      	lsls	r4, r3, #31
 8008292:	d504      	bpl.n	800829e <_vfiprintf_r+0x4e>
 8008294:	f04f 30ff 	mov.w	r0, #4294967295	@ 0xffffffff
 8008298:	b01d      	add	sp, #116	@ 0x74
 800829a:	e8bd 8ff0 	ldmia.w	sp!, {r4, r5, r6, r7, r8, r9, sl, fp, pc}
 800829e:	89ab      	ldrh	r3, [r5, #12]
 80082a0:	0598      	lsls	r0, r3, #22
 80082a2:	d4f7      	bmi.n	8008294 <_vfiprintf_r+0x44>
 80082a4:	6da8      	ldr	r0, [r5, #88]	@ 0x58
 80082a6:	f7fe fa4d 	bl	8006744 <__retarget_lock_release_recursive>
 80082aa:	e7f3      	b.n	8008294 <_vfiprintf_r+0x44>
 80082ac:	2300      	movs	r3, #0
 80082ae:	9309      	str	r3, [sp, #36]	@ 0x24
 80082b0:	2320      	movs	r3, #32
 80082b2:	f88d 3029 	strb.w	r3, [sp, #41]	@ 0x29
 80082b6:	f8cd 800c 	str.w	r8, [sp, #12]
 80082ba:	2330      	movs	r3, #48	@ 0x30
 80082bc:	f8df 81ac 	ldr.w	r8, [pc, #428]	@ 800846c <_vfiprintf_r+0x21c>
 80082c0:	f88d 302a 	strb.w	r3, [sp, #42]	@ 0x2a
 80082c4:	f04f 0901 	mov.w	r9, #1
 80082c8:	4623      	mov	r3, r4
 80082ca:	469a      	mov	sl, r3
 80082cc:	f813 2b01 	ldrb.w	r2, [r3], #1
 80082d0:	b10a      	cbz	r2, 80082d6 <_vfiprintf_r+0x86>
 80082d2:	2a25      	cmp	r2, #37	@ 0x25
 80082d4:	d1f9      	bne.n	80082ca <_vfiprintf_r+0x7a>
 80082d6:	ebba 0b04 	subs.w	fp, sl, r4
 80082da:	d00b      	beq.n	80082f4 <_vfiprintf_r+0xa4>
 80082dc:	465b      	mov	r3, fp
 80082de:	4622      	mov	r2, r4
 80082e0:	4629      	mov	r1, r5
 80082e2:	4630      	mov	r0, r6
 80082e4:	f7ff ffa1 	bl	800822a <__sfputs_r>
 80082e8:	3001      	adds	r0, #1
 80082ea:	f000 80a7 	beq.w	800843c <_vfiprintf_r+0x1ec>
 80082ee:	9a09      	ldr	r2, [sp, #36]	@ 0x24
 80082f0:	445a      	add	r2, fp
 80082f2:	9209      	str	r2, [sp, #36]	@ 0x24
 80082f4:	f89a 3000 	ldrb.w	r3, [sl]
 80082f8:	2b00      	cmp	r3, #0
 80082fa:	f000 809f 	beq.w	800843c <_vfiprintf_r+0x1ec>
 80082fe:	2300      	movs	r3, #0
 8008300:	f04f 32ff 	mov.w	r2, #4294967295	@ 0xffffffff
 8008304:	e9cd 2305 	strd	r2, r3, [sp, #20]
 8008308:	f10a 0a01 	add.w	sl, sl, #1
 800830c:	9304      	str	r3, [sp, #16]
 800830e:	9307      	str	r3, [sp, #28]
 8008310:	f88d 3053 	strb.w	r3, [sp, #83]	@ 0x53
 8008314:	931a      	str	r3, [sp, #104]	@ 0x68
 8008316:	4654      	mov	r4, sl
 8008318:	2205      	movs	r2, #5
 800831a:	f814 1b01 	ldrb.w	r1, [r4], #1
 800831e:	4853      	ldr	r0, [pc, #332]	@ (800846c <_vfiprintf_r+0x21c>)
 8008320:	f7f7 ff76 	bl	8000210 <memchr>
 8008324:	9a04      	ldr	r2, [sp, #16]
 8008326:	b9d8      	cbnz	r0, 8008360 <_vfiprintf_r+0x110>
 8008328:	06d1      	lsls	r1, r2, #27
 800832a:	bf44      	itt	mi
 800832c:	2320      	movmi	r3, #32
 800832e:	f88d 3053 	strbmi.w	r3, [sp, #83]	@ 0x53
 8008332:	0713      	lsls	r3, r2, #28
 8008334:	bf44      	itt	mi
 8008336:	232b      	movmi	r3, #43	@ 0x2b
 8008338:	f88d 3053 	strbmi.w	r3, [sp, #83]	@ 0x53
 800833c:	f89a 3000 	ldrb.w	r3, [sl]
 8008340:	2b2a      	cmp	r3, #42	@ 0x2a
 8008342:	d015      	beq.n	8008370 <_vfiprintf_r+0x120>
 8008344:	9a07      	ldr	r2, [sp, #28]
 8008346:	4654      	mov	r4, sl
 8008348:	2000      	movs	r0, #0
 800834a:	f04f 0c0a 	mov.w	ip, #10
 800834e:	4621      	mov	r1, r4
 8008350:	f811 3b01 	ldrb.w	r3, [r1], #1
 8008354:	3b30      	subs	r3, #48	@ 0x30
 8008356:	2b09      	cmp	r3, #9
 8008358:	d94b      	bls.n	80083f2 <_vfiprintf_r+0x1a2>
 800835a:	b1b0      	cbz	r0, 800838a <_vfiprintf_r+0x13a>
 800835c:	9207      	str	r2, [sp, #28]
 800835e:	e014      	b.n	800838a <_vfiprintf_r+0x13a>
 8008360:	eba0 0308 	sub.w	r3, r0, r8
 8008364:	fa09 f303 	lsl.w	r3, r9, r3
 8008368:	4313      	orrs	r3, r2
 800836a:	9304      	str	r3, [sp, #16]
 800836c:	46a2      	mov	sl, r4
 800836e:	e7d2      	b.n	8008316 <_vfiprintf_r+0xc6>
 8008370:	9b03      	ldr	r3, [sp, #12]
 8008372:	1d19      	adds	r1, r3, #4
 8008374:	681b      	ldr	r3, [r3, #0]
 8008376:	9103      	str	r1, [sp, #12]
 8008378:	2b00      	cmp	r3, #0
 800837a:	bfbb      	ittet	lt
 800837c:	425b      	neglt	r3, r3
 800837e:	f042 0202 	orrlt.w	r2, r2, #2
 8008382:	9307      	strge	r3, [sp, #28]
 8008384:	9307      	strlt	r3, [sp, #28]
 8008386:	bfb8      	it	lt
 8008388:	9204      	strlt	r2, [sp, #16]
 800838a:	7823      	ldrb	r3, [r4, #0]
 800838c:	2b2e      	cmp	r3, #46	@ 0x2e
 800838e:	d10a      	bne.n	80083a6 <_vfiprintf_r+0x156>
 8008390:	7863      	ldrb	r3, [r4, #1]
 8008392:	2b2a      	cmp	r3, #42	@ 0x2a
 8008394:	d132      	bne.n	80083fc <_vfiprintf_r+0x1ac>
 8008396:	9b03      	ldr	r3, [sp, #12]
 8008398:	1d1a      	adds	r2, r3, #4
 800839a:	681b      	ldr	r3, [r3, #0]
 800839c:	9203      	str	r2, [sp, #12]
 800839e:	ea43 73e3 	orr.w	r3, r3, r3, asr #31
 80083a2:	3402      	adds	r4, #2
 80083a4:	9305      	str	r3, [sp, #20]
 80083a6:	f8df a0d4 	ldr.w	sl, [pc, #212]	@ 800847c <_vfiprintf_r+0x22c>
 80083aa:	7821      	ldrb	r1, [r4, #0]
 80083ac:	2203      	movs	r2, #3
 80083ae:	4650      	mov	r0, sl
 80083b0:	f7f7 ff2e 	bl	8000210 <memchr>
 80083b4:	b138      	cbz	r0, 80083c6 <_vfiprintf_r+0x176>
 80083b6:	9b04      	ldr	r3, [sp, #16]
 80083b8:	eba0 000a 	sub.w	r0, r0, sl
 80083bc:	2240      	movs	r2, #64	@ 0x40
 80083be:	4082      	lsls	r2, r0
 80083c0:	4313      	orrs	r3, r2
 80083c2:	3401      	adds	r4, #1
 80083c4:	9304      	str	r3, [sp, #16]
 80083c6:	f814 1b01 	ldrb.w	r1, [r4], #1
 80083ca:	4829      	ldr	r0, [pc, #164]	@ (8008470 <_vfiprintf_r+0x220>)
 80083cc:	f88d 1028 	strb.w	r1, [sp, #40]	@ 0x28
 80083d0:	2206      	movs	r2, #6
 80083d2:	f7f7 ff1d 	bl	8000210 <memchr>
 80083d6:	2800      	cmp	r0, #0
 80083d8:	d03f      	beq.n	800845a <_vfiprintf_r+0x20a>
 80083da:	4b26      	ldr	r3, [pc, #152]	@ (8008474 <_vfiprintf_r+0x224>)
 80083dc:	bb1b      	cbnz	r3, 8008426 <_vfiprintf_r+0x1d6>
 80083de:	9b03      	ldr	r3, [sp, #12]
 80083e0:	3307      	adds	r3, #7
 80083e2:	f023 0307 	bic.w	r3, r3, #7
 80083e6:	3308      	adds	r3, #8
 80083e8:	9303      	str	r3, [sp, #12]
 80083ea:	9b09      	ldr	r3, [sp, #36]	@ 0x24
 80083ec:	443b      	add	r3, r7
 80083ee:	9309      	str	r3, [sp, #36]	@ 0x24
 80083f0:	e76a      	b.n	80082c8 <_vfiprintf_r+0x78>
 80083f2:	fb0c 3202 	mla	r2, ip, r2, r3
 80083f6:	460c      	mov	r4, r1
 80083f8:	2001      	movs	r0, #1
 80083fa:	e7a8      	b.n	800834e <_vfiprintf_r+0xfe>
 80083fc:	2300      	movs	r3, #0
 80083fe:	3401      	adds	r4, #1
 8008400:	9305      	str	r3, [sp, #20]
 8008402:	4619      	mov	r1, r3
 8008404:	f04f 0c0a 	mov.w	ip, #10
 8008408:	4620      	mov	r0, r4
 800840a:	f810 2b01 	ldrb.w	r2, [r0], #1
 800840e:	3a30      	subs	r2, #48	@ 0x30
 8008410:	2a09      	cmp	r2, #9
 8008412:	d903      	bls.n	800841c <_vfiprintf_r+0x1cc>
 8008414:	2b00      	cmp	r3, #0
 8008416:	d0c6      	beq.n	80083a6 <_vfiprintf_r+0x156>
 8008418:	9105      	str	r1, [sp, #20]
 800841a:	e7c4      	b.n	80083a6 <_vfiprintf_r+0x156>
 800841c:	fb0c 2101 	mla	r1, ip, r1, r2
 8008420:	4604      	mov	r4, r0
 8008422:	2301      	movs	r3, #1
 8008424:	e7f0      	b.n	8008408 <_vfiprintf_r+0x1b8>
 8008426:	ab03      	add	r3, sp, #12
 8008428:	9300      	str	r3, [sp, #0]
 800842a:	462a      	mov	r2, r5
 800842c:	4b12      	ldr	r3, [pc, #72]	@ (8008478 <_vfiprintf_r+0x228>)
 800842e:	a904      	add	r1, sp, #16
 8008430:	4630      	mov	r0, r6
 8008432:	f7fd fbef 	bl	8005c14 <_printf_float>
 8008436:	4607      	mov	r7, r0
 8008438:	1c78      	adds	r0, r7, #1
 800843a:	d1d6      	bne.n	80083ea <_vfiprintf_r+0x19a>
 800843c:	6e6b      	ldr	r3, [r5, #100]	@ 0x64
 800843e:	07d9      	lsls	r1, r3, #31
 8008440:	d405      	bmi.n	800844e <_vfiprintf_r+0x1fe>
 8008442:	89ab      	ldrh	r3, [r5, #12]
 8008444:	059a      	lsls	r2, r3, #22
 8008446:	d402      	bmi.n	800844e <_vfiprintf_r+0x1fe>
 8008448:	6da8      	ldr	r0, [r5, #88]	@ 0x58
 800844a:	f7fe f97b 	bl	8006744 <__retarget_lock_release_recursive>
 800844e:	89ab      	ldrh	r3, [r5, #12]
 8008450:	065b      	lsls	r3, r3, #25
 8008452:	f53f af1f 	bmi.w	8008294 <_vfiprintf_r+0x44>
 8008456:	9809      	ldr	r0, [sp, #36]	@ 0x24
 8008458:	e71e      	b.n	8008298 <_vfiprintf_r+0x48>
 800845a:	ab03      	add	r3, sp, #12
 800845c:	9300      	str	r3, [sp, #0]
 800845e:	462a      	mov	r2, r5
 8008460:	4b05      	ldr	r3, [pc, #20]	@ (8008478 <_vfiprintf_r+0x228>)
 8008462:	a904      	add	r1, sp, #16
 8008464:	4630      	mov	r0, r6
 8008466:	f7fd ff17 	bl	8006298 <_printf_i>
 800846a:	e7e4      	b.n	8008436 <_vfiprintf_r+0x1e6>
 800846c:	080089a1 	.word	0x080089a1
 8008470:	080089ab 	.word	0x080089ab
 8008474:	08005c15 	.word	0x08005c15
 8008478:	0800822b 	.word	0x0800822b
 800847c:	080089a7 	.word	0x080089a7

08008480 <__swbuf_r>:
 8008480:	b5f8      	push	{r3, r4, r5, r6, r7, lr}
 8008482:	460e      	mov	r6, r1
 8008484:	4614      	mov	r4, r2
 8008486:	4605      	mov	r5, r0
 8008488:	b118      	cbz	r0, 8008492 <__swbuf_r+0x12>
 800848a:	6a03      	ldr	r3, [r0, #32]
 800848c:	b90b      	cbnz	r3, 8008492 <__swbuf_r+0x12>
 800848e:	f7fe f8db 	bl	8006648 <__sinit>
 8008492:	69a3      	ldr	r3, [r4, #24]
 8008494:	60a3      	str	r3, [r4, #8]
 8008496:	89a3      	ldrh	r3, [r4, #12]
 8008498:	071a      	lsls	r2, r3, #28
 800849a:	d501      	bpl.n	80084a0 <__swbuf_r+0x20>
 800849c:	6923      	ldr	r3, [r4, #16]
 800849e:	b943      	cbnz	r3, 80084b2 <__swbuf_r+0x32>
 80084a0:	4621      	mov	r1, r4
 80084a2:	4628      	mov	r0, r5
 80084a4:	f000 f82a 	bl	80084fc <__swsetup_r>
 80084a8:	b118      	cbz	r0, 80084b2 <__swbuf_r+0x32>
 80084aa:	f04f 37ff 	mov.w	r7, #4294967295	@ 0xffffffff
 80084ae:	4638      	mov	r0, r7
 80084b0:	bdf8      	pop	{r3, r4, r5, r6, r7, pc}
 80084b2:	6823      	ldr	r3, [r4, #0]
 80084b4:	6922      	ldr	r2, [r4, #16]
 80084b6:	1a98      	subs	r0, r3, r2
 80084b8:	6963      	ldr	r3, [r4, #20]
 80084ba:	b2f6      	uxtb	r6, r6
 80084bc:	4283      	cmp	r3, r0
 80084be:	4637      	mov	r7, r6
 80084c0:	dc05      	bgt.n	80084ce <__swbuf_r+0x4e>
 80084c2:	4621      	mov	r1, r4
 80084c4:	4628      	mov	r0, r5
 80084c6:	f7ff f9b1 	bl	800782c <_fflush_r>
 80084ca:	2800      	cmp	r0, #0
 80084cc:	d1ed      	bne.n	80084aa <__swbuf_r+0x2a>
 80084ce:	68a3      	ldr	r3, [r4, #8]
 80084d0:	3b01      	subs	r3, #1
 80084d2:	60a3      	str	r3, [r4, #8]
 80084d4:	6823      	ldr	r3, [r4, #0]
 80084d6:	1c5a      	adds	r2, r3, #1
 80084d8:	6022      	str	r2, [r4, #0]
 80084da:	701e      	strb	r6, [r3, #0]
 80084dc:	6962      	ldr	r2, [r4, #20]
 80084de:	1c43      	adds	r3, r0, #1
 80084e0:	429a      	cmp	r2, r3
 80084e2:	d004      	beq.n	80084ee <__swbuf_r+0x6e>
 80084e4:	89a3      	ldrh	r3, [r4, #12]
 80084e6:	07db      	lsls	r3, r3, #31
 80084e8:	d5e1      	bpl.n	80084ae <__swbuf_r+0x2e>
 80084ea:	2e0a      	cmp	r6, #10
 80084ec:	d1df      	bne.n	80084ae <__swbuf_r+0x2e>
 80084ee:	4621      	mov	r1, r4
 80084f0:	4628      	mov	r0, r5
 80084f2:	f7ff f99b 	bl	800782c <_fflush_r>
 80084f6:	2800      	cmp	r0, #0
 80084f8:	d0d9      	beq.n	80084ae <__swbuf_r+0x2e>
 80084fa:	e7d6      	b.n	80084aa <__swbuf_r+0x2a>

080084fc <__swsetup_r>:
 80084fc:	b538      	push	{r3, r4, r5, lr}
 80084fe:	4b29      	ldr	r3, [pc, #164]	@ (80085a4 <__swsetup_r+0xa8>)
 8008500:	4605      	mov	r5, r0
 8008502:	6818      	ldr	r0, [r3, #0]
 8008504:	460c      	mov	r4, r1
 8008506:	b118      	cbz	r0, 8008510 <__swsetup_r+0x14>
 8008508:	6a03      	ldr	r3, [r0, #32]
 800850a:	b90b      	cbnz	r3, 8008510 <__swsetup_r+0x14>
 800850c:	f7fe f89c 	bl	8006648 <__sinit>
 8008510:	f9b4 300c 	ldrsh.w	r3, [r4, #12]
 8008514:	0719      	lsls	r1, r3, #28
 8008516:	d422      	bmi.n	800855e <__swsetup_r+0x62>
 8008518:	06da      	lsls	r2, r3, #27
 800851a:	d407      	bmi.n	800852c <__swsetup_r+0x30>
 800851c:	2209      	movs	r2, #9
 800851e:	602a      	str	r2, [r5, #0]
 8008520:	f043 0340 	orr.w	r3, r3, #64	@ 0x40
 8008524:	81a3      	strh	r3, [r4, #12]
 8008526:	f04f 30ff 	mov.w	r0, #4294967295	@ 0xffffffff
 800852a:	e033      	b.n	8008594 <__swsetup_r+0x98>
 800852c:	0758      	lsls	r0, r3, #29
 800852e:	d512      	bpl.n	8008556 <__swsetup_r+0x5a>
 8008530:	6b61      	ldr	r1, [r4, #52]	@ 0x34
 8008532:	b141      	cbz	r1, 8008546 <__swsetup_r+0x4a>
 8008534:	f104 0344 	add.w	r3, r4, #68	@ 0x44
 8008538:	4299      	cmp	r1, r3
 800853a:	d002      	beq.n	8008542 <__swsetup_r+0x46>
 800853c:	4628      	mov	r0, r5
 800853e:	f7fe ff4f 	bl	80073e0 <_free_r>
 8008542:	2300      	movs	r3, #0
 8008544:	6363      	str	r3, [r4, #52]	@ 0x34
 8008546:	89a3      	ldrh	r3, [r4, #12]
 8008548:	f023 0324 	bic.w	r3, r3, #36	@ 0x24
 800854c:	81a3      	strh	r3, [r4, #12]
 800854e:	2300      	movs	r3, #0
 8008550:	6063      	str	r3, [r4, #4]
 8008552:	6923      	ldr	r3, [r4, #16]
 8008554:	6023      	str	r3, [r4, #0]
 8008556:	89a3      	ldrh	r3, [r4, #12]
 8008558:	f043 0308 	orr.w	r3, r3, #8
 800855c:	81a3      	strh	r3, [r4, #12]
 800855e:	6923      	ldr	r3, [r4, #16]
 8008560:	b94b      	cbnz	r3, 8008576 <__swsetup_r+0x7a>
 8008562:	89a3      	ldrh	r3, [r4, #12]
 8008564:	f403 7320 	and.w	r3, r3, #640	@ 0x280
 8008568:	f5b3 7f00 	cmp.w	r3, #512	@ 0x200
 800856c:	d003      	beq.n	8008576 <__swsetup_r+0x7a>
 800856e:	4621      	mov	r1, r4
 8008570:	4628      	mov	r0, r5
 8008572:	f000 f83f 	bl	80085f4 <__smakebuf_r>
 8008576:	f9b4 300c 	ldrsh.w	r3, [r4, #12]
 800857a:	f013 0201 	ands.w	r2, r3, #1
 800857e:	d00a      	beq.n	8008596 <__swsetup_r+0x9a>
 8008580:	2200      	movs	r2, #0
 8008582:	60a2      	str	r2, [r4, #8]
 8008584:	6962      	ldr	r2, [r4, #20]
 8008586:	4252      	negs	r2, r2
 8008588:	61a2      	str	r2, [r4, #24]
 800858a:	6922      	ldr	r2, [r4, #16]
 800858c:	b942      	cbnz	r2, 80085a0 <__swsetup_r+0xa4>
 800858e:	f013 0080 	ands.w	r0, r3, #128	@ 0x80
 8008592:	d1c5      	bne.n	8008520 <__swsetup_r+0x24>
 8008594:	bd38      	pop	{r3, r4, r5, pc}
 8008596:	0799      	lsls	r1, r3, #30
 8008598:	bf58      	it	pl
 800859a:	6962      	ldrpl	r2, [r4, #20]
 800859c:	60a2      	str	r2, [r4, #8]
 800859e:	e7f4      	b.n	800858a <__swsetup_r+0x8e>
 80085a0:	2000      	movs	r0, #0
 80085a2:	e7f7      	b.n	8008594 <__swsetup_r+0x98>
 80085a4:	20000018 	.word	0x20000018

080085a8 <__swhatbuf_r>:
 80085a8:	b570      	push	{r4, r5, r6, lr}
 80085aa:	460c      	mov	r4, r1
 80085ac:	f9b1 100e 	ldrsh.w	r1, [r1, #14]
 80085b0:	2900      	cmp	r1, #0
 80085b2:	b096      	sub	sp, #88	@ 0x58
 80085b4:	4615      	mov	r5, r2
 80085b6:	461e      	mov	r6, r3
 80085b8:	da0d      	bge.n	80085d6 <__swhatbuf_r+0x2e>
 80085ba:	89a3      	ldrh	r3, [r4, #12]
 80085bc:	f013 0f80 	tst.w	r3, #128	@ 0x80
 80085c0:	f04f 0100 	mov.w	r1, #0
 80085c4:	bf14      	ite	ne
 80085c6:	2340      	movne	r3, #64	@ 0x40
 80085c8:	f44f 6380 	moveq.w	r3, #1024	@ 0x400
 80085cc:	2000      	movs	r0, #0
 80085ce:	6031      	str	r1, [r6, #0]
 80085d0:	602b      	str	r3, [r5, #0]
 80085d2:	b016      	add	sp, #88	@ 0x58
 80085d4:	bd70      	pop	{r4, r5, r6, pc}
 80085d6:	466a      	mov	r2, sp
 80085d8:	f000 f848 	bl	800866c <_fstat_r>
 80085dc:	2800      	cmp	r0, #0
 80085de:	dbec      	blt.n	80085ba <__swhatbuf_r+0x12>
 80085e0:	9901      	ldr	r1, [sp, #4]
 80085e2:	f401 4170 	and.w	r1, r1, #61440	@ 0xf000
 80085e6:	f5a1 5300 	sub.w	r3, r1, #8192	@ 0x2000
 80085ea:	4259      	negs	r1, r3
 80085ec:	4159      	adcs	r1, r3
 80085ee:	f44f 6380 	mov.w	r3, #1024	@ 0x400
 80085f2:	e7eb      	b.n	80085cc <__swhatbuf_r+0x24>

080085f4 <__smakebuf_r>:
 80085f4:	898b      	ldrh	r3, [r1, #12]
 80085f6:	b5f7      	push	{r0, r1, r2, r4, r5, r6, r7, lr}
 80085f8:	079d      	lsls	r5, r3, #30
 80085fa:	4606      	mov	r6, r0
 80085fc:	460c      	mov	r4, r1
 80085fe:	d507      	bpl.n	8008610 <__smakebuf_r+0x1c>
 8008600:	f104 0347 	add.w	r3, r4, #71	@ 0x47
 8008604:	6023      	str	r3, [r4, #0]
 8008606:	6123      	str	r3, [r4, #16]
 8008608:	2301      	movs	r3, #1
 800860a:	6163      	str	r3, [r4, #20]
 800860c:	b003      	add	sp, #12
 800860e:	bdf0      	pop	{r4, r5, r6, r7, pc}
 8008610:	ab01      	add	r3, sp, #4
 8008612:	466a      	mov	r2, sp
 8008614:	f7ff ffc8 	bl	80085a8 <__swhatbuf_r>
 8008618:	9f00      	ldr	r7, [sp, #0]
 800861a:	4605      	mov	r5, r0
 800861c:	4639      	mov	r1, r7
 800861e:	4630      	mov	r0, r6
 8008620:	f7fd fd4c 	bl	80060bc <_malloc_r>
 8008624:	b948      	cbnz	r0, 800863a <__smakebuf_r+0x46>
 8008626:	f9b4 300c 	ldrsh.w	r3, [r4, #12]
 800862a:	059a      	lsls	r2, r3, #22
 800862c:	d4ee      	bmi.n	800860c <__smakebuf_r+0x18>
 800862e:	f023 0303 	bic.w	r3, r3, #3
 8008632:	f043 0302 	orr.w	r3, r3, #2
 8008636:	81a3      	strh	r3, [r4, #12]
 8008638:	e7e2      	b.n	8008600 <__smakebuf_r+0xc>
 800863a:	89a3      	ldrh	r3, [r4, #12]
 800863c:	6020      	str	r0, [r4, #0]
 800863e:	f043 0380 	orr.w	r3, r3, #128	@ 0x80
 8008642:	81a3      	strh	r3, [r4, #12]
 8008644:	9b01      	ldr	r3, [sp, #4]
 8008646:	e9c4 0704 	strd	r0, r7, [r4, #16]
 800864a:	b15b      	cbz	r3, 8008664 <__smakebuf_r+0x70>
 800864c:	f9b4 100e 	ldrsh.w	r1, [r4, #14]
 8008650:	4630      	mov	r0, r6
 8008652:	f000 f81d 	bl	8008690 <_isatty_r>
 8008656:	b128      	cbz	r0, 8008664 <__smakebuf_r+0x70>
 8008658:	89a3      	ldrh	r3, [r4, #12]
 800865a:	f023 0303 	bic.w	r3, r3, #3
 800865e:	f043 0301 	orr.w	r3, r3, #1
 8008662:	81a3      	strh	r3, [r4, #12]
 8008664:	89a3      	ldrh	r3, [r4, #12]
 8008666:	431d      	orrs	r5, r3
 8008668:	81a5      	strh	r5, [r4, #12]
 800866a:	e7cf      	b.n	800860c <__smakebuf_r+0x18>

0800866c <_fstat_r>:
 800866c:	b538      	push	{r3, r4, r5, lr}
 800866e:	4d07      	ldr	r5, [pc, #28]	@ (800868c <_fstat_r+0x20>)
 8008670:	2300      	movs	r3, #0
 8008672:	4604      	mov	r4, r0
 8008674:	4608      	mov	r0, r1
 8008676:	4611      	mov	r1, r2
 8008678:	602b      	str	r3, [r5, #0]
 800867a:	f7f9 ff5d 	bl	8002538 <_fstat>
 800867e:	1c43      	adds	r3, r0, #1
 8008680:	d102      	bne.n	8008688 <_fstat_r+0x1c>
 8008682:	682b      	ldr	r3, [r5, #0]
 8008684:	b103      	cbz	r3, 8008688 <_fstat_r+0x1c>
 8008686:	6023      	str	r3, [r4, #0]
 8008688:	bd38      	pop	{r3, r4, r5, pc}
 800868a:	bf00      	nop
 800868c:	200004b8 	.word	0x200004b8

08008690 <_isatty_r>:
 8008690:	b538      	push	{r3, r4, r5, lr}
 8008692:	4d06      	ldr	r5, [pc, #24]	@ (80086ac <_isatty_r+0x1c>)
 8008694:	2300      	movs	r3, #0
 8008696:	4604      	mov	r4, r0
 8008698:	4608      	mov	r0, r1
 800869a:	602b      	str	r3, [r5, #0]
 800869c:	f7f9 ff5c 	bl	8002558 <_isatty>
 80086a0:	1c43      	adds	r3, r0, #1
 80086a2:	d102      	bne.n	80086aa <_isatty_r+0x1a>
 80086a4:	682b      	ldr	r3, [r5, #0]
 80086a6:	b103      	cbz	r3, 80086aa <_isatty_r+0x1a>
 80086a8:	6023      	str	r3, [r4, #0]
 80086aa:	bd38      	pop	{r3, r4, r5, pc}
 80086ac:	200004b8 	.word	0x200004b8

080086b0 <_raise_r>:
 80086b0:	291f      	cmp	r1, #31
 80086b2:	b538      	push	{r3, r4, r5, lr}
 80086b4:	4605      	mov	r5, r0
 80086b6:	460c      	mov	r4, r1
 80086b8:	d904      	bls.n	80086c4 <_raise_r+0x14>
 80086ba:	2316      	movs	r3, #22
 80086bc:	6003      	str	r3, [r0, #0]
 80086be:	f04f 30ff 	mov.w	r0, #4294967295	@ 0xffffffff
 80086c2:	bd38      	pop	{r3, r4, r5, pc}
 80086c4:	6bc2      	ldr	r2, [r0, #60]	@ 0x3c
 80086c6:	b112      	cbz	r2, 80086ce <_raise_r+0x1e>
 80086c8:	f852 3021 	ldr.w	r3, [r2, r1, lsl #2]
 80086cc:	b94b      	cbnz	r3, 80086e2 <_raise_r+0x32>
 80086ce:	4628      	mov	r0, r5
 80086d0:	f000 f830 	bl	8008734 <_getpid_r>
 80086d4:	4622      	mov	r2, r4
 80086d6:	4601      	mov	r1, r0
 80086d8:	4628      	mov	r0, r5
 80086da:	e8bd 4038 	ldmia.w	sp!, {r3, r4, r5, lr}
 80086de:	f000 b817 	b.w	8008710 <_kill_r>
 80086e2:	2b01      	cmp	r3, #1
 80086e4:	d00a      	beq.n	80086fc <_raise_r+0x4c>
 80086e6:	1c59      	adds	r1, r3, #1
 80086e8:	d103      	bne.n	80086f2 <_raise_r+0x42>
 80086ea:	2316      	movs	r3, #22
 80086ec:	6003      	str	r3, [r0, #0]
 80086ee:	2001      	movs	r0, #1
 80086f0:	e7e7      	b.n	80086c2 <_raise_r+0x12>
 80086f2:	2100      	movs	r1, #0
 80086f4:	f842 1024 	str.w	r1, [r2, r4, lsl #2]
 80086f8:	4620      	mov	r0, r4
 80086fa:	4798      	blx	r3
 80086fc:	2000      	movs	r0, #0
 80086fe:	e7e0      	b.n	80086c2 <_raise_r+0x12>

08008700 <raise>:
 8008700:	4b02      	ldr	r3, [pc, #8]	@ (800870c <raise+0xc>)
 8008702:	4601      	mov	r1, r0
 8008704:	6818      	ldr	r0, [r3, #0]
 8008706:	f7ff bfd3 	b.w	80086b0 <_raise_r>
 800870a:	bf00      	nop
 800870c:	20000018 	.word	0x20000018

08008710 <_kill_r>:
 8008710:	b538      	push	{r3, r4, r5, lr}
 8008712:	4d07      	ldr	r5, [pc, #28]	@ (8008730 <_kill_r+0x20>)
 8008714:	2300      	movs	r3, #0
 8008716:	4604      	mov	r4, r0
 8008718:	4608      	mov	r0, r1
 800871a:	4611      	mov	r1, r2
 800871c:	602b      	str	r3, [r5, #0]
 800871e:	f7f9 feab 	bl	8002478 <_kill>
 8008722:	1c43      	adds	r3, r0, #1
 8008724:	d102      	bne.n	800872c <_kill_r+0x1c>
 8008726:	682b      	ldr	r3, [r5, #0]
 8008728:	b103      	cbz	r3, 800872c <_kill_r+0x1c>
 800872a:	6023      	str	r3, [r4, #0]
 800872c:	bd38      	pop	{r3, r4, r5, pc}
 800872e:	bf00      	nop
 8008730:	200004b8 	.word	0x200004b8

08008734 <_getpid_r>:
 8008734:	f7f9 be98 	b.w	8002468 <_getpid>

08008738 <_init>:
 8008738:	b5f8      	push	{r3, r4, r5, r6, r7, lr}
 800873a:	bf00      	nop
 800873c:	bcf8      	pop	{r3, r4, r5, r6, r7}
 800873e:	bc08      	pop	{r3}
 8008740:	469e      	mov	lr, r3
 8008742:	4770      	bx	lr

08008744 <_fini>:
 8008744:	b5f8      	push	{r3, r4, r5, r6, r7, lr}
 8008746:	bf00      	nop
 8008748:	bcf8      	pop	{r3, r4, r5, r6, r7}
 800874a:	bc08      	pop	{r3}
 800874c:	469e      	mov	lr, r3
 800874e:	4770      	bx	lr
