
PCU.elf:     file format elf32-littlearm

Sections:
Idx Name          Size      VMA       LMA       File off  Algn
  0 .isr_vector   000001c4  08000000  08000000  00001000  2**0
                  CONTENTS, ALLOC, LOAD, READONLY, DATA
  1 .text         000096d0  080001d0  080001d0  000011d0  2**4
                  CONTENTS, ALLOC, LOAD, READONLY, CODE
  2 .rodata       00000520  080098a0  080098a0  0000a8a0  2**3
                  CONTENTS, ALLOC, LOAD, READONLY, DATA
  3 .ARM.extab    00000000  08009dc0  08009dc0  0000b1e8  2**0
                  CONTENTS
  4 .ARM          00000008  08009dc0  08009dc0  0000adc0  2**2
                  CONTENTS, ALLOC, LOAD, READONLY, DATA
  5 .preinit_array 00000000  08009dc8  08009dc8  0000b1e8  2**0
                  CONTENTS, ALLOC, LOAD, DATA
  6 .init_array   00000004  08009dc8  08009dc8  0000adc8  2**2
                  CONTENTS, ALLOC, LOAD, READONLY, DATA
  7 .fini_array   00000004  08009dcc  08009dcc  0000adcc  2**2
                  CONTENTS, ALLOC, LOAD, READONLY, DATA
  8 .data         000001e8  20000000  08009dd0  0000b000  2**3
                  CONTENTS, ALLOC, LOAD, DATA
  9 .bss          000002e8  200001e8  08009fb8  0000b1e8  2**2
                  ALLOC
 10 ._user_heap_stack 00000600  200004d0  08009fb8  0000b4d0  2**0
                  ALLOC
 11 .ARM.attributes 00000030  00000000  00000000  0000b1e8  2**0
                  CONTENTS, READONLY
 12 .debug_info   00013847  00000000  00000000  0000b218  2**0
                  CONTENTS, READONLY, DEBUGGING, OCTETS
 13 .debug_abbrev 000034f2  00000000  00000000  0001ea5f  2**0
                  CONTENTS, READONLY, DEBUGGING, OCTETS
 14 .debug_aranges 00000fa0  00000000  00000000  00021f58  2**3
                  CONTENTS, READONLY, DEBUGGING, OCTETS
 15 .debug_rnglists 00000c09  00000000  00000000  00022ef8  2**0
                  CONTENTS, READONLY, DEBUGGING, OCTETS
 16 .debug_macro  00025c10  00000000  00000000  00023b01  2**0
                  CONTENTS, READONLY, DEBUGGING, OCTETS
 17 .debug_line   00015e21  00000000  00000000  00049711  2**0
                  CONTENTS, READONLY, DEBUGGING, OCTETS
 18 .debug_str    000ddb18  00000000  00000000  0005f532  2**0
                  CONTENTS, READONLY, DEBUGGING, OCTETS
 19 .comment      00000086  00000000  00000000  0013d04a  2**0
                  CONTENTS, READONLY
 20 .debug_frame  00005394  00000000  00000000  0013d0d0  2**2
                  CONTENTS, READONLY, DEBUGGING, OCTETS
 21 .debug_line_str 00000066  00000000  00000000  00142464  2**0
                  CONTENTS, READONLY, DEBUGGING, OCTETS

Disassembly of section .text:

080001d0 <__do_global_dtors_aux>:
 80001d0:	b510      	push	{r4, lr}
 80001d2:	4c05      	ldr	r4, [pc, #20]	@ (80001e8 <__do_global_dtors_aux+0x18>)
 80001d4:	7823      	ldrb	r3, [r4, #0]
 80001d6:	b933      	cbnz	r3, 80001e6 <__do_global_dtors_aux+0x16>
 80001d8:	4b04      	ldr	r3, [pc, #16]	@ (80001ec <__do_global_dtors_aux+0x1c>)
 80001da:	b113      	cbz	r3, 80001e2 <__do_global_dtors_aux+0x12>
 80001dc:	4804      	ldr	r0, [pc, #16]	@ (80001f0 <__do_global_dtors_aux+0x20>)
 80001de:	f3af 8000 	nop.w
 80001e2:	2301      	movs	r3, #1
 80001e4:	7023      	strb	r3, [r4, #0]
 80001e6:	bd10      	pop	{r4, pc}
 80001e8:	200001e8 	.word	0x200001e8
 80001ec:	00000000 	.word	0x00000000
 80001f0:	08009888 	.word	0x08009888

080001f4 <frame_dummy>:
 80001f4:	b508      	push	{r3, lr}
 80001f6:	4b03      	ldr	r3, [pc, #12]	@ (8000204 <frame_dummy+0x10>)
 80001f8:	b11b      	cbz	r3, 8000202 <frame_dummy+0xe>
 80001fa:	4903      	ldr	r1, [pc, #12]	@ (8000208 <frame_dummy+0x14>)
 80001fc:	4803      	ldr	r0, [pc, #12]	@ (800020c <frame_dummy+0x18>)
 80001fe:	f3af 8000 	nop.w
 8000202:	bd08      	pop	{r3, pc}
 8000204:	00000000 	.word	0x00000000
 8000208:	200001ec 	.word	0x200001ec
 800020c:	08009888 	.word	0x08009888

08000210 <memchr>:
 8000210:	f001 01ff 	and.w	r1, r1, #255	@ 0xff
 8000214:	2a10      	cmp	r2, #16
 8000216:	db2b      	blt.n	8000270 <memchr+0x60>
 8000218:	f010 0f07 	tst.w	r0, #7
 800021c:	d008      	beq.n	8000230 <memchr+0x20>
 800021e:	f810 3b01 	ldrb.w	r3, [r0], #1
 8000222:	3a01      	subs	r2, #1
 8000224:	428b      	cmp	r3, r1
 8000226:	d02d      	beq.n	8000284 <memchr+0x74>
 8000228:	f010 0f07 	tst.w	r0, #7
 800022c:	b342      	cbz	r2, 8000280 <memchr+0x70>
 800022e:	d1f6      	bne.n	800021e <memchr+0xe>
 8000230:	b4f0      	push	{r4, r5, r6, r7}
 8000232:	ea41 2101 	orr.w	r1, r1, r1, lsl #8
 8000236:	ea41 4101 	orr.w	r1, r1, r1, lsl #16
 800023a:	f022 0407 	bic.w	r4, r2, #7
 800023e:	f07f 0700 	mvns.w	r7, #0
 8000242:	2300      	movs	r3, #0
 8000244:	e8f0 5602 	ldrd	r5, r6, [r0], #8
 8000248:	3c08      	subs	r4, #8
 800024a:	ea85 0501 	eor.w	r5, r5, r1
 800024e:	ea86 0601 	eor.w	r6, r6, r1
 8000252:	fa85 f547 	uadd8	r5, r5, r7
 8000256:	faa3 f587 	sel	r5, r3, r7
 800025a:	fa86 f647 	uadd8	r6, r6, r7
 800025e:	faa5 f687 	sel	r6, r5, r7
 8000262:	b98e      	cbnz	r6, 8000288 <memchr+0x78>
 8000264:	d1ee      	bne.n	8000244 <memchr+0x34>
 8000266:	bcf0      	pop	{r4, r5, r6, r7}
 8000268:	f001 01ff 	and.w	r1, r1, #255	@ 0xff
 800026c:	f002 0207 	and.w	r2, r2, #7
 8000270:	b132      	cbz	r2, 8000280 <memchr+0x70>
 8000272:	f810 3b01 	ldrb.w	r3, [r0], #1
 8000276:	3a01      	subs	r2, #1
 8000278:	ea83 0301 	eor.w	r3, r3, r1
 800027c:	b113      	cbz	r3, 8000284 <memchr+0x74>
 800027e:	d1f8      	bne.n	8000272 <memchr+0x62>
 8000280:	2000      	movs	r0, #0
 8000282:	4770      	bx	lr
 8000284:	3801      	subs	r0, #1
 8000286:	4770      	bx	lr
 8000288:	2d00      	cmp	r5, #0
 800028a:	bf06      	itte	eq
 800028c:	4635      	moveq	r5, r6
 800028e:	3803      	subeq	r0, #3
 8000290:	3807      	subne	r0, #7
 8000292:	f015 0f01 	tst.w	r5, #1
 8000296:	d107      	bne.n	80002a8 <memchr+0x98>
 8000298:	3001      	adds	r0, #1
 800029a:	f415 7f80 	tst.w	r5, #256	@ 0x100
 800029e:	bf02      	ittt	eq
 80002a0:	3001      	addeq	r0, #1
 80002a2:	f415 3fc0 	tsteq.w	r5, #98304	@ 0x18000
 80002a6:	3001      	addeq	r0, #1
 80002a8:	bcf0      	pop	{r4, r5, r6, r7}
 80002aa:	3801      	subs	r0, #1
 80002ac:	4770      	bx	lr
 80002ae:	bf00      	nop

080002b0 <strlen>:
 80002b0:	4603      	mov	r3, r0
 80002b2:	f813 2b01 	ldrb.w	r2, [r3], #1
 80002b6:	2a00      	cmp	r2, #0
 80002b8:	d1fb      	bne.n	80002b2 <strlen+0x2>
 80002ba:	1a18      	subs	r0, r3, r0
 80002bc:	3801      	subs	r0, #1
 80002be:	4770      	bx	lr

080002c0 <__aeabi_drsub>:
 80002c0:	f081 4100 	eor.w	r1, r1, #2147483648	@ 0x80000000
 80002c4:	e002      	b.n	80002cc <__adddf3>
 80002c6:	bf00      	nop

080002c8 <__aeabi_dsub>:
 80002c8:	f083 4300 	eor.w	r3, r3, #2147483648	@ 0x80000000

080002cc <__adddf3>:
 80002cc:	b530      	push	{r4, r5, lr}
 80002ce:	ea4f 0441 	mov.w	r4, r1, lsl #1
 80002d2:	ea4f 0543 	mov.w	r5, r3, lsl #1
 80002d6:	ea94 0f05 	teq	r4, r5
 80002da:	bf08      	it	eq
 80002dc:	ea90 0f02 	teqeq	r0, r2
 80002e0:	bf1f      	itttt	ne
 80002e2:	ea54 0c00 	orrsne.w	ip, r4, r0
 80002e6:	ea55 0c02 	orrsne.w	ip, r5, r2
 80002ea:	ea7f 5c64 	mvnsne.w	ip, r4, asr #21
 80002ee:	ea7f 5c65 	mvnsne.w	ip, r5, asr #21
 80002f2:	f000 80e2 	beq.w	80004ba <__adddf3+0x1ee>
 80002f6:	ea4f 5454 	mov.w	r4, r4, lsr #21
 80002fa:	ebd4 5555 	rsbs	r5, r4, r5, lsr #21
 80002fe:	bfb8      	it	lt
 8000300:	426d      	neglt	r5, r5
 8000302:	dd0c      	ble.n	800031e <__adddf3+0x52>
 8000304:	442c      	add	r4, r5
 8000306:	ea80 0202 	eor.w	r2, r0, r2
 800030a:	ea81 0303 	eor.w	r3, r1, r3
 800030e:	ea82 0000 	eor.w	r0, r2, r0
 8000312:	ea83 0101 	eor.w	r1, r3, r1
 8000316:	ea80 0202 	eor.w	r2, r0, r2
 800031a:	ea81 0303 	eor.w	r3, r1, r3
 800031e:	2d36      	cmp	r5, #54	@ 0x36
 8000320:	bf88      	it	hi
 8000322:	bd30      	pophi	{r4, r5, pc}
 8000324:	f011 4f00 	tst.w	r1, #2147483648	@ 0x80000000
 8000328:	ea4f 3101 	mov.w	r1, r1, lsl #12
 800032c:	f44f 1c80 	mov.w	ip, #1048576	@ 0x100000
 8000330:	ea4c 3111 	orr.w	r1, ip, r1, lsr #12
 8000334:	d002      	beq.n	800033c <__adddf3+0x70>
 8000336:	4240      	negs	r0, r0
 8000338:	eb61 0141 	sbc.w	r1, r1, r1, lsl #1
 800033c:	f013 4f00 	tst.w	r3, #2147483648	@ 0x80000000
 8000340:	ea4f 3303 	mov.w	r3, r3, lsl #12
 8000344:	ea4c 3313 	orr.w	r3, ip, r3, lsr #12
 8000348:	d002      	beq.n	8000350 <__adddf3+0x84>
 800034a:	4252      	negs	r2, r2
 800034c:	eb63 0343 	sbc.w	r3, r3, r3, lsl #1
 8000350:	ea94 0f05 	teq	r4, r5
 8000354:	f000 80a7 	beq.w	80004a6 <__adddf3+0x1da>
 8000358:	f1a4 0401 	sub.w	r4, r4, #1
 800035c:	f1d5 0e20 	rsbs	lr, r5, #32
 8000360:	db0d      	blt.n	800037e <__adddf3+0xb2>
 8000362:	fa02 fc0e 	lsl.w	ip, r2, lr
 8000366:	fa22 f205 	lsr.w	r2, r2, r5
 800036a:	1880      	adds	r0, r0, r2
 800036c:	f141 0100 	adc.w	r1, r1, #0
 8000370:	fa03 f20e 	lsl.w	r2, r3, lr
 8000374:	1880      	adds	r0, r0, r2
 8000376:	fa43 f305 	asr.w	r3, r3, r5
 800037a:	4159      	adcs	r1, r3
 800037c:	e00e      	b.n	800039c <__adddf3+0xd0>
 800037e:	f1a5 0520 	sub.w	r5, r5, #32
 8000382:	f10e 0e20 	add.w	lr, lr, #32
 8000386:	2a01      	cmp	r2, #1
 8000388:	fa03 fc0e 	lsl.w	ip, r3, lr
 800038c:	bf28      	it	cs
 800038e:	f04c 0c02 	orrcs.w	ip, ip, #2
 8000392:	fa43 f305 	asr.w	r3, r3, r5
 8000396:	18c0      	adds	r0, r0, r3
 8000398:	eb51 71e3 	adcs.w	r1, r1, r3, asr #31
 800039c:	f001 4500 	and.w	r5, r1, #2147483648	@ 0x80000000
 80003a0:	d507      	bpl.n	80003b2 <__adddf3+0xe6>
 80003a2:	f04f 0e00 	mov.w	lr, #0
 80003a6:	f1dc 0c00 	rsbs	ip, ip, #0
 80003aa:	eb7e 0000 	sbcs.w	r0, lr, r0
 80003ae:	eb6e 0101 	sbc.w	r1, lr, r1
 80003b2:	f5b1 1f80 	cmp.w	r1, #1048576	@ 0x100000
 80003b6:	d31b      	bcc.n	80003f0 <__adddf3+0x124>
 80003b8:	f5b1 1f00 	cmp.w	r1, #2097152	@ 0x200000
 80003bc:	d30c      	bcc.n	80003d8 <__adddf3+0x10c>
 80003be:	0849      	lsrs	r1, r1, #1
 80003c0:	ea5f 0030 	movs.w	r0, r0, rrx
 80003c4:	ea4f 0c3c 	mov.w	ip, ip, rrx
 80003c8:	f104 0401 	add.w	r4, r4, #1
 80003cc:	ea4f 5244 	mov.w	r2, r4, lsl #21
 80003d0:	f512 0f80 	cmn.w	r2, #4194304	@ 0x400000
 80003d4:	f080 809a 	bcs.w	800050c <__adddf3+0x240>
 80003d8:	f1bc 4f00 	cmp.w	ip, #2147483648	@ 0x80000000
 80003dc:	bf08      	it	eq
 80003de:	ea5f 0c50 	movseq.w	ip, r0, lsr #1
 80003e2:	f150 0000 	adcs.w	r0, r0, #0
 80003e6:	eb41 5104 	adc.w	r1, r1, r4, lsl #20
 80003ea:	ea41 0105 	orr.w	r1, r1, r5
 80003ee:	bd30      	pop	{r4, r5, pc}
 80003f0:	ea5f 0c4c 	movs.w	ip, ip, lsl #1
 80003f4:	4140      	adcs	r0, r0
 80003f6:	eb41 0101 	adc.w	r1, r1, r1
 80003fa:	3c01      	subs	r4, #1
 80003fc:	bf28      	it	cs
 80003fe:	f5b1 1f80 	cmpcs.w	r1, #1048576	@ 0x100000
 8000402:	d2e9      	bcs.n	80003d8 <__adddf3+0x10c>
 8000404:	f091 0f00 	teq	r1, #0
 8000408:	bf04      	itt	eq
 800040a:	4601      	moveq	r1, r0
 800040c:	2000      	moveq	r0, #0
 800040e:	fab1 f381 	clz	r3, r1
 8000412:	bf08      	it	eq
 8000414:	3320      	addeq	r3, #32
 8000416:	f1a3 030b 	sub.w	r3, r3, #11
 800041a:	f1b3 0220 	subs.w	r2, r3, #32
 800041e:	da0c      	bge.n	800043a <__adddf3+0x16e>
 8000420:	320c      	adds	r2, #12
 8000422:	dd08      	ble.n	8000436 <__adddf3+0x16a>
 8000424:	f102 0c14 	add.w	ip, r2, #20
 8000428:	f1c2 020c 	rsb	r2, r2, #12
 800042c:	fa01 f00c 	lsl.w	r0, r1, ip
 8000430:	fa21 f102 	lsr.w	r1, r1, r2
 8000434:	e00c      	b.n	8000450 <__adddf3+0x184>
 8000436:	f102 0214 	add.w	r2, r2, #20
 800043a:	bfd8      	it	le
 800043c:	f1c2 0c20 	rsble	ip, r2, #32
 8000440:	fa01 f102 	lsl.w	r1, r1, r2
 8000444:	fa20 fc0c 	lsr.w	ip, r0, ip
 8000448:	bfdc      	itt	le
 800044a:	ea41 010c 	orrle.w	r1, r1, ip
 800044e:	4090      	lslle	r0, r2
 8000450:	1ae4      	subs	r4, r4, r3
 8000452:	bfa2      	ittt	ge
 8000454:	eb01 5104 	addge.w	r1, r1, r4, lsl #20
 8000458:	4329      	orrge	r1, r5
 800045a:	bd30      	popge	{r4, r5, pc}
 800045c:	ea6f 0404 	mvn.w	r4, r4
 8000460:	3c1f      	subs	r4, #31
 8000462:	da1c      	bge.n	800049e <__adddf3+0x1d2>
 8000464:	340c      	adds	r4, #12
 8000466:	dc0e      	bgt.n	8000486 <__adddf3+0x1ba>
 8000468:	f104 0414 	add.w	r4, r4, #20
 800046c:	f1c4 0220 	rsb	r2, r4, #32
 8000470:	fa20 f004 	lsr.w	r0, r0, r4
 8000474:	fa01 f302 	lsl.w	r3, r1, r2
 8000478:	ea40 0003 	orr.w	r0, r0, r3
 800047c:	fa21 f304 	lsr.w	r3, r1, r4
 8000480:	ea45 0103 	orr.w	r1, r5, r3
 8000484:	bd30      	pop	{r4, r5, pc}
 8000486:	f1c4 040c 	rsb	r4, r4, #12
 800048a:	f1c4 0220 	rsb	r2, r4, #32
 800048e:	fa20 f002 	lsr.w	r0, r0, r2
 8000492:	fa01 f304 	lsl.w	r3, r1, r4
 8000496:	ea40 0003 	orr.w	r0, r0, r3
 800049a:	4629      	mov	r1, r5
 800049c:	bd30      	pop	{r4, r5, pc}
 800049e:	fa21 f004 	lsr.w	r0, r1, r4
 80004a2:	4629      	mov	r1, r5
 80004a4:	bd30      	pop	{r4, r5, pc}
 80004a6:	f094 0f00 	teq	r4, #0
 80004aa:	f483 1380 	eor.w	r3, r3, #1048576	@ 0x100000
 80004ae:	bf06      	itte	eq
 80004b0:	f481 1180 	eoreq.w	r1, r1, #1048576	@ 0x100000
 80004b4:	3401      	addeq	r4, #1
 80004b6:	3d01      	subne	r5, #1
 80004b8:	e74e      	b.n	8000358 <__adddf3+0x8c>
 80004ba:	ea7f 5c64 	mvns.w	ip, r4, asr #21
 80004be:	bf18      	it	ne
 80004c0:	ea7f 5c65 	mvnsne.w	ip, r5, asr #21
 80004c4:	d029      	beq.n	800051a <__adddf3+0x24e>
 80004c6:	ea94 0f05 	teq	r4, r5
 80004ca:	bf08      	it	eq
 80004cc:	ea90 0f02 	teqeq	r0, r2
 80004d0:	d005      	beq.n	80004de <__adddf3+0x212>
 80004d2:	ea54 0c00 	orrs.w	ip, r4, r0
 80004d6:	bf04      	itt	eq
 80004d8:	4619      	moveq	r1, r3
 80004da:	4610      	moveq	r0, r2
 80004dc:	bd30      	pop	{r4, r5, pc}
 80004de:	ea91 0f03 	teq	r1, r3
 80004e2:	bf1e      	ittt	ne
 80004e4:	2100      	movne	r1, #0
 80004e6:	2000      	movne	r0, #0
 80004e8:	bd30      	popne	{r4, r5, pc}
 80004ea:	ea5f 5c54 	movs.w	ip, r4, lsr #21
 80004ee:	d105      	bne.n	80004fc <__adddf3+0x230>
 80004f0:	0040      	lsls	r0, r0, #1
 80004f2:	4149      	adcs	r1, r1
 80004f4:	bf28      	it	cs
 80004f6:	f041 4100 	orrcs.w	r1, r1, #2147483648	@ 0x80000000
 80004fa:	bd30      	pop	{r4, r5, pc}
 80004fc:	f514 0480 	adds.w	r4, r4, #4194304	@ 0x400000
 8000500:	bf3c      	itt	cc
 8000502:	f501 1180 	addcc.w	r1, r1, #1048576	@ 0x100000
 8000506:	bd30      	popcc	{r4, r5, pc}
 8000508:	f001 4500 	and.w	r5, r1, #2147483648	@ 0x80000000
 800050c:	f045 41fe 	orr.w	r1, r5, #2130706432	@ 0x7f000000
 8000510:	f441 0170 	orr.w	r1, r1, #15728640	@ 0xf00000
 8000514:	f04f 0000 	mov.w	r0, #0
 8000518:	bd30      	pop	{r4, r5, pc}
 800051a:	ea7f 5c64 	mvns.w	ip, r4, asr #21
 800051e:	bf1a      	itte	ne
 8000520:	4619      	movne	r1, r3
 8000522:	4610      	movne	r0, r2
 8000524:	ea7f 5c65 	mvnseq.w	ip, r5, asr #21
 8000528:	bf1c      	itt	ne
 800052a:	460b      	movne	r3, r1
 800052c:	4602      	movne	r2, r0
 800052e:	ea50 3401 	orrs.w	r4, r0, r1, lsl #12
 8000532:	bf06      	itte	eq
 8000534:	ea52 3503 	orrseq.w	r5, r2, r3, lsl #12
 8000538:	ea91 0f03 	teqeq	r1, r3
 800053c:	f441 2100 	orrne.w	r1, r1, #524288	@ 0x80000
 8000540:	bd30      	pop	{r4, r5, pc}
 8000542:	bf00      	nop

08000544 <__aeabi_ui2d>:
 8000544:	f090 0f00 	teq	r0, #0
 8000548:	bf04      	itt	eq
 800054a:	2100      	moveq	r1, #0
 800054c:	4770      	bxeq	lr
 800054e:	b530      	push	{r4, r5, lr}
 8000550:	f44f 6480 	mov.w	r4, #1024	@ 0x400
 8000554:	f104 0432 	add.w	r4, r4, #50	@ 0x32
 8000558:	f04f 0500 	mov.w	r5, #0
 800055c:	f04f 0100 	mov.w	r1, #0
 8000560:	e750      	b.n	8000404 <__adddf3+0x138>
 8000562:	bf00      	nop

08000564 <__aeabi_i2d>:
 8000564:	f090 0f00 	teq	r0, #0
 8000568:	bf04      	itt	eq
 800056a:	2100      	moveq	r1, #0
 800056c:	4770      	bxeq	lr
 800056e:	b530      	push	{r4, r5, lr}
 8000570:	f44f 6480 	mov.w	r4, #1024	@ 0x400
 8000574:	f104 0432 	add.w	r4, r4, #50	@ 0x32
 8000578:	f010 4500 	ands.w	r5, r0, #2147483648	@ 0x80000000
 800057c:	bf48      	it	mi
 800057e:	4240      	negmi	r0, r0
 8000580:	f04f 0100 	mov.w	r1, #0
 8000584:	e73e      	b.n	8000404 <__adddf3+0x138>
 8000586:	bf00      	nop

08000588 <__aeabi_f2d>:
 8000588:	0042      	lsls	r2, r0, #1
 800058a:	ea4f 01e2 	mov.w	r1, r2, asr #3
 800058e:	ea4f 0131 	mov.w	r1, r1, rrx
 8000592:	ea4f 7002 	mov.w	r0, r2, lsl #28
 8000596:	bf1f      	itttt	ne
 8000598:	f012 437f 	andsne.w	r3, r2, #4278190080	@ 0xff000000
 800059c:	f093 4f7f 	teqne	r3, #4278190080	@ 0xff000000
 80005a0:	f081 5160 	eorne.w	r1, r1, #939524096	@ 0x38000000
 80005a4:	4770      	bxne	lr
 80005a6:	f032 427f 	bics.w	r2, r2, #4278190080	@ 0xff000000
 80005aa:	bf08      	it	eq
 80005ac:	4770      	bxeq	lr
 80005ae:	f093 4f7f 	teq	r3, #4278190080	@ 0xff000000
 80005b2:	bf04      	itt	eq
 80005b4:	f441 2100 	orreq.w	r1, r1, #524288	@ 0x80000
 80005b8:	4770      	bxeq	lr
 80005ba:	b530      	push	{r4, r5, lr}
 80005bc:	f44f 7460 	mov.w	r4, #896	@ 0x380
 80005c0:	f001 4500 	and.w	r5, r1, #2147483648	@ 0x80000000
 80005c4:	f021 4100 	bic.w	r1, r1, #2147483648	@ 0x80000000
 80005c8:	e71c      	b.n	8000404 <__adddf3+0x138>
 80005ca:	bf00      	nop

080005cc <__aeabi_ul2d>:
 80005cc:	ea50 0201 	orrs.w	r2, r0, r1
 80005d0:	bf08      	it	eq
 80005d2:	4770      	bxeq	lr
 80005d4:	b530      	push	{r4, r5, lr}
 80005d6:	f04f 0500 	mov.w	r5, #0
 80005da:	e00a      	b.n	80005f2 <__aeabi_l2d+0x16>

080005dc <__aeabi_l2d>:
 80005dc:	ea50 0201 	orrs.w	r2, r0, r1
 80005e0:	bf08      	it	eq
 80005e2:	4770      	bxeq	lr
 80005e4:	b530      	push	{r4, r5, lr}
 80005e6:	f011 4500 	ands.w	r5, r1, #2147483648	@ 0x80000000
 80005ea:	d502      	bpl.n	80005f2 <__aeabi_l2d+0x16>
 80005ec:	4240      	negs	r0, r0
 80005ee:	eb61 0141 	sbc.w	r1, r1, r1, lsl #1
 80005f2:	f44f 6480 	mov.w	r4, #1024	@ 0x400
 80005f6:	f104 0432 	add.w	r4, r4, #50	@ 0x32
 80005fa:	ea5f 5c91 	movs.w	ip, r1, lsr #22
 80005fe:	f43f aed8 	beq.w	80003b2 <__adddf3+0xe6>
 8000602:	f04f 0203 	mov.w	r2, #3
 8000606:	ea5f 0cdc 	movs.w	ip, ip, lsr #3
 800060a:	bf18      	it	ne
 800060c:	3203      	addne	r2, #3
 800060e:	ea5f 0cdc 	movs.w	ip, ip, lsr #3
 8000612:	bf18      	it	ne
 8000614:	3203      	addne	r2, #3
 8000616:	eb02 02dc 	add.w	r2, r2, ip, lsr #3
 800061a:	f1c2 0320 	rsb	r3, r2, #32
 800061e:	fa00 fc03 	lsl.w	ip, r0, r3
 8000622:	fa20 f002 	lsr.w	r0, r0, r2
 8000626:	fa01 fe03 	lsl.w	lr, r1, r3
 800062a:	ea40 000e 	orr.w	r0, r0, lr
 800062e:	fa21 f102 	lsr.w	r1, r1, r2
 8000632:	4414      	add	r4, r2
 8000634:	e6bd      	b.n	80003b2 <__adddf3+0xe6>
 8000636:	bf00      	nop

08000638 <__aeabi_dmul>:
 8000638:	b570      	push	{r4, r5, r6, lr}
 800063a:	f04f 0cff 	mov.w	ip, #255	@ 0xff
 800063e:	f44c 6ce0 	orr.w	ip, ip, #1792	@ 0x700
 8000642:	ea1c 5411 	ands.w	r4, ip, r1, lsr #20
 8000646:	bf1d      	ittte	ne
 8000648:	ea1c 5513 	andsne.w	r5, ip, r3, lsr #20
 800064c:	ea94 0f0c 	teqne	r4, ip
 8000650:	ea95 0f0c 	teqne	r5, ip
 8000654:	f000 f8de 	bleq	8000814 <__aeabi_dmul+0x1dc>
 8000658:	442c      	add	r4, r5
 800065a:	ea81 0603 	eor.w	r6, r1, r3
 800065e:	ea21 514c 	bic.w	r1, r1, ip, lsl #21
 8000662:	ea23 534c 	bic.w	r3, r3, ip, lsl #21
 8000666:	ea50 3501 	orrs.w	r5, r0, r1, lsl #12
 800066a:	bf18      	it	ne
 800066c:	ea52 3503 	orrsne.w	r5, r2, r3, lsl #12
 8000670:	f441 1180 	orr.w	r1, r1, #1048576	@ 0x100000
 8000674:	f443 1380 	orr.w	r3, r3, #1048576	@ 0x100000
 8000678:	d038      	beq.n	80006ec <__aeabi_dmul+0xb4>
 800067a:	fba0 ce02 	umull	ip, lr, r0, r2
 800067e:	f04f 0500 	mov.w	r5, #0
 8000682:	fbe1 e502 	umlal	lr, r5, r1, r2
 8000686:	f006 4200 	and.w	r2, r6, #2147483648	@ 0x80000000
 800068a:	fbe0 e503 	umlal	lr, r5, r0, r3
 800068e:	f04f 0600 	mov.w	r6, #0
 8000692:	fbe1 5603 	umlal	r5, r6, r1, r3
 8000696:	f09c 0f00 	teq	ip, #0
 800069a:	bf18      	it	ne
 800069c:	f04e 0e01 	orrne.w	lr, lr, #1
 80006a0:	f1a4 04ff 	sub.w	r4, r4, #255	@ 0xff
 80006a4:	f5b6 7f00 	cmp.w	r6, #512	@ 0x200
 80006a8:	f564 7440 	sbc.w	r4, r4, #768	@ 0x300
 80006ac:	d204      	bcs.n	80006b8 <__aeabi_dmul+0x80>
 80006ae:	ea5f 0e4e 	movs.w	lr, lr, lsl #1
 80006b2:	416d      	adcs	r5, r5
 80006b4:	eb46 0606 	adc.w	r6, r6, r6
 80006b8:	ea42 21c6 	orr.w	r1, r2, r6, lsl #11
 80006bc:	ea41 5155 	orr.w	r1, r1, r5, lsr #21
 80006c0:	ea4f 20c5 	mov.w	r0, r5, lsl #11
 80006c4:	ea40 505e 	orr.w	r0, r0, lr, lsr #21
 80006c8:	ea4f 2ece 	mov.w	lr, lr, lsl #11
 80006cc:	f1b4 0cfd 	subs.w	ip, r4, #253	@ 0xfd
 80006d0:	bf88      	it	hi
 80006d2:	f5bc 6fe0 	cmphi.w	ip, #1792	@ 0x700
 80006d6:	d81e      	bhi.n	8000716 <__aeabi_dmul+0xde>
 80006d8:	f1be 4f00 	cmp.w	lr, #2147483648	@ 0x80000000
 80006dc:	bf08      	it	eq
 80006de:	ea5f 0e50 	movseq.w	lr, r0, lsr #1
 80006e2:	f150 0000 	adcs.w	r0, r0, #0
 80006e6:	eb41 5104 	adc.w	r1, r1, r4, lsl #20
 80006ea:	bd70      	pop	{r4, r5, r6, pc}
 80006ec:	f006 4600 	and.w	r6, r6, #2147483648	@ 0x80000000
 80006f0:	ea46 0101 	orr.w	r1, r6, r1
 80006f4:	ea40 0002 	orr.w	r0, r0, r2
 80006f8:	ea81 0103 	eor.w	r1, r1, r3
 80006fc:	ebb4 045c 	subs.w	r4, r4, ip, lsr #1
 8000700:	bfc2      	ittt	gt
 8000702:	ebd4 050c 	rsbsgt	r5, r4, ip
 8000706:	ea41 5104 	orrgt.w	r1, r1, r4, lsl #20
 800070a:	bd70      	popgt	{r4, r5, r6, pc}
 800070c:	f441 1180 	orr.w	r1, r1, #1048576	@ 0x100000
 8000710:	f04f 0e00 	mov.w	lr, #0
 8000714:	3c01      	subs	r4, #1
 8000716:	f300 80ab 	bgt.w	8000870 <__aeabi_dmul+0x238>
 800071a:	f114 0f36 	cmn.w	r4, #54	@ 0x36
 800071e:	bfde      	ittt	le
 8000720:	2000      	movle	r0, #0
 8000722:	f001 4100 	andle.w	r1, r1, #2147483648	@ 0x80000000
 8000726:	bd70      	pople	{r4, r5, r6, pc}
 8000728:	f1c4 0400 	rsb	r4, r4, #0
 800072c:	3c20      	subs	r4, #32
 800072e:	da35      	bge.n	800079c <__aeabi_dmul+0x164>
 8000730:	340c      	adds	r4, #12
 8000732:	dc1b      	bgt.n	800076c <__aeabi_dmul+0x134>
 8000734:	f104 0414 	add.w	r4, r4, #20
 8000738:	f1c4 0520 	rsb	r5, r4, #32
 800073c:	fa00 f305 	lsl.w	r3, r0, r5
 8000740:	fa20 f004 	lsr.w	r0, r0, r4
 8000744:	fa01 f205 	lsl.w	r2, r1, r5
 8000748:	ea40 0002 	orr.w	r0, r0, r2
 800074c:	f001 4200 	and.w	r2, r1, #2147483648	@ 0x80000000
 8000750:	f021 4100 	bic.w	r1, r1, #2147483648	@ 0x80000000
 8000754:	eb10 70d3 	adds.w	r0, r0, r3, lsr #31
 8000758:	fa21 f604 	lsr.w	r6, r1, r4
 800075c:	eb42 0106 	adc.w	r1, r2, r6
 8000760:	ea5e 0e43 	orrs.w	lr, lr, r3, lsl #1
 8000764:	bf08      	it	eq
 8000766:	ea20 70d3 	biceq.w	r0, r0, r3, lsr #31
 800076a:	bd70      	pop	{r4, r5, r6, pc}
 800076c:	f1c4 040c 	rsb	r4, r4, #12
 8000770:	f1c4 0520 	rsb	r5, r4, #32
 8000774:	fa00 f304 	lsl.w	r3, r0, r4
 8000778:	fa20 f005 	lsr.w	r0, r0, r5
 800077c:	fa01 f204 	lsl.w	r2, r1, r4
 8000780:	ea40 0002 	orr.w	r0, r0, r2
 8000784:	f001 4100 	and.w	r1, r1, #2147483648	@ 0x80000000
 8000788:	eb10 70d3 	adds.w	r0, r0, r3, lsr #31
 800078c:	f141 0100 	adc.w	r1, r1, #0
 8000790:	ea5e 0e43 	orrs.w	lr, lr, r3, lsl #1
 8000794:	bf08      	it	eq
 8000796:	ea20 70d3 	biceq.w	r0, r0, r3, lsr #31
 800079a:	bd70      	pop	{r4, r5, r6, pc}
 800079c:	f1c4 0520 	rsb	r5, r4, #32
 80007a0:	fa00 f205 	lsl.w	r2, r0, r5
 80007a4:	ea4e 0e02 	orr.w	lr, lr, r2
 80007a8:	fa20 f304 	lsr.w	r3, r0, r4
 80007ac:	fa01 f205 	lsl.w	r2, r1, r5
 80007b0:	ea43 0302 	orr.w	r3, r3, r2
 80007b4:	fa21 f004 	lsr.w	r0, r1, r4
 80007b8:	f001 4100 	and.w	r1, r1, #2147483648	@ 0x80000000
 80007bc:	fa21 f204 	lsr.w	r2, r1, r4
 80007c0:	ea20 0002 	bic.w	r0, r0, r2
 80007c4:	eb00 70d3 	add.w	r0, r0, r3, lsr #31
 80007c8:	ea5e 0e43 	orrs.w	lr, lr, r3, lsl #1
 80007cc:	bf08      	it	eq
 80007ce:	ea20 70d3 	biceq.w	r0, r0, r3, lsr #31
 80007d2:	bd70      	pop	{r4, r5, r6, pc}
 80007d4:	f094 0f00 	teq	r4, #0
 80007d8:	d10f      	bne.n	80007fa <__aeabi_dmul+0x1c2>
 80007da:	f001 4600 	and.w	r6, r1, #2147483648	@ 0x80000000
 80007de:	0040      	lsls	r0, r0, #1
 80007e0:	eb41 0101 	adc.w	r1, r1, r1
 80007e4:	f411 1f80 	tst.w	r1, #1048576	@ 0x100000
 80007e8:	bf08      	it	eq
 80007ea:	3c01      	subeq	r4, #1
 80007ec:	d0f7      	beq.n	80007de <__aeabi_dmul+0x1a6>
 80007ee:	ea41 0106 	orr.w	r1, r1, r6
 80007f2:	f095 0f00 	teq	r5, #0
 80007f6:	bf18      	it	ne
 80007f8:	4770      	bxne	lr
 80007fa:	f003 4600 	and.w	r6, r3, #2147483648	@ 0x80000000
 80007fe:	0052      	lsls	r2, r2, #1
 8000800:	eb43 0303 	adc.w	r3, r3, r3
 8000804:	f413 1f80 	tst.w	r3, #1048576	@ 0x100000
 8000808:	bf08      	it	eq
 800080a:	3d01      	subeq	r5, #1
 800080c:	d0f7      	beq.n	80007fe <__aeabi_dmul+0x1c6>
 800080e:	ea43 0306 	orr.w	r3, r3, r6
 8000812:	4770      	bx	lr
 8000814:	ea94 0f0c 	teq	r4, ip
 8000818:	ea0c 5513 	and.w	r5, ip, r3, lsr #20
 800081c:	bf18      	it	ne
 800081e:	ea95 0f0c 	teqne	r5, ip
 8000822:	d00c      	beq.n	800083e <__aeabi_dmul+0x206>
 8000824:	ea50 0641 	orrs.w	r6, r0, r1, lsl #1
 8000828:	bf18      	it	ne
 800082a:	ea52 0643 	orrsne.w	r6, r2, r3, lsl #1
 800082e:	d1d1      	bne.n	80007d4 <__aeabi_dmul+0x19c>
 8000830:	ea81 0103 	eor.w	r1, r1, r3
 8000834:	f001 4100 	and.w	r1, r1, #2147483648	@ 0x80000000
 8000838:	f04f 0000 	mov.w	r0, #0
 800083c:	bd70      	pop	{r4, r5, r6, pc}
 800083e:	ea50 0641 	orrs.w	r6, r0, r1, lsl #1
 8000842:	bf06      	itte	eq
 8000844:	4610      	moveq	r0, r2
 8000846:	4619      	moveq	r1, r3
 8000848:	ea52 0643 	orrsne.w	r6, r2, r3, lsl #1
 800084c:	d019      	beq.n	8000882 <__aeabi_dmul+0x24a>
 800084e:	ea94 0f0c 	teq	r4, ip
 8000852:	d102      	bne.n	800085a <__aeabi_dmul+0x222>
 8000854:	ea50 3601 	orrs.w	r6, r0, r1, lsl #12
 8000858:	d113      	bne.n	8000882 <__aeabi_dmul+0x24a>
 800085a:	ea95 0f0c 	teq	r5, ip
 800085e:	d105      	bne.n	800086c <__aeabi_dmul+0x234>
 8000860:	ea52 3603 	orrs.w	r6, r2, r3, lsl #12
 8000864:	bf1c      	itt	ne
 8000866:	4610      	movne	r0, r2
 8000868:	4619      	movne	r1, r3
 800086a:	d10a      	bne.n	8000882 <__aeabi_dmul+0x24a>
 800086c:	ea81 0103 	eor.w	r1, r1, r3
 8000870:	f001 4100 	and.w	r1, r1, #2147483648	@ 0x80000000
 8000874:	f041 41fe 	orr.w	r1, r1, #2130706432	@ 0x7f000000
 8000878:	f441 0170 	orr.w	r1, r1, #15728640	@ 0xf00000
 800087c:	f04f 0000 	mov.w	r0, #0
 8000880:	bd70      	pop	{r4, r5, r6, pc}
 8000882:	f041 41fe 	orr.w	r1, r1, #2130706432	@ 0x7f000000
 8000886:	f441 0178 	orr.w	r1, r1, #16252928	@ 0xf80000
 800088a:	bd70      	pop	{r4, r5, r6, pc}

0800088c <__aeabi_ddiv>:
 800088c:	b570      	push	{r4, r5, r6, lr}
 800088e:	f04f 0cff 	mov.w	ip, #255	@ 0xff
 8000892:	f44c 6ce0 	orr.w	ip, ip, #1792	@ 0x700
 8000896:	ea1c 5411 	ands.w	r4, ip, r1, lsr #20
 800089a:	bf1d      	ittte	ne
 800089c:	ea1c 5513 	andsne.w	r5, ip, r3, lsr #20
 80008a0:	ea94 0f0c 	teqne	r4, ip
 80008a4:	ea95 0f0c 	teqne	r5, ip
 80008a8:	f000 f8a7 	bleq	80009fa <__aeabi_ddiv+0x16e>
 80008ac:	eba4 0405 	sub.w	r4, r4, r5
 80008b0:	ea81 0e03 	eor.w	lr, r1, r3
 80008b4:	ea52 3503 	orrs.w	r5, r2, r3, lsl #12
 80008b8:	ea4f 3101 	mov.w	r1, r1, lsl #12
 80008bc:	f000 8088 	beq.w	80009d0 <__aeabi_ddiv+0x144>
 80008c0:	ea4f 3303 	mov.w	r3, r3, lsl #12
 80008c4:	f04f 5580 	mov.w	r5, #268435456	@ 0x10000000
 80008c8:	ea45 1313 	orr.w	r3, r5, r3, lsr #4
 80008cc:	ea43 6312 	orr.w	r3, r3, r2, lsr #24
 80008d0:	ea4f 2202 	mov.w	r2, r2, lsl #8
 80008d4:	ea45 1511 	orr.w	r5, r5, r1, lsr #4
 80008d8:	ea45 6510 	orr.w	r5, r5, r0, lsr #24
 80008dc:	ea4f 2600 	mov.w	r6, r0, lsl #8
 80008e0:	f00e 4100 	and.w	r1, lr, #2147483648	@ 0x80000000
 80008e4:	429d      	cmp	r5, r3
 80008e6:	bf08      	it	eq
 80008e8:	4296      	cmpeq	r6, r2
 80008ea:	f144 04fd 	adc.w	r4, r4, #253	@ 0xfd
 80008ee:	f504 7440 	add.w	r4, r4, #768	@ 0x300
 80008f2:	d202      	bcs.n	80008fa <__aeabi_ddiv+0x6e>
 80008f4:	085b      	lsrs	r3, r3, #1
 80008f6:	ea4f 0232 	mov.w	r2, r2, rrx
 80008fa:	1ab6      	subs	r6, r6, r2
 80008fc:	eb65 0503 	sbc.w	r5, r5, r3
 8000900:	085b      	lsrs	r3, r3, #1
 8000902:	ea4f 0232 	mov.w	r2, r2, rrx
 8000906:	f44f 1080 	mov.w	r0, #1048576	@ 0x100000
 800090a:	f44f 2c00 	mov.w	ip, #524288	@ 0x80000
 800090e:	ebb6 0e02 	subs.w	lr, r6, r2
 8000912:	eb75 0e03 	sbcs.w	lr, r5, r3
 8000916:	bf22      	ittt	cs
 8000918:	1ab6      	subcs	r6, r6, r2
 800091a:	4675      	movcs	r5, lr
 800091c:	ea40 000c 	orrcs.w	r0, r0, ip
 8000920:	085b      	lsrs	r3, r3, #1
 8000922:	ea4f 0232 	mov.w	r2, r2, rrx
 8000926:	ebb6 0e02 	subs.w	lr, r6, r2
 800092a:	eb75 0e03 	sbcs.w	lr, r5, r3
 800092e:	bf22      	ittt	cs
 8000930:	1ab6      	subcs	r6, r6, r2
 8000932:	4675      	movcs	r5, lr
 8000934:	ea40 005c 	orrcs.w	r0, r0, ip, lsr #1
 8000938:	085b      	lsrs	r3, r3, #1
 800093a:	ea4f 0232 	mov.w	r2, r2, rrx
 800093e:	ebb6 0e02 	subs.w	lr, r6, r2
 8000942:	eb75 0e03 	sbcs.w	lr, r5, r3
 8000946:	bf22      	ittt	cs
 8000948:	1ab6      	subcs	r6, r6, r2
 800094a:	4675      	movcs	r5, lr
 800094c:	ea40 009c 	orrcs.w	r0, r0, ip, lsr #2
 8000950:	085b      	lsrs	r3, r3, #1
 8000952:	ea4f 0232 	mov.w	r2, r2, rrx
 8000956:	ebb6 0e02 	subs.w	lr, r6, r2
 800095a:	eb75 0e03 	sbcs.w	lr, r5, r3
 800095e:	bf22      	ittt	cs
 8000960:	1ab6      	subcs	r6, r6, r2
 8000962:	4675      	movcs	r5, lr
 8000964:	ea40 00dc 	orrcs.w	r0, r0, ip, lsr #3
 8000968:	ea55 0e06 	orrs.w	lr, r5, r6
 800096c:	d018      	beq.n	80009a0 <__aeabi_ddiv+0x114>
 800096e:	ea4f 1505 	mov.w	r5, r5, lsl #4
 8000972:	ea45 7516 	orr.w	r5, r5, r6, lsr #28
 8000976:	ea4f 1606 	mov.w	r6, r6, lsl #4
 800097a:	ea4f 03c3 	mov.w	r3, r3, lsl #3
 800097e:	ea43 7352 	orr.w	r3, r3, r2, lsr #29
 8000982:	ea4f 02c2 	mov.w	r2, r2, lsl #3
 8000986:	ea5f 1c1c 	movs.w	ip, ip, lsr #4
 800098a:	d1c0      	bne.n	800090e <__aeabi_ddiv+0x82>
 800098c:	f411 1f80 	tst.w	r1, #1048576	@ 0x100000
 8000990:	d10b      	bne.n	80009aa <__aeabi_ddiv+0x11e>
 8000992:	ea41 0100 	orr.w	r1, r1, r0
 8000996:	f04f 0000 	mov.w	r0, #0
 800099a:	f04f 4c00 	mov.w	ip, #2147483648	@ 0x80000000
 800099e:	e7b6      	b.n	800090e <__aeabi_ddiv+0x82>
 80009a0:	f411 1f80 	tst.w	r1, #1048576	@ 0x100000
 80009a4:	bf04      	itt	eq
 80009a6:	4301      	orreq	r1, r0
 80009a8:	2000      	moveq	r0, #0
 80009aa:	f1b4 0cfd 	subs.w	ip, r4, #253	@ 0xfd
 80009ae:	bf88      	it	hi
 80009b0:	f5bc 6fe0 	cmphi.w	ip, #1792	@ 0x700
 80009b4:	f63f aeaf 	bhi.w	8000716 <__aeabi_dmul+0xde>
 80009b8:	ebb5 0c03 	subs.w	ip, r5, r3
 80009bc:	bf04      	itt	eq
 80009be:	ebb6 0c02 	subseq.w	ip, r6, r2
 80009c2:	ea5f 0c50 	movseq.w	ip, r0, lsr #1
 80009c6:	f150 0000 	adcs.w	r0, r0, #0
 80009ca:	eb41 5104 	adc.w	r1, r1, r4, lsl #20
 80009ce:	bd70      	pop	{r4, r5, r6, pc}
 80009d0:	f00e 4e00 	and.w	lr, lr, #2147483648	@ 0x80000000
 80009d4:	ea4e 3111 	orr.w	r1, lr, r1, lsr #12
 80009d8:	eb14 045c 	adds.w	r4, r4, ip, lsr #1
 80009dc:	bfc2      	ittt	gt
 80009de:	ebd4 050c 	rsbsgt	r5, r4, ip
 80009e2:	ea41 5104 	orrgt.w	r1, r1, r4, lsl #20
 80009e6:	bd70      	popgt	{r4, r5, r6, pc}
 80009e8:	f441 1180 	orr.w	r1, r1, #1048576	@ 0x100000
 80009ec:	f04f 0e00 	mov.w	lr, #0
 80009f0:	3c01      	subs	r4, #1
 80009f2:	e690      	b.n	8000716 <__aeabi_dmul+0xde>
 80009f4:	ea45 0e06 	orr.w	lr, r5, r6
 80009f8:	e68d      	b.n	8000716 <__aeabi_dmul+0xde>
 80009fa:	ea0c 5513 	and.w	r5, ip, r3, lsr #20
 80009fe:	ea94 0f0c 	teq	r4, ip
 8000a02:	bf08      	it	eq
 8000a04:	ea95 0f0c 	teqeq	r5, ip
 8000a08:	f43f af3b 	beq.w	8000882 <__aeabi_dmul+0x24a>
 8000a0c:	ea94 0f0c 	teq	r4, ip
 8000a10:	d10a      	bne.n	8000a28 <__aeabi_ddiv+0x19c>
 8000a12:	ea50 3401 	orrs.w	r4, r0, r1, lsl #12
 8000a16:	f47f af34 	bne.w	8000882 <__aeabi_dmul+0x24a>
 8000a1a:	ea95 0f0c 	teq	r5, ip
 8000a1e:	f47f af25 	bne.w	800086c <__aeabi_dmul+0x234>
 8000a22:	4610      	mov	r0, r2
 8000a24:	4619      	mov	r1, r3
 8000a26:	e72c      	b.n	8000882 <__aeabi_dmul+0x24a>
 8000a28:	ea95 0f0c 	teq	r5, ip
 8000a2c:	d106      	bne.n	8000a3c <__aeabi_ddiv+0x1b0>
 8000a2e:	ea52 3503 	orrs.w	r5, r2, r3, lsl #12
 8000a32:	f43f aefd 	beq.w	8000830 <__aeabi_dmul+0x1f8>
 8000a36:	4610      	mov	r0, r2
 8000a38:	4619      	mov	r1, r3
 8000a3a:	e722      	b.n	8000882 <__aeabi_dmul+0x24a>
 8000a3c:	ea50 0641 	orrs.w	r6, r0, r1, lsl #1
 8000a40:	bf18      	it	ne
 8000a42:	ea52 0643 	orrsne.w	r6, r2, r3, lsl #1
 8000a46:	f47f aec5 	bne.w	80007d4 <__aeabi_dmul+0x19c>
 8000a4a:	ea50 0441 	orrs.w	r4, r0, r1, lsl #1
 8000a4e:	f47f af0d 	bne.w	800086c <__aeabi_dmul+0x234>
 8000a52:	ea52 0543 	orrs.w	r5, r2, r3, lsl #1
 8000a56:	f47f aeeb 	bne.w	8000830 <__aeabi_dmul+0x1f8>
 8000a5a:	e712      	b.n	8000882 <__aeabi_dmul+0x24a>

08000a5c <__gedf2>:
 8000a5c:	f04f 3cff 	mov.w	ip, #4294967295	@ 0xffffffff
 8000a60:	e006      	b.n	8000a70 <__cmpdf2+0x4>
 8000a62:	bf00      	nop

08000a64 <__ledf2>:
 8000a64:	f04f 0c01 	mov.w	ip, #1
 8000a68:	e002      	b.n	8000a70 <__cmpdf2+0x4>
 8000a6a:	bf00      	nop

08000a6c <__cmpdf2>:
 8000a6c:	f04f 0c01 	mov.w	ip, #1
 8000a70:	f84d cd04 	str.w	ip, [sp, #-4]!
 8000a74:	ea4f 0c41 	mov.w	ip, r1, lsl #1
 8000a78:	ea7f 5c6c 	mvns.w	ip, ip, asr #21
 8000a7c:	ea4f 0c43 	mov.w	ip, r3, lsl #1
 8000a80:	bf18      	it	ne
 8000a82:	ea7f 5c6c 	mvnsne.w	ip, ip, asr #21
 8000a86:	d01b      	beq.n	8000ac0 <__cmpdf2+0x54>
 8000a88:	b001      	add	sp, #4
 8000a8a:	ea50 0c41 	orrs.w	ip, r0, r1, lsl #1
 8000a8e:	bf0c      	ite	eq
 8000a90:	ea52 0c43 	orrseq.w	ip, r2, r3, lsl #1
 8000a94:	ea91 0f03 	teqne	r1, r3
 8000a98:	bf02      	ittt	eq
 8000a9a:	ea90 0f02 	teqeq	r0, r2
 8000a9e:	2000      	moveq	r0, #0
 8000aa0:	4770      	bxeq	lr
 8000aa2:	f110 0f00 	cmn.w	r0, #0
 8000aa6:	ea91 0f03 	teq	r1, r3
 8000aaa:	bf58      	it	pl
 8000aac:	4299      	cmppl	r1, r3
 8000aae:	bf08      	it	eq
 8000ab0:	4290      	cmpeq	r0, r2
 8000ab2:	bf2c      	ite	cs
 8000ab4:	17d8      	asrcs	r0, r3, #31
 8000ab6:	ea6f 70e3 	mvncc.w	r0, r3, asr #31
 8000aba:	f040 0001 	orr.w	r0, r0, #1
 8000abe:	4770      	bx	lr
 8000ac0:	ea4f 0c41 	mov.w	ip, r1, lsl #1
 8000ac4:	ea7f 5c6c 	mvns.w	ip, ip, asr #21
 8000ac8:	d102      	bne.n	8000ad0 <__cmpdf2+0x64>
 8000aca:	ea50 3c01 	orrs.w	ip, r0, r1, lsl #12
 8000ace:	d107      	bne.n	8000ae0 <__cmpdf2+0x74>
 8000ad0:	ea4f 0c43 	mov.w	ip, r3, lsl #1
 8000ad4:	ea7f 5c6c 	mvns.w	ip, ip, asr #21
 8000ad8:	d1d6      	bne.n	8000a88 <__cmpdf2+0x1c>
 8000ada:	ea52 3c03 	orrs.w	ip, r2, r3, lsl #12
 8000ade:	d0d3      	beq.n	8000a88 <__cmpdf2+0x1c>
 8000ae0:	f85d 0b04 	ldr.w	r0, [sp], #4
 8000ae4:	4770      	bx	lr
 8000ae6:	bf00      	nop

08000ae8 <__aeabi_cdrcmple>:
 8000ae8:	4684      	mov	ip, r0
 8000aea:	4610      	mov	r0, r2
 8000aec:	4662      	mov	r2, ip
 8000aee:	468c      	mov	ip, r1
 8000af0:	4619      	mov	r1, r3
 8000af2:	4663      	mov	r3, ip
 8000af4:	e000      	b.n	8000af8 <__aeabi_cdcmpeq>
 8000af6:	bf00      	nop

08000af8 <__aeabi_cdcmpeq>:
 8000af8:	b501      	push	{r0, lr}
 8000afa:	f7ff ffb7 	bl	8000a6c <__cmpdf2>
 8000afe:	2800      	cmp	r0, #0
 8000b00:	bf48      	it	mi
 8000b02:	f110 0f00 	cmnmi.w	r0, #0
 8000b06:	bd01      	pop	{r0, pc}

08000b08 <__aeabi_dcmpeq>:
 8000b08:	f84d ed08 	str.w	lr, [sp, #-8]!
 8000b0c:	f7ff fff4 	bl	8000af8 <__aeabi_cdcmpeq>
 8000b10:	bf0c      	ite	eq
 8000b12:	2001      	moveq	r0, #1
 8000b14:	2000      	movne	r0, #0
 8000b16:	f85d fb08 	ldr.w	pc, [sp], #8
 8000b1a:	bf00      	nop

08000b1c <__aeabi_dcmplt>:
 8000b1c:	f84d ed08 	str.w	lr, [sp, #-8]!
 8000b20:	f7ff ffea 	bl	8000af8 <__aeabi_cdcmpeq>
 8000b24:	bf34      	ite	cc
 8000b26:	2001      	movcc	r0, #1
 8000b28:	2000      	movcs	r0, #0
 8000b2a:	f85d fb08 	ldr.w	pc, [sp], #8
 8000b2e:	bf00      	nop

08000b30 <__aeabi_dcmple>:
 8000b30:	f84d ed08 	str.w	lr, [sp, #-8]!
 8000b34:	f7ff ffe0 	bl	8000af8 <__aeabi_cdcmpeq>
 8000b38:	bf94      	ite	ls
 8000b3a:	2001      	movls	r0, #1
 8000b3c:	2000      	movhi	r0, #0
 8000b3e:	f85d fb08 	ldr.w	pc, [sp], #8
 8000b42:	bf00      	nop

08000b44 <__aeabi_dcmpge>:
 8000b44:	f84d ed08 	str.w	lr, [sp, #-8]!
 8000b48:	f7ff ffce 	bl	8000ae8 <__aeabi_cdrcmple>
 8000b4c:	bf94      	ite	ls
 8000b4e:	2001      	movls	r0, #1
 8000b50:	2000      	movhi	r0, #0
 8000b52:	f85d fb08 	ldr.w	pc, [sp], #8
 8000b56:	bf00      	nop

08000b58 <__aeabi_dcmpgt>:
 8000b58:	f84d ed08 	str.w	lr, [sp, #-8]!
 8000b5c:	f7ff ffc4 	bl	8000ae8 <__aeabi_cdrcmple>
 8000b60:	bf34      	ite	cc
 8000b62:	2001      	movcc	r0, #1
 8000b64:	2000      	movcs	r0, #0
 8000b66:	f85d fb08 	ldr.w	pc, [sp], #8
 8000b6a:	bf00      	nop

08000b6c <__aeabi_dcmpun>:
 8000b6c:	ea4f 0c41 	mov.w	ip, r1, lsl #1
 8000b70:	ea7f 5c6c 	mvns.w	ip, ip, asr #21
 8000b74:	d102      	bne.n	8000b7c <__aeabi_dcmpun+0x10>
 8000b76:	ea50 3c01 	orrs.w	ip, r0, r1, lsl #12
 8000b7a:	d10a      	bne.n	8000b92 <__aeabi_dcmpun+0x26>
 8000b7c:	ea4f 0c43 	mov.w	ip, r3, lsl #1
 8000b80:	ea7f 5c6c 	mvns.w	ip, ip, asr #21
 8000b84:	d102      	bne.n	8000b8c <__aeabi_dcmpun+0x20>
 8000b86:	ea52 3c03 	orrs.w	ip, r2, r3, lsl #12
 8000b8a:	d102      	bne.n	8000b92 <__aeabi_dcmpun+0x26>
 8000b8c:	f04f 0000 	mov.w	r0, #0
 8000b90:	4770      	bx	lr
 8000b92:	f04f 0001 	mov.w	r0, #1
 8000b96:	4770      	bx	lr

08000b98 <__aeabi_d2iz>:
 8000b98:	ea4f 0241 	mov.w	r2, r1, lsl #1
 8000b9c:	f512 1200 	adds.w	r2, r2, #2097152	@ 0x200000
 8000ba0:	d215      	bcs.n	8000bce <__aeabi_d2iz+0x36>
 8000ba2:	d511      	bpl.n	8000bc8 <__aeabi_d2iz+0x30>
 8000ba4:	f46f 7378 	mvn.w	r3, #992	@ 0x3e0
 8000ba8:	ebb3 5262 	subs.w	r2, r3, r2, asr #21
 8000bac:	d912      	bls.n	8000bd4 <__aeabi_d2iz+0x3c>
 8000bae:	ea4f 23c1 	mov.w	r3, r1, lsl #11
 8000bb2:	f043 4300 	orr.w	r3, r3, #2147483648	@ 0x80000000
 8000bb6:	ea43 5350 	orr.w	r3, r3, r0, lsr #21
 8000bba:	f011 4f00 	tst.w	r1, #2147483648	@ 0x80000000
 8000bbe:	fa23 f002 	lsr.w	r0, r3, r2
 8000bc2:	bf18      	it	ne
 8000bc4:	4240      	negne	r0, r0
 8000bc6:	4770      	bx	lr
 8000bc8:	f04f 0000 	mov.w	r0, #0
 8000bcc:	4770      	bx	lr
 8000bce:	ea50 3001 	orrs.w	r0, r0, r1, lsl #12
 8000bd2:	d105      	bne.n	8000be0 <__aeabi_d2iz+0x48>
 8000bd4:	f011 4000 	ands.w	r0, r1, #2147483648	@ 0x80000000
 8000bd8:	bf08      	it	eq
 8000bda:	f06f 4000 	mvneq.w	r0, #2147483648	@ 0x80000000
 8000bde:	4770      	bx	lr
 8000be0:	f04f 0000 	mov.w	r0, #0
 8000be4:	4770      	bx	lr
 8000be6:	bf00      	nop

08000be8 <__aeabi_d2f>:
 8000be8:	ea4f 0241 	mov.w	r2, r1, lsl #1
 8000bec:	f1b2 43e0 	subs.w	r3, r2, #1879048192	@ 0x70000000
 8000bf0:	bf24      	itt	cs
 8000bf2:	f5b3 1c00 	subscs.w	ip, r3, #2097152	@ 0x200000
 8000bf6:	f1dc 5cfe 	rsbscs	ip, ip, #532676608	@ 0x1fc00000
 8000bfa:	d90d      	bls.n	8000c18 <__aeabi_d2f+0x30>
 8000bfc:	f001 4c00 	and.w	ip, r1, #2147483648	@ 0x80000000
 8000c00:	ea4f 02c0 	mov.w	r2, r0, lsl #3
 8000c04:	ea4c 7050 	orr.w	r0, ip, r0, lsr #29
 8000c08:	f1b2 4f00 	cmp.w	r2, #2147483648	@ 0x80000000
 8000c0c:	eb40 0083 	adc.w	r0, r0, r3, lsl #2
 8000c10:	bf08      	it	eq
 8000c12:	f020 0001 	biceq.w	r0, r0, #1
 8000c16:	4770      	bx	lr
 8000c18:	f011 4f80 	tst.w	r1, #1073741824	@ 0x40000000
 8000c1c:	d121      	bne.n	8000c62 <__aeabi_d2f+0x7a>
 8000c1e:	f113 7238 	adds.w	r2, r3, #48234496	@ 0x2e00000
 8000c22:	bfbc      	itt	lt
 8000c24:	f001 4000 	andlt.w	r0, r1, #2147483648	@ 0x80000000
 8000c28:	4770      	bxlt	lr
 8000c2a:	f441 1180 	orr.w	r1, r1, #1048576	@ 0x100000
 8000c2e:	ea4f 5252 	mov.w	r2, r2, lsr #21
 8000c32:	f1c2 0218 	rsb	r2, r2, #24
 8000c36:	f1c2 0c20 	rsb	ip, r2, #32
 8000c3a:	fa10 f30c 	lsls.w	r3, r0, ip
 8000c3e:	fa20 f002 	lsr.w	r0, r0, r2
 8000c42:	bf18      	it	ne
 8000c44:	f040 0001 	orrne.w	r0, r0, #1
 8000c48:	ea4f 23c1 	mov.w	r3, r1, lsl #11
 8000c4c:	ea4f 23d3 	mov.w	r3, r3, lsr #11
 8000c50:	fa03 fc0c 	lsl.w	ip, r3, ip
 8000c54:	ea40 000c 	orr.w	r0, r0, ip
 8000c58:	fa23 f302 	lsr.w	r3, r3, r2
 8000c5c:	ea4f 0343 	mov.w	r3, r3, lsl #1
 8000c60:	e7cc      	b.n	8000bfc <__aeabi_d2f+0x14>
 8000c62:	ea7f 5362 	mvns.w	r3, r2, asr #21
 8000c66:	d107      	bne.n	8000c78 <__aeabi_d2f+0x90>
 8000c68:	ea50 3301 	orrs.w	r3, r0, r1, lsl #12
 8000c6c:	bf1e      	ittt	ne
 8000c6e:	f04f 40fe 	movne.w	r0, #2130706432	@ 0x7f000000
 8000c72:	f440 0040 	orrne.w	r0, r0, #12582912	@ 0xc00000
 8000c76:	4770      	bxne	lr
 8000c78:	f001 4000 	and.w	r0, r1, #2147483648	@ 0x80000000
 8000c7c:	f040 40fe 	orr.w	r0, r0, #2130706432	@ 0x7f000000
 8000c80:	f440 0000 	orr.w	r0, r0, #8388608	@ 0x800000
 8000c84:	4770      	bx	lr
 8000c86:	bf00      	nop

08000c88 <__aeabi_uldivmod>:
 8000c88:	b953      	cbnz	r3, 8000ca0 <__aeabi_uldivmod+0x18>
 8000c8a:	b94a      	cbnz	r2, 8000ca0 <__aeabi_uldivmod+0x18>
 8000c8c:	2900      	cmp	r1, #0
 8000c8e:	bf08      	it	eq
 8000c90:	2800      	cmpeq	r0, #0
 8000c92:	bf1c      	itt	ne
 8000c94:	f04f 31ff 	movne.w	r1, #4294967295	@ 0xffffffff
 8000c98:	f04f 30ff 	movne.w	r0, #4294967295	@ 0xffffffff
 8000c9c:	f000 b96a 	b.w	8000f74 <__aeabi_idiv0>
 8000ca0:	f1ad 0c08 	sub.w	ip, sp, #8
 8000ca4:	e96d ce04 	strd	ip, lr, [sp, #-16]!
 8000ca8:	f000 f806 	bl	8000cb8 <__udivmoddi4>
 8000cac:	f8dd e004 	ldr.w	lr, [sp, #4]
 8000cb0:	e9dd 2302 	ldrd	r2, r3, [sp, #8]
 8000cb4:	b004      	add	sp, #16
 8000cb6:	4770      	bx	lr

08000cb8 <__udivmoddi4>:
 8000cb8:	e92d 47f0 	stmdb	sp!, {r4, r5, r6, r7, r8, r9, sl, lr}
 8000cbc:	9d08      	ldr	r5, [sp, #32]
 8000cbe:	460c      	mov	r4, r1
 8000cc0:	2b00      	cmp	r3, #0
 8000cc2:	d14e      	bne.n	8000d62 <__udivmoddi4+0xaa>
 8000cc4:	4694      	mov	ip, r2
 8000cc6:	458c      	cmp	ip, r1
 8000cc8:	4686      	mov	lr, r0
 8000cca:	fab2 f282 	clz	r2, r2
 8000cce:	d962      	bls.n	8000d96 <__udivmoddi4+0xde>
 8000cd0:	b14a      	cbz	r2, 8000ce6 <__udivmoddi4+0x2e>
 8000cd2:	f1c2 0320 	rsb	r3, r2, #32
 8000cd6:	4091      	lsls	r1, r2
 8000cd8:	fa20 f303 	lsr.w	r3, r0, r3
 8000cdc:	fa0c fc02 	lsl.w	ip, ip, r2
 8000ce0:	4319      	orrs	r1, r3
 8000ce2:	fa00 fe02 	lsl.w	lr, r0, r2
 8000ce6:	ea4f 471c 	mov.w	r7, ip, lsr #16
 8000cea:	fa1f f68c 	uxth.w	r6, ip
 8000cee:	fbb1 f4f7 	udiv	r4, r1, r7
 8000cf2:	ea4f 431e 	mov.w	r3, lr, lsr #16
 8000cf6:	fb07 1114 	mls	r1, r7, r4, r1
 8000cfa:	ea43 4301 	orr.w	r3, r3, r1, lsl #16
 8000cfe:	fb04 f106 	mul.w	r1, r4, r6
 8000d02:	4299      	cmp	r1, r3
 8000d04:	d90a      	bls.n	8000d1c <__udivmoddi4+0x64>
 8000d06:	eb1c 0303 	adds.w	r3, ip, r3
 8000d0a:	f104 30ff 	add.w	r0, r4, #4294967295	@ 0xffffffff
 8000d0e:	f080 8112 	bcs.w	8000f36 <__udivmoddi4+0x27e>
 8000d12:	4299      	cmp	r1, r3
 8000d14:	f240 810f 	bls.w	8000f36 <__udivmoddi4+0x27e>
 8000d18:	3c02      	subs	r4, #2
 8000d1a:	4463      	add	r3, ip
 8000d1c:	1a59      	subs	r1, r3, r1
 8000d1e:	fa1f f38e 	uxth.w	r3, lr
 8000d22:	fbb1 f0f7 	udiv	r0, r1, r7
 8000d26:	fb07 1110 	mls	r1, r7, r0, r1
 8000d2a:	ea43 4301 	orr.w	r3, r3, r1, lsl #16
 8000d2e:	fb00 f606 	mul.w	r6, r0, r6
 8000d32:	429e      	cmp	r6, r3
 8000d34:	d90a      	bls.n	8000d4c <__udivmoddi4+0x94>
 8000d36:	eb1c 0303 	adds.w	r3, ip, r3
 8000d3a:	f100 31ff 	add.w	r1, r0, #4294967295	@ 0xffffffff
 8000d3e:	f080 80fc 	bcs.w	8000f3a <__udivmoddi4+0x282>
 8000d42:	429e      	cmp	r6, r3
 8000d44:	f240 80f9 	bls.w	8000f3a <__udivmoddi4+0x282>
 8000d48:	4463      	add	r3, ip
 8000d4a:	3802      	subs	r0, #2
 8000d4c:	1b9b      	subs	r3, r3, r6
 8000d4e:	ea40 4004 	orr.w	r0, r0, r4, lsl #16
 8000d52:	2100      	movs	r1, #0
 8000d54:	b11d      	cbz	r5, 8000d5e <__udivmoddi4+0xa6>
 8000d56:	40d3      	lsrs	r3, r2
 8000d58:	2200      	movs	r2, #0
 8000d5a:	e9c5 3200 	strd	r3, r2, [r5]
 8000d5e:	e8bd 87f0 	ldmia.w	sp!, {r4, r5, r6, r7, r8, r9, sl, pc}
 8000d62:	428b      	cmp	r3, r1
 8000d64:	d905      	bls.n	8000d72 <__udivmoddi4+0xba>
 8000d66:	b10d      	cbz	r5, 8000d6c <__udivmoddi4+0xb4>
 8000d68:	e9c5 0100 	strd	r0, r1, [r5]
 8000d6c:	2100      	movs	r1, #0
 8000d6e:	4608      	mov	r0, r1
 8000d70:	e7f5      	b.n	8000d5e <__udivmoddi4+0xa6>
 8000d72:	fab3 f183 	clz	r1, r3
 8000d76:	2900      	cmp	r1, #0
 8000d78:	d146      	bne.n	8000e08 <__udivmoddi4+0x150>
 8000d7a:	42a3      	cmp	r3, r4
 8000d7c:	d302      	bcc.n	8000d84 <__udivmoddi4+0xcc>
 8000d7e:	4290      	cmp	r0, r2
 8000d80:	f0c0 80f0 	bcc.w	8000f64 <__udivmoddi4+0x2ac>
 8000d84:	1a86      	subs	r6, r0, r2
 8000d86:	eb64 0303 	sbc.w	r3, r4, r3
 8000d8a:	2001      	movs	r0, #1
 8000d8c:	2d00      	cmp	r5, #0
 8000d8e:	d0e6      	beq.n	8000d5e <__udivmoddi4+0xa6>
 8000d90:	e9c5 6300 	strd	r6, r3, [r5]
 8000d94:	e7e3      	b.n	8000d5e <__udivmoddi4+0xa6>
 8000d96:	2a00      	cmp	r2, #0
 8000d98:	f040 8090 	bne.w	8000ebc <__udivmoddi4+0x204>
 8000d9c:	eba1 040c 	sub.w	r4, r1, ip
 8000da0:	ea4f 481c 	mov.w	r8, ip, lsr #16
 8000da4:	fa1f f78c 	uxth.w	r7, ip
 8000da8:	2101      	movs	r1, #1
 8000daa:	fbb4 f6f8 	udiv	r6, r4, r8
 8000dae:	ea4f 431e 	mov.w	r3, lr, lsr #16
 8000db2:	fb08 4416 	mls	r4, r8, r6, r4
 8000db6:	ea43 4304 	orr.w	r3, r3, r4, lsl #16
 8000dba:	fb07 f006 	mul.w	r0, r7, r6
 8000dbe:	4298      	cmp	r0, r3
 8000dc0:	d908      	bls.n	8000dd4 <__udivmoddi4+0x11c>
 8000dc2:	eb1c 0303 	adds.w	r3, ip, r3
 8000dc6:	f106 34ff 	add.w	r4, r6, #4294967295	@ 0xffffffff
 8000dca:	d202      	bcs.n	8000dd2 <__udivmoddi4+0x11a>
 8000dcc:	4298      	cmp	r0, r3
 8000dce:	f200 80cd 	bhi.w	8000f6c <__udivmoddi4+0x2b4>
 8000dd2:	4626      	mov	r6, r4
 8000dd4:	1a1c      	subs	r4, r3, r0
 8000dd6:	fa1f f38e 	uxth.w	r3, lr
 8000dda:	fbb4 f0f8 	udiv	r0, r4, r8
 8000dde:	fb08 4410 	mls	r4, r8, r0, r4
 8000de2:	ea43 4304 	orr.w	r3, r3, r4, lsl #16
 8000de6:	fb00 f707 	mul.w	r7, r0, r7
 8000dea:	429f      	cmp	r7, r3
 8000dec:	d908      	bls.n	8000e00 <__udivmoddi4+0x148>
 8000dee:	eb1c 0303 	adds.w	r3, ip, r3
 8000df2:	f100 34ff 	add.w	r4, r0, #4294967295	@ 0xffffffff
 8000df6:	d202      	bcs.n	8000dfe <__udivmoddi4+0x146>
 8000df8:	429f      	cmp	r7, r3
 8000dfa:	f200 80b0 	bhi.w	8000f5e <__udivmoddi4+0x2a6>
 8000dfe:	4620      	mov	r0, r4
 8000e00:	1bdb      	subs	r3, r3, r7
 8000e02:	ea40 4006 	orr.w	r0, r0, r6, lsl #16
 8000e06:	e7a5      	b.n	8000d54 <__udivmoddi4+0x9c>
 8000e08:	f1c1 0620 	rsb	r6, r1, #32
 8000e0c:	408b      	lsls	r3, r1
 8000e0e:	fa22 f706 	lsr.w	r7, r2, r6
 8000e12:	431f      	orrs	r7, r3
 8000e14:	fa20 fc06 	lsr.w	ip, r0, r6
 8000e18:	fa04 f301 	lsl.w	r3, r4, r1
 8000e1c:	ea43 030c 	orr.w	r3, r3, ip
 8000e20:	40f4      	lsrs	r4, r6
 8000e22:	fa00 f801 	lsl.w	r8, r0, r1
 8000e26:	0c38      	lsrs	r0, r7, #16
 8000e28:	ea4f 4913 	mov.w	r9, r3, lsr #16
 8000e2c:	fbb4 fef0 	udiv	lr, r4, r0
 8000e30:	fa1f fc87 	uxth.w	ip, r7
 8000e34:	fb00 441e 	mls	r4, r0, lr, r4
 8000e38:	ea49 4404 	orr.w	r4, r9, r4, lsl #16
 8000e3c:	fb0e f90c 	mul.w	r9, lr, ip
 8000e40:	45a1      	cmp	r9, r4
 8000e42:	fa02 f201 	lsl.w	r2, r2, r1
 8000e46:	d90a      	bls.n	8000e5e <__udivmoddi4+0x1a6>
 8000e48:	193c      	adds	r4, r7, r4
 8000e4a:	f10e 3aff 	add.w	sl, lr, #4294967295	@ 0xffffffff
 8000e4e:	f080 8084 	bcs.w	8000f5a <__udivmoddi4+0x2a2>
 8000e52:	45a1      	cmp	r9, r4
 8000e54:	f240 8081 	bls.w	8000f5a <__udivmoddi4+0x2a2>
 8000e58:	f1ae 0e02 	sub.w	lr, lr, #2
 8000e5c:	443c      	add	r4, r7
 8000e5e:	eba4 0409 	sub.w	r4, r4, r9
 8000e62:	fa1f f983 	uxth.w	r9, r3
 8000e66:	fbb4 f3f0 	udiv	r3, r4, r0
 8000e6a:	fb00 4413 	mls	r4, r0, r3, r4
 8000e6e:	ea49 4404 	orr.w	r4, r9, r4, lsl #16
 8000e72:	fb03 fc0c 	mul.w	ip, r3, ip
 8000e76:	45a4      	cmp	ip, r4
 8000e78:	d907      	bls.n	8000e8a <__udivmoddi4+0x1d2>
 8000e7a:	193c      	adds	r4, r7, r4
 8000e7c:	f103 30ff 	add.w	r0, r3, #4294967295	@ 0xffffffff
 8000e80:	d267      	bcs.n	8000f52 <__udivmoddi4+0x29a>
 8000e82:	45a4      	cmp	ip, r4
 8000e84:	d965      	bls.n	8000f52 <__udivmoddi4+0x29a>
 8000e86:	3b02      	subs	r3, #2
 8000e88:	443c      	add	r4, r7
 8000e8a:	ea43 400e 	orr.w	r0, r3, lr, lsl #16
 8000e8e:	fba0 9302 	umull	r9, r3, r0, r2
 8000e92:	eba4 040c 	sub.w	r4, r4, ip
 8000e96:	429c      	cmp	r4, r3
 8000e98:	46ce      	mov	lr, r9
 8000e9a:	469c      	mov	ip, r3
 8000e9c:	d351      	bcc.n	8000f42 <__udivmoddi4+0x28a>
 8000e9e:	d04e      	beq.n	8000f3e <__udivmoddi4+0x286>
 8000ea0:	b155      	cbz	r5, 8000eb8 <__udivmoddi4+0x200>
 8000ea2:	ebb8 030e 	subs.w	r3, r8, lr
 8000ea6:	eb64 040c 	sbc.w	r4, r4, ip
 8000eaa:	fa04 f606 	lsl.w	r6, r4, r6
 8000eae:	40cb      	lsrs	r3, r1
 8000eb0:	431e      	orrs	r6, r3
 8000eb2:	40cc      	lsrs	r4, r1
 8000eb4:	e9c5 6400 	strd	r6, r4, [r5]
 8000eb8:	2100      	movs	r1, #0
 8000eba:	e750      	b.n	8000d5e <__udivmoddi4+0xa6>
 8000ebc:	f1c2 0320 	rsb	r3, r2, #32
 8000ec0:	fa20 f103 	lsr.w	r1, r0, r3
 8000ec4:	fa0c fc02 	lsl.w	ip, ip, r2
 8000ec8:	fa24 f303 	lsr.w	r3, r4, r3
 8000ecc:	4094      	lsls	r4, r2
 8000ece:	430c      	orrs	r4, r1
 8000ed0:	ea4f 481c 	mov.w	r8, ip, lsr #16
 8000ed4:	fa00 fe02 	lsl.w	lr, r0, r2
 8000ed8:	fa1f f78c 	uxth.w	r7, ip
 8000edc:	fbb3 f0f8 	udiv	r0, r3, r8
 8000ee0:	fb08 3110 	mls	r1, r8, r0, r3
 8000ee4:	0c23      	lsrs	r3, r4, #16
 8000ee6:	ea43 4301 	orr.w	r3, r3, r1, lsl #16
 8000eea:	fb00 f107 	mul.w	r1, r0, r7
 8000eee:	4299      	cmp	r1, r3
 8000ef0:	d908      	bls.n	8000f04 <__udivmoddi4+0x24c>
 8000ef2:	eb1c 0303 	adds.w	r3, ip, r3
 8000ef6:	f100 36ff 	add.w	r6, r0, #4294967295	@ 0xffffffff
 8000efa:	d22c      	bcs.n	8000f56 <__udivmoddi4+0x29e>
 8000efc:	4299      	cmp	r1, r3
 8000efe:	d92a      	bls.n	8000f56 <__udivmoddi4+0x29e>
 8000f00:	3802      	subs	r0, #2
 8000f02:	4463      	add	r3, ip
 8000f04:	1a5b      	subs	r3, r3, r1
 8000f06:	b2a4      	uxth	r4, r4
 8000f08:	fbb3 f1f8 	udiv	r1, r3, r8
 8000f0c:	fb08 3311 	mls	r3, r8, r1, r3
 8000f10:	ea44 4403 	orr.w	r4, r4, r3, lsl #16
 8000f14:	fb01 f307 	mul.w	r3, r1, r7
 8000f18:	42a3      	cmp	r3, r4
 8000f1a:	d908      	bls.n	8000f2e <__udivmoddi4+0x276>
 8000f1c:	eb1c 0404 	adds.w	r4, ip, r4
 8000f20:	f101 36ff 	add.w	r6, r1, #4294967295	@ 0xffffffff
 8000f24:	d213      	bcs.n	8000f4e <__udivmoddi4+0x296>
 8000f26:	42a3      	cmp	r3, r4
 8000f28:	d911      	bls.n	8000f4e <__udivmoddi4+0x296>
 8000f2a:	3902      	subs	r1, #2
 8000f2c:	4464      	add	r4, ip
 8000f2e:	1ae4      	subs	r4, r4, r3
 8000f30:	ea41 4100 	orr.w	r1, r1, r0, lsl #16
 8000f34:	e739      	b.n	8000daa <__udivmoddi4+0xf2>
 8000f36:	4604      	mov	r4, r0
 8000f38:	e6f0      	b.n	8000d1c <__udivmoddi4+0x64>
 8000f3a:	4608      	mov	r0, r1
 8000f3c:	e706      	b.n	8000d4c <__udivmoddi4+0x94>
 8000f3e:	45c8      	cmp	r8, r9
 8000f40:	d2ae      	bcs.n	8000ea0 <__udivmoddi4+0x1e8>
 8000f42:	ebb9 0e02 	subs.w	lr, r9, r2
 8000f46:	eb63 0c07 	sbc.w	ip, r3, r7
 8000f4a:	3801      	subs	r0, #1
 8000f4c:	e7a8      	b.n	8000ea0 <__udivmoddi4+0x1e8>
 8000f4e:	4631      	mov	r1, r6
 8000f50:	e7ed      	b.n	8000f2e <__udivmoddi4+0x276>
 8000f52:	4603      	mov	r3, r0
 8000f54:	e799      	b.n	8000e8a <__udivmoddi4+0x1d2>
 8000f56:	4630      	mov	r0, r6
 8000f58:	e7d4      	b.n	8000f04 <__udivmoddi4+0x24c>
 8000f5a:	46d6      	mov	lr, sl
 8000f5c:	e77f      	b.n	8000e5e <__udivmoddi4+0x1a6>
 8000f5e:	4463      	add	r3, ip
 8000f60:	3802      	subs	r0, #2
 8000f62:	e74d      	b.n	8000e00 <__udivmoddi4+0x148>
 8000f64:	4606      	mov	r6, r0
 8000f66:	4623      	mov	r3, r4
 8000f68:	4608      	mov	r0, r1
 8000f6a:	e70f      	b.n	8000d8c <__udivmoddi4+0xd4>
 8000f6c:	3e02      	subs	r6, #2
 8000f6e:	4463      	add	r3, ip
 8000f70:	e730      	b.n	8000dd4 <__udivmoddi4+0x11c>
 8000f72:	bf00      	nop

08000f74 <__aeabi_idiv0>:
 8000f74:	4770      	bx	lr
 8000f76:	bf00      	nop

08000f78 <FEB_CAN_Init>:
uint32_t FEB_CAN_Tx_Mailbox;
uint8_t setup = 0;

// **************************************** Functions ****************************************

void FEB_CAN_Init(void) {
 8000f78:	b580      	push	{r7, lr}
 8000f7a:	af00      	add	r7, sp, #0
	FEB_CAN_Filter_Config();
 8000f7c:	f000 f814 	bl	8000fa8 <FEB_CAN_Filter_Config>
	if (HAL_CAN_Start(&hcan1) != HAL_OK) {
 8000f80:	4807      	ldr	r0, [pc, #28]	@ (8000fa0 <FEB_CAN_Init+0x28>)
 8000f82:	f002 fbd3 	bl	800372c <HAL_CAN_Start>
 8000f86:	4603      	mov	r3, r0
 8000f88:	2b00      	cmp	r3, #0
 8000f8a:	d002      	beq.n	8000f92 <FEB_CAN_Init+0x1a>
		setup = 1;
 8000f8c:	4b05      	ldr	r3, [pc, #20]	@ (8000fa4 <FEB_CAN_Init+0x2c>)
 8000f8e:	2201      	movs	r2, #1
 8000f90:	701a      	strb	r2, [r3, #0]
        // Code Error - Shutdown
	}
	HAL_CAN_ActivateNotification(&hcan1, CAN_IT_RX_FIFO0_MSG_PENDING);
 8000f92:	2102      	movs	r1, #2
 8000f94:	4802      	ldr	r0, [pc, #8]	@ (8000fa0 <FEB_CAN_Init+0x28>)
 8000f96:	f002 fe34 	bl	8003c02 <HAL_CAN_ActivateNotification>
}
 8000f9a:	bf00      	nop
 8000f9c:	bd80      	pop	{r7, pc}
 8000f9e:	bf00      	nop
 8000fa0:	200002b8 	.word	0x200002b8
 8000fa4:	2000024c 	.word	0x2000024c

08000fa8 <FEB_CAN_Filter_Config>:

void FEB_CAN_Filter_Config(void) {
 8000fa8:	b580      	push	{r7, lr}
 8000faa:	b082      	sub	sp, #8
 8000fac:	af00      	add	r7, sp, #0
	uint8_t filter_bank = 0;
 8000fae:	2300      	movs	r3, #0
 8000fb0:	71fb      	strb	r3, [r7, #7]
    filter_bank = FEB_CAN_ICS_Filter(&hcan1, CAN_RX_FIFO0, filter_bank);
 8000fb2:	79fb      	ldrb	r3, [r7, #7]
 8000fb4:	461a      	mov	r2, r3
 8000fb6:	2100      	movs	r1, #0
 8000fb8:	480c      	ldr	r0, [pc, #48]	@ (8000fec <FEB_CAN_Filter_Config+0x44>)
 8000fba:	f000 f8b3 	bl	8001124 <FEB_CAN_ICS_Filter>
 8000fbe:	4603      	mov	r3, r0
 8000fc0:	71fb      	strb	r3, [r7, #7]
    filter_bank = FEB_CAN_BMS_Filter_Config(&hcan1, CAN_RX_FIFO0,  filter_bank);
 8000fc2:	79fb      	ldrb	r3, [r7, #7]
 8000fc4:	461a      	mov	r2, r3
 8000fc6:	2100      	movs	r1, #0
 8000fc8:	4808      	ldr	r0, [pc, #32]	@ (8000fec <FEB_CAN_Filter_Config+0x44>)
 8000fca:	f000 f833 	bl	8001034 <FEB_CAN_BMS_Filter_Config>
 8000fce:	4603      	mov	r3, r0
 8000fd0:	71fb      	strb	r3, [r7, #7]
    filter_bank = FEB_CAN_RMS_Filter_Config(&hcan1, CAN_RX_FIFO0, filter_bank);
 8000fd2:	79fb      	ldrb	r3, [r7, #7]
 8000fd4:	461a      	mov	r2, r3
 8000fd6:	2100      	movs	r1, #0
 8000fd8:	4804      	ldr	r0, [pc, #16]	@ (8000fec <FEB_CAN_Filter_Config+0x44>)
 8000fda:	f000 fc6b 	bl	80018b4 <FEB_CAN_RMS_Filter_Config>
 8000fde:	4603      	mov	r3, r0
 8000fe0:	71fb      	strb	r3, [r7, #7]

	// Assign Filter
    // filter_bank = Function(&hcan1, CAN_RX_FIFO0, filter_bank);
}
 8000fe2:	bf00      	nop
 8000fe4:	3708      	adds	r7, #8
 8000fe6:	46bd      	mov	sp, r7
 8000fe8:	bd80      	pop	{r7, pc}
 8000fea:	bf00      	nop
 8000fec:	200002b8 	.word	0x200002b8

08000ff0 <HAL_CAN_RxFifo0MsgPendingCallback>:

void HAL_CAN_RxFifo0MsgPendingCallback(CAN_HandleTypeDef* hcan) {
 8000ff0:	b580      	push	{r7, lr}
 8000ff2:	b082      	sub	sp, #8
 8000ff4:	af00      	add	r7, sp, #0
 8000ff6:	6078      	str	r0, [r7, #4]
	if (HAL_CAN_GetRxMessage(hcan, CAN_RX_FIFO0, &FEB_CAN_Rx_Header, FEB_CAN_Rx_Data) == HAL_OK) {
 8000ff8:	4b0c      	ldr	r3, [pc, #48]	@ (800102c <HAL_CAN_RxFifo0MsgPendingCallback+0x3c>)
 8000ffa:	4a0d      	ldr	r2, [pc, #52]	@ (8001030 <HAL_CAN_RxFifo0MsgPendingCallback+0x40>)
 8000ffc:	2100      	movs	r1, #0
 8000ffe:	6878      	ldr	r0, [r7, #4]
 8001000:	f002 fcdd 	bl	80039be <HAL_CAN_GetRxMessage>
 8001004:	4603      	mov	r3, r0
 8001006:	2b00      	cmp	r3, #0
 8001008:	d10b      	bne.n	8001022 <HAL_CAN_RxFifo0MsgPendingCallback+0x32>
		FEB_CAN_ICS_Store_Msg(&FEB_CAN_Rx_Header, FEB_CAN_Rx_Data);
 800100a:	4908      	ldr	r1, [pc, #32]	@ (800102c <HAL_CAN_RxFifo0MsgPendingCallback+0x3c>)
 800100c:	4808      	ldr	r0, [pc, #32]	@ (8001030 <HAL_CAN_RxFifo0MsgPendingCallback+0x40>)
 800100e:	f000 f8cb 	bl	80011a8 <FEB_CAN_ICS_Store_Msg>
		FEB_CAN_BMS_Store_Msg(&FEB_CAN_Rx_Header, FEB_CAN_Rx_Data);
 8001012:	4906      	ldr	r1, [pc, #24]	@ (800102c <HAL_CAN_RxFifo0MsgPendingCallback+0x3c>)
 8001014:	4806      	ldr	r0, [pc, #24]	@ (8001030 <HAL_CAN_RxFifo0MsgPendingCallback+0x40>)
 8001016:	f000 f851 	bl	80010bc <FEB_CAN_BMS_Store_Msg>
		FEB_CAN_RMS_Store_Msg(&FEB_CAN_Rx_Header, FEB_CAN_Rx_Data);
 800101a:	4904      	ldr	r1, [pc, #16]	@ (800102c <HAL_CAN_RxFifo0MsgPendingCallback+0x3c>)
 800101c:	4804      	ldr	r0, [pc, #16]	@ (8001030 <HAL_CAN_RxFifo0MsgPendingCallback+0x40>)
 800101e:	f000 fc8d 	bl	800193c <FEB_CAN_RMS_Store_Msg>

	}
}
 8001022:	bf00      	nop
 8001024:	3708      	adds	r7, #8
 8001026:	46bd      	mov	sp, r7
 8001028:	bd80      	pop	{r7, pc}
 800102a:	bf00      	nop
 800102c:	20000240 	.word	0x20000240
 8001030:	2000021c 	.word	0x2000021c

08001034 <FEB_CAN_BMS_Filter_Config>:



// ***** CAN FUNCTIONS ****

uint8_t FEB_CAN_BMS_Filter_Config(CAN_HandleTypeDef* hcan, uint8_t FIFO_assignment, uint8_t filter_bank) {
 8001034:	b580      	push	{r7, lr}
 8001036:	b08e      	sub	sp, #56	@ 0x38
 8001038:	af00      	add	r7, sp, #0
 800103a:	6078      	str	r0, [r7, #4]
 800103c:	460b      	mov	r3, r1
 800103e:	70fb      	strb	r3, [r7, #3]
 8001040:	4613      	mov	r3, r2
 8001042:	70bb      	strb	r3, [r7, #2]
	uint16_t ids[] = {FEB_CAN_ID_BMS_STATE,FEB_CAN_ID_BMS_TEMPERATURE};
 8001044:	2303      	movs	r3, #3
 8001046:	863b      	strh	r3, [r7, #48]	@ 0x30
 8001048:	2300      	movs	r3, #0
 800104a:	867b      	strh	r3, [r7, #50]	@ 0x32

	for (uint8_t i = 0; i < 1; i++) {
 800104c:	2300      	movs	r3, #0
 800104e:	f887 3037 	strb.w	r3, [r7, #55]	@ 0x37
 8001052:	e029      	b.n	80010a8 <FEB_CAN_BMS_Filter_Config+0x74>
		CAN_FilterTypeDef filter_config;

	    // Standard CAN - 2.0A - 11 bit
	    filter_config.FilterActivation = CAN_FILTER_ENABLE;
 8001054:	2301      	movs	r3, #1
 8001056:	62bb      	str	r3, [r7, #40]	@ 0x28
		filter_config.FilterBank = filter_bank;
 8001058:	78bb      	ldrb	r3, [r7, #2]
 800105a:	61fb      	str	r3, [r7, #28]
		filter_config.FilterFIFOAssignment = FIFO_assignment;
 800105c:	78fb      	ldrb	r3, [r7, #3]
 800105e:	61bb      	str	r3, [r7, #24]
		filter_config.FilterIdHigh = ids[i] << 5;
 8001060:	f897 3037 	ldrb.w	r3, [r7, #55]	@ 0x37
 8001064:	005b      	lsls	r3, r3, #1
 8001066:	3338      	adds	r3, #56	@ 0x38
 8001068:	443b      	add	r3, r7
 800106a:	f833 3c08 	ldrh.w	r3, [r3, #-8]
 800106e:	015b      	lsls	r3, r3, #5
 8001070:	60bb      	str	r3, [r7, #8]
		filter_config.FilterIdLow = 0;
 8001072:	2300      	movs	r3, #0
 8001074:	60fb      	str	r3, [r7, #12]
		filter_config.FilterMaskIdHigh = 0xFFE0;
 8001076:	f64f 73e0 	movw	r3, #65504	@ 0xffe0
 800107a:	613b      	str	r3, [r7, #16]
		filter_config.FilterMaskIdLow = 0;
 800107c:	2300      	movs	r3, #0
 800107e:	617b      	str	r3, [r7, #20]
		filter_config.FilterMode = CAN_FILTERMODE_IDMASK;
 8001080:	2300      	movs	r3, #0
 8001082:	623b      	str	r3, [r7, #32]
		filter_config.FilterScale = CAN_FILTERSCALE_32BIT;
 8001084:	2301      	movs	r3, #1
 8001086:	627b      	str	r3, [r7, #36]	@ 0x24
		filter_config.SlaveStartFilterBank = 27;
 8001088:	231b      	movs	r3, #27
 800108a:	62fb      	str	r3, [r7, #44]	@ 0x2c
	    filter_bank++;
 800108c:	78bb      	ldrb	r3, [r7, #2]
 800108e:	3301      	adds	r3, #1
 8001090:	70bb      	strb	r3, [r7, #2]

		if (HAL_CAN_ConfigFilter(hcan, &filter_config) != HAL_OK) {
 8001092:	f107 0308 	add.w	r3, r7, #8
 8001096:	4619      	mov	r1, r3
 8001098:	6878      	ldr	r0, [r7, #4]
 800109a:	f002 fa67 	bl	800356c <HAL_CAN_ConfigFilter>
	for (uint8_t i = 0; i < 1; i++) {
 800109e:	f897 3037 	ldrb.w	r3, [r7, #55]	@ 0x37
 80010a2:	3301      	adds	r3, #1
 80010a4:	f887 3037 	strb.w	r3, [r7, #55]	@ 0x37
 80010a8:	f897 3037 	ldrb.w	r3, [r7, #55]	@ 0x37
 80010ac:	2b00      	cmp	r3, #0
 80010ae:	d0d1      	beq.n	8001054 <FEB_CAN_BMS_Filter_Config+0x20>
			//Code Error - shutdown
		}
	}

	return filter_bank;
 80010b0:	78bb      	ldrb	r3, [r7, #2]
}
 80010b2:	4618      	mov	r0, r3
 80010b4:	3738      	adds	r7, #56	@ 0x38
 80010b6:	46bd      	mov	sp, r7
 80010b8:	bd80      	pop	{r7, pc}
	...

080010bc <FEB_CAN_BMS_Store_Msg>:

void FEB_CAN_BMS_Store_Msg(CAN_RxHeaderTypeDef* pHeader, uint8_t *RxData) {
 80010bc:	b480      	push	{r7}
 80010be:	b083      	sub	sp, #12
 80010c0:	af00      	add	r7, sp, #0
 80010c2:	6078      	str	r0, [r7, #4]
 80010c4:	6039      	str	r1, [r7, #0]
    switch (pHeader -> StdId){
 80010c6:	687b      	ldr	r3, [r7, #4]
 80010c8:	681b      	ldr	r3, [r3, #0]
 80010ca:	2b00      	cmp	r3, #0
 80010cc:	d002      	beq.n	80010d4 <FEB_CAN_BMS_Store_Msg+0x18>
 80010ce:	2b03      	cmp	r3, #3
 80010d0:	d00f      	beq.n	80010f2 <FEB_CAN_BMS_Store_Msg+0x36>

        case FEB_CAN_ID_BMS_STATE:
            BMS_MESSAGE.status = RxData[0];
            break;
    }
}
 80010d2:	e013      	b.n	80010fc <FEB_CAN_BMS_Store_Msg+0x40>
        	BMS_MESSAGE.temp = RxData[2] << 8 | RxData[3];
 80010d4:	683b      	ldr	r3, [r7, #0]
 80010d6:	3302      	adds	r3, #2
 80010d8:	781b      	ldrb	r3, [r3, #0]
 80010da:	021b      	lsls	r3, r3, #8
 80010dc:	b21a      	sxth	r2, r3
 80010de:	683b      	ldr	r3, [r7, #0]
 80010e0:	3303      	adds	r3, #3
 80010e2:	781b      	ldrb	r3, [r3, #0]
 80010e4:	b21b      	sxth	r3, r3
 80010e6:	4313      	orrs	r3, r2
 80010e8:	b21b      	sxth	r3, r3
 80010ea:	b29a      	uxth	r2, r3
 80010ec:	4b06      	ldr	r3, [pc, #24]	@ (8001108 <FEB_CAN_BMS_Store_Msg+0x4c>)
 80010ee:	801a      	strh	r2, [r3, #0]
            break;
 80010f0:	e004      	b.n	80010fc <FEB_CAN_BMS_Store_Msg+0x40>
            BMS_MESSAGE.status = RxData[0];
 80010f2:	683b      	ldr	r3, [r7, #0]
 80010f4:	781a      	ldrb	r2, [r3, #0]
 80010f6:	4b04      	ldr	r3, [pc, #16]	@ (8001108 <FEB_CAN_BMS_Store_Msg+0x4c>)
 80010f8:	709a      	strb	r2, [r3, #2]
            break;
 80010fa:	bf00      	nop
}
 80010fc:	bf00      	nop
 80010fe:	370c      	adds	r7, #12
 8001100:	46bd      	mov	sp, r7
 8001102:	f85d 7b04 	ldr.w	r7, [sp], #4
 8001106:	4770      	bx	lr
 8001108:	20000250 	.word	0x20000250

0800110c <FEB_CAN_BMS_getState>:

FEB_SM_ST_t FEB_CAN_BMS_getState(){
 800110c:	b480      	push	{r7}
 800110e:	af00      	add	r7, sp, #0
	return BMS_MESSAGE.status;
 8001110:	4b03      	ldr	r3, [pc, #12]	@ (8001120 <FEB_CAN_BMS_getState+0x14>)
 8001112:	789b      	ldrb	r3, [r3, #2]

}
 8001114:	4618      	mov	r0, r3
 8001116:	46bd      	mov	sp, r7
 8001118:	f85d 7b04 	ldr.w	r7, [sp], #4
 800111c:	4770      	bx	lr
 800111e:	bf00      	nop
 8001120:	20000250 	.word	0x20000250

08001124 <FEB_CAN_ICS_Filter>:
// ******************************** Variables ********************************
bool READY_TO_DRIVE = 0;

// **************************************** Functions ****************************************

uint8_t FEB_CAN_ICS_Filter(CAN_HandleTypeDef* hcan, uint8_t FIFO_assignment, uint8_t filter_bank) {
 8001124:	b580      	push	{r7, lr}
 8001126:	b08e      	sub	sp, #56	@ 0x38
 8001128:	af00      	add	r7, sp, #0
 800112a:	6078      	str	r0, [r7, #4]
 800112c:	460b      	mov	r3, r1
 800112e:	70fb      	strb	r3, [r7, #3]
 8001130:	4613      	mov	r3, r2
 8001132:	70bb      	strb	r3, [r7, #2]
    // For multiple filters, create array of filter IDs and loop over IDs.

	uint16_t ids[] = {FEB_CAN_ID_ICS_BUTTON_STATE};
 8001134:	2307      	movs	r3, #7
 8001136:	86bb      	strh	r3, [r7, #52]	@ 0x34

	for (uint8_t i = 0; i < 1; i++) {
 8001138:	2300      	movs	r3, #0
 800113a:	f887 3037 	strb.w	r3, [r7, #55]	@ 0x37
 800113e:	e029      	b.n	8001194 <FEB_CAN_ICS_Filter+0x70>
		CAN_FilterTypeDef filter_config;

	    // Standard CAN - 2.0A - 11 bit
	    filter_config.FilterActivation = CAN_FILTER_ENABLE;
 8001140:	2301      	movs	r3, #1
 8001142:	62fb      	str	r3, [r7, #44]	@ 0x2c
		filter_config.FilterBank = filter_bank;
 8001144:	78bb      	ldrb	r3, [r7, #2]
 8001146:	623b      	str	r3, [r7, #32]
		filter_config.FilterFIFOAssignment = FIFO_assignment;
 8001148:	78fb      	ldrb	r3, [r7, #3]
 800114a:	61fb      	str	r3, [r7, #28]
		filter_config.FilterIdHigh = ids[i] << 5;
 800114c:	f897 3037 	ldrb.w	r3, [r7, #55]	@ 0x37
 8001150:	005b      	lsls	r3, r3, #1
 8001152:	3338      	adds	r3, #56	@ 0x38
 8001154:	443b      	add	r3, r7
 8001156:	f833 3c04 	ldrh.w	r3, [r3, #-4]
 800115a:	015b      	lsls	r3, r3, #5
 800115c:	60fb      	str	r3, [r7, #12]
		filter_config.FilterIdLow = 0;
 800115e:	2300      	movs	r3, #0
 8001160:	613b      	str	r3, [r7, #16]
		filter_config.FilterMaskIdHigh = 0xFFE0;
 8001162:	f64f 73e0 	movw	r3, #65504	@ 0xffe0
 8001166:	617b      	str	r3, [r7, #20]
		filter_config.FilterMaskIdLow = 0;
 8001168:	2300      	movs	r3, #0
 800116a:	61bb      	str	r3, [r7, #24]
		filter_config.FilterMode = CAN_FILTERMODE_IDMASK;
 800116c:	2300      	movs	r3, #0
 800116e:	627b      	str	r3, [r7, #36]	@ 0x24
		filter_config.FilterScale = CAN_FILTERSCALE_32BIT;
 8001170:	2301      	movs	r3, #1
 8001172:	62bb      	str	r3, [r7, #40]	@ 0x28
		filter_config.SlaveStartFilterBank = 27;
 8001174:	231b      	movs	r3, #27
 8001176:	633b      	str	r3, [r7, #48]	@ 0x30
	    filter_bank++;
 8001178:	78bb      	ldrb	r3, [r7, #2]
 800117a:	3301      	adds	r3, #1
 800117c:	70bb      	strb	r3, [r7, #2]

		if (HAL_CAN_ConfigFilter(hcan, &filter_config) != HAL_OK) {
 800117e:	f107 030c 	add.w	r3, r7, #12
 8001182:	4619      	mov	r1, r3
 8001184:	6878      	ldr	r0, [r7, #4]
 8001186:	f002 f9f1 	bl	800356c <HAL_CAN_ConfigFilter>
	for (uint8_t i = 0; i < 1; i++) {
 800118a:	f897 3037 	ldrb.w	r3, [r7, #55]	@ 0x37
 800118e:	3301      	adds	r3, #1
 8001190:	f887 3037 	strb.w	r3, [r7, #55]	@ 0x37
 8001194:	f897 3037 	ldrb.w	r3, [r7, #55]	@ 0x37
 8001198:	2b00      	cmp	r3, #0
 800119a:	d0d1      	beq.n	8001140 <FEB_CAN_ICS_Filter+0x1c>
			// Shutdown
		}
	}

	return filter_bank;
 800119c:	78bb      	ldrb	r3, [r7, #2]
}
 800119e:	4618      	mov	r0, r3
 80011a0:	3738      	adds	r7, #56	@ 0x38
 80011a2:	46bd      	mov	sp, r7
 80011a4:	bd80      	pop	{r7, pc}
	...

080011a8 <FEB_CAN_ICS_Store_Msg>:

void FEB_CAN_ICS_Store_Msg(CAN_RxHeaderTypeDef *rx_header, uint8_t rx_data[]) {
 80011a8:	b480      	push	{r7}
 80011aa:	b083      	sub	sp, #12
 80011ac:	af00      	add	r7, sp, #0
 80011ae:	6078      	str	r0, [r7, #4]
 80011b0:	6039      	str	r1, [r7, #0]
	switch(rx_header->StdId) {
 80011b2:	687b      	ldr	r3, [r7, #4]
 80011b4:	681b      	ldr	r3, [r3, #0]
 80011b6:	2b07      	cmp	r3, #7
 80011b8:	d10c      	bne.n	80011d4 <FEB_CAN_ICS_Store_Msg+0x2c>
		case FEB_CAN_ID_ICS_BUTTON_STATE:
				READY_TO_DRIVE = ((rx_data[0] | 0b11111101) == 0b11111111);
 80011ba:	683b      	ldr	r3, [r7, #0]
 80011bc:	781b      	ldrb	r3, [r3, #0]
 80011be:	f063 0302 	orn	r3, r3, #2
 80011c2:	b2db      	uxtb	r3, r3
 80011c4:	2bff      	cmp	r3, #255	@ 0xff
 80011c6:	bf0c      	ite	eq
 80011c8:	2301      	moveq	r3, #1
 80011ca:	2300      	movne	r3, #0
 80011cc:	b2da      	uxtb	r2, r3
 80011ce:	4b04      	ldr	r3, [pc, #16]	@ (80011e0 <FEB_CAN_ICS_Store_Msg+0x38>)
 80011d0:	701a      	strb	r2, [r3, #0]
				break;
 80011d2:	bf00      	nop
	}
}
 80011d4:	bf00      	nop
 80011d6:	370c      	adds	r7, #12
 80011d8:	46bd      	mov	sp, r7
 80011da:	f85d 7b04 	ldr.w	r7, [sp], #4
 80011de:	4770      	bx	lr
 80011e0:	20000254 	.word	0x20000254

080011e4 <FEB_Ready_To_Drive>:

bool FEB_Ready_To_Drive() {
 80011e4:	b480      	push	{r7}
 80011e6:	af00      	add	r7, sp, #0
	return READY_TO_DRIVE;
 80011e8:	4b03      	ldr	r3, [pc, #12]	@ (80011f8 <FEB_Ready_To_Drive+0x14>)
 80011ea:	781b      	ldrb	r3, [r3, #0]
}
 80011ec:	4618      	mov	r0, r3
 80011ee:	46bd      	mov	sp, r7
 80011f0:	f85d 7b04 	ldr.w	r7, [sp], #4
 80011f4:	4770      	bx	lr
 80011f6:	bf00      	nop
 80011f8:	20000254 	.word	0x20000254

080011fc <FEB_CAN_RMS_Setup>:

// ********************************** Functions **********************************

// ***** SET UP ****

void FEB_CAN_RMS_Setup(void){
 80011fc:	b480      	push	{r7}
 80011fe:	af00      	add	r7, sp, #0
	 RMSControl.enabled = 0;
 8001200:	4b05      	ldr	r3, [pc, #20]	@ (8001218 <FEB_CAN_RMS_Setup+0x1c>)
 8001202:	2200      	movs	r2, #0
 8001204:	709a      	strb	r2, [r3, #2]
	 RMSControl.torque= 0.0;
 8001206:	4b04      	ldr	r3, [pc, #16]	@ (8001218 <FEB_CAN_RMS_Setup+0x1c>)
 8001208:	2200      	movs	r2, #0
 800120a:	801a      	strh	r2, [r3, #0]
}
 800120c:	bf00      	nop
 800120e:	46bd      	mov	sp, r7
 8001210:	f85d 7b04 	ldr.w	r7, [sp], #4
 8001214:	4770      	bx	lr
 8001216:	bf00      	nop
 8001218:	20000258 	.word	0x20000258

0800121c <FEB_CAN_RMS_Process>:

void FEB_CAN_RMS_Process(void){
 800121c:	b480      	push	{r7}
 800121e:	af00      	add	r7, sp, #0
	if (!RMSControl.enabled){
 8001220:	4b05      	ldr	r3, [pc, #20]	@ (8001238 <FEB_CAN_RMS_Process+0x1c>)
 8001222:	789b      	ldrb	r3, [r3, #2]
 8001224:	2b00      	cmp	r3, #0
 8001226:	d102      	bne.n	800122e <FEB_CAN_RMS_Process+0x12>
//		FEB_CAN_RMS_Init();
		RMSControl.enabled = 1;
 8001228:	4b03      	ldr	r3, [pc, #12]	@ (8001238 <FEB_CAN_RMS_Process+0x1c>)
 800122a:	2201      	movs	r2, #1
 800122c:	709a      	strb	r2, [r3, #2]
	}
}
 800122e:	bf00      	nop
 8001230:	46bd      	mov	sp, r7
 8001232:	f85d 7b04 	ldr.w	r7, [sp], #4
 8001236:	4770      	bx	lr
 8001238:	20000258 	.word	0x20000258

0800123c <FEB_CAN_RMS_Disable>:

void FEB_CAN_RMS_Disable(void){
 800123c:	b480      	push	{r7}
 800123e:	af00      	add	r7, sp, #0
	RMSControl.enabled = 0;
 8001240:	4b03      	ldr	r3, [pc, #12]	@ (8001250 <FEB_CAN_RMS_Disable+0x14>)
 8001242:	2200      	movs	r2, #0
 8001244:	709a      	strb	r2, [r3, #2]
}
 8001246:	bf00      	nop
 8001248:	46bd      	mov	sp, r7
 800124a:	f85d 7b04 	ldr.w	r7, [sp], #4
 800124e:	4770      	bx	lr
 8001250:	20000258 	.word	0x20000258
 8001254:	00000000 	.word	0x00000000

08001258 <FEB_getElecMaxRegenTorque>:

// ****** REGEN FUNCTIONS ****

// Returns maximum torque available within 20A limit of the cells
// V_acc * 20 * efficiency = torque / w
float FEB_getElecMaxRegenTorque(){
 8001258:	b5b0      	push	{r4, r5, r7, lr}
 800125a:	b084      	sub	sp, #16
 800125c:	af00      	add	r7, sp, #0
	float accumulator_voltage = min(INIT_VOLTAGE, (RMS_MESSAGE.HV_Bus_Voltage-50) / 10); // TODO: consider reading from IVT
 800125e:	4b3e      	ldr	r3, [pc, #248]	@ (8001358 <FEB_getElecMaxRegenTorque+0x100>)
 8001260:	f9b3 3000 	ldrsh.w	r3, [r3]
 8001264:	f241 22fb 	movw	r2, #4859	@ 0x12fb
 8001268:	4293      	cmp	r3, r2
 800126a:	dc0e      	bgt.n	800128a <FEB_getElecMaxRegenTorque+0x32>
 800126c:	4b3a      	ldr	r3, [pc, #232]	@ (8001358 <FEB_getElecMaxRegenTorque+0x100>)
 800126e:	f9b3 3000 	ldrsh.w	r3, [r3]
 8001272:	3b32      	subs	r3, #50	@ 0x32
 8001274:	4a39      	ldr	r2, [pc, #228]	@ (800135c <FEB_getElecMaxRegenTorque+0x104>)
 8001276:	fb82 1203 	smull	r1, r2, r2, r3
 800127a:	1092      	asrs	r2, r2, #2
 800127c:	17db      	asrs	r3, r3, #31
 800127e:	1ad3      	subs	r3, r2, r3
 8001280:	ee07 3a90 	vmov	s15, r3
 8001284:	eef8 7ae7 	vcvt.f32.s32	s15, s15
 8001288:	e001      	b.n	800128e <FEB_getElecMaxRegenTorque+0x36>
 800128a:	eddf 7a35 	vldr	s15, [pc, #212]	@ 8001360 <FEB_getElecMaxRegenTorque+0x108>
 800128e:	edc7 7a03 	vstr	s15, [r7, #12]
	float motor_speed_rads = RMS_MESSAGE.Motor_Speed * RPM_TO_RAD_S;
 8001292:	4b31      	ldr	r3, [pc, #196]	@ (8001358 <FEB_getElecMaxRegenTorque+0x100>)
 8001294:	f9b3 3002 	ldrsh.w	r3, [r3, #2]
 8001298:	4618      	mov	r0, r3
 800129a:	f7ff f963 	bl	8000564 <__aeabi_i2d>
 800129e:	a32a      	add	r3, pc, #168	@ (adr r3, 8001348 <FEB_getElecMaxRegenTorque+0xf0>)
 80012a0:	e9d3 2300 	ldrd	r2, r3, [r3]
 80012a4:	f7ff f9c8 	bl	8000638 <__aeabi_dmul>
 80012a8:	4602      	mov	r2, r0
 80012aa:	460b      	mov	r3, r1
 80012ac:	4610      	mov	r0, r2
 80012ae:	4619      	mov	r1, r3
 80012b0:	f7ff fc9a 	bl	8000be8 <__aeabi_d2f>
 80012b4:	4603      	mov	r3, r0
 80012b6:	60bb      	str	r3, [r7, #8]

	float maxTorque = min(MAX_TORQUE_REGEN, (accumulator_voltage * PEAK_CURRENT_REGEN) / motor_speed_rads);
 80012b8:	68f8      	ldr	r0, [r7, #12]
 80012ba:	f7ff f965 	bl	8000588 <__aeabi_f2d>
 80012be:	f04f 0200 	mov.w	r2, #0
 80012c2:	4b28      	ldr	r3, [pc, #160]	@ (8001364 <FEB_getElecMaxRegenTorque+0x10c>)
 80012c4:	f7ff f9b8 	bl	8000638 <__aeabi_dmul>
 80012c8:	4602      	mov	r2, r0
 80012ca:	460b      	mov	r3, r1
 80012cc:	4614      	mov	r4, r2
 80012ce:	461d      	mov	r5, r3
 80012d0:	68b8      	ldr	r0, [r7, #8]
 80012d2:	f7ff f959 	bl	8000588 <__aeabi_f2d>
 80012d6:	4602      	mov	r2, r0
 80012d8:	460b      	mov	r3, r1
 80012da:	4620      	mov	r0, r4
 80012dc:	4629      	mov	r1, r5
 80012de:	f7ff fad5 	bl	800088c <__aeabi_ddiv>
 80012e2:	4602      	mov	r2, r0
 80012e4:	460b      	mov	r3, r1
 80012e6:	4610      	mov	r0, r2
 80012e8:	4619      	mov	r1, r3
 80012ea:	a319      	add	r3, pc, #100	@ (adr r3, 8001350 <FEB_getElecMaxRegenTorque+0xf8>)
 80012ec:	e9d3 2300 	ldrd	r2, r3, [r3]
 80012f0:	f7ff fc32 	bl	8000b58 <__aeabi_dcmpgt>
 80012f4:	4603      	mov	r3, r0
 80012f6:	2b00      	cmp	r3, #0
 80012f8:	d001      	beq.n	80012fe <FEB_getElecMaxRegenTorque+0xa6>
 80012fa:	4b1b      	ldr	r3, [pc, #108]	@ (8001368 <FEB_getElecMaxRegenTorque+0x110>)
 80012fc:	e01b      	b.n	8001336 <FEB_getElecMaxRegenTorque+0xde>
 80012fe:	68f8      	ldr	r0, [r7, #12]
 8001300:	f7ff f942 	bl	8000588 <__aeabi_f2d>
 8001304:	f04f 0200 	mov.w	r2, #0
 8001308:	4b16      	ldr	r3, [pc, #88]	@ (8001364 <FEB_getElecMaxRegenTorque+0x10c>)
 800130a:	f7ff f995 	bl	8000638 <__aeabi_dmul>
 800130e:	4602      	mov	r2, r0
 8001310:	460b      	mov	r3, r1
 8001312:	4614      	mov	r4, r2
 8001314:	461d      	mov	r5, r3
 8001316:	68b8      	ldr	r0, [r7, #8]
 8001318:	f7ff f936 	bl	8000588 <__aeabi_f2d>
 800131c:	4602      	mov	r2, r0
 800131e:	460b      	mov	r3, r1
 8001320:	4620      	mov	r0, r4
 8001322:	4629      	mov	r1, r5
 8001324:	f7ff fab2 	bl	800088c <__aeabi_ddiv>
 8001328:	4602      	mov	r2, r0
 800132a:	460b      	mov	r3, r1
 800132c:	4610      	mov	r0, r2
 800132e:	4619      	mov	r1, r3
 8001330:	f7ff fc5a 	bl	8000be8 <__aeabi_d2f>
 8001334:	4603      	mov	r3, r0
 8001336:	607b      	str	r3, [r7, #4]
	return maxTorque;
 8001338:	687b      	ldr	r3, [r7, #4]
 800133a:	ee07 3a90 	vmov	s15, r3
}
 800133e:	eeb0 0a67 	vmov.f32	s0, s15
 8001342:	3710      	adds	r7, #16
 8001344:	46bd      	mov	sp, r7
 8001346:	bdb0      	pop	{r4, r5, r7, pc}
 8001348:	0f3cb3e5 	.word	0x0f3cb3e5
 800134c:	3fbaceee 	.word	0x3fbaceee
 8001350:	00000000 	.word	0x00000000
 8001354:	40945000 	.word	0x40945000
 8001358:	2000025c 	.word	0x2000025c
 800135c:	66666667 	.word	0x66666667
 8001360:	43f00000 	.word	0x43f00000
 8001364:	40320000 	.word	0x40320000
 8001368:	44a28000 	.word	0x44a28000

0800136c <FEB_regen_filter_Speed>:

// Step function at from 0 to 1 at FADE_SPEED
float FEB_regen_filter_Speed(float unfiltered_regen_torque){
 800136c:	b480      	push	{r7}
 800136e:	b085      	sub	sp, #20
 8001370:	af00      	add	r7, sp, #0
 8001372:	ed87 0a01 	vstr	s0, [r7, #4]
    float motor_speed_rpm = RMS_MESSAGE.Motor_Speed; 
 8001376:	4b0f      	ldr	r3, [pc, #60]	@ (80013b4 <FEB_regen_filter_Speed+0x48>)
 8001378:	f9b3 3002 	ldrsh.w	r3, [r3, #2]
 800137c:	ee07 3a90 	vmov	s15, r3
 8001380:	eef8 7ae7 	vcvt.f32.s32	s15, s15
 8001384:	edc7 7a03 	vstr	s15, [r7, #12]

    if (motor_speed_rpm < FADE_SPEED_RPM)
 8001388:	edd7 7a03 	vldr	s15, [r7, #12]
 800138c:	ed9f 7a0a 	vldr	s14, [pc, #40]	@ 80013b8 <FEB_regen_filter_Speed+0x4c>
 8001390:	eef4 7ac7 	vcmpe.f32	s15, s14
 8001394:	eef1 fa10 	vmrs	APSR_nzcv, fpscr
 8001398:	d502      	bpl.n	80013a0 <FEB_regen_filter_Speed+0x34>
    {
        return 0;
 800139a:	f04f 0300 	mov.w	r3, #0
 800139e:	e000      	b.n	80013a2 <FEB_regen_filter_Speed+0x36>
    }
    else
    {
        return unfiltered_regen_torque;
 80013a0:	687b      	ldr	r3, [r7, #4]
    }
}
 80013a2:	ee07 3a90 	vmov	s15, r3
 80013a6:	eeb0 0a67 	vmov.f32	s0, s15
 80013aa:	3714      	adds	r7, #20
 80013ac:	46bd      	mov	sp, r7
 80013ae:	f85d 7b04 	ldr.w	r7, [sp], #4
 80013b2:	4770      	bx	lr
 80013b4:	2000025c 	.word	0x2000025c
 80013b8:	43480000 	.word	0x43480000
 80013bc:	00000000 	.word	0x00000000

080013c0 <FEB_regen_filter_SOC>:

// Saturated linear function between
// (START_REGEN_SOC, 0) and (MAX_REGEN_SOC, 1)
float FEB_regen_filter_SOC(float unfiltered_regen_torque){
 80013c0:	b5b0      	push	{r4, r5, r7, lr}
 80013c2:	b086      	sub	sp, #24
 80013c4:	af00      	add	r7, sp, #0
 80013c6:	ed87 0a01 	vstr	s0, [r7, #4]
	float state_of_charge = 1; // FEB_BMS_getSOC(); // TODO for Evan, uncomment and use SOC
 80013ca:	f04f 537e 	mov.w	r3, #1065353216	@ 0x3f800000
 80013ce:	613b      	str	r3, [r7, #16]

	// m = (y_1 - y_0) / (x_1 - x_0)
	float slope = (1 - 0) / (MAX_REGEN_SOC - START_REGEN_SOC);
 80013d0:	4b21      	ldr	r3, [pc, #132]	@ (8001458 <FEB_regen_filter_SOC+0x98>)
 80013d2:	60fb      	str	r3, [r7, #12]
	// y - y_0 = m (x - x_0)
	float k_SOC = slope * (state_of_charge - START_REGEN_SOC);
 80013d4:	68f8      	ldr	r0, [r7, #12]
 80013d6:	f7ff f8d7 	bl	8000588 <__aeabi_f2d>
 80013da:	4604      	mov	r4, r0
 80013dc:	460d      	mov	r5, r1
 80013de:	6938      	ldr	r0, [r7, #16]
 80013e0:	f7ff f8d2 	bl	8000588 <__aeabi_f2d>
 80013e4:	a31a      	add	r3, pc, #104	@ (adr r3, 8001450 <FEB_regen_filter_SOC+0x90>)
 80013e6:	e9d3 2300 	ldrd	r2, r3, [r3]
 80013ea:	f7fe ff6d 	bl	80002c8 <__aeabi_dsub>
 80013ee:	4602      	mov	r2, r0
 80013f0:	460b      	mov	r3, r1
 80013f2:	4620      	mov	r0, r4
 80013f4:	4629      	mov	r1, r5
 80013f6:	f7ff f91f 	bl	8000638 <__aeabi_dmul>
 80013fa:	4602      	mov	r2, r0
 80013fc:	460b      	mov	r3, r1
 80013fe:	4610      	mov	r0, r2
 8001400:	4619      	mov	r1, r3
 8001402:	f7ff fbf1 	bl	8000be8 <__aeabi_d2f>
 8001406:	4603      	mov	r3, r0
 8001408:	617b      	str	r3, [r7, #20]
    
	// Saturate between 0 and 1
	if (k_SOC > 1)
 800140a:	edd7 7a05 	vldr	s15, [r7, #20]
 800140e:	eeb7 7a00 	vmov.f32	s14, #112	@ 0x3f800000  1.0
 8001412:	eef4 7ac7 	vcmpe.f32	s15, s14
 8001416:	eef1 fa10 	vmrs	APSR_nzcv, fpscr
 800141a:	dd02      	ble.n	8001422 <FEB_regen_filter_SOC+0x62>
	{
		k_SOC = 1;
 800141c:	f04f 537e 	mov.w	r3, #1065353216	@ 0x3f800000
 8001420:	617b      	str	r3, [r7, #20]
	}
	if (k_SOC < 0)
 8001422:	edd7 7a05 	vldr	s15, [r7, #20]
 8001426:	eef5 7ac0 	vcmpe.f32	s15, #0.0
 800142a:	eef1 fa10 	vmrs	APSR_nzcv, fpscr
 800142e:	d502      	bpl.n	8001436 <FEB_regen_filter_SOC+0x76>
	{
		return 0;
 8001430:	eddf 7a0a 	vldr	s15, [pc, #40]	@ 800145c <FEB_regen_filter_SOC+0x9c>
 8001434:	e005      	b.n	8001442 <FEB_regen_filter_SOC+0x82>
	}
	return k_SOC * unfiltered_regen_torque; // be wary of typing (float vs int)
 8001436:	ed97 7a05 	vldr	s14, [r7, #20]
 800143a:	edd7 7a01 	vldr	s15, [r7, #4]
 800143e:	ee67 7a27 	vmul.f32	s15, s14, s15
}
 8001442:	eeb0 0a67 	vmov.f32	s0, s15
 8001446:	3718      	adds	r7, #24
 8001448:	46bd      	mov	sp, r7
 800144a:	bdb0      	pop	{r4, r5, r7, pc}
 800144c:	f3af 8000 	nop.w
 8001450:	66666666 	.word	0x66666666
 8001454:	3fee6666 	.word	0x3fee6666
 8001458:	c0d55555 	.word	0xc0d55555
 800145c:	00000000 	.word	0x00000000

08001460 <FEB_regen_filter_Temp>:

// Consider linear function similar to the above if driver doesn't like the exponential
// This will depend on how fast cells heat up
// Function with a vertical asymptote at 45 deg C
float FEB_regen_filter_Temp(float unfiltered_regen_torque){
 8001460:	b5b0      	push	{r4, r5, r7, lr}
 8001462:	b086      	sub	sp, #24
 8001464:	af00      	add	r7, sp, #0
 8001466:	ed87 0a01 	vstr	s0, [r7, #4]
	float hottest_cell_temp_C = 25; //(); // TODO
 800146a:	4b20      	ldr	r3, [pc, #128]	@ (80014ec <FEB_regen_filter_Temp+0x8c>)
 800146c:	617b      	str	r3, [r7, #20]
	float e = 2.71828;
 800146e:	4b20      	ldr	r3, [pc, #128]	@ (80014f0 <FEB_regen_filter_Temp+0x90>)
 8001470:	613b      	str	r3, [r7, #16]
	float exponent = TEMP_FILTER_SHARPNESS * (hottest_cell_temp_C - MAX_CELL_TEMP);
 8001472:	edd7 7a05 	vldr	s15, [r7, #20]
 8001476:	ed9f 7a1f 	vldr	s14, [pc, #124]	@ 80014f4 <FEB_regen_filter_Temp+0x94>
 800147a:	ee77 7ac7 	vsub.f32	s15, s15, s14
 800147e:	edc7 7a03 	vstr	s15, [r7, #12]
	float k_temp = 1 - pow(e, exponent);
 8001482:	6938      	ldr	r0, [r7, #16]
 8001484:	f7ff f880 	bl	8000588 <__aeabi_f2d>
 8001488:	4604      	mov	r4, r0
 800148a:	460d      	mov	r5, r1
 800148c:	68f8      	ldr	r0, [r7, #12]
 800148e:	f7ff f87b 	bl	8000588 <__aeabi_f2d>
 8001492:	4602      	mov	r2, r0
 8001494:	460b      	mov	r3, r1
 8001496:	ec43 2b11 	vmov	d1, r2, r3
 800149a:	ec45 4b10 	vmov	d0, r4, r5
 800149e:	f007 fa95 	bl	80089cc <pow>
 80014a2:	ec53 2b10 	vmov	r2, r3, d0
 80014a6:	f04f 0000 	mov.w	r0, #0
 80014aa:	4913      	ldr	r1, [pc, #76]	@ (80014f8 <FEB_regen_filter_Temp+0x98>)
 80014ac:	f7fe ff0c 	bl	80002c8 <__aeabi_dsub>
 80014b0:	4602      	mov	r2, r0
 80014b2:	460b      	mov	r3, r1
 80014b4:	4610      	mov	r0, r2
 80014b6:	4619      	mov	r1, r3
 80014b8:	f7ff fb96 	bl	8000be8 <__aeabi_d2f>
 80014bc:	4603      	mov	r3, r0
 80014be:	60bb      	str	r3, [r7, #8]
	if (k_temp < 0)
 80014c0:	edd7 7a02 	vldr	s15, [r7, #8]
 80014c4:	eef5 7ac0 	vcmpe.f32	s15, #0.0
 80014c8:	eef1 fa10 	vmrs	APSR_nzcv, fpscr
 80014cc:	d502      	bpl.n	80014d4 <FEB_regen_filter_Temp+0x74>
	{
		return 0;
 80014ce:	eddf 7a0b 	vldr	s15, [pc, #44]	@ 80014fc <FEB_regen_filter_Temp+0x9c>
 80014d2:	e005      	b.n	80014e0 <FEB_regen_filter_Temp+0x80>
	}
	return k_temp * unfiltered_regen_torque;
 80014d4:	ed97 7a02 	vldr	s14, [r7, #8]
 80014d8:	edd7 7a01 	vldr	s15, [r7, #4]
 80014dc:	ee67 7a27 	vmul.f32	s15, s14, s15
}
 80014e0:	eeb0 0a67 	vmov.f32	s0, s15
 80014e4:	3718      	adds	r7, #24
 80014e6:	46bd      	mov	sp, r7
 80014e8:	bdb0      	pop	{r4, r5, r7, pc}
 80014ea:	bf00      	nop
 80014ec:	41c80000 	.word	0x41c80000
 80014f0:	402df84d 	.word	0x402df84d
 80014f4:	42340000 	.word	0x42340000
 80014f8:	3ff00000 	.word	0x3ff00000
 80014fc:	00000000 	.word	0x00000000

08001500 <FEB_regen_filter>:

// Wrapper function for various filters
float FEB_regen_filter(float regen_torque_max){
 8001500:	b580      	push	{r7, lr}
 8001502:	b084      	sub	sp, #16
 8001504:	af00      	add	r7, sp, #0
 8001506:	ed87 0a01 	vstr	s0, [r7, #4]
	float filtered_regen_torque = regen_torque_max;
 800150a:	687b      	ldr	r3, [r7, #4]
 800150c:	60fb      	str	r3, [r7, #12]
	filtered_regen_torque = FEB_regen_filter_Speed(filtered_regen_torque);
 800150e:	ed97 0a03 	vldr	s0, [r7, #12]
 8001512:	f7ff ff2b 	bl	800136c <FEB_regen_filter_Speed>
 8001516:	ed87 0a03 	vstr	s0, [r7, #12]
	filtered_regen_torque = FEB_regen_filter_SOC(filtered_regen_torque);
 800151a:	ed97 0a03 	vldr	s0, [r7, #12]
 800151e:	f7ff ff4f 	bl	80013c0 <FEB_regen_filter_SOC>
 8001522:	ed87 0a03 	vstr	s0, [r7, #12]
	filtered_regen_torque = FEB_regen_filter_Temp(filtered_regen_torque);
 8001526:	ed97 0a03 	vldr	s0, [r7, #12]
 800152a:	f7ff ff99 	bl	8001460 <FEB_regen_filter_Temp>
 800152e:	ed87 0a03 	vstr	s0, [r7, #12]
	return filtered_regen_torque * USER_REGEN_FILTER;
 8001532:	edd7 7a03 	vldr	s15, [r7, #12]
 8001536:	ed9f 7a04 	vldr	s14, [pc, #16]	@ 8001548 <FEB_regen_filter+0x48>
 800153a:	ee67 7a87 	vmul.f32	s15, s15, s14
}
 800153e:	eeb0 0a67 	vmov.f32	s0, s15
 8001542:	3710      	adds	r7, #16
 8001544:	46bd      	mov	sp, r7
 8001546:	bd80      	pop	{r7, pc}
 8001548:	00000000 	.word	0x00000000

0800154c <FEB_CAN_RMS_getFilteredTorque_Regen>:

// **** TORQUE FUNCTIONS****

// Returns MAGNITUDE of regen torque
float FEB_CAN_RMS_getFilteredTorque_Regen(void){
 800154c:	b580      	push	{r7, lr}
 800154e:	b082      	sub	sp, #8
 8001550:	af00      	add	r7, sp, #0
	float present_regen_max = FEB_getElecMaxRegenTorque();
 8001552:	f7ff fe81 	bl	8001258 <FEB_getElecMaxRegenTorque>
 8001556:	ed87 0a01 	vstr	s0, [r7, #4]
	return FEB_regen_filter(present_regen_max);
 800155a:	ed97 0a01 	vldr	s0, [r7, #4]
 800155e:	f7ff ffcf 	bl	8001500 <FEB_regen_filter>
 8001562:	eef0 7a40 	vmov.f32	s15, s0
}
 8001566:	eeb0 0a67 	vmov.f32	s0, s15
 800156a:	3708      	adds	r7, #8
 800156c:	46bd      	mov	sp, r7
 800156e:	bd80      	pop	{r7, pc}

08001570 <FEB_get_peak_current_delimiter>:
// This means we will assume the pack resistance is about 1 Ohm
// Note this will likely be steeper as we approach lower SOC, but these cell dynamics are hopefully
// negligible due to the heavy current limiting and the ohmic losses of the accumulator
// Linear interpolation between (460V, 60/60A) and (410V, 10/60A), where PEAK_CURRENT is 60A
float FEB_get_peak_current_delimiter()
{
 8001570:	b580      	push	{r7, lr}
 8001572:	b086      	sub	sp, #24
 8001574:	af00      	add	r7, sp, #0
	float accumulator_voltage = (RMS_MESSAGE.HV_Bus_Voltage-50.0) / 10.0;
 8001576:	4b38      	ldr	r3, [pc, #224]	@ (8001658 <FEB_get_peak_current_delimiter+0xe8>)
 8001578:	f9b3 3000 	ldrsh.w	r3, [r3]
 800157c:	4618      	mov	r0, r3
 800157e:	f7fe fff1 	bl	8000564 <__aeabi_i2d>
 8001582:	f04f 0200 	mov.w	r2, #0
 8001586:	4b35      	ldr	r3, [pc, #212]	@ (800165c <FEB_get_peak_current_delimiter+0xec>)
 8001588:	f7fe fe9e 	bl	80002c8 <__aeabi_dsub>
 800158c:	4602      	mov	r2, r0
 800158e:	460b      	mov	r3, r1
 8001590:	4610      	mov	r0, r2
 8001592:	4619      	mov	r1, r3
 8001594:	f04f 0200 	mov.w	r2, #0
 8001598:	4b31      	ldr	r3, [pc, #196]	@ (8001660 <FEB_get_peak_current_delimiter+0xf0>)
 800159a:	f7ff f977 	bl	800088c <__aeabi_ddiv>
 800159e:	4602      	mov	r2, r0
 80015a0:	460b      	mov	r3, r1
 80015a2:	4610      	mov	r0, r2
 80015a4:	4619      	mov	r1, r3
 80015a6:	f7ff fb1f 	bl	8000be8 <__aeabi_d2f>
 80015aa:	4603      	mov	r3, r0
 80015ac:	617b      	str	r3, [r7, #20]
	float estimated_voltage_drop_at_peak = PEAK_CURRENT;
 80015ae:	4b2d      	ldr	r3, [pc, #180]	@ (8001664 <FEB_get_peak_current_delimiter+0xf4>)
 80015b0:	613b      	str	r3, [r7, #16]
	float start_derating_voltage = 400.0 + PEAK_CURRENT; // Assume R_acc = 1ohm
 80015b2:	4b2d      	ldr	r3, [pc, #180]	@ (8001668 <FEB_get_peak_current_delimiter+0xf8>)
 80015b4:	60fb      	str	r3, [r7, #12]
	// Note: Comments are based on start_derating_voltage = 460V and PEAK_CURRENT = 60

	// Saturate outside of 460 and 410
	if (accumulator_voltage > start_derating_voltage)
 80015b6:	ed97 7a05 	vldr	s14, [r7, #20]
 80015ba:	edd7 7a03 	vldr	s15, [r7, #12]
 80015be:	eeb4 7ae7 	vcmpe.f32	s14, s15
 80015c2:	eef1 fa10 	vmrs	APSR_nzcv, fpscr
 80015c6:	dd02      	ble.n	80015ce <FEB_get_peak_current_delimiter+0x5e>
	{
		return 1;
 80015c8:	f04f 537e 	mov.w	r3, #1065353216	@ 0x3f800000
 80015cc:	e034      	b.n	8001638 <FEB_get_peak_current_delimiter+0xc8>
	}
	if (accumulator_voltage <= 410)
 80015ce:	edd7 7a05 	vldr	s15, [r7, #20]
 80015d2:	ed9f 7a26 	vldr	s14, [pc, #152]	@ 800166c <FEB_get_peak_current_delimiter+0xfc>
 80015d6:	eef4 7ac7 	vcmpe.f32	s15, s14
 80015da:	eef1 fa10 	vmrs	APSR_nzcv, fpscr
 80015de:	d801      	bhi.n	80015e4 <FEB_get_peak_current_delimiter+0x74>
	{
		return (10.0 / PEAK_CURRENT); // limit to only 10A 
 80015e0:	4b23      	ldr	r3, [pc, #140]	@ (8001670 <FEB_get_peak_current_delimiter+0x100>)
 80015e2:	e029      	b.n	8001638 <FEB_get_peak_current_delimiter+0xc8>

	//   x0    y0            x1    y1
	// (460V, 60/60A) and (410V, 10/60A)

	//      m   = (        y_1           -              y_0)              / (x_1 -          x_0)
	float slope = ((10.0 / PEAK_CURRENT) - (PEAK_CURRENT / PEAK_CURRENT)) / (410.0 - (start_derating_voltage));
 80015e4:	68f8      	ldr	r0, [r7, #12]
 80015e6:	f7fe ffcf 	bl	8000588 <__aeabi_f2d>
 80015ea:	4602      	mov	r2, r0
 80015ec:	460b      	mov	r3, r1
 80015ee:	a116      	add	r1, pc, #88	@ (adr r1, 8001648 <FEB_get_peak_current_delimiter+0xd8>)
 80015f0:	e9d1 0100 	ldrd	r0, r1, [r1]
 80015f4:	f7fe fe68 	bl	80002c8 <__aeabi_dsub>
 80015f8:	4602      	mov	r2, r0
 80015fa:	460b      	mov	r3, r1
 80015fc:	a114      	add	r1, pc, #80	@ (adr r1, 8001650 <FEB_get_peak_current_delimiter+0xe0>)
 80015fe:	e9d1 0100 	ldrd	r0, r1, [r1]
 8001602:	f7ff f943 	bl	800088c <__aeabi_ddiv>
 8001606:	4602      	mov	r2, r0
 8001608:	460b      	mov	r3, r1
 800160a:	4610      	mov	r0, r2
 800160c:	4619      	mov	r1, r3
 800160e:	f7ff faeb 	bl	8000be8 <__aeabi_d2f>
 8001612:	4603      	mov	r3, r0
 8001614:	60bb      	str	r3, [r7, #8]
	//      y     =   m     (       x            -          x_0          ) + y_0
	float derater = slope * (accumulator_voltage - start_derating_voltage) + 1.0;
 8001616:	ed97 7a05 	vldr	s14, [r7, #20]
 800161a:	edd7 7a03 	vldr	s15, [r7, #12]
 800161e:	ee37 7a67 	vsub.f32	s14, s14, s15
 8001622:	edd7 7a02 	vldr	s15, [r7, #8]
 8001626:	ee67 7a27 	vmul.f32	s15, s14, s15
 800162a:	eeb7 7a00 	vmov.f32	s14, #112	@ 0x3f800000  1.0
 800162e:	ee77 7a87 	vadd.f32	s15, s15, s14
 8001632:	edc7 7a01 	vstr	s15, [r7, #4]

	return derater;   
 8001636:	687b      	ldr	r3, [r7, #4]
}
 8001638:	ee07 3a90 	vmov	s15, r3
 800163c:	eeb0 0a67 	vmov.f32	s0, s15
 8001640:	3718      	adds	r7, #24
 8001642:	46bd      	mov	sp, r7
 8001644:	bd80      	pop	{r7, pc}
 8001646:	bf00      	nop
 8001648:	00000000 	.word	0x00000000
 800164c:	4079a000 	.word	0x4079a000
 8001650:	89d89d8a 	.word	0x89d89d8a
 8001654:	bfe9d89d 	.word	0xbfe9d89d
 8001658:	2000025c 	.word	0x2000025c
 800165c:	40490000 	.word	0x40490000
 8001660:	40240000 	.word	0x40240000
 8001664:	42500000 	.word	0x42500000
 8001668:	43e20000 	.word	0x43e20000
 800166c:	43cd0000 	.word	0x43cd0000
 8001670:	3e44ec4f 	.word	0x3e44ec4f
 8001674:	00000000 	.word	0x00000000

08001678 <FEB_CAN_RMS_getMaxTorque>:

float FEB_CAN_RMS_getMaxTorque(void){
 8001678:	b580      	push	{r7, lr}
 800167a:	b084      	sub	sp, #16
 800167c:	af00      	add	r7, sp, #0
	// float accumulator_voltage = min(INIT_VOLTAGE, (RMS_MESSAGE.HV_Bus_Voltage-50) / 10); // TODO: consider reading from IVT
	float motor_speed = RMS_MESSAGE.Motor_Speed * RPM_TO_RAD_S;
 800167e:	4b30      	ldr	r3, [pc, #192]	@ (8001740 <FEB_CAN_RMS_getMaxTorque+0xc8>)
 8001680:	f9b3 3002 	ldrsh.w	r3, [r3, #2]
 8001684:	4618      	mov	r0, r3
 8001686:	f7fe ff6d 	bl	8000564 <__aeabi_i2d>
 800168a:	a32b      	add	r3, pc, #172	@ (adr r3, 8001738 <FEB_CAN_RMS_getMaxTorque+0xc0>)
 800168c:	e9d3 2300 	ldrd	r2, r3, [r3]
 8001690:	f7fe ffd2 	bl	8000638 <__aeabi_dmul>
 8001694:	4602      	mov	r2, r0
 8001696:	460b      	mov	r3, r1
 8001698:	4610      	mov	r0, r2
 800169a:	4619      	mov	r1, r3
 800169c:	f7ff faa4 	bl	8000be8 <__aeabi_d2f>
 80016a0:	4603      	mov	r3, r0
 80016a2:	60fb      	str	r3, [r7, #12]
	float peak_current_limited = PEAK_CURRENT * FEB_get_peak_current_delimiter();
 80016a4:	f7ff ff64 	bl	8001570 <FEB_get_peak_current_delimiter>
 80016a8:	ee10 3a10 	vmov	r3, s0
 80016ac:	4618      	mov	r0, r3
 80016ae:	f7fe ff6b 	bl	8000588 <__aeabi_f2d>
 80016b2:	f04f 0200 	mov.w	r2, #0
 80016b6:	4b23      	ldr	r3, [pc, #140]	@ (8001744 <FEB_CAN_RMS_getMaxTorque+0xcc>)
 80016b8:	f7fe ffbe 	bl	8000638 <__aeabi_dmul>
 80016bc:	4602      	mov	r2, r0
 80016be:	460b      	mov	r3, r1
 80016c0:	4610      	mov	r0, r2
 80016c2:	4619      	mov	r1, r3
 80016c4:	f7ff fa90 	bl	8000be8 <__aeabi_d2f>
 80016c8:	4603      	mov	r3, r0
 80016ca:	60bb      	str	r3, [r7, #8]
	float power_capped = peak_current_limited * 400.0; // Cap power to 24kW (i.e. our min voltage)
 80016cc:	edd7 7a02 	vldr	s15, [r7, #8]
 80016d0:	ed9f 7a1d 	vldr	s14, [pc, #116]	@ 8001748 <FEB_CAN_RMS_getMaxTorque+0xd0>
 80016d4:	ee67 7a87 	vmul.f32	s15, s15, s14
 80016d8:	edc7 7a01 	vstr	s15, [r7, #4]
 	// If speed is less than 15, we should command max torque
  	// This catches divide by 0 errors and also negative speeds (which may create very high negative torque values)
	if (motor_speed < 15) {
 80016dc:	edd7 7a03 	vldr	s15, [r7, #12]
 80016e0:	eeb2 7a0e 	vmov.f32	s14, #46	@ 0x41700000  15.0
 80016e4:	eef4 7ac7 	vcmpe.f32	s15, s14
 80016e8:	eef1 fa10 	vmrs	APSR_nzcv, fpscr
 80016ec:	d501      	bpl.n	80016f2 <FEB_CAN_RMS_getMaxTorque+0x7a>
		return MAX_TORQUE;
 80016ee:	4b17      	ldr	r3, [pc, #92]	@ (800174c <FEB_CAN_RMS_getMaxTorque+0xd4>)
 80016f0:	e018      	b.n	8001724 <FEB_CAN_RMS_getMaxTorque+0xac>
	}
	float maxTorque = min(MAX_TORQUE, (power_capped) / motor_speed);
 80016f2:	edd7 6a01 	vldr	s13, [r7, #4]
 80016f6:	ed97 7a03 	vldr	s14, [r7, #12]
 80016fa:	eec6 7a87 	vdiv.f32	s15, s13, s14
 80016fe:	ed9f 7a14 	vldr	s14, [pc, #80]	@ 8001750 <FEB_CAN_RMS_getMaxTorque+0xd8>
 8001702:	eef4 7ac7 	vcmpe.f32	s15, s14
 8001706:	eef1 fa10 	vmrs	APSR_nzcv, fpscr
 800170a:	dd02      	ble.n	8001712 <FEB_CAN_RMS_getMaxTorque+0x9a>
 800170c:	eddf 7a10 	vldr	s15, [pc, #64]	@ 8001750 <FEB_CAN_RMS_getMaxTorque+0xd8>
 8001710:	e005      	b.n	800171e <FEB_CAN_RMS_getMaxTorque+0xa6>
 8001712:	edd7 6a01 	vldr	s13, [r7, #4]
 8001716:	ed97 7a03 	vldr	s14, [r7, #12]
 800171a:	eec6 7a87 	vdiv.f32	s15, s13, s14
 800171e:	edc7 7a00 	vstr	s15, [r7]
	return maxTorque;
 8001722:	683b      	ldr	r3, [r7, #0]
}
 8001724:	ee07 3a90 	vmov	s15, r3
 8001728:	eeb0 0a67 	vmov.f32	s0, s15
 800172c:	3710      	adds	r7, #16
 800172e:	46bd      	mov	sp, r7
 8001730:	bd80      	pop	{r7, pc}
 8001732:	bf00      	nop
 8001734:	f3af 8000 	nop.w
 8001738:	0f3cb3e5 	.word	0x0f3cb3e5
 800173c:	3fbaceee 	.word	0x3fbaceee
 8001740:	2000025c 	.word	0x2000025c
 8001744:	404a0000 	.word	0x404a0000
 8001748:	43c80000 	.word	0x43c80000
 800174c:	43660000 	.word	0x43660000
 8001750:	43660000 	.word	0x43660000
 8001754:	00000000 	.word	0x00000000

08001758 <FEB_CAN_RMS_Torque>:

void FEB_CAN_RMS_Torque(void){
 8001758:	b580      	push	{r7, lr}
 800175a:	ed2d 8b02 	vpush	{d8}
 800175e:	b084      	sub	sp, #16
 8001760:	af00      	add	r7, sp, #0
	FEB_SM_ST_t current_BMS_state = FEB_CAN_BMS_getState(); // TODO: FOR ALEX
 8001762:	f7ff fcd3 	bl	800110c <FEB_CAN_BMS_getState>
 8001766:	4603      	mov	r3, r0
 8001768:	73fb      	strb	r3, [r7, #15]
	float accPos = FEB_Normalized_Acc_Pedals();
 800176a:	f000 fa21 	bl	8001bb0 <FEB_Normalized_Acc_Pedals>
 800176e:	ed87 0a02 	vstr	s0, [r7, #8]
	float brkPos = FEB_Normalized_getBrake();
 8001772:	f000 fb35 	bl	8001de0 <FEB_Normalized_getBrake>
 8001776:	ed87 0a01 	vstr	s0, [r7, #4]
	if (brkPos > BRAKE_POSITION_THRESH) // brake identified
 800177a:	6878      	ldr	r0, [r7, #4]
 800177c:	f7fe ff04 	bl	8000588 <__aeabi_f2d>
 8001780:	a324      	add	r3, pc, #144	@ (adr r3, 8001814 <FEB_CAN_RMS_Torque+0xbc>)
 8001782:	e9d3 2300 	ldrd	r2, r3, [r3]
 8001786:	f7ff f9e7 	bl	8000b58 <__aeabi_dcmpgt>
 800178a:	4603      	mov	r3, r0
 800178c:	2b00      	cmp	r3, #0
 800178e:	d01a      	beq.n	80017c6 <FEB_CAN_RMS_Torque+0x6e>
	{
		if ((current_BMS_state == FEB_SM_ST_DRIVE_REGEN))
 8001790:	7bfb      	ldrb	r3, [r7, #15]
 8001792:	2b07      	cmp	r3, #7
 8001794:	d113      	bne.n	80017be <FEB_CAN_RMS_Torque+0x66>
		{
		    // Brake detected, regen allowed
			// Multiply by -1 to regen (opposite direction)
			RMSControl.torque = -1 * 10 * brkPos * FEB_CAN_RMS_getFilteredTorque_Regen();
 8001796:	edd7 7a01 	vldr	s15, [r7, #4]
 800179a:	eeba 7a04 	vmov.f32	s14, #164	@ 0xc1200000 -10.0
 800179e:	ee27 8a87 	vmul.f32	s16, s15, s14
 80017a2:	f7ff fed3 	bl	800154c <FEB_CAN_RMS_getFilteredTorque_Regen>
 80017a6:	eef0 7a40 	vmov.f32	s15, s0
 80017aa:	ee68 7a27 	vmul.f32	s15, s16, s15
 80017ae:	eefd 7ae7 	vcvt.s32.f32	s15, s15
 80017b2:	ee17 3a90 	vmov	r3, s15
 80017b6:	b21a      	sxth	r2, r3
 80017b8:	4b15      	ldr	r3, [pc, #84]	@ (8001810 <FEB_CAN_RMS_Torque+0xb8>)
 80017ba:	801a      	strh	r2, [r3, #0]
 80017bc:	e020      	b.n	8001800 <FEB_CAN_RMS_Torque+0xa8>
		}
		else
		{
			// Brake detected, but regen not allowed -> command 0 torque
			RMSControl.torque = 0;
 80017be:	4b14      	ldr	r3, [pc, #80]	@ (8001810 <FEB_CAN_RMS_Torque+0xb8>)
 80017c0:	2200      	movs	r2, #0
 80017c2:	801a      	strh	r2, [r3, #0]
 80017c4:	e01c      	b.n	8001800 <FEB_CAN_RMS_Torque+0xa8>
		}
	}
	else
	{
	    if ((current_BMS_state == FEB_SM_ST_DRIVE) ||
 80017c6:	7bfb      	ldrb	r3, [r7, #15]
 80017c8:	2b06      	cmp	r3, #6
 80017ca:	d002      	beq.n	80017d2 <FEB_CAN_RMS_Torque+0x7a>
 80017cc:	7bfb      	ldrb	r3, [r7, #15]
 80017ce:	2b07      	cmp	r3, #7
 80017d0:	d113      	bne.n	80017fa <FEB_CAN_RMS_Torque+0xa2>
	        (current_BMS_state == FEB_SM_ST_DRIVE_REGEN))
	    {
	        // No braking detected, send throttle command
    		RMSControl.torque = 10 * accPos * FEB_CAN_RMS_getMaxTorque();
 80017d2:	edd7 7a02 	vldr	s15, [r7, #8]
 80017d6:	eeb2 7a04 	vmov.f32	s14, #36	@ 0x41200000  10.0
 80017da:	ee27 8a87 	vmul.f32	s16, s15, s14
 80017de:	f7ff ff4b 	bl	8001678 <FEB_CAN_RMS_getMaxTorque>
 80017e2:	eef0 7a40 	vmov.f32	s15, s0
 80017e6:	ee68 7a27 	vmul.f32	s15, s16, s15
 80017ea:	eefd 7ae7 	vcvt.s32.f32	s15, s15
 80017ee:	ee17 3a90 	vmov	r3, s15
 80017f2:	b21a      	sxth	r2, r3
 80017f4:	4b06      	ldr	r3, [pc, #24]	@ (8001810 <FEB_CAN_RMS_Torque+0xb8>)
 80017f6:	801a      	strh	r2, [r3, #0]
 80017f8:	e002      	b.n	8001800 <FEB_CAN_RMS_Torque+0xa8>
	    }
	    else
	    {
	        // No braking detected, but driving not allowed by BMS state
	        RMSControl.torque = 0;
 80017fa:	4b05      	ldr	r3, [pc, #20]	@ (8001810 <FEB_CAN_RMS_Torque+0xb8>)
 80017fc:	2200      	movs	r2, #0
 80017fe:	801a      	strh	r2, [r3, #0]
//	sprintf(buf, "Torque: %d\n", max_torque);
//	HAL_UART_Transmit(&huart2, buf, strlen(buf), 100);
//
//	RMSControl.torque= max_torque;

	FEB_CAN_RMS_Transmit_updateTorque();
 8001800:	f000 f80c 	bl	800181c <FEB_CAN_RMS_Transmit_updateTorque>
}
 8001804:	bf00      	nop
 8001806:	3710      	adds	r7, #16
 8001808:	46bd      	mov	sp, r7
 800180a:	ecbd 8b02 	vpop	{d8}
 800180e:	bd80      	pop	{r7, pc}
 8001810:	20000258 	.word	0x20000258
 8001814:	33333333 	.word	0x33333333
 8001818:	3fc33333 	.word	0x3fc33333

0800181c <FEB_CAN_RMS_Transmit_updateTorque>:

	// Select CAN msg to broadcast
	FEB_CAN_RMS_Transmit_paramBroadcast();
}

void FEB_CAN_RMS_Transmit_updateTorque(void) { //TODO: Create Custom Transmit function and update below call
 800181c:	b580      	push	{r7, lr}
 800181e:	af00      	add	r7, sp, #0
  //uint8_t message_data[8] = {RMSControl.torque & 0xFF, RMSControl.torque >> 8, 0, 0, 0, RMSControl.enabled, 0, 0};
	FEB_CAN_Tx_Header.DLC = 8;
 8001820:	4b1f      	ldr	r3, [pc, #124]	@ (80018a0 <FEB_CAN_RMS_Transmit_updateTorque+0x84>)
 8001822:	2208      	movs	r2, #8
 8001824:	611a      	str	r2, [r3, #16]
	FEB_CAN_Tx_Header.StdId = 0x0C0; //ID for sending paramater messages for RMS
 8001826:	4b1e      	ldr	r3, [pc, #120]	@ (80018a0 <FEB_CAN_RMS_Transmit_updateTorque+0x84>)
 8001828:	22c0      	movs	r2, #192	@ 0xc0
 800182a:	601a      	str	r2, [r3, #0]
	FEB_CAN_Tx_Header.IDE = CAN_ID_STD;
 800182c:	4b1c      	ldr	r3, [pc, #112]	@ (80018a0 <FEB_CAN_RMS_Transmit_updateTorque+0x84>)
 800182e:	2200      	movs	r2, #0
 8001830:	609a      	str	r2, [r3, #8]
	FEB_CAN_Tx_Header.RTR = CAN_RTR_DATA;
 8001832:	4b1b      	ldr	r3, [pc, #108]	@ (80018a0 <FEB_CAN_RMS_Transmit_updateTorque+0x84>)
 8001834:	2200      	movs	r2, #0
 8001836:	60da      	str	r2, [r3, #12]
	FEB_CAN_Tx_Header.TransmitGlobalTime = DISABLE;
 8001838:	4b19      	ldr	r3, [pc, #100]	@ (80018a0 <FEB_CAN_RMS_Transmit_updateTorque+0x84>)
 800183a:	2200      	movs	r2, #0
 800183c:	751a      	strb	r2, [r3, #20]

	// Copy data to Tx buffer
	FEB_CAN_Tx_Data[0] = (uint8_t)RMSControl.torque & 0xFF;
 800183e:	4b19      	ldr	r3, [pc, #100]	@ (80018a4 <FEB_CAN_RMS_Transmit_updateTorque+0x88>)
 8001840:	f9b3 3000 	ldrsh.w	r3, [r3]
 8001844:	b2da      	uxtb	r2, r3
 8001846:	4b18      	ldr	r3, [pc, #96]	@ (80018a8 <FEB_CAN_RMS_Transmit_updateTorque+0x8c>)
 8001848:	701a      	strb	r2, [r3, #0]
	FEB_CAN_Tx_Data[1] = (uint8_t)(RMSControl.torque >> 8) & 0xFF;
 800184a:	4b16      	ldr	r3, [pc, #88]	@ (80018a4 <FEB_CAN_RMS_Transmit_updateTorque+0x88>)
 800184c:	f9b3 3000 	ldrsh.w	r3, [r3]
 8001850:	121b      	asrs	r3, r3, #8
 8001852:	b21b      	sxth	r3, r3
 8001854:	b2da      	uxtb	r2, r3
 8001856:	4b14      	ldr	r3, [pc, #80]	@ (80018a8 <FEB_CAN_RMS_Transmit_updateTorque+0x8c>)
 8001858:	705a      	strb	r2, [r3, #1]
	FEB_CAN_Tx_Data[2] = 0;
 800185a:	4b13      	ldr	r3, [pc, #76]	@ (80018a8 <FEB_CAN_RMS_Transmit_updateTorque+0x8c>)
 800185c:	2200      	movs	r2, #0
 800185e:	709a      	strb	r2, [r3, #2]
	FEB_CAN_Tx_Data[3] = 0;
 8001860:	4b11      	ldr	r3, [pc, #68]	@ (80018a8 <FEB_CAN_RMS_Transmit_updateTorque+0x8c>)
 8001862:	2200      	movs	r2, #0
 8001864:	70da      	strb	r2, [r3, #3]
	FEB_CAN_Tx_Data[4] = 1;
 8001866:	4b10      	ldr	r3, [pc, #64]	@ (80018a8 <FEB_CAN_RMS_Transmit_updateTorque+0x8c>)
 8001868:	2201      	movs	r2, #1
 800186a:	711a      	strb	r2, [r3, #4]
	FEB_CAN_Tx_Data[5] = RMSControl.enabled;
 800186c:	4b0d      	ldr	r3, [pc, #52]	@ (80018a4 <FEB_CAN_RMS_Transmit_updateTorque+0x88>)
 800186e:	789a      	ldrb	r2, [r3, #2]
 8001870:	4b0d      	ldr	r3, [pc, #52]	@ (80018a8 <FEB_CAN_RMS_Transmit_updateTorque+0x8c>)
 8001872:	715a      	strb	r2, [r3, #5]
	FEB_CAN_Tx_Data[6] = 0;
 8001874:	4b0c      	ldr	r3, [pc, #48]	@ (80018a8 <FEB_CAN_RMS_Transmit_updateTorque+0x8c>)
 8001876:	2200      	movs	r2, #0
 8001878:	719a      	strb	r2, [r3, #6]
	FEB_CAN_Tx_Data[7] = 0;
 800187a:	4b0b      	ldr	r3, [pc, #44]	@ (80018a8 <FEB_CAN_RMS_Transmit_updateTorque+0x8c>)
 800187c:	2200      	movs	r2, #0
 800187e:	71da      	strb	r2, [r3, #7]

	// Delay until mailbox available
	while (HAL_CAN_GetTxMailboxesFreeLevel(&hcan1) == 0) {}
 8001880:	bf00      	nop
 8001882:	480a      	ldr	r0, [pc, #40]	@ (80018ac <FEB_CAN_RMS_Transmit_updateTorque+0x90>)
 8001884:	f002 f866 	bl	8003954 <HAL_CAN_GetTxMailboxesFreeLevel>
 8001888:	4603      	mov	r3, r0
 800188a:	2b00      	cmp	r3, #0
 800188c:	d0f9      	beq.n	8001882 <FEB_CAN_RMS_Transmit_updateTorque+0x66>

	// Add Tx data to mailbox
	if (HAL_CAN_AddTxMessage(&hcan1, &FEB_CAN_Tx_Header, FEB_CAN_Tx_Data, &FEB_CAN_Tx_Mailbox) != HAL_OK) {
 800188e:	4b08      	ldr	r3, [pc, #32]	@ (80018b0 <FEB_CAN_RMS_Transmit_updateTorque+0x94>)
 8001890:	4a05      	ldr	r2, [pc, #20]	@ (80018a8 <FEB_CAN_RMS_Transmit_updateTorque+0x8c>)
 8001892:	4903      	ldr	r1, [pc, #12]	@ (80018a0 <FEB_CAN_RMS_Transmit_updateTorque+0x84>)
 8001894:	4805      	ldr	r0, [pc, #20]	@ (80018ac <FEB_CAN_RMS_Transmit_updateTorque+0x90>)
 8001896:	f001 ff8d 	bl	80037b4 <HAL_CAN_AddTxMessage>
		// Code Error - Shutdown
	}
}
 800189a:	bf00      	nop
 800189c:	bd80      	pop	{r7, pc}
 800189e:	bf00      	nop
 80018a0:	20000204 	.word	0x20000204
 80018a4:	20000258 	.word	0x20000258
 80018a8:	20000238 	.word	0x20000238
 80018ac:	200002b8 	.word	0x200002b8
 80018b0:	20000248 	.word	0x20000248

080018b4 <FEB_CAN_RMS_Filter_Config>:




uint8_t FEB_CAN_RMS_Filter_Config(CAN_HandleTypeDef* hcan, uint8_t FIFO_assignment, uint8_t filter_bank) {
 80018b4:	b580      	push	{r7, lr}
 80018b6:	b08e      	sub	sp, #56	@ 0x38
 80018b8:	af00      	add	r7, sp, #0
 80018ba:	6078      	str	r0, [r7, #4]
 80018bc:	460b      	mov	r3, r1
 80018be:	70fb      	strb	r3, [r7, #3]
 80018c0:	4613      	mov	r3, r2
 80018c2:	70bb      	strb	r3, [r7, #2]
	uint16_t ids[] = {FEB_CAN_ID_RMS_VOLTAGE, FEB_CAN_ID_RMS_MOTOR};
 80018c4:	4b1c      	ldr	r3, [pc, #112]	@ (8001938 <FEB_CAN_RMS_Filter_Config+0x84>)
 80018c6:	681b      	ldr	r3, [r3, #0]
 80018c8:	633b      	str	r3, [r7, #48]	@ 0x30

	for (uint8_t i = 0; i < 2; i++) {
 80018ca:	2300      	movs	r3, #0
 80018cc:	f887 3037 	strb.w	r3, [r7, #55]	@ 0x37
 80018d0:	e029      	b.n	8001926 <FEB_CAN_RMS_Filter_Config+0x72>
		CAN_FilterTypeDef filter_config;

	    // Standard CAN - 2.0A - 11 bit
	    filter_config.FilterActivation = CAN_FILTER_ENABLE;
 80018d2:	2301      	movs	r3, #1
 80018d4:	62bb      	str	r3, [r7, #40]	@ 0x28
		filter_config.FilterBank = filter_bank;
 80018d6:	78bb      	ldrb	r3, [r7, #2]
 80018d8:	61fb      	str	r3, [r7, #28]
		filter_config.FilterFIFOAssignment = FIFO_assignment;
 80018da:	78fb      	ldrb	r3, [r7, #3]
 80018dc:	61bb      	str	r3, [r7, #24]
		filter_config.FilterIdHigh = ids[i] << 5;
 80018de:	f897 3037 	ldrb.w	r3, [r7, #55]	@ 0x37
 80018e2:	005b      	lsls	r3, r3, #1
 80018e4:	3338      	adds	r3, #56	@ 0x38
 80018e6:	443b      	add	r3, r7
 80018e8:	f833 3c08 	ldrh.w	r3, [r3, #-8]
 80018ec:	015b      	lsls	r3, r3, #5
 80018ee:	60bb      	str	r3, [r7, #8]
		filter_config.FilterIdLow = 0;
 80018f0:	2300      	movs	r3, #0
 80018f2:	60fb      	str	r3, [r7, #12]
		filter_config.FilterMaskIdHigh = 0xFFE0;
 80018f4:	f64f 73e0 	movw	r3, #65504	@ 0xffe0
 80018f8:	613b      	str	r3, [r7, #16]
		filter_config.FilterMaskIdLow = 0;
 80018fa:	2300      	movs	r3, #0
 80018fc:	617b      	str	r3, [r7, #20]
		filter_config.FilterMode = CAN_FILTERMODE_IDMASK;
 80018fe:	2300      	movs	r3, #0
 8001900:	623b      	str	r3, [r7, #32]
		filter_config.FilterScale = CAN_FILTERSCALE_32BIT;
 8001902:	2301      	movs	r3, #1
 8001904:	627b      	str	r3, [r7, #36]	@ 0x24
		filter_config.SlaveStartFilterBank = 27;
 8001906:	231b      	movs	r3, #27
 8001908:	62fb      	str	r3, [r7, #44]	@ 0x2c
	    filter_bank++;
 800190a:	78bb      	ldrb	r3, [r7, #2]
 800190c:	3301      	adds	r3, #1
 800190e:	70bb      	strb	r3, [r7, #2]

		if (HAL_CAN_ConfigFilter(hcan, &filter_config) != HAL_OK) {
 8001910:	f107 0308 	add.w	r3, r7, #8
 8001914:	4619      	mov	r1, r3
 8001916:	6878      	ldr	r0, [r7, #4]
 8001918:	f001 fe28 	bl	800356c <HAL_CAN_ConfigFilter>
	for (uint8_t i = 0; i < 2; i++) {
 800191c:	f897 3037 	ldrb.w	r3, [r7, #55]	@ 0x37
 8001920:	3301      	adds	r3, #1
 8001922:	f887 3037 	strb.w	r3, [r7, #55]	@ 0x37
 8001926:	f897 3037 	ldrb.w	r3, [r7, #55]	@ 0x37
 800192a:	2b01      	cmp	r3, #1
 800192c:	d9d1      	bls.n	80018d2 <FEB_CAN_RMS_Filter_Config+0x1e>
			//Code Error - shutdown
		}
	}

	return filter_bank;
 800192e:	78bb      	ldrb	r3, [r7, #2]
}
 8001930:	4618      	mov	r0, r3
 8001932:	3738      	adds	r7, #56	@ 0x38
 8001934:	46bd      	mov	sp, r7
 8001936:	bd80      	pop	{r7, pc}
 8001938:	080098a0 	.word	0x080098a0

0800193c <FEB_CAN_RMS_Store_Msg>:
		// Code Error - Shutdown
	}
}


void FEB_CAN_RMS_Store_Msg(CAN_RxHeaderTypeDef* pHeader, uint8_t *RxData) {
 800193c:	b480      	push	{r7}
 800193e:	b083      	sub	sp, #12
 8001940:	af00      	add	r7, sp, #0
 8001942:	6078      	str	r0, [r7, #4]
 8001944:	6039      	str	r1, [r7, #0]
	switch (pHeader -> StdId){
 8001946:	687b      	ldr	r3, [r7, #4]
 8001948:	681b      	ldr	r3, [r3, #0]
 800194a:	2ba5      	cmp	r3, #165	@ 0xa5
 800194c:	d007      	beq.n	800195e <FEB_CAN_RMS_Store_Msg+0x22>
 800194e:	2ba7      	cmp	r3, #167	@ 0xa7
 8001950:	d10c      	bne.n	800196c <FEB_CAN_RMS_Store_Msg+0x30>
		case FEB_CAN_ID_RMS_VOLTAGE:
			memcpy(&(RMS_MESSAGE.HV_Bus_Voltage), RxData, 2);
 8001952:	683b      	ldr	r3, [r7, #0]
 8001954:	881b      	ldrh	r3, [r3, #0]
 8001956:	b29a      	uxth	r2, r3
 8001958:	4b07      	ldr	r3, [pc, #28]	@ (8001978 <FEB_CAN_RMS_Store_Msg+0x3c>)
 800195a:	801a      	strh	r2, [r3, #0]
			break;
 800195c:	e006      	b.n	800196c <FEB_CAN_RMS_Store_Msg+0x30>
		case FEB_CAN_ID_RMS_MOTOR:
			memcpy(&(RMS_MESSAGE.Motor_Speed), RxData+2, 2);
 800195e:	683b      	ldr	r3, [r7, #0]
 8001960:	3302      	adds	r3, #2
 8001962:	881b      	ldrh	r3, [r3, #0]
 8001964:	b29a      	uxth	r2, r3
 8001966:	4b04      	ldr	r3, [pc, #16]	@ (8001978 <FEB_CAN_RMS_Store_Msg+0x3c>)
 8001968:	805a      	strh	r2, [r3, #2]
			break;
 800196a:	bf00      	nop
	}
}
 800196c:	bf00      	nop
 800196e:	370c      	adds	r7, #12
 8001970:	46bd      	mov	sp, r7
 8001972:	f85d 7b04 	ldr.w	r7, [sp], #4
 8001976:	4770      	bx	lr
 8001978:	2000025c 	.word	0x2000025c

0800197c <FEB_Read_ADC1>:
bool currHigh = false;


// **************************************** Functions ****************************************

uint16_t FEB_Read_ADC1(uint32_t channel){
 800197c:	b580      	push	{r7, lr}
 800197e:	b086      	sub	sp, #24
 8001980:	af00      	add	r7, sp, #0
 8001982:	6078      	str	r0, [r7, #4]
	ADC_ChannelConfTypeDef sConfig={0};
 8001984:	f107 0308 	add.w	r3, r7, #8
 8001988:	2200      	movs	r2, #0
 800198a:	601a      	str	r2, [r3, #0]
 800198c:	605a      	str	r2, [r3, #4]
 800198e:	609a      	str	r2, [r3, #8]
 8001990:	60da      	str	r2, [r3, #12]
	sConfig.Channel = channel;
 8001992:	687b      	ldr	r3, [r7, #4]
 8001994:	60bb      	str	r3, [r7, #8]
	sConfig.Rank = 1;
 8001996:	2301      	movs	r3, #1
 8001998:	60fb      	str	r3, [r7, #12]
	sConfig.SamplingTime = ADC_SAMPLETIME_480CYCLES;
 800199a:	2307      	movs	r3, #7
 800199c:	613b      	str	r3, [r7, #16]

	if (HAL_ADC_ConfigChannel(&hadc1, &sConfig) != HAL_OK)
 800199e:	f107 0308 	add.w	r3, r7, #8
 80019a2:	4619      	mov	r1, r3
 80019a4:	480b      	ldr	r0, [pc, #44]	@ (80019d4 <FEB_Read_ADC1+0x58>)
 80019a6:	f001 f9ed 	bl	8002d84 <HAL_ADC_ConfigChannel>
 80019aa:	4603      	mov	r3, r0
 80019ac:	2b00      	cmp	r3, #0
 80019ae:	d001      	beq.n	80019b4 <FEB_Read_ADC1+0x38>
	{
	   Error_Handler();
 80019b0:	f000 fce8 	bl	8002384 <Error_Handler>
	}

	HAL_ADC_Start(&hadc1);
 80019b4:	4807      	ldr	r0, [pc, #28]	@ (80019d4 <FEB_Read_ADC1+0x58>)
 80019b6:	f001 f87b 	bl	8002ab0 <HAL_ADC_Start>
	HAL_ADC_PollForConversion(&hadc1, 100);
 80019ba:	2164      	movs	r1, #100	@ 0x64
 80019bc:	4805      	ldr	r0, [pc, #20]	@ (80019d4 <FEB_Read_ADC1+0x58>)
 80019be:	f001 f949 	bl	8002c54 <HAL_ADC_PollForConversion>
	return (uint16_t)HAL_ADC_GetValue(&hadc1);
 80019c2:	4804      	ldr	r0, [pc, #16]	@ (80019d4 <FEB_Read_ADC1+0x58>)
 80019c4:	f001 f9d1 	bl	8002d6a <HAL_ADC_GetValue>
 80019c8:	4603      	mov	r3, r0
 80019ca:	b29b      	uxth	r3, r3

}
 80019cc:	4618      	mov	r0, r3
 80019ce:	3718      	adds	r7, #24
 80019d0:	46bd      	mov	sp, r7
 80019d2:	bd80      	pop	{r7, pc}
 80019d4:	20000270 	.word	0x20000270

080019d8 <FEB_HECS_update>:

void FEB_HECS_update(){
 80019d8:	b580      	push	{r7, lr}
 80019da:	b0a2      	sub	sp, #136	@ 0x88
 80019dc:	af00      	add	r7, sp, #0
	uint16_t current_value = FEB_Read_ADC1(HECS_SIGNAL);
 80019de:	200b      	movs	r0, #11
 80019e0:	f7ff ffcc 	bl	800197c <FEB_Read_ADC1>
 80019e4:	4603      	mov	r3, r0
 80019e6:	f8a7 3086 	strh.w	r3, [r7, #134]	@ 0x86
	char buf[128];
	uint8_t buf_len;
	buf_len = sprintf(buf, "HECS Current:%d\n", current_value);
 80019ea:	f8b7 2086 	ldrh.w	r2, [r7, #134]	@ 0x86
 80019ee:	1d3b      	adds	r3, r7, #4
 80019f0:	4912      	ldr	r1, [pc, #72]	@ (8001a3c <FEB_HECS_update+0x64>)
 80019f2:	4618      	mov	r0, r3
 80019f4:	f004 fdfa 	bl	80065ec <siprintf>
 80019f8:	4603      	mov	r3, r0
 80019fa:	f887 3085 	strb.w	r3, [r7, #133]	@ 0x85
	HAL_UART_Transmit(&huart2, buf, strlen(buf), HAL_MAX_DELAY);
 80019fe:	1d3b      	adds	r3, r7, #4
 8001a00:	4618      	mov	r0, r3
 8001a02:	f7fe fc55 	bl	80002b0 <strlen>
 8001a06:	4603      	mov	r3, r0
 8001a08:	b29a      	uxth	r2, r3
 8001a0a:	1d39      	adds	r1, r7, #4
 8001a0c:	f04f 33ff 	mov.w	r3, #4294967295	@ 0xffffffff
 8001a10:	480b      	ldr	r0, [pc, #44]	@ (8001a40 <FEB_HECS_update+0x68>)
 8001a12:	f003 fdd7 	bl	80055c4 <HAL_UART_Transmit>

	if (current_value >= HECS_CURRENT){ //checks if current is above value (to be determined)
 8001a16:	f8b7 3086 	ldrh.w	r3, [r7, #134]	@ 0x86
 8001a1a:	f5b3 6f3d 	cmp.w	r3, #3024	@ 0xbd0
 8001a1e:	d903      	bls.n	8001a28 <FEB_HECS_update+0x50>
		currHigh = true;
 8001a20:	4b08      	ldr	r3, [pc, #32]	@ (8001a44 <FEB_HECS_update+0x6c>)
 8001a22:	2201      	movs	r2, #1
 8001a24:	701a      	strb	r2, [r3, #0]
 8001a26:	e002      	b.n	8001a2e <FEB_HECS_update+0x56>
	}else{
		currHigh = false;
 8001a28:	4b06      	ldr	r3, [pc, #24]	@ (8001a44 <FEB_HECS_update+0x6c>)
 8001a2a:	2200      	movs	r2, #0
 8001a2c:	701a      	strb	r2, [r3, #0]
	}
	FEB_HECS_indicate();
 8001a2e:	f000 f80b 	bl	8001a48 <FEB_HECS_indicate>
}
 8001a32:	bf00      	nop
 8001a34:	3788      	adds	r7, #136	@ 0x88
 8001a36:	46bd      	mov	sp, r7
 8001a38:	bd80      	pop	{r7, pc}
 8001a3a:	bf00      	nop
 8001a3c:	080098a4 	.word	0x080098a4
 8001a40:	20000334 	.word	0x20000334
 8001a44:	20000260 	.word	0x20000260

08001a48 <FEB_HECS_indicate>:

void FEB_HECS_indicate(){ //sends GPIO output to HECS Indicator
 8001a48:	b580      	push	{r7, lr}
 8001a4a:	af00      	add	r7, sp, #0
	if (currHigh == true){
 8001a4c:	4b08      	ldr	r3, [pc, #32]	@ (8001a70 <FEB_HECS_indicate+0x28>)
 8001a4e:	781b      	ldrb	r3, [r3, #0]
 8001a50:	2b00      	cmp	r3, #0
 8001a52:	d005      	beq.n	8001a60 <FEB_HECS_indicate+0x18>

		HAL_GPIO_WritePin(GPIOA, GPIO_PIN_5, GPIO_PIN_SET); // sets GPIO PA5 to high
 8001a54:	2201      	movs	r2, #1
 8001a56:	2120      	movs	r1, #32
 8001a58:	4806      	ldr	r0, [pc, #24]	@ (8001a74 <FEB_HECS_indicate+0x2c>)
 8001a5a:	f002 fdcd 	bl	80045f8 <HAL_GPIO_WritePin>

	}else{
		HAL_GPIO_WritePin(GPIOA, GPIO_PIN_5, GPIO_PIN_RESET); //sets GPIPO PA5 to low
	}
//	HAL_Delay(1000);
}
 8001a5e:	e004      	b.n	8001a6a <FEB_HECS_indicate+0x22>
		HAL_GPIO_WritePin(GPIOA, GPIO_PIN_5, GPIO_PIN_RESET); //sets GPIPO PA5 to low
 8001a60:	2200      	movs	r2, #0
 8001a62:	2120      	movs	r1, #32
 8001a64:	4803      	ldr	r0, [pc, #12]	@ (8001a74 <FEB_HECS_indicate+0x2c>)
 8001a66:	f002 fdc7 	bl	80045f8 <HAL_GPIO_WritePin>
}
 8001a6a:	bf00      	nop
 8001a6c:	bd80      	pop	{r7, pc}
 8001a6e:	bf00      	nop
 8001a70:	20000260 	.word	0x20000260
 8001a74:	40020000 	.word	0x40020000

08001a78 <FEB_Main_Setup>:
char buf[128];
uint8_t buf_len; //stolen from Main_Setup (SN2)

// ********************************** Functions **********************************

void FEB_Main_Setup(void){
 8001a78:	b580      	push	{r7, lr}
 8001a7a:	af00      	add	r7, sp, #0
	HAL_ADCEx_InjectedStart(&hadc1); //@lovehate - where does this go
 8001a7c:	4804      	ldr	r0, [pc, #16]	@ (8001a90 <FEB_Main_Setup+0x18>)
 8001a7e:	f001 fbaf 	bl	80031e0 <HAL_ADCEx_InjectedStart>
//	FEB_Timer_Init();
//	FEB_TPS2482_Setup();
	FEB_CAN_Init(); //FEB_CAN_Init() // The transceiver must be connected otherwise you get sent into an infinite loop
 8001a82:	f7ff fa79 	bl	8000f78 <FEB_CAN_Init>
	FEB_CAN_RMS_Setup();
 8001a86:	f7ff fbb9 	bl	80011fc <FEB_CAN_RMS_Setup>
}
 8001a8a:	bf00      	nop
 8001a8c:	bd80      	pop	{r7, pc}
 8001a8e:	bf00      	nop
 8001a90:	20000270 	.word	0x20000270

08001a94 <FEB_Main_While>:

void FEB_Main_While(void){
 8001a94:	b580      	push	{r7, lr}
 8001a96:	b082      	sub	sp, #8
 8001a98:	af00      	add	r7, sp, #0
//	FEB_CAN_ICS_Transmit();
//
	FEB_SM_ST_t bms_state = FEB_CAN_BMS_getState();
 8001a9a:	f7ff fb37 	bl	800110c <FEB_CAN_BMS_getState>
 8001a9e:	4603      	mov	r3, r0
 8001aa0:	71fb      	strb	r3, [r7, #7]


	if (FEB_Ready_To_Drive() && (bms_state == FEB_SM_ST_DRIVE || bms_state == FEB_SM_ST_DRIVE_REGEN)) {
 8001aa2:	f7ff fb9f 	bl	80011e4 <FEB_Ready_To_Drive>
 8001aa6:	4603      	mov	r3, r0
 8001aa8:	2b00      	cmp	r3, #0
 8001aaa:	d00a      	beq.n	8001ac2 <FEB_Main_While+0x2e>
 8001aac:	79fb      	ldrb	r3, [r7, #7]
 8001aae:	2b06      	cmp	r3, #6
 8001ab0:	d002      	beq.n	8001ab8 <FEB_Main_While+0x24>
 8001ab2:	79fb      	ldrb	r3, [r7, #7]
 8001ab4:	2b07      	cmp	r3, #7
 8001ab6:	d104      	bne.n	8001ac2 <FEB_Main_While+0x2e>
		FEB_Normalized_updateAcc();
 8001ab8:	f000 f84e 	bl	8001b58 <FEB_Normalized_updateAcc>
		FEB_CAN_RMS_Process();
 8001abc:	f7ff fbae 	bl	800121c <FEB_CAN_RMS_Process>
 8001ac0:	e003      	b.n	8001aca <FEB_Main_While+0x36>
	} else {
		FEB_Normalized_setAcc0();
 8001ac2:	f000 f83b 	bl	8001b3c <FEB_Normalized_setAcc0>
		FEB_CAN_RMS_Disable();
 8001ac6:	f7ff fbb9 	bl	800123c <FEB_CAN_RMS_Disable>
	}
	FEB_HECS_update();
 8001aca:	f7ff ff85 	bl	80019d8 <FEB_HECS_update>
	FEB_Normalized_update_Brake();
 8001ace:	f000 f995 	bl	8001dfc <FEB_Normalized_update_Brake>

	FEB_CAN_RMS_Torque();
 8001ad2:	f7ff fe41 	bl	8001758 <FEB_CAN_RMS_Torque>
	FEB_Normalized_CAN_sendBrake();
 8001ad6:	f000 fa1d 	bl	8001f14 <FEB_Normalized_CAN_sendBrake>

	HAL_Delay(10);
 8001ada:	200a      	movs	r0, #10
 8001adc:	f000 ff80 	bl	80029e0 <HAL_Delay>
}
 8001ae0:	bf00      	nop
 8001ae2:	3708      	adds	r7, #8
 8001ae4:	46bd      	mov	sp, r7
 8001ae6:	bd80      	pop	{r7, pc}

08001ae8 <FEB_Read_ADC>:
float normalized_brake;
bool isImpl = false;

// **************************************** Functions ****************************************

uint16_t FEB_Read_ADC(uint32_t channel){
 8001ae8:	b580      	push	{r7, lr}
 8001aea:	b086      	sub	sp, #24
 8001aec:	af00      	add	r7, sp, #0
 8001aee:	6078      	str	r0, [r7, #4]
	ADC_ChannelConfTypeDef sConfig={0};
 8001af0:	f107 0308 	add.w	r3, r7, #8
 8001af4:	2200      	movs	r2, #0
 8001af6:	601a      	str	r2, [r3, #0]
 8001af8:	605a      	str	r2, [r3, #4]
 8001afa:	609a      	str	r2, [r3, #8]
 8001afc:	60da      	str	r2, [r3, #12]
	sConfig.Channel = channel;
 8001afe:	687b      	ldr	r3, [r7, #4]
 8001b00:	60bb      	str	r3, [r7, #8]
	sConfig.Rank = 1;
 8001b02:	2301      	movs	r3, #1
 8001b04:	60fb      	str	r3, [r7, #12]
	sConfig.SamplingTime = ADC_SAMPLETIME_480CYCLES;
 8001b06:	2307      	movs	r3, #7
 8001b08:	613b      	str	r3, [r7, #16]

	if (HAL_ADC_ConfigChannel(&hadc1, &sConfig) != HAL_OK)
 8001b0a:	f107 0308 	add.w	r3, r7, #8
 8001b0e:	4619      	mov	r1, r3
 8001b10:	4809      	ldr	r0, [pc, #36]	@ (8001b38 <FEB_Read_ADC+0x50>)
 8001b12:	f001 f937 	bl	8002d84 <HAL_ADC_ConfigChannel>
	{
//	   Error_Handler();
	}

	HAL_ADC_Start(&hadc1);
 8001b16:	4808      	ldr	r0, [pc, #32]	@ (8001b38 <FEB_Read_ADC+0x50>)
 8001b18:	f000 ffca 	bl	8002ab0 <HAL_ADC_Start>
	HAL_ADC_PollForConversion(&hadc1, 100);
 8001b1c:	2164      	movs	r1, #100	@ 0x64
 8001b1e:	4806      	ldr	r0, [pc, #24]	@ (8001b38 <FEB_Read_ADC+0x50>)
 8001b20:	f001 f898 	bl	8002c54 <HAL_ADC_PollForConversion>
	return (uint16_t)HAL_ADC_GetValue(&hadc1);
 8001b24:	4804      	ldr	r0, [pc, #16]	@ (8001b38 <FEB_Read_ADC+0x50>)
 8001b26:	f001 f920 	bl	8002d6a <HAL_ADC_GetValue>
 8001b2a:	4603      	mov	r3, r0
 8001b2c:	b29b      	uxth	r3, r3

}
 8001b2e:	4618      	mov	r0, r3
 8001b30:	3718      	adds	r7, #24
 8001b32:	46bd      	mov	sp, r7
 8001b34:	bd80      	pop	{r7, pc}
 8001b36:	bf00      	nop
 8001b38:	20000270 	.word	0x20000270

08001b3c <FEB_Normalized_setAcc0>:

float FEB_Normalized_getAcc(){
	return normalized_acc;
}

void FEB_Normalized_setAcc0(){
 8001b3c:	b480      	push	{r7}
 8001b3e:	af00      	add	r7, sp, #0
	normalized_acc = 0.0;
 8001b40:	4b04      	ldr	r3, [pc, #16]	@ (8001b54 <FEB_Normalized_setAcc0+0x18>)
 8001b42:	f04f 0200 	mov.w	r2, #0
 8001b46:	601a      	str	r2, [r3, #0]
}
 8001b48:	bf00      	nop
 8001b4a:	46bd      	mov	sp, r7
 8001b4c:	f85d 7b04 	ldr.w	r7, [sp], #4
 8001b50:	4770      	bx	lr
 8001b52:	bf00      	nop
 8001b54:	20000264 	.word	0x20000264

08001b58 <FEB_Normalized_updateAcc>:
	char buf1[128];
	sprintf(buf1, "[SENSOR] Brake Position: %d.%d%%\n", brake_pedal_position_int1, brake_pedal_position_int2);
	HAL_UART_Transmit(&huart2,(uint8_t *)buf1, strlen(buf1), HAL_MAX_DELAY);
}

void FEB_Normalized_updateAcc(){
 8001b58:	b580      	push	{r7, lr}
 8001b5a:	b0a2      	sub	sp, #136	@ 0x88
 8001b5c:	af00      	add	r7, sp, #0
	normalized_acc = FEB_Normalized_Acc_Pedals();
 8001b5e:	f000 f827 	bl	8001bb0 <FEB_Normalized_Acc_Pedals>
 8001b62:	eef0 7a40 	vmov.f32	s15, s0
 8001b66:	4b0f      	ldr	r3, [pc, #60]	@ (8001ba4 <FEB_Normalized_updateAcc+0x4c>)
 8001b68:	edc3 7a00 	vstr	s15, [r3]

	char buf[128];
	uint8_t buf_len;
	buf_len = sprintf(buf, "normalized_acc: %f\n", normalized_acc);
 8001b6c:	4b0d      	ldr	r3, [pc, #52]	@ (8001ba4 <FEB_Normalized_updateAcc+0x4c>)
 8001b6e:	681b      	ldr	r3, [r3, #0]
 8001b70:	4618      	mov	r0, r3
 8001b72:	f7fe fd09 	bl	8000588 <__aeabi_f2d>
 8001b76:	4602      	mov	r2, r0
 8001b78:	460b      	mov	r3, r1
 8001b7a:	1d38      	adds	r0, r7, #4
 8001b7c:	490a      	ldr	r1, [pc, #40]	@ (8001ba8 <FEB_Normalized_updateAcc+0x50>)
 8001b7e:	f004 fd35 	bl	80065ec <siprintf>
 8001b82:	4603      	mov	r3, r0
 8001b84:	f887 3087 	strb.w	r3, [r7, #135]	@ 0x87
	HAL_UART_Transmit(&huart2,(uint8_t *)buf, buf_len, HAL_MAX_DELAY);
 8001b88:	f897 3087 	ldrb.w	r3, [r7, #135]	@ 0x87
 8001b8c:	b29a      	uxth	r2, r3
 8001b8e:	1d39      	adds	r1, r7, #4
 8001b90:	f04f 33ff 	mov.w	r3, #4294967295	@ 0xffffffff
 8001b94:	4805      	ldr	r0, [pc, #20]	@ (8001bac <FEB_Normalized_updateAcc+0x54>)
 8001b96:	f003 fd15 	bl	80055c4 <HAL_UART_Transmit>

}
 8001b9a:	bf00      	nop
 8001b9c:	3788      	adds	r7, #136	@ 0x88
 8001b9e:	46bd      	mov	sp, r7
 8001ba0:	bd80      	pop	{r7, pc}
 8001ba2:	bf00      	nop
 8001ba4:	20000264 	.word	0x20000264
 8001ba8:	080099b0 	.word	0x080099b0
 8001bac:	20000334 	.word	0x20000334

08001bb0 <FEB_Normalized_Acc_Pedals>:

float FEB_Normalized_Acc_Pedals() {
 8001bb0:	b580      	push	{r7, lr}
 8001bb2:	b0a6      	sub	sp, #152	@ 0x98
 8001bb4:	af00      	add	r7, sp, #0
	// raw ADC readings of the two acc pedal sensors
	uint16_t acc_pedal_1 = FEB_Read_ADC(ACC_PEDAL_1);
 8001bb6:	2001      	movs	r0, #1
 8001bb8:	f7ff ff96 	bl	8001ae8 <FEB_Read_ADC>
 8001bbc:	4603      	mov	r3, r0
 8001bbe:	f8a7 3096 	strh.w	r3, [r7, #150]	@ 0x96
	uint16_t acc_pedal_2 = FEB_Read_ADC(ACC_PEDAL_2);
 8001bc2:	2000      	movs	r0, #0
 8001bc4:	f7ff ff90 	bl	8001ae8 <FEB_Read_ADC>
 8001bc8:	4603      	mov	r3, r0
 8001bca:	f8a7 3094 	strh.w	r3, [r7, #148]	@ 0x94
	char buf[128];
	uint8_t buf_len;
	buf_len = sprintf(buf, "acc1:%d acc2:%d\n", acc_pedal_1, acc_pedal_2);
 8001bce:	f8b7 2096 	ldrh.w	r2, [r7, #150]	@ 0x96
 8001bd2:	f8b7 3094 	ldrh.w	r3, [r7, #148]	@ 0x94
 8001bd6:	1d38      	adds	r0, r7, #4
 8001bd8:	497b      	ldr	r1, [pc, #492]	@ (8001dc8 <FEB_Normalized_Acc_Pedals+0x218>)
 8001bda:	f004 fd07 	bl	80065ec <siprintf>
 8001bde:	4603      	mov	r3, r0
 8001be0:	f887 3093 	strb.w	r3, [r7, #147]	@ 0x93
//	HAL_UART_Transmit(&huart2,(uint8_t *)buf, buf_len, HAL_MAX_DELAY);


	// check implausibility for shorting. TODO: check if this fulfills the short circuiting rules.
	if (acc_pedal_1 < ACC_PEDAL_1_END - 20 || acc_pedal_1 > ACC_PEDAL_1_START + 20
 8001be4:	f8b7 3096 	ldrh.w	r3, [r7, #150]	@ 0x96
 8001be8:	f240 5233 	movw	r2, #1331	@ 0x533
 8001bec:	4293      	cmp	r3, r2
 8001bee:	d910      	bls.n	8001c12 <FEB_Normalized_Acc_Pedals+0x62>
 8001bf0:	f8b7 3096 	ldrh.w	r3, [r7, #150]	@ 0x96
 8001bf4:	f240 6201 	movw	r2, #1537	@ 0x601
 8001bf8:	4293      	cmp	r3, r2
 8001bfa:	d80a      	bhi.n	8001c12 <FEB_Normalized_Acc_Pedals+0x62>
			|| acc_pedal_2 < ACC_PEDAL_2_START - 50 || acc_pedal_2 > ACC_PEDAL_2_END + 50) {
 8001bfc:	f8b7 3094 	ldrh.w	r3, [r7, #148]	@ 0x94
 8001c00:	f240 3201 	movw	r2, #769	@ 0x301
 8001c04:	4293      	cmp	r3, r2
 8001c06:	d904      	bls.n	8001c12 <FEB_Normalized_Acc_Pedals+0x62>
 8001c08:	f8b7 3094 	ldrh.w	r3, [r7, #148]	@ 0x94
 8001c0c:	f5b3 6fe8 	cmp.w	r3, #1856	@ 0x740
 8001c10:	d905      	bls.n	8001c1e <FEB_Normalized_Acc_Pedals+0x6e>
		isImpl = true;
 8001c12:	4b6e      	ldr	r3, [pc, #440]	@ (8001dcc <FEB_Normalized_Acc_Pedals+0x21c>)
 8001c14:	2201      	movs	r2, #1
 8001c16:	701a      	strb	r2, [r3, #0]
		return 0.0;
 8001c18:	f04f 0300 	mov.w	r3, #0
 8001c1c:	e0b7      	b.n	8001d8e <FEB_Normalized_Acc_Pedals+0x1de>
	}

	//convert to % travel
	// sensor 1 has positive slope
	float ped1_normalized = (acc_pedal_1 - ACC_PEDAL_1_START)/ (ACC_PEDAL_1_END - ACC_PEDAL_1_START);
 8001c1e:	f8b7 3096 	ldrh.w	r3, [r7, #150]	@ 0x96
 8001c22:	4618      	mov	r0, r3
 8001c24:	f7fe fc9e 	bl	8000564 <__aeabi_i2d>
 8001c28:	a35d      	add	r3, pc, #372	@ (adr r3, 8001da0 <FEB_Normalized_Acc_Pedals+0x1f0>)
 8001c2a:	e9d3 2300 	ldrd	r2, r3, [r3]
 8001c2e:	f7fe fb4b 	bl	80002c8 <__aeabi_dsub>
 8001c32:	4602      	mov	r2, r0
 8001c34:	460b      	mov	r3, r1
 8001c36:	4610      	mov	r0, r2
 8001c38:	4619      	mov	r1, r3
 8001c3a:	a35b      	add	r3, pc, #364	@ (adr r3, 8001da8 <FEB_Normalized_Acc_Pedals+0x1f8>)
 8001c3c:	e9d3 2300 	ldrd	r2, r3, [r3]
 8001c40:	f7fe fe24 	bl	800088c <__aeabi_ddiv>
 8001c44:	4602      	mov	r2, r0
 8001c46:	460b      	mov	r3, r1
 8001c48:	4610      	mov	r0, r2
 8001c4a:	4619      	mov	r1, r3
 8001c4c:	f7fe ffcc 	bl	8000be8 <__aeabi_d2f>
 8001c50:	4603      	mov	r3, r0
 8001c52:	f8c7 308c 	str.w	r3, [r7, #140]	@ 0x8c
	// sensor 2 has negative slope
	float ped2_normalized = (acc_pedal_2 - ACC_PEDAL_2_START) / (ACC_PEDAL_2_END - ACC_PEDAL_2_START);
 8001c56:	f8b7 3094 	ldrh.w	r3, [r7, #148]	@ 0x94
 8001c5a:	4618      	mov	r0, r3
 8001c5c:	f7fe fc82 	bl	8000564 <__aeabi_i2d>
 8001c60:	f04f 0200 	mov.w	r2, #0
 8001c64:	4b5a      	ldr	r3, [pc, #360]	@ (8001dd0 <FEB_Normalized_Acc_Pedals+0x220>)
 8001c66:	f7fe fb2f 	bl	80002c8 <__aeabi_dsub>
 8001c6a:	4602      	mov	r2, r0
 8001c6c:	460b      	mov	r3, r1
 8001c6e:	4610      	mov	r0, r2
 8001c70:	4619      	mov	r1, r3
 8001c72:	f04f 0200 	mov.w	r2, #0
 8001c76:	4b57      	ldr	r3, [pc, #348]	@ (8001dd4 <FEB_Normalized_Acc_Pedals+0x224>)
 8001c78:	f7fe fe08 	bl	800088c <__aeabi_ddiv>
 8001c7c:	4602      	mov	r2, r0
 8001c7e:	460b      	mov	r3, r1
 8001c80:	4610      	mov	r0, r2
 8001c82:	4619      	mov	r1, r3
 8001c84:	f7fe ffb0 	bl	8000be8 <__aeabi_d2f>
 8001c88:	4603      	mov	r3, r0
 8001c8a:	f8c7 3088 	str.w	r3, [r7, #136]	@ 0x88

	// sensor measurements mismatch by more than 10%
	if(abs(ped1_normalized - ped2_normalized) > 0.1 ){
 8001c8e:	ed97 7a23 	vldr	s14, [r7, #140]	@ 0x8c
 8001c92:	edd7 7a22 	vldr	s15, [r7, #136]	@ 0x88
 8001c96:	ee77 7a67 	vsub.f32	s15, s14, s15
 8001c9a:	eefd 7ae7 	vcvt.s32.f32	s15, s15
 8001c9e:	ee17 3a90 	vmov	r3, s15
 8001ca2:	2b00      	cmp	r3, #0
 8001ca4:	bfb8      	it	lt
 8001ca6:	425b      	neglt	r3, r3
 8001ca8:	2b00      	cmp	r3, #0
 8001caa:	dd05      	ble.n	8001cb8 <FEB_Normalized_Acc_Pedals+0x108>
		isImpl = true;
 8001cac:	4b47      	ldr	r3, [pc, #284]	@ (8001dcc <FEB_Normalized_Acc_Pedals+0x21c>)
 8001cae:	2201      	movs	r2, #1
 8001cb0:	701a      	strb	r2, [r3, #0]
		return 0.0;
 8001cb2:	f04f 0300 	mov.w	r3, #0
 8001cb6:	e06a      	b.n	8001d8e <FEB_Normalized_Acc_Pedals+0x1de>
	}

	float final_normalized = 0.5*(ped1_normalized + ped2_normalized);
 8001cb8:	ed97 7a23 	vldr	s14, [r7, #140]	@ 0x8c
 8001cbc:	edd7 7a22 	vldr	s15, [r7, #136]	@ 0x88
 8001cc0:	ee77 7a27 	vadd.f32	s15, s14, s15
 8001cc4:	eeb6 7a00 	vmov.f32	s14, #96	@ 0x3f000000  0.5
 8001cc8:	ee67 7a87 	vmul.f32	s15, s15, s14
 8001ccc:	edc7 7a21 	vstr	s15, [r7, #132]	@ 0x84


//	 Implausiblity check if both pedals are stepped
	if (normalized_brake > 0.2 && normalized_acc > 0.1) {
 8001cd0:	4b41      	ldr	r3, [pc, #260]	@ (8001dd8 <FEB_Normalized_Acc_Pedals+0x228>)
 8001cd2:	681b      	ldr	r3, [r3, #0]
 8001cd4:	4618      	mov	r0, r3
 8001cd6:	f7fe fc57 	bl	8000588 <__aeabi_f2d>
 8001cda:	a335      	add	r3, pc, #212	@ (adr r3, 8001db0 <FEB_Normalized_Acc_Pedals+0x200>)
 8001cdc:	e9d3 2300 	ldrd	r2, r3, [r3]
 8001ce0:	f7fe ff3a 	bl	8000b58 <__aeabi_dcmpgt>
 8001ce4:	4603      	mov	r3, r0
 8001ce6:	2b00      	cmp	r3, #0
 8001ce8:	d00f      	beq.n	8001d0a <FEB_Normalized_Acc_Pedals+0x15a>
 8001cea:	4b3c      	ldr	r3, [pc, #240]	@ (8001ddc <FEB_Normalized_Acc_Pedals+0x22c>)
 8001cec:	681b      	ldr	r3, [r3, #0]
 8001cee:	4618      	mov	r0, r3
 8001cf0:	f7fe fc4a 	bl	8000588 <__aeabi_f2d>
 8001cf4:	a330      	add	r3, pc, #192	@ (adr r3, 8001db8 <FEB_Normalized_Acc_Pedals+0x208>)
 8001cf6:	e9d3 2300 	ldrd	r2, r3, [r3]
 8001cfa:	f7fe ff2d 	bl	8000b58 <__aeabi_dcmpgt>
 8001cfe:	4603      	mov	r3, r0
 8001d00:	2b00      	cmp	r3, #0
 8001d02:	d002      	beq.n	8001d0a <FEB_Normalized_Acc_Pedals+0x15a>
		isImpl = true;
 8001d04:	4b31      	ldr	r3, [pc, #196]	@ (8001dcc <FEB_Normalized_Acc_Pedals+0x21c>)
 8001d06:	2201      	movs	r2, #1
 8001d08:	701a      	strb	r2, [r3, #0]
	}

	// recover from implausibility if acc pedal is not 5% less
	if (final_normalized < 0.05 && isImpl) {
 8001d0a:	f8d7 0084 	ldr.w	r0, [r7, #132]	@ 0x84
 8001d0e:	f7fe fc3b 	bl	8000588 <__aeabi_f2d>
 8001d12:	a32b      	add	r3, pc, #172	@ (adr r3, 8001dc0 <FEB_Normalized_Acc_Pedals+0x210>)
 8001d14:	e9d3 2300 	ldrd	r2, r3, [r3]
 8001d18:	f7fe ff00 	bl	8000b1c <__aeabi_dcmplt>
 8001d1c:	4603      	mov	r3, r0
 8001d1e:	2b00      	cmp	r3, #0
 8001d20:	d006      	beq.n	8001d30 <FEB_Normalized_Acc_Pedals+0x180>
 8001d22:	4b2a      	ldr	r3, [pc, #168]	@ (8001dcc <FEB_Normalized_Acc_Pedals+0x21c>)
 8001d24:	781b      	ldrb	r3, [r3, #0]
 8001d26:	2b00      	cmp	r3, #0
 8001d28:	d002      	beq.n	8001d30 <FEB_Normalized_Acc_Pedals+0x180>
		isImpl = false;
 8001d2a:	4b28      	ldr	r3, [pc, #160]	@ (8001dcc <FEB_Normalized_Acc_Pedals+0x21c>)
 8001d2c:	2200      	movs	r2, #0
 8001d2e:	701a      	strb	r2, [r3, #0]
	}

	if (!isImpl) {
 8001d30:	4b26      	ldr	r3, [pc, #152]	@ (8001dcc <FEB_Normalized_Acc_Pedals+0x21c>)
 8001d32:	781b      	ldrb	r3, [r3, #0]
 8001d34:	f083 0301 	eor.w	r3, r3, #1
 8001d38:	b2db      	uxtb	r3, r3
 8001d3a:	2b00      	cmp	r3, #0
 8001d3c:	d025      	beq.n	8001d8a <FEB_Normalized_Acc_Pedals+0x1da>
		final_normalized = final_normalized > 1 ? 1 : final_normalized;
 8001d3e:	edd7 7a21 	vldr	s15, [r7, #132]	@ 0x84
 8001d42:	eeb7 7a00 	vmov.f32	s14, #112	@ 0x3f800000  1.0
 8001d46:	eef4 7ac7 	vcmpe.f32	s15, s14
 8001d4a:	eef1 fa10 	vmrs	APSR_nzcv, fpscr
 8001d4e:	dd02      	ble.n	8001d56 <FEB_Normalized_Acc_Pedals+0x1a6>
 8001d50:	f04f 537e 	mov.w	r3, #1065353216	@ 0x3f800000
 8001d54:	e001      	b.n	8001d5a <FEB_Normalized_Acc_Pedals+0x1aa>
 8001d56:	f8d7 3084 	ldr.w	r3, [r7, #132]	@ 0x84
 8001d5a:	f8c7 3084 	str.w	r3, [r7, #132]	@ 0x84
		final_normalized = final_normalized < 0.05 ? 0 : final_normalized;
 8001d5e:	f8d7 0084 	ldr.w	r0, [r7, #132]	@ 0x84
 8001d62:	f7fe fc11 	bl	8000588 <__aeabi_f2d>
 8001d66:	a316      	add	r3, pc, #88	@ (adr r3, 8001dc0 <FEB_Normalized_Acc_Pedals+0x210>)
 8001d68:	e9d3 2300 	ldrd	r2, r3, [r3]
 8001d6c:	f7fe fed6 	bl	8000b1c <__aeabi_dcmplt>
 8001d70:	4603      	mov	r3, r0
 8001d72:	2b00      	cmp	r3, #0
 8001d74:	d002      	beq.n	8001d7c <FEB_Normalized_Acc_Pedals+0x1cc>
 8001d76:	f04f 0300 	mov.w	r3, #0
 8001d7a:	e001      	b.n	8001d80 <FEB_Normalized_Acc_Pedals+0x1d0>
 8001d7c:	f8d7 3084 	ldr.w	r3, [r7, #132]	@ 0x84
 8001d80:	f8c7 3084 	str.w	r3, [r7, #132]	@ 0x84
		return final_normalized;
 8001d84:	f8d7 3084 	ldr.w	r3, [r7, #132]	@ 0x84
 8001d88:	e001      	b.n	8001d8e <FEB_Normalized_Acc_Pedals+0x1de>
	} else {
		return 0.0;
 8001d8a:	f04f 0300 	mov.w	r3, #0
	}
}
 8001d8e:	ee07 3a90 	vmov	s15, r3
 8001d92:	eeb0 0a67 	vmov.f32	s0, s15
 8001d96:	3798      	adds	r7, #152	@ 0x98
 8001d98:	46bd      	mov	sp, r7
 8001d9a:	bd80      	pop	{r7, pc}
 8001d9c:	f3af 8000 	nop.w
 8001da0:	00000000 	.word	0x00000000
 8001da4:	4097b400 	.word	0x4097b400
 8001da8:	00000000 	.word	0x00000000
 8001dac:	c064a000 	.word	0xc064a000
 8001db0:	9999999a 	.word	0x9999999a
 8001db4:	3fc99999 	.word	0x3fc99999
 8001db8:	9999999a 	.word	0x9999999a
 8001dbc:	3fb99999 	.word	0x3fb99999
 8001dc0:	9999999a 	.word	0x9999999a
 8001dc4:	3fa99999 	.word	0x3fa99999
 8001dc8:	080099c4 	.word	0x080099c4
 8001dcc:	2000026c 	.word	0x2000026c
 8001dd0:	4089a000 	.word	0x4089a000
 8001dd4:	408ed000 	.word	0x408ed000
 8001dd8:	20000268 	.word	0x20000268
 8001ddc:	20000264 	.word	0x20000264

08001de0 <FEB_Normalized_getBrake>:

float FEB_Normalized_getBrake() {
 8001de0:	b480      	push	{r7}
 8001de2:	af00      	add	r7, sp, #0
	return normalized_brake;
 8001de4:	4b04      	ldr	r3, [pc, #16]	@ (8001df8 <FEB_Normalized_getBrake+0x18>)
 8001de6:	681b      	ldr	r3, [r3, #0]
 8001de8:	ee07 3a90 	vmov	s15, r3
}
 8001dec:	eeb0 0a67 	vmov.f32	s0, s15
 8001df0:	46bd      	mov	sp, r7
 8001df2:	f85d 7b04 	ldr.w	r7, [sp], #4
 8001df6:	4770      	bx	lr
 8001df8:	20000268 	.word	0x20000268

08001dfc <FEB_Normalized_update_Brake>:

void FEB_Normalized_update_Brake() {
 8001dfc:	b580      	push	{r7, lr}
 8001dfe:	af00      	add	r7, sp, #0
	normalized_brake = FEB_Normalized_Brake_Pedals();
 8001e00:	f000 f80a 	bl	8001e18 <FEB_Normalized_Brake_Pedals>
 8001e04:	eef0 7a40 	vmov.f32	s15, s0
 8001e08:	4b02      	ldr	r3, [pc, #8]	@ (8001e14 <FEB_Normalized_update_Brake+0x18>)
 8001e0a:	edc3 7a00 	vstr	s15, [r3]
}
 8001e0e:	bf00      	nop
 8001e10:	bd80      	pop	{r7, pc}
 8001e12:	bf00      	nop
 8001e14:	20000268 	.word	0x20000268

08001e18 <FEB_Normalized_Brake_Pedals>:

float FEB_Normalized_Brake_Pedals() {
 8001e18:	b580      	push	{r7, lr}
 8001e1a:	b0a4      	sub	sp, #144	@ 0x90
 8001e1c:	af00      	add	r7, sp, #0
	//TODO: This might need to change based on which sensor ends up getting used.
	uint16_t brake_pres_2 =  FEB_Read_ADC(BRAKE_PRESS_2);   //HAL_ADCEx_InjectedGetValue(&hadc1, ADC_INJECTED_RANK_1);
 8001e1e:	2006      	movs	r0, #6
 8001e20:	f7ff fe62 	bl	8001ae8 <FEB_Read_ADC>
 8001e24:	4603      	mov	r3, r0
 8001e26:	f8a7 308e 	strh.w	r3, [r7, #142]	@ 0x8e

//	HAL_UART_Transmit(&huart2,(uint8_t *)buf, buf_len, HAL_MAX_DELAY);

	float final_normalized = (brake_pres_2 - PRESSURE_START)/ (PRESSURE_END - PRESSURE_START);
 8001e2a:	f8b7 308e 	ldrh.w	r3, [r7, #142]	@ 0x8e
 8001e2e:	4618      	mov	r0, r3
 8001e30:	f7fe fb98 	bl	8000564 <__aeabi_i2d>
 8001e34:	a335      	add	r3, pc, #212	@ (adr r3, 8001f0c <FEB_Normalized_Brake_Pedals+0xf4>)
 8001e36:	e9d3 2300 	ldrd	r2, r3, [r3]
 8001e3a:	f7fe fa45 	bl	80002c8 <__aeabi_dsub>
 8001e3e:	4602      	mov	r2, r0
 8001e40:	460b      	mov	r3, r1
 8001e42:	4610      	mov	r0, r2
 8001e44:	4619      	mov	r1, r3
 8001e46:	f04f 0200 	mov.w	r2, #0
 8001e4a:	4b2d      	ldr	r3, [pc, #180]	@ (8001f00 <FEB_Normalized_Brake_Pedals+0xe8>)
 8001e4c:	f7fe fd1e 	bl	800088c <__aeabi_ddiv>
 8001e50:	4602      	mov	r2, r0
 8001e52:	460b      	mov	r3, r1
 8001e54:	4610      	mov	r0, r2
 8001e56:	4619      	mov	r1, r3
 8001e58:	f7fe fec6 	bl	8000be8 <__aeabi_d2f>
 8001e5c:	4603      	mov	r3, r0
 8001e5e:	f8c7 3088 	str.w	r3, [r7, #136]	@ 0x88
	final_normalized = final_normalized > 1 ? 1 : final_normalized;
 8001e62:	edd7 7a22 	vldr	s15, [r7, #136]	@ 0x88
 8001e66:	eeb7 7a00 	vmov.f32	s14, #112	@ 0x3f800000  1.0
 8001e6a:	eef4 7ac7 	vcmpe.f32	s15, s14
 8001e6e:	eef1 fa10 	vmrs	APSR_nzcv, fpscr
 8001e72:	dd02      	ble.n	8001e7a <FEB_Normalized_Brake_Pedals+0x62>
 8001e74:	f04f 537e 	mov.w	r3, #1065353216	@ 0x3f800000
 8001e78:	e001      	b.n	8001e7e <FEB_Normalized_Brake_Pedals+0x66>
 8001e7a:	f8d7 3088 	ldr.w	r3, [r7, #136]	@ 0x88
 8001e7e:	f8c7 3088 	str.w	r3, [r7, #136]	@ 0x88
	final_normalized = final_normalized < 0.05 ? 0 : final_normalized;
 8001e82:	f8d7 0088 	ldr.w	r0, [r7, #136]	@ 0x88
 8001e86:	f7fe fb7f 	bl	8000588 <__aeabi_f2d>
 8001e8a:	a31b      	add	r3, pc, #108	@ (adr r3, 8001ef8 <FEB_Normalized_Brake_Pedals+0xe0>)
 8001e8c:	e9d3 2300 	ldrd	r2, r3, [r3]
 8001e90:	f7fe fe44 	bl	8000b1c <__aeabi_dcmplt>
 8001e94:	4603      	mov	r3, r0
 8001e96:	2b00      	cmp	r3, #0
 8001e98:	d002      	beq.n	8001ea0 <FEB_Normalized_Brake_Pedals+0x88>
 8001e9a:	f04f 0300 	mov.w	r3, #0
 8001e9e:	e001      	b.n	8001ea4 <FEB_Normalized_Brake_Pedals+0x8c>
 8001ea0:	f8d7 3088 	ldr.w	r3, [r7, #136]	@ 0x88
 8001ea4:	f8c7 3088 	str.w	r3, [r7, #136]	@ 0x88


	if (brake_pres_2 < PRESSURE_START-20) {
 8001ea8:	f8b7 308e 	ldrh.w	r3, [r7, #142]	@ 0x8e
 8001eac:	2ba8      	cmp	r3, #168	@ 0xa8
 8001eae:	d802      	bhi.n	8001eb6 <FEB_Normalized_Brake_Pedals+0x9e>
		return 0.0;
 8001eb0:	f04f 0300 	mov.w	r3, #0
 8001eb4:	e017      	b.n	8001ee6 <FEB_Normalized_Brake_Pedals+0xce>
	}

	char buf[128];
	uint8_t buf_len;
	buf_len = sprintf(buf, "brake_Pos: %f\n", final_normalized);
 8001eb6:	f8d7 0088 	ldr.w	r0, [r7, #136]	@ 0x88
 8001eba:	f7fe fb65 	bl	8000588 <__aeabi_f2d>
 8001ebe:	4602      	mov	r2, r0
 8001ec0:	460b      	mov	r3, r1
 8001ec2:	1d38      	adds	r0, r7, #4
 8001ec4:	490f      	ldr	r1, [pc, #60]	@ (8001f04 <FEB_Normalized_Brake_Pedals+0xec>)
 8001ec6:	f004 fb91 	bl	80065ec <siprintf>
 8001eca:	4603      	mov	r3, r0
 8001ecc:	f887 3087 	strb.w	r3, [r7, #135]	@ 0x87

	HAL_UART_Transmit(&huart2,(uint8_t *)buf, buf_len, HAL_MAX_DELAY);
 8001ed0:	f897 3087 	ldrb.w	r3, [r7, #135]	@ 0x87
 8001ed4:	b29a      	uxth	r2, r3
 8001ed6:	1d39      	adds	r1, r7, #4
 8001ed8:	f04f 33ff 	mov.w	r3, #4294967295	@ 0xffffffff
 8001edc:	480a      	ldr	r0, [pc, #40]	@ (8001f08 <FEB_Normalized_Brake_Pedals+0xf0>)
 8001ede:	f003 fb71 	bl	80055c4 <HAL_UART_Transmit>

	return final_normalized;
 8001ee2:	f8d7 3088 	ldr.w	r3, [r7, #136]	@ 0x88
}
 8001ee6:	ee07 3a90 	vmov	s15, r3
 8001eea:	eeb0 0a67 	vmov.f32	s0, s15
 8001eee:	3790      	adds	r7, #144	@ 0x90
 8001ef0:	46bd      	mov	sp, r7
 8001ef2:	bd80      	pop	{r7, pc}
 8001ef4:	f3af 8000 	nop.w
 8001ef8:	9999999a 	.word	0x9999999a
 8001efc:	3fa99999 	.word	0x3fa99999
 8001f00:	408a2000 	.word	0x408a2000
 8001f04:	080099d8 	.word	0x080099d8
 8001f08:	20000334 	.word	0x20000334
 8001f0c:	00000000 	.word	0x00000000
 8001f10:	4067a000 	.word	0x4067a000

08001f14 <FEB_Normalized_CAN_sendBrake>:

void FEB_Normalized_CAN_sendBrake() {
 8001f14:	b580      	push	{r7, lr}
 8001f16:	b0a4      	sub	sp, #144	@ 0x90
 8001f18:	af00      	add	r7, sp, #0
	// Initialize transmission header
	FEB_CAN_Tx_Header.DLC = 2;
 8001f1a:	4b27      	ldr	r3, [pc, #156]	@ (8001fb8 <FEB_Normalized_CAN_sendBrake+0xa4>)
 8001f1c:	2202      	movs	r2, #2
 8001f1e:	611a      	str	r2, [r3, #16]
	FEB_CAN_Tx_Header.StdId = FEB_CAN_ID_APPS_BRAKE_PEDAL;
 8001f20:	4b25      	ldr	r3, [pc, #148]	@ (8001fb8 <FEB_Normalized_CAN_sendBrake+0xa4>)
 8001f22:	2209      	movs	r2, #9
 8001f24:	601a      	str	r2, [r3, #0]
	FEB_CAN_Tx_Header.IDE = CAN_ID_STD;
 8001f26:	4b24      	ldr	r3, [pc, #144]	@ (8001fb8 <FEB_Normalized_CAN_sendBrake+0xa4>)
 8001f28:	2200      	movs	r2, #0
 8001f2a:	609a      	str	r2, [r3, #8]
	FEB_CAN_Tx_Header.RTR = CAN_RTR_DATA;
 8001f2c:	4b22      	ldr	r3, [pc, #136]	@ (8001fb8 <FEB_Normalized_CAN_sendBrake+0xa4>)
 8001f2e:	2200      	movs	r2, #0
 8001f30:	60da      	str	r2, [r3, #12]
	FEB_CAN_Tx_Header.TransmitGlobalTime = DISABLE;
 8001f32:	4b21      	ldr	r3, [pc, #132]	@ (8001fb8 <FEB_Normalized_CAN_sendBrake+0xa4>)
 8001f34:	2200      	movs	r2, #0
 8001f36:	751a      	strb	r2, [r3, #20]

	// Copy data to Tx buffer. This might be incorrect. It's possible you have to do some bit shifting
//	memcpy(FEB_CAN_Tx_Data, &normalized_brake, sizeof(float));
	uint8_t converted_brake_val = (uint8_t)(normalized_brake * 100);
 8001f38:	4b20      	ldr	r3, [pc, #128]	@ (8001fbc <FEB_Normalized_CAN_sendBrake+0xa8>)
 8001f3a:	edd3 7a00 	vldr	s15, [r3]
 8001f3e:	ed9f 7a20 	vldr	s14, [pc, #128]	@ 8001fc0 <FEB_Normalized_CAN_sendBrake+0xac>
 8001f42:	ee67 7a87 	vmul.f32	s15, s15, s14
 8001f46:	eefc 7ae7 	vcvt.u32.f32	s15, s15
 8001f4a:	edc7 7a01 	vstr	s15, [r7, #4]
 8001f4e:	793b      	ldrb	r3, [r7, #4]
 8001f50:	f887 308f 	strb.w	r3, [r7, #143]	@ 0x8f

	FEB_CAN_Tx_Data[0] = converted_brake_val;
 8001f54:	4a1b      	ldr	r2, [pc, #108]	@ (8001fc4 <FEB_Normalized_CAN_sendBrake+0xb0>)
 8001f56:	f897 308f 	ldrb.w	r3, [r7, #143]	@ 0x8f
 8001f5a:	7013      	strb	r3, [r2, #0]

	//Debug to see the position of the Brake position sensor


	// Delay until mailbox available
	while (HAL_CAN_GetTxMailboxesFreeLevel(&hcan1) == 0) {}
 8001f5c:	bf00      	nop
 8001f5e:	481a      	ldr	r0, [pc, #104]	@ (8001fc8 <FEB_Normalized_CAN_sendBrake+0xb4>)
 8001f60:	f001 fcf8 	bl	8003954 <HAL_CAN_GetTxMailboxesFreeLevel>
 8001f64:	4603      	mov	r3, r0
 8001f66:	2b00      	cmp	r3, #0
 8001f68:	d0f9      	beq.n	8001f5e <FEB_Normalized_CAN_sendBrake+0x4a>
//
	// Add Tx data to mailbox
	if (HAL_CAN_AddTxMessage(&hcan1, &FEB_CAN_Tx_Header, FEB_CAN_Tx_Data, &FEB_CAN_Tx_Mailbox) != HAL_OK) {
 8001f6a:	4b18      	ldr	r3, [pc, #96]	@ (8001fcc <FEB_Normalized_CAN_sendBrake+0xb8>)
 8001f6c:	4a15      	ldr	r2, [pc, #84]	@ (8001fc4 <FEB_Normalized_CAN_sendBrake+0xb0>)
 8001f6e:	4912      	ldr	r1, [pc, #72]	@ (8001fb8 <FEB_Normalized_CAN_sendBrake+0xa4>)
 8001f70:	4815      	ldr	r0, [pc, #84]	@ (8001fc8 <FEB_Normalized_CAN_sendBrake+0xb4>)
 8001f72:	f001 fc1f 	bl	80037b4 <HAL_CAN_AddTxMessage>
 8001f76:	4603      	mov	r3, r0
 8001f78:	2b00      	cmp	r3, #0
 8001f7a:	d018      	beq.n	8001fae <FEB_Normalized_CAN_sendBrake+0x9a>
		//error - shutdown
		char buf[128];
		uint8_t buf_len;
		buf_len = sprintf(buf, "CAN MESSAGE FAIL TO SEND: %f\n", normalized_brake);
 8001f7c:	4b0f      	ldr	r3, [pc, #60]	@ (8001fbc <FEB_Normalized_CAN_sendBrake+0xa8>)
 8001f7e:	681b      	ldr	r3, [r3, #0]
 8001f80:	4618      	mov	r0, r3
 8001f82:	f7fe fb01 	bl	8000588 <__aeabi_f2d>
 8001f86:	4602      	mov	r2, r0
 8001f88:	460b      	mov	r3, r1
 8001f8a:	f107 000c 	add.w	r0, r7, #12
 8001f8e:	4910      	ldr	r1, [pc, #64]	@ (8001fd0 <FEB_Normalized_CAN_sendBrake+0xbc>)
 8001f90:	f004 fb2c 	bl	80065ec <siprintf>
 8001f94:	4603      	mov	r3, r0
 8001f96:	f887 308e 	strb.w	r3, [r7, #142]	@ 0x8e
		HAL_UART_Transmit(&huart2,(uint8_t *)buf, buf_len, HAL_MAX_DELAY);
 8001f9a:	f897 308e 	ldrb.w	r3, [r7, #142]	@ 0x8e
 8001f9e:	b29a      	uxth	r2, r3
 8001fa0:	f107 010c 	add.w	r1, r7, #12
 8001fa4:	f04f 33ff 	mov.w	r3, #4294967295	@ 0xffffffff
 8001fa8:	480a      	ldr	r0, [pc, #40]	@ (8001fd4 <FEB_Normalized_CAN_sendBrake+0xc0>)
 8001faa:	f003 fb0b 	bl	80055c4 <HAL_UART_Transmit>
	}

}
 8001fae:	bf00      	nop
 8001fb0:	3790      	adds	r7, #144	@ 0x90
 8001fb2:	46bd      	mov	sp, r7
 8001fb4:	bd80      	pop	{r7, pc}
 8001fb6:	bf00      	nop
 8001fb8:	20000204 	.word	0x20000204
 8001fbc:	20000268 	.word	0x20000268
 8001fc0:	42c80000 	.word	0x42c80000
 8001fc4:	20000238 	.word	0x20000238
 8001fc8:	200002b8 	.word	0x200002b8
 8001fcc:	20000248 	.word	0x20000248
 8001fd0:	080099e8 	.word	0x080099e8
 8001fd4:	20000334 	.word	0x20000334

08001fd8 <main>:
/**
  * @brief  The application entry point.
  * @retval int
  */
int main(void)
{
 8001fd8:	b580      	push	{r7, lr}
 8001fda:	af00      	add	r7, sp, #0
  /* USER CODE END 1 */

  /* MCU Configuration--------------------------------------------------------*/

  /* Reset of all peripherals, Initializes the Flash interface and the Systick. */
  HAL_Init();
 8001fdc:	f000 fc8e 	bl	80028fc <HAL_Init>
  /* USER CODE BEGIN Init */

  /* USER CODE END Init */

  /* Configure the system clock */
  SystemClock_Config();
 8001fe0:	f000 f810 	bl	8002004 <SystemClock_Config>
  /* USER CODE BEGIN SysInit */

  /* USER CODE END SysInit */

  /* Initialize all configured peripherals */
  MX_GPIO_Init();
 8001fe4:	f000 f960 	bl	80022a8 <MX_GPIO_Init>
  MX_USART2_UART_Init();
 8001fe8:	f000 f934 	bl	8002254 <MX_USART2_UART_Init>
  MX_CAN1_Init();
 8001fec:	f000 f8ce 	bl	800218c <MX_CAN1_Init>
  MX_I2C1_Init();
 8001ff0:	f000 f902 	bl	80021f8 <MX_I2C1_Init>
  MX_ADC1_Init();
 8001ff4:	f000 f878 	bl	80020e8 <MX_ADC1_Init>
  /* USER CODE BEGIN 2 */
  FEB_Main_Setup();
 8001ff8:	f7ff fd3e 	bl	8001a78 <FEB_Main_Setup>
  {
    /* USER CODE END WHILE */

    /* USER CODE BEGIN 3 */

	  FEB_Main_While();
 8001ffc:	f7ff fd4a 	bl	8001a94 <FEB_Main_While>
 8002000:	e7fc      	b.n	8001ffc <main+0x24>
	...

08002004 <SystemClock_Config>:
/**
  * @brief System Clock Configuration
  * @retval None
  */
void SystemClock_Config(void)
{
 8002004:	b580      	push	{r7, lr}
 8002006:	b094      	sub	sp, #80	@ 0x50
 8002008:	af00      	add	r7, sp, #0
  RCC_OscInitTypeDef RCC_OscInitStruct = {0};
 800200a:	f107 031c 	add.w	r3, r7, #28
 800200e:	2234      	movs	r2, #52	@ 0x34
 8002010:	2100      	movs	r1, #0
 8002012:	4618      	mov	r0, r3
 8002014:	f004 fbcc 	bl	80067b0 <memset>
  RCC_ClkInitTypeDef RCC_ClkInitStruct = {0};
 8002018:	f107 0308 	add.w	r3, r7, #8
 800201c:	2200      	movs	r2, #0
 800201e:	601a      	str	r2, [r3, #0]
 8002020:	605a      	str	r2, [r3, #4]
 8002022:	609a      	str	r2, [r3, #8]
 8002024:	60da      	str	r2, [r3, #12]
 8002026:	611a      	str	r2, [r3, #16]

  /** Configure the main internal regulator output voltage
  */
  __HAL_RCC_PWR_CLK_ENABLE();
 8002028:	2300      	movs	r3, #0
 800202a:	607b      	str	r3, [r7, #4]
 800202c:	4b2c      	ldr	r3, [pc, #176]	@ (80020e0 <SystemClock_Config+0xdc>)
 800202e:	6c1b      	ldr	r3, [r3, #64]	@ 0x40
 8002030:	4a2b      	ldr	r2, [pc, #172]	@ (80020e0 <SystemClock_Config+0xdc>)
 8002032:	f043 5380 	orr.w	r3, r3, #268435456	@ 0x10000000
 8002036:	6413      	str	r3, [r2, #64]	@ 0x40
 8002038:	4b29      	ldr	r3, [pc, #164]	@ (80020e0 <SystemClock_Config+0xdc>)
 800203a:	6c1b      	ldr	r3, [r3, #64]	@ 0x40
 800203c:	f003 5380 	and.w	r3, r3, #268435456	@ 0x10000000
 8002040:	607b      	str	r3, [r7, #4]
 8002042:	687b      	ldr	r3, [r7, #4]
  __HAL_PWR_VOLTAGESCALING_CONFIG(PWR_REGULATOR_VOLTAGE_SCALE1);
 8002044:	2300      	movs	r3, #0
 8002046:	603b      	str	r3, [r7, #0]
 8002048:	4b26      	ldr	r3, [pc, #152]	@ (80020e4 <SystemClock_Config+0xe0>)
 800204a:	681b      	ldr	r3, [r3, #0]
 800204c:	4a25      	ldr	r2, [pc, #148]	@ (80020e4 <SystemClock_Config+0xe0>)
 800204e:	f443 4340 	orr.w	r3, r3, #49152	@ 0xc000
 8002052:	6013      	str	r3, [r2, #0]
 8002054:	4b23      	ldr	r3, [pc, #140]	@ (80020e4 <SystemClock_Config+0xe0>)
 8002056:	681b      	ldr	r3, [r3, #0]
 8002058:	f403 4340 	and.w	r3, r3, #49152	@ 0xc000
 800205c:	603b      	str	r3, [r7, #0]
 800205e:	683b      	ldr	r3, [r7, #0]

  /** Initializes the RCC Oscillators according to the specified parameters
  * in the RCC_OscInitTypeDef structure.
  */
  RCC_OscInitStruct.OscillatorType = RCC_OSCILLATORTYPE_HSE;
 8002060:	2301      	movs	r3, #1
 8002062:	61fb      	str	r3, [r7, #28]
  RCC_OscInitStruct.HSEState = RCC_HSE_ON;
 8002064:	f44f 3380 	mov.w	r3, #65536	@ 0x10000
 8002068:	623b      	str	r3, [r7, #32]
  RCC_OscInitStruct.PLL.PLLState = RCC_PLL_ON;
 800206a:	2302      	movs	r3, #2
 800206c:	637b      	str	r3, [r7, #52]	@ 0x34
  RCC_OscInitStruct.PLL.PLLSource = RCC_PLLSOURCE_HSE;
 800206e:	f44f 0380 	mov.w	r3, #4194304	@ 0x400000
 8002072:	63bb      	str	r3, [r7, #56]	@ 0x38
  RCC_OscInitStruct.PLL.PLLM = 4;
 8002074:	2304      	movs	r3, #4
 8002076:	63fb      	str	r3, [r7, #60]	@ 0x3c
  RCC_OscInitStruct.PLL.PLLN = 180;
 8002078:	23b4      	movs	r3, #180	@ 0xb4
 800207a:	643b      	str	r3, [r7, #64]	@ 0x40
  RCC_OscInitStruct.PLL.PLLP = RCC_PLLP_DIV2;
 800207c:	2302      	movs	r3, #2
 800207e:	647b      	str	r3, [r7, #68]	@ 0x44
  RCC_OscInitStruct.PLL.PLLQ = 2;
 8002080:	2302      	movs	r3, #2
 8002082:	64bb      	str	r3, [r7, #72]	@ 0x48
  RCC_OscInitStruct.PLL.PLLR = 2;
 8002084:	2302      	movs	r3, #2
 8002086:	64fb      	str	r3, [r7, #76]	@ 0x4c
  if (HAL_RCC_OscConfig(&RCC_OscInitStruct) != HAL_OK)
 8002088:	f107 031c 	add.w	r3, r7, #28
 800208c:	4618      	mov	r0, r3
 800208e:	f002 ffab 	bl	8004fe8 <HAL_RCC_OscConfig>
 8002092:	4603      	mov	r3, r0
 8002094:	2b00      	cmp	r3, #0
 8002096:	d001      	beq.n	800209c <SystemClock_Config+0x98>
  {
    Error_Handler();
 8002098:	f000 f974 	bl	8002384 <Error_Handler>
  }

  /** Activate the Over-Drive mode
  */
  if (HAL_PWREx_EnableOverDrive() != HAL_OK)
 800209c:	f002 fc0a 	bl	80048b4 <HAL_PWREx_EnableOverDrive>
 80020a0:	4603      	mov	r3, r0
 80020a2:	2b00      	cmp	r3, #0
 80020a4:	d001      	beq.n	80020aa <SystemClock_Config+0xa6>
  {
    Error_Handler();
 80020a6:	f000 f96d 	bl	8002384 <Error_Handler>
  }

  /** Initializes the CPU, AHB and APB buses clocks
  */
  RCC_ClkInitStruct.ClockType = RCC_CLOCKTYPE_HCLK|RCC_CLOCKTYPE_SYSCLK
 80020aa:	230f      	movs	r3, #15
 80020ac:	60bb      	str	r3, [r7, #8]
                              |RCC_CLOCKTYPE_PCLK1|RCC_CLOCKTYPE_PCLK2;
  RCC_ClkInitStruct.SYSCLKSource = RCC_SYSCLKSOURCE_PLLCLK;
 80020ae:	2302      	movs	r3, #2
 80020b0:	60fb      	str	r3, [r7, #12]
  RCC_ClkInitStruct.AHBCLKDivider = RCC_SYSCLK_DIV1;
 80020b2:	2300      	movs	r3, #0
 80020b4:	613b      	str	r3, [r7, #16]
  RCC_ClkInitStruct.APB1CLKDivider = RCC_HCLK_DIV4;
 80020b6:	f44f 53a0 	mov.w	r3, #5120	@ 0x1400
 80020ba:	617b      	str	r3, [r7, #20]
  RCC_ClkInitStruct.APB2CLKDivider = RCC_HCLK_DIV2;
 80020bc:	f44f 5380 	mov.w	r3, #4096	@ 0x1000
 80020c0:	61bb      	str	r3, [r7, #24]

  if (HAL_RCC_ClockConfig(&RCC_ClkInitStruct, FLASH_LATENCY_5) != HAL_OK)
 80020c2:	f107 0308 	add.w	r3, r7, #8
 80020c6:	2105      	movs	r1, #5
 80020c8:	4618      	mov	r0, r3
 80020ca:	f002 fc43 	bl	8004954 <HAL_RCC_ClockConfig>
 80020ce:	4603      	mov	r3, r0
 80020d0:	2b00      	cmp	r3, #0
 80020d2:	d001      	beq.n	80020d8 <SystemClock_Config+0xd4>
  {
    Error_Handler();
 80020d4:	f000 f956 	bl	8002384 <Error_Handler>
  }
}
 80020d8:	bf00      	nop
 80020da:	3750      	adds	r7, #80	@ 0x50
 80020dc:	46bd      	mov	sp, r7
 80020de:	bd80      	pop	{r7, pc}
 80020e0:	40023800 	.word	0x40023800
 80020e4:	40007000 	.word	0x40007000

080020e8 <MX_ADC1_Init>:
  * @brief ADC1 Initialization Function
  * @param None
  * @retval None
  */
static void MX_ADC1_Init(void)
{
 80020e8:	b580      	push	{r7, lr}
 80020ea:	b084      	sub	sp, #16
 80020ec:	af00      	add	r7, sp, #0

  /* USER CODE BEGIN ADC1_Init 0 */

  /* USER CODE END ADC1_Init 0 */

  ADC_ChannelConfTypeDef sConfig = {0};
 80020ee:	463b      	mov	r3, r7
 80020f0:	2200      	movs	r2, #0
 80020f2:	601a      	str	r2, [r3, #0]
 80020f4:	605a      	str	r2, [r3, #4]
 80020f6:	609a      	str	r2, [r3, #8]
 80020f8:	60da      	str	r2, [r3, #12]

  /* USER CODE END ADC1_Init 1 */

  /** Configure the global features of the ADC (Clock, Resolution, Data Alignment and number of conversion)
  */
  hadc1.Instance = ADC1;
 80020fa:	4b21      	ldr	r3, [pc, #132]	@ (8002180 <MX_ADC1_Init+0x98>)
 80020fc:	4a21      	ldr	r2, [pc, #132]	@ (8002184 <MX_ADC1_Init+0x9c>)
 80020fe:	601a      	str	r2, [r3, #0]
  hadc1.Init.ClockPrescaler = ADC_CLOCK_SYNC_PCLK_DIV4;
 8002100:	4b1f      	ldr	r3, [pc, #124]	@ (8002180 <MX_ADC1_Init+0x98>)
 8002102:	f44f 3280 	mov.w	r2, #65536	@ 0x10000
 8002106:	605a      	str	r2, [r3, #4]
  hadc1.Init.Resolution = ADC_RESOLUTION_12B;
 8002108:	4b1d      	ldr	r3, [pc, #116]	@ (8002180 <MX_ADC1_Init+0x98>)
 800210a:	2200      	movs	r2, #0
 800210c:	609a      	str	r2, [r3, #8]
  hadc1.Init.ScanConvMode = DISABLE;
 800210e:	4b1c      	ldr	r3, [pc, #112]	@ (8002180 <MX_ADC1_Init+0x98>)
 8002110:	2200      	movs	r2, #0
 8002112:	611a      	str	r2, [r3, #16]
  hadc1.Init.ContinuousConvMode = DISABLE;
 8002114:	4b1a      	ldr	r3, [pc, #104]	@ (8002180 <MX_ADC1_Init+0x98>)
 8002116:	2200      	movs	r2, #0
 8002118:	761a      	strb	r2, [r3, #24]
  hadc1.Init.DiscontinuousConvMode = DISABLE;
 800211a:	4b19      	ldr	r3, [pc, #100]	@ (8002180 <MX_ADC1_Init+0x98>)
 800211c:	2200      	movs	r2, #0
 800211e:	f883 2020 	strb.w	r2, [r3, #32]
  hadc1.Init.ExternalTrigConvEdge = ADC_EXTERNALTRIGCONVEDGE_NONE;
 8002122:	4b17      	ldr	r3, [pc, #92]	@ (8002180 <MX_ADC1_Init+0x98>)
 8002124:	2200      	movs	r2, #0
 8002126:	62da      	str	r2, [r3, #44]	@ 0x2c
  hadc1.Init.ExternalTrigConv = ADC_SOFTWARE_START;
 8002128:	4b15      	ldr	r3, [pc, #84]	@ (8002180 <MX_ADC1_Init+0x98>)
 800212a:	4a17      	ldr	r2, [pc, #92]	@ (8002188 <MX_ADC1_Init+0xa0>)
 800212c:	629a      	str	r2, [r3, #40]	@ 0x28
  hadc1.Init.DataAlign = ADC_DATAALIGN_RIGHT;
 800212e:	4b14      	ldr	r3, [pc, #80]	@ (8002180 <MX_ADC1_Init+0x98>)
 8002130:	2200      	movs	r2, #0
 8002132:	60da      	str	r2, [r3, #12]
  hadc1.Init.NbrOfConversion = 1;
 8002134:	4b12      	ldr	r3, [pc, #72]	@ (8002180 <MX_ADC1_Init+0x98>)
 8002136:	2201      	movs	r2, #1
 8002138:	61da      	str	r2, [r3, #28]
  hadc1.Init.DMAContinuousRequests = DISABLE;
 800213a:	4b11      	ldr	r3, [pc, #68]	@ (8002180 <MX_ADC1_Init+0x98>)
 800213c:	2200      	movs	r2, #0
 800213e:	f883 2030 	strb.w	r2, [r3, #48]	@ 0x30
  hadc1.Init.EOCSelection = ADC_EOC_SINGLE_CONV;
 8002142:	4b0f      	ldr	r3, [pc, #60]	@ (8002180 <MX_ADC1_Init+0x98>)
 8002144:	2201      	movs	r2, #1
 8002146:	615a      	str	r2, [r3, #20]
  if (HAL_ADC_Init(&hadc1) != HAL_OK)
 8002148:	480d      	ldr	r0, [pc, #52]	@ (8002180 <MX_ADC1_Init+0x98>)
 800214a:	f000 fc6d 	bl	8002a28 <HAL_ADC_Init>
 800214e:	4603      	mov	r3, r0
 8002150:	2b00      	cmp	r3, #0
 8002152:	d001      	beq.n	8002158 <MX_ADC1_Init+0x70>
  {
    Error_Handler();
 8002154:	f000 f916 	bl	8002384 <Error_Handler>
  }

  /** Configure for the selected ADC regular channel its corresponding rank in the sequencer and its sample time.
  */
  sConfig.Channel = ADC_CHANNEL_0;
 8002158:	2300      	movs	r3, #0
 800215a:	603b      	str	r3, [r7, #0]
  sConfig.Rank = 1;
 800215c:	2301      	movs	r3, #1
 800215e:	607b      	str	r3, [r7, #4]
  sConfig.SamplingTime = ADC_SAMPLETIME_3CYCLES;
 8002160:	2300      	movs	r3, #0
 8002162:	60bb      	str	r3, [r7, #8]
  if (HAL_ADC_ConfigChannel(&hadc1, &sConfig) != HAL_OK)
 8002164:	463b      	mov	r3, r7
 8002166:	4619      	mov	r1, r3
 8002168:	4805      	ldr	r0, [pc, #20]	@ (8002180 <MX_ADC1_Init+0x98>)
 800216a:	f000 fe0b 	bl	8002d84 <HAL_ADC_ConfigChannel>
 800216e:	4603      	mov	r3, r0
 8002170:	2b00      	cmp	r3, #0
 8002172:	d001      	beq.n	8002178 <MX_ADC1_Init+0x90>
  {
    Error_Handler();
 8002174:	f000 f906 	bl	8002384 <Error_Handler>
  }
  /* USER CODE BEGIN ADC1_Init 2 */

  /* USER CODE END ADC1_Init 2 */

}
 8002178:	bf00      	nop
 800217a:	3710      	adds	r7, #16
 800217c:	46bd      	mov	sp, r7
 800217e:	bd80      	pop	{r7, pc}
 8002180:	20000270 	.word	0x20000270
 8002184:	40012000 	.word	0x40012000
 8002188:	0f000001 	.word	0x0f000001

0800218c <MX_CAN1_Init>:
  * @brief CAN1 Initialization Function
  * @param None
  * @retval None
  */
static void MX_CAN1_Init(void)
{
 800218c:	b580      	push	{r7, lr}
 800218e:	af00      	add	r7, sp, #0
  /* USER CODE END CAN1_Init 0 */

  /* USER CODE BEGIN CAN1_Init 1 */

  /* USER CODE END CAN1_Init 1 */
  hcan1.Instance = CAN1;
 8002190:	4b17      	ldr	r3, [pc, #92]	@ (80021f0 <MX_CAN1_Init+0x64>)
 8002192:	4a18      	ldr	r2, [pc, #96]	@ (80021f4 <MX_CAN1_Init+0x68>)
 8002194:	601a      	str	r2, [r3, #0]
  hcan1.Init.Prescaler = 18;
 8002196:	4b16      	ldr	r3, [pc, #88]	@ (80021f0 <MX_CAN1_Init+0x64>)
 8002198:	2212      	movs	r2, #18
 800219a:	605a      	str	r2, [r3, #4]
  hcan1.Init.Mode = CAN_MODE_NORMAL;
 800219c:	4b14      	ldr	r3, [pc, #80]	@ (80021f0 <MX_CAN1_Init+0x64>)
 800219e:	2200      	movs	r2, #0
 80021a0:	609a      	str	r2, [r3, #8]
  hcan1.Init.SyncJumpWidth = CAN_SJW_1TQ;
 80021a2:	4b13      	ldr	r3, [pc, #76]	@ (80021f0 <MX_CAN1_Init+0x64>)
 80021a4:	2200      	movs	r2, #0
 80021a6:	60da      	str	r2, [r3, #12]
  hcan1.Init.TimeSeg1 = CAN_BS1_3TQ;
 80021a8:	4b11      	ldr	r3, [pc, #68]	@ (80021f0 <MX_CAN1_Init+0x64>)
 80021aa:	f44f 3200 	mov.w	r2, #131072	@ 0x20000
 80021ae:	611a      	str	r2, [r3, #16]
  hcan1.Init.TimeSeg2 = CAN_BS2_1TQ;
 80021b0:	4b0f      	ldr	r3, [pc, #60]	@ (80021f0 <MX_CAN1_Init+0x64>)
 80021b2:	2200      	movs	r2, #0
 80021b4:	615a      	str	r2, [r3, #20]
  hcan1.Init.TimeTriggeredMode = DISABLE;
 80021b6:	4b0e      	ldr	r3, [pc, #56]	@ (80021f0 <MX_CAN1_Init+0x64>)
 80021b8:	2200      	movs	r2, #0
 80021ba:	761a      	strb	r2, [r3, #24]
  hcan1.Init.AutoBusOff = DISABLE;
 80021bc:	4b0c      	ldr	r3, [pc, #48]	@ (80021f0 <MX_CAN1_Init+0x64>)
 80021be:	2200      	movs	r2, #0
 80021c0:	765a      	strb	r2, [r3, #25]
  hcan1.Init.AutoWakeUp = DISABLE;
 80021c2:	4b0b      	ldr	r3, [pc, #44]	@ (80021f0 <MX_CAN1_Init+0x64>)
 80021c4:	2200      	movs	r2, #0
 80021c6:	769a      	strb	r2, [r3, #26]
  hcan1.Init.AutoRetransmission = DISABLE;
 80021c8:	4b09      	ldr	r3, [pc, #36]	@ (80021f0 <MX_CAN1_Init+0x64>)
 80021ca:	2200      	movs	r2, #0
 80021cc:	76da      	strb	r2, [r3, #27]
  hcan1.Init.ReceiveFifoLocked = DISABLE;
 80021ce:	4b08      	ldr	r3, [pc, #32]	@ (80021f0 <MX_CAN1_Init+0x64>)
 80021d0:	2200      	movs	r2, #0
 80021d2:	771a      	strb	r2, [r3, #28]
  hcan1.Init.TransmitFifoPriority = DISABLE;
 80021d4:	4b06      	ldr	r3, [pc, #24]	@ (80021f0 <MX_CAN1_Init+0x64>)
 80021d6:	2200      	movs	r2, #0
 80021d8:	775a      	strb	r2, [r3, #29]
  if (HAL_CAN_Init(&hcan1) != HAL_OK)
 80021da:	4805      	ldr	r0, [pc, #20]	@ (80021f0 <MX_CAN1_Init+0x64>)
 80021dc:	f001 f8ca 	bl	8003374 <HAL_CAN_Init>
 80021e0:	4603      	mov	r3, r0
 80021e2:	2b00      	cmp	r3, #0
 80021e4:	d001      	beq.n	80021ea <MX_CAN1_Init+0x5e>
  {
    Error_Handler();
 80021e6:	f000 f8cd 	bl	8002384 <Error_Handler>
  }
  /* USER CODE BEGIN CAN1_Init 2 */

  /* USER CODE END CAN1_Init 2 */

}
 80021ea:	bf00      	nop
 80021ec:	bd80      	pop	{r7, pc}
 80021ee:	bf00      	nop
 80021f0:	200002b8 	.word	0x200002b8
 80021f4:	40006400 	.word	0x40006400

080021f8 <MX_I2C1_Init>:
  * @brief I2C1 Initialization Function
  * @param None
  * @retval None
  */
static void MX_I2C1_Init(void)
{
 80021f8:	b580      	push	{r7, lr}
 80021fa:	af00      	add	r7, sp, #0
  /* USER CODE END I2C1_Init 0 */

  /* USER CODE BEGIN I2C1_Init 1 */

  /* USER CODE END I2C1_Init 1 */
  hi2c1.Instance = I2C1;
 80021fc:	4b12      	ldr	r3, [pc, #72]	@ (8002248 <MX_I2C1_Init+0x50>)
 80021fe:	4a13      	ldr	r2, [pc, #76]	@ (800224c <MX_I2C1_Init+0x54>)
 8002200:	601a      	str	r2, [r3, #0]
  hi2c1.Init.ClockSpeed = 100000;
 8002202:	4b11      	ldr	r3, [pc, #68]	@ (8002248 <MX_I2C1_Init+0x50>)
 8002204:	4a12      	ldr	r2, [pc, #72]	@ (8002250 <MX_I2C1_Init+0x58>)
 8002206:	605a      	str	r2, [r3, #4]
  hi2c1.Init.DutyCycle = I2C_DUTYCYCLE_2;
 8002208:	4b0f      	ldr	r3, [pc, #60]	@ (8002248 <MX_I2C1_Init+0x50>)
 800220a:	2200      	movs	r2, #0
 800220c:	609a      	str	r2, [r3, #8]
  hi2c1.Init.OwnAddress1 = 0;
 800220e:	4b0e      	ldr	r3, [pc, #56]	@ (8002248 <MX_I2C1_Init+0x50>)
 8002210:	2200      	movs	r2, #0
 8002212:	60da      	str	r2, [r3, #12]
  hi2c1.Init.AddressingMode = I2C_ADDRESSINGMODE_7BIT;
 8002214:	4b0c      	ldr	r3, [pc, #48]	@ (8002248 <MX_I2C1_Init+0x50>)
 8002216:	f44f 4280 	mov.w	r2, #16384	@ 0x4000
 800221a:	611a      	str	r2, [r3, #16]
  hi2c1.Init.DualAddressMode = I2C_DUALADDRESS_DISABLE;
 800221c:	4b0a      	ldr	r3, [pc, #40]	@ (8002248 <MX_I2C1_Init+0x50>)
 800221e:	2200      	movs	r2, #0
 8002220:	615a      	str	r2, [r3, #20]
  hi2c1.Init.OwnAddress2 = 0;
 8002222:	4b09      	ldr	r3, [pc, #36]	@ (8002248 <MX_I2C1_Init+0x50>)
 8002224:	2200      	movs	r2, #0
 8002226:	619a      	str	r2, [r3, #24]
  hi2c1.Init.GeneralCallMode = I2C_GENERALCALL_DISABLE;
 8002228:	4b07      	ldr	r3, [pc, #28]	@ (8002248 <MX_I2C1_Init+0x50>)
 800222a:	2200      	movs	r2, #0
 800222c:	61da      	str	r2, [r3, #28]
  hi2c1.Init.NoStretchMode = I2C_NOSTRETCH_DISABLE;
 800222e:	4b06      	ldr	r3, [pc, #24]	@ (8002248 <MX_I2C1_Init+0x50>)
 8002230:	2200      	movs	r2, #0
 8002232:	621a      	str	r2, [r3, #32]
  if (HAL_I2C_Init(&hi2c1) != HAL_OK)
 8002234:	4804      	ldr	r0, [pc, #16]	@ (8002248 <MX_I2C1_Init+0x50>)
 8002236:	f002 f9f9 	bl	800462c <HAL_I2C_Init>
 800223a:	4603      	mov	r3, r0
 800223c:	2b00      	cmp	r3, #0
 800223e:	d001      	beq.n	8002244 <MX_I2C1_Init+0x4c>
  {
    Error_Handler();
 8002240:	f000 f8a0 	bl	8002384 <Error_Handler>
  }
  /* USER CODE BEGIN I2C1_Init 2 */

  /* USER CODE END I2C1_Init 2 */

}
 8002244:	bf00      	nop
 8002246:	bd80      	pop	{r7, pc}
 8002248:	200002e0 	.word	0x200002e0
 800224c:	40005400 	.word	0x40005400
 8002250:	000186a0 	.word	0x000186a0

08002254 <MX_USART2_UART_Init>:
  * @brief USART2 Initialization Function
  * @param None
  * @retval None
  */
static void MX_USART2_UART_Init(void)
{
 8002254:	b580      	push	{r7, lr}
 8002256:	af00      	add	r7, sp, #0
  /* USER CODE END USART2_Init 0 */

  /* USER CODE BEGIN USART2_Init 1 */

  /* USER CODE END USART2_Init 1 */
  huart2.Instance = USART2;
 8002258:	4b11      	ldr	r3, [pc, #68]	@ (80022a0 <MX_USART2_UART_Init+0x4c>)
 800225a:	4a12      	ldr	r2, [pc, #72]	@ (80022a4 <MX_USART2_UART_Init+0x50>)
 800225c:	601a      	str	r2, [r3, #0]
  huart2.Init.BaudRate = 115200;
 800225e:	4b10      	ldr	r3, [pc, #64]	@ (80022a0 <MX_USART2_UART_Init+0x4c>)
 8002260:	f44f 32e1 	mov.w	r2, #115200	@ 0x1c200
 8002264:	605a      	str	r2, [r3, #4]
  huart2.Init.WordLength = UART_WORDLENGTH_8B;
 8002266:	4b0e      	ldr	r3, [pc, #56]	@ (80022a0 <MX_USART2_UART_Init+0x4c>)
 8002268:	2200      	movs	r2, #0
 800226a:	609a      	str	r2, [r3, #8]
  huart2.Init.StopBits = UART_STOPBITS_1;
 800226c:	4b0c      	ldr	r3, [pc, #48]	@ (80022a0 <MX_USART2_UART_Init+0x4c>)
 800226e:	2200      	movs	r2, #0
 8002270:	60da      	str	r2, [r3, #12]
  huart2.Init.Parity = UART_PARITY_EVEN;
 8002272:	4b0b      	ldr	r3, [pc, #44]	@ (80022a0 <MX_USART2_UART_Init+0x4c>)
 8002274:	f44f 6280 	mov.w	r2, #1024	@ 0x400
 8002278:	611a      	str	r2, [r3, #16]
  huart2.Init.Mode = UART_MODE_TX_RX;
 800227a:	4b09      	ldr	r3, [pc, #36]	@ (80022a0 <MX_USART2_UART_Init+0x4c>)
 800227c:	220c      	movs	r2, #12
 800227e:	615a      	str	r2, [r3, #20]
  huart2.Init.HwFlowCtl = UART_HWCONTROL_NONE;
 8002280:	4b07      	ldr	r3, [pc, #28]	@ (80022a0 <MX_USART2_UART_Init+0x4c>)
 8002282:	2200      	movs	r2, #0
 8002284:	619a      	str	r2, [r3, #24]
  huart2.Init.OverSampling = UART_OVERSAMPLING_16;
 8002286:	4b06      	ldr	r3, [pc, #24]	@ (80022a0 <MX_USART2_UART_Init+0x4c>)
 8002288:	2200      	movs	r2, #0
 800228a:	61da      	str	r2, [r3, #28]
  if (HAL_UART_Init(&huart2) != HAL_OK)
 800228c:	4804      	ldr	r0, [pc, #16]	@ (80022a0 <MX_USART2_UART_Init+0x4c>)
 800228e:	f003 f949 	bl	8005524 <HAL_UART_Init>
 8002292:	4603      	mov	r3, r0
 8002294:	2b00      	cmp	r3, #0
 8002296:	d001      	beq.n	800229c <MX_USART2_UART_Init+0x48>
  {
    Error_Handler();
 8002298:	f000 f874 	bl	8002384 <Error_Handler>
  }
  /* USER CODE BEGIN USART2_Init 2 */

  /* USER CODE END USART2_Init 2 */

}
 800229c:	bf00      	nop
 800229e:	bd80      	pop	{r7, pc}
 80022a0:	20000334 	.word	0x20000334
 80022a4:	40004400 	.word	0x40004400

080022a8 <MX_GPIO_Init>:
  * @brief GPIO Initialization Function
  * @param None
  * @retval None
  */
static void MX_GPIO_Init(void)
{
 80022a8:	b580      	push	{r7, lr}
 80022aa:	b08a      	sub	sp, #40	@ 0x28
 80022ac:	af00      	add	r7, sp, #0
  GPIO_InitTypeDef GPIO_InitStruct = {0};
 80022ae:	f107 0314 	add.w	r3, r7, #20
 80022b2:	2200      	movs	r2, #0
 80022b4:	601a      	str	r2, [r3, #0]
 80022b6:	605a      	str	r2, [r3, #4]
 80022b8:	609a      	str	r2, [r3, #8]
 80022ba:	60da      	str	r2, [r3, #12]
 80022bc:	611a      	str	r2, [r3, #16]
/* USER CODE BEGIN MX_GPIO_Init_1 */
/* USER CODE END MX_GPIO_Init_1 */

  /* GPIO Ports Clock Enable */
  __HAL_RCC_GPIOC_CLK_ENABLE();
 80022be:	2300      	movs	r3, #0
 80022c0:	613b      	str	r3, [r7, #16]
 80022c2:	4b2d      	ldr	r3, [pc, #180]	@ (8002378 <MX_GPIO_Init+0xd0>)
 80022c4:	6b1b      	ldr	r3, [r3, #48]	@ 0x30
 80022c6:	4a2c      	ldr	r2, [pc, #176]	@ (8002378 <MX_GPIO_Init+0xd0>)
 80022c8:	f043 0304 	orr.w	r3, r3, #4
 80022cc:	6313      	str	r3, [r2, #48]	@ 0x30
 80022ce:	4b2a      	ldr	r3, [pc, #168]	@ (8002378 <MX_GPIO_Init+0xd0>)
 80022d0:	6b1b      	ldr	r3, [r3, #48]	@ 0x30
 80022d2:	f003 0304 	and.w	r3, r3, #4
 80022d6:	613b      	str	r3, [r7, #16]
 80022d8:	693b      	ldr	r3, [r7, #16]
  __HAL_RCC_GPIOH_CLK_ENABLE();
 80022da:	2300      	movs	r3, #0
 80022dc:	60fb      	str	r3, [r7, #12]
 80022de:	4b26      	ldr	r3, [pc, #152]	@ (8002378 <MX_GPIO_Init+0xd0>)
 80022e0:	6b1b      	ldr	r3, [r3, #48]	@ 0x30
 80022e2:	4a25      	ldr	r2, [pc, #148]	@ (8002378 <MX_GPIO_Init+0xd0>)
 80022e4:	f043 0380 	orr.w	r3, r3, #128	@ 0x80
 80022e8:	6313      	str	r3, [r2, #48]	@ 0x30
 80022ea:	4b23      	ldr	r3, [pc, #140]	@ (8002378 <MX_GPIO_Init+0xd0>)
 80022ec:	6b1b      	ldr	r3, [r3, #48]	@ 0x30
 80022ee:	f003 0380 	and.w	r3, r3, #128	@ 0x80
 80022f2:	60fb      	str	r3, [r7, #12]
 80022f4:	68fb      	ldr	r3, [r7, #12]
  __HAL_RCC_GPIOA_CLK_ENABLE();
 80022f6:	2300      	movs	r3, #0
 80022f8:	60bb      	str	r3, [r7, #8]
 80022fa:	4b1f      	ldr	r3, [pc, #124]	@ (8002378 <MX_GPIO_Init+0xd0>)
 80022fc:	6b1b      	ldr	r3, [r3, #48]	@ 0x30
 80022fe:	4a1e      	ldr	r2, [pc, #120]	@ (8002378 <MX_GPIO_Init+0xd0>)
 8002300:	f043 0301 	orr.w	r3, r3, #1
 8002304:	6313      	str	r3, [r2, #48]	@ 0x30
 8002306:	4b1c      	ldr	r3, [pc, #112]	@ (8002378 <MX_GPIO_Init+0xd0>)
 8002308:	6b1b      	ldr	r3, [r3, #48]	@ 0x30
 800230a:	f003 0301 	and.w	r3, r3, #1
 800230e:	60bb      	str	r3, [r7, #8]
 8002310:	68bb      	ldr	r3, [r7, #8]
  __HAL_RCC_GPIOB_CLK_ENABLE();
 8002312:	2300      	movs	r3, #0
 8002314:	607b      	str	r3, [r7, #4]
 8002316:	4b18      	ldr	r3, [pc, #96]	@ (8002378 <MX_GPIO_Init+0xd0>)
 8002318:	6b1b      	ldr	r3, [r3, #48]	@ 0x30
 800231a:	4a17      	ldr	r2, [pc, #92]	@ (8002378 <MX_GPIO_Init+0xd0>)
 800231c:	f043 0302 	orr.w	r3, r3, #2
 8002320:	6313      	str	r3, [r2, #48]	@ 0x30
 8002322:	4b15      	ldr	r3, [pc, #84]	@ (8002378 <MX_GPIO_Init+0xd0>)
 8002324:	6b1b      	ldr	r3, [r3, #48]	@ 0x30
 8002326:	f003 0302 	and.w	r3, r3, #2
 800232a:	607b      	str	r3, [r7, #4]
 800232c:	687b      	ldr	r3, [r7, #4]

  /*Configure GPIO pin Output Level */
  HAL_GPIO_WritePin(LD2_GPIO_Port, LD2_Pin, GPIO_PIN_RESET);
 800232e:	2200      	movs	r2, #0
 8002330:	2120      	movs	r1, #32
 8002332:	4812      	ldr	r0, [pc, #72]	@ (800237c <MX_GPIO_Init+0xd4>)
 8002334:	f002 f960 	bl	80045f8 <HAL_GPIO_WritePin>

  /*Configure GPIO pin : B1_Pin */
  GPIO_InitStruct.Pin = B1_Pin;
 8002338:	f44f 5300 	mov.w	r3, #8192	@ 0x2000
 800233c:	617b      	str	r3, [r7, #20]
  GPIO_InitStruct.Mode = GPIO_MODE_IT_FALLING;
 800233e:	f44f 1304 	mov.w	r3, #2162688	@ 0x210000
 8002342:	61bb      	str	r3, [r7, #24]
  GPIO_InitStruct.Pull = GPIO_NOPULL;
 8002344:	2300      	movs	r3, #0
 8002346:	61fb      	str	r3, [r7, #28]
  HAL_GPIO_Init(B1_GPIO_Port, &GPIO_InitStruct);
 8002348:	f107 0314 	add.w	r3, r7, #20
 800234c:	4619      	mov	r1, r3
 800234e:	480c      	ldr	r0, [pc, #48]	@ (8002380 <MX_GPIO_Init+0xd8>)
 8002350:	f001 ffbe 	bl	80042d0 <HAL_GPIO_Init>

  /*Configure GPIO pin : LD2_Pin */
  GPIO_InitStruct.Pin = LD2_Pin;
 8002354:	2320      	movs	r3, #32
 8002356:	617b      	str	r3, [r7, #20]
  GPIO_InitStruct.Mode = GPIO_MODE_OUTPUT_PP;
 8002358:	2301      	movs	r3, #1
 800235a:	61bb      	str	r3, [r7, #24]
  GPIO_InitStruct.Pull = GPIO_NOPULL;
 800235c:	2300      	movs	r3, #0
 800235e:	61fb      	str	r3, [r7, #28]
  GPIO_InitStruct.Speed = GPIO_SPEED_FREQ_LOW;
 8002360:	2300      	movs	r3, #0
 8002362:	623b      	str	r3, [r7, #32]
  HAL_GPIO_Init(LD2_GPIO_Port, &GPIO_InitStruct);
 8002364:	f107 0314 	add.w	r3, r7, #20
 8002368:	4619      	mov	r1, r3
 800236a:	4804      	ldr	r0, [pc, #16]	@ (800237c <MX_GPIO_Init+0xd4>)
 800236c:	f001 ffb0 	bl	80042d0 <HAL_GPIO_Init>

/* USER CODE BEGIN MX_GPIO_Init_2 */
/* USER CODE END MX_GPIO_Init_2 */
}
 8002370:	bf00      	nop
 8002372:	3728      	adds	r7, #40	@ 0x28
 8002374:	46bd      	mov	sp, r7
 8002376:	bd80      	pop	{r7, pc}
 8002378:	40023800 	.word	0x40023800
 800237c:	40020000 	.word	0x40020000
 8002380:	40020800 	.word	0x40020800

08002384 <Error_Handler>:
/**
  * @brief  This function is executed in case of error occurrence.
  * @retval None
  */
void Error_Handler(void)
{
 8002384:	b480      	push	{r7}
 8002386:	af00      	add	r7, sp, #0
  \details Disables IRQ interrupts by setting special-purpose register PRIMASK.
           Can only be executed in Privileged modes.
 */
__STATIC_FORCEINLINE void __disable_irq(void)
{
  __ASM volatile ("cpsid i" : : : "memory");
 8002388:	b672      	cpsid	i
}
 800238a:	bf00      	nop
  /* USER CODE BEGIN Error_Handler_Debug */
  /* User can add his own implementation to report the HAL error return state */
  __disable_irq();
  while (1)
 800238c:	bf00      	nop
 800238e:	e7fd      	b.n	800238c <Error_Handler+0x8>

08002390 <HAL_MspInit>:
/* USER CODE END 0 */
/**
  * Initializes the Global MSP.
  */
void HAL_MspInit(void)
{
 8002390:	b580      	push	{r7, lr}
 8002392:	b082      	sub	sp, #8
 8002394:	af00      	add	r7, sp, #0

  /* USER CODE BEGIN MspInit 0 */

  /* USER CODE END MspInit 0 */

  __HAL_RCC_SYSCFG_CLK_ENABLE();
 8002396:	2300      	movs	r3, #0
 8002398:	607b      	str	r3, [r7, #4]
 800239a:	4b10      	ldr	r3, [pc, #64]	@ (80023dc <HAL_MspInit+0x4c>)
 800239c:	6c5b      	ldr	r3, [r3, #68]	@ 0x44
 800239e:	4a0f      	ldr	r2, [pc, #60]	@ (80023dc <HAL_MspInit+0x4c>)
 80023a0:	f443 4380 	orr.w	r3, r3, #16384	@ 0x4000
 80023a4:	6453      	str	r3, [r2, #68]	@ 0x44
 80023a6:	4b0d      	ldr	r3, [pc, #52]	@ (80023dc <HAL_MspInit+0x4c>)
 80023a8:	6c5b      	ldr	r3, [r3, #68]	@ 0x44
 80023aa:	f403 4380 	and.w	r3, r3, #16384	@ 0x4000
 80023ae:	607b      	str	r3, [r7, #4]
 80023b0:	687b      	ldr	r3, [r7, #4]
  __HAL_RCC_PWR_CLK_ENABLE();
 80023b2:	2300      	movs	r3, #0
 80023b4:	603b      	str	r3, [r7, #0]
 80023b6:	4b09      	ldr	r3, [pc, #36]	@ (80023dc <HAL_MspInit+0x4c>)
 80023b8:	6c1b      	ldr	r3, [r3, #64]	@ 0x40
 80023ba:	4a08      	ldr	r2, [pc, #32]	@ (80023dc <HAL_MspInit+0x4c>)
 80023bc:	f043 5380 	orr.w	r3, r3, #268435456	@ 0x10000000
 80023c0:	6413      	str	r3, [r2, #64]	@ 0x40
 80023c2:	4b06      	ldr	r3, [pc, #24]	@ (80023dc <HAL_MspInit+0x4c>)
 80023c4:	6c1b      	ldr	r3, [r3, #64]	@ 0x40
 80023c6:	f003 5380 	and.w	r3, r3, #268435456	@ 0x10000000
 80023ca:	603b      	str	r3, [r7, #0]
 80023cc:	683b      	ldr	r3, [r7, #0]

  HAL_NVIC_SetPriorityGrouping(NVIC_PRIORITYGROUP_0);
 80023ce:	2007      	movs	r0, #7
 80023d0:	f001 ff3c 	bl	800424c <HAL_NVIC_SetPriorityGrouping>
  /* System interrupt init*/

  /* USER CODE BEGIN MspInit 1 */

  /* USER CODE END MspInit 1 */
}
 80023d4:	bf00      	nop
 80023d6:	3708      	adds	r7, #8
 80023d8:	46bd      	mov	sp, r7
 80023da:	bd80      	pop	{r7, pc}
 80023dc:	40023800 	.word	0x40023800

080023e0 <HAL_ADC_MspInit>:
* This function configures the hardware resources used in this example
* @param hadc: ADC handle pointer
* @retval None
*/
void HAL_ADC_MspInit(ADC_HandleTypeDef* hadc)
{
 80023e0:	b580      	push	{r7, lr}
 80023e2:	b08a      	sub	sp, #40	@ 0x28
 80023e4:	af00      	add	r7, sp, #0
 80023e6:	6078      	str	r0, [r7, #4]
  GPIO_InitTypeDef GPIO_InitStruct = {0};
 80023e8:	f107 0314 	add.w	r3, r7, #20
 80023ec:	2200      	movs	r2, #0
 80023ee:	601a      	str	r2, [r3, #0]
 80023f0:	605a      	str	r2, [r3, #4]
 80023f2:	609a      	str	r2, [r3, #8]
 80023f4:	60da      	str	r2, [r3, #12]
 80023f6:	611a      	str	r2, [r3, #16]
  if(hadc->Instance==ADC1)
 80023f8:	687b      	ldr	r3, [r7, #4]
 80023fa:	681b      	ldr	r3, [r3, #0]
 80023fc:	4a24      	ldr	r2, [pc, #144]	@ (8002490 <HAL_ADC_MspInit+0xb0>)
 80023fe:	4293      	cmp	r3, r2
 8002400:	d141      	bne.n	8002486 <HAL_ADC_MspInit+0xa6>
  {
  /* USER CODE BEGIN ADC1_MspInit 0 */

  /* USER CODE END ADC1_MspInit 0 */
    /* Peripheral clock enable */
    __HAL_RCC_ADC1_CLK_ENABLE();
 8002402:	2300      	movs	r3, #0
 8002404:	613b      	str	r3, [r7, #16]
 8002406:	4b23      	ldr	r3, [pc, #140]	@ (8002494 <HAL_ADC_MspInit+0xb4>)
 8002408:	6c5b      	ldr	r3, [r3, #68]	@ 0x44
 800240a:	4a22      	ldr	r2, [pc, #136]	@ (8002494 <HAL_ADC_MspInit+0xb4>)
 800240c:	f443 7380 	orr.w	r3, r3, #256	@ 0x100
 8002410:	6453      	str	r3, [r2, #68]	@ 0x44
 8002412:	4b20      	ldr	r3, [pc, #128]	@ (8002494 <HAL_ADC_MspInit+0xb4>)
 8002414:	6c5b      	ldr	r3, [r3, #68]	@ 0x44
 8002416:	f403 7380 	and.w	r3, r3, #256	@ 0x100
 800241a:	613b      	str	r3, [r7, #16]
 800241c:	693b      	ldr	r3, [r7, #16]

    __HAL_RCC_GPIOC_CLK_ENABLE();
 800241e:	2300      	movs	r3, #0
 8002420:	60fb      	str	r3, [r7, #12]
 8002422:	4b1c      	ldr	r3, [pc, #112]	@ (8002494 <HAL_ADC_MspInit+0xb4>)
 8002424:	6b1b      	ldr	r3, [r3, #48]	@ 0x30
 8002426:	4a1b      	ldr	r2, [pc, #108]	@ (8002494 <HAL_ADC_MspInit+0xb4>)
 8002428:	f043 0304 	orr.w	r3, r3, #4
 800242c:	6313      	str	r3, [r2, #48]	@ 0x30
 800242e:	4b19      	ldr	r3, [pc, #100]	@ (8002494 <HAL_ADC_MspInit+0xb4>)
 8002430:	6b1b      	ldr	r3, [r3, #48]	@ 0x30
 8002432:	f003 0304 	and.w	r3, r3, #4
 8002436:	60fb      	str	r3, [r7, #12]
 8002438:	68fb      	ldr	r3, [r7, #12]
    __HAL_RCC_GPIOA_CLK_ENABLE();
 800243a:	2300      	movs	r3, #0
 800243c:	60bb      	str	r3, [r7, #8]
 800243e:	4b15      	ldr	r3, [pc, #84]	@ (8002494 <HAL_ADC_MspInit+0xb4>)
 8002440:	6b1b      	ldr	r3, [r3, #48]	@ 0x30
 8002442:	4a14      	ldr	r2, [pc, #80]	@ (8002494 <HAL_ADC_MspInit+0xb4>)
 8002444:	f043 0301 	orr.w	r3, r3, #1
 8002448:	6313      	str	r3, [r2, #48]	@ 0x30
 800244a:	4b12      	ldr	r3, [pc, #72]	@ (8002494 <HAL_ADC_MspInit+0xb4>)
 800244c:	6b1b      	ldr	r3, [r3, #48]	@ 0x30
 800244e:	f003 0301 	and.w	r3, r3, #1
 8002452:	60bb      	str	r3, [r7, #8]
 8002454:	68bb      	ldr	r3, [r7, #8]
    PA0-WKUP     ------> ADC1_IN0
    PA1     ------> ADC1_IN1
    PA6     ------> ADC1_IN6
    PA7     ------> ADC1_IN7
    */
    GPIO_InitStruct.Pin = GPIO_PIN_0|GPIO_PIN_1|GPIO_PIN_3;
 8002456:	230b      	movs	r3, #11
 8002458:	617b      	str	r3, [r7, #20]
    GPIO_InitStruct.Mode = GPIO_MODE_ANALOG;
 800245a:	2303      	movs	r3, #3
 800245c:	61bb      	str	r3, [r7, #24]
    GPIO_InitStruct.Pull = GPIO_NOPULL;
 800245e:	2300      	movs	r3, #0
 8002460:	61fb      	str	r3, [r7, #28]
    HAL_GPIO_Init(GPIOC, &GPIO_InitStruct);
 8002462:	f107 0314 	add.w	r3, r7, #20
 8002466:	4619      	mov	r1, r3
 8002468:	480b      	ldr	r0, [pc, #44]	@ (8002498 <HAL_ADC_MspInit+0xb8>)
 800246a:	f001 ff31 	bl	80042d0 <HAL_GPIO_Init>

    GPIO_InitStruct.Pin = GPIO_PIN_0|GPIO_PIN_1|GPIO_PIN_6|GPIO_PIN_7;
 800246e:	23c3      	movs	r3, #195	@ 0xc3
 8002470:	617b      	str	r3, [r7, #20]
    GPIO_InitStruct.Mode = GPIO_MODE_ANALOG;
 8002472:	2303      	movs	r3, #3
 8002474:	61bb      	str	r3, [r7, #24]
    GPIO_InitStruct.Pull = GPIO_NOPULL;
 8002476:	2300      	movs	r3, #0
 8002478:	61fb      	str	r3, [r7, #28]
    HAL_GPIO_Init(GPIOA, &GPIO_InitStruct);
 800247a:	f107 0314 	add.w	r3, r7, #20
 800247e:	4619      	mov	r1, r3
 8002480:	4806      	ldr	r0, [pc, #24]	@ (800249c <HAL_ADC_MspInit+0xbc>)
 8002482:	f001 ff25 	bl	80042d0 <HAL_GPIO_Init>

  /* USER CODE END ADC1_MspInit 1 */

  }

}
 8002486:	bf00      	nop
 8002488:	3728      	adds	r7, #40	@ 0x28
 800248a:	46bd      	mov	sp, r7
 800248c:	bd80      	pop	{r7, pc}
 800248e:	bf00      	nop
 8002490:	40012000 	.word	0x40012000
 8002494:	40023800 	.word	0x40023800
 8002498:	40020800 	.word	0x40020800
 800249c:	40020000 	.word	0x40020000

080024a0 <HAL_CAN_MspInit>:
* This function configures the hardware resources used in this example
* @param hcan: CAN handle pointer
* @retval None
*/
void HAL_CAN_MspInit(CAN_HandleTypeDef* hcan)
{
 80024a0:	b580      	push	{r7, lr}
 80024a2:	b08a      	sub	sp, #40	@ 0x28
 80024a4:	af00      	add	r7, sp, #0
 80024a6:	6078      	str	r0, [r7, #4]
  GPIO_InitTypeDef GPIO_InitStruct = {0};
 80024a8:	f107 0314 	add.w	r3, r7, #20
 80024ac:	2200      	movs	r2, #0
 80024ae:	601a      	str	r2, [r3, #0]
 80024b0:	605a      	str	r2, [r3, #4]
 80024b2:	609a      	str	r2, [r3, #8]
 80024b4:	60da      	str	r2, [r3, #12]
 80024b6:	611a      	str	r2, [r3, #16]
  if(hcan->Instance==CAN1)
 80024b8:	687b      	ldr	r3, [r7, #4]
 80024ba:	681b      	ldr	r3, [r3, #0]
 80024bc:	4a21      	ldr	r2, [pc, #132]	@ (8002544 <HAL_CAN_MspInit+0xa4>)
 80024be:	4293      	cmp	r3, r2
 80024c0:	d13c      	bne.n	800253c <HAL_CAN_MspInit+0x9c>
  {
  /* USER CODE BEGIN CAN1_MspInit 0 */

  /* USER CODE END CAN1_MspInit 0 */
    /* Peripheral clock enable */
    __HAL_RCC_CAN1_CLK_ENABLE();
 80024c2:	2300      	movs	r3, #0
 80024c4:	613b      	str	r3, [r7, #16]
 80024c6:	4b20      	ldr	r3, [pc, #128]	@ (8002548 <HAL_CAN_MspInit+0xa8>)
 80024c8:	6c1b      	ldr	r3, [r3, #64]	@ 0x40
 80024ca:	4a1f      	ldr	r2, [pc, #124]	@ (8002548 <HAL_CAN_MspInit+0xa8>)
 80024cc:	f043 7300 	orr.w	r3, r3, #33554432	@ 0x2000000
 80024d0:	6413      	str	r3, [r2, #64]	@ 0x40
 80024d2:	4b1d      	ldr	r3, [pc, #116]	@ (8002548 <HAL_CAN_MspInit+0xa8>)
 80024d4:	6c1b      	ldr	r3, [r3, #64]	@ 0x40
 80024d6:	f003 7300 	and.w	r3, r3, #33554432	@ 0x2000000
 80024da:	613b      	str	r3, [r7, #16]
 80024dc:	693b      	ldr	r3, [r7, #16]

    __HAL_RCC_GPIOA_CLK_ENABLE();
 80024de:	2300      	movs	r3, #0
 80024e0:	60fb      	str	r3, [r7, #12]
 80024e2:	4b19      	ldr	r3, [pc, #100]	@ (8002548 <HAL_CAN_MspInit+0xa8>)
 80024e4:	6b1b      	ldr	r3, [r3, #48]	@ 0x30
 80024e6:	4a18      	ldr	r2, [pc, #96]	@ (8002548 <HAL_CAN_MspInit+0xa8>)
 80024e8:	f043 0301 	orr.w	r3, r3, #1
 80024ec:	6313      	str	r3, [r2, #48]	@ 0x30
 80024ee:	4b16      	ldr	r3, [pc, #88]	@ (8002548 <HAL_CAN_MspInit+0xa8>)
 80024f0:	6b1b      	ldr	r3, [r3, #48]	@ 0x30
 80024f2:	f003 0301 	and.w	r3, r3, #1
 80024f6:	60fb      	str	r3, [r7, #12]
 80024f8:	68fb      	ldr	r3, [r7, #12]
    /**CAN1 GPIO Configuration
    PA11     ------> CAN1_RX
    PA12     ------> CAN1_TX
    */
    GPIO_InitStruct.Pin = GPIO_PIN_11|GPIO_PIN_12;
 80024fa:	f44f 53c0 	mov.w	r3, #6144	@ 0x1800
 80024fe:	617b      	str	r3, [r7, #20]
    GPIO_InitStruct.Mode = GPIO_MODE_AF_PP;
 8002500:	2302      	movs	r3, #2
 8002502:	61bb      	str	r3, [r7, #24]
    GPIO_InitStruct.Pull = GPIO_NOPULL;
 8002504:	2300      	movs	r3, #0
 8002506:	61fb      	str	r3, [r7, #28]
    GPIO_InitStruct.Speed = GPIO_SPEED_FREQ_VERY_HIGH;
 8002508:	2303      	movs	r3, #3
 800250a:	623b      	str	r3, [r7, #32]
    GPIO_InitStruct.Alternate = GPIO_AF9_CAN1;
 800250c:	2309      	movs	r3, #9
 800250e:	627b      	str	r3, [r7, #36]	@ 0x24
    HAL_GPIO_Init(GPIOA, &GPIO_InitStruct);
 8002510:	f107 0314 	add.w	r3, r7, #20
 8002514:	4619      	mov	r1, r3
 8002516:	480d      	ldr	r0, [pc, #52]	@ (800254c <HAL_CAN_MspInit+0xac>)
 8002518:	f001 feda 	bl	80042d0 <HAL_GPIO_Init>

    /* CAN1 interrupt Init */
    HAL_NVIC_SetPriority(CAN1_RX0_IRQn, 0, 0);
 800251c:	2200      	movs	r2, #0
 800251e:	2100      	movs	r1, #0
 8002520:	2014      	movs	r0, #20
 8002522:	f001 fe9e 	bl	8004262 <HAL_NVIC_SetPriority>
    HAL_NVIC_EnableIRQ(CAN1_RX0_IRQn);
 8002526:	2014      	movs	r0, #20
 8002528:	f001 feb7 	bl	800429a <HAL_NVIC_EnableIRQ>
    HAL_NVIC_SetPriority(CAN1_RX1_IRQn, 0, 0);
 800252c:	2200      	movs	r2, #0
 800252e:	2100      	movs	r1, #0
 8002530:	2015      	movs	r0, #21
 8002532:	f001 fe96 	bl	8004262 <HAL_NVIC_SetPriority>
    HAL_NVIC_EnableIRQ(CAN1_RX1_IRQn);
 8002536:	2015      	movs	r0, #21
 8002538:	f001 feaf 	bl	800429a <HAL_NVIC_EnableIRQ>

  /* USER CODE END CAN1_MspInit 1 */

  }

}
 800253c:	bf00      	nop
 800253e:	3728      	adds	r7, #40	@ 0x28
 8002540:	46bd      	mov	sp, r7
 8002542:	bd80      	pop	{r7, pc}
 8002544:	40006400 	.word	0x40006400
 8002548:	40023800 	.word	0x40023800
 800254c:	40020000 	.word	0x40020000

08002550 <HAL_I2C_MspInit>:
* This function configures the hardware resources used in this example
* @param hi2c: I2C handle pointer
* @retval None
*/
void HAL_I2C_MspInit(I2C_HandleTypeDef* hi2c)
{
 8002550:	b580      	push	{r7, lr}
 8002552:	b08a      	sub	sp, #40	@ 0x28
 8002554:	af00      	add	r7, sp, #0
 8002556:	6078      	str	r0, [r7, #4]
  GPIO_InitTypeDef GPIO_InitStruct = {0};
 8002558:	f107 0314 	add.w	r3, r7, #20
 800255c:	2200      	movs	r2, #0
 800255e:	601a      	str	r2, [r3, #0]
 8002560:	605a      	str	r2, [r3, #4]
 8002562:	609a      	str	r2, [r3, #8]
 8002564:	60da      	str	r2, [r3, #12]
 8002566:	611a      	str	r2, [r3, #16]
  if(hi2c->Instance==I2C1)
 8002568:	687b      	ldr	r3, [r7, #4]
 800256a:	681b      	ldr	r3, [r3, #0]
 800256c:	4a19      	ldr	r2, [pc, #100]	@ (80025d4 <HAL_I2C_MspInit+0x84>)
 800256e:	4293      	cmp	r3, r2
 8002570:	d12b      	bne.n	80025ca <HAL_I2C_MspInit+0x7a>
  {
  /* USER CODE BEGIN I2C1_MspInit 0 */

  /* USER CODE END I2C1_MspInit 0 */

    __HAL_RCC_GPIOB_CLK_ENABLE();
 8002572:	2300      	movs	r3, #0
 8002574:	613b      	str	r3, [r7, #16]
 8002576:	4b18      	ldr	r3, [pc, #96]	@ (80025d8 <HAL_I2C_MspInit+0x88>)
 8002578:	6b1b      	ldr	r3, [r3, #48]	@ 0x30
 800257a:	4a17      	ldr	r2, [pc, #92]	@ (80025d8 <HAL_I2C_MspInit+0x88>)
 800257c:	f043 0302 	orr.w	r3, r3, #2
 8002580:	6313      	str	r3, [r2, #48]	@ 0x30
 8002582:	4b15      	ldr	r3, [pc, #84]	@ (80025d8 <HAL_I2C_MspInit+0x88>)
 8002584:	6b1b      	ldr	r3, [r3, #48]	@ 0x30
 8002586:	f003 0302 	and.w	r3, r3, #2
 800258a:	613b      	str	r3, [r7, #16]
 800258c:	693b      	ldr	r3, [r7, #16]
    /**I2C1 GPIO Configuration
    PB6     ------> I2C1_SCL
    PB7     ------> I2C1_SDA
    */
    GPIO_InitStruct.Pin = GPIO_PIN_6|GPIO_PIN_7;
 800258e:	23c0      	movs	r3, #192	@ 0xc0
 8002590:	617b      	str	r3, [r7, #20]
    GPIO_InitStruct.Mode = GPIO_MODE_AF_OD;
 8002592:	2312      	movs	r3, #18
 8002594:	61bb      	str	r3, [r7, #24]
    GPIO_InitStruct.Pull = GPIO_NOPULL;
 8002596:	2300      	movs	r3, #0
 8002598:	61fb      	str	r3, [r7, #28]
    GPIO_InitStruct.Speed = GPIO_SPEED_FREQ_VERY_HIGH;
 800259a:	2303      	movs	r3, #3
 800259c:	623b      	str	r3, [r7, #32]
    GPIO_InitStruct.Alternate = GPIO_AF4_I2C1;
 800259e:	2304      	movs	r3, #4
 80025a0:	627b      	str	r3, [r7, #36]	@ 0x24
    HAL_GPIO_Init(GPIOB, &GPIO_InitStruct);
 80025a2:	f107 0314 	add.w	r3, r7, #20
 80025a6:	4619      	mov	r1, r3
 80025a8:	480c      	ldr	r0, [pc, #48]	@ (80025dc <HAL_I2C_MspInit+0x8c>)
 80025aa:	f001 fe91 	bl	80042d0 <HAL_GPIO_Init>

    /* Peripheral clock enable */
    __HAL_RCC_I2C1_CLK_ENABLE();
 80025ae:	2300      	movs	r3, #0
 80025b0:	60fb      	str	r3, [r7, #12]
 80025b2:	4b09      	ldr	r3, [pc, #36]	@ (80025d8 <HAL_I2C_MspInit+0x88>)
 80025b4:	6c1b      	ldr	r3, [r3, #64]	@ 0x40
 80025b6:	4a08      	ldr	r2, [pc, #32]	@ (80025d8 <HAL_I2C_MspInit+0x88>)
 80025b8:	f443 1300 	orr.w	r3, r3, #2097152	@ 0x200000
 80025bc:	6413      	str	r3, [r2, #64]	@ 0x40
 80025be:	4b06      	ldr	r3, [pc, #24]	@ (80025d8 <HAL_I2C_MspInit+0x88>)
 80025c0:	6c1b      	ldr	r3, [r3, #64]	@ 0x40
 80025c2:	f403 1300 	and.w	r3, r3, #2097152	@ 0x200000
 80025c6:	60fb      	str	r3, [r7, #12]
 80025c8:	68fb      	ldr	r3, [r7, #12]

  /* USER CODE END I2C1_MspInit 1 */

  }

}
 80025ca:	bf00      	nop
 80025cc:	3728      	adds	r7, #40	@ 0x28
 80025ce:	46bd      	mov	sp, r7
 80025d0:	bd80      	pop	{r7, pc}
 80025d2:	bf00      	nop
 80025d4:	40005400 	.word	0x40005400
 80025d8:	40023800 	.word	0x40023800
 80025dc:	40020400 	.word	0x40020400

080025e0 <HAL_UART_MspInit>:
* This function configures the hardware resources used in this example
* @param huart: UART handle pointer
* @retval None
*/
void HAL_UART_MspInit(UART_HandleTypeDef* huart)
{
 80025e0:	b580      	push	{r7, lr}
 80025e2:	b08a      	sub	sp, #40	@ 0x28
 80025e4:	af00      	add	r7, sp, #0
 80025e6:	6078      	str	r0, [r7, #4]
  GPIO_InitTypeDef GPIO_InitStruct = {0};
 80025e8:	f107 0314 	add.w	r3, r7, #20
 80025ec:	2200      	movs	r2, #0
 80025ee:	601a      	str	r2, [r3, #0]
 80025f0:	605a      	str	r2, [r3, #4]
 80025f2:	609a      	str	r2, [r3, #8]
 80025f4:	60da      	str	r2, [r3, #12]
 80025f6:	611a      	str	r2, [r3, #16]
  if(huart->Instance==USART2)
 80025f8:	687b      	ldr	r3, [r7, #4]
 80025fa:	681b      	ldr	r3, [r3, #0]
 80025fc:	4a19      	ldr	r2, [pc, #100]	@ (8002664 <HAL_UART_MspInit+0x84>)
 80025fe:	4293      	cmp	r3, r2
 8002600:	d12b      	bne.n	800265a <HAL_UART_MspInit+0x7a>
  {
  /* USER CODE BEGIN USART2_MspInit 0 */

  /* USER CODE END USART2_MspInit 0 */
    /* Peripheral clock enable */
    __HAL_RCC_USART2_CLK_ENABLE();
 8002602:	2300      	movs	r3, #0
 8002604:	613b      	str	r3, [r7, #16]
 8002606:	4b18      	ldr	r3, [pc, #96]	@ (8002668 <HAL_UART_MspInit+0x88>)
 8002608:	6c1b      	ldr	r3, [r3, #64]	@ 0x40
 800260a:	4a17      	ldr	r2, [pc, #92]	@ (8002668 <HAL_UART_MspInit+0x88>)
 800260c:	f443 3300 	orr.w	r3, r3, #131072	@ 0x20000
 8002610:	6413      	str	r3, [r2, #64]	@ 0x40
 8002612:	4b15      	ldr	r3, [pc, #84]	@ (8002668 <HAL_UART_MspInit+0x88>)
 8002614:	6c1b      	ldr	r3, [r3, #64]	@ 0x40
 8002616:	f403 3300 	and.w	r3, r3, #131072	@ 0x20000
 800261a:	613b      	str	r3, [r7, #16]
 800261c:	693b      	ldr	r3, [r7, #16]

    __HAL_RCC_GPIOA_CLK_ENABLE();
 800261e:	2300      	movs	r3, #0
 8002620:	60fb      	str	r3, [r7, #12]
 8002622:	4b11      	ldr	r3, [pc, #68]	@ (8002668 <HAL_UART_MspInit+0x88>)
 8002624:	6b1b      	ldr	r3, [r3, #48]	@ 0x30
 8002626:	4a10      	ldr	r2, [pc, #64]	@ (8002668 <HAL_UART_MspInit+0x88>)
 8002628:	f043 0301 	orr.w	r3, r3, #1
 800262c:	6313      	str	r3, [r2, #48]	@ 0x30
 800262e:	4b0e      	ldr	r3, [pc, #56]	@ (8002668 <HAL_UART_MspInit+0x88>)
 8002630:	6b1b      	ldr	r3, [r3, #48]	@ 0x30
 8002632:	f003 0301 	and.w	r3, r3, #1
 8002636:	60fb      	str	r3, [r7, #12]
 8002638:	68fb      	ldr	r3, [r7, #12]
    /**USART2 GPIO Configuration
    PA2     ------> USART2_TX
    PA3     ------> USART2_RX
    */
    GPIO_InitStruct.Pin = USART_TX_Pin|USART_RX_Pin;
 800263a:	230c      	movs	r3, #12
 800263c:	617b      	str	r3, [r7, #20]
    GPIO_InitStruct.Mode = GPIO_MODE_AF_PP;
 800263e:	2302      	movs	r3, #2
 8002640:	61bb      	str	r3, [r7, #24]
    GPIO_InitStruct.Pull = GPIO_NOPULL;
 8002642:	2300      	movs	r3, #0
 8002644:	61fb      	str	r3, [r7, #28]
    GPIO_InitStruct.Speed = GPIO_SPEED_FREQ_VERY_HIGH;
 8002646:	2303      	movs	r3, #3
 8002648:	623b      	str	r3, [r7, #32]
    GPIO_InitStruct.Alternate = GPIO_AF7_USART2;
 800264a:	2307      	movs	r3, #7
 800264c:	627b      	str	r3, [r7, #36]	@ 0x24
    HAL_GPIO_Init(GPIOA, &GPIO_InitStruct);
 800264e:	f107 0314 	add.w	r3, r7, #20
 8002652:	4619      	mov	r1, r3
 8002654:	4805      	ldr	r0, [pc, #20]	@ (800266c <HAL_UART_MspInit+0x8c>)
 8002656:	f001 fe3b 	bl	80042d0 <HAL_GPIO_Init>

  /* USER CODE END USART2_MspInit 1 */

  }

}
 800265a:	bf00      	nop
 800265c:	3728      	adds	r7, #40	@ 0x28
 800265e:	46bd      	mov	sp, r7
 8002660:	bd80      	pop	{r7, pc}
 8002662:	bf00      	nop
 8002664:	40004400 	.word	0x40004400
 8002668:	40023800 	.word	0x40023800
 800266c:	40020000 	.word	0x40020000

08002670 <NMI_Handler>:
/******************************************************************************/
/**
  * @brief This function handles Non maskable interrupt.
  */
void NMI_Handler(void)
{
 8002670:	b480      	push	{r7}
 8002672:	af00      	add	r7, sp, #0
  /* USER CODE BEGIN NonMaskableInt_IRQn 0 */

  /* USER CODE END NonMaskableInt_IRQn 0 */
  /* USER CODE BEGIN NonMaskableInt_IRQn 1 */
   while (1)
 8002674:	bf00      	nop
 8002676:	e7fd      	b.n	8002674 <NMI_Handler+0x4>

08002678 <HardFault_Handler>:

/**
  * @brief This function handles Hard fault interrupt.
  */
void HardFault_Handler(void)
{
 8002678:	b480      	push	{r7}
 800267a:	af00      	add	r7, sp, #0
  /* USER CODE BEGIN HardFault_IRQn 0 */

  /* USER CODE END HardFault_IRQn 0 */
  while (1)
 800267c:	bf00      	nop
 800267e:	e7fd      	b.n	800267c <HardFault_Handler+0x4>

08002680 <MemManage_Handler>:

/**
  * @brief This function handles Memory management fault.
  */
void MemManage_Handler(void)
{
 8002680:	b480      	push	{r7}
 8002682:	af00      	add	r7, sp, #0
  /* USER CODE BEGIN MemoryManagement_IRQn 0 */

  /* USER CODE END MemoryManagement_IRQn 0 */
  while (1)
 8002684:	bf00      	nop
 8002686:	e7fd      	b.n	8002684 <MemManage_Handler+0x4>

08002688 <BusFault_Handler>:

/**
  * @brief This function handles Pre-fetch fault, memory access fault.
  */
void BusFault_Handler(void)
{
 8002688:	b480      	push	{r7}
 800268a:	af00      	add	r7, sp, #0
  /* USER CODE BEGIN BusFault_IRQn 0 */

  /* USER CODE END BusFault_IRQn 0 */
  while (1)
 800268c:	bf00      	nop
 800268e:	e7fd      	b.n	800268c <BusFault_Handler+0x4>

08002690 <UsageFault_Handler>:

/**
  * @brief This function handles Undefined instruction or illegal state.
  */
void UsageFault_Handler(void)
{
 8002690:	b480      	push	{r7}
 8002692:	af00      	add	r7, sp, #0
  /* USER CODE BEGIN UsageFault_IRQn 0 */

  /* USER CODE END UsageFault_IRQn 0 */
  while (1)
 8002694:	bf00      	nop
 8002696:	e7fd      	b.n	8002694 <UsageFault_Handler+0x4>

08002698 <SVC_Handler>:

/**
  * @brief This function handles System service call via SWI instruction.
  */
void SVC_Handler(void)
{
 8002698:	b480      	push	{r7}
 800269a:	af00      	add	r7, sp, #0

  /* USER CODE END SVCall_IRQn 0 */
  /* USER CODE BEGIN SVCall_IRQn 1 */

  /* USER CODE END SVCall_IRQn 1 */
}
 800269c:	bf00      	nop
 800269e:	46bd      	mov	sp, r7
 80026a0:	f85d 7b04 	ldr.w	r7, [sp], #4
 80026a4:	4770      	bx	lr

080026a6 <DebugMon_Handler>:

/**
  * @brief This function handles Debug monitor.
  */
void DebugMon_Handler(void)
{
 80026a6:	b480      	push	{r7}
 80026a8:	af00      	add	r7, sp, #0

  /* USER CODE END DebugMonitor_IRQn 0 */
  /* USER CODE BEGIN DebugMonitor_IRQn 1 */

  /* USER CODE END DebugMonitor_IRQn 1 */
}
 80026aa:	bf00      	nop
 80026ac:	46bd      	mov	sp, r7
 80026ae:	f85d 7b04 	ldr.w	r7, [sp], #4
 80026b2:	4770      	bx	lr

080026b4 <PendSV_Handler>:

/**
  * @brief This function handles Pendable request for system service.
  */
void PendSV_Handler(void)
{
 80026b4:	b480      	push	{r7}
 80026b6:	af00      	add	r7, sp, #0

  /* USER CODE END PendSV_IRQn 0 */
  /* USER CODE BEGIN PendSV_IRQn 1 */

  /* USER CODE END PendSV_IRQn 1 */
}
 80026b8:	bf00      	nop
 80026ba:	46bd      	mov	sp, r7
 80026bc:	f85d 7b04 	ldr.w	r7, [sp], #4
 80026c0:	4770      	bx	lr

080026c2 <SysTick_Handler>:

/**
  * @brief This function handles System tick timer.
  */
void SysTick_Handler(void)
{
 80026c2:	b580      	push	{r7, lr}
 80026c4:	af00      	add	r7, sp, #0
  /* USER CODE BEGIN SysTick_IRQn 0 */

  /* USER CODE END SysTick_IRQn 0 */
  HAL_IncTick();
 80026c6:	f000 f96b 	bl	80029a0 <HAL_IncTick>
  /* USER CODE BEGIN SysTick_IRQn 1 */

  /* USER CODE END SysTick_IRQn 1 */
}
 80026ca:	bf00      	nop
 80026cc:	bd80      	pop	{r7, pc}
	...

080026d0 <CAN1_RX0_IRQHandler>:

/**
  * @brief This function handles CAN1 RX0 interrupt.
  */
void CAN1_RX0_IRQHandler(void)
{
 80026d0:	b580      	push	{r7, lr}
 80026d2:	af00      	add	r7, sp, #0
  /* USER CODE BEGIN CAN1_RX0_IRQn 0 */

  /* USER CODE END CAN1_RX0_IRQn 0 */
  HAL_CAN_IRQHandler(&hcan1);
 80026d4:	4802      	ldr	r0, [pc, #8]	@ (80026e0 <CAN1_RX0_IRQHandler+0x10>)
 80026d6:	f001 faba 	bl	8003c4e <HAL_CAN_IRQHandler>
  /* USER CODE BEGIN CAN1_RX0_IRQn 1 */

  /* USER CODE END CAN1_RX0_IRQn 1 */
}
 80026da:	bf00      	nop
 80026dc:	bd80      	pop	{r7, pc}
 80026de:	bf00      	nop
 80026e0:	200002b8 	.word	0x200002b8

080026e4 <CAN1_RX1_IRQHandler>:

/**
  * @brief This function handles CAN1 RX1 interrupt.
  */
void CAN1_RX1_IRQHandler(void)
{
 80026e4:	b580      	push	{r7, lr}
 80026e6:	af00      	add	r7, sp, #0
  /* USER CODE BEGIN CAN1_RX1_IRQn 0 */

  /* USER CODE END CAN1_RX1_IRQn 0 */
  HAL_CAN_IRQHandler(&hcan1);
 80026e8:	4802      	ldr	r0, [pc, #8]	@ (80026f4 <CAN1_RX1_IRQHandler+0x10>)
 80026ea:	f001 fab0 	bl	8003c4e <HAL_CAN_IRQHandler>
  /* USER CODE BEGIN CAN1_RX1_IRQn 1 */

  /* USER CODE END CAN1_RX1_IRQn 1 */
}
 80026ee:	bf00      	nop
 80026f0:	bd80      	pop	{r7, pc}
 80026f2:	bf00      	nop
 80026f4:	200002b8 	.word	0x200002b8

080026f8 <_getpid>:
 80026f8:	b480      	push	{r7}
 80026fa:	af00      	add	r7, sp, #0
 80026fc:	2301      	movs	r3, #1
 80026fe:	4618      	mov	r0, r3
 8002700:	46bd      	mov	sp, r7
 8002702:	f85d 7b04 	ldr.w	r7, [sp], #4
 8002706:	4770      	bx	lr

08002708 <_kill>:
 8002708:	b580      	push	{r7, lr}
 800270a:	b082      	sub	sp, #8
 800270c:	af00      	add	r7, sp, #0
 800270e:	6078      	str	r0, [r7, #4]
 8002710:	6039      	str	r1, [r7, #0]
 8002712:	f004 f859 	bl	80067c8 <__errno>
 8002716:	4603      	mov	r3, r0
 8002718:	2216      	movs	r2, #22
 800271a:	601a      	str	r2, [r3, #0]
 800271c:	f04f 33ff 	mov.w	r3, #4294967295	@ 0xffffffff
 8002720:	4618      	mov	r0, r3
 8002722:	3708      	adds	r7, #8
 8002724:	46bd      	mov	sp, r7
 8002726:	bd80      	pop	{r7, pc}

08002728 <_exit>:
 8002728:	b580      	push	{r7, lr}
 800272a:	b082      	sub	sp, #8
 800272c:	af00      	add	r7, sp, #0
 800272e:	6078      	str	r0, [r7, #4]
 8002730:	f04f 31ff 	mov.w	r1, #4294967295	@ 0xffffffff
 8002734:	6878      	ldr	r0, [r7, #4]
 8002736:	f7ff ffe7 	bl	8002708 <_kill>
 800273a:	bf00      	nop
 800273c:	e7fd      	b.n	800273a <_exit+0x12>

0800273e <_read>:
 800273e:	b580      	push	{r7, lr}
 8002740:	b086      	sub	sp, #24
 8002742:	af00      	add	r7, sp, #0
 8002744:	60f8      	str	r0, [r7, #12]
 8002746:	60b9      	str	r1, [r7, #8]
 8002748:	607a      	str	r2, [r7, #4]
 800274a:	2300      	movs	r3, #0
 800274c:	617b      	str	r3, [r7, #20]
 800274e:	e00a      	b.n	8002766 <_read+0x28>
 8002750:	f3af 8000 	nop.w
 8002754:	4601      	mov	r1, r0
 8002756:	68bb      	ldr	r3, [r7, #8]
 8002758:	1c5a      	adds	r2, r3, #1
 800275a:	60ba      	str	r2, [r7, #8]
 800275c:	b2ca      	uxtb	r2, r1
 800275e:	701a      	strb	r2, [r3, #0]
 8002760:	697b      	ldr	r3, [r7, #20]
 8002762:	3301      	adds	r3, #1
 8002764:	617b      	str	r3, [r7, #20]
 8002766:	697a      	ldr	r2, [r7, #20]
 8002768:	687b      	ldr	r3, [r7, #4]
 800276a:	429a      	cmp	r2, r3
 800276c:	dbf0      	blt.n	8002750 <_read+0x12>
 800276e:	687b      	ldr	r3, [r7, #4]
 8002770:	4618      	mov	r0, r3
 8002772:	3718      	adds	r7, #24
 8002774:	46bd      	mov	sp, r7
 8002776:	bd80      	pop	{r7, pc}

08002778 <_write>:
 8002778:	b580      	push	{r7, lr}
 800277a:	b086      	sub	sp, #24
 800277c:	af00      	add	r7, sp, #0
 800277e:	60f8      	str	r0, [r7, #12]
 8002780:	60b9      	str	r1, [r7, #8]
 8002782:	607a      	str	r2, [r7, #4]
 8002784:	2300      	movs	r3, #0
 8002786:	617b      	str	r3, [r7, #20]
 8002788:	e009      	b.n	800279e <_write+0x26>
 800278a:	68bb      	ldr	r3, [r7, #8]
 800278c:	1c5a      	adds	r2, r3, #1
 800278e:	60ba      	str	r2, [r7, #8]
 8002790:	781b      	ldrb	r3, [r3, #0]
 8002792:	4618      	mov	r0, r3
 8002794:	f3af 8000 	nop.w
 8002798:	697b      	ldr	r3, [r7, #20]
 800279a:	3301      	adds	r3, #1
 800279c:	617b      	str	r3, [r7, #20]
 800279e:	697a      	ldr	r2, [r7, #20]
 80027a0:	687b      	ldr	r3, [r7, #4]
 80027a2:	429a      	cmp	r2, r3
 80027a4:	dbf1      	blt.n	800278a <_write+0x12>
 80027a6:	687b      	ldr	r3, [r7, #4]
 80027a8:	4618      	mov	r0, r3
 80027aa:	3718      	adds	r7, #24
 80027ac:	46bd      	mov	sp, r7
 80027ae:	bd80      	pop	{r7, pc}

080027b0 <_close>:
 80027b0:	b480      	push	{r7}
 80027b2:	b083      	sub	sp, #12
 80027b4:	af00      	add	r7, sp, #0
 80027b6:	6078      	str	r0, [r7, #4]
 80027b8:	f04f 33ff 	mov.w	r3, #4294967295	@ 0xffffffff
 80027bc:	4618      	mov	r0, r3
 80027be:	370c      	adds	r7, #12
 80027c0:	46bd      	mov	sp, r7
 80027c2:	f85d 7b04 	ldr.w	r7, [sp], #4
 80027c6:	4770      	bx	lr

080027c8 <_fstat>:
 80027c8:	b480      	push	{r7}
 80027ca:	b083      	sub	sp, #12
 80027cc:	af00      	add	r7, sp, #0
 80027ce:	6078      	str	r0, [r7, #4]
 80027d0:	6039      	str	r1, [r7, #0]
 80027d2:	683b      	ldr	r3, [r7, #0]
 80027d4:	f44f 5200 	mov.w	r2, #8192	@ 0x2000
 80027d8:	605a      	str	r2, [r3, #4]
 80027da:	2300      	movs	r3, #0
 80027dc:	4618      	mov	r0, r3
 80027de:	370c      	adds	r7, #12
 80027e0:	46bd      	mov	sp, r7
 80027e2:	f85d 7b04 	ldr.w	r7, [sp], #4
 80027e6:	4770      	bx	lr

080027e8 <_isatty>:
 80027e8:	b480      	push	{r7}
 80027ea:	b083      	sub	sp, #12
 80027ec:	af00      	add	r7, sp, #0
 80027ee:	6078      	str	r0, [r7, #4]
 80027f0:	2301      	movs	r3, #1
 80027f2:	4618      	mov	r0, r3
 80027f4:	370c      	adds	r7, #12
 80027f6:	46bd      	mov	sp, r7
 80027f8:	f85d 7b04 	ldr.w	r7, [sp], #4
 80027fc:	4770      	bx	lr

080027fe <_lseek>:
 80027fe:	b480      	push	{r7}
 8002800:	b085      	sub	sp, #20
 8002802:	af00      	add	r7, sp, #0
 8002804:	60f8      	str	r0, [r7, #12]
 8002806:	60b9      	str	r1, [r7, #8]
 8002808:	607a      	str	r2, [r7, #4]
 800280a:	2300      	movs	r3, #0
 800280c:	4618      	mov	r0, r3
 800280e:	3714      	adds	r7, #20
 8002810:	46bd      	mov	sp, r7
 8002812:	f85d 7b04 	ldr.w	r7, [sp], #4
 8002816:	4770      	bx	lr

08002818 <_sbrk>:
 8002818:	b580      	push	{r7, lr}
 800281a:	b086      	sub	sp, #24
 800281c:	af00      	add	r7, sp, #0
 800281e:	6078      	str	r0, [r7, #4]
 8002820:	4a14      	ldr	r2, [pc, #80]	@ (8002874 <_sbrk+0x5c>)
 8002822:	4b15      	ldr	r3, [pc, #84]	@ (8002878 <_sbrk+0x60>)
 8002824:	1ad3      	subs	r3, r2, r3
 8002826:	617b      	str	r3, [r7, #20]
 8002828:	697b      	ldr	r3, [r7, #20]
 800282a:	613b      	str	r3, [r7, #16]
 800282c:	4b13      	ldr	r3, [pc, #76]	@ (800287c <_sbrk+0x64>)
 800282e:	681b      	ldr	r3, [r3, #0]
 8002830:	2b00      	cmp	r3, #0
 8002832:	d102      	bne.n	800283a <_sbrk+0x22>
 8002834:	4b11      	ldr	r3, [pc, #68]	@ (800287c <_sbrk+0x64>)
 8002836:	4a12      	ldr	r2, [pc, #72]	@ (8002880 <_sbrk+0x68>)
 8002838:	601a      	str	r2, [r3, #0]
 800283a:	4b10      	ldr	r3, [pc, #64]	@ (800287c <_sbrk+0x64>)
 800283c:	681a      	ldr	r2, [r3, #0]
 800283e:	687b      	ldr	r3, [r7, #4]
 8002840:	4413      	add	r3, r2
 8002842:	693a      	ldr	r2, [r7, #16]
 8002844:	429a      	cmp	r2, r3
 8002846:	d207      	bcs.n	8002858 <_sbrk+0x40>
 8002848:	f003 ffbe 	bl	80067c8 <__errno>
 800284c:	4603      	mov	r3, r0
 800284e:	220c      	movs	r2, #12
 8002850:	601a      	str	r2, [r3, #0]
 8002852:	f04f 33ff 	mov.w	r3, #4294967295	@ 0xffffffff
 8002856:	e009      	b.n	800286c <_sbrk+0x54>
 8002858:	4b08      	ldr	r3, [pc, #32]	@ (800287c <_sbrk+0x64>)
 800285a:	681b      	ldr	r3, [r3, #0]
 800285c:	60fb      	str	r3, [r7, #12]
 800285e:	4b07      	ldr	r3, [pc, #28]	@ (800287c <_sbrk+0x64>)
 8002860:	681a      	ldr	r2, [r3, #0]
 8002862:	687b      	ldr	r3, [r7, #4]
 8002864:	4413      	add	r3, r2
 8002866:	4a05      	ldr	r2, [pc, #20]	@ (800287c <_sbrk+0x64>)
 8002868:	6013      	str	r3, [r2, #0]
 800286a:	68fb      	ldr	r3, [r7, #12]
 800286c:	4618      	mov	r0, r3
 800286e:	3718      	adds	r7, #24
 8002870:	46bd      	mov	sp, r7
 8002872:	bd80      	pop	{r7, pc}
 8002874:	20020000 	.word	0x20020000
 8002878:	00000400 	.word	0x00000400
 800287c:	2000037c 	.word	0x2000037c
 8002880:	200004d0 	.word	0x200004d0

08002884 <SystemInit>:
  *         configuration.
  * @param  None
  * @retval None
  */
void SystemInit(void)
{
 8002884:	b480      	push	{r7}
 8002886:	af00      	add	r7, sp, #0
  /* FPU settings ------------------------------------------------------------*/
  #if (__FPU_PRESENT == 1) && (__FPU_USED == 1)
    SCB->CPACR |= ((3UL << 10*2)|(3UL << 11*2));  /* set CP10 and CP11 Full Access */
 8002888:	4b06      	ldr	r3, [pc, #24]	@ (80028a4 <SystemInit+0x20>)
 800288a:	f8d3 3088 	ldr.w	r3, [r3, #136]	@ 0x88
 800288e:	4a05      	ldr	r2, [pc, #20]	@ (80028a4 <SystemInit+0x20>)
 8002890:	f443 0370 	orr.w	r3, r3, #15728640	@ 0xf00000
 8002894:	f8c2 3088 	str.w	r3, [r2, #136]	@ 0x88

  /* Configure the Vector Table location -------------------------------------*/
#if defined(USER_VECT_TAB_ADDRESS)
  SCB->VTOR = VECT_TAB_BASE_ADDRESS | VECT_TAB_OFFSET; /* Vector Table Relocation in Internal SRAM */
#endif /* USER_VECT_TAB_ADDRESS */
}
 8002898:	bf00      	nop
 800289a:	46bd      	mov	sp, r7
 800289c:	f85d 7b04 	ldr.w	r7, [sp], #4
 80028a0:	4770      	bx	lr
 80028a2:	bf00      	nop
 80028a4:	e000ed00 	.word	0xe000ed00

080028a8 <Reset_Handler>:
 80028a8:	f8df d034 	ldr.w	sp, [pc, #52]	@ 80028e0 <LoopFillZerobss+0xe>
 80028ac:	f7ff ffea 	bl	8002884 <SystemInit>
 80028b0:	480c      	ldr	r0, [pc, #48]	@ (80028e4 <LoopFillZerobss+0x12>)
 80028b2:	490d      	ldr	r1, [pc, #52]	@ (80028e8 <LoopFillZerobss+0x16>)
 80028b4:	4a0d      	ldr	r2, [pc, #52]	@ (80028ec <LoopFillZerobss+0x1a>)
 80028b6:	2300      	movs	r3, #0
 80028b8:	e002      	b.n	80028c0 <LoopCopyDataInit>

080028ba <CopyDataInit>:
 80028ba:	58d4      	ldr	r4, [r2, r3]
 80028bc:	50c4      	str	r4, [r0, r3]
 80028be:	3304      	adds	r3, #4

080028c0 <LoopCopyDataInit>:
 80028c0:	18c4      	adds	r4, r0, r3
 80028c2:	428c      	cmp	r4, r1
 80028c4:	d3f9      	bcc.n	80028ba <CopyDataInit>
 80028c6:	4a0a      	ldr	r2, [pc, #40]	@ (80028f0 <LoopFillZerobss+0x1e>)
 80028c8:	4c0a      	ldr	r4, [pc, #40]	@ (80028f4 <LoopFillZerobss+0x22>)
 80028ca:	2300      	movs	r3, #0
 80028cc:	e001      	b.n	80028d2 <LoopFillZerobss>

080028ce <FillZerobss>:
 80028ce:	6013      	str	r3, [r2, #0]
 80028d0:	3204      	adds	r2, #4

080028d2 <LoopFillZerobss>:
 80028d2:	42a2      	cmp	r2, r4
 80028d4:	d3fb      	bcc.n	80028ce <FillZerobss>
 80028d6:	f003 ff7d 	bl	80067d4 <__libc_init_array>
 80028da:	f7ff fb7d 	bl	8001fd8 <main>
 80028de:	4770      	bx	lr
 80028e0:	20020000 	.word	0x20020000
 80028e4:	20000000 	.word	0x20000000
 80028e8:	200001e8 	.word	0x200001e8
 80028ec:	08009dd0 	.word	0x08009dd0
 80028f0:	200001e8 	.word	0x200001e8
 80028f4:	200004d0 	.word	0x200004d0

080028f8 <ADC_IRQHandler>:
 80028f8:	e7fe      	b.n	80028f8 <ADC_IRQHandler>
	...

080028fc <HAL_Init>:
  *         need to ensure that the SysTick time base is always set to 1 millisecond
  *         to have correct HAL operation.
  * @retval HAL status
  */
HAL_StatusTypeDef HAL_Init(void)
{
 80028fc:	b580      	push	{r7, lr}
 80028fe:	af00      	add	r7, sp, #0
  /* Configure Flash prefetch, Instruction cache, Data cache */ 
#if (INSTRUCTION_CACHE_ENABLE != 0U)
  __HAL_FLASH_INSTRUCTION_CACHE_ENABLE();
 8002900:	4b0e      	ldr	r3, [pc, #56]	@ (800293c <HAL_Init+0x40>)
 8002902:	681b      	ldr	r3, [r3, #0]
 8002904:	4a0d      	ldr	r2, [pc, #52]	@ (800293c <HAL_Init+0x40>)
 8002906:	f443 7300 	orr.w	r3, r3, #512	@ 0x200
 800290a:	6013      	str	r3, [r2, #0]
#endif /* INSTRUCTION_CACHE_ENABLE */

#if (DATA_CACHE_ENABLE != 0U)
  __HAL_FLASH_DATA_CACHE_ENABLE();
 800290c:	4b0b      	ldr	r3, [pc, #44]	@ (800293c <HAL_Init+0x40>)
 800290e:	681b      	ldr	r3, [r3, #0]
 8002910:	4a0a      	ldr	r2, [pc, #40]	@ (800293c <HAL_Init+0x40>)
 8002912:	f443 6380 	orr.w	r3, r3, #1024	@ 0x400
 8002916:	6013      	str	r3, [r2, #0]
#endif /* DATA_CACHE_ENABLE */

#if (PREFETCH_ENABLE != 0U)
  __HAL_FLASH_PREFETCH_BUFFER_ENABLE();
 8002918:	4b08      	ldr	r3, [pc, #32]	@ (800293c <HAL_Init+0x40>)
 800291a:	681b      	ldr	r3, [r3, #0]
 800291c:	4a07      	ldr	r2, [pc, #28]	@ (800293c <HAL_Init+0x40>)
 800291e:	f443 7380 	orr.w	r3, r3, #256	@ 0x100
 8002922:	6013      	str	r3, [r2, #0]
#endif /* PREFETCH_ENABLE */

  /* Set Interrupt Group Priority */
  HAL_NVIC_SetPriorityGrouping(NVIC_PRIORITYGROUP_4);
 8002924:	2003      	movs	r0, #3
 8002926:	f001 fc91 	bl	800424c <HAL_NVIC_SetPriorityGrouping>

  /* Use systick as time base source and configure 1ms tick (default clock after Reset is HSI) */
  HAL_InitTick(TICK_INT_PRIORITY);
 800292a:	2000      	movs	r0, #0
 800292c:	f000 f808 	bl	8002940 <HAL_InitTick>

  /* Init the low level hardware */
  HAL_MspInit();
 8002930:	f7ff fd2e 	bl	8002390 <HAL_MspInit>

  /* Return function status */
  return HAL_OK;
 8002934:	2300      	movs	r3, #0
}
 8002936:	4618      	mov	r0, r3
 8002938:	bd80      	pop	{r7, pc}
 800293a:	bf00      	nop
 800293c:	40023c00 	.word	0x40023c00

08002940 <HAL_InitTick>:
  *       implementation  in user file.
  * @param TickPriority Tick interrupt priority.
  * @retval HAL status
  */
__weak HAL_StatusTypeDef HAL_InitTick(uint32_t TickPriority)
{
 8002940:	b580      	push	{r7, lr}
 8002942:	b082      	sub	sp, #8
 8002944:	af00      	add	r7, sp, #0
 8002946:	6078      	str	r0, [r7, #4]
  /* Configure the SysTick to have interrupt in 1ms time basis*/
  if (HAL_SYSTICK_Config(SystemCoreClock / (1000U / uwTickFreq)) > 0U)
 8002948:	4b12      	ldr	r3, [pc, #72]	@ (8002994 <HAL_InitTick+0x54>)
 800294a:	681a      	ldr	r2, [r3, #0]
 800294c:	4b12      	ldr	r3, [pc, #72]	@ (8002998 <HAL_InitTick+0x58>)
 800294e:	781b      	ldrb	r3, [r3, #0]
 8002950:	4619      	mov	r1, r3
 8002952:	f44f 737a 	mov.w	r3, #1000	@ 0x3e8
 8002956:	fbb3 f3f1 	udiv	r3, r3, r1
 800295a:	fbb2 f3f3 	udiv	r3, r2, r3
 800295e:	4618      	mov	r0, r3
 8002960:	f001 fca9 	bl	80042b6 <HAL_SYSTICK_Config>
 8002964:	4603      	mov	r3, r0
 8002966:	2b00      	cmp	r3, #0
 8002968:	d001      	beq.n	800296e <HAL_InitTick+0x2e>
  {
    return HAL_ERROR;
 800296a:	2301      	movs	r3, #1
 800296c:	e00e      	b.n	800298c <HAL_InitTick+0x4c>
  }

  /* Configure the SysTick IRQ priority */
  if (TickPriority < (1UL << __NVIC_PRIO_BITS))
 800296e:	687b      	ldr	r3, [r7, #4]
 8002970:	2b0f      	cmp	r3, #15
 8002972:	d80a      	bhi.n	800298a <HAL_InitTick+0x4a>
  {
    HAL_NVIC_SetPriority(SysTick_IRQn, TickPriority, 0U);
 8002974:	2200      	movs	r2, #0
 8002976:	6879      	ldr	r1, [r7, #4]
 8002978:	f04f 30ff 	mov.w	r0, #4294967295	@ 0xffffffff
 800297c:	f001 fc71 	bl	8004262 <HAL_NVIC_SetPriority>
    uwTickPrio = TickPriority;
 8002980:	4a06      	ldr	r2, [pc, #24]	@ (800299c <HAL_InitTick+0x5c>)
 8002982:	687b      	ldr	r3, [r7, #4]
 8002984:	6013      	str	r3, [r2, #0]
  {
    return HAL_ERROR;
  }

  /* Return function status */
  return HAL_OK;
 8002986:	2300      	movs	r3, #0
 8002988:	e000      	b.n	800298c <HAL_InitTick+0x4c>
    return HAL_ERROR;
 800298a:	2301      	movs	r3, #1
}
 800298c:	4618      	mov	r0, r3
 800298e:	3708      	adds	r7, #8
 8002990:	46bd      	mov	sp, r7
 8002992:	bd80      	pop	{r7, pc}
 8002994:	20000000 	.word	0x20000000
 8002998:	20000008 	.word	0x20000008
 800299c:	20000004 	.word	0x20000004

080029a0 <HAL_IncTick>:
 * @note This function is declared as __weak to be overwritten in case of other 
  *      implementations in user file.
  * @retval None
  */
__weak void HAL_IncTick(void)
{
 80029a0:	b480      	push	{r7}
 80029a2:	af00      	add	r7, sp, #0
  uwTick += uwTickFreq;
 80029a4:	4b06      	ldr	r3, [pc, #24]	@ (80029c0 <HAL_IncTick+0x20>)
 80029a6:	781b      	ldrb	r3, [r3, #0]
 80029a8:	461a      	mov	r2, r3
 80029aa:	4b06      	ldr	r3, [pc, #24]	@ (80029c4 <HAL_IncTick+0x24>)
 80029ac:	681b      	ldr	r3, [r3, #0]
 80029ae:	4413      	add	r3, r2
 80029b0:	4a04      	ldr	r2, [pc, #16]	@ (80029c4 <HAL_IncTick+0x24>)
 80029b2:	6013      	str	r3, [r2, #0]
}
 80029b4:	bf00      	nop
 80029b6:	46bd      	mov	sp, r7
 80029b8:	f85d 7b04 	ldr.w	r7, [sp], #4
 80029bc:	4770      	bx	lr
 80029be:	bf00      	nop
 80029c0:	20000008 	.word	0x20000008
 80029c4:	20000380 	.word	0x20000380

080029c8 <HAL_GetTick>:
  * @note This function is declared as __weak to be overwritten in case of other 
  *       implementations in user file.
  * @retval tick value
  */
__weak uint32_t HAL_GetTick(void)
{
 80029c8:	b480      	push	{r7}
 80029ca:	af00      	add	r7, sp, #0
  return uwTick;
 80029cc:	4b03      	ldr	r3, [pc, #12]	@ (80029dc <HAL_GetTick+0x14>)
 80029ce:	681b      	ldr	r3, [r3, #0]
}
 80029d0:	4618      	mov	r0, r3
 80029d2:	46bd      	mov	sp, r7
 80029d4:	f85d 7b04 	ldr.w	r7, [sp], #4
 80029d8:	4770      	bx	lr
 80029da:	bf00      	nop
 80029dc:	20000380 	.word	0x20000380

080029e0 <HAL_Delay>:
  *       implementations in user file.
  * @param Delay specifies the delay time length, in milliseconds.
  * @retval None
  */
__weak void HAL_Delay(uint32_t Delay)
{
 80029e0:	b580      	push	{r7, lr}
 80029e2:	b084      	sub	sp, #16
 80029e4:	af00      	add	r7, sp, #0
 80029e6:	6078      	str	r0, [r7, #4]
  uint32_t tickstart = HAL_GetTick();
 80029e8:	f7ff ffee 	bl	80029c8 <HAL_GetTick>
 80029ec:	60b8      	str	r0, [r7, #8]
  uint32_t wait = Delay;
 80029ee:	687b      	ldr	r3, [r7, #4]
 80029f0:	60fb      	str	r3, [r7, #12]

  /* Add a freq to guarantee minimum wait */
  if (wait < HAL_MAX_DELAY)
 80029f2:	68fb      	ldr	r3, [r7, #12]
 80029f4:	f1b3 3fff 	cmp.w	r3, #4294967295	@ 0xffffffff
 80029f8:	d005      	beq.n	8002a06 <HAL_Delay+0x26>
  {
    wait += (uint32_t)(uwTickFreq);
 80029fa:	4b0a      	ldr	r3, [pc, #40]	@ (8002a24 <HAL_Delay+0x44>)
 80029fc:	781b      	ldrb	r3, [r3, #0]
 80029fe:	461a      	mov	r2, r3
 8002a00:	68fb      	ldr	r3, [r7, #12]
 8002a02:	4413      	add	r3, r2
 8002a04:	60fb      	str	r3, [r7, #12]
  }

  while((HAL_GetTick() - tickstart) < wait)
 8002a06:	bf00      	nop
 8002a08:	f7ff ffde 	bl	80029c8 <HAL_GetTick>
 8002a0c:	4602      	mov	r2, r0
 8002a0e:	68bb      	ldr	r3, [r7, #8]
 8002a10:	1ad3      	subs	r3, r2, r3
 8002a12:	68fa      	ldr	r2, [r7, #12]
 8002a14:	429a      	cmp	r2, r3
 8002a16:	d8f7      	bhi.n	8002a08 <HAL_Delay+0x28>
  {
  }
}
 8002a18:	bf00      	nop
 8002a1a:	bf00      	nop
 8002a1c:	3710      	adds	r7, #16
 8002a1e:	46bd      	mov	sp, r7
 8002a20:	bd80      	pop	{r7, pc}
 8002a22:	bf00      	nop
 8002a24:	20000008 	.word	0x20000008

08002a28 <HAL_ADC_Init>:
  * @param  hadc pointer to a ADC_HandleTypeDef structure that contains
  *         the configuration information for the specified ADC.
  * @retval HAL status
  */
HAL_StatusTypeDef HAL_ADC_Init(ADC_HandleTypeDef *hadc)
{
 8002a28:	b580      	push	{r7, lr}
 8002a2a:	b084      	sub	sp, #16
 8002a2c:	af00      	add	r7, sp, #0
 8002a2e:	6078      	str	r0, [r7, #4]
  HAL_StatusTypeDef tmp_hal_status = HAL_OK;
 8002a30:	2300      	movs	r3, #0
 8002a32:	73fb      	strb	r3, [r7, #15]

  /* Check ADC handle */
  if (hadc == NULL)
 8002a34:	687b      	ldr	r3, [r7, #4]
 8002a36:	2b00      	cmp	r3, #0
 8002a38:	d101      	bne.n	8002a3e <HAL_ADC_Init+0x16>
  {
    return HAL_ERROR;
 8002a3a:	2301      	movs	r3, #1
 8002a3c:	e033      	b.n	8002aa6 <HAL_ADC_Init+0x7e>
  if (hadc->Init.ExternalTrigConv != ADC_SOFTWARE_START)
  {
    assert_param(IS_ADC_EXT_TRIG_EDGE(hadc->Init.ExternalTrigConvEdge));
  }

  if (hadc->State == HAL_ADC_STATE_RESET)
 8002a3e:	687b      	ldr	r3, [r7, #4]
 8002a40:	6c1b      	ldr	r3, [r3, #64]	@ 0x40
 8002a42:	2b00      	cmp	r3, #0
 8002a44:	d109      	bne.n	8002a5a <HAL_ADC_Init+0x32>

    /* Init the low level hardware */
    hadc->MspInitCallback(hadc);
#else
    /* Init the low level hardware */
    HAL_ADC_MspInit(hadc);
 8002a46:	6878      	ldr	r0, [r7, #4]
 8002a48:	f7ff fcca 	bl	80023e0 <HAL_ADC_MspInit>
#endif /* USE_HAL_ADC_REGISTER_CALLBACKS */

    /* Initialize ADC error code */
    ADC_CLEAR_ERRORCODE(hadc);
 8002a4c:	687b      	ldr	r3, [r7, #4]
 8002a4e:	2200      	movs	r2, #0
 8002a50:	645a      	str	r2, [r3, #68]	@ 0x44

    /* Allocate lock resource and initialize it */
    hadc->Lock = HAL_UNLOCKED;
 8002a52:	687b      	ldr	r3, [r7, #4]
 8002a54:	2200      	movs	r2, #0
 8002a56:	f883 203c 	strb.w	r2, [r3, #60]	@ 0x3c
  }

  /* Configuration of ADC parameters if previous preliminary actions are      */
  /* correctly completed.                                                     */
  if (HAL_IS_BIT_CLR(hadc->State, HAL_ADC_STATE_ERROR_INTERNAL))
 8002a5a:	687b      	ldr	r3, [r7, #4]
 8002a5c:	6c1b      	ldr	r3, [r3, #64]	@ 0x40
 8002a5e:	f003 0310 	and.w	r3, r3, #16
 8002a62:	2b00      	cmp	r3, #0
 8002a64:	d118      	bne.n	8002a98 <HAL_ADC_Init+0x70>
  {
    /* Set ADC state */
    ADC_STATE_CLR_SET(hadc->State,
 8002a66:	687b      	ldr	r3, [r7, #4]
 8002a68:	6c1b      	ldr	r3, [r3, #64]	@ 0x40
 8002a6a:	f423 5388 	bic.w	r3, r3, #4352	@ 0x1100
 8002a6e:	f023 0302 	bic.w	r3, r3, #2
 8002a72:	f043 0202 	orr.w	r2, r3, #2
 8002a76:	687b      	ldr	r3, [r7, #4]
 8002a78:	641a      	str	r2, [r3, #64]	@ 0x40
                      HAL_ADC_STATE_REG_BUSY | HAL_ADC_STATE_INJ_BUSY,
                      HAL_ADC_STATE_BUSY_INTERNAL);

    /* Set ADC parameters */
    ADC_Init(hadc);
 8002a7a:	6878      	ldr	r0, [r7, #4]
 8002a7c:	f000 fab4 	bl	8002fe8 <ADC_Init>

    /* Set ADC error code to none */
    ADC_CLEAR_ERRORCODE(hadc);
 8002a80:	687b      	ldr	r3, [r7, #4]
 8002a82:	2200      	movs	r2, #0
 8002a84:	645a      	str	r2, [r3, #68]	@ 0x44

    /* Set the ADC state */
    ADC_STATE_CLR_SET(hadc->State,
 8002a86:	687b      	ldr	r3, [r7, #4]
 8002a88:	6c1b      	ldr	r3, [r3, #64]	@ 0x40
 8002a8a:	f023 0303 	bic.w	r3, r3, #3
 8002a8e:	f043 0201 	orr.w	r2, r3, #1
 8002a92:	687b      	ldr	r3, [r7, #4]
 8002a94:	641a      	str	r2, [r3, #64]	@ 0x40
 8002a96:	e001      	b.n	8002a9c <HAL_ADC_Init+0x74>
                      HAL_ADC_STATE_BUSY_INTERNAL,
                      HAL_ADC_STATE_READY);
  }
  else
  {
    tmp_hal_status = HAL_ERROR;
 8002a98:	2301      	movs	r3, #1
 8002a9a:	73fb      	strb	r3, [r7, #15]
  }

  /* Release Lock */
  __HAL_UNLOCK(hadc);
 8002a9c:	687b      	ldr	r3, [r7, #4]
 8002a9e:	2200      	movs	r2, #0
 8002aa0:	f883 203c 	strb.w	r2, [r3, #60]	@ 0x3c

  /* Return function status */
  return tmp_hal_status;
 8002aa4:	7bfb      	ldrb	r3, [r7, #15]
}
 8002aa6:	4618      	mov	r0, r3
 8002aa8:	3710      	adds	r7, #16
 8002aaa:	46bd      	mov	sp, r7
 8002aac:	bd80      	pop	{r7, pc}
	...

08002ab0 <HAL_ADC_Start>:
  * @param  hadc pointer to a ADC_HandleTypeDef structure that contains
  *         the configuration information for the specified ADC.
  * @retval HAL status
  */
HAL_StatusTypeDef HAL_ADC_Start(ADC_HandleTypeDef *hadc)
{
 8002ab0:	b480      	push	{r7}
 8002ab2:	b085      	sub	sp, #20
 8002ab4:	af00      	add	r7, sp, #0
 8002ab6:	6078      	str	r0, [r7, #4]
  __IO uint32_t counter = 0U;
 8002ab8:	2300      	movs	r3, #0
 8002aba:	60bb      	str	r3, [r7, #8]
  /* Check the parameters */
  assert_param(IS_FUNCTIONAL_STATE(hadc->Init.ContinuousConvMode));
  assert_param(IS_ADC_EXT_TRIG_EDGE(hadc->Init.ExternalTrigConvEdge));

  /* Process locked */
  __HAL_LOCK(hadc);
 8002abc:	687b      	ldr	r3, [r7, #4]
 8002abe:	f893 303c 	ldrb.w	r3, [r3, #60]	@ 0x3c
 8002ac2:	2b01      	cmp	r3, #1
 8002ac4:	d101      	bne.n	8002aca <HAL_ADC_Start+0x1a>
 8002ac6:	2302      	movs	r3, #2
 8002ac8:	e0b2      	b.n	8002c30 <HAL_ADC_Start+0x180>
 8002aca:	687b      	ldr	r3, [r7, #4]
 8002acc:	2201      	movs	r2, #1
 8002ace:	f883 203c 	strb.w	r2, [r3, #60]	@ 0x3c

  /* Enable the ADC peripheral */
  /* Check if ADC peripheral is disabled in order to enable it and wait during
  Tstab time the ADC's stabilization */
  if ((hadc->Instance->CR2 & ADC_CR2_ADON) != ADC_CR2_ADON)
 8002ad2:	687b      	ldr	r3, [r7, #4]
 8002ad4:	681b      	ldr	r3, [r3, #0]
 8002ad6:	689b      	ldr	r3, [r3, #8]
 8002ad8:	f003 0301 	and.w	r3, r3, #1
 8002adc:	2b01      	cmp	r3, #1
 8002ade:	d018      	beq.n	8002b12 <HAL_ADC_Start+0x62>
  {
    /* Enable the Peripheral */
    __HAL_ADC_ENABLE(hadc);
 8002ae0:	687b      	ldr	r3, [r7, #4]
 8002ae2:	681b      	ldr	r3, [r3, #0]
 8002ae4:	689a      	ldr	r2, [r3, #8]
 8002ae6:	687b      	ldr	r3, [r7, #4]
 8002ae8:	681b      	ldr	r3, [r3, #0]
 8002aea:	f042 0201 	orr.w	r2, r2, #1
 8002aee:	609a      	str	r2, [r3, #8]

    /* Delay for ADC stabilization time */
    /* Compute number of CPU cycles to wait for */
    counter = (ADC_STAB_DELAY_US * (SystemCoreClock / 1000000U));
 8002af0:	4b52      	ldr	r3, [pc, #328]	@ (8002c3c <HAL_ADC_Start+0x18c>)
 8002af2:	681b      	ldr	r3, [r3, #0]
 8002af4:	4a52      	ldr	r2, [pc, #328]	@ (8002c40 <HAL_ADC_Start+0x190>)
 8002af6:	fba2 2303 	umull	r2, r3, r2, r3
 8002afa:	0c9a      	lsrs	r2, r3, #18
 8002afc:	4613      	mov	r3, r2
 8002afe:	005b      	lsls	r3, r3, #1
 8002b00:	4413      	add	r3, r2
 8002b02:	60bb      	str	r3, [r7, #8]
    while (counter != 0U)
 8002b04:	e002      	b.n	8002b0c <HAL_ADC_Start+0x5c>
    {
      counter--;
 8002b06:	68bb      	ldr	r3, [r7, #8]
 8002b08:	3b01      	subs	r3, #1
 8002b0a:	60bb      	str	r3, [r7, #8]
    while (counter != 0U)
 8002b0c:	68bb      	ldr	r3, [r7, #8]
 8002b0e:	2b00      	cmp	r3, #0
 8002b10:	d1f9      	bne.n	8002b06 <HAL_ADC_Start+0x56>
    }
  }

  /* Start conversion if ADC is effectively enabled */
  if (HAL_IS_BIT_SET(hadc->Instance->CR2, ADC_CR2_ADON))
 8002b12:	687b      	ldr	r3, [r7, #4]
 8002b14:	681b      	ldr	r3, [r3, #0]
 8002b16:	689b      	ldr	r3, [r3, #8]
 8002b18:	f003 0301 	and.w	r3, r3, #1
 8002b1c:	2b01      	cmp	r3, #1
 8002b1e:	d17a      	bne.n	8002c16 <HAL_ADC_Start+0x166>
  {
    /* Set ADC state                                                          */
    /* - Clear state bitfield related to regular group conversion results     */
    /* - Set state bitfield related to regular group operation                */
    ADC_STATE_CLR_SET(hadc->State,
 8002b20:	687b      	ldr	r3, [r7, #4]
 8002b22:	6c1b      	ldr	r3, [r3, #64]	@ 0x40
 8002b24:	f423 63e0 	bic.w	r3, r3, #1792	@ 0x700
 8002b28:	f023 0301 	bic.w	r3, r3, #1
 8002b2c:	f443 7280 	orr.w	r2, r3, #256	@ 0x100
 8002b30:	687b      	ldr	r3, [r7, #4]
 8002b32:	641a      	str	r2, [r3, #64]	@ 0x40
                      HAL_ADC_STATE_READY | HAL_ADC_STATE_REG_EOC | HAL_ADC_STATE_REG_OVR,
                      HAL_ADC_STATE_REG_BUSY);

    /* If conversions on group regular are also triggering group injected,    */
    /* update ADC state.                                                      */
    if (READ_BIT(hadc->Instance->CR1, ADC_CR1_JAUTO) != RESET)
 8002b34:	687b      	ldr	r3, [r7, #4]
 8002b36:	681b      	ldr	r3, [r3, #0]
 8002b38:	685b      	ldr	r3, [r3, #4]
 8002b3a:	f403 6380 	and.w	r3, r3, #1024	@ 0x400
 8002b3e:	2b00      	cmp	r3, #0
 8002b40:	d007      	beq.n	8002b52 <HAL_ADC_Start+0xa2>
    {
      ADC_STATE_CLR_SET(hadc->State, HAL_ADC_STATE_INJ_EOC, HAL_ADC_STATE_INJ_BUSY);
 8002b42:	687b      	ldr	r3, [r7, #4]
 8002b44:	6c1b      	ldr	r3, [r3, #64]	@ 0x40
 8002b46:	f423 5340 	bic.w	r3, r3, #12288	@ 0x3000
 8002b4a:	f443 5280 	orr.w	r2, r3, #4096	@ 0x1000
 8002b4e:	687b      	ldr	r3, [r7, #4]
 8002b50:	641a      	str	r2, [r3, #64]	@ 0x40
    }

    /* State machine update: Check if an injected conversion is ongoing */
    if (HAL_IS_BIT_SET(hadc->State, HAL_ADC_STATE_INJ_BUSY))
 8002b52:	687b      	ldr	r3, [r7, #4]
 8002b54:	6c1b      	ldr	r3, [r3, #64]	@ 0x40
 8002b56:	f403 5380 	and.w	r3, r3, #4096	@ 0x1000
 8002b5a:	f5b3 5f80 	cmp.w	r3, #4096	@ 0x1000
 8002b5e:	d106      	bne.n	8002b6e <HAL_ADC_Start+0xbe>
    {
      /* Reset ADC error code fields related to conversions on group regular */
      CLEAR_BIT(hadc->ErrorCode, (HAL_ADC_ERROR_OVR | HAL_ADC_ERROR_DMA));
 8002b60:	687b      	ldr	r3, [r7, #4]
 8002b62:	6c5b      	ldr	r3, [r3, #68]	@ 0x44
 8002b64:	f023 0206 	bic.w	r2, r3, #6
 8002b68:	687b      	ldr	r3, [r7, #4]
 8002b6a:	645a      	str	r2, [r3, #68]	@ 0x44
 8002b6c:	e002      	b.n	8002b74 <HAL_ADC_Start+0xc4>
    }
    else
    {
      /* Reset ADC all error code fields */
      ADC_CLEAR_ERRORCODE(hadc);
 8002b6e:	687b      	ldr	r3, [r7, #4]
 8002b70:	2200      	movs	r2, #0
 8002b72:	645a      	str	r2, [r3, #68]	@ 0x44
    }

    /* Process unlocked */
    /* Unlock before starting ADC conversions: in case of potential           */
    /* interruption, to let the process to ADC IRQ Handler.                   */
    __HAL_UNLOCK(hadc);
 8002b74:	687b      	ldr	r3, [r7, #4]
 8002b76:	2200      	movs	r2, #0
 8002b78:	f883 203c 	strb.w	r2, [r3, #60]	@ 0x3c

    /* Pointer to the common control register to which is belonging hadc    */
    /* (Depending on STM32F4 product, there may be up to 3 ADCs and 1 common */
    /* control register)                                                    */
    tmpADC_Common = ADC_COMMON_REGISTER(hadc);
 8002b7c:	4b31      	ldr	r3, [pc, #196]	@ (8002c44 <HAL_ADC_Start+0x194>)
 8002b7e:	60fb      	str	r3, [r7, #12]

    /* Clear regular group conversion flag and overrun flag */
    /* (To ensure of no unknown state from potential previous ADC operations) */
    __HAL_ADC_CLEAR_FLAG(hadc, ADC_FLAG_EOC | ADC_FLAG_OVR);
 8002b80:	687b      	ldr	r3, [r7, #4]
 8002b82:	681b      	ldr	r3, [r3, #0]
 8002b84:	f06f 0222 	mvn.w	r2, #34	@ 0x22
 8002b88:	601a      	str	r2, [r3, #0]

    /* Check if Multimode enabled */
    if (HAL_IS_BIT_CLR(tmpADC_Common->CCR, ADC_CCR_MULTI))
 8002b8a:	68fb      	ldr	r3, [r7, #12]
 8002b8c:	685b      	ldr	r3, [r3, #4]
 8002b8e:	f003 031f 	and.w	r3, r3, #31
 8002b92:	2b00      	cmp	r3, #0
 8002b94:	d12a      	bne.n	8002bec <HAL_ADC_Start+0x13c>
    {
#if defined(ADC2) && defined(ADC3)
      if ((hadc->Instance == ADC1) || ((hadc->Instance == ADC2) && ((ADC->CCR & ADC_CCR_MULTI_Msk) < ADC_CCR_MULTI_0)) \
 8002b96:	687b      	ldr	r3, [r7, #4]
 8002b98:	681b      	ldr	r3, [r3, #0]
 8002b9a:	4a2b      	ldr	r2, [pc, #172]	@ (8002c48 <HAL_ADC_Start+0x198>)
 8002b9c:	4293      	cmp	r3, r2
 8002b9e:	d015      	beq.n	8002bcc <HAL_ADC_Start+0x11c>
 8002ba0:	687b      	ldr	r3, [r7, #4]
 8002ba2:	681b      	ldr	r3, [r3, #0]
 8002ba4:	4a29      	ldr	r2, [pc, #164]	@ (8002c4c <HAL_ADC_Start+0x19c>)
 8002ba6:	4293      	cmp	r3, r2
 8002ba8:	d105      	bne.n	8002bb6 <HAL_ADC_Start+0x106>
 8002baa:	4b26      	ldr	r3, [pc, #152]	@ (8002c44 <HAL_ADC_Start+0x194>)
 8002bac:	685b      	ldr	r3, [r3, #4]
 8002bae:	f003 031f 	and.w	r3, r3, #31
 8002bb2:	2b00      	cmp	r3, #0
 8002bb4:	d00a      	beq.n	8002bcc <HAL_ADC_Start+0x11c>
          || ((hadc->Instance == ADC3) && ((ADC->CCR & ADC_CCR_MULTI_Msk) < ADC_CCR_MULTI_4)))
 8002bb6:	687b      	ldr	r3, [r7, #4]
 8002bb8:	681b      	ldr	r3, [r3, #0]
 8002bba:	4a25      	ldr	r2, [pc, #148]	@ (8002c50 <HAL_ADC_Start+0x1a0>)
 8002bbc:	4293      	cmp	r3, r2
 8002bbe:	d136      	bne.n	8002c2e <HAL_ADC_Start+0x17e>
 8002bc0:	4b20      	ldr	r3, [pc, #128]	@ (8002c44 <HAL_ADC_Start+0x194>)
 8002bc2:	685b      	ldr	r3, [r3, #4]
 8002bc4:	f003 0310 	and.w	r3, r3, #16
 8002bc8:	2b00      	cmp	r3, #0
 8002bca:	d130      	bne.n	8002c2e <HAL_ADC_Start+0x17e>
      {
#endif /* ADC2 || ADC3 */
        /* if no external trigger present enable software conversion of regular channels */
        if ((hadc->Instance->CR2 & ADC_CR2_EXTEN) == RESET)
 8002bcc:	687b      	ldr	r3, [r7, #4]
 8002bce:	681b      	ldr	r3, [r3, #0]
 8002bd0:	689b      	ldr	r3, [r3, #8]
 8002bd2:	f003 5340 	and.w	r3, r3, #805306368	@ 0x30000000
 8002bd6:	2b00      	cmp	r3, #0
 8002bd8:	d129      	bne.n	8002c2e <HAL_ADC_Start+0x17e>
        {
          /* Enable the selected ADC software conversion for regular group */
          hadc->Instance->CR2 |= (uint32_t)ADC_CR2_SWSTART;
 8002bda:	687b      	ldr	r3, [r7, #4]
 8002bdc:	681b      	ldr	r3, [r3, #0]
 8002bde:	689a      	ldr	r2, [r3, #8]
 8002be0:	687b      	ldr	r3, [r7, #4]
 8002be2:	681b      	ldr	r3, [r3, #0]
 8002be4:	f042 4280 	orr.w	r2, r2, #1073741824	@ 0x40000000
 8002be8:	609a      	str	r2, [r3, #8]
 8002bea:	e020      	b.n	8002c2e <HAL_ADC_Start+0x17e>
#endif /* ADC2 || ADC3 */
    }
    else
    {
      /* if instance of handle correspond to ADC1 and  no external trigger present enable software conversion of regular channels */
      if ((hadc->Instance == ADC1) && ((hadc->Instance->CR2 & ADC_CR2_EXTEN) == RESET))
 8002bec:	687b      	ldr	r3, [r7, #4]
 8002bee:	681b      	ldr	r3, [r3, #0]
 8002bf0:	4a15      	ldr	r2, [pc, #84]	@ (8002c48 <HAL_ADC_Start+0x198>)
 8002bf2:	4293      	cmp	r3, r2
 8002bf4:	d11b      	bne.n	8002c2e <HAL_ADC_Start+0x17e>
 8002bf6:	687b      	ldr	r3, [r7, #4]
 8002bf8:	681b      	ldr	r3, [r3, #0]
 8002bfa:	689b      	ldr	r3, [r3, #8]
 8002bfc:	f003 5340 	and.w	r3, r3, #805306368	@ 0x30000000
 8002c00:	2b00      	cmp	r3, #0
 8002c02:	d114      	bne.n	8002c2e <HAL_ADC_Start+0x17e>
      {
        /* Enable the selected ADC software conversion for regular group */
        hadc->Instance->CR2 |= (uint32_t)ADC_CR2_SWSTART;
 8002c04:	687b      	ldr	r3, [r7, #4]
 8002c06:	681b      	ldr	r3, [r3, #0]
 8002c08:	689a      	ldr	r2, [r3, #8]
 8002c0a:	687b      	ldr	r3, [r7, #4]
 8002c0c:	681b      	ldr	r3, [r3, #0]
 8002c0e:	f042 4280 	orr.w	r2, r2, #1073741824	@ 0x40000000
 8002c12:	609a      	str	r2, [r3, #8]
 8002c14:	e00b      	b.n	8002c2e <HAL_ADC_Start+0x17e>
    }
  }
  else
  {
    /* Update ADC state machine to error */
    SET_BIT(hadc->State, HAL_ADC_STATE_ERROR_INTERNAL);
 8002c16:	687b      	ldr	r3, [r7, #4]
 8002c18:	6c1b      	ldr	r3, [r3, #64]	@ 0x40
 8002c1a:	f043 0210 	orr.w	r2, r3, #16
 8002c1e:	687b      	ldr	r3, [r7, #4]
 8002c20:	641a      	str	r2, [r3, #64]	@ 0x40

    /* Set ADC error code to ADC IP internal error */
    SET_BIT(hadc->ErrorCode, HAL_ADC_ERROR_INTERNAL);
 8002c22:	687b      	ldr	r3, [r7, #4]
 8002c24:	6c5b      	ldr	r3, [r3, #68]	@ 0x44
 8002c26:	f043 0201 	orr.w	r2, r3, #1
 8002c2a:	687b      	ldr	r3, [r7, #4]
 8002c2c:	645a      	str	r2, [r3, #68]	@ 0x44
  }

  /* Return function status */
  return HAL_OK;
 8002c2e:	2300      	movs	r3, #0
}
 8002c30:	4618      	mov	r0, r3
 8002c32:	3714      	adds	r7, #20
 8002c34:	46bd      	mov	sp, r7
 8002c36:	f85d 7b04 	ldr.w	r7, [sp], #4
 8002c3a:	4770      	bx	lr
 8002c3c:	20000000 	.word	0x20000000
 8002c40:	431bde83 	.word	0x431bde83
 8002c44:	40012300 	.word	0x40012300
 8002c48:	40012000 	.word	0x40012000
 8002c4c:	40012100 	.word	0x40012100
 8002c50:	40012200 	.word	0x40012200

08002c54 <HAL_ADC_PollForConversion>:
  *         the configuration information for the specified ADC.
  * @param  Timeout Timeout value in millisecond.
  * @retval HAL status
  */
HAL_StatusTypeDef HAL_ADC_PollForConversion(ADC_HandleTypeDef *hadc, uint32_t Timeout)
{
 8002c54:	b580      	push	{r7, lr}
 8002c56:	b084      	sub	sp, #16
 8002c58:	af00      	add	r7, sp, #0
 8002c5a:	6078      	str	r0, [r7, #4]
 8002c5c:	6039      	str	r1, [r7, #0]
  uint32_t tickstart = 0U;
 8002c5e:	2300      	movs	r3, #0
 8002c60:	60fb      	str	r3, [r7, #12]
  /* each conversion:                                                       */
  /* Particular case is ADC configured in DMA mode and ADC sequencer with   */
  /* several ranks and polling for end of each conversion.                  */
  /* For code simplicity sake, this particular case is generalized to       */
  /* ADC configured in DMA mode and polling for end of each conversion.     */
  if (HAL_IS_BIT_SET(hadc->Instance->CR2, ADC_CR2_EOCS) &&
 8002c62:	687b      	ldr	r3, [r7, #4]
 8002c64:	681b      	ldr	r3, [r3, #0]
 8002c66:	689b      	ldr	r3, [r3, #8]
 8002c68:	f403 6380 	and.w	r3, r3, #1024	@ 0x400
 8002c6c:	f5b3 6f80 	cmp.w	r3, #1024	@ 0x400
 8002c70:	d113      	bne.n	8002c9a <HAL_ADC_PollForConversion+0x46>
      HAL_IS_BIT_SET(hadc->Instance->CR2, ADC_CR2_DMA))
 8002c72:	687b      	ldr	r3, [r7, #4]
 8002c74:	681b      	ldr	r3, [r3, #0]
 8002c76:	689b      	ldr	r3, [r3, #8]
 8002c78:	f403 7380 	and.w	r3, r3, #256	@ 0x100
  if (HAL_IS_BIT_SET(hadc->Instance->CR2, ADC_CR2_EOCS) &&
 8002c7c:	f5b3 7f80 	cmp.w	r3, #256	@ 0x100
 8002c80:	d10b      	bne.n	8002c9a <HAL_ADC_PollForConversion+0x46>
  {
    /* Update ADC state machine to error */
    SET_BIT(hadc->State, HAL_ADC_STATE_ERROR_CONFIG);
 8002c82:	687b      	ldr	r3, [r7, #4]
 8002c84:	6c1b      	ldr	r3, [r3, #64]	@ 0x40
 8002c86:	f043 0220 	orr.w	r2, r3, #32
 8002c8a:	687b      	ldr	r3, [r7, #4]
 8002c8c:	641a      	str	r2, [r3, #64]	@ 0x40

    /* Process unlocked */
    __HAL_UNLOCK(hadc);
 8002c8e:	687b      	ldr	r3, [r7, #4]
 8002c90:	2200      	movs	r2, #0
 8002c92:	f883 203c 	strb.w	r2, [r3, #60]	@ 0x3c

    return HAL_ERROR;
 8002c96:	2301      	movs	r3, #1
 8002c98:	e063      	b.n	8002d62 <HAL_ADC_PollForConversion+0x10e>
  }

  /* Get tick */
  tickstart = HAL_GetTick();
 8002c9a:	f7ff fe95 	bl	80029c8 <HAL_GetTick>
 8002c9e:	60f8      	str	r0, [r7, #12]

  /* Check End of conversion flag */
  while (!(__HAL_ADC_GET_FLAG(hadc, ADC_FLAG_EOC)))
 8002ca0:	e021      	b.n	8002ce6 <HAL_ADC_PollForConversion+0x92>
  {
    /* Check if timeout is disabled (set to infinite wait) */
    if (Timeout != HAL_MAX_DELAY)
 8002ca2:	683b      	ldr	r3, [r7, #0]
 8002ca4:	f1b3 3fff 	cmp.w	r3, #4294967295	@ 0xffffffff
 8002ca8:	d01d      	beq.n	8002ce6 <HAL_ADC_PollForConversion+0x92>
    {
      if ((Timeout == 0U) || ((HAL_GetTick() - tickstart) > Timeout))
 8002caa:	683b      	ldr	r3, [r7, #0]
 8002cac:	2b00      	cmp	r3, #0
 8002cae:	d007      	beq.n	8002cc0 <HAL_ADC_PollForConversion+0x6c>
 8002cb0:	f7ff fe8a 	bl	80029c8 <HAL_GetTick>
 8002cb4:	4602      	mov	r2, r0
 8002cb6:	68fb      	ldr	r3, [r7, #12]
 8002cb8:	1ad3      	subs	r3, r2, r3
 8002cba:	683a      	ldr	r2, [r7, #0]
 8002cbc:	429a      	cmp	r2, r3
 8002cbe:	d212      	bcs.n	8002ce6 <HAL_ADC_PollForConversion+0x92>
      {
        /* New check to avoid false timeout detection in case of preemption */
        if (!(__HAL_ADC_GET_FLAG(hadc, ADC_FLAG_EOC)))
 8002cc0:	687b      	ldr	r3, [r7, #4]
 8002cc2:	681b      	ldr	r3, [r3, #0]
 8002cc4:	681b      	ldr	r3, [r3, #0]
 8002cc6:	f003 0302 	and.w	r3, r3, #2
 8002cca:	2b02      	cmp	r3, #2
 8002ccc:	d00b      	beq.n	8002ce6 <HAL_ADC_PollForConversion+0x92>
        {
          /* Update ADC state machine to timeout */
          SET_BIT(hadc->State, HAL_ADC_STATE_TIMEOUT);
 8002cce:	687b      	ldr	r3, [r7, #4]
 8002cd0:	6c1b      	ldr	r3, [r3, #64]	@ 0x40
 8002cd2:	f043 0204 	orr.w	r2, r3, #4
 8002cd6:	687b      	ldr	r3, [r7, #4]
 8002cd8:	641a      	str	r2, [r3, #64]	@ 0x40

          /* Process unlocked */
          __HAL_UNLOCK(hadc);
 8002cda:	687b      	ldr	r3, [r7, #4]
 8002cdc:	2200      	movs	r2, #0
 8002cde:	f883 203c 	strb.w	r2, [r3, #60]	@ 0x3c

          return HAL_TIMEOUT;
 8002ce2:	2303      	movs	r3, #3
 8002ce4:	e03d      	b.n	8002d62 <HAL_ADC_PollForConversion+0x10e>
  while (!(__HAL_ADC_GET_FLAG(hadc, ADC_FLAG_EOC)))
 8002ce6:	687b      	ldr	r3, [r7, #4]
 8002ce8:	681b      	ldr	r3, [r3, #0]
 8002cea:	681b      	ldr	r3, [r3, #0]
 8002cec:	f003 0302 	and.w	r3, r3, #2
 8002cf0:	2b02      	cmp	r3, #2
 8002cf2:	d1d6      	bne.n	8002ca2 <HAL_ADC_PollForConversion+0x4e>
      }
    }
  }

  /* Clear regular group conversion flag */
  __HAL_ADC_CLEAR_FLAG(hadc, ADC_FLAG_STRT | ADC_FLAG_EOC);
 8002cf4:	687b      	ldr	r3, [r7, #4]
 8002cf6:	681b      	ldr	r3, [r3, #0]
 8002cf8:	f06f 0212 	mvn.w	r2, #18
 8002cfc:	601a      	str	r2, [r3, #0]

  /* Update ADC state machine */
  SET_BIT(hadc->State, HAL_ADC_STATE_REG_EOC);
 8002cfe:	687b      	ldr	r3, [r7, #4]
 8002d00:	6c1b      	ldr	r3, [r3, #64]	@ 0x40
 8002d02:	f443 7200 	orr.w	r2, r3, #512	@ 0x200
 8002d06:	687b      	ldr	r3, [r7, #4]
 8002d08:	641a      	str	r2, [r3, #64]	@ 0x40
  /* by external trigger, continuous mode or scan sequence on going.          */
  /* Note: On STM32F4, there is no independent flag of end of sequence.       */
  /*       The test of scan sequence on going is done either with scan        */
  /*       sequence disabled or with end of conversion flag set to            */
  /*       of end of sequence.                                                */
  if (ADC_IS_SOFTWARE_START_REGULAR(hadc)                   &&
 8002d0a:	687b      	ldr	r3, [r7, #4]
 8002d0c:	681b      	ldr	r3, [r3, #0]
 8002d0e:	689b      	ldr	r3, [r3, #8]
 8002d10:	f003 5340 	and.w	r3, r3, #805306368	@ 0x30000000
 8002d14:	2b00      	cmp	r3, #0
 8002d16:	d123      	bne.n	8002d60 <HAL_ADC_PollForConversion+0x10c>
      (hadc->Init.ContinuousConvMode == DISABLE)            &&
 8002d18:	687b      	ldr	r3, [r7, #4]
 8002d1a:	7e1b      	ldrb	r3, [r3, #24]
  if (ADC_IS_SOFTWARE_START_REGULAR(hadc)                   &&
 8002d1c:	2b00      	cmp	r3, #0
 8002d1e:	d11f      	bne.n	8002d60 <HAL_ADC_PollForConversion+0x10c>
      (HAL_IS_BIT_CLR(hadc->Instance->SQR1, ADC_SQR1_L) ||
 8002d20:	687b      	ldr	r3, [r7, #4]
 8002d22:	681b      	ldr	r3, [r3, #0]
 8002d24:	6adb      	ldr	r3, [r3, #44]	@ 0x2c
 8002d26:	f403 0370 	and.w	r3, r3, #15728640	@ 0xf00000
      (hadc->Init.ContinuousConvMode == DISABLE)            &&
 8002d2a:	2b00      	cmp	r3, #0
 8002d2c:	d006      	beq.n	8002d3c <HAL_ADC_PollForConversion+0xe8>
       HAL_IS_BIT_CLR(hadc->Instance->CR2, ADC_CR2_EOCS)))
 8002d2e:	687b      	ldr	r3, [r7, #4]
 8002d30:	681b      	ldr	r3, [r3, #0]
 8002d32:	689b      	ldr	r3, [r3, #8]
 8002d34:	f403 6380 	and.w	r3, r3, #1024	@ 0x400
      (HAL_IS_BIT_CLR(hadc->Instance->SQR1, ADC_SQR1_L) ||
 8002d38:	2b00      	cmp	r3, #0
 8002d3a:	d111      	bne.n	8002d60 <HAL_ADC_PollForConversion+0x10c>
  {
    /* Set ADC state */
    CLEAR_BIT(hadc->State, HAL_ADC_STATE_REG_BUSY);
 8002d3c:	687b      	ldr	r3, [r7, #4]
 8002d3e:	6c1b      	ldr	r3, [r3, #64]	@ 0x40
 8002d40:	f423 7280 	bic.w	r2, r3, #256	@ 0x100
 8002d44:	687b      	ldr	r3, [r7, #4]
 8002d46:	641a      	str	r2, [r3, #64]	@ 0x40

    if (HAL_IS_BIT_CLR(hadc->State, HAL_ADC_STATE_INJ_BUSY))
 8002d48:	687b      	ldr	r3, [r7, #4]
 8002d4a:	6c1b      	ldr	r3, [r3, #64]	@ 0x40
 8002d4c:	f403 5380 	and.w	r3, r3, #4096	@ 0x1000
 8002d50:	2b00      	cmp	r3, #0
 8002d52:	d105      	bne.n	8002d60 <HAL_ADC_PollForConversion+0x10c>
    {
      SET_BIT(hadc->State, HAL_ADC_STATE_READY);
 8002d54:	687b      	ldr	r3, [r7, #4]
 8002d56:	6c1b      	ldr	r3, [r3, #64]	@ 0x40
 8002d58:	f043 0201 	orr.w	r2, r3, #1
 8002d5c:	687b      	ldr	r3, [r7, #4]
 8002d5e:	641a      	str	r2, [r3, #64]	@ 0x40
    }
  }

  /* Return ADC state */
  return HAL_OK;
 8002d60:	2300      	movs	r3, #0
}
 8002d62:	4618      	mov	r0, r3
 8002d64:	3710      	adds	r7, #16
 8002d66:	46bd      	mov	sp, r7
 8002d68:	bd80      	pop	{r7, pc}

08002d6a <HAL_ADC_GetValue>:
  * @param  hadc pointer to a ADC_HandleTypeDef structure that contains
  *         the configuration information for the specified ADC.
  * @retval Converted value
  */
uint32_t HAL_ADC_GetValue(ADC_HandleTypeDef *hadc)
{
 8002d6a:	b480      	push	{r7}
 8002d6c:	b083      	sub	sp, #12
 8002d6e:	af00      	add	r7, sp, #0
 8002d70:	6078      	str	r0, [r7, #4]
  /* Return the selected ADC converted value */
  return hadc->Instance->DR;
 8002d72:	687b      	ldr	r3, [r7, #4]
 8002d74:	681b      	ldr	r3, [r3, #0]
 8002d76:	6cdb      	ldr	r3, [r3, #76]	@ 0x4c
}
 8002d78:	4618      	mov	r0, r3
 8002d7a:	370c      	adds	r7, #12
 8002d7c:	46bd      	mov	sp, r7
 8002d7e:	f85d 7b04 	ldr.w	r7, [sp], #4
 8002d82:	4770      	bx	lr

08002d84 <HAL_ADC_ConfigChannel>:
*         the configuration information for the specified ADC.
* @param  sConfig ADC configuration structure.
* @retval HAL status
*/
HAL_StatusTypeDef HAL_ADC_ConfigChannel(ADC_HandleTypeDef *hadc, ADC_ChannelConfTypeDef *sConfig)
{
 8002d84:	b480      	push	{r7}
 8002d86:	b085      	sub	sp, #20
 8002d88:	af00      	add	r7, sp, #0
 8002d8a:	6078      	str	r0, [r7, #4]
 8002d8c:	6039      	str	r1, [r7, #0]
  __IO uint32_t counter = 0U;
 8002d8e:	2300      	movs	r3, #0
 8002d90:	60bb      	str	r3, [r7, #8]
  assert_param(IS_ADC_CHANNEL(sConfig->Channel));
  assert_param(IS_ADC_REGULAR_RANK(sConfig->Rank));
  assert_param(IS_ADC_SAMPLE_TIME(sConfig->SamplingTime));

  /* Process locked */
  __HAL_LOCK(hadc);
 8002d92:	687b      	ldr	r3, [r7, #4]
 8002d94:	f893 303c 	ldrb.w	r3, [r3, #60]	@ 0x3c
 8002d98:	2b01      	cmp	r3, #1
 8002d9a:	d101      	bne.n	8002da0 <HAL_ADC_ConfigChannel+0x1c>
 8002d9c:	2302      	movs	r3, #2
 8002d9e:	e113      	b.n	8002fc8 <HAL_ADC_ConfigChannel+0x244>
 8002da0:	687b      	ldr	r3, [r7, #4]
 8002da2:	2201      	movs	r2, #1
 8002da4:	f883 203c 	strb.w	r2, [r3, #60]	@ 0x3c

  /* if ADC_Channel_10 ... ADC_Channel_18 is selected */
  if (sConfig->Channel > ADC_CHANNEL_9)
 8002da8:	683b      	ldr	r3, [r7, #0]
 8002daa:	681b      	ldr	r3, [r3, #0]
 8002dac:	2b09      	cmp	r3, #9
 8002dae:	d925      	bls.n	8002dfc <HAL_ADC_ConfigChannel+0x78>
  {
    /* Clear the old sample time */
    hadc->Instance->SMPR1 &= ~ADC_SMPR1(ADC_SMPR1_SMP10, sConfig->Channel);
 8002db0:	687b      	ldr	r3, [r7, #4]
 8002db2:	681b      	ldr	r3, [r3, #0]
 8002db4:	68d9      	ldr	r1, [r3, #12]
 8002db6:	683b      	ldr	r3, [r7, #0]
 8002db8:	681b      	ldr	r3, [r3, #0]
 8002dba:	b29b      	uxth	r3, r3
 8002dbc:	461a      	mov	r2, r3
 8002dbe:	4613      	mov	r3, r2
 8002dc0:	005b      	lsls	r3, r3, #1
 8002dc2:	4413      	add	r3, r2
 8002dc4:	3b1e      	subs	r3, #30
 8002dc6:	2207      	movs	r2, #7
 8002dc8:	fa02 f303 	lsl.w	r3, r2, r3
 8002dcc:	43da      	mvns	r2, r3
 8002dce:	687b      	ldr	r3, [r7, #4]
 8002dd0:	681b      	ldr	r3, [r3, #0]
 8002dd2:	400a      	ands	r2, r1
 8002dd4:	60da      	str	r2, [r3, #12]

    /* Set the new sample time */
    hadc->Instance->SMPR1 |= ADC_SMPR1(sConfig->SamplingTime, sConfig->Channel);
 8002dd6:	687b      	ldr	r3, [r7, #4]
 8002dd8:	681b      	ldr	r3, [r3, #0]
 8002dda:	68d9      	ldr	r1, [r3, #12]
 8002ddc:	683b      	ldr	r3, [r7, #0]
 8002dde:	689a      	ldr	r2, [r3, #8]
 8002de0:	683b      	ldr	r3, [r7, #0]
 8002de2:	681b      	ldr	r3, [r3, #0]
 8002de4:	b29b      	uxth	r3, r3
 8002de6:	4618      	mov	r0, r3
 8002de8:	4603      	mov	r3, r0
 8002dea:	005b      	lsls	r3, r3, #1
 8002dec:	4403      	add	r3, r0
 8002dee:	3b1e      	subs	r3, #30
 8002df0:	409a      	lsls	r2, r3
 8002df2:	687b      	ldr	r3, [r7, #4]
 8002df4:	681b      	ldr	r3, [r3, #0]
 8002df6:	430a      	orrs	r2, r1
 8002df8:	60da      	str	r2, [r3, #12]
 8002dfa:	e022      	b.n	8002e42 <HAL_ADC_ConfigChannel+0xbe>
  }
  else /* ADC_Channel include in ADC_Channel_[0..9] */
  {
    /* Clear the old sample time */
    hadc->Instance->SMPR2 &= ~ADC_SMPR2(ADC_SMPR2_SMP0, sConfig->Channel);
 8002dfc:	687b      	ldr	r3, [r7, #4]
 8002dfe:	681b      	ldr	r3, [r3, #0]
 8002e00:	6919      	ldr	r1, [r3, #16]
 8002e02:	683b      	ldr	r3, [r7, #0]
 8002e04:	681b      	ldr	r3, [r3, #0]
 8002e06:	b29b      	uxth	r3, r3
 8002e08:	461a      	mov	r2, r3
 8002e0a:	4613      	mov	r3, r2
 8002e0c:	005b      	lsls	r3, r3, #1
 8002e0e:	4413      	add	r3, r2
 8002e10:	2207      	movs	r2, #7
 8002e12:	fa02 f303 	lsl.w	r3, r2, r3
 8002e16:	43da      	mvns	r2, r3
 8002e18:	687b      	ldr	r3, [r7, #4]
 8002e1a:	681b      	ldr	r3, [r3, #0]
 8002e1c:	400a      	ands	r2, r1
 8002e1e:	611a      	str	r2, [r3, #16]

    /* Set the new sample time */
    hadc->Instance->SMPR2 |= ADC_SMPR2(sConfig->SamplingTime, sConfig->Channel);
 8002e20:	687b      	ldr	r3, [r7, #4]
 8002e22:	681b      	ldr	r3, [r3, #0]
 8002e24:	6919      	ldr	r1, [r3, #16]
 8002e26:	683b      	ldr	r3, [r7, #0]
 8002e28:	689a      	ldr	r2, [r3, #8]
 8002e2a:	683b      	ldr	r3, [r7, #0]
 8002e2c:	681b      	ldr	r3, [r3, #0]
 8002e2e:	b29b      	uxth	r3, r3
 8002e30:	4618      	mov	r0, r3
 8002e32:	4603      	mov	r3, r0
 8002e34:	005b      	lsls	r3, r3, #1
 8002e36:	4403      	add	r3, r0
 8002e38:	409a      	lsls	r2, r3
 8002e3a:	687b      	ldr	r3, [r7, #4]
 8002e3c:	681b      	ldr	r3, [r3, #0]
 8002e3e:	430a      	orrs	r2, r1
 8002e40:	611a      	str	r2, [r3, #16]
  }

  /* For Rank 1 to 6 */
  if (sConfig->Rank < 7U)
 8002e42:	683b      	ldr	r3, [r7, #0]
 8002e44:	685b      	ldr	r3, [r3, #4]
 8002e46:	2b06      	cmp	r3, #6
 8002e48:	d824      	bhi.n	8002e94 <HAL_ADC_ConfigChannel+0x110>
  {
    /* Clear the old SQx bits for the selected rank */
    hadc->Instance->SQR3 &= ~ADC_SQR3_RK(ADC_SQR3_SQ1, sConfig->Rank);
 8002e4a:	687b      	ldr	r3, [r7, #4]
 8002e4c:	681b      	ldr	r3, [r3, #0]
 8002e4e:	6b59      	ldr	r1, [r3, #52]	@ 0x34
 8002e50:	683b      	ldr	r3, [r7, #0]
 8002e52:	685a      	ldr	r2, [r3, #4]
 8002e54:	4613      	mov	r3, r2
 8002e56:	009b      	lsls	r3, r3, #2
 8002e58:	4413      	add	r3, r2
 8002e5a:	3b05      	subs	r3, #5
 8002e5c:	221f      	movs	r2, #31
 8002e5e:	fa02 f303 	lsl.w	r3, r2, r3
 8002e62:	43da      	mvns	r2, r3
 8002e64:	687b      	ldr	r3, [r7, #4]
 8002e66:	681b      	ldr	r3, [r3, #0]
 8002e68:	400a      	ands	r2, r1
 8002e6a:	635a      	str	r2, [r3, #52]	@ 0x34

    /* Set the SQx bits for the selected rank */
    hadc->Instance->SQR3 |= ADC_SQR3_RK(sConfig->Channel, sConfig->Rank);
 8002e6c:	687b      	ldr	r3, [r7, #4]
 8002e6e:	681b      	ldr	r3, [r3, #0]
 8002e70:	6b59      	ldr	r1, [r3, #52]	@ 0x34
 8002e72:	683b      	ldr	r3, [r7, #0]
 8002e74:	681b      	ldr	r3, [r3, #0]
 8002e76:	b29b      	uxth	r3, r3
 8002e78:	4618      	mov	r0, r3
 8002e7a:	683b      	ldr	r3, [r7, #0]
 8002e7c:	685a      	ldr	r2, [r3, #4]
 8002e7e:	4613      	mov	r3, r2
 8002e80:	009b      	lsls	r3, r3, #2
 8002e82:	4413      	add	r3, r2
 8002e84:	3b05      	subs	r3, #5
 8002e86:	fa00 f203 	lsl.w	r2, r0, r3
 8002e8a:	687b      	ldr	r3, [r7, #4]
 8002e8c:	681b      	ldr	r3, [r3, #0]
 8002e8e:	430a      	orrs	r2, r1
 8002e90:	635a      	str	r2, [r3, #52]	@ 0x34
 8002e92:	e04c      	b.n	8002f2e <HAL_ADC_ConfigChannel+0x1aa>
  }
  /* For Rank 7 to 12 */
  else if (sConfig->Rank < 13U)
 8002e94:	683b      	ldr	r3, [r7, #0]
 8002e96:	685b      	ldr	r3, [r3, #4]
 8002e98:	2b0c      	cmp	r3, #12
 8002e9a:	d824      	bhi.n	8002ee6 <HAL_ADC_ConfigChannel+0x162>
  {
    /* Clear the old SQx bits for the selected rank */
    hadc->Instance->SQR2 &= ~ADC_SQR2_RK(ADC_SQR2_SQ7, sConfig->Rank);
 8002e9c:	687b      	ldr	r3, [r7, #4]
 8002e9e:	681b      	ldr	r3, [r3, #0]
 8002ea0:	6b19      	ldr	r1, [r3, #48]	@ 0x30
 8002ea2:	683b      	ldr	r3, [r7, #0]
 8002ea4:	685a      	ldr	r2, [r3, #4]
 8002ea6:	4613      	mov	r3, r2
 8002ea8:	009b      	lsls	r3, r3, #2
 8002eaa:	4413      	add	r3, r2
 8002eac:	3b23      	subs	r3, #35	@ 0x23
 8002eae:	221f      	movs	r2, #31
 8002eb0:	fa02 f303 	lsl.w	r3, r2, r3
 8002eb4:	43da      	mvns	r2, r3
 8002eb6:	687b      	ldr	r3, [r7, #4]
 8002eb8:	681b      	ldr	r3, [r3, #0]
 8002eba:	400a      	ands	r2, r1
 8002ebc:	631a      	str	r2, [r3, #48]	@ 0x30

    /* Set the SQx bits for the selected rank */
    hadc->Instance->SQR2 |= ADC_SQR2_RK(sConfig->Channel, sConfig->Rank);
 8002ebe:	687b      	ldr	r3, [r7, #4]
 8002ec0:	681b      	ldr	r3, [r3, #0]
 8002ec2:	6b19      	ldr	r1, [r3, #48]	@ 0x30
 8002ec4:	683b      	ldr	r3, [r7, #0]
 8002ec6:	681b      	ldr	r3, [r3, #0]
 8002ec8:	b29b      	uxth	r3, r3
 8002eca:	4618      	mov	r0, r3
 8002ecc:	683b      	ldr	r3, [r7, #0]
 8002ece:	685a      	ldr	r2, [r3, #4]
 8002ed0:	4613      	mov	r3, r2
 8002ed2:	009b      	lsls	r3, r3, #2
 8002ed4:	4413      	add	r3, r2
 8002ed6:	3b23      	subs	r3, #35	@ 0x23
 8002ed8:	fa00 f203 	lsl.w	r2, r0, r3
 8002edc:	687b      	ldr	r3, [r7, #4]
 8002ede:	681b      	ldr	r3, [r3, #0]
 8002ee0:	430a      	orrs	r2, r1
 8002ee2:	631a      	str	r2, [r3, #48]	@ 0x30
 8002ee4:	e023      	b.n	8002f2e <HAL_ADC_ConfigChannel+0x1aa>
  }
  /* For Rank 13 to 16 */
  else
  {
    /* Clear the old SQx bits for the selected rank */
    hadc->Instance->SQR1 &= ~ADC_SQR1_RK(ADC_SQR1_SQ13, sConfig->Rank);
 8002ee6:	687b      	ldr	r3, [r7, #4]
 8002ee8:	681b      	ldr	r3, [r3, #0]
 8002eea:	6ad9      	ldr	r1, [r3, #44]	@ 0x2c
 8002eec:	683b      	ldr	r3, [r7, #0]
 8002eee:	685a      	ldr	r2, [r3, #4]
 8002ef0:	4613      	mov	r3, r2
 8002ef2:	009b      	lsls	r3, r3, #2
 8002ef4:	4413      	add	r3, r2
 8002ef6:	3b41      	subs	r3, #65	@ 0x41
 8002ef8:	221f      	movs	r2, #31
 8002efa:	fa02 f303 	lsl.w	r3, r2, r3
 8002efe:	43da      	mvns	r2, r3
 8002f00:	687b      	ldr	r3, [r7, #4]
 8002f02:	681b      	ldr	r3, [r3, #0]
 8002f04:	400a      	ands	r2, r1
 8002f06:	62da      	str	r2, [r3, #44]	@ 0x2c

    /* Set the SQx bits for the selected rank */
    hadc->Instance->SQR1 |= ADC_SQR1_RK(sConfig->Channel, sConfig->Rank);
 8002f08:	687b      	ldr	r3, [r7, #4]
 8002f0a:	681b      	ldr	r3, [r3, #0]
 8002f0c:	6ad9      	ldr	r1, [r3, #44]	@ 0x2c
 8002f0e:	683b      	ldr	r3, [r7, #0]
 8002f10:	681b      	ldr	r3, [r3, #0]
 8002f12:	b29b      	uxth	r3, r3
 8002f14:	4618      	mov	r0, r3
 8002f16:	683b      	ldr	r3, [r7, #0]
 8002f18:	685a      	ldr	r2, [r3, #4]
 8002f1a:	4613      	mov	r3, r2
 8002f1c:	009b      	lsls	r3, r3, #2
 8002f1e:	4413      	add	r3, r2
 8002f20:	3b41      	subs	r3, #65	@ 0x41
 8002f22:	fa00 f203 	lsl.w	r2, r0, r3
 8002f26:	687b      	ldr	r3, [r7, #4]
 8002f28:	681b      	ldr	r3, [r3, #0]
 8002f2a:	430a      	orrs	r2, r1
 8002f2c:	62da      	str	r2, [r3, #44]	@ 0x2c
  }

  /* Pointer to the common control register to which is belonging hadc    */
  /* (Depending on STM32F4 product, there may be up to 3 ADCs and 1 common */
  /* control register)                                                    */
  tmpADC_Common = ADC_COMMON_REGISTER(hadc);
 8002f2e:	4b29      	ldr	r3, [pc, #164]	@ (8002fd4 <HAL_ADC_ConfigChannel+0x250>)
 8002f30:	60fb      	str	r3, [r7, #12]

  /* if ADC1 Channel_18 is selected for VBAT Channel ennable VBATE */
  if ((hadc->Instance == ADC1) && (sConfig->Channel == ADC_CHANNEL_VBAT))
 8002f32:	687b      	ldr	r3, [r7, #4]
 8002f34:	681b      	ldr	r3, [r3, #0]
 8002f36:	4a28      	ldr	r2, [pc, #160]	@ (8002fd8 <HAL_ADC_ConfigChannel+0x254>)
 8002f38:	4293      	cmp	r3, r2
 8002f3a:	d10f      	bne.n	8002f5c <HAL_ADC_ConfigChannel+0x1d8>
 8002f3c:	683b      	ldr	r3, [r7, #0]
 8002f3e:	681b      	ldr	r3, [r3, #0]
 8002f40:	2b12      	cmp	r3, #18
 8002f42:	d10b      	bne.n	8002f5c <HAL_ADC_ConfigChannel+0x1d8>
  {
    /* Disable the TEMPSENSOR channel in case of using board with multiplixed ADC_CHANNEL_VBAT & ADC_CHANNEL_TEMPSENSOR*/
    if ((uint16_t)ADC_CHANNEL_TEMPSENSOR == (uint16_t)ADC_CHANNEL_VBAT)
    {
      tmpADC_Common->CCR &= ~ADC_CCR_TSVREFE;
 8002f44:	68fb      	ldr	r3, [r7, #12]
 8002f46:	685b      	ldr	r3, [r3, #4]
 8002f48:	f423 0200 	bic.w	r2, r3, #8388608	@ 0x800000
 8002f4c:	68fb      	ldr	r3, [r7, #12]
 8002f4e:	605a      	str	r2, [r3, #4]
    }
    /* Enable the VBAT channel*/
    tmpADC_Common->CCR |= ADC_CCR_VBATE;
 8002f50:	68fb      	ldr	r3, [r7, #12]
 8002f52:	685b      	ldr	r3, [r3, #4]
 8002f54:	f443 0280 	orr.w	r2, r3, #4194304	@ 0x400000
 8002f58:	68fb      	ldr	r3, [r7, #12]
 8002f5a:	605a      	str	r2, [r3, #4]
  }

  /* if ADC1 Channel_16 or Channel_18 is selected for Temperature sensor or
     Channel_17 is selected for VREFINT enable TSVREFE */
  if ((hadc->Instance == ADC1) && ((sConfig->Channel == ADC_CHANNEL_TEMPSENSOR) || (sConfig->Channel == ADC_CHANNEL_VREFINT)))
 8002f5c:	687b      	ldr	r3, [r7, #4]
 8002f5e:	681b      	ldr	r3, [r3, #0]
 8002f60:	4a1d      	ldr	r2, [pc, #116]	@ (8002fd8 <HAL_ADC_ConfigChannel+0x254>)
 8002f62:	4293      	cmp	r3, r2
 8002f64:	d12b      	bne.n	8002fbe <HAL_ADC_ConfigChannel+0x23a>
 8002f66:	683b      	ldr	r3, [r7, #0]
 8002f68:	681b      	ldr	r3, [r3, #0]
 8002f6a:	4a1c      	ldr	r2, [pc, #112]	@ (8002fdc <HAL_ADC_ConfigChannel+0x258>)
 8002f6c:	4293      	cmp	r3, r2
 8002f6e:	d003      	beq.n	8002f78 <HAL_ADC_ConfigChannel+0x1f4>
 8002f70:	683b      	ldr	r3, [r7, #0]
 8002f72:	681b      	ldr	r3, [r3, #0]
 8002f74:	2b11      	cmp	r3, #17
 8002f76:	d122      	bne.n	8002fbe <HAL_ADC_ConfigChannel+0x23a>
  {
    /* Disable the VBAT channel in case of using board with multiplixed ADC_CHANNEL_VBAT & ADC_CHANNEL_TEMPSENSOR*/
    if ((uint16_t)ADC_CHANNEL_TEMPSENSOR == (uint16_t)ADC_CHANNEL_VBAT)
    {
      tmpADC_Common->CCR &= ~ADC_CCR_VBATE;
 8002f78:	68fb      	ldr	r3, [r7, #12]
 8002f7a:	685b      	ldr	r3, [r3, #4]
 8002f7c:	f423 0280 	bic.w	r2, r3, #4194304	@ 0x400000
 8002f80:	68fb      	ldr	r3, [r7, #12]
 8002f82:	605a      	str	r2, [r3, #4]
    }
    /* Enable the Temperature sensor and VREFINT channel*/
    tmpADC_Common->CCR |= ADC_CCR_TSVREFE;
 8002f84:	68fb      	ldr	r3, [r7, #12]
 8002f86:	685b      	ldr	r3, [r3, #4]
 8002f88:	f443 0200 	orr.w	r2, r3, #8388608	@ 0x800000
 8002f8c:	68fb      	ldr	r3, [r7, #12]
 8002f8e:	605a      	str	r2, [r3, #4]

    if (sConfig->Channel == ADC_CHANNEL_TEMPSENSOR)
 8002f90:	683b      	ldr	r3, [r7, #0]
 8002f92:	681b      	ldr	r3, [r3, #0]
 8002f94:	4a11      	ldr	r2, [pc, #68]	@ (8002fdc <HAL_ADC_ConfigChannel+0x258>)
 8002f96:	4293      	cmp	r3, r2
 8002f98:	d111      	bne.n	8002fbe <HAL_ADC_ConfigChannel+0x23a>
    {
      /* Delay for temperature sensor stabilization time */
      /* Compute number of CPU cycles to wait for */
      counter = (ADC_TEMPSENSOR_DELAY_US * (SystemCoreClock / 1000000U));
 8002f9a:	4b11      	ldr	r3, [pc, #68]	@ (8002fe0 <HAL_ADC_ConfigChannel+0x25c>)
 8002f9c:	681b      	ldr	r3, [r3, #0]
 8002f9e:	4a11      	ldr	r2, [pc, #68]	@ (8002fe4 <HAL_ADC_ConfigChannel+0x260>)
 8002fa0:	fba2 2303 	umull	r2, r3, r2, r3
 8002fa4:	0c9a      	lsrs	r2, r3, #18
 8002fa6:	4613      	mov	r3, r2
 8002fa8:	009b      	lsls	r3, r3, #2
 8002faa:	4413      	add	r3, r2
 8002fac:	005b      	lsls	r3, r3, #1
 8002fae:	60bb      	str	r3, [r7, #8]
      while (counter != 0U)
 8002fb0:	e002      	b.n	8002fb8 <HAL_ADC_ConfigChannel+0x234>
      {
        counter--;
 8002fb2:	68bb      	ldr	r3, [r7, #8]
 8002fb4:	3b01      	subs	r3, #1
 8002fb6:	60bb      	str	r3, [r7, #8]
      while (counter != 0U)
 8002fb8:	68bb      	ldr	r3, [r7, #8]
 8002fba:	2b00      	cmp	r3, #0
 8002fbc:	d1f9      	bne.n	8002fb2 <HAL_ADC_ConfigChannel+0x22e>
      }
    }
  }

  /* Process unlocked */
  __HAL_UNLOCK(hadc);
 8002fbe:	687b      	ldr	r3, [r7, #4]
 8002fc0:	2200      	movs	r2, #0
 8002fc2:	f883 203c 	strb.w	r2, [r3, #60]	@ 0x3c

  /* Return function status */
  return HAL_OK;
 8002fc6:	2300      	movs	r3, #0
}
 8002fc8:	4618      	mov	r0, r3
 8002fca:	3714      	adds	r7, #20
 8002fcc:	46bd      	mov	sp, r7
 8002fce:	f85d 7b04 	ldr.w	r7, [sp], #4
 8002fd2:	4770      	bx	lr
 8002fd4:	40012300 	.word	0x40012300
 8002fd8:	40012000 	.word	0x40012000
 8002fdc:	10000012 	.word	0x10000012
 8002fe0:	20000000 	.word	0x20000000
 8002fe4:	431bde83 	.word	0x431bde83

08002fe8 <ADC_Init>:
  * @param  hadc pointer to a ADC_HandleTypeDef structure that contains
  *         the configuration information for the specified ADC.
  * @retval None
  */
static void ADC_Init(ADC_HandleTypeDef *hadc)
{
 8002fe8:	b480      	push	{r7}
 8002fea:	b085      	sub	sp, #20
 8002fec:	af00      	add	r7, sp, #0
 8002fee:	6078      	str	r0, [r7, #4]

  /* Set ADC parameters */
  /* Pointer to the common control register to which is belonging hadc    */
  /* (Depending on STM32F4 product, there may be up to 3 ADCs and 1 common */
  /* control register)                                                    */
  tmpADC_Common = ADC_COMMON_REGISTER(hadc);
 8002ff0:	4b79      	ldr	r3, [pc, #484]	@ (80031d8 <ADC_Init+0x1f0>)
 8002ff2:	60fb      	str	r3, [r7, #12]

  /* Set the ADC clock prescaler */
  tmpADC_Common->CCR &= ~(ADC_CCR_ADCPRE);
 8002ff4:	68fb      	ldr	r3, [r7, #12]
 8002ff6:	685b      	ldr	r3, [r3, #4]
 8002ff8:	f423 3240 	bic.w	r2, r3, #196608	@ 0x30000
 8002ffc:	68fb      	ldr	r3, [r7, #12]
 8002ffe:	605a      	str	r2, [r3, #4]
  tmpADC_Common->CCR |=  hadc->Init.ClockPrescaler;
 8003000:	68fb      	ldr	r3, [r7, #12]
 8003002:	685a      	ldr	r2, [r3, #4]
 8003004:	687b      	ldr	r3, [r7, #4]
 8003006:	685b      	ldr	r3, [r3, #4]
 8003008:	431a      	orrs	r2, r3
 800300a:	68fb      	ldr	r3, [r7, #12]
 800300c:	605a      	str	r2, [r3, #4]

  /* Set ADC scan mode */
  hadc->Instance->CR1 &= ~(ADC_CR1_SCAN);
 800300e:	687b      	ldr	r3, [r7, #4]
 8003010:	681b      	ldr	r3, [r3, #0]
 8003012:	685a      	ldr	r2, [r3, #4]
 8003014:	687b      	ldr	r3, [r7, #4]
 8003016:	681b      	ldr	r3, [r3, #0]
 8003018:	f422 7280 	bic.w	r2, r2, #256	@ 0x100
 800301c:	605a      	str	r2, [r3, #4]
  hadc->Instance->CR1 |=  ADC_CR1_SCANCONV(hadc->Init.ScanConvMode);
 800301e:	687b      	ldr	r3, [r7, #4]
 8003020:	681b      	ldr	r3, [r3, #0]
 8003022:	6859      	ldr	r1, [r3, #4]
 8003024:	687b      	ldr	r3, [r7, #4]
 8003026:	691b      	ldr	r3, [r3, #16]
 8003028:	021a      	lsls	r2, r3, #8
 800302a:	687b      	ldr	r3, [r7, #4]
 800302c:	681b      	ldr	r3, [r3, #0]
 800302e:	430a      	orrs	r2, r1
 8003030:	605a      	str	r2, [r3, #4]

  /* Set ADC resolution */
  hadc->Instance->CR1 &= ~(ADC_CR1_RES);
 8003032:	687b      	ldr	r3, [r7, #4]
 8003034:	681b      	ldr	r3, [r3, #0]
 8003036:	685a      	ldr	r2, [r3, #4]
 8003038:	687b      	ldr	r3, [r7, #4]
 800303a:	681b      	ldr	r3, [r3, #0]
 800303c:	f022 7240 	bic.w	r2, r2, #50331648	@ 0x3000000
 8003040:	605a      	str	r2, [r3, #4]
  hadc->Instance->CR1 |=  hadc->Init.Resolution;
 8003042:	687b      	ldr	r3, [r7, #4]
 8003044:	681b      	ldr	r3, [r3, #0]
 8003046:	6859      	ldr	r1, [r3, #4]
 8003048:	687b      	ldr	r3, [r7, #4]
 800304a:	689a      	ldr	r2, [r3, #8]
 800304c:	687b      	ldr	r3, [r7, #4]
 800304e:	681b      	ldr	r3, [r3, #0]
 8003050:	430a      	orrs	r2, r1
 8003052:	605a      	str	r2, [r3, #4]

  /* Set ADC data alignment */
  hadc->Instance->CR2 &= ~(ADC_CR2_ALIGN);
 8003054:	687b      	ldr	r3, [r7, #4]
 8003056:	681b      	ldr	r3, [r3, #0]
 8003058:	689a      	ldr	r2, [r3, #8]
 800305a:	687b      	ldr	r3, [r7, #4]
 800305c:	681b      	ldr	r3, [r3, #0]
 800305e:	f422 6200 	bic.w	r2, r2, #2048	@ 0x800
 8003062:	609a      	str	r2, [r3, #8]
  hadc->Instance->CR2 |= hadc->Init.DataAlign;
 8003064:	687b      	ldr	r3, [r7, #4]
 8003066:	681b      	ldr	r3, [r3, #0]
 8003068:	6899      	ldr	r1, [r3, #8]
 800306a:	687b      	ldr	r3, [r7, #4]
 800306c:	68da      	ldr	r2, [r3, #12]
 800306e:	687b      	ldr	r3, [r7, #4]
 8003070:	681b      	ldr	r3, [r3, #0]
 8003072:	430a      	orrs	r2, r1
 8003074:	609a      	str	r2, [r3, #8]
  /* Enable external trigger if trigger selection is different of software  */
  /* start.                                                                 */
  /* Note: This configuration keeps the hardware feature of parameter       */
  /*       ExternalTrigConvEdge "trigger edge none" equivalent to           */
  /*       software start.                                                  */
  if (hadc->Init.ExternalTrigConv != ADC_SOFTWARE_START)
 8003076:	687b      	ldr	r3, [r7, #4]
 8003078:	6a9b      	ldr	r3, [r3, #40]	@ 0x28
 800307a:	4a58      	ldr	r2, [pc, #352]	@ (80031dc <ADC_Init+0x1f4>)
 800307c:	4293      	cmp	r3, r2
 800307e:	d022      	beq.n	80030c6 <ADC_Init+0xde>
  {
    /* Select external trigger to start conversion */
    hadc->Instance->CR2 &= ~(ADC_CR2_EXTSEL);
 8003080:	687b      	ldr	r3, [r7, #4]
 8003082:	681b      	ldr	r3, [r3, #0]
 8003084:	689a      	ldr	r2, [r3, #8]
 8003086:	687b      	ldr	r3, [r7, #4]
 8003088:	681b      	ldr	r3, [r3, #0]
 800308a:	f022 6270 	bic.w	r2, r2, #251658240	@ 0xf000000
 800308e:	609a      	str	r2, [r3, #8]
    hadc->Instance->CR2 |= hadc->Init.ExternalTrigConv;
 8003090:	687b      	ldr	r3, [r7, #4]
 8003092:	681b      	ldr	r3, [r3, #0]
 8003094:	6899      	ldr	r1, [r3, #8]
 8003096:	687b      	ldr	r3, [r7, #4]
 8003098:	6a9a      	ldr	r2, [r3, #40]	@ 0x28
 800309a:	687b      	ldr	r3, [r7, #4]
 800309c:	681b      	ldr	r3, [r3, #0]
 800309e:	430a      	orrs	r2, r1
 80030a0:	609a      	str	r2, [r3, #8]

    /* Select external trigger polarity */
    hadc->Instance->CR2 &= ~(ADC_CR2_EXTEN);
 80030a2:	687b      	ldr	r3, [r7, #4]
 80030a4:	681b      	ldr	r3, [r3, #0]
 80030a6:	689a      	ldr	r2, [r3, #8]
 80030a8:	687b      	ldr	r3, [r7, #4]
 80030aa:	681b      	ldr	r3, [r3, #0]
 80030ac:	f022 5240 	bic.w	r2, r2, #805306368	@ 0x30000000
 80030b0:	609a      	str	r2, [r3, #8]
    hadc->Instance->CR2 |= hadc->Init.ExternalTrigConvEdge;
 80030b2:	687b      	ldr	r3, [r7, #4]
 80030b4:	681b      	ldr	r3, [r3, #0]
 80030b6:	6899      	ldr	r1, [r3, #8]
 80030b8:	687b      	ldr	r3, [r7, #4]
 80030ba:	6ada      	ldr	r2, [r3, #44]	@ 0x2c
 80030bc:	687b      	ldr	r3, [r7, #4]
 80030be:	681b      	ldr	r3, [r3, #0]
 80030c0:	430a      	orrs	r2, r1
 80030c2:	609a      	str	r2, [r3, #8]
 80030c4:	e00f      	b.n	80030e6 <ADC_Init+0xfe>
  }
  else
  {
    /* Reset the external trigger */
    hadc->Instance->CR2 &= ~(ADC_CR2_EXTSEL);
 80030c6:	687b      	ldr	r3, [r7, #4]
 80030c8:	681b      	ldr	r3, [r3, #0]
 80030ca:	689a      	ldr	r2, [r3, #8]
 80030cc:	687b      	ldr	r3, [r7, #4]
 80030ce:	681b      	ldr	r3, [r3, #0]
 80030d0:	f022 6270 	bic.w	r2, r2, #251658240	@ 0xf000000
 80030d4:	609a      	str	r2, [r3, #8]
    hadc->Instance->CR2 &= ~(ADC_CR2_EXTEN);
 80030d6:	687b      	ldr	r3, [r7, #4]
 80030d8:	681b      	ldr	r3, [r3, #0]
 80030da:	689a      	ldr	r2, [r3, #8]
 80030dc:	687b      	ldr	r3, [r7, #4]
 80030de:	681b      	ldr	r3, [r3, #0]
 80030e0:	f022 5240 	bic.w	r2, r2, #805306368	@ 0x30000000
 80030e4:	609a      	str	r2, [r3, #8]
  }

  /* Enable or disable ADC continuous conversion mode */
  hadc->Instance->CR2 &= ~(ADC_CR2_CONT);
 80030e6:	687b      	ldr	r3, [r7, #4]
 80030e8:	681b      	ldr	r3, [r3, #0]
 80030ea:	689a      	ldr	r2, [r3, #8]
 80030ec:	687b      	ldr	r3, [r7, #4]
 80030ee:	681b      	ldr	r3, [r3, #0]
 80030f0:	f022 0202 	bic.w	r2, r2, #2
 80030f4:	609a      	str	r2, [r3, #8]
  hadc->Instance->CR2 |= ADC_CR2_CONTINUOUS((uint32_t)hadc->Init.ContinuousConvMode);
 80030f6:	687b      	ldr	r3, [r7, #4]
 80030f8:	681b      	ldr	r3, [r3, #0]
 80030fa:	6899      	ldr	r1, [r3, #8]
 80030fc:	687b      	ldr	r3, [r7, #4]
 80030fe:	7e1b      	ldrb	r3, [r3, #24]
 8003100:	005a      	lsls	r2, r3, #1
 8003102:	687b      	ldr	r3, [r7, #4]
 8003104:	681b      	ldr	r3, [r3, #0]
 8003106:	430a      	orrs	r2, r1
 8003108:	609a      	str	r2, [r3, #8]

  if (hadc->Init.DiscontinuousConvMode != DISABLE)
 800310a:	687b      	ldr	r3, [r7, #4]
 800310c:	f893 3020 	ldrb.w	r3, [r3, #32]
 8003110:	2b00      	cmp	r3, #0
 8003112:	d01b      	beq.n	800314c <ADC_Init+0x164>
  {
    assert_param(IS_ADC_REGULAR_DISC_NUMBER(hadc->Init.NbrOfDiscConversion));

    /* Enable the selected ADC regular discontinuous mode */
    hadc->Instance->CR1 |= (uint32_t)ADC_CR1_DISCEN;
 8003114:	687b      	ldr	r3, [r7, #4]
 8003116:	681b      	ldr	r3, [r3, #0]
 8003118:	685a      	ldr	r2, [r3, #4]
 800311a:	687b      	ldr	r3, [r7, #4]
 800311c:	681b      	ldr	r3, [r3, #0]
 800311e:	f442 6200 	orr.w	r2, r2, #2048	@ 0x800
 8003122:	605a      	str	r2, [r3, #4]

    /* Set the number of channels to be converted in discontinuous mode */
    hadc->Instance->CR1 &= ~(ADC_CR1_DISCNUM);
 8003124:	687b      	ldr	r3, [r7, #4]
 8003126:	681b      	ldr	r3, [r3, #0]
 8003128:	685a      	ldr	r2, [r3, #4]
 800312a:	687b      	ldr	r3, [r7, #4]
 800312c:	681b      	ldr	r3, [r3, #0]
 800312e:	f422 4260 	bic.w	r2, r2, #57344	@ 0xe000
 8003132:	605a      	str	r2, [r3, #4]
    hadc->Instance->CR1 |=  ADC_CR1_DISCONTINUOUS(hadc->Init.NbrOfDiscConversion);
 8003134:	687b      	ldr	r3, [r7, #4]
 8003136:	681b      	ldr	r3, [r3, #0]
 8003138:	6859      	ldr	r1, [r3, #4]
 800313a:	687b      	ldr	r3, [r7, #4]
 800313c:	6a5b      	ldr	r3, [r3, #36]	@ 0x24
 800313e:	3b01      	subs	r3, #1
 8003140:	035a      	lsls	r2, r3, #13
 8003142:	687b      	ldr	r3, [r7, #4]
 8003144:	681b      	ldr	r3, [r3, #0]
 8003146:	430a      	orrs	r2, r1
 8003148:	605a      	str	r2, [r3, #4]
 800314a:	e007      	b.n	800315c <ADC_Init+0x174>
  }
  else
  {
    /* Disable the selected ADC regular discontinuous mode */
    hadc->Instance->CR1 &= ~(ADC_CR1_DISCEN);
 800314c:	687b      	ldr	r3, [r7, #4]
 800314e:	681b      	ldr	r3, [r3, #0]
 8003150:	685a      	ldr	r2, [r3, #4]
 8003152:	687b      	ldr	r3, [r7, #4]
 8003154:	681b      	ldr	r3, [r3, #0]
 8003156:	f422 6200 	bic.w	r2, r2, #2048	@ 0x800
 800315a:	605a      	str	r2, [r3, #4]
  }

  /* Set ADC number of conversion */
  hadc->Instance->SQR1 &= ~(ADC_SQR1_L);
 800315c:	687b      	ldr	r3, [r7, #4]
 800315e:	681b      	ldr	r3, [r3, #0]
 8003160:	6ada      	ldr	r2, [r3, #44]	@ 0x2c
 8003162:	687b      	ldr	r3, [r7, #4]
 8003164:	681b      	ldr	r3, [r3, #0]
 8003166:	f422 0270 	bic.w	r2, r2, #15728640	@ 0xf00000
 800316a:	62da      	str	r2, [r3, #44]	@ 0x2c
  hadc->Instance->SQR1 |=  ADC_SQR1(hadc->Init.NbrOfConversion);
 800316c:	687b      	ldr	r3, [r7, #4]
 800316e:	681b      	ldr	r3, [r3, #0]
 8003170:	6ad9      	ldr	r1, [r3, #44]	@ 0x2c
 8003172:	687b      	ldr	r3, [r7, #4]
 8003174:	69db      	ldr	r3, [r3, #28]
 8003176:	3b01      	subs	r3, #1
 8003178:	051a      	lsls	r2, r3, #20
 800317a:	687b      	ldr	r3, [r7, #4]
 800317c:	681b      	ldr	r3, [r3, #0]
 800317e:	430a      	orrs	r2, r1
 8003180:	62da      	str	r2, [r3, #44]	@ 0x2c

  /* Enable or disable ADC DMA continuous request */
  hadc->Instance->CR2 &= ~(ADC_CR2_DDS);
 8003182:	687b      	ldr	r3, [r7, #4]
 8003184:	681b      	ldr	r3, [r3, #0]
 8003186:	689a      	ldr	r2, [r3, #8]
 8003188:	687b      	ldr	r3, [r7, #4]
 800318a:	681b      	ldr	r3, [r3, #0]
 800318c:	f422 7200 	bic.w	r2, r2, #512	@ 0x200
 8003190:	609a      	str	r2, [r3, #8]
  hadc->Instance->CR2 |= ADC_CR2_DMAContReq((uint32_t)hadc->Init.DMAContinuousRequests);
 8003192:	687b      	ldr	r3, [r7, #4]
 8003194:	681b      	ldr	r3, [r3, #0]
 8003196:	6899      	ldr	r1, [r3, #8]
 8003198:	687b      	ldr	r3, [r7, #4]
 800319a:	f893 3030 	ldrb.w	r3, [r3, #48]	@ 0x30
 800319e:	025a      	lsls	r2, r3, #9
 80031a0:	687b      	ldr	r3, [r7, #4]
 80031a2:	681b      	ldr	r3, [r3, #0]
 80031a4:	430a      	orrs	r2, r1
 80031a6:	609a      	str	r2, [r3, #8]

  /* Enable or disable ADC end of conversion selection */
  hadc->Instance->CR2 &= ~(ADC_CR2_EOCS);
 80031a8:	687b      	ldr	r3, [r7, #4]
 80031aa:	681b      	ldr	r3, [r3, #0]
 80031ac:	689a      	ldr	r2, [r3, #8]
 80031ae:	687b      	ldr	r3, [r7, #4]
 80031b0:	681b      	ldr	r3, [r3, #0]
 80031b2:	f422 6280 	bic.w	r2, r2, #1024	@ 0x400
 80031b6:	609a      	str	r2, [r3, #8]
  hadc->Instance->CR2 |= ADC_CR2_EOCSelection(hadc->Init.EOCSelection);
 80031b8:	687b      	ldr	r3, [r7, #4]
 80031ba:	681b      	ldr	r3, [r3, #0]
 80031bc:	6899      	ldr	r1, [r3, #8]
 80031be:	687b      	ldr	r3, [r7, #4]
 80031c0:	695b      	ldr	r3, [r3, #20]
 80031c2:	029a      	lsls	r2, r3, #10
 80031c4:	687b      	ldr	r3, [r7, #4]
 80031c6:	681b      	ldr	r3, [r3, #0]
 80031c8:	430a      	orrs	r2, r1
 80031ca:	609a      	str	r2, [r3, #8]
}
 80031cc:	bf00      	nop
 80031ce:	3714      	adds	r7, #20
 80031d0:	46bd      	mov	sp, r7
 80031d2:	f85d 7b04 	ldr.w	r7, [sp], #4
 80031d6:	4770      	bx	lr
 80031d8:	40012300 	.word	0x40012300
 80031dc:	0f000001 	.word	0x0f000001

080031e0 <HAL_ADCEx_InjectedStart>:
  * @param  hadc pointer to a ADC_HandleTypeDef structure that contains
  *         the configuration information for the specified ADC.
  * @retval HAL status
  */
HAL_StatusTypeDef HAL_ADCEx_InjectedStart(ADC_HandleTypeDef *hadc)
{
 80031e0:	b480      	push	{r7}
 80031e2:	b087      	sub	sp, #28
 80031e4:	af00      	add	r7, sp, #0
 80031e6:	6078      	str	r0, [r7, #4]
  __IO uint32_t counter = 0U;
 80031e8:	2300      	movs	r3, #0
 80031ea:	60bb      	str	r3, [r7, #8]
  uint32_t tmp1 = 0U, tmp2 = 0U;
 80031ec:	2300      	movs	r3, #0
 80031ee:	617b      	str	r3, [r7, #20]
 80031f0:	2300      	movs	r3, #0
 80031f2:	613b      	str	r3, [r7, #16]
  ADC_Common_TypeDef *tmpADC_Common;

  /* Process locked */
  __HAL_LOCK(hadc);
 80031f4:	687b      	ldr	r3, [r7, #4]
 80031f6:	f893 303c 	ldrb.w	r3, [r3, #60]	@ 0x3c
 80031fa:	2b01      	cmp	r3, #1
 80031fc:	d101      	bne.n	8003202 <HAL_ADCEx_InjectedStart+0x22>
 80031fe:	2302      	movs	r3, #2
 8003200:	e0aa      	b.n	8003358 <HAL_ADCEx_InjectedStart+0x178>
 8003202:	687b      	ldr	r3, [r7, #4]
 8003204:	2201      	movs	r2, #1
 8003206:	f883 203c 	strb.w	r2, [r3, #60]	@ 0x3c

  /* Enable the ADC peripheral */

  /* Check if ADC peripheral is disabled in order to enable it and wait during
     Tstab time the ADC's stabilization */
  if ((hadc->Instance->CR2 & ADC_CR2_ADON) != ADC_CR2_ADON)
 800320a:	687b      	ldr	r3, [r7, #4]
 800320c:	681b      	ldr	r3, [r3, #0]
 800320e:	689b      	ldr	r3, [r3, #8]
 8003210:	f003 0301 	and.w	r3, r3, #1
 8003214:	2b01      	cmp	r3, #1
 8003216:	d018      	beq.n	800324a <HAL_ADCEx_InjectedStart+0x6a>
  {
    /* Enable the Peripheral */
    __HAL_ADC_ENABLE(hadc);
 8003218:	687b      	ldr	r3, [r7, #4]
 800321a:	681b      	ldr	r3, [r3, #0]
 800321c:	689a      	ldr	r2, [r3, #8]
 800321e:	687b      	ldr	r3, [r7, #4]
 8003220:	681b      	ldr	r3, [r3, #0]
 8003222:	f042 0201 	orr.w	r2, r2, #1
 8003226:	609a      	str	r2, [r3, #8]

    /* Delay for ADC stabilization time */
    /* Compute number of CPU cycles to wait for */
    counter = (ADC_STAB_DELAY_US * (SystemCoreClock / 1000000U));
 8003228:	4b4e      	ldr	r3, [pc, #312]	@ (8003364 <HAL_ADCEx_InjectedStart+0x184>)
 800322a:	681b      	ldr	r3, [r3, #0]
 800322c:	4a4e      	ldr	r2, [pc, #312]	@ (8003368 <HAL_ADCEx_InjectedStart+0x188>)
 800322e:	fba2 2303 	umull	r2, r3, r2, r3
 8003232:	0c9a      	lsrs	r2, r3, #18
 8003234:	4613      	mov	r3, r2
 8003236:	005b      	lsls	r3, r3, #1
 8003238:	4413      	add	r3, r2
 800323a:	60bb      	str	r3, [r7, #8]
    while (counter != 0U)
 800323c:	e002      	b.n	8003244 <HAL_ADCEx_InjectedStart+0x64>
    {
      counter--;
 800323e:	68bb      	ldr	r3, [r7, #8]
 8003240:	3b01      	subs	r3, #1
 8003242:	60bb      	str	r3, [r7, #8]
    while (counter != 0U)
 8003244:	68bb      	ldr	r3, [r7, #8]
 8003246:	2b00      	cmp	r3, #0
 8003248:	d1f9      	bne.n	800323e <HAL_ADCEx_InjectedStart+0x5e>
    }
  }

  /* Start conversion if ADC is effectively enabled */
  if (HAL_IS_BIT_SET(hadc->Instance->CR2, ADC_CR2_ADON))
 800324a:	687b      	ldr	r3, [r7, #4]
 800324c:	681b      	ldr	r3, [r3, #0]
 800324e:	689b      	ldr	r3, [r3, #8]
 8003250:	f003 0301 	and.w	r3, r3, #1
 8003254:	2b01      	cmp	r3, #1
 8003256:	d172      	bne.n	800333e <HAL_ADCEx_InjectedStart+0x15e>
  {
    /* Set ADC state                                                          */
    /* - Clear state bitfield related to injected group conversion results    */
    /* - Set state bitfield related to injected operation                     */
    ADC_STATE_CLR_SET(hadc->State,
 8003258:	687b      	ldr	r3, [r7, #4]
 800325a:	6c1b      	ldr	r3, [r3, #64]	@ 0x40
 800325c:	f423 5340 	bic.w	r3, r3, #12288	@ 0x3000
 8003260:	f023 0301 	bic.w	r3, r3, #1
 8003264:	f443 5280 	orr.w	r2, r3, #4096	@ 0x1000
 8003268:	687b      	ldr	r3, [r7, #4]
 800326a:	641a      	str	r2, [r3, #64]	@ 0x40

    /* Check if a regular conversion is ongoing */
    /* Note: On this device, there is no ADC error code fields related to     */
    /*       conversions on group injected only. In case of conversion on     */
    /*       going on group regular, no error code is reset.                  */
    if (HAL_IS_BIT_CLR(hadc->State, HAL_ADC_STATE_REG_BUSY))
 800326c:	687b      	ldr	r3, [r7, #4]
 800326e:	6c1b      	ldr	r3, [r3, #64]	@ 0x40
 8003270:	f403 7380 	and.w	r3, r3, #256	@ 0x100
 8003274:	2b00      	cmp	r3, #0
 8003276:	d102      	bne.n	800327e <HAL_ADCEx_InjectedStart+0x9e>
    {
      /* Reset ADC all error code fields */
      ADC_CLEAR_ERRORCODE(hadc);
 8003278:	687b      	ldr	r3, [r7, #4]
 800327a:	2200      	movs	r2, #0
 800327c:	645a      	str	r2, [r3, #68]	@ 0x44
    }

    /* Process unlocked */
    /* Unlock before starting ADC conversions: in case of potential           */
    /* interruption, to let the process to ADC IRQ Handler.                   */
    __HAL_UNLOCK(hadc);
 800327e:	687b      	ldr	r3, [r7, #4]
 8003280:	2200      	movs	r2, #0
 8003282:	f883 203c 	strb.w	r2, [r3, #60]	@ 0x3c

    /* Clear injected group conversion flag */
    /* (To ensure of no unknown state from potential previous ADC operations) */
    __HAL_ADC_CLEAR_FLAG(hadc, ADC_FLAG_JEOC);
 8003286:	687b      	ldr	r3, [r7, #4]
 8003288:	681b      	ldr	r3, [r3, #0]
 800328a:	f06f 0204 	mvn.w	r2, #4
 800328e:	601a      	str	r2, [r3, #0]

    /* Pointer to the common control register to which is belonging hadc    */
    /* (Depending on STM32F4 product, there may be up to 3 ADC and 1 common */
    /* control register)                                                    */
    tmpADC_Common = ADC_COMMON_REGISTER(hadc);
 8003290:	4b36      	ldr	r3, [pc, #216]	@ (800336c <HAL_ADCEx_InjectedStart+0x18c>)
 8003292:	60fb      	str	r3, [r7, #12]

    /* Check if Multimode enabled */
    if (HAL_IS_BIT_CLR(tmpADC_Common->CCR, ADC_CCR_MULTI))
 8003294:	68fb      	ldr	r3, [r7, #12]
 8003296:	685b      	ldr	r3, [r3, #4]
 8003298:	f003 031f 	and.w	r3, r3, #31
 800329c:	2b00      	cmp	r3, #0
 800329e:	d124      	bne.n	80032ea <HAL_ADCEx_InjectedStart+0x10a>
    {
      tmp1 = HAL_IS_BIT_CLR(hadc->Instance->CR2, ADC_CR2_JEXTEN);
 80032a0:	687b      	ldr	r3, [r7, #4]
 80032a2:	681b      	ldr	r3, [r3, #0]
 80032a4:	689b      	ldr	r3, [r3, #8]
 80032a6:	f403 1340 	and.w	r3, r3, #3145728	@ 0x300000
 80032aa:	2b00      	cmp	r3, #0
 80032ac:	bf0c      	ite	eq
 80032ae:	2301      	moveq	r3, #1
 80032b0:	2300      	movne	r3, #0
 80032b2:	b2db      	uxtb	r3, r3
 80032b4:	617b      	str	r3, [r7, #20]
      tmp2 = HAL_IS_BIT_CLR(hadc->Instance->CR1, ADC_CR1_JAUTO);
 80032b6:	687b      	ldr	r3, [r7, #4]
 80032b8:	681b      	ldr	r3, [r3, #0]
 80032ba:	685b      	ldr	r3, [r3, #4]
 80032bc:	f403 6380 	and.w	r3, r3, #1024	@ 0x400
 80032c0:	2b00      	cmp	r3, #0
 80032c2:	bf0c      	ite	eq
 80032c4:	2301      	moveq	r3, #1
 80032c6:	2300      	movne	r3, #0
 80032c8:	b2db      	uxtb	r3, r3
 80032ca:	613b      	str	r3, [r7, #16]
      if (tmp1 && tmp2)
 80032cc:	697b      	ldr	r3, [r7, #20]
 80032ce:	2b00      	cmp	r3, #0
 80032d0:	d041      	beq.n	8003356 <HAL_ADCEx_InjectedStart+0x176>
 80032d2:	693b      	ldr	r3, [r7, #16]
 80032d4:	2b00      	cmp	r3, #0
 80032d6:	d03e      	beq.n	8003356 <HAL_ADCEx_InjectedStart+0x176>
      {
        /* Enable the selected ADC software conversion for injected group */
        hadc->Instance->CR2 |= ADC_CR2_JSWSTART;
 80032d8:	687b      	ldr	r3, [r7, #4]
 80032da:	681b      	ldr	r3, [r3, #0]
 80032dc:	689a      	ldr	r2, [r3, #8]
 80032de:	687b      	ldr	r3, [r7, #4]
 80032e0:	681b      	ldr	r3, [r3, #0]
 80032e2:	f442 0280 	orr.w	r2, r2, #4194304	@ 0x400000
 80032e6:	609a      	str	r2, [r3, #8]
 80032e8:	e035      	b.n	8003356 <HAL_ADCEx_InjectedStart+0x176>
      }
    }
    else
    {
      tmp1 = HAL_IS_BIT_CLR(hadc->Instance->CR2, ADC_CR2_JEXTEN);
 80032ea:	687b      	ldr	r3, [r7, #4]
 80032ec:	681b      	ldr	r3, [r3, #0]
 80032ee:	689b      	ldr	r3, [r3, #8]
 80032f0:	f403 1340 	and.w	r3, r3, #3145728	@ 0x300000
 80032f4:	2b00      	cmp	r3, #0
 80032f6:	bf0c      	ite	eq
 80032f8:	2301      	moveq	r3, #1
 80032fa:	2300      	movne	r3, #0
 80032fc:	b2db      	uxtb	r3, r3
 80032fe:	617b      	str	r3, [r7, #20]
      tmp2 = HAL_IS_BIT_CLR(hadc->Instance->CR1, ADC_CR1_JAUTO);
 8003300:	687b      	ldr	r3, [r7, #4]
 8003302:	681b      	ldr	r3, [r3, #0]
 8003304:	685b      	ldr	r3, [r3, #4]
 8003306:	f403 6380 	and.w	r3, r3, #1024	@ 0x400
 800330a:	2b00      	cmp	r3, #0
 800330c:	bf0c      	ite	eq
 800330e:	2301      	moveq	r3, #1
 8003310:	2300      	movne	r3, #0
 8003312:	b2db      	uxtb	r3, r3
 8003314:	613b      	str	r3, [r7, #16]
      if ((hadc->Instance == ADC1) && tmp1 && tmp2)
 8003316:	687b      	ldr	r3, [r7, #4]
 8003318:	681b      	ldr	r3, [r3, #0]
 800331a:	4a15      	ldr	r2, [pc, #84]	@ (8003370 <HAL_ADCEx_InjectedStart+0x190>)
 800331c:	4293      	cmp	r3, r2
 800331e:	d11a      	bne.n	8003356 <HAL_ADCEx_InjectedStart+0x176>
 8003320:	697b      	ldr	r3, [r7, #20]
 8003322:	2b00      	cmp	r3, #0
 8003324:	d017      	beq.n	8003356 <HAL_ADCEx_InjectedStart+0x176>
 8003326:	693b      	ldr	r3, [r7, #16]
 8003328:	2b00      	cmp	r3, #0
 800332a:	d014      	beq.n	8003356 <HAL_ADCEx_InjectedStart+0x176>
      {
        /* Enable the selected ADC software conversion for injected group */
        hadc->Instance->CR2 |= ADC_CR2_JSWSTART;
 800332c:	687b      	ldr	r3, [r7, #4]
 800332e:	681b      	ldr	r3, [r3, #0]
 8003330:	689a      	ldr	r2, [r3, #8]
 8003332:	687b      	ldr	r3, [r7, #4]
 8003334:	681b      	ldr	r3, [r3, #0]
 8003336:	f442 0280 	orr.w	r2, r2, #4194304	@ 0x400000
 800333a:	609a      	str	r2, [r3, #8]
 800333c:	e00b      	b.n	8003356 <HAL_ADCEx_InjectedStart+0x176>
    }
  }
  else
  {
    /* Update ADC state machine to error */
    SET_BIT(hadc->State, HAL_ADC_STATE_ERROR_INTERNAL);
 800333e:	687b      	ldr	r3, [r7, #4]
 8003340:	6c1b      	ldr	r3, [r3, #64]	@ 0x40
 8003342:	f043 0210 	orr.w	r2, r3, #16
 8003346:	687b      	ldr	r3, [r7, #4]
 8003348:	641a      	str	r2, [r3, #64]	@ 0x40

    /* Set ADC error code to ADC IP internal error */
    SET_BIT(hadc->ErrorCode, HAL_ADC_ERROR_INTERNAL);
 800334a:	687b      	ldr	r3, [r7, #4]
 800334c:	6c5b      	ldr	r3, [r3, #68]	@ 0x44
 800334e:	f043 0201 	orr.w	r2, r3, #1
 8003352:	687b      	ldr	r3, [r7, #4]
 8003354:	645a      	str	r2, [r3, #68]	@ 0x44
  }

  /* Return function status */
  return HAL_OK;
 8003356:	2300      	movs	r3, #0
}
 8003358:	4618      	mov	r0, r3
 800335a:	371c      	adds	r7, #28
 800335c:	46bd      	mov	sp, r7
 800335e:	f85d 7b04 	ldr.w	r7, [sp], #4
 8003362:	4770      	bx	lr
 8003364:	20000000 	.word	0x20000000
 8003368:	431bde83 	.word	0x431bde83
 800336c:	40012300 	.word	0x40012300
 8003370:	40012000 	.word	0x40012000

08003374 <HAL_CAN_Init>:
  * @param  hcan pointer to a CAN_HandleTypeDef structure that contains
  *         the configuration information for the specified CAN.
  * @retval HAL status
  */
HAL_StatusTypeDef HAL_CAN_Init(CAN_HandleTypeDef *hcan)
{
 8003374:	b580      	push	{r7, lr}
 8003376:	b084      	sub	sp, #16
 8003378:	af00      	add	r7, sp, #0
 800337a:	6078      	str	r0, [r7, #4]
  uint32_t tickstart;

  /* Check CAN handle */
  if (hcan == NULL)
 800337c:	687b      	ldr	r3, [r7, #4]
 800337e:	2b00      	cmp	r3, #0
 8003380:	d101      	bne.n	8003386 <HAL_CAN_Init+0x12>
  {
    return HAL_ERROR;
 8003382:	2301      	movs	r3, #1
 8003384:	e0ed      	b.n	8003562 <HAL_CAN_Init+0x1ee>
    /* Init the low level hardware: CLOCK, NVIC */
    hcan->MspInitCallback(hcan);
  }

#else
  if (hcan->State == HAL_CAN_STATE_RESET)
 8003386:	687b      	ldr	r3, [r7, #4]
 8003388:	f893 3020 	ldrb.w	r3, [r3, #32]
 800338c:	b2db      	uxtb	r3, r3
 800338e:	2b00      	cmp	r3, #0
 8003390:	d102      	bne.n	8003398 <HAL_CAN_Init+0x24>
  {
    /* Init the low level hardware: CLOCK, NVIC */
    HAL_CAN_MspInit(hcan);
 8003392:	6878      	ldr	r0, [r7, #4]
 8003394:	f7ff f884 	bl	80024a0 <HAL_CAN_MspInit>
  }
#endif /* USE_HAL_CAN_REGISTER_CALLBACKS */

  /* Request initialisation */
  SET_BIT(hcan->Instance->MCR, CAN_MCR_INRQ);
 8003398:	687b      	ldr	r3, [r7, #4]
 800339a:	681b      	ldr	r3, [r3, #0]
 800339c:	681a      	ldr	r2, [r3, #0]
 800339e:	687b      	ldr	r3, [r7, #4]
 80033a0:	681b      	ldr	r3, [r3, #0]
 80033a2:	f042 0201 	orr.w	r2, r2, #1
 80033a6:	601a      	str	r2, [r3, #0]

  /* Get tick */
  tickstart = HAL_GetTick();
 80033a8:	f7ff fb0e 	bl	80029c8 <HAL_GetTick>
 80033ac:	60f8      	str	r0, [r7, #12]

  /* Wait initialisation acknowledge */
  while ((hcan->Instance->MSR & CAN_MSR_INAK) == 0U)
 80033ae:	e012      	b.n	80033d6 <HAL_CAN_Init+0x62>
  {
    if ((HAL_GetTick() - tickstart) > CAN_TIMEOUT_VALUE)
 80033b0:	f7ff fb0a 	bl	80029c8 <HAL_GetTick>
 80033b4:	4602      	mov	r2, r0
 80033b6:	68fb      	ldr	r3, [r7, #12]
 80033b8:	1ad3      	subs	r3, r2, r3
 80033ba:	2b0a      	cmp	r3, #10
 80033bc:	d90b      	bls.n	80033d6 <HAL_CAN_Init+0x62>
    {
      /* Update error code */
      hcan->ErrorCode |= HAL_CAN_ERROR_TIMEOUT;
 80033be:	687b      	ldr	r3, [r7, #4]
 80033c0:	6a5b      	ldr	r3, [r3, #36]	@ 0x24
 80033c2:	f443 3200 	orr.w	r2, r3, #131072	@ 0x20000
 80033c6:	687b      	ldr	r3, [r7, #4]
 80033c8:	625a      	str	r2, [r3, #36]	@ 0x24

      /* Change CAN state */
      hcan->State = HAL_CAN_STATE_ERROR;
 80033ca:	687b      	ldr	r3, [r7, #4]
 80033cc:	2205      	movs	r2, #5
 80033ce:	f883 2020 	strb.w	r2, [r3, #32]

      return HAL_ERROR;
 80033d2:	2301      	movs	r3, #1
 80033d4:	e0c5      	b.n	8003562 <HAL_CAN_Init+0x1ee>
  while ((hcan->Instance->MSR & CAN_MSR_INAK) == 0U)
 80033d6:	687b      	ldr	r3, [r7, #4]
 80033d8:	681b      	ldr	r3, [r3, #0]
 80033da:	685b      	ldr	r3, [r3, #4]
 80033dc:	f003 0301 	and.w	r3, r3, #1
 80033e0:	2b00      	cmp	r3, #0
 80033e2:	d0e5      	beq.n	80033b0 <HAL_CAN_Init+0x3c>
    }
  }

  /* Exit from sleep mode */
  CLEAR_BIT(hcan->Instance->MCR, CAN_MCR_SLEEP);
 80033e4:	687b      	ldr	r3, [r7, #4]
 80033e6:	681b      	ldr	r3, [r3, #0]
 80033e8:	681a      	ldr	r2, [r3, #0]
 80033ea:	687b      	ldr	r3, [r7, #4]
 80033ec:	681b      	ldr	r3, [r3, #0]
 80033ee:	f022 0202 	bic.w	r2, r2, #2
 80033f2:	601a      	str	r2, [r3, #0]

  /* Get tick */
  tickstart = HAL_GetTick();
 80033f4:	f7ff fae8 	bl	80029c8 <HAL_GetTick>
 80033f8:	60f8      	str	r0, [r7, #12]

  /* Check Sleep mode leave acknowledge */
  while ((hcan->Instance->MSR & CAN_MSR_SLAK) != 0U)
 80033fa:	e012      	b.n	8003422 <HAL_CAN_Init+0xae>
  {
    if ((HAL_GetTick() - tickstart) > CAN_TIMEOUT_VALUE)
 80033fc:	f7ff fae4 	bl	80029c8 <HAL_GetTick>
 8003400:	4602      	mov	r2, r0
 8003402:	68fb      	ldr	r3, [r7, #12]
 8003404:	1ad3      	subs	r3, r2, r3
 8003406:	2b0a      	cmp	r3, #10
 8003408:	d90b      	bls.n	8003422 <HAL_CAN_Init+0xae>
    {
      /* Update error code */
      hcan->ErrorCode |= HAL_CAN_ERROR_TIMEOUT;
 800340a:	687b      	ldr	r3, [r7, #4]
 800340c:	6a5b      	ldr	r3, [r3, #36]	@ 0x24
 800340e:	f443 3200 	orr.w	r2, r3, #131072	@ 0x20000
 8003412:	687b      	ldr	r3, [r7, #4]
 8003414:	625a      	str	r2, [r3, #36]	@ 0x24

      /* Change CAN state */
      hcan->State = HAL_CAN_STATE_ERROR;
 8003416:	687b      	ldr	r3, [r7, #4]
 8003418:	2205      	movs	r2, #5
 800341a:	f883 2020 	strb.w	r2, [r3, #32]

      return HAL_ERROR;
 800341e:	2301      	movs	r3, #1
 8003420:	e09f      	b.n	8003562 <HAL_CAN_Init+0x1ee>
  while ((hcan->Instance->MSR & CAN_MSR_SLAK) != 0U)
 8003422:	687b      	ldr	r3, [r7, #4]
 8003424:	681b      	ldr	r3, [r3, #0]
 8003426:	685b      	ldr	r3, [r3, #4]
 8003428:	f003 0302 	and.w	r3, r3, #2
 800342c:	2b00      	cmp	r3, #0
 800342e:	d1e5      	bne.n	80033fc <HAL_CAN_Init+0x88>
    }
  }

  /* Set the time triggered communication mode */
  if (hcan->Init.TimeTriggeredMode == ENABLE)
 8003430:	687b      	ldr	r3, [r7, #4]
 8003432:	7e1b      	ldrb	r3, [r3, #24]
 8003434:	2b01      	cmp	r3, #1
 8003436:	d108      	bne.n	800344a <HAL_CAN_Init+0xd6>
  {
    SET_BIT(hcan->Instance->MCR, CAN_MCR_TTCM);
 8003438:	687b      	ldr	r3, [r7, #4]
 800343a:	681b      	ldr	r3, [r3, #0]
 800343c:	681a      	ldr	r2, [r3, #0]
 800343e:	687b      	ldr	r3, [r7, #4]
 8003440:	681b      	ldr	r3, [r3, #0]
 8003442:	f042 0280 	orr.w	r2, r2, #128	@ 0x80
 8003446:	601a      	str	r2, [r3, #0]
 8003448:	e007      	b.n	800345a <HAL_CAN_Init+0xe6>
  }
  else
  {
    CLEAR_BIT(hcan->Instance->MCR, CAN_MCR_TTCM);
 800344a:	687b      	ldr	r3, [r7, #4]
 800344c:	681b      	ldr	r3, [r3, #0]
 800344e:	681a      	ldr	r2, [r3, #0]
 8003450:	687b      	ldr	r3, [r7, #4]
 8003452:	681b      	ldr	r3, [r3, #0]
 8003454:	f022 0280 	bic.w	r2, r2, #128	@ 0x80
 8003458:	601a      	str	r2, [r3, #0]
  }

  /* Set the automatic bus-off management */
  if (hcan->Init.AutoBusOff == ENABLE)
 800345a:	687b      	ldr	r3, [r7, #4]
 800345c:	7e5b      	ldrb	r3, [r3, #25]
 800345e:	2b01      	cmp	r3, #1
 8003460:	d108      	bne.n	8003474 <HAL_CAN_Init+0x100>
  {
    SET_BIT(hcan->Instance->MCR, CAN_MCR_ABOM);
 8003462:	687b      	ldr	r3, [r7, #4]
 8003464:	681b      	ldr	r3, [r3, #0]
 8003466:	681a      	ldr	r2, [r3, #0]
 8003468:	687b      	ldr	r3, [r7, #4]
 800346a:	681b      	ldr	r3, [r3, #0]
 800346c:	f042 0240 	orr.w	r2, r2, #64	@ 0x40
 8003470:	601a      	str	r2, [r3, #0]
 8003472:	e007      	b.n	8003484 <HAL_CAN_Init+0x110>
  }
  else
  {
    CLEAR_BIT(hcan->Instance->MCR, CAN_MCR_ABOM);
 8003474:	687b      	ldr	r3, [r7, #4]
 8003476:	681b      	ldr	r3, [r3, #0]
 8003478:	681a      	ldr	r2, [r3, #0]
 800347a:	687b      	ldr	r3, [r7, #4]
 800347c:	681b      	ldr	r3, [r3, #0]
 800347e:	f022 0240 	bic.w	r2, r2, #64	@ 0x40
 8003482:	601a      	str	r2, [r3, #0]
  }

  /* Set the automatic wake-up mode */
  if (hcan->Init.AutoWakeUp == ENABLE)
 8003484:	687b      	ldr	r3, [r7, #4]
 8003486:	7e9b      	ldrb	r3, [r3, #26]
 8003488:	2b01      	cmp	r3, #1
 800348a:	d108      	bne.n	800349e <HAL_CAN_Init+0x12a>
  {
    SET_BIT(hcan->Instance->MCR, CAN_MCR_AWUM);
 800348c:	687b      	ldr	r3, [r7, #4]
 800348e:	681b      	ldr	r3, [r3, #0]
 8003490:	681a      	ldr	r2, [r3, #0]
 8003492:	687b      	ldr	r3, [r7, #4]
 8003494:	681b      	ldr	r3, [r3, #0]
 8003496:	f042 0220 	orr.w	r2, r2, #32
 800349a:	601a      	str	r2, [r3, #0]
 800349c:	e007      	b.n	80034ae <HAL_CAN_Init+0x13a>
  }
  else
  {
    CLEAR_BIT(hcan->Instance->MCR, CAN_MCR_AWUM);
 800349e:	687b      	ldr	r3, [r7, #4]
 80034a0:	681b      	ldr	r3, [r3, #0]
 80034a2:	681a      	ldr	r2, [r3, #0]
 80034a4:	687b      	ldr	r3, [r7, #4]
 80034a6:	681b      	ldr	r3, [r3, #0]
 80034a8:	f022 0220 	bic.w	r2, r2, #32
 80034ac:	601a      	str	r2, [r3, #0]
  }

  /* Set the automatic retransmission */
  if (hcan->Init.AutoRetransmission == ENABLE)
 80034ae:	687b      	ldr	r3, [r7, #4]
 80034b0:	7edb      	ldrb	r3, [r3, #27]
 80034b2:	2b01      	cmp	r3, #1
 80034b4:	d108      	bne.n	80034c8 <HAL_CAN_Init+0x154>
  {
    CLEAR_BIT(hcan->Instance->MCR, CAN_MCR_NART);
 80034b6:	687b      	ldr	r3, [r7, #4]
 80034b8:	681b      	ldr	r3, [r3, #0]
 80034ba:	681a      	ldr	r2, [r3, #0]
 80034bc:	687b      	ldr	r3, [r7, #4]
 80034be:	681b      	ldr	r3, [r3, #0]
 80034c0:	f022 0210 	bic.w	r2, r2, #16
 80034c4:	601a      	str	r2, [r3, #0]
 80034c6:	e007      	b.n	80034d8 <HAL_CAN_Init+0x164>
  }
  else
  {
    SET_BIT(hcan->Instance->MCR, CAN_MCR_NART);
 80034c8:	687b      	ldr	r3, [r7, #4]
 80034ca:	681b      	ldr	r3, [r3, #0]
 80034cc:	681a      	ldr	r2, [r3, #0]
 80034ce:	687b      	ldr	r3, [r7, #4]
 80034d0:	681b      	ldr	r3, [r3, #0]
 80034d2:	f042 0210 	orr.w	r2, r2, #16
 80034d6:	601a      	str	r2, [r3, #0]
  }

  /* Set the receive FIFO locked mode */
  if (hcan->Init.ReceiveFifoLocked == ENABLE)
 80034d8:	687b      	ldr	r3, [r7, #4]
 80034da:	7f1b      	ldrb	r3, [r3, #28]
 80034dc:	2b01      	cmp	r3, #1
 80034de:	d108      	bne.n	80034f2 <HAL_CAN_Init+0x17e>
  {
    SET_BIT(hcan->Instance->MCR, CAN_MCR_RFLM);
 80034e0:	687b      	ldr	r3, [r7, #4]
 80034e2:	681b      	ldr	r3, [r3, #0]
 80034e4:	681a      	ldr	r2, [r3, #0]
 80034e6:	687b      	ldr	r3, [r7, #4]
 80034e8:	681b      	ldr	r3, [r3, #0]
 80034ea:	f042 0208 	orr.w	r2, r2, #8
 80034ee:	601a      	str	r2, [r3, #0]
 80034f0:	e007      	b.n	8003502 <HAL_CAN_Init+0x18e>
  }
  else
  {
    CLEAR_BIT(hcan->Instance->MCR, CAN_MCR_RFLM);
 80034f2:	687b      	ldr	r3, [r7, #4]
 80034f4:	681b      	ldr	r3, [r3, #0]
 80034f6:	681a      	ldr	r2, [r3, #0]
 80034f8:	687b      	ldr	r3, [r7, #4]
 80034fa:	681b      	ldr	r3, [r3, #0]
 80034fc:	f022 0208 	bic.w	r2, r2, #8
 8003500:	601a      	str	r2, [r3, #0]
  }

  /* Set the transmit FIFO priority */
  if (hcan->Init.TransmitFifoPriority == ENABLE)
 8003502:	687b      	ldr	r3, [r7, #4]
 8003504:	7f5b      	ldrb	r3, [r3, #29]
 8003506:	2b01      	cmp	r3, #1
 8003508:	d108      	bne.n	800351c <HAL_CAN_Init+0x1a8>
  {
    SET_BIT(hcan->Instance->MCR, CAN_MCR_TXFP);
 800350a:	687b      	ldr	r3, [r7, #4]
 800350c:	681b      	ldr	r3, [r3, #0]
 800350e:	681a      	ldr	r2, [r3, #0]
 8003510:	687b      	ldr	r3, [r7, #4]
 8003512:	681b      	ldr	r3, [r3, #0]
 8003514:	f042 0204 	orr.w	r2, r2, #4
 8003518:	601a      	str	r2, [r3, #0]
 800351a:	e007      	b.n	800352c <HAL_CAN_Init+0x1b8>
  }
  else
  {
    CLEAR_BIT(hcan->Instance->MCR, CAN_MCR_TXFP);
 800351c:	687b      	ldr	r3, [r7, #4]
 800351e:	681b      	ldr	r3, [r3, #0]
 8003520:	681a      	ldr	r2, [r3, #0]
 8003522:	687b      	ldr	r3, [r7, #4]
 8003524:	681b      	ldr	r3, [r3, #0]
 8003526:	f022 0204 	bic.w	r2, r2, #4
 800352a:	601a      	str	r2, [r3, #0]
  }

  /* Set the bit timing register */
  WRITE_REG(hcan->Instance->BTR, (uint32_t)(hcan->Init.Mode           |
 800352c:	687b      	ldr	r3, [r7, #4]
 800352e:	689a      	ldr	r2, [r3, #8]
 8003530:	687b      	ldr	r3, [r7, #4]
 8003532:	68db      	ldr	r3, [r3, #12]
 8003534:	431a      	orrs	r2, r3
 8003536:	687b      	ldr	r3, [r7, #4]
 8003538:	691b      	ldr	r3, [r3, #16]
 800353a:	431a      	orrs	r2, r3
 800353c:	687b      	ldr	r3, [r7, #4]
 800353e:	695b      	ldr	r3, [r3, #20]
 8003540:	ea42 0103 	orr.w	r1, r2, r3
 8003544:	687b      	ldr	r3, [r7, #4]
 8003546:	685b      	ldr	r3, [r3, #4]
 8003548:	1e5a      	subs	r2, r3, #1
 800354a:	687b      	ldr	r3, [r7, #4]
 800354c:	681b      	ldr	r3, [r3, #0]
 800354e:	430a      	orrs	r2, r1
 8003550:	61da      	str	r2, [r3, #28]
                                            hcan->Init.TimeSeg1       |
                                            hcan->Init.TimeSeg2       |
                                            (hcan->Init.Prescaler - 1U)));

  /* Initialize the error code */
  hcan->ErrorCode = HAL_CAN_ERROR_NONE;
 8003552:	687b      	ldr	r3, [r7, #4]
 8003554:	2200      	movs	r2, #0
 8003556:	625a      	str	r2, [r3, #36]	@ 0x24

  /* Initialize the CAN state */
  hcan->State = HAL_CAN_STATE_READY;
 8003558:	687b      	ldr	r3, [r7, #4]
 800355a:	2201      	movs	r2, #1
 800355c:	f883 2020 	strb.w	r2, [r3, #32]

  /* Return function status */
  return HAL_OK;
 8003560:	2300      	movs	r3, #0
}
 8003562:	4618      	mov	r0, r3
 8003564:	3710      	adds	r7, #16
 8003566:	46bd      	mov	sp, r7
 8003568:	bd80      	pop	{r7, pc}
	...

0800356c <HAL_CAN_ConfigFilter>:
  * @param  sFilterConfig pointer to a CAN_FilterTypeDef structure that
  *         contains the filter configuration information.
  * @retval None
  */
HAL_StatusTypeDef HAL_CAN_ConfigFilter(CAN_HandleTypeDef *hcan, const CAN_FilterTypeDef *sFilterConfig)
{
 800356c:	b480      	push	{r7}
 800356e:	b087      	sub	sp, #28
 8003570:	af00      	add	r7, sp, #0
 8003572:	6078      	str	r0, [r7, #4]
 8003574:	6039      	str	r1, [r7, #0]
  uint32_t filternbrbitpos;
  CAN_TypeDef *can_ip = hcan->Instance;
 8003576:	687b      	ldr	r3, [r7, #4]
 8003578:	681b      	ldr	r3, [r3, #0]
 800357a:	617b      	str	r3, [r7, #20]
  HAL_CAN_StateTypeDef state = hcan->State;
 800357c:	687b      	ldr	r3, [r7, #4]
 800357e:	f893 3020 	ldrb.w	r3, [r3, #32]
 8003582:	74fb      	strb	r3, [r7, #19]

  if ((state == HAL_CAN_STATE_READY) ||
 8003584:	7cfb      	ldrb	r3, [r7, #19]
 8003586:	2b01      	cmp	r3, #1
 8003588:	d003      	beq.n	8003592 <HAL_CAN_ConfigFilter+0x26>
 800358a:	7cfb      	ldrb	r3, [r7, #19]
 800358c:	2b02      	cmp	r3, #2
 800358e:	f040 80be 	bne.w	800370e <HAL_CAN_ConfigFilter+0x1a2>
      assert_param(IS_CAN_FILTER_BANK_DUAL(sFilterConfig->SlaveStartFilterBank));
    }
#elif defined(CAN2)
    /* CAN1 and CAN2 are dual instances with 28 common filters banks */
    /* Select master instance to access the filter banks */
    can_ip = CAN1;
 8003592:	4b65      	ldr	r3, [pc, #404]	@ (8003728 <HAL_CAN_ConfigFilter+0x1bc>)
 8003594:	617b      	str	r3, [r7, #20]
    /* Check the parameters */
    assert_param(IS_CAN_FILTER_BANK_SINGLE(sFilterConfig->FilterBank));
#endif /* CAN3 */

    /* Initialisation mode for the filter */
    SET_BIT(can_ip->FMR, CAN_FMR_FINIT);
 8003596:	697b      	ldr	r3, [r7, #20]
 8003598:	f8d3 3200 	ldr.w	r3, [r3, #512]	@ 0x200
 800359c:	f043 0201 	orr.w	r2, r3, #1
 80035a0:	697b      	ldr	r3, [r7, #20]
 80035a2:	f8c3 2200 	str.w	r2, [r3, #512]	@ 0x200
      SET_BIT(can_ip->FMR, sFilterConfig->SlaveStartFilterBank << CAN_FMR_CAN2SB_Pos);
    }

#elif defined(CAN2)
    /* Select the start filter number of CAN2 slave instance */
    CLEAR_BIT(can_ip->FMR, CAN_FMR_CAN2SB);
 80035a6:	697b      	ldr	r3, [r7, #20]
 80035a8:	f8d3 3200 	ldr.w	r3, [r3, #512]	@ 0x200
 80035ac:	f423 527c 	bic.w	r2, r3, #16128	@ 0x3f00
 80035b0:	697b      	ldr	r3, [r7, #20]
 80035b2:	f8c3 2200 	str.w	r2, [r3, #512]	@ 0x200
    SET_BIT(can_ip->FMR, sFilterConfig->SlaveStartFilterBank << CAN_FMR_CAN2SB_Pos);
 80035b6:	697b      	ldr	r3, [r7, #20]
 80035b8:	f8d3 2200 	ldr.w	r2, [r3, #512]	@ 0x200
 80035bc:	683b      	ldr	r3, [r7, #0]
 80035be:	6a5b      	ldr	r3, [r3, #36]	@ 0x24
 80035c0:	021b      	lsls	r3, r3, #8
 80035c2:	431a      	orrs	r2, r3
 80035c4:	697b      	ldr	r3, [r7, #20]
 80035c6:	f8c3 2200 	str.w	r2, [r3, #512]	@ 0x200

#endif /* CAN3 */
    /* Convert filter number into bit position */
    filternbrbitpos = (uint32_t)1 << (sFilterConfig->FilterBank & 0x1FU);
 80035ca:	683b      	ldr	r3, [r7, #0]
 80035cc:	695b      	ldr	r3, [r3, #20]
 80035ce:	f003 031f 	and.w	r3, r3, #31
 80035d2:	2201      	movs	r2, #1
 80035d4:	fa02 f303 	lsl.w	r3, r2, r3
 80035d8:	60fb      	str	r3, [r7, #12]

    /* Filter Deactivation */
    CLEAR_BIT(can_ip->FA1R, filternbrbitpos);
 80035da:	697b      	ldr	r3, [r7, #20]
 80035dc:	f8d3 221c 	ldr.w	r2, [r3, #540]	@ 0x21c
 80035e0:	68fb      	ldr	r3, [r7, #12]
 80035e2:	43db      	mvns	r3, r3
 80035e4:	401a      	ands	r2, r3
 80035e6:	697b      	ldr	r3, [r7, #20]
 80035e8:	f8c3 221c 	str.w	r2, [r3, #540]	@ 0x21c

    /* Filter Scale */
    if (sFilterConfig->FilterScale == CAN_FILTERSCALE_16BIT)
 80035ec:	683b      	ldr	r3, [r7, #0]
 80035ee:	69db      	ldr	r3, [r3, #28]
 80035f0:	2b00      	cmp	r3, #0
 80035f2:	d123      	bne.n	800363c <HAL_CAN_ConfigFilter+0xd0>
    {
      /* 16-bit scale for the filter */
      CLEAR_BIT(can_ip->FS1R, filternbrbitpos);
 80035f4:	697b      	ldr	r3, [r7, #20]
 80035f6:	f8d3 220c 	ldr.w	r2, [r3, #524]	@ 0x20c
 80035fa:	68fb      	ldr	r3, [r7, #12]
 80035fc:	43db      	mvns	r3, r3
 80035fe:	401a      	ands	r2, r3
 8003600:	697b      	ldr	r3, [r7, #20]
 8003602:	f8c3 220c 	str.w	r2, [r3, #524]	@ 0x20c

      /* First 16-bit identifier and First 16-bit mask */
      /* Or First 16-bit identifier and Second 16-bit identifier */
      can_ip->sFilterRegister[sFilterConfig->FilterBank].FR1 =
        ((0x0000FFFFU & (uint32_t)sFilterConfig->FilterMaskIdLow) << 16U) |
 8003606:	683b      	ldr	r3, [r7, #0]
 8003608:	68db      	ldr	r3, [r3, #12]
 800360a:	0419      	lsls	r1, r3, #16
        (0x0000FFFFU & (uint32_t)sFilterConfig->FilterIdLow);
 800360c:	683b      	ldr	r3, [r7, #0]
 800360e:	685b      	ldr	r3, [r3, #4]
 8003610:	b29b      	uxth	r3, r3
      can_ip->sFilterRegister[sFilterConfig->FilterBank].FR1 =
 8003612:	683a      	ldr	r2, [r7, #0]
 8003614:	6952      	ldr	r2, [r2, #20]
        ((0x0000FFFFU & (uint32_t)sFilterConfig->FilterMaskIdLow) << 16U) |
 8003616:	4319      	orrs	r1, r3
      can_ip->sFilterRegister[sFilterConfig->FilterBank].FR1 =
 8003618:	697b      	ldr	r3, [r7, #20]
 800361a:	3248      	adds	r2, #72	@ 0x48
 800361c:	f843 1032 	str.w	r1, [r3, r2, lsl #3]

      /* Second 16-bit identifier and Second 16-bit mask */
      /* Or Third 16-bit identifier and Fourth 16-bit identifier */
      can_ip->sFilterRegister[sFilterConfig->FilterBank].FR2 =
        ((0x0000FFFFU & (uint32_t)sFilterConfig->FilterMaskIdHigh) << 16U) |
 8003620:	683b      	ldr	r3, [r7, #0]
 8003622:	689b      	ldr	r3, [r3, #8]
 8003624:	0419      	lsls	r1, r3, #16
        (0x0000FFFFU & (uint32_t)sFilterConfig->FilterIdHigh);
 8003626:	683b      	ldr	r3, [r7, #0]
 8003628:	681b      	ldr	r3, [r3, #0]
 800362a:	b29a      	uxth	r2, r3
      can_ip->sFilterRegister[sFilterConfig->FilterBank].FR2 =
 800362c:	683b      	ldr	r3, [r7, #0]
 800362e:	695b      	ldr	r3, [r3, #20]
        ((0x0000FFFFU & (uint32_t)sFilterConfig->FilterMaskIdHigh) << 16U) |
 8003630:	430a      	orrs	r2, r1
      can_ip->sFilterRegister[sFilterConfig->FilterBank].FR2 =
 8003632:	6979      	ldr	r1, [r7, #20]
 8003634:	3348      	adds	r3, #72	@ 0x48
 8003636:	00db      	lsls	r3, r3, #3
 8003638:	440b      	add	r3, r1
 800363a:	605a      	str	r2, [r3, #4]
    }

    if (sFilterConfig->FilterScale == CAN_FILTERSCALE_32BIT)
 800363c:	683b      	ldr	r3, [r7, #0]
 800363e:	69db      	ldr	r3, [r3, #28]
 8003640:	2b01      	cmp	r3, #1
 8003642:	d122      	bne.n	800368a <HAL_CAN_ConfigFilter+0x11e>
    {
      /* 32-bit scale for the filter */
      SET_BIT(can_ip->FS1R, filternbrbitpos);
 8003644:	697b      	ldr	r3, [r7, #20]
 8003646:	f8d3 220c 	ldr.w	r2, [r3, #524]	@ 0x20c
 800364a:	68fb      	ldr	r3, [r7, #12]
 800364c:	431a      	orrs	r2, r3
 800364e:	697b      	ldr	r3, [r7, #20]
 8003650:	f8c3 220c 	str.w	r2, [r3, #524]	@ 0x20c

      /* 32-bit identifier or First 32-bit identifier */
      can_ip->sFilterRegister[sFilterConfig->FilterBank].FR1 =
        ((0x0000FFFFU & (uint32_t)sFilterConfig->FilterIdHigh) << 16U) |
 8003654:	683b      	ldr	r3, [r7, #0]
 8003656:	681b      	ldr	r3, [r3, #0]
 8003658:	0419      	lsls	r1, r3, #16
        (0x0000FFFFU & (uint32_t)sFilterConfig->FilterIdLow);
 800365a:	683b      	ldr	r3, [r7, #0]
 800365c:	685b      	ldr	r3, [r3, #4]
 800365e:	b29b      	uxth	r3, r3
      can_ip->sFilterRegister[sFilterConfig->FilterBank].FR1 =
 8003660:	683a      	ldr	r2, [r7, #0]
 8003662:	6952      	ldr	r2, [r2, #20]
        ((0x0000FFFFU & (uint32_t)sFilterConfig->FilterIdHigh) << 16U) |
 8003664:	4319      	orrs	r1, r3
      can_ip->sFilterRegister[sFilterConfig->FilterBank].FR1 =
 8003666:	697b      	ldr	r3, [r7, #20]
 8003668:	3248      	adds	r2, #72	@ 0x48
 800366a:	f843 1032 	str.w	r1, [r3, r2, lsl #3]

      /* 32-bit mask or Second 32-bit identifier */
      can_ip->sFilterRegister[sFilterConfig->FilterBank].FR2 =
        ((0x0000FFFFU & (uint32_t)sFilterConfig->FilterMaskIdHigh) << 16U) |
 800366e:	683b      	ldr	r3, [r7, #0]
 8003670:	689b      	ldr	r3, [r3, #8]
 8003672:	0419      	lsls	r1, r3, #16
        (0x0000FFFFU & (uint32_t)sFilterConfig->FilterMaskIdLow);
 8003674:	683b      	ldr	r3, [r7, #0]
 8003676:	68db      	ldr	r3, [r3, #12]
 8003678:	b29a      	uxth	r2, r3
      can_ip->sFilterRegister[sFilterConfig->FilterBank].FR2 =
 800367a:	683b      	ldr	r3, [r7, #0]
 800367c:	695b      	ldr	r3, [r3, #20]
        ((0x0000FFFFU & (uint32_t)sFilterConfig->FilterMaskIdHigh) << 16U) |
 800367e:	430a      	orrs	r2, r1
      can_ip->sFilterRegister[sFilterConfig->FilterBank].FR2 =
 8003680:	6979      	ldr	r1, [r7, #20]
 8003682:	3348      	adds	r3, #72	@ 0x48
 8003684:	00db      	lsls	r3, r3, #3
 8003686:	440b      	add	r3, r1
 8003688:	605a      	str	r2, [r3, #4]
    }

    /* Filter Mode */
    if (sFilterConfig->FilterMode == CAN_FILTERMODE_IDMASK)
 800368a:	683b      	ldr	r3, [r7, #0]
 800368c:	699b      	ldr	r3, [r3, #24]
 800368e:	2b00      	cmp	r3, #0
 8003690:	d109      	bne.n	80036a6 <HAL_CAN_ConfigFilter+0x13a>
    {
      /* Id/Mask mode for the filter*/
      CLEAR_BIT(can_ip->FM1R, filternbrbitpos);
 8003692:	697b      	ldr	r3, [r7, #20]
 8003694:	f8d3 2204 	ldr.w	r2, [r3, #516]	@ 0x204
 8003698:	68fb      	ldr	r3, [r7, #12]
 800369a:	43db      	mvns	r3, r3
 800369c:	401a      	ands	r2, r3
 800369e:	697b      	ldr	r3, [r7, #20]
 80036a0:	f8c3 2204 	str.w	r2, [r3, #516]	@ 0x204
 80036a4:	e007      	b.n	80036b6 <HAL_CAN_ConfigFilter+0x14a>
    }
    else /* CAN_FilterInitStruct->CAN_FilterMode == CAN_FilterMode_IdList */
    {
      /* Identifier list mode for the filter*/
      SET_BIT(can_ip->FM1R, filternbrbitpos);
 80036a6:	697b      	ldr	r3, [r7, #20]
 80036a8:	f8d3 2204 	ldr.w	r2, [r3, #516]	@ 0x204
 80036ac:	68fb      	ldr	r3, [r7, #12]
 80036ae:	431a      	orrs	r2, r3
 80036b0:	697b      	ldr	r3, [r7, #20]
 80036b2:	f8c3 2204 	str.w	r2, [r3, #516]	@ 0x204
    }

    /* Filter FIFO assignment */
    if (sFilterConfig->FilterFIFOAssignment == CAN_FILTER_FIFO0)
 80036b6:	683b      	ldr	r3, [r7, #0]
 80036b8:	691b      	ldr	r3, [r3, #16]
 80036ba:	2b00      	cmp	r3, #0
 80036bc:	d109      	bne.n	80036d2 <HAL_CAN_ConfigFilter+0x166>
    {
      /* FIFO 0 assignation for the filter */
      CLEAR_BIT(can_ip->FFA1R, filternbrbitpos);
 80036be:	697b      	ldr	r3, [r7, #20]
 80036c0:	f8d3 2214 	ldr.w	r2, [r3, #532]	@ 0x214
 80036c4:	68fb      	ldr	r3, [r7, #12]
 80036c6:	43db      	mvns	r3, r3
 80036c8:	401a      	ands	r2, r3
 80036ca:	697b      	ldr	r3, [r7, #20]
 80036cc:	f8c3 2214 	str.w	r2, [r3, #532]	@ 0x214
 80036d0:	e007      	b.n	80036e2 <HAL_CAN_ConfigFilter+0x176>
    }
    else
    {
      /* FIFO 1 assignation for the filter */
      SET_BIT(can_ip->FFA1R, filternbrbitpos);
 80036d2:	697b      	ldr	r3, [r7, #20]
 80036d4:	f8d3 2214 	ldr.w	r2, [r3, #532]	@ 0x214
 80036d8:	68fb      	ldr	r3, [r7, #12]
 80036da:	431a      	orrs	r2, r3
 80036dc:	697b      	ldr	r3, [r7, #20]
 80036de:	f8c3 2214 	str.w	r2, [r3, #532]	@ 0x214
    }

    /* Filter activation */
    if (sFilterConfig->FilterActivation == CAN_FILTER_ENABLE)
 80036e2:	683b      	ldr	r3, [r7, #0]
 80036e4:	6a1b      	ldr	r3, [r3, #32]
 80036e6:	2b01      	cmp	r3, #1
 80036e8:	d107      	bne.n	80036fa <HAL_CAN_ConfigFilter+0x18e>
    {
      SET_BIT(can_ip->FA1R, filternbrbitpos);
 80036ea:	697b      	ldr	r3, [r7, #20]
 80036ec:	f8d3 221c 	ldr.w	r2, [r3, #540]	@ 0x21c
 80036f0:	68fb      	ldr	r3, [r7, #12]
 80036f2:	431a      	orrs	r2, r3
 80036f4:	697b      	ldr	r3, [r7, #20]
 80036f6:	f8c3 221c 	str.w	r2, [r3, #540]	@ 0x21c
    }

    /* Leave the initialisation mode for the filter */
    CLEAR_BIT(can_ip->FMR, CAN_FMR_FINIT);
 80036fa:	697b      	ldr	r3, [r7, #20]
 80036fc:	f8d3 3200 	ldr.w	r3, [r3, #512]	@ 0x200
 8003700:	f023 0201 	bic.w	r2, r3, #1
 8003704:	697b      	ldr	r3, [r7, #20]
 8003706:	f8c3 2200 	str.w	r2, [r3, #512]	@ 0x200

    /* Return function status */
    return HAL_OK;
 800370a:	2300      	movs	r3, #0
 800370c:	e006      	b.n	800371c <HAL_CAN_ConfigFilter+0x1b0>
  }
  else
  {
    /* Update error code */
    hcan->ErrorCode |= HAL_CAN_ERROR_NOT_INITIALIZED;
 800370e:	687b      	ldr	r3, [r7, #4]
 8003710:	6a5b      	ldr	r3, [r3, #36]	@ 0x24
 8003712:	f443 2280 	orr.w	r2, r3, #262144	@ 0x40000
 8003716:	687b      	ldr	r3, [r7, #4]
 8003718:	625a      	str	r2, [r3, #36]	@ 0x24

    return HAL_ERROR;
 800371a:	2301      	movs	r3, #1
  }
}
 800371c:	4618      	mov	r0, r3
 800371e:	371c      	adds	r7, #28
 8003720:	46bd      	mov	sp, r7
 8003722:	f85d 7b04 	ldr.w	r7, [sp], #4
 8003726:	4770      	bx	lr
 8003728:	40006400 	.word	0x40006400

0800372c <HAL_CAN_Start>:
  * @param  hcan pointer to an CAN_HandleTypeDef structure that contains
  *         the configuration information for the specified CAN.
  * @retval HAL status
  */
HAL_StatusTypeDef HAL_CAN_Start(CAN_HandleTypeDef *hcan)
{
 800372c:	b580      	push	{r7, lr}
 800372e:	b084      	sub	sp, #16
 8003730:	af00      	add	r7, sp, #0
 8003732:	6078      	str	r0, [r7, #4]
  uint32_t tickstart;

  if (hcan->State == HAL_CAN_STATE_READY)
 8003734:	687b      	ldr	r3, [r7, #4]
 8003736:	f893 3020 	ldrb.w	r3, [r3, #32]
 800373a:	b2db      	uxtb	r3, r3
 800373c:	2b01      	cmp	r3, #1
 800373e:	d12e      	bne.n	800379e <HAL_CAN_Start+0x72>
  {
    /* Change CAN peripheral state */
    hcan->State = HAL_CAN_STATE_LISTENING;
 8003740:	687b      	ldr	r3, [r7, #4]
 8003742:	2202      	movs	r2, #2
 8003744:	f883 2020 	strb.w	r2, [r3, #32]

    /* Request leave initialisation */
    CLEAR_BIT(hcan->Instance->MCR, CAN_MCR_INRQ);
 8003748:	687b      	ldr	r3, [r7, #4]
 800374a:	681b      	ldr	r3, [r3, #0]
 800374c:	681a      	ldr	r2, [r3, #0]
 800374e:	687b      	ldr	r3, [r7, #4]
 8003750:	681b      	ldr	r3, [r3, #0]
 8003752:	f022 0201 	bic.w	r2, r2, #1
 8003756:	601a      	str	r2, [r3, #0]

    /* Get tick */
    tickstart = HAL_GetTick();
 8003758:	f7ff f936 	bl	80029c8 <HAL_GetTick>
 800375c:	60f8      	str	r0, [r7, #12]

    /* Wait the acknowledge */
    while ((hcan->Instance->MSR & CAN_MSR_INAK) != 0U)
 800375e:	e012      	b.n	8003786 <HAL_CAN_Start+0x5a>
    {
      /* Check for the Timeout */
      if ((HAL_GetTick() - tickstart) > CAN_TIMEOUT_VALUE)
 8003760:	f7ff f932 	bl	80029c8 <HAL_GetTick>
 8003764:	4602      	mov	r2, r0
 8003766:	68fb      	ldr	r3, [r7, #12]
 8003768:	1ad3      	subs	r3, r2, r3
 800376a:	2b0a      	cmp	r3, #10
 800376c:	d90b      	bls.n	8003786 <HAL_CAN_Start+0x5a>
      {
        /* Update error code */
        hcan->ErrorCode |= HAL_CAN_ERROR_TIMEOUT;
 800376e:	687b      	ldr	r3, [r7, #4]
 8003770:	6a5b      	ldr	r3, [r3, #36]	@ 0x24
 8003772:	f443 3200 	orr.w	r2, r3, #131072	@ 0x20000
 8003776:	687b      	ldr	r3, [r7, #4]
 8003778:	625a      	str	r2, [r3, #36]	@ 0x24

        /* Change CAN state */
        hcan->State = HAL_CAN_STATE_ERROR;
 800377a:	687b      	ldr	r3, [r7, #4]
 800377c:	2205      	movs	r2, #5
 800377e:	f883 2020 	strb.w	r2, [r3, #32]

        return HAL_ERROR;
 8003782:	2301      	movs	r3, #1
 8003784:	e012      	b.n	80037ac <HAL_CAN_Start+0x80>
    while ((hcan->Instance->MSR & CAN_MSR_INAK) != 0U)
 8003786:	687b      	ldr	r3, [r7, #4]
 8003788:	681b      	ldr	r3, [r3, #0]
 800378a:	685b      	ldr	r3, [r3, #4]
 800378c:	f003 0301 	and.w	r3, r3, #1
 8003790:	2b00      	cmp	r3, #0
 8003792:	d1e5      	bne.n	8003760 <HAL_CAN_Start+0x34>
      }
    }

    /* Reset the CAN ErrorCode */
    hcan->ErrorCode = HAL_CAN_ERROR_NONE;
 8003794:	687b      	ldr	r3, [r7, #4]
 8003796:	2200      	movs	r2, #0
 8003798:	625a      	str	r2, [r3, #36]	@ 0x24

    /* Return function status */
    return HAL_OK;
 800379a:	2300      	movs	r3, #0
 800379c:	e006      	b.n	80037ac <HAL_CAN_Start+0x80>
  }
  else
  {
    /* Update error code */
    hcan->ErrorCode |= HAL_CAN_ERROR_NOT_READY;
 800379e:	687b      	ldr	r3, [r7, #4]
 80037a0:	6a5b      	ldr	r3, [r3, #36]	@ 0x24
 80037a2:	f443 2200 	orr.w	r2, r3, #524288	@ 0x80000
 80037a6:	687b      	ldr	r3, [r7, #4]
 80037a8:	625a      	str	r2, [r3, #36]	@ 0x24

    return HAL_ERROR;
 80037aa:	2301      	movs	r3, #1
  }
}
 80037ac:	4618      	mov	r0, r3
 80037ae:	3710      	adds	r7, #16
 80037b0:	46bd      	mov	sp, r7
 80037b2:	bd80      	pop	{r7, pc}

080037b4 <HAL_CAN_AddTxMessage>:
  *         This parameter can be a value of @arg CAN_Tx_Mailboxes.
  * @retval HAL status
  */
HAL_StatusTypeDef HAL_CAN_AddTxMessage(CAN_HandleTypeDef *hcan, const CAN_TxHeaderTypeDef *pHeader,
                                       const uint8_t aData[], uint32_t *pTxMailbox)
{
 80037b4:	b480      	push	{r7}
 80037b6:	b089      	sub	sp, #36	@ 0x24
 80037b8:	af00      	add	r7, sp, #0
 80037ba:	60f8      	str	r0, [r7, #12]
 80037bc:	60b9      	str	r1, [r7, #8]
 80037be:	607a      	str	r2, [r7, #4]
 80037c0:	603b      	str	r3, [r7, #0]
  uint32_t transmitmailbox;
  HAL_CAN_StateTypeDef state = hcan->State;
 80037c2:	68fb      	ldr	r3, [r7, #12]
 80037c4:	f893 3020 	ldrb.w	r3, [r3, #32]
 80037c8:	77fb      	strb	r3, [r7, #31]
  uint32_t tsr = READ_REG(hcan->Instance->TSR);
 80037ca:	68fb      	ldr	r3, [r7, #12]
 80037cc:	681b      	ldr	r3, [r3, #0]
 80037ce:	689b      	ldr	r3, [r3, #8]
 80037d0:	61bb      	str	r3, [r7, #24]
  {
    assert_param(IS_CAN_EXTID(pHeader->ExtId));
  }
  assert_param(IS_FUNCTIONAL_STATE(pHeader->TransmitGlobalTime));

  if ((state == HAL_CAN_STATE_READY) ||
 80037d2:	7ffb      	ldrb	r3, [r7, #31]
 80037d4:	2b01      	cmp	r3, #1
 80037d6:	d003      	beq.n	80037e0 <HAL_CAN_AddTxMessage+0x2c>
 80037d8:	7ffb      	ldrb	r3, [r7, #31]
 80037da:	2b02      	cmp	r3, #2
 80037dc:	f040 80ad 	bne.w	800393a <HAL_CAN_AddTxMessage+0x186>
      (state == HAL_CAN_STATE_LISTENING))
  {
    /* Check that all the Tx mailboxes are not full */
    if (((tsr & CAN_TSR_TME0) != 0U) ||
 80037e0:	69bb      	ldr	r3, [r7, #24]
 80037e2:	f003 6380 	and.w	r3, r3, #67108864	@ 0x4000000
 80037e6:	2b00      	cmp	r3, #0
 80037e8:	d10a      	bne.n	8003800 <HAL_CAN_AddTxMessage+0x4c>
        ((tsr & CAN_TSR_TME1) != 0U) ||
 80037ea:	69bb      	ldr	r3, [r7, #24]
 80037ec:	f003 6300 	and.w	r3, r3, #134217728	@ 0x8000000
    if (((tsr & CAN_TSR_TME0) != 0U) ||
 80037f0:	2b00      	cmp	r3, #0
 80037f2:	d105      	bne.n	8003800 <HAL_CAN_AddTxMessage+0x4c>
        ((tsr & CAN_TSR_TME2) != 0U))
 80037f4:	69bb      	ldr	r3, [r7, #24]
 80037f6:	f003 5380 	and.w	r3, r3, #268435456	@ 0x10000000
        ((tsr & CAN_TSR_TME1) != 0U) ||
 80037fa:	2b00      	cmp	r3, #0
 80037fc:	f000 8095 	beq.w	800392a <HAL_CAN_AddTxMessage+0x176>
    {
      /* Select an empty transmit mailbox */
      transmitmailbox = (tsr & CAN_TSR_CODE) >> CAN_TSR_CODE_Pos;
 8003800:	69bb      	ldr	r3, [r7, #24]
 8003802:	0e1b      	lsrs	r3, r3, #24
 8003804:	f003 0303 	and.w	r3, r3, #3
 8003808:	617b      	str	r3, [r7, #20]

      /* Store the Tx mailbox */
      *pTxMailbox = (uint32_t)1 << transmitmailbox;
 800380a:	2201      	movs	r2, #1
 800380c:	697b      	ldr	r3, [r7, #20]
 800380e:	409a      	lsls	r2, r3
 8003810:	683b      	ldr	r3, [r7, #0]
 8003812:	601a      	str	r2, [r3, #0]

      /* Set up the Id */
      if (pHeader->IDE == CAN_ID_STD)
 8003814:	68bb      	ldr	r3, [r7, #8]
 8003816:	689b      	ldr	r3, [r3, #8]
 8003818:	2b00      	cmp	r3, #0
 800381a:	d10d      	bne.n	8003838 <HAL_CAN_AddTxMessage+0x84>
      {
        hcan->Instance->sTxMailBox[transmitmailbox].TIR = ((pHeader->StdId << CAN_TI0R_STID_Pos) |
 800381c:	68bb      	ldr	r3, [r7, #8]
 800381e:	681b      	ldr	r3, [r3, #0]
 8003820:	055a      	lsls	r2, r3, #21
                                                           pHeader->RTR);
 8003822:	68bb      	ldr	r3, [r7, #8]
 8003824:	68db      	ldr	r3, [r3, #12]
        hcan->Instance->sTxMailBox[transmitmailbox].TIR = ((pHeader->StdId << CAN_TI0R_STID_Pos) |
 8003826:	68f9      	ldr	r1, [r7, #12]
 8003828:	6809      	ldr	r1, [r1, #0]
 800382a:	431a      	orrs	r2, r3
 800382c:	697b      	ldr	r3, [r7, #20]
 800382e:	3318      	adds	r3, #24
 8003830:	011b      	lsls	r3, r3, #4
 8003832:	440b      	add	r3, r1
 8003834:	601a      	str	r2, [r3, #0]
 8003836:	e00f      	b.n	8003858 <HAL_CAN_AddTxMessage+0xa4>
      }
      else
      {
        hcan->Instance->sTxMailBox[transmitmailbox].TIR = ((pHeader->ExtId << CAN_TI0R_EXID_Pos) |
 8003838:	68bb      	ldr	r3, [r7, #8]
 800383a:	685b      	ldr	r3, [r3, #4]
 800383c:	00da      	lsls	r2, r3, #3
                                                           pHeader->IDE |
 800383e:	68bb      	ldr	r3, [r7, #8]
 8003840:	689b      	ldr	r3, [r3, #8]
        hcan->Instance->sTxMailBox[transmitmailbox].TIR = ((pHeader->ExtId << CAN_TI0R_EXID_Pos) |
 8003842:	431a      	orrs	r2, r3
                                                           pHeader->RTR);
 8003844:	68bb      	ldr	r3, [r7, #8]
 8003846:	68db      	ldr	r3, [r3, #12]
        hcan->Instance->sTxMailBox[transmitmailbox].TIR = ((pHeader->ExtId << CAN_TI0R_EXID_Pos) |
 8003848:	68f9      	ldr	r1, [r7, #12]
 800384a:	6809      	ldr	r1, [r1, #0]
                                                           pHeader->IDE |
 800384c:	431a      	orrs	r2, r3
        hcan->Instance->sTxMailBox[transmitmailbox].TIR = ((pHeader->ExtId << CAN_TI0R_EXID_Pos) |
 800384e:	697b      	ldr	r3, [r7, #20]
 8003850:	3318      	adds	r3, #24
 8003852:	011b      	lsls	r3, r3, #4
 8003854:	440b      	add	r3, r1
 8003856:	601a      	str	r2, [r3, #0]
      }

      /* Set up the DLC */
      hcan->Instance->sTxMailBox[transmitmailbox].TDTR = (pHeader->DLC);
 8003858:	68fb      	ldr	r3, [r7, #12]
 800385a:	6819      	ldr	r1, [r3, #0]
 800385c:	68bb      	ldr	r3, [r7, #8]
 800385e:	691a      	ldr	r2, [r3, #16]
 8003860:	697b      	ldr	r3, [r7, #20]
 8003862:	3318      	adds	r3, #24
 8003864:	011b      	lsls	r3, r3, #4
 8003866:	440b      	add	r3, r1
 8003868:	3304      	adds	r3, #4
 800386a:	601a      	str	r2, [r3, #0]

      /* Set up the Transmit Global Time mode */
      if (pHeader->TransmitGlobalTime == ENABLE)
 800386c:	68bb      	ldr	r3, [r7, #8]
 800386e:	7d1b      	ldrb	r3, [r3, #20]
 8003870:	2b01      	cmp	r3, #1
 8003872:	d111      	bne.n	8003898 <HAL_CAN_AddTxMessage+0xe4>
      {
        SET_BIT(hcan->Instance->sTxMailBox[transmitmailbox].TDTR, CAN_TDT0R_TGT);
 8003874:	68fb      	ldr	r3, [r7, #12]
 8003876:	681a      	ldr	r2, [r3, #0]
 8003878:	697b      	ldr	r3, [r7, #20]
 800387a:	3318      	adds	r3, #24
 800387c:	011b      	lsls	r3, r3, #4
 800387e:	4413      	add	r3, r2
 8003880:	3304      	adds	r3, #4
 8003882:	681b      	ldr	r3, [r3, #0]
 8003884:	68fa      	ldr	r2, [r7, #12]
 8003886:	6811      	ldr	r1, [r2, #0]
 8003888:	f443 7280 	orr.w	r2, r3, #256	@ 0x100
 800388c:	697b      	ldr	r3, [r7, #20]
 800388e:	3318      	adds	r3, #24
 8003890:	011b      	lsls	r3, r3, #4
 8003892:	440b      	add	r3, r1
 8003894:	3304      	adds	r3, #4
 8003896:	601a      	str	r2, [r3, #0]
      }

      /* Set up the data field */
      WRITE_REG(hcan->Instance->sTxMailBox[transmitmailbox].TDHR,
 8003898:	687b      	ldr	r3, [r7, #4]
 800389a:	3307      	adds	r3, #7
 800389c:	781b      	ldrb	r3, [r3, #0]
 800389e:	061a      	lsls	r2, r3, #24
 80038a0:	687b      	ldr	r3, [r7, #4]
 80038a2:	3306      	adds	r3, #6
 80038a4:	781b      	ldrb	r3, [r3, #0]
 80038a6:	041b      	lsls	r3, r3, #16
 80038a8:	431a      	orrs	r2, r3
 80038aa:	687b      	ldr	r3, [r7, #4]
 80038ac:	3305      	adds	r3, #5
 80038ae:	781b      	ldrb	r3, [r3, #0]
 80038b0:	021b      	lsls	r3, r3, #8
 80038b2:	4313      	orrs	r3, r2
 80038b4:	687a      	ldr	r2, [r7, #4]
 80038b6:	3204      	adds	r2, #4
 80038b8:	7812      	ldrb	r2, [r2, #0]
 80038ba:	4610      	mov	r0, r2
 80038bc:	68fa      	ldr	r2, [r7, #12]
 80038be:	6811      	ldr	r1, [r2, #0]
 80038c0:	ea43 0200 	orr.w	r2, r3, r0
 80038c4:	697b      	ldr	r3, [r7, #20]
 80038c6:	011b      	lsls	r3, r3, #4
 80038c8:	440b      	add	r3, r1
 80038ca:	f503 73c6 	add.w	r3, r3, #396	@ 0x18c
 80038ce:	601a      	str	r2, [r3, #0]
                ((uint32_t)aData[7] << CAN_TDH0R_DATA7_Pos) |
                ((uint32_t)aData[6] << CAN_TDH0R_DATA6_Pos) |
                ((uint32_t)aData[5] << CAN_TDH0R_DATA5_Pos) |
                ((uint32_t)aData[4] << CAN_TDH0R_DATA4_Pos));
      WRITE_REG(hcan->Instance->sTxMailBox[transmitmailbox].TDLR,
 80038d0:	687b      	ldr	r3, [r7, #4]
 80038d2:	3303      	adds	r3, #3
 80038d4:	781b      	ldrb	r3, [r3, #0]
 80038d6:	061a      	lsls	r2, r3, #24
 80038d8:	687b      	ldr	r3, [r7, #4]
 80038da:	3302      	adds	r3, #2
 80038dc:	781b      	ldrb	r3, [r3, #0]
 80038de:	041b      	lsls	r3, r3, #16
 80038e0:	431a      	orrs	r2, r3
 80038e2:	687b      	ldr	r3, [r7, #4]
 80038e4:	3301      	adds	r3, #1
 80038e6:	781b      	ldrb	r3, [r3, #0]
 80038e8:	021b      	lsls	r3, r3, #8
 80038ea:	4313      	orrs	r3, r2
 80038ec:	687a      	ldr	r2, [r7, #4]
 80038ee:	7812      	ldrb	r2, [r2, #0]
 80038f0:	4610      	mov	r0, r2
 80038f2:	68fa      	ldr	r2, [r7, #12]
 80038f4:	6811      	ldr	r1, [r2, #0]
 80038f6:	ea43 0200 	orr.w	r2, r3, r0
 80038fa:	697b      	ldr	r3, [r7, #20]
 80038fc:	011b      	lsls	r3, r3, #4
 80038fe:	440b      	add	r3, r1
 8003900:	f503 73c4 	add.w	r3, r3, #392	@ 0x188
 8003904:	601a      	str	r2, [r3, #0]
                ((uint32_t)aData[2] << CAN_TDL0R_DATA2_Pos) |
                ((uint32_t)aData[1] << CAN_TDL0R_DATA1_Pos) |
                ((uint32_t)aData[0] << CAN_TDL0R_DATA0_Pos));

      /* Request transmission */
      SET_BIT(hcan->Instance->sTxMailBox[transmitmailbox].TIR, CAN_TI0R_TXRQ);
 8003906:	68fb      	ldr	r3, [r7, #12]
 8003908:	681a      	ldr	r2, [r3, #0]
 800390a:	697b      	ldr	r3, [r7, #20]
 800390c:	3318      	adds	r3, #24
 800390e:	011b      	lsls	r3, r3, #4
 8003910:	4413      	add	r3, r2
 8003912:	681b      	ldr	r3, [r3, #0]
 8003914:	68fa      	ldr	r2, [r7, #12]
 8003916:	6811      	ldr	r1, [r2, #0]
 8003918:	f043 0201 	orr.w	r2, r3, #1
 800391c:	697b      	ldr	r3, [r7, #20]
 800391e:	3318      	adds	r3, #24
 8003920:	011b      	lsls	r3, r3, #4
 8003922:	440b      	add	r3, r1
 8003924:	601a      	str	r2, [r3, #0]

      /* Return function status */
      return HAL_OK;
 8003926:	2300      	movs	r3, #0
 8003928:	e00e      	b.n	8003948 <HAL_CAN_AddTxMessage+0x194>
    }
    else
    {
      /* Update error code */
      hcan->ErrorCode |= HAL_CAN_ERROR_PARAM;
 800392a:	68fb      	ldr	r3, [r7, #12]
 800392c:	6a5b      	ldr	r3, [r3, #36]	@ 0x24
 800392e:	f443 1200 	orr.w	r2, r3, #2097152	@ 0x200000
 8003932:	68fb      	ldr	r3, [r7, #12]
 8003934:	625a      	str	r2, [r3, #36]	@ 0x24

      return HAL_ERROR;
 8003936:	2301      	movs	r3, #1
 8003938:	e006      	b.n	8003948 <HAL_CAN_AddTxMessage+0x194>
    }
  }
  else
  {
    /* Update error code */
    hcan->ErrorCode |= HAL_CAN_ERROR_NOT_INITIALIZED;
 800393a:	68fb      	ldr	r3, [r7, #12]
 800393c:	6a5b      	ldr	r3, [r3, #36]	@ 0x24
 800393e:	f443 2280 	orr.w	r2, r3, #262144	@ 0x40000
 8003942:	68fb      	ldr	r3, [r7, #12]
 8003944:	625a      	str	r2, [r3, #36]	@ 0x24

    return HAL_ERROR;
 8003946:	2301      	movs	r3, #1
  }
}
 8003948:	4618      	mov	r0, r3
 800394a:	3724      	adds	r7, #36	@ 0x24
 800394c:	46bd      	mov	sp, r7
 800394e:	f85d 7b04 	ldr.w	r7, [sp], #4
 8003952:	4770      	bx	lr

08003954 <HAL_CAN_GetTxMailboxesFreeLevel>:
  * @param  hcan pointer to a CAN_HandleTypeDef structure that contains
  *         the configuration information for the specified CAN.
  * @retval Number of free Tx Mailboxes.
  */
uint32_t HAL_CAN_GetTxMailboxesFreeLevel(const CAN_HandleTypeDef *hcan)
{
 8003954:	b480      	push	{r7}
 8003956:	b085      	sub	sp, #20
 8003958:	af00      	add	r7, sp, #0
 800395a:	6078      	str	r0, [r7, #4]
  uint32_t freelevel = 0U;
 800395c:	2300      	movs	r3, #0
 800395e:	60fb      	str	r3, [r7, #12]
  HAL_CAN_StateTypeDef state = hcan->State;
 8003960:	687b      	ldr	r3, [r7, #4]
 8003962:	f893 3020 	ldrb.w	r3, [r3, #32]
 8003966:	72fb      	strb	r3, [r7, #11]

  if ((state == HAL_CAN_STATE_READY) ||
 8003968:	7afb      	ldrb	r3, [r7, #11]
 800396a:	2b01      	cmp	r3, #1
 800396c:	d002      	beq.n	8003974 <HAL_CAN_GetTxMailboxesFreeLevel+0x20>
 800396e:	7afb      	ldrb	r3, [r7, #11]
 8003970:	2b02      	cmp	r3, #2
 8003972:	d11d      	bne.n	80039b0 <HAL_CAN_GetTxMailboxesFreeLevel+0x5c>
      (state == HAL_CAN_STATE_LISTENING))
  {
    /* Check Tx Mailbox 0 status */
    if ((hcan->Instance->TSR & CAN_TSR_TME0) != 0U)
 8003974:	687b      	ldr	r3, [r7, #4]
 8003976:	681b      	ldr	r3, [r3, #0]
 8003978:	689b      	ldr	r3, [r3, #8]
 800397a:	f003 6380 	and.w	r3, r3, #67108864	@ 0x4000000
 800397e:	2b00      	cmp	r3, #0
 8003980:	d002      	beq.n	8003988 <HAL_CAN_GetTxMailboxesFreeLevel+0x34>
    {
      freelevel++;
 8003982:	68fb      	ldr	r3, [r7, #12]
 8003984:	3301      	adds	r3, #1
 8003986:	60fb      	str	r3, [r7, #12]
    }

    /* Check Tx Mailbox 1 status */
    if ((hcan->Instance->TSR & CAN_TSR_TME1) != 0U)
 8003988:	687b      	ldr	r3, [r7, #4]
 800398a:	681b      	ldr	r3, [r3, #0]
 800398c:	689b      	ldr	r3, [r3, #8]
 800398e:	f003 6300 	and.w	r3, r3, #134217728	@ 0x8000000
 8003992:	2b00      	cmp	r3, #0
 8003994:	d002      	beq.n	800399c <HAL_CAN_GetTxMailboxesFreeLevel+0x48>
    {
      freelevel++;
 8003996:	68fb      	ldr	r3, [r7, #12]
 8003998:	3301      	adds	r3, #1
 800399a:	60fb      	str	r3, [r7, #12]
    }

    /* Check Tx Mailbox 2 status */
    if ((hcan->Instance->TSR & CAN_TSR_TME2) != 0U)
 800399c:	687b      	ldr	r3, [r7, #4]
 800399e:	681b      	ldr	r3, [r3, #0]
 80039a0:	689b      	ldr	r3, [r3, #8]
 80039a2:	f003 5380 	and.w	r3, r3, #268435456	@ 0x10000000
 80039a6:	2b00      	cmp	r3, #0
 80039a8:	d002      	beq.n	80039b0 <HAL_CAN_GetTxMailboxesFreeLevel+0x5c>
    {
      freelevel++;
 80039aa:	68fb      	ldr	r3, [r7, #12]
 80039ac:	3301      	adds	r3, #1
 80039ae:	60fb      	str	r3, [r7, #12]
    }
  }

  /* Return Tx Mailboxes free level */
  return freelevel;
 80039b0:	68fb      	ldr	r3, [r7, #12]
}
 80039b2:	4618      	mov	r0, r3
 80039b4:	3714      	adds	r7, #20
 80039b6:	46bd      	mov	sp, r7
 80039b8:	f85d 7b04 	ldr.w	r7, [sp], #4
 80039bc:	4770      	bx	lr

080039be <HAL_CAN_GetRxMessage>:
  * @param  aData array where the payload of the Rx frame will be stored.
  * @retval HAL status
  */
HAL_StatusTypeDef HAL_CAN_GetRxMessage(CAN_HandleTypeDef *hcan, uint32_t RxFifo,
                                       CAN_RxHeaderTypeDef *pHeader, uint8_t aData[])
{
 80039be:	b480      	push	{r7}
 80039c0:	b087      	sub	sp, #28
 80039c2:	af00      	add	r7, sp, #0
 80039c4:	60f8      	str	r0, [r7, #12]
 80039c6:	60b9      	str	r1, [r7, #8]
 80039c8:	607a      	str	r2, [r7, #4]
 80039ca:	603b      	str	r3, [r7, #0]
  HAL_CAN_StateTypeDef state = hcan->State;
 80039cc:	68fb      	ldr	r3, [r7, #12]
 80039ce:	f893 3020 	ldrb.w	r3, [r3, #32]
 80039d2:	75fb      	strb	r3, [r7, #23]

  assert_param(IS_CAN_RX_FIFO(RxFifo));

  if ((state == HAL_CAN_STATE_READY) ||
 80039d4:	7dfb      	ldrb	r3, [r7, #23]
 80039d6:	2b01      	cmp	r3, #1
 80039d8:	d003      	beq.n	80039e2 <HAL_CAN_GetRxMessage+0x24>
 80039da:	7dfb      	ldrb	r3, [r7, #23]
 80039dc:	2b02      	cmp	r3, #2
 80039de:	f040 8103 	bne.w	8003be8 <HAL_CAN_GetRxMessage+0x22a>
      (state == HAL_CAN_STATE_LISTENING))
  {
    /* Check the Rx FIFO */
    if (RxFifo == CAN_RX_FIFO0) /* Rx element is assigned to Rx FIFO 0 */
 80039e2:	68bb      	ldr	r3, [r7, #8]
 80039e4:	2b00      	cmp	r3, #0
 80039e6:	d10e      	bne.n	8003a06 <HAL_CAN_GetRxMessage+0x48>
    {
      /* Check that the Rx FIFO 0 is not empty */
      if ((hcan->Instance->RF0R & CAN_RF0R_FMP0) == 0U)
 80039e8:	68fb      	ldr	r3, [r7, #12]
 80039ea:	681b      	ldr	r3, [r3, #0]
 80039ec:	68db      	ldr	r3, [r3, #12]
 80039ee:	f003 0303 	and.w	r3, r3, #3
 80039f2:	2b00      	cmp	r3, #0
 80039f4:	d116      	bne.n	8003a24 <HAL_CAN_GetRxMessage+0x66>
      {
        /* Update error code */
        hcan->ErrorCode |= HAL_CAN_ERROR_PARAM;
 80039f6:	68fb      	ldr	r3, [r7, #12]
 80039f8:	6a5b      	ldr	r3, [r3, #36]	@ 0x24
 80039fa:	f443 1200 	orr.w	r2, r3, #2097152	@ 0x200000
 80039fe:	68fb      	ldr	r3, [r7, #12]
 8003a00:	625a      	str	r2, [r3, #36]	@ 0x24

        return HAL_ERROR;
 8003a02:	2301      	movs	r3, #1
 8003a04:	e0f7      	b.n	8003bf6 <HAL_CAN_GetRxMessage+0x238>
      }
    }
    else /* Rx element is assigned to Rx FIFO 1 */
    {
      /* Check that the Rx FIFO 1 is not empty */
      if ((hcan->Instance->RF1R & CAN_RF1R_FMP1) == 0U)
 8003a06:	68fb      	ldr	r3, [r7, #12]
 8003a08:	681b      	ldr	r3, [r3, #0]
 8003a0a:	691b      	ldr	r3, [r3, #16]
 8003a0c:	f003 0303 	and.w	r3, r3, #3
 8003a10:	2b00      	cmp	r3, #0
 8003a12:	d107      	bne.n	8003a24 <HAL_CAN_GetRxMessage+0x66>
      {
        /* Update error code */
        hcan->ErrorCode |= HAL_CAN_ERROR_PARAM;
 8003a14:	68fb      	ldr	r3, [r7, #12]
 8003a16:	6a5b      	ldr	r3, [r3, #36]	@ 0x24
 8003a18:	f443 1200 	orr.w	r2, r3, #2097152	@ 0x200000
 8003a1c:	68fb      	ldr	r3, [r7, #12]
 8003a1e:	625a      	str	r2, [r3, #36]	@ 0x24

        return HAL_ERROR;
 8003a20:	2301      	movs	r3, #1
 8003a22:	e0e8      	b.n	8003bf6 <HAL_CAN_GetRxMessage+0x238>
      }
    }

    /* Get the header */
    pHeader->IDE = CAN_RI0R_IDE & hcan->Instance->sFIFOMailBox[RxFifo].RIR;
 8003a24:	68fb      	ldr	r3, [r7, #12]
 8003a26:	681a      	ldr	r2, [r3, #0]
 8003a28:	68bb      	ldr	r3, [r7, #8]
 8003a2a:	331b      	adds	r3, #27
 8003a2c:	011b      	lsls	r3, r3, #4
 8003a2e:	4413      	add	r3, r2
 8003a30:	681b      	ldr	r3, [r3, #0]
 8003a32:	f003 0204 	and.w	r2, r3, #4
 8003a36:	687b      	ldr	r3, [r7, #4]
 8003a38:	609a      	str	r2, [r3, #8]
    if (pHeader->IDE == CAN_ID_STD)
 8003a3a:	687b      	ldr	r3, [r7, #4]
 8003a3c:	689b      	ldr	r3, [r3, #8]
 8003a3e:	2b00      	cmp	r3, #0
 8003a40:	d10c      	bne.n	8003a5c <HAL_CAN_GetRxMessage+0x9e>
    {
      pHeader->StdId = (CAN_RI0R_STID & hcan->Instance->sFIFOMailBox[RxFifo].RIR) >> CAN_TI0R_STID_Pos;
 8003a42:	68fb      	ldr	r3, [r7, #12]
 8003a44:	681a      	ldr	r2, [r3, #0]
 8003a46:	68bb      	ldr	r3, [r7, #8]
 8003a48:	331b      	adds	r3, #27
 8003a4a:	011b      	lsls	r3, r3, #4
 8003a4c:	4413      	add	r3, r2
 8003a4e:	681b      	ldr	r3, [r3, #0]
 8003a50:	0d5b      	lsrs	r3, r3, #21
 8003a52:	f3c3 020a 	ubfx	r2, r3, #0, #11
 8003a56:	687b      	ldr	r3, [r7, #4]
 8003a58:	601a      	str	r2, [r3, #0]
 8003a5a:	e00b      	b.n	8003a74 <HAL_CAN_GetRxMessage+0xb6>
    }
    else
    {
      pHeader->ExtId = ((CAN_RI0R_EXID | CAN_RI0R_STID) &
                        hcan->Instance->sFIFOMailBox[RxFifo].RIR) >> CAN_RI0R_EXID_Pos;
 8003a5c:	68fb      	ldr	r3, [r7, #12]
 8003a5e:	681a      	ldr	r2, [r3, #0]
 8003a60:	68bb      	ldr	r3, [r7, #8]
 8003a62:	331b      	adds	r3, #27
 8003a64:	011b      	lsls	r3, r3, #4
 8003a66:	4413      	add	r3, r2
 8003a68:	681b      	ldr	r3, [r3, #0]
 8003a6a:	08db      	lsrs	r3, r3, #3
 8003a6c:	f023 4260 	bic.w	r2, r3, #3758096384	@ 0xe0000000
      pHeader->ExtId = ((CAN_RI0R_EXID | CAN_RI0R_STID) &
 8003a70:	687b      	ldr	r3, [r7, #4]
 8003a72:	605a      	str	r2, [r3, #4]
    }
    pHeader->RTR = (CAN_RI0R_RTR & hcan->Instance->sFIFOMailBox[RxFifo].RIR);
 8003a74:	68fb      	ldr	r3, [r7, #12]
 8003a76:	681a      	ldr	r2, [r3, #0]
 8003a78:	68bb      	ldr	r3, [r7, #8]
 8003a7a:	331b      	adds	r3, #27
 8003a7c:	011b      	lsls	r3, r3, #4
 8003a7e:	4413      	add	r3, r2
 8003a80:	681b      	ldr	r3, [r3, #0]
 8003a82:	f003 0202 	and.w	r2, r3, #2
 8003a86:	687b      	ldr	r3, [r7, #4]
 8003a88:	60da      	str	r2, [r3, #12]
    if (((CAN_RDT0R_DLC & hcan->Instance->sFIFOMailBox[RxFifo].RDTR) >> CAN_RDT0R_DLC_Pos) >= 8U)
 8003a8a:	68fb      	ldr	r3, [r7, #12]
 8003a8c:	681a      	ldr	r2, [r3, #0]
 8003a8e:	68bb      	ldr	r3, [r7, #8]
 8003a90:	331b      	adds	r3, #27
 8003a92:	011b      	lsls	r3, r3, #4
 8003a94:	4413      	add	r3, r2
 8003a96:	3304      	adds	r3, #4
 8003a98:	681b      	ldr	r3, [r3, #0]
 8003a9a:	f003 0308 	and.w	r3, r3, #8
 8003a9e:	2b00      	cmp	r3, #0
 8003aa0:	d003      	beq.n	8003aaa <HAL_CAN_GetRxMessage+0xec>
    {
      /* Truncate DLC to 8 if received field is over range */
      pHeader->DLC = 8U;
 8003aa2:	687b      	ldr	r3, [r7, #4]
 8003aa4:	2208      	movs	r2, #8
 8003aa6:	611a      	str	r2, [r3, #16]
 8003aa8:	e00b      	b.n	8003ac2 <HAL_CAN_GetRxMessage+0x104>
    }
    else
    {
      pHeader->DLC = (CAN_RDT0R_DLC & hcan->Instance->sFIFOMailBox[RxFifo].RDTR) >> CAN_RDT0R_DLC_Pos;
 8003aaa:	68fb      	ldr	r3, [r7, #12]
 8003aac:	681a      	ldr	r2, [r3, #0]
 8003aae:	68bb      	ldr	r3, [r7, #8]
 8003ab0:	331b      	adds	r3, #27
 8003ab2:	011b      	lsls	r3, r3, #4
 8003ab4:	4413      	add	r3, r2
 8003ab6:	3304      	adds	r3, #4
 8003ab8:	681b      	ldr	r3, [r3, #0]
 8003aba:	f003 020f 	and.w	r2, r3, #15
 8003abe:	687b      	ldr	r3, [r7, #4]
 8003ac0:	611a      	str	r2, [r3, #16]
    }
    pHeader->FilterMatchIndex = (CAN_RDT0R_FMI & hcan->Instance->sFIFOMailBox[RxFifo].RDTR) >> CAN_RDT0R_FMI_Pos;
 8003ac2:	68fb      	ldr	r3, [r7, #12]
 8003ac4:	681a      	ldr	r2, [r3, #0]
 8003ac6:	68bb      	ldr	r3, [r7, #8]
 8003ac8:	331b      	adds	r3, #27
 8003aca:	011b      	lsls	r3, r3, #4
 8003acc:	4413      	add	r3, r2
 8003ace:	3304      	adds	r3, #4
 8003ad0:	681b      	ldr	r3, [r3, #0]
 8003ad2:	0a1b      	lsrs	r3, r3, #8
 8003ad4:	b2da      	uxtb	r2, r3
 8003ad6:	687b      	ldr	r3, [r7, #4]
 8003ad8:	619a      	str	r2, [r3, #24]
    pHeader->Timestamp = (CAN_RDT0R_TIME & hcan->Instance->sFIFOMailBox[RxFifo].RDTR) >> CAN_RDT0R_TIME_Pos;
 8003ada:	68fb      	ldr	r3, [r7, #12]
 8003adc:	681a      	ldr	r2, [r3, #0]
 8003ade:	68bb      	ldr	r3, [r7, #8]
 8003ae0:	331b      	adds	r3, #27
 8003ae2:	011b      	lsls	r3, r3, #4
 8003ae4:	4413      	add	r3, r2
 8003ae6:	3304      	adds	r3, #4
 8003ae8:	681b      	ldr	r3, [r3, #0]
 8003aea:	0c1b      	lsrs	r3, r3, #16
 8003aec:	b29a      	uxth	r2, r3
 8003aee:	687b      	ldr	r3, [r7, #4]
 8003af0:	615a      	str	r2, [r3, #20]

    /* Get the data */
    aData[0] = (uint8_t)((CAN_RDL0R_DATA0 & hcan->Instance->sFIFOMailBox[RxFifo].RDLR) >> CAN_RDL0R_DATA0_Pos);
 8003af2:	68fb      	ldr	r3, [r7, #12]
 8003af4:	681a      	ldr	r2, [r3, #0]
 8003af6:	68bb      	ldr	r3, [r7, #8]
 8003af8:	011b      	lsls	r3, r3, #4
 8003afa:	4413      	add	r3, r2
 8003afc:	f503 73dc 	add.w	r3, r3, #440	@ 0x1b8
 8003b00:	681b      	ldr	r3, [r3, #0]
 8003b02:	b2da      	uxtb	r2, r3
 8003b04:	683b      	ldr	r3, [r7, #0]
 8003b06:	701a      	strb	r2, [r3, #0]
    aData[1] = (uint8_t)((CAN_RDL0R_DATA1 & hcan->Instance->sFIFOMailBox[RxFifo].RDLR) >> CAN_RDL0R_DATA1_Pos);
 8003b08:	68fb      	ldr	r3, [r7, #12]
 8003b0a:	681a      	ldr	r2, [r3, #0]
 8003b0c:	68bb      	ldr	r3, [r7, #8]
 8003b0e:	011b      	lsls	r3, r3, #4
 8003b10:	4413      	add	r3, r2
 8003b12:	f503 73dc 	add.w	r3, r3, #440	@ 0x1b8
 8003b16:	681b      	ldr	r3, [r3, #0]
 8003b18:	0a1a      	lsrs	r2, r3, #8
 8003b1a:	683b      	ldr	r3, [r7, #0]
 8003b1c:	3301      	adds	r3, #1
 8003b1e:	b2d2      	uxtb	r2, r2
 8003b20:	701a      	strb	r2, [r3, #0]
    aData[2] = (uint8_t)((CAN_RDL0R_DATA2 & hcan->Instance->sFIFOMailBox[RxFifo].RDLR) >> CAN_RDL0R_DATA2_Pos);
 8003b22:	68fb      	ldr	r3, [r7, #12]
 8003b24:	681a      	ldr	r2, [r3, #0]
 8003b26:	68bb      	ldr	r3, [r7, #8]
 8003b28:	011b      	lsls	r3, r3, #4
 8003b2a:	4413      	add	r3, r2
 8003b2c:	f503 73dc 	add.w	r3, r3, #440	@ 0x1b8
 8003b30:	681b      	ldr	r3, [r3, #0]
 8003b32:	0c1a      	lsrs	r2, r3, #16
 8003b34:	683b      	ldr	r3, [r7, #0]
 8003b36:	3302      	adds	r3, #2
 8003b38:	b2d2      	uxtb	r2, r2
 8003b3a:	701a      	strb	r2, [r3, #0]
    aData[3] = (uint8_t)((CAN_RDL0R_DATA3 & hcan->Instance->sFIFOMailBox[RxFifo].RDLR) >> CAN_RDL0R_DATA3_Pos);
 8003b3c:	68fb      	ldr	r3, [r7, #12]
 8003b3e:	681a      	ldr	r2, [r3, #0]
 8003b40:	68bb      	ldr	r3, [r7, #8]
 8003b42:	011b      	lsls	r3, r3, #4
 8003b44:	4413      	add	r3, r2
 8003b46:	f503 73dc 	add.w	r3, r3, #440	@ 0x1b8
 8003b4a:	681b      	ldr	r3, [r3, #0]
 8003b4c:	0e1a      	lsrs	r2, r3, #24
 8003b4e:	683b      	ldr	r3, [r7, #0]
 8003b50:	3303      	adds	r3, #3
 8003b52:	b2d2      	uxtb	r2, r2
 8003b54:	701a      	strb	r2, [r3, #0]
    aData[4] = (uint8_t)((CAN_RDH0R_DATA4 & hcan->Instance->sFIFOMailBox[RxFifo].RDHR) >> CAN_RDH0R_DATA4_Pos);
 8003b56:	68fb      	ldr	r3, [r7, #12]
 8003b58:	681a      	ldr	r2, [r3, #0]
 8003b5a:	68bb      	ldr	r3, [r7, #8]
 8003b5c:	011b      	lsls	r3, r3, #4
 8003b5e:	4413      	add	r3, r2
 8003b60:	f503 73de 	add.w	r3, r3, #444	@ 0x1bc
 8003b64:	681a      	ldr	r2, [r3, #0]
 8003b66:	683b      	ldr	r3, [r7, #0]
 8003b68:	3304      	adds	r3, #4
 8003b6a:	b2d2      	uxtb	r2, r2
 8003b6c:	701a      	strb	r2, [r3, #0]
    aData[5] = (uint8_t)((CAN_RDH0R_DATA5 & hcan->Instance->sFIFOMailBox[RxFifo].RDHR) >> CAN_RDH0R_DATA5_Pos);
 8003b6e:	68fb      	ldr	r3, [r7, #12]
 8003b70:	681a      	ldr	r2, [r3, #0]
 8003b72:	68bb      	ldr	r3, [r7, #8]
 8003b74:	011b      	lsls	r3, r3, #4
 8003b76:	4413      	add	r3, r2
 8003b78:	f503 73de 	add.w	r3, r3, #444	@ 0x1bc
 8003b7c:	681b      	ldr	r3, [r3, #0]
 8003b7e:	0a1a      	lsrs	r2, r3, #8
 8003b80:	683b      	ldr	r3, [r7, #0]
 8003b82:	3305      	adds	r3, #5
 8003b84:	b2d2      	uxtb	r2, r2
 8003b86:	701a      	strb	r2, [r3, #0]
    aData[6] = (uint8_t)((CAN_RDH0R_DATA6 & hcan->Instance->sFIFOMailBox[RxFifo].RDHR) >> CAN_RDH0R_DATA6_Pos);
 8003b88:	68fb      	ldr	r3, [r7, #12]
 8003b8a:	681a      	ldr	r2, [r3, #0]
 8003b8c:	68bb      	ldr	r3, [r7, #8]
 8003b8e:	011b      	lsls	r3, r3, #4
 8003b90:	4413      	add	r3, r2
 8003b92:	f503 73de 	add.w	r3, r3, #444	@ 0x1bc
 8003b96:	681b      	ldr	r3, [r3, #0]
 8003b98:	0c1a      	lsrs	r2, r3, #16
 8003b9a:	683b      	ldr	r3, [r7, #0]
 8003b9c:	3306      	adds	r3, #6
 8003b9e:	b2d2      	uxtb	r2, r2
 8003ba0:	701a      	strb	r2, [r3, #0]
    aData[7] = (uint8_t)((CAN_RDH0R_DATA7 & hcan->Instance->sFIFOMailBox[RxFifo].RDHR) >> CAN_RDH0R_DATA7_Pos);
 8003ba2:	68fb      	ldr	r3, [r7, #12]
 8003ba4:	681a      	ldr	r2, [r3, #0]
 8003ba6:	68bb      	ldr	r3, [r7, #8]
 8003ba8:	011b      	lsls	r3, r3, #4
 8003baa:	4413      	add	r3, r2
 8003bac:	f503 73de 	add.w	r3, r3, #444	@ 0x1bc
 8003bb0:	681b      	ldr	r3, [r3, #0]
 8003bb2:	0e1a      	lsrs	r2, r3, #24
 8003bb4:	683b      	ldr	r3, [r7, #0]
 8003bb6:	3307      	adds	r3, #7
 8003bb8:	b2d2      	uxtb	r2, r2
 8003bba:	701a      	strb	r2, [r3, #0]

    /* Release the FIFO */
    if (RxFifo == CAN_RX_FIFO0) /* Rx element is assigned to Rx FIFO 0 */
 8003bbc:	68bb      	ldr	r3, [r7, #8]
 8003bbe:	2b00      	cmp	r3, #0
 8003bc0:	d108      	bne.n	8003bd4 <HAL_CAN_GetRxMessage+0x216>
    {
      /* Release RX FIFO 0 */
      SET_BIT(hcan->Instance->RF0R, CAN_RF0R_RFOM0);
 8003bc2:	68fb      	ldr	r3, [r7, #12]
 8003bc4:	681b      	ldr	r3, [r3, #0]
 8003bc6:	68da      	ldr	r2, [r3, #12]
 8003bc8:	68fb      	ldr	r3, [r7, #12]
 8003bca:	681b      	ldr	r3, [r3, #0]
 8003bcc:	f042 0220 	orr.w	r2, r2, #32
 8003bd0:	60da      	str	r2, [r3, #12]
 8003bd2:	e007      	b.n	8003be4 <HAL_CAN_GetRxMessage+0x226>
    }
    else /* Rx element is assigned to Rx FIFO 1 */
    {
      /* Release RX FIFO 1 */
      SET_BIT(hcan->Instance->RF1R, CAN_RF1R_RFOM1);
 8003bd4:	68fb      	ldr	r3, [r7, #12]
 8003bd6:	681b      	ldr	r3, [r3, #0]
 8003bd8:	691a      	ldr	r2, [r3, #16]
 8003bda:	68fb      	ldr	r3, [r7, #12]
 8003bdc:	681b      	ldr	r3, [r3, #0]
 8003bde:	f042 0220 	orr.w	r2, r2, #32
 8003be2:	611a      	str	r2, [r3, #16]
    }

    /* Return function status */
    return HAL_OK;
 8003be4:	2300      	movs	r3, #0
 8003be6:	e006      	b.n	8003bf6 <HAL_CAN_GetRxMessage+0x238>
  }
  else
  {
    /* Update error code */
    hcan->ErrorCode |= HAL_CAN_ERROR_NOT_INITIALIZED;
 8003be8:	68fb      	ldr	r3, [r7, #12]
 8003bea:	6a5b      	ldr	r3, [r3, #36]	@ 0x24
 8003bec:	f443 2280 	orr.w	r2, r3, #262144	@ 0x40000
 8003bf0:	68fb      	ldr	r3, [r7, #12]
 8003bf2:	625a      	str	r2, [r3, #36]	@ 0x24

    return HAL_ERROR;
 8003bf4:	2301      	movs	r3, #1
  }
}
 8003bf6:	4618      	mov	r0, r3
 8003bf8:	371c      	adds	r7, #28
 8003bfa:	46bd      	mov	sp, r7
 8003bfc:	f85d 7b04 	ldr.w	r7, [sp], #4
 8003c00:	4770      	bx	lr

08003c02 <HAL_CAN_ActivateNotification>:
  * @param  ActiveITs indicates which interrupts will be enabled.
  *         This parameter can be any combination of @arg CAN_Interrupts.
  * @retval HAL status
  */
HAL_StatusTypeDef HAL_CAN_ActivateNotification(CAN_HandleTypeDef *hcan, uint32_t ActiveITs)
{
 8003c02:	b480      	push	{r7}
 8003c04:	b085      	sub	sp, #20
 8003c06:	af00      	add	r7, sp, #0
 8003c08:	6078      	str	r0, [r7, #4]
 8003c0a:	6039      	str	r1, [r7, #0]
  HAL_CAN_StateTypeDef state = hcan->State;
 8003c0c:	687b      	ldr	r3, [r7, #4]
 8003c0e:	f893 3020 	ldrb.w	r3, [r3, #32]
 8003c12:	73fb      	strb	r3, [r7, #15]

  /* Check function parameters */
  assert_param(IS_CAN_IT(ActiveITs));

  if ((state == HAL_CAN_STATE_READY) ||
 8003c14:	7bfb      	ldrb	r3, [r7, #15]
 8003c16:	2b01      	cmp	r3, #1
 8003c18:	d002      	beq.n	8003c20 <HAL_CAN_ActivateNotification+0x1e>
 8003c1a:	7bfb      	ldrb	r3, [r7, #15]
 8003c1c:	2b02      	cmp	r3, #2
 8003c1e:	d109      	bne.n	8003c34 <HAL_CAN_ActivateNotification+0x32>
      (state == HAL_CAN_STATE_LISTENING))
  {
    /* Enable the selected interrupts */
    __HAL_CAN_ENABLE_IT(hcan, ActiveITs);
 8003c20:	687b      	ldr	r3, [r7, #4]
 8003c22:	681b      	ldr	r3, [r3, #0]
 8003c24:	6959      	ldr	r1, [r3, #20]
 8003c26:	687b      	ldr	r3, [r7, #4]
 8003c28:	681b      	ldr	r3, [r3, #0]
 8003c2a:	683a      	ldr	r2, [r7, #0]
 8003c2c:	430a      	orrs	r2, r1
 8003c2e:	615a      	str	r2, [r3, #20]

    /* Return function status */
    return HAL_OK;
 8003c30:	2300      	movs	r3, #0
 8003c32:	e006      	b.n	8003c42 <HAL_CAN_ActivateNotification+0x40>
  }
  else
  {
    /* Update error code */
    hcan->ErrorCode |= HAL_CAN_ERROR_NOT_INITIALIZED;
 8003c34:	687b      	ldr	r3, [r7, #4]
 8003c36:	6a5b      	ldr	r3, [r3, #36]	@ 0x24
 8003c38:	f443 2280 	orr.w	r2, r3, #262144	@ 0x40000
 8003c3c:	687b      	ldr	r3, [r7, #4]
 8003c3e:	625a      	str	r2, [r3, #36]	@ 0x24

    return HAL_ERROR;
 8003c40:	2301      	movs	r3, #1
  }
}
 8003c42:	4618      	mov	r0, r3
 8003c44:	3714      	adds	r7, #20
 8003c46:	46bd      	mov	sp, r7
 8003c48:	f85d 7b04 	ldr.w	r7, [sp], #4
 8003c4c:	4770      	bx	lr

08003c4e <HAL_CAN_IRQHandler>:
  * @param  hcan pointer to a CAN_HandleTypeDef structure that contains
  *         the configuration information for the specified CAN.
  * @retval None
  */
void HAL_CAN_IRQHandler(CAN_HandleTypeDef *hcan)
{
 8003c4e:	b580      	push	{r7, lr}
 8003c50:	b08a      	sub	sp, #40	@ 0x28
 8003c52:	af00      	add	r7, sp, #0
 8003c54:	6078      	str	r0, [r7, #4]
  uint32_t errorcode = HAL_CAN_ERROR_NONE;
 8003c56:	2300      	movs	r3, #0
 8003c58:	627b      	str	r3, [r7, #36]	@ 0x24
  uint32_t interrupts = READ_REG(hcan->Instance->IER);
 8003c5a:	687b      	ldr	r3, [r7, #4]
 8003c5c:	681b      	ldr	r3, [r3, #0]
 8003c5e:	695b      	ldr	r3, [r3, #20]
 8003c60:	623b      	str	r3, [r7, #32]
  uint32_t msrflags = READ_REG(hcan->Instance->MSR);
 8003c62:	687b      	ldr	r3, [r7, #4]
 8003c64:	681b      	ldr	r3, [r3, #0]
 8003c66:	685b      	ldr	r3, [r3, #4]
 8003c68:	61fb      	str	r3, [r7, #28]
  uint32_t tsrflags = READ_REG(hcan->Instance->TSR);
 8003c6a:	687b      	ldr	r3, [r7, #4]
 8003c6c:	681b      	ldr	r3, [r3, #0]
 8003c6e:	689b      	ldr	r3, [r3, #8]
 8003c70:	61bb      	str	r3, [r7, #24]
  uint32_t rf0rflags = READ_REG(hcan->Instance->RF0R);
 8003c72:	687b      	ldr	r3, [r7, #4]
 8003c74:	681b      	ldr	r3, [r3, #0]
 8003c76:	68db      	ldr	r3, [r3, #12]
 8003c78:	617b      	str	r3, [r7, #20]
  uint32_t rf1rflags = READ_REG(hcan->Instance->RF1R);
 8003c7a:	687b      	ldr	r3, [r7, #4]
 8003c7c:	681b      	ldr	r3, [r3, #0]
 8003c7e:	691b      	ldr	r3, [r3, #16]
 8003c80:	613b      	str	r3, [r7, #16]
  uint32_t esrflags = READ_REG(hcan->Instance->ESR);
 8003c82:	687b      	ldr	r3, [r7, #4]
 8003c84:	681b      	ldr	r3, [r3, #0]
 8003c86:	699b      	ldr	r3, [r3, #24]
 8003c88:	60fb      	str	r3, [r7, #12]

  /* Transmit Mailbox empty interrupt management *****************************/
  if ((interrupts & CAN_IT_TX_MAILBOX_EMPTY) != 0U)
 8003c8a:	6a3b      	ldr	r3, [r7, #32]
 8003c8c:	f003 0301 	and.w	r3, r3, #1
 8003c90:	2b00      	cmp	r3, #0
 8003c92:	d07c      	beq.n	8003d8e <HAL_CAN_IRQHandler+0x140>
  {
    /* Transmit Mailbox 0 management *****************************************/
    if ((tsrflags & CAN_TSR_RQCP0) != 0U)
 8003c94:	69bb      	ldr	r3, [r7, #24]
 8003c96:	f003 0301 	and.w	r3, r3, #1
 8003c9a:	2b00      	cmp	r3, #0
 8003c9c:	d023      	beq.n	8003ce6 <HAL_CAN_IRQHandler+0x98>
    {
      /* Clear the Transmission Complete flag (and TXOK0,ALST0,TERR0 bits) */
      __HAL_CAN_CLEAR_FLAG(hcan, CAN_FLAG_RQCP0);
 8003c9e:	687b      	ldr	r3, [r7, #4]
 8003ca0:	681b      	ldr	r3, [r3, #0]
 8003ca2:	2201      	movs	r2, #1
 8003ca4:	609a      	str	r2, [r3, #8]

      if ((tsrflags & CAN_TSR_TXOK0) != 0U)
 8003ca6:	69bb      	ldr	r3, [r7, #24]
 8003ca8:	f003 0302 	and.w	r3, r3, #2
 8003cac:	2b00      	cmp	r3, #0
 8003cae:	d003      	beq.n	8003cb8 <HAL_CAN_IRQHandler+0x6a>
#if USE_HAL_CAN_REGISTER_CALLBACKS == 1
        /* Call registered callback*/
        hcan->TxMailbox0CompleteCallback(hcan);
#else
        /* Call weak (surcharged) callback */
        HAL_CAN_TxMailbox0CompleteCallback(hcan);
 8003cb0:	6878      	ldr	r0, [r7, #4]
 8003cb2:	f000 f983 	bl	8003fbc <HAL_CAN_TxMailbox0CompleteCallback>
 8003cb6:	e016      	b.n	8003ce6 <HAL_CAN_IRQHandler+0x98>
#endif /* USE_HAL_CAN_REGISTER_CALLBACKS */
      }
      else
      {
        if ((tsrflags & CAN_TSR_ALST0) != 0U)
 8003cb8:	69bb      	ldr	r3, [r7, #24]
 8003cba:	f003 0304 	and.w	r3, r3, #4
 8003cbe:	2b00      	cmp	r3, #0
 8003cc0:	d004      	beq.n	8003ccc <HAL_CAN_IRQHandler+0x7e>
        {
          /* Update error code */
          errorcode |= HAL_CAN_ERROR_TX_ALST0;
 8003cc2:	6a7b      	ldr	r3, [r7, #36]	@ 0x24
 8003cc4:	f443 6300 	orr.w	r3, r3, #2048	@ 0x800
 8003cc8:	627b      	str	r3, [r7, #36]	@ 0x24
 8003cca:	e00c      	b.n	8003ce6 <HAL_CAN_IRQHandler+0x98>
        }
        else if ((tsrflags & CAN_TSR_TERR0) != 0U)
 8003ccc:	69bb      	ldr	r3, [r7, #24]
 8003cce:	f003 0308 	and.w	r3, r3, #8
 8003cd2:	2b00      	cmp	r3, #0
 8003cd4:	d004      	beq.n	8003ce0 <HAL_CAN_IRQHandler+0x92>
        {
          /* Update error code */
          errorcode |= HAL_CAN_ERROR_TX_TERR0;
 8003cd6:	6a7b      	ldr	r3, [r7, #36]	@ 0x24
 8003cd8:	f443 5380 	orr.w	r3, r3, #4096	@ 0x1000
 8003cdc:	627b      	str	r3, [r7, #36]	@ 0x24
 8003cde:	e002      	b.n	8003ce6 <HAL_CAN_IRQHandler+0x98>
#if USE_HAL_CAN_REGISTER_CALLBACKS == 1
          /* Call registered callback*/
          hcan->TxMailbox0AbortCallback(hcan);
#else
          /* Call weak (surcharged) callback */
          HAL_CAN_TxMailbox0AbortCallback(hcan);
 8003ce0:	6878      	ldr	r0, [r7, #4]
 8003ce2:	f000 f989 	bl	8003ff8 <HAL_CAN_TxMailbox0AbortCallback>
        }
      }
    }

    /* Transmit Mailbox 1 management *****************************************/
    if ((tsrflags & CAN_TSR_RQCP1) != 0U)
 8003ce6:	69bb      	ldr	r3, [r7, #24]
 8003ce8:	f403 7380 	and.w	r3, r3, #256	@ 0x100
 8003cec:	2b00      	cmp	r3, #0
 8003cee:	d024      	beq.n	8003d3a <HAL_CAN_IRQHandler+0xec>
    {
      /* Clear the Transmission Complete flag (and TXOK1,ALST1,TERR1 bits) */
      __HAL_CAN_CLEAR_FLAG(hcan, CAN_FLAG_RQCP1);
 8003cf0:	687b      	ldr	r3, [r7, #4]
 8003cf2:	681b      	ldr	r3, [r3, #0]
 8003cf4:	f44f 7280 	mov.w	r2, #256	@ 0x100
 8003cf8:	609a      	str	r2, [r3, #8]

      if ((tsrflags & CAN_TSR_TXOK1) != 0U)
 8003cfa:	69bb      	ldr	r3, [r7, #24]
 8003cfc:	f403 7300 	and.w	r3, r3, #512	@ 0x200
 8003d00:	2b00      	cmp	r3, #0
 8003d02:	d003      	beq.n	8003d0c <HAL_CAN_IRQHandler+0xbe>
#if USE_HAL_CAN_REGISTER_CALLBACKS == 1
        /* Call registered callback*/
        hcan->TxMailbox1CompleteCallback(hcan);
#else
        /* Call weak (surcharged) callback */
        HAL_CAN_TxMailbox1CompleteCallback(hcan);
 8003d04:	6878      	ldr	r0, [r7, #4]
 8003d06:	f000 f963 	bl	8003fd0 <HAL_CAN_TxMailbox1CompleteCallback>
 8003d0a:	e016      	b.n	8003d3a <HAL_CAN_IRQHandler+0xec>
#endif /* USE_HAL_CAN_REGISTER_CALLBACKS */
      }
      else
      {
        if ((tsrflags & CAN_TSR_ALST1) != 0U)
 8003d0c:	69bb      	ldr	r3, [r7, #24]
 8003d0e:	f403 6380 	and.w	r3, r3, #1024	@ 0x400
 8003d12:	2b00      	cmp	r3, #0
 8003d14:	d004      	beq.n	8003d20 <HAL_CAN_IRQHandler+0xd2>
        {
          /* Update error code */
          errorcode |= HAL_CAN_ERROR_TX_ALST1;
 8003d16:	6a7b      	ldr	r3, [r7, #36]	@ 0x24
 8003d18:	f443 5300 	orr.w	r3, r3, #8192	@ 0x2000
 8003d1c:	627b      	str	r3, [r7, #36]	@ 0x24
 8003d1e:	e00c      	b.n	8003d3a <HAL_CAN_IRQHandler+0xec>
        }
        else if ((tsrflags & CAN_TSR_TERR1) != 0U)
 8003d20:	69bb      	ldr	r3, [r7, #24]
 8003d22:	f403 6300 	and.w	r3, r3, #2048	@ 0x800
 8003d26:	2b00      	cmp	r3, #0
 8003d28:	d004      	beq.n	8003d34 <HAL_CAN_IRQHandler+0xe6>
        {
          /* Update error code */
          errorcode |= HAL_CAN_ERROR_TX_TERR1;
 8003d2a:	6a7b      	ldr	r3, [r7, #36]	@ 0x24
 8003d2c:	f443 4380 	orr.w	r3, r3, #16384	@ 0x4000
 8003d30:	627b      	str	r3, [r7, #36]	@ 0x24
 8003d32:	e002      	b.n	8003d3a <HAL_CAN_IRQHandler+0xec>
#if USE_HAL_CAN_REGISTER_CALLBACKS == 1
          /* Call registered callback*/
          hcan->TxMailbox1AbortCallback(hcan);
#else
          /* Call weak (surcharged) callback */
          HAL_CAN_TxMailbox1AbortCallback(hcan);
 8003d34:	6878      	ldr	r0, [r7, #4]
 8003d36:	f000 f969 	bl	800400c <HAL_CAN_TxMailbox1AbortCallback>
        }
      }
    }

    /* Transmit Mailbox 2 management *****************************************/
    if ((tsrflags & CAN_TSR_RQCP2) != 0U)
 8003d3a:	69bb      	ldr	r3, [r7, #24]
 8003d3c:	f403 3380 	and.w	r3, r3, #65536	@ 0x10000
 8003d40:	2b00      	cmp	r3, #0
 8003d42:	d024      	beq.n	8003d8e <HAL_CAN_IRQHandler+0x140>
    {
      /* Clear the Transmission Complete flag (and TXOK2,ALST2,TERR2 bits) */
      __HAL_CAN_CLEAR_FLAG(hcan, CAN_FLAG_RQCP2);
 8003d44:	687b      	ldr	r3, [r7, #4]
 8003d46:	681b      	ldr	r3, [r3, #0]
 8003d48:	f44f 3280 	mov.w	r2, #65536	@ 0x10000
 8003d4c:	609a      	str	r2, [r3, #8]

      if ((tsrflags & CAN_TSR_TXOK2) != 0U)
 8003d4e:	69bb      	ldr	r3, [r7, #24]
 8003d50:	f403 3300 	and.w	r3, r3, #131072	@ 0x20000
 8003d54:	2b00      	cmp	r3, #0
 8003d56:	d003      	beq.n	8003d60 <HAL_CAN_IRQHandler+0x112>
#if USE_HAL_CAN_REGISTER_CALLBACKS == 1
        /* Call registered callback*/
        hcan->TxMailbox2CompleteCallback(hcan);
#else
        /* Call weak (surcharged) callback */
        HAL_CAN_TxMailbox2CompleteCallback(hcan);
 8003d58:	6878      	ldr	r0, [r7, #4]
 8003d5a:	f000 f943 	bl	8003fe4 <HAL_CAN_TxMailbox2CompleteCallback>
 8003d5e:	e016      	b.n	8003d8e <HAL_CAN_IRQHandler+0x140>
#endif /* USE_HAL_CAN_REGISTER_CALLBACKS */
      }
      else
      {
        if ((tsrflags & CAN_TSR_ALST2) != 0U)
 8003d60:	69bb      	ldr	r3, [r7, #24]
 8003d62:	f403 2380 	and.w	r3, r3, #262144	@ 0x40000
 8003d66:	2b00      	cmp	r3, #0
 8003d68:	d004      	beq.n	8003d74 <HAL_CAN_IRQHandler+0x126>
        {
          /* Update error code */
          errorcode |= HAL_CAN_ERROR_TX_ALST2;
 8003d6a:	6a7b      	ldr	r3, [r7, #36]	@ 0x24
 8003d6c:	f443 4300 	orr.w	r3, r3, #32768	@ 0x8000
 8003d70:	627b      	str	r3, [r7, #36]	@ 0x24
 8003d72:	e00c      	b.n	8003d8e <HAL_CAN_IRQHandler+0x140>
        }
        else if ((tsrflags & CAN_TSR_TERR2) != 0U)
 8003d74:	69bb      	ldr	r3, [r7, #24]
 8003d76:	f403 2300 	and.w	r3, r3, #524288	@ 0x80000
 8003d7a:	2b00      	cmp	r3, #0
 8003d7c:	d004      	beq.n	8003d88 <HAL_CAN_IRQHandler+0x13a>
        {
          /* Update error code */
          errorcode |= HAL_CAN_ERROR_TX_TERR2;
 8003d7e:	6a7b      	ldr	r3, [r7, #36]	@ 0x24
 8003d80:	f443 3380 	orr.w	r3, r3, #65536	@ 0x10000
 8003d84:	627b      	str	r3, [r7, #36]	@ 0x24
 8003d86:	e002      	b.n	8003d8e <HAL_CAN_IRQHandler+0x140>
#if USE_HAL_CAN_REGISTER_CALLBACKS == 1
          /* Call registered callback*/
          hcan->TxMailbox2AbortCallback(hcan);
#else
          /* Call weak (surcharged) callback */
          HAL_CAN_TxMailbox2AbortCallback(hcan);
 8003d88:	6878      	ldr	r0, [r7, #4]
 8003d8a:	f000 f949 	bl	8004020 <HAL_CAN_TxMailbox2AbortCallback>
      }
    }
  }

  /* Receive FIFO 0 overrun interrupt management *****************************/
  if ((interrupts & CAN_IT_RX_FIFO0_OVERRUN) != 0U)
 8003d8e:	6a3b      	ldr	r3, [r7, #32]
 8003d90:	f003 0308 	and.w	r3, r3, #8
 8003d94:	2b00      	cmp	r3, #0
 8003d96:	d00c      	beq.n	8003db2 <HAL_CAN_IRQHandler+0x164>
  {
    if ((rf0rflags & CAN_RF0R_FOVR0) != 0U)
 8003d98:	697b      	ldr	r3, [r7, #20]
 8003d9a:	f003 0310 	and.w	r3, r3, #16
 8003d9e:	2b00      	cmp	r3, #0
 8003da0:	d007      	beq.n	8003db2 <HAL_CAN_IRQHandler+0x164>
    {
      /* Set CAN error code to Rx Fifo 0 overrun error */
      errorcode |= HAL_CAN_ERROR_RX_FOV0;
 8003da2:	6a7b      	ldr	r3, [r7, #36]	@ 0x24
 8003da4:	f443 7300 	orr.w	r3, r3, #512	@ 0x200
 8003da8:	627b      	str	r3, [r7, #36]	@ 0x24

      /* Clear FIFO0 Overrun Flag */
      __HAL_CAN_CLEAR_FLAG(hcan, CAN_FLAG_FOV0);
 8003daa:	687b      	ldr	r3, [r7, #4]
 8003dac:	681b      	ldr	r3, [r3, #0]
 8003dae:	2210      	movs	r2, #16
 8003db0:	60da      	str	r2, [r3, #12]
    }
  }

  /* Receive FIFO 0 full interrupt management ********************************/
  if ((interrupts & CAN_IT_RX_FIFO0_FULL) != 0U)
 8003db2:	6a3b      	ldr	r3, [r7, #32]
 8003db4:	f003 0304 	and.w	r3, r3, #4
 8003db8:	2b00      	cmp	r3, #0
 8003dba:	d00b      	beq.n	8003dd4 <HAL_CAN_IRQHandler+0x186>
  {
    if ((rf0rflags & CAN_RF0R_FULL0) != 0U)
 8003dbc:	697b      	ldr	r3, [r7, #20]
 8003dbe:	f003 0308 	and.w	r3, r3, #8
 8003dc2:	2b00      	cmp	r3, #0
 8003dc4:	d006      	beq.n	8003dd4 <HAL_CAN_IRQHandler+0x186>
    {
      /* Clear FIFO 0 full Flag */
      __HAL_CAN_CLEAR_FLAG(hcan, CAN_FLAG_FF0);
 8003dc6:	687b      	ldr	r3, [r7, #4]
 8003dc8:	681b      	ldr	r3, [r3, #0]
 8003dca:	2208      	movs	r2, #8
 8003dcc:	60da      	str	r2, [r3, #12]
#if USE_HAL_CAN_REGISTER_CALLBACKS == 1
      /* Call registered callback*/
      hcan->RxFifo0FullCallback(hcan);
#else
      /* Call weak (surcharged) callback */
      HAL_CAN_RxFifo0FullCallback(hcan);
 8003dce:	6878      	ldr	r0, [r7, #4]
 8003dd0:	f000 f930 	bl	8004034 <HAL_CAN_RxFifo0FullCallback>
#endif /* USE_HAL_CAN_REGISTER_CALLBACKS */
    }
  }

  /* Receive FIFO 0 message pending interrupt management *********************/
  if ((interrupts & CAN_IT_RX_FIFO0_MSG_PENDING) != 0U)
 8003dd4:	6a3b      	ldr	r3, [r7, #32]
 8003dd6:	f003 0302 	and.w	r3, r3, #2
 8003dda:	2b00      	cmp	r3, #0
 8003ddc:	d009      	beq.n	8003df2 <HAL_CAN_IRQHandler+0x1a4>
  {
    /* Check if message is still pending */
    if ((hcan->Instance->RF0R & CAN_RF0R_FMP0) != 0U)
 8003dde:	687b      	ldr	r3, [r7, #4]
 8003de0:	681b      	ldr	r3, [r3, #0]
 8003de2:	68db      	ldr	r3, [r3, #12]
 8003de4:	f003 0303 	and.w	r3, r3, #3
 8003de8:	2b00      	cmp	r3, #0
 8003dea:	d002      	beq.n	8003df2 <HAL_CAN_IRQHandler+0x1a4>
#if USE_HAL_CAN_REGISTER_CALLBACKS == 1
      /* Call registered callback*/
      hcan->RxFifo0MsgPendingCallback(hcan);
#else
      /* Call weak (surcharged) callback */
      HAL_CAN_RxFifo0MsgPendingCallback(hcan);
 8003dec:	6878      	ldr	r0, [r7, #4]
 8003dee:	f7fd f8ff 	bl	8000ff0 <HAL_CAN_RxFifo0MsgPendingCallback>
#endif /* USE_HAL_CAN_REGISTER_CALLBACKS */
    }
  }

  /* Receive FIFO 1 overrun interrupt management *****************************/
  if ((interrupts & CAN_IT_RX_FIFO1_OVERRUN) != 0U)
 8003df2:	6a3b      	ldr	r3, [r7, #32]
 8003df4:	f003 0340 	and.w	r3, r3, #64	@ 0x40
 8003df8:	2b00      	cmp	r3, #0
 8003dfa:	d00c      	beq.n	8003e16 <HAL_CAN_IRQHandler+0x1c8>
  {
    if ((rf1rflags & CAN_RF1R_FOVR1) != 0U)
 8003dfc:	693b      	ldr	r3, [r7, #16]
 8003dfe:	f003 0310 	and.w	r3, r3, #16
 8003e02:	2b00      	cmp	r3, #0
 8003e04:	d007      	beq.n	8003e16 <HAL_CAN_IRQHandler+0x1c8>
    {
      /* Set CAN error code to Rx Fifo 1 overrun error */
      errorcode |= HAL_CAN_ERROR_RX_FOV1;
 8003e06:	6a7b      	ldr	r3, [r7, #36]	@ 0x24
 8003e08:	f443 6380 	orr.w	r3, r3, #1024	@ 0x400
 8003e0c:	627b      	str	r3, [r7, #36]	@ 0x24

      /* Clear FIFO1 Overrun Flag */
      __HAL_CAN_CLEAR_FLAG(hcan, CAN_FLAG_FOV1);
 8003e0e:	687b      	ldr	r3, [r7, #4]
 8003e10:	681b      	ldr	r3, [r3, #0]
 8003e12:	2210      	movs	r2, #16
 8003e14:	611a      	str	r2, [r3, #16]
    }
  }

  /* Receive FIFO 1 full interrupt management ********************************/
  if ((interrupts & CAN_IT_RX_FIFO1_FULL) != 0U)
 8003e16:	6a3b      	ldr	r3, [r7, #32]
 8003e18:	f003 0320 	and.w	r3, r3, #32
 8003e1c:	2b00      	cmp	r3, #0
 8003e1e:	d00b      	beq.n	8003e38 <HAL_CAN_IRQHandler+0x1ea>
  {
    if ((rf1rflags & CAN_RF1R_FULL1) != 0U)
 8003e20:	693b      	ldr	r3, [r7, #16]
 8003e22:	f003 0308 	and.w	r3, r3, #8
 8003e26:	2b00      	cmp	r3, #0
 8003e28:	d006      	beq.n	8003e38 <HAL_CAN_IRQHandler+0x1ea>
    {
      /* Clear FIFO 1 full Flag */
      __HAL_CAN_CLEAR_FLAG(hcan, CAN_FLAG_FF1);
 8003e2a:	687b      	ldr	r3, [r7, #4]
 8003e2c:	681b      	ldr	r3, [r3, #0]
 8003e2e:	2208      	movs	r2, #8
 8003e30:	611a      	str	r2, [r3, #16]
#if USE_HAL_CAN_REGISTER_CALLBACKS == 1
      /* Call registered callback*/
      hcan->RxFifo1FullCallback(hcan);
#else
      /* Call weak (surcharged) callback */
      HAL_CAN_RxFifo1FullCallback(hcan);
 8003e32:	6878      	ldr	r0, [r7, #4]
 8003e34:	f000 f912 	bl	800405c <HAL_CAN_RxFifo1FullCallback>
#endif /* USE_HAL_CAN_REGISTER_CALLBACKS */
    }
  }

  /* Receive FIFO 1 message pending interrupt management *********************/
  if ((interrupts & CAN_IT_RX_FIFO1_MSG_PENDING) != 0U)
 8003e38:	6a3b      	ldr	r3, [r7, #32]
 8003e3a:	f003 0310 	and.w	r3, r3, #16
 8003e3e:	2b00      	cmp	r3, #0
 8003e40:	d009      	beq.n	8003e56 <HAL_CAN_IRQHandler+0x208>
  {
    /* Check if message is still pending */
    if ((hcan->Instance->RF1R & CAN_RF1R_FMP1) != 0U)
 8003e42:	687b      	ldr	r3, [r7, #4]
 8003e44:	681b      	ldr	r3, [r3, #0]
 8003e46:	691b      	ldr	r3, [r3, #16]
 8003e48:	f003 0303 	and.w	r3, r3, #3
 8003e4c:	2b00      	cmp	r3, #0
 8003e4e:	d002      	beq.n	8003e56 <HAL_CAN_IRQHandler+0x208>
#if USE_HAL_CAN_REGISTER_CALLBACKS == 1
      /* Call registered callback*/
      hcan->RxFifo1MsgPendingCallback(hcan);
#else
      /* Call weak (surcharged) callback */
      HAL_CAN_RxFifo1MsgPendingCallback(hcan);
 8003e50:	6878      	ldr	r0, [r7, #4]
 8003e52:	f000 f8f9 	bl	8004048 <HAL_CAN_RxFifo1MsgPendingCallback>
#endif /* USE_HAL_CAN_REGISTER_CALLBACKS */
    }
  }

  /* Sleep interrupt management *********************************************/
  if ((interrupts & CAN_IT_SLEEP_ACK) != 0U)
 8003e56:	6a3b      	ldr	r3, [r7, #32]
 8003e58:	f403 3300 	and.w	r3, r3, #131072	@ 0x20000
 8003e5c:	2b00      	cmp	r3, #0
 8003e5e:	d00b      	beq.n	8003e78 <HAL_CAN_IRQHandler+0x22a>
  {
    if ((msrflags & CAN_MSR_SLAKI) != 0U)
 8003e60:	69fb      	ldr	r3, [r7, #28]
 8003e62:	f003 0310 	and.w	r3, r3, #16
 8003e66:	2b00      	cmp	r3, #0
 8003e68:	d006      	beq.n	8003e78 <HAL_CAN_IRQHandler+0x22a>
    {
      /* Clear Sleep interrupt Flag */
      __HAL_CAN_CLEAR_FLAG(hcan, CAN_FLAG_SLAKI);
 8003e6a:	687b      	ldr	r3, [r7, #4]
 8003e6c:	681b      	ldr	r3, [r3, #0]
 8003e6e:	2210      	movs	r2, #16
 8003e70:	605a      	str	r2, [r3, #4]
#if USE_HAL_CAN_REGISTER_CALLBACKS == 1
      /* Call registered callback*/
      hcan->SleepCallback(hcan);
#else
      /* Call weak (surcharged) callback */
      HAL_CAN_SleepCallback(hcan);
 8003e72:	6878      	ldr	r0, [r7, #4]
 8003e74:	f000 f8fc 	bl	8004070 <HAL_CAN_SleepCallback>
#endif /* USE_HAL_CAN_REGISTER_CALLBACKS */
    }
  }

  /* WakeUp interrupt management *********************************************/
  if ((interrupts & CAN_IT_WAKEUP) != 0U)
 8003e78:	6a3b      	ldr	r3, [r7, #32]
 8003e7a:	f403 3380 	and.w	r3, r3, #65536	@ 0x10000
 8003e7e:	2b00      	cmp	r3, #0
 8003e80:	d00b      	beq.n	8003e9a <HAL_CAN_IRQHandler+0x24c>
  {
    if ((msrflags & CAN_MSR_WKUI) != 0U)
 8003e82:	69fb      	ldr	r3, [r7, #28]
 8003e84:	f003 0308 	and.w	r3, r3, #8
 8003e88:	2b00      	cmp	r3, #0
 8003e8a:	d006      	beq.n	8003e9a <HAL_CAN_IRQHandler+0x24c>
    {
      /* Clear WakeUp Flag */
      __HAL_CAN_CLEAR_FLAG(hcan, CAN_FLAG_WKU);
 8003e8c:	687b      	ldr	r3, [r7, #4]
 8003e8e:	681b      	ldr	r3, [r3, #0]
 8003e90:	2208      	movs	r2, #8
 8003e92:	605a      	str	r2, [r3, #4]
#if USE_HAL_CAN_REGISTER_CALLBACKS == 1
      /* Call registered callback*/
      hcan->WakeUpFromRxMsgCallback(hcan);
#else
      /* Call weak (surcharged) callback */
      HAL_CAN_WakeUpFromRxMsgCallback(hcan);
 8003e94:	6878      	ldr	r0, [r7, #4]
 8003e96:	f000 f8f5 	bl	8004084 <HAL_CAN_WakeUpFromRxMsgCallback>
#endif /* USE_HAL_CAN_REGISTER_CALLBACKS */
    }
  }

  /* Error interrupts management *********************************************/
  if ((interrupts & CAN_IT_ERROR) != 0U)
 8003e9a:	6a3b      	ldr	r3, [r7, #32]
 8003e9c:	f403 4300 	and.w	r3, r3, #32768	@ 0x8000
 8003ea0:	2b00      	cmp	r3, #0
 8003ea2:	d07b      	beq.n	8003f9c <HAL_CAN_IRQHandler+0x34e>
  {
    if ((msrflags & CAN_MSR_ERRI) != 0U)
 8003ea4:	69fb      	ldr	r3, [r7, #28]
 8003ea6:	f003 0304 	and.w	r3, r3, #4
 8003eaa:	2b00      	cmp	r3, #0
 8003eac:	d072      	beq.n	8003f94 <HAL_CAN_IRQHandler+0x346>
    {
      /* Check Error Warning Flag */
      if (((interrupts & CAN_IT_ERROR_WARNING) != 0U) &&
 8003eae:	6a3b      	ldr	r3, [r7, #32]
 8003eb0:	f403 7380 	and.w	r3, r3, #256	@ 0x100
 8003eb4:	2b00      	cmp	r3, #0
 8003eb6:	d008      	beq.n	8003eca <HAL_CAN_IRQHandler+0x27c>
          ((esrflags & CAN_ESR_EWGF) != 0U))
 8003eb8:	68fb      	ldr	r3, [r7, #12]
 8003eba:	f003 0301 	and.w	r3, r3, #1
      if (((interrupts & CAN_IT_ERROR_WARNING) != 0U) &&
 8003ebe:	2b00      	cmp	r3, #0
 8003ec0:	d003      	beq.n	8003eca <HAL_CAN_IRQHandler+0x27c>
      {
        /* Set CAN error code to Error Warning */
        errorcode |= HAL_CAN_ERROR_EWG;
 8003ec2:	6a7b      	ldr	r3, [r7, #36]	@ 0x24
 8003ec4:	f043 0301 	orr.w	r3, r3, #1
 8003ec8:	627b      	str	r3, [r7, #36]	@ 0x24

        /* No need for clear of Error Warning Flag as read-only */
      }

      /* Check Error Passive Flag */
      if (((interrupts & CAN_IT_ERROR_PASSIVE) != 0U) &&
 8003eca:	6a3b      	ldr	r3, [r7, #32]
 8003ecc:	f403 7300 	and.w	r3, r3, #512	@ 0x200
 8003ed0:	2b00      	cmp	r3, #0
 8003ed2:	d008      	beq.n	8003ee6 <HAL_CAN_IRQHandler+0x298>
          ((esrflags & CAN_ESR_EPVF) != 0U))
 8003ed4:	68fb      	ldr	r3, [r7, #12]
 8003ed6:	f003 0302 	and.w	r3, r3, #2
      if (((interrupts & CAN_IT_ERROR_PASSIVE) != 0U) &&
 8003eda:	2b00      	cmp	r3, #0
 8003edc:	d003      	beq.n	8003ee6 <HAL_CAN_IRQHandler+0x298>
      {
        /* Set CAN error code to Error Passive */
        errorcode |= HAL_CAN_ERROR_EPV;
 8003ede:	6a7b      	ldr	r3, [r7, #36]	@ 0x24
 8003ee0:	f043 0302 	orr.w	r3, r3, #2
 8003ee4:	627b      	str	r3, [r7, #36]	@ 0x24

        /* No need for clear of Error Passive Flag as read-only */
      }

      /* Check Bus-off Flag */
      if (((interrupts & CAN_IT_BUSOFF) != 0U) &&
 8003ee6:	6a3b      	ldr	r3, [r7, #32]
 8003ee8:	f403 6380 	and.w	r3, r3, #1024	@ 0x400
 8003eec:	2b00      	cmp	r3, #0
 8003eee:	d008      	beq.n	8003f02 <HAL_CAN_IRQHandler+0x2b4>
          ((esrflags & CAN_ESR_BOFF) != 0U))
 8003ef0:	68fb      	ldr	r3, [r7, #12]
 8003ef2:	f003 0304 	and.w	r3, r3, #4
      if (((interrupts & CAN_IT_BUSOFF) != 0U) &&
 8003ef6:	2b00      	cmp	r3, #0
 8003ef8:	d003      	beq.n	8003f02 <HAL_CAN_IRQHandler+0x2b4>
      {
        /* Set CAN error code to Bus-Off */
        errorcode |= HAL_CAN_ERROR_BOF;
 8003efa:	6a7b      	ldr	r3, [r7, #36]	@ 0x24
 8003efc:	f043 0304 	orr.w	r3, r3, #4
 8003f00:	627b      	str	r3, [r7, #36]	@ 0x24

        /* No need for clear of Error Bus-Off as read-only */
      }

      /* Check Last Error Code Flag */
      if (((interrupts & CAN_IT_LAST_ERROR_CODE) != 0U) &&
 8003f02:	6a3b      	ldr	r3, [r7, #32]
 8003f04:	f403 6300 	and.w	r3, r3, #2048	@ 0x800
 8003f08:	2b00      	cmp	r3, #0
 8003f0a:	d043      	beq.n	8003f94 <HAL_CAN_IRQHandler+0x346>
          ((esrflags & CAN_ESR_LEC) != 0U))
 8003f0c:	68fb      	ldr	r3, [r7, #12]
 8003f0e:	f003 0370 	and.w	r3, r3, #112	@ 0x70
      if (((interrupts & CAN_IT_LAST_ERROR_CODE) != 0U) &&
 8003f12:	2b00      	cmp	r3, #0
 8003f14:	d03e      	beq.n	8003f94 <HAL_CAN_IRQHandler+0x346>
      {
        switch (esrflags & CAN_ESR_LEC)
 8003f16:	68fb      	ldr	r3, [r7, #12]
 8003f18:	f003 0370 	and.w	r3, r3, #112	@ 0x70
 8003f1c:	2b60      	cmp	r3, #96	@ 0x60
 8003f1e:	d02b      	beq.n	8003f78 <HAL_CAN_IRQHandler+0x32a>
 8003f20:	2b60      	cmp	r3, #96	@ 0x60
 8003f22:	d82e      	bhi.n	8003f82 <HAL_CAN_IRQHandler+0x334>
 8003f24:	2b50      	cmp	r3, #80	@ 0x50
 8003f26:	d022      	beq.n	8003f6e <HAL_CAN_IRQHandler+0x320>
 8003f28:	2b50      	cmp	r3, #80	@ 0x50
 8003f2a:	d82a      	bhi.n	8003f82 <HAL_CAN_IRQHandler+0x334>
 8003f2c:	2b40      	cmp	r3, #64	@ 0x40
 8003f2e:	d019      	beq.n	8003f64 <HAL_CAN_IRQHandler+0x316>
 8003f30:	2b40      	cmp	r3, #64	@ 0x40
 8003f32:	d826      	bhi.n	8003f82 <HAL_CAN_IRQHandler+0x334>
 8003f34:	2b30      	cmp	r3, #48	@ 0x30
 8003f36:	d010      	beq.n	8003f5a <HAL_CAN_IRQHandler+0x30c>
 8003f38:	2b30      	cmp	r3, #48	@ 0x30
 8003f3a:	d822      	bhi.n	8003f82 <HAL_CAN_IRQHandler+0x334>
 8003f3c:	2b10      	cmp	r3, #16
 8003f3e:	d002      	beq.n	8003f46 <HAL_CAN_IRQHandler+0x2f8>
 8003f40:	2b20      	cmp	r3, #32
 8003f42:	d005      	beq.n	8003f50 <HAL_CAN_IRQHandler+0x302>
          case (CAN_ESR_LEC_2 | CAN_ESR_LEC_1):
            /* Set CAN error code to CRC error */
            errorcode |= HAL_CAN_ERROR_CRC;
            break;
          default:
            break;
 8003f44:	e01d      	b.n	8003f82 <HAL_CAN_IRQHandler+0x334>
            errorcode |= HAL_CAN_ERROR_STF;
 8003f46:	6a7b      	ldr	r3, [r7, #36]	@ 0x24
 8003f48:	f043 0308 	orr.w	r3, r3, #8
 8003f4c:	627b      	str	r3, [r7, #36]	@ 0x24
            break;
 8003f4e:	e019      	b.n	8003f84 <HAL_CAN_IRQHandler+0x336>
            errorcode |= HAL_CAN_ERROR_FOR;
 8003f50:	6a7b      	ldr	r3, [r7, #36]	@ 0x24
 8003f52:	f043 0310 	orr.w	r3, r3, #16
 8003f56:	627b      	str	r3, [r7, #36]	@ 0x24
            break;
 8003f58:	e014      	b.n	8003f84 <HAL_CAN_IRQHandler+0x336>
            errorcode |= HAL_CAN_ERROR_ACK;
 8003f5a:	6a7b      	ldr	r3, [r7, #36]	@ 0x24
 8003f5c:	f043 0320 	orr.w	r3, r3, #32
 8003f60:	627b      	str	r3, [r7, #36]	@ 0x24
            break;
 8003f62:	e00f      	b.n	8003f84 <HAL_CAN_IRQHandler+0x336>
            errorcode |= HAL_CAN_ERROR_BR;
 8003f64:	6a7b      	ldr	r3, [r7, #36]	@ 0x24
 8003f66:	f043 0340 	orr.w	r3, r3, #64	@ 0x40
 8003f6a:	627b      	str	r3, [r7, #36]	@ 0x24
            break;
 8003f6c:	e00a      	b.n	8003f84 <HAL_CAN_IRQHandler+0x336>
            errorcode |= HAL_CAN_ERROR_BD;
 8003f6e:	6a7b      	ldr	r3, [r7, #36]	@ 0x24
 8003f70:	f043 0380 	orr.w	r3, r3, #128	@ 0x80
 8003f74:	627b      	str	r3, [r7, #36]	@ 0x24
            break;
 8003f76:	e005      	b.n	8003f84 <HAL_CAN_IRQHandler+0x336>
            errorcode |= HAL_CAN_ERROR_CRC;
 8003f78:	6a7b      	ldr	r3, [r7, #36]	@ 0x24
 8003f7a:	f443 7380 	orr.w	r3, r3, #256	@ 0x100
 8003f7e:	627b      	str	r3, [r7, #36]	@ 0x24
            break;
 8003f80:	e000      	b.n	8003f84 <HAL_CAN_IRQHandler+0x336>
            break;
 8003f82:	bf00      	nop
        }

        /* Clear Last error code Flag */
        CLEAR_BIT(hcan->Instance->ESR, CAN_ESR_LEC);
 8003f84:	687b      	ldr	r3, [r7, #4]
 8003f86:	681b      	ldr	r3, [r3, #0]
 8003f88:	699a      	ldr	r2, [r3, #24]
 8003f8a:	687b      	ldr	r3, [r7, #4]
 8003f8c:	681b      	ldr	r3, [r3, #0]
 8003f8e:	f022 0270 	bic.w	r2, r2, #112	@ 0x70
 8003f92:	619a      	str	r2, [r3, #24]
      }
    }

    /* Clear ERRI Flag */
    __HAL_CAN_CLEAR_FLAG(hcan, CAN_FLAG_ERRI);
 8003f94:	687b      	ldr	r3, [r7, #4]
 8003f96:	681b      	ldr	r3, [r3, #0]
 8003f98:	2204      	movs	r2, #4
 8003f9a:	605a      	str	r2, [r3, #4]
  }

  /* Call the Error call Back in case of Errors */
  if (errorcode != HAL_CAN_ERROR_NONE)
 8003f9c:	6a7b      	ldr	r3, [r7, #36]	@ 0x24
 8003f9e:	2b00      	cmp	r3, #0
 8003fa0:	d008      	beq.n	8003fb4 <HAL_CAN_IRQHandler+0x366>
  {
    /* Update error code in handle */
    hcan->ErrorCode |= errorcode;
 8003fa2:	687b      	ldr	r3, [r7, #4]
 8003fa4:	6a5a      	ldr	r2, [r3, #36]	@ 0x24
 8003fa6:	6a7b      	ldr	r3, [r7, #36]	@ 0x24
 8003fa8:	431a      	orrs	r2, r3
 8003faa:	687b      	ldr	r3, [r7, #4]
 8003fac:	625a      	str	r2, [r3, #36]	@ 0x24
#if USE_HAL_CAN_REGISTER_CALLBACKS == 1
    /* Call registered callback*/
    hcan->ErrorCallback(hcan);
#else
    /* Call weak (surcharged) callback */
    HAL_CAN_ErrorCallback(hcan);
 8003fae:	6878      	ldr	r0, [r7, #4]
 8003fb0:	f000 f872 	bl	8004098 <HAL_CAN_ErrorCallback>
#endif /* USE_HAL_CAN_REGISTER_CALLBACKS */
  }
}
 8003fb4:	bf00      	nop
 8003fb6:	3728      	adds	r7, #40	@ 0x28
 8003fb8:	46bd      	mov	sp, r7
 8003fba:	bd80      	pop	{r7, pc}

08003fbc <HAL_CAN_TxMailbox0CompleteCallback>:
  * @param  hcan pointer to a CAN_HandleTypeDef structure that contains
  *         the configuration information for the specified CAN.
  * @retval None
  */
__weak void HAL_CAN_TxMailbox0CompleteCallback(CAN_HandleTypeDef *hcan)
{
 8003fbc:	b480      	push	{r7}
 8003fbe:	b083      	sub	sp, #12
 8003fc0:	af00      	add	r7, sp, #0
 8003fc2:	6078      	str	r0, [r7, #4]

  /* NOTE : This function Should not be modified, when the callback is needed,
            the HAL_CAN_TxMailbox0CompleteCallback could be implemented in the
            user file
   */
}
 8003fc4:	bf00      	nop
 8003fc6:	370c      	adds	r7, #12
 8003fc8:	46bd      	mov	sp, r7
 8003fca:	f85d 7b04 	ldr.w	r7, [sp], #4
 8003fce:	4770      	bx	lr

08003fd0 <HAL_CAN_TxMailbox1CompleteCallback>:
  * @param  hcan pointer to a CAN_HandleTypeDef structure that contains
  *         the configuration information for the specified CAN.
  * @retval None
  */
__weak void HAL_CAN_TxMailbox1CompleteCallback(CAN_HandleTypeDef *hcan)
{
 8003fd0:	b480      	push	{r7}
 8003fd2:	b083      	sub	sp, #12
 8003fd4:	af00      	add	r7, sp, #0
 8003fd6:	6078      	str	r0, [r7, #4]

  /* NOTE : This function Should not be modified, when the callback is needed,
            the HAL_CAN_TxMailbox1CompleteCallback could be implemented in the
            user file
   */
}
 8003fd8:	bf00      	nop
 8003fda:	370c      	adds	r7, #12
 8003fdc:	46bd      	mov	sp, r7
 8003fde:	f85d 7b04 	ldr.w	r7, [sp], #4
 8003fe2:	4770      	bx	lr

08003fe4 <HAL_CAN_TxMailbox2CompleteCallback>:
  * @param  hcan pointer to a CAN_HandleTypeDef structure that contains
  *         the configuration information for the specified CAN.
  * @retval None
  */
__weak void HAL_CAN_TxMailbox2CompleteCallback(CAN_HandleTypeDef *hcan)
{
 8003fe4:	b480      	push	{r7}
 8003fe6:	b083      	sub	sp, #12
 8003fe8:	af00      	add	r7, sp, #0
 8003fea:	6078      	str	r0, [r7, #4]

  /* NOTE : This function Should not be modified, when the callback is needed,
            the HAL_CAN_TxMailbox2CompleteCallback could be implemented in the
            user file
   */
}
 8003fec:	bf00      	nop
 8003fee:	370c      	adds	r7, #12
 8003ff0:	46bd      	mov	sp, r7
 8003ff2:	f85d 7b04 	ldr.w	r7, [sp], #4
 8003ff6:	4770      	bx	lr

08003ff8 <HAL_CAN_TxMailbox0AbortCallback>:
  * @param  hcan pointer to an CAN_HandleTypeDef structure that contains
  *         the configuration information for the specified CAN.
  * @retval None
  */
__weak void HAL_CAN_TxMailbox0AbortCallback(CAN_HandleTypeDef *hcan)
{
 8003ff8:	b480      	push	{r7}
 8003ffa:	b083      	sub	sp, #12
 8003ffc:	af00      	add	r7, sp, #0
 8003ffe:	6078      	str	r0, [r7, #4]

  /* NOTE : This function Should not be modified, when the callback is needed,
            the HAL_CAN_TxMailbox0AbortCallback could be implemented in the
            user file
   */
}
 8004000:	bf00      	nop
 8004002:	370c      	adds	r7, #12
 8004004:	46bd      	mov	sp, r7
 8004006:	f85d 7b04 	ldr.w	r7, [sp], #4
 800400a:	4770      	bx	lr

0800400c <HAL_CAN_TxMailbox1AbortCallback>:
  * @param  hcan pointer to an CAN_HandleTypeDef structure that contains
  *         the configuration information for the specified CAN.
  * @retval None
  */
__weak void HAL_CAN_TxMailbox1AbortCallback(CAN_HandleTypeDef *hcan)
{
 800400c:	b480      	push	{r7}
 800400e:	b083      	sub	sp, #12
 8004010:	af00      	add	r7, sp, #0
 8004012:	6078      	str	r0, [r7, #4]

  /* NOTE : This function Should not be modified, when the callback is needed,
            the HAL_CAN_TxMailbox1AbortCallback could be implemented in the
            user file
   */
}
 8004014:	bf00      	nop
 8004016:	370c      	adds	r7, #12
 8004018:	46bd      	mov	sp, r7
 800401a:	f85d 7b04 	ldr.w	r7, [sp], #4
 800401e:	4770      	bx	lr

08004020 <HAL_CAN_TxMailbox2AbortCallback>:
  * @param  hcan pointer to an CAN_HandleTypeDef structure that contains
  *         the configuration information for the specified CAN.
  * @retval None
  */
__weak void HAL_CAN_TxMailbox2AbortCallback(CAN_HandleTypeDef *hcan)
{
 8004020:	b480      	push	{r7}
 8004022:	b083      	sub	sp, #12
 8004024:	af00      	add	r7, sp, #0
 8004026:	6078      	str	r0, [r7, #4]

  /* NOTE : This function Should not be modified, when the callback is needed,
            the HAL_CAN_TxMailbox2AbortCallback could be implemented in the
            user file
   */
}
 8004028:	bf00      	nop
 800402a:	370c      	adds	r7, #12
 800402c:	46bd      	mov	sp, r7
 800402e:	f85d 7b04 	ldr.w	r7, [sp], #4
 8004032:	4770      	bx	lr

08004034 <HAL_CAN_RxFifo0FullCallback>:
  * @param  hcan pointer to a CAN_HandleTypeDef structure that contains
  *         the configuration information for the specified CAN.
  * @retval None
  */
__weak void HAL_CAN_RxFifo0FullCallback(CAN_HandleTypeDef *hcan)
{
 8004034:	b480      	push	{r7}
 8004036:	b083      	sub	sp, #12
 8004038:	af00      	add	r7, sp, #0
 800403a:	6078      	str	r0, [r7, #4]

  /* NOTE : This function Should not be modified, when the callback is needed,
            the HAL_CAN_RxFifo0FullCallback could be implemented in the user
            file
   */
}
 800403c:	bf00      	nop
 800403e:	370c      	adds	r7, #12
 8004040:	46bd      	mov	sp, r7
 8004042:	f85d 7b04 	ldr.w	r7, [sp], #4
 8004046:	4770      	bx	lr

08004048 <HAL_CAN_RxFifo1MsgPendingCallback>:
  * @param  hcan pointer to a CAN_HandleTypeDef structure that contains
  *         the configuration information for the specified CAN.
  * @retval None
  */
__weak void HAL_CAN_RxFifo1MsgPendingCallback(CAN_HandleTypeDef *hcan)
{
 8004048:	b480      	push	{r7}
 800404a:	b083      	sub	sp, #12
 800404c:	af00      	add	r7, sp, #0
 800404e:	6078      	str	r0, [r7, #4]

  /* NOTE : This function Should not be modified, when the callback is needed,
            the HAL_CAN_RxFifo1MsgPendingCallback could be implemented in the
            user file
   */
}
 8004050:	bf00      	nop
 8004052:	370c      	adds	r7, #12
 8004054:	46bd      	mov	sp, r7
 8004056:	f85d 7b04 	ldr.w	r7, [sp], #4
 800405a:	4770      	bx	lr

0800405c <HAL_CAN_RxFifo1FullCallback>:
  * @param  hcan pointer to a CAN_HandleTypeDef structure that contains
  *         the configuration information for the specified CAN.
  * @retval None
  */
__weak void HAL_CAN_RxFifo1FullCallback(CAN_HandleTypeDef *hcan)
{
 800405c:	b480      	push	{r7}
 800405e:	b083      	sub	sp, #12
 8004060:	af00      	add	r7, sp, #0
 8004062:	6078      	str	r0, [r7, #4]

  /* NOTE : This function Should not be modified, when the callback is needed,
            the HAL_CAN_RxFifo1FullCallback could be implemented in the user
            file
   */
}
 8004064:	bf00      	nop
 8004066:	370c      	adds	r7, #12
 8004068:	46bd      	mov	sp, r7
 800406a:	f85d 7b04 	ldr.w	r7, [sp], #4
 800406e:	4770      	bx	lr

08004070 <HAL_CAN_SleepCallback>:
  * @param  hcan pointer to a CAN_HandleTypeDef structure that contains
  *         the configuration information for the specified CAN.
  * @retval None
  */
__weak void HAL_CAN_SleepCallback(CAN_HandleTypeDef *hcan)
{
 8004070:	b480      	push	{r7}
 8004072:	b083      	sub	sp, #12
 8004074:	af00      	add	r7, sp, #0
 8004076:	6078      	str	r0, [r7, #4]
  UNUSED(hcan);

  /* NOTE : This function Should not be modified, when the callback is needed,
            the HAL_CAN_SleepCallback could be implemented in the user file
   */
}
 8004078:	bf00      	nop
 800407a:	370c      	adds	r7, #12
 800407c:	46bd      	mov	sp, r7
 800407e:	f85d 7b04 	ldr.w	r7, [sp], #4
 8004082:	4770      	bx	lr

08004084 <HAL_CAN_WakeUpFromRxMsgCallback>:
  * @param  hcan pointer to a CAN_HandleTypeDef structure that contains
  *         the configuration information for the specified CAN.
  * @retval None
  */
__weak void HAL_CAN_WakeUpFromRxMsgCallback(CAN_HandleTypeDef *hcan)
{
 8004084:	b480      	push	{r7}
 8004086:	b083      	sub	sp, #12
 8004088:	af00      	add	r7, sp, #0
 800408a:	6078      	str	r0, [r7, #4]

  /* NOTE : This function Should not be modified, when the callback is needed,
            the HAL_CAN_WakeUpFromRxMsgCallback could be implemented in the
            user file
   */
}
 800408c:	bf00      	nop
 800408e:	370c      	adds	r7, #12
 8004090:	46bd      	mov	sp, r7
 8004092:	f85d 7b04 	ldr.w	r7, [sp], #4
 8004096:	4770      	bx	lr

08004098 <HAL_CAN_ErrorCallback>:
  * @param  hcan pointer to a CAN_HandleTypeDef structure that contains
  *         the configuration information for the specified CAN.
  * @retval None
  */
__weak void HAL_CAN_ErrorCallback(CAN_HandleTypeDef *hcan)
{
 8004098:	b480      	push	{r7}
 800409a:	b083      	sub	sp, #12
 800409c:	af00      	add	r7, sp, #0
 800409e:	6078      	str	r0, [r7, #4]
  UNUSED(hcan);

  /* NOTE : This function Should not be modified, when the callback is needed,
            the HAL_CAN_ErrorCallback could be implemented in the user file
   */
}
 80040a0:	bf00      	nop
 80040a2:	370c      	adds	r7, #12
 80040a4:	46bd      	mov	sp, r7
 80040a6:	f85d 7b04 	ldr.w	r7, [sp], #4
 80040aa:	4770      	bx	lr

080040ac <__NVIC_SetPriorityGrouping>:
           In case of a conflict between priority grouping and available
           priority bits (__NVIC_PRIO_BITS), the smallest possible priority group is set.
  \param [in]      PriorityGroup  Priority grouping field.
 */
__STATIC_INLINE void __NVIC_SetPriorityGrouping(uint32_t PriorityGroup)
{
 80040ac:	b480      	push	{r7}
 80040ae:	b085      	sub	sp, #20
 80040b0:	af00      	add	r7, sp, #0
 80040b2:	6078      	str	r0, [r7, #4]
  uint32_t reg_value;
  uint32_t PriorityGroupTmp = (PriorityGroup & (uint32_t)0x07UL);             /* only values 0..7 are used          */
 80040b4:	687b      	ldr	r3, [r7, #4]
 80040b6:	f003 0307 	and.w	r3, r3, #7
 80040ba:	60fb      	str	r3, [r7, #12]

  reg_value  =  SCB->AIRCR;                                                   /* read old register configuration    */
 80040bc:	4b0c      	ldr	r3, [pc, #48]	@ (80040f0 <__NVIC_SetPriorityGrouping+0x44>)
 80040be:	68db      	ldr	r3, [r3, #12]
 80040c0:	60bb      	str	r3, [r7, #8]
  reg_value &= ~((uint32_t)(SCB_AIRCR_VECTKEY_Msk | SCB_AIRCR_PRIGROUP_Msk)); /* clear bits to change               */
 80040c2:	68ba      	ldr	r2, [r7, #8]
 80040c4:	f64f 03ff 	movw	r3, #63743	@ 0xf8ff
 80040c8:	4013      	ands	r3, r2
 80040ca:	60bb      	str	r3, [r7, #8]
  reg_value  =  (reg_value                                   |
                ((uint32_t)0x5FAUL << SCB_AIRCR_VECTKEY_Pos) |
                (PriorityGroupTmp << SCB_AIRCR_PRIGROUP_Pos)  );              /* Insert write key and priority group */
 80040cc:	68fb      	ldr	r3, [r7, #12]
 80040ce:	021a      	lsls	r2, r3, #8
                ((uint32_t)0x5FAUL << SCB_AIRCR_VECTKEY_Pos) |
 80040d0:	68bb      	ldr	r3, [r7, #8]
 80040d2:	4313      	orrs	r3, r2
  reg_value  =  (reg_value                                   |
 80040d4:	f043 63bf 	orr.w	r3, r3, #100139008	@ 0x5f80000
 80040d8:	f443 3300 	orr.w	r3, r3, #131072	@ 0x20000
 80040dc:	60bb      	str	r3, [r7, #8]
  SCB->AIRCR =  reg_value;
 80040de:	4a04      	ldr	r2, [pc, #16]	@ (80040f0 <__NVIC_SetPriorityGrouping+0x44>)
 80040e0:	68bb      	ldr	r3, [r7, #8]
 80040e2:	60d3      	str	r3, [r2, #12]
}
 80040e4:	bf00      	nop
 80040e6:	3714      	adds	r7, #20
 80040e8:	46bd      	mov	sp, r7
 80040ea:	f85d 7b04 	ldr.w	r7, [sp], #4
 80040ee:	4770      	bx	lr
 80040f0:	e000ed00 	.word	0xe000ed00

080040f4 <__NVIC_GetPriorityGrouping>:
  \brief   Get Priority Grouping
  \details Reads the priority grouping field from the NVIC Interrupt Controller.
  \return                Priority grouping field (SCB->AIRCR [10:8] PRIGROUP field).
 */
__STATIC_INLINE uint32_t __NVIC_GetPriorityGrouping(void)
{
 80040f4:	b480      	push	{r7}
 80040f6:	af00      	add	r7, sp, #0
  return ((uint32_t)((SCB->AIRCR & SCB_AIRCR_PRIGROUP_Msk) >> SCB_AIRCR_PRIGROUP_Pos));
 80040f8:	4b04      	ldr	r3, [pc, #16]	@ (800410c <__NVIC_GetPriorityGrouping+0x18>)
 80040fa:	68db      	ldr	r3, [r3, #12]
 80040fc:	0a1b      	lsrs	r3, r3, #8
 80040fe:	f003 0307 	and.w	r3, r3, #7
}
 8004102:	4618      	mov	r0, r3
 8004104:	46bd      	mov	sp, r7
 8004106:	f85d 7b04 	ldr.w	r7, [sp], #4
 800410a:	4770      	bx	lr
 800410c:	e000ed00 	.word	0xe000ed00

08004110 <__NVIC_EnableIRQ>:
  \details Enables a device specific interrupt in the NVIC interrupt controller.
  \param [in]      IRQn  Device specific interrupt number.
  \note    IRQn must not be negative.
 */
__STATIC_INLINE void __NVIC_EnableIRQ(IRQn_Type IRQn)
{
 8004110:	b480      	push	{r7}
 8004112:	b083      	sub	sp, #12
 8004114:	af00      	add	r7, sp, #0
 8004116:	4603      	mov	r3, r0
 8004118:	71fb      	strb	r3, [r7, #7]
  if ((int32_t)(IRQn) >= 0)
 800411a:	f997 3007 	ldrsb.w	r3, [r7, #7]
 800411e:	2b00      	cmp	r3, #0
 8004120:	db0b      	blt.n	800413a <__NVIC_EnableIRQ+0x2a>
  {
    __COMPILER_BARRIER();
    NVIC->ISER[(((uint32_t)IRQn) >> 5UL)] = (uint32_t)(1UL << (((uint32_t)IRQn) & 0x1FUL));
 8004122:	79fb      	ldrb	r3, [r7, #7]
 8004124:	f003 021f 	and.w	r2, r3, #31
 8004128:	4907      	ldr	r1, [pc, #28]	@ (8004148 <__NVIC_EnableIRQ+0x38>)
 800412a:	f997 3007 	ldrsb.w	r3, [r7, #7]
 800412e:	095b      	lsrs	r3, r3, #5
 8004130:	2001      	movs	r0, #1
 8004132:	fa00 f202 	lsl.w	r2, r0, r2
 8004136:	f841 2023 	str.w	r2, [r1, r3, lsl #2]
    __COMPILER_BARRIER();
  }
}
 800413a:	bf00      	nop
 800413c:	370c      	adds	r7, #12
 800413e:	46bd      	mov	sp, r7
 8004140:	f85d 7b04 	ldr.w	r7, [sp], #4
 8004144:	4770      	bx	lr
 8004146:	bf00      	nop
 8004148:	e000e100 	.word	0xe000e100

0800414c <__NVIC_SetPriority>:
  \param [in]      IRQn  Interrupt number.
  \param [in]  priority  Priority to set.
  \note    The priority cannot be set for every processor exception.
 */
__STATIC_INLINE void __NVIC_SetPriority(IRQn_Type IRQn, uint32_t priority)
{
 800414c:	b480      	push	{r7}
 800414e:	b083      	sub	sp, #12
 8004150:	af00      	add	r7, sp, #0
 8004152:	4603      	mov	r3, r0
 8004154:	6039      	str	r1, [r7, #0]
 8004156:	71fb      	strb	r3, [r7, #7]
  if ((int32_t)(IRQn) >= 0)
 8004158:	f997 3007 	ldrsb.w	r3, [r7, #7]
 800415c:	2b00      	cmp	r3, #0
 800415e:	db0a      	blt.n	8004176 <__NVIC_SetPriority+0x2a>
  {
    NVIC->IP[((uint32_t)IRQn)]               = (uint8_t)((priority << (8U - __NVIC_PRIO_BITS)) & (uint32_t)0xFFUL);
 8004160:	683b      	ldr	r3, [r7, #0]
 8004162:	b2da      	uxtb	r2, r3
 8004164:	490c      	ldr	r1, [pc, #48]	@ (8004198 <__NVIC_SetPriority+0x4c>)
 8004166:	f997 3007 	ldrsb.w	r3, [r7, #7]
 800416a:	0112      	lsls	r2, r2, #4
 800416c:	b2d2      	uxtb	r2, r2
 800416e:	440b      	add	r3, r1
 8004170:	f883 2300 	strb.w	r2, [r3, #768]	@ 0x300
  }
  else
  {
    SCB->SHP[(((uint32_t)IRQn) & 0xFUL)-4UL] = (uint8_t)((priority << (8U - __NVIC_PRIO_BITS)) & (uint32_t)0xFFUL);
  }
}
 8004174:	e00a      	b.n	800418c <__NVIC_SetPriority+0x40>
    SCB->SHP[(((uint32_t)IRQn) & 0xFUL)-4UL] = (uint8_t)((priority << (8U - __NVIC_PRIO_BITS)) & (uint32_t)0xFFUL);
 8004176:	683b      	ldr	r3, [r7, #0]
 8004178:	b2da      	uxtb	r2, r3
 800417a:	4908      	ldr	r1, [pc, #32]	@ (800419c <__NVIC_SetPriority+0x50>)
 800417c:	79fb      	ldrb	r3, [r7, #7]
 800417e:	f003 030f 	and.w	r3, r3, #15
 8004182:	3b04      	subs	r3, #4
 8004184:	0112      	lsls	r2, r2, #4
 8004186:	b2d2      	uxtb	r2, r2
 8004188:	440b      	add	r3, r1
 800418a:	761a      	strb	r2, [r3, #24]
}
 800418c:	bf00      	nop
 800418e:	370c      	adds	r7, #12
 8004190:	46bd      	mov	sp, r7
 8004192:	f85d 7b04 	ldr.w	r7, [sp], #4
 8004196:	4770      	bx	lr
 8004198:	e000e100 	.word	0xe000e100
 800419c:	e000ed00 	.word	0xe000ed00

080041a0 <NVIC_EncodePriority>:
  \param [in]   PreemptPriority  Preemptive priority value (starting from 0).
  \param [in]       SubPriority  Subpriority value (starting from 0).
  \return                        Encoded priority. Value can be used in the function \ref NVIC_SetPriority().
 */
__STATIC_INLINE uint32_t NVIC_EncodePriority (uint32_t PriorityGroup, uint32_t PreemptPriority, uint32_t SubPriority)
{
 80041a0:	b480      	push	{r7}
 80041a2:	b089      	sub	sp, #36	@ 0x24
 80041a4:	af00      	add	r7, sp, #0
 80041a6:	60f8      	str	r0, [r7, #12]
 80041a8:	60b9      	str	r1, [r7, #8]
 80041aa:	607a      	str	r2, [r7, #4]
  uint32_t PriorityGroupTmp = (PriorityGroup & (uint32_t)0x07UL);   /* only values 0..7 are used          */
 80041ac:	68fb      	ldr	r3, [r7, #12]
 80041ae:	f003 0307 	and.w	r3, r3, #7
 80041b2:	61fb      	str	r3, [r7, #28]
  uint32_t PreemptPriorityBits;
  uint32_t SubPriorityBits;

  PreemptPriorityBits = ((7UL - PriorityGroupTmp) > (uint32_t)(__NVIC_PRIO_BITS)) ? (uint32_t)(__NVIC_PRIO_BITS) : (uint32_t)(7UL - PriorityGroupTmp);
 80041b4:	69fb      	ldr	r3, [r7, #28]
 80041b6:	f1c3 0307 	rsb	r3, r3, #7
 80041ba:	2b04      	cmp	r3, #4
 80041bc:	bf28      	it	cs
 80041be:	2304      	movcs	r3, #4
 80041c0:	61bb      	str	r3, [r7, #24]
  SubPriorityBits     = ((PriorityGroupTmp + (uint32_t)(__NVIC_PRIO_BITS)) < (uint32_t)7UL) ? (uint32_t)0UL : (uint32_t)((PriorityGroupTmp - 7UL) + (uint32_t)(__NVIC_PRIO_BITS));
 80041c2:	69fb      	ldr	r3, [r7, #28]
 80041c4:	3304      	adds	r3, #4
 80041c6:	2b06      	cmp	r3, #6
 80041c8:	d902      	bls.n	80041d0 <NVIC_EncodePriority+0x30>
 80041ca:	69fb      	ldr	r3, [r7, #28]
 80041cc:	3b03      	subs	r3, #3
 80041ce:	e000      	b.n	80041d2 <NVIC_EncodePriority+0x32>
 80041d0:	2300      	movs	r3, #0
 80041d2:	617b      	str	r3, [r7, #20]

  return (
           ((PreemptPriority & (uint32_t)((1UL << (PreemptPriorityBits)) - 1UL)) << SubPriorityBits) |
 80041d4:	f04f 32ff 	mov.w	r2, #4294967295	@ 0xffffffff
 80041d8:	69bb      	ldr	r3, [r7, #24]
 80041da:	fa02 f303 	lsl.w	r3, r2, r3
 80041de:	43da      	mvns	r2, r3
 80041e0:	68bb      	ldr	r3, [r7, #8]
 80041e2:	401a      	ands	r2, r3
 80041e4:	697b      	ldr	r3, [r7, #20]
 80041e6:	409a      	lsls	r2, r3
           ((SubPriority     & (uint32_t)((1UL << (SubPriorityBits    )) - 1UL)))
 80041e8:	f04f 31ff 	mov.w	r1, #4294967295	@ 0xffffffff
 80041ec:	697b      	ldr	r3, [r7, #20]
 80041ee:	fa01 f303 	lsl.w	r3, r1, r3
 80041f2:	43d9      	mvns	r1, r3
 80041f4:	687b      	ldr	r3, [r7, #4]
 80041f6:	400b      	ands	r3, r1
           ((PreemptPriority & (uint32_t)((1UL << (PreemptPriorityBits)) - 1UL)) << SubPriorityBits) |
 80041f8:	4313      	orrs	r3, r2
         );
}
 80041fa:	4618      	mov	r0, r3
 80041fc:	3724      	adds	r7, #36	@ 0x24
 80041fe:	46bd      	mov	sp, r7
 8004200:	f85d 7b04 	ldr.w	r7, [sp], #4
 8004204:	4770      	bx	lr
	...

08004208 <SysTick_Config>:
  \note    When the variable <b>__Vendor_SysTickConfig</b> is set to 1, then the
           function <b>SysTick_Config</b> is not included. In this case, the file <b><i>device</i>.h</b>
           must contain a vendor-specific implementation of this function.
 */
__STATIC_INLINE uint32_t SysTick_Config(uint32_t ticks)
{
 8004208:	b580      	push	{r7, lr}
 800420a:	b082      	sub	sp, #8
 800420c:	af00      	add	r7, sp, #0
 800420e:	6078      	str	r0, [r7, #4]
  if ((ticks - 1UL) > SysTick_LOAD_RELOAD_Msk)
 8004210:	687b      	ldr	r3, [r7, #4]
 8004212:	3b01      	subs	r3, #1
 8004214:	f1b3 7f80 	cmp.w	r3, #16777216	@ 0x1000000
 8004218:	d301      	bcc.n	800421e <SysTick_Config+0x16>
  {
    return (1UL);                                                   /* Reload value impossible */
 800421a:	2301      	movs	r3, #1
 800421c:	e00f      	b.n	800423e <SysTick_Config+0x36>
  }

  SysTick->LOAD  = (uint32_t)(ticks - 1UL);                         /* set reload register */
 800421e:	4a0a      	ldr	r2, [pc, #40]	@ (8004248 <SysTick_Config+0x40>)
 8004220:	687b      	ldr	r3, [r7, #4]
 8004222:	3b01      	subs	r3, #1
 8004224:	6053      	str	r3, [r2, #4]
  NVIC_SetPriority (SysTick_IRQn, (1UL << __NVIC_PRIO_BITS) - 1UL); /* set Priority for Systick Interrupt */
 8004226:	210f      	movs	r1, #15
 8004228:	f04f 30ff 	mov.w	r0, #4294967295	@ 0xffffffff
 800422c:	f7ff ff8e 	bl	800414c <__NVIC_SetPriority>
  SysTick->VAL   = 0UL;                                             /* Load the SysTick Counter Value */
 8004230:	4b05      	ldr	r3, [pc, #20]	@ (8004248 <SysTick_Config+0x40>)
 8004232:	2200      	movs	r2, #0
 8004234:	609a      	str	r2, [r3, #8]
  SysTick->CTRL  = SysTick_CTRL_CLKSOURCE_Msk |
 8004236:	4b04      	ldr	r3, [pc, #16]	@ (8004248 <SysTick_Config+0x40>)
 8004238:	2207      	movs	r2, #7
 800423a:	601a      	str	r2, [r3, #0]
                   SysTick_CTRL_TICKINT_Msk   |
                   SysTick_CTRL_ENABLE_Msk;                         /* Enable SysTick IRQ and SysTick Timer */
  return (0UL);                                                     /* Function successful */
 800423c:	2300      	movs	r3, #0
}
 800423e:	4618      	mov	r0, r3
 8004240:	3708      	adds	r7, #8
 8004242:	46bd      	mov	sp, r7
 8004244:	bd80      	pop	{r7, pc}
 8004246:	bf00      	nop
 8004248:	e000e010 	.word	0xe000e010

0800424c <HAL_NVIC_SetPriorityGrouping>:
  * @note   When the NVIC_PriorityGroup_0 is selected, IRQ preemption is no more possible. 
  *         The pending IRQ priority will be managed only by the subpriority. 
  * @retval None
  */
void HAL_NVIC_SetPriorityGrouping(uint32_t PriorityGroup)
{
 800424c:	b580      	push	{r7, lr}
 800424e:	b082      	sub	sp, #8
 8004250:	af00      	add	r7, sp, #0
 8004252:	6078      	str	r0, [r7, #4]
  /* Check the parameters */
  assert_param(IS_NVIC_PRIORITY_GROUP(PriorityGroup));
  
  /* Set the PRIGROUP[10:8] bits according to the PriorityGroup parameter value */
  NVIC_SetPriorityGrouping(PriorityGroup);
 8004254:	6878      	ldr	r0, [r7, #4]
 8004256:	f7ff ff29 	bl	80040ac <__NVIC_SetPriorityGrouping>
}
 800425a:	bf00      	nop
 800425c:	3708      	adds	r7, #8
 800425e:	46bd      	mov	sp, r7
 8004260:	bd80      	pop	{r7, pc}

08004262 <HAL_NVIC_SetPriority>:
  *         This parameter can be a value between 0 and 15
  *         A lower priority value indicates a higher priority.          
  * @retval None
  */
void HAL_NVIC_SetPriority(IRQn_Type IRQn, uint32_t PreemptPriority, uint32_t SubPriority)
{ 
 8004262:	b580      	push	{r7, lr}
 8004264:	b086      	sub	sp, #24
 8004266:	af00      	add	r7, sp, #0
 8004268:	4603      	mov	r3, r0
 800426a:	60b9      	str	r1, [r7, #8]
 800426c:	607a      	str	r2, [r7, #4]
 800426e:	73fb      	strb	r3, [r7, #15]
  uint32_t prioritygroup = 0x00U;
 8004270:	2300      	movs	r3, #0
 8004272:	617b      	str	r3, [r7, #20]
  
  /* Check the parameters */
  assert_param(IS_NVIC_SUB_PRIORITY(SubPriority));
  assert_param(IS_NVIC_PREEMPTION_PRIORITY(PreemptPriority));
  
  prioritygroup = NVIC_GetPriorityGrouping();
 8004274:	f7ff ff3e 	bl	80040f4 <__NVIC_GetPriorityGrouping>
 8004278:	6178      	str	r0, [r7, #20]
  
  NVIC_SetPriority(IRQn, NVIC_EncodePriority(prioritygroup, PreemptPriority, SubPriority));
 800427a:	687a      	ldr	r2, [r7, #4]
 800427c:	68b9      	ldr	r1, [r7, #8]
 800427e:	6978      	ldr	r0, [r7, #20]
 8004280:	f7ff ff8e 	bl	80041a0 <NVIC_EncodePriority>
 8004284:	4602      	mov	r2, r0
 8004286:	f997 300f 	ldrsb.w	r3, [r7, #15]
 800428a:	4611      	mov	r1, r2
 800428c:	4618      	mov	r0, r3
 800428e:	f7ff ff5d 	bl	800414c <__NVIC_SetPriority>
}
 8004292:	bf00      	nop
 8004294:	3718      	adds	r7, #24
 8004296:	46bd      	mov	sp, r7
 8004298:	bd80      	pop	{r7, pc}

0800429a <HAL_NVIC_EnableIRQ>:
  *         This parameter can be an enumerator of IRQn_Type enumeration
  *         (For the complete STM32 Devices IRQ Channels list, please refer to the appropriate CMSIS device file (stm32f4xxxx.h))
  * @retval None
  */
void HAL_NVIC_EnableIRQ(IRQn_Type IRQn)
{
 800429a:	b580      	push	{r7, lr}
 800429c:	b082      	sub	sp, #8
 800429e:	af00      	add	r7, sp, #0
 80042a0:	4603      	mov	r3, r0
 80042a2:	71fb      	strb	r3, [r7, #7]
  /* Check the parameters */
  assert_param(IS_NVIC_DEVICE_IRQ(IRQn));
  
  /* Enable interrupt */
  NVIC_EnableIRQ(IRQn);
 80042a4:	f997 3007 	ldrsb.w	r3, [r7, #7]
 80042a8:	4618      	mov	r0, r3
 80042aa:	f7ff ff31 	bl	8004110 <__NVIC_EnableIRQ>
}
 80042ae:	bf00      	nop
 80042b0:	3708      	adds	r7, #8
 80042b2:	46bd      	mov	sp, r7
 80042b4:	bd80      	pop	{r7, pc}

080042b6 <HAL_SYSTICK_Config>:
  * @param  TicksNumb Specifies the ticks Number of ticks between two interrupts.
  * @retval status:  - 0  Function succeeded.
  *                  - 1  Function failed.
  */
uint32_t HAL_SYSTICK_Config(uint32_t TicksNumb)
{
 80042b6:	b580      	push	{r7, lr}
 80042b8:	b082      	sub	sp, #8
 80042ba:	af00      	add	r7, sp, #0
 80042bc:	6078      	str	r0, [r7, #4]
   return SysTick_Config(TicksNumb);
 80042be:	6878      	ldr	r0, [r7, #4]
 80042c0:	f7ff ffa2 	bl	8004208 <SysTick_Config>
 80042c4:	4603      	mov	r3, r0
}
 80042c6:	4618      	mov	r0, r3
 80042c8:	3708      	adds	r7, #8
 80042ca:	46bd      	mov	sp, r7
 80042cc:	bd80      	pop	{r7, pc}
	...

080042d0 <HAL_GPIO_Init>:
  * @param  GPIO_Init pointer to a GPIO_InitTypeDef structure that contains
  *         the configuration information for the specified GPIO peripheral.
  * @retval None
  */
void HAL_GPIO_Init(GPIO_TypeDef  *GPIOx, GPIO_InitTypeDef *GPIO_Init)
{
 80042d0:	b480      	push	{r7}
 80042d2:	b089      	sub	sp, #36	@ 0x24
 80042d4:	af00      	add	r7, sp, #0
 80042d6:	6078      	str	r0, [r7, #4]
 80042d8:	6039      	str	r1, [r7, #0]
  uint32_t position;
  uint32_t ioposition = 0x00U;
 80042da:	2300      	movs	r3, #0
 80042dc:	617b      	str	r3, [r7, #20]
  uint32_t iocurrent = 0x00U;
 80042de:	2300      	movs	r3, #0
 80042e0:	613b      	str	r3, [r7, #16]
  uint32_t temp = 0x00U;
 80042e2:	2300      	movs	r3, #0
 80042e4:	61bb      	str	r3, [r7, #24]
  assert_param(IS_GPIO_ALL_INSTANCE(GPIOx));
  assert_param(IS_GPIO_PIN(GPIO_Init->Pin));
  assert_param(IS_GPIO_MODE(GPIO_Init->Mode));

  /* Configure the port pins */
  for(position = 0U; position < GPIO_NUMBER; position++)
 80042e6:	2300      	movs	r3, #0
 80042e8:	61fb      	str	r3, [r7, #28]
 80042ea:	e165      	b.n	80045b8 <HAL_GPIO_Init+0x2e8>
  {
    /* Get the IO position */
    ioposition = 0x01U << position;
 80042ec:	2201      	movs	r2, #1
 80042ee:	69fb      	ldr	r3, [r7, #28]
 80042f0:	fa02 f303 	lsl.w	r3, r2, r3
 80042f4:	617b      	str	r3, [r7, #20]
    /* Get the current IO position */
    iocurrent = (uint32_t)(GPIO_Init->Pin) & ioposition;
 80042f6:	683b      	ldr	r3, [r7, #0]
 80042f8:	681b      	ldr	r3, [r3, #0]
 80042fa:	697a      	ldr	r2, [r7, #20]
 80042fc:	4013      	ands	r3, r2
 80042fe:	613b      	str	r3, [r7, #16]

    if(iocurrent == ioposition)
 8004300:	693a      	ldr	r2, [r7, #16]
 8004302:	697b      	ldr	r3, [r7, #20]
 8004304:	429a      	cmp	r2, r3
 8004306:	f040 8154 	bne.w	80045b2 <HAL_GPIO_Init+0x2e2>
    {
      /*--------------------- GPIO Mode Configuration ------------------------*/
      /* In case of Output or Alternate function mode selection */
      if(((GPIO_Init->Mode & GPIO_MODE) == MODE_OUTPUT) || \
 800430a:	683b      	ldr	r3, [r7, #0]
 800430c:	685b      	ldr	r3, [r3, #4]
 800430e:	f003 0303 	and.w	r3, r3, #3
 8004312:	2b01      	cmp	r3, #1
 8004314:	d005      	beq.n	8004322 <HAL_GPIO_Init+0x52>
          (GPIO_Init->Mode & GPIO_MODE) == MODE_AF)
 8004316:	683b      	ldr	r3, [r7, #0]
 8004318:	685b      	ldr	r3, [r3, #4]
 800431a:	f003 0303 	and.w	r3, r3, #3
      if(((GPIO_Init->Mode & GPIO_MODE) == MODE_OUTPUT) || \
 800431e:	2b02      	cmp	r3, #2
 8004320:	d130      	bne.n	8004384 <HAL_GPIO_Init+0xb4>
      {
        /* Check the Speed parameter */
        assert_param(IS_GPIO_SPEED(GPIO_Init->Speed));
        /* Configure the IO Speed */
        temp = GPIOx->OSPEEDR; 
 8004322:	687b      	ldr	r3, [r7, #4]
 8004324:	689b      	ldr	r3, [r3, #8]
 8004326:	61bb      	str	r3, [r7, #24]
        temp &= ~(GPIO_OSPEEDER_OSPEEDR0 << (position * 2U));
 8004328:	69fb      	ldr	r3, [r7, #28]
 800432a:	005b      	lsls	r3, r3, #1
 800432c:	2203      	movs	r2, #3
 800432e:	fa02 f303 	lsl.w	r3, r2, r3
 8004332:	43db      	mvns	r3, r3
 8004334:	69ba      	ldr	r2, [r7, #24]
 8004336:	4013      	ands	r3, r2
 8004338:	61bb      	str	r3, [r7, #24]
        temp |= (GPIO_Init->Speed << (position * 2U));
 800433a:	683b      	ldr	r3, [r7, #0]
 800433c:	68da      	ldr	r2, [r3, #12]
 800433e:	69fb      	ldr	r3, [r7, #28]
 8004340:	005b      	lsls	r3, r3, #1
 8004342:	fa02 f303 	lsl.w	r3, r2, r3
 8004346:	69ba      	ldr	r2, [r7, #24]
 8004348:	4313      	orrs	r3, r2
 800434a:	61bb      	str	r3, [r7, #24]
        GPIOx->OSPEEDR = temp;
 800434c:	687b      	ldr	r3, [r7, #4]
 800434e:	69ba      	ldr	r2, [r7, #24]
 8004350:	609a      	str	r2, [r3, #8]

        /* Configure the IO Output Type */
        temp = GPIOx->OTYPER;
 8004352:	687b      	ldr	r3, [r7, #4]
 8004354:	685b      	ldr	r3, [r3, #4]
 8004356:	61bb      	str	r3, [r7, #24]
        temp &= ~(GPIO_OTYPER_OT_0 << position) ;
 8004358:	2201      	movs	r2, #1
 800435a:	69fb      	ldr	r3, [r7, #28]
 800435c:	fa02 f303 	lsl.w	r3, r2, r3
 8004360:	43db      	mvns	r3, r3
 8004362:	69ba      	ldr	r2, [r7, #24]
 8004364:	4013      	ands	r3, r2
 8004366:	61bb      	str	r3, [r7, #24]
        temp |= (((GPIO_Init->Mode & OUTPUT_TYPE) >> OUTPUT_TYPE_Pos) << position);
 8004368:	683b      	ldr	r3, [r7, #0]
 800436a:	685b      	ldr	r3, [r3, #4]
 800436c:	091b      	lsrs	r3, r3, #4
 800436e:	f003 0201 	and.w	r2, r3, #1
 8004372:	69fb      	ldr	r3, [r7, #28]
 8004374:	fa02 f303 	lsl.w	r3, r2, r3
 8004378:	69ba      	ldr	r2, [r7, #24]
 800437a:	4313      	orrs	r3, r2
 800437c:	61bb      	str	r3, [r7, #24]
        GPIOx->OTYPER = temp;
 800437e:	687b      	ldr	r3, [r7, #4]
 8004380:	69ba      	ldr	r2, [r7, #24]
 8004382:	605a      	str	r2, [r3, #4]
       }

      if((GPIO_Init->Mode & GPIO_MODE) != MODE_ANALOG)
 8004384:	683b      	ldr	r3, [r7, #0]
 8004386:	685b      	ldr	r3, [r3, #4]
 8004388:	f003 0303 	and.w	r3, r3, #3
 800438c:	2b03      	cmp	r3, #3
 800438e:	d017      	beq.n	80043c0 <HAL_GPIO_Init+0xf0>
      {
        /* Check the parameters */
        assert_param(IS_GPIO_PULL(GPIO_Init->Pull));
        
        /* Activate the Pull-up or Pull down resistor for the current IO */
        temp = GPIOx->PUPDR;
 8004390:	687b      	ldr	r3, [r7, #4]
 8004392:	68db      	ldr	r3, [r3, #12]
 8004394:	61bb      	str	r3, [r7, #24]
        temp &= ~(GPIO_PUPDR_PUPDR0 << (position * 2U));
 8004396:	69fb      	ldr	r3, [r7, #28]
 8004398:	005b      	lsls	r3, r3, #1
 800439a:	2203      	movs	r2, #3
 800439c:	fa02 f303 	lsl.w	r3, r2, r3
 80043a0:	43db      	mvns	r3, r3
 80043a2:	69ba      	ldr	r2, [r7, #24]
 80043a4:	4013      	ands	r3, r2
 80043a6:	61bb      	str	r3, [r7, #24]
        temp |= ((GPIO_Init->Pull) << (position * 2U));
 80043a8:	683b      	ldr	r3, [r7, #0]
 80043aa:	689a      	ldr	r2, [r3, #8]
 80043ac:	69fb      	ldr	r3, [r7, #28]
 80043ae:	005b      	lsls	r3, r3, #1
 80043b0:	fa02 f303 	lsl.w	r3, r2, r3
 80043b4:	69ba      	ldr	r2, [r7, #24]
 80043b6:	4313      	orrs	r3, r2
 80043b8:	61bb      	str	r3, [r7, #24]
        GPIOx->PUPDR = temp;
 80043ba:	687b      	ldr	r3, [r7, #4]
 80043bc:	69ba      	ldr	r2, [r7, #24]
 80043be:	60da      	str	r2, [r3, #12]
      }

      /* In case of Alternate function mode selection */
      if((GPIO_Init->Mode & GPIO_MODE) == MODE_AF)
 80043c0:	683b      	ldr	r3, [r7, #0]
 80043c2:	685b      	ldr	r3, [r3, #4]
 80043c4:	f003 0303 	and.w	r3, r3, #3
 80043c8:	2b02      	cmp	r3, #2
 80043ca:	d123      	bne.n	8004414 <HAL_GPIO_Init+0x144>
      {
        /* Check the Alternate function parameter */
        assert_param(IS_GPIO_AF(GPIO_Init->Alternate));
        /* Configure Alternate function mapped with the current IO */
        temp = GPIOx->AFR[position >> 3U];
 80043cc:	69fb      	ldr	r3, [r7, #28]
 80043ce:	08da      	lsrs	r2, r3, #3
 80043d0:	687b      	ldr	r3, [r7, #4]
 80043d2:	3208      	adds	r2, #8
 80043d4:	f853 3022 	ldr.w	r3, [r3, r2, lsl #2]
 80043d8:	61bb      	str	r3, [r7, #24]
        temp &= ~(0xFU << ((uint32_t)(position & 0x07U) * 4U)) ;
 80043da:	69fb      	ldr	r3, [r7, #28]
 80043dc:	f003 0307 	and.w	r3, r3, #7
 80043e0:	009b      	lsls	r3, r3, #2
 80043e2:	220f      	movs	r2, #15
 80043e4:	fa02 f303 	lsl.w	r3, r2, r3
 80043e8:	43db      	mvns	r3, r3
 80043ea:	69ba      	ldr	r2, [r7, #24]
 80043ec:	4013      	ands	r3, r2
 80043ee:	61bb      	str	r3, [r7, #24]
        temp |= ((uint32_t)(GPIO_Init->Alternate) << (((uint32_t)position & 0x07U) * 4U));
 80043f0:	683b      	ldr	r3, [r7, #0]
 80043f2:	691a      	ldr	r2, [r3, #16]
 80043f4:	69fb      	ldr	r3, [r7, #28]
 80043f6:	f003 0307 	and.w	r3, r3, #7
 80043fa:	009b      	lsls	r3, r3, #2
 80043fc:	fa02 f303 	lsl.w	r3, r2, r3
 8004400:	69ba      	ldr	r2, [r7, #24]
 8004402:	4313      	orrs	r3, r2
 8004404:	61bb      	str	r3, [r7, #24]
        GPIOx->AFR[position >> 3U] = temp;
 8004406:	69fb      	ldr	r3, [r7, #28]
 8004408:	08da      	lsrs	r2, r3, #3
 800440a:	687b      	ldr	r3, [r7, #4]
 800440c:	3208      	adds	r2, #8
 800440e:	69b9      	ldr	r1, [r7, #24]
 8004410:	f843 1022 	str.w	r1, [r3, r2, lsl #2]
      }

      /* Configure IO Direction mode (Input, Output, Alternate or Analog) */
      temp = GPIOx->MODER;
 8004414:	687b      	ldr	r3, [r7, #4]
 8004416:	681b      	ldr	r3, [r3, #0]
 8004418:	61bb      	str	r3, [r7, #24]
      temp &= ~(GPIO_MODER_MODER0 << (position * 2U));
 800441a:	69fb      	ldr	r3, [r7, #28]
 800441c:	005b      	lsls	r3, r3, #1
 800441e:	2203      	movs	r2, #3
 8004420:	fa02 f303 	lsl.w	r3, r2, r3
 8004424:	43db      	mvns	r3, r3
 8004426:	69ba      	ldr	r2, [r7, #24]
 8004428:	4013      	ands	r3, r2
 800442a:	61bb      	str	r3, [r7, #24]
      temp |= ((GPIO_Init->Mode & GPIO_MODE) << (position * 2U));
 800442c:	683b      	ldr	r3, [r7, #0]
 800442e:	685b      	ldr	r3, [r3, #4]
 8004430:	f003 0203 	and.w	r2, r3, #3
 8004434:	69fb      	ldr	r3, [r7, #28]
 8004436:	005b      	lsls	r3, r3, #1
 8004438:	fa02 f303 	lsl.w	r3, r2, r3
 800443c:	69ba      	ldr	r2, [r7, #24]
 800443e:	4313      	orrs	r3, r2
 8004440:	61bb      	str	r3, [r7, #24]
      GPIOx->MODER = temp;
 8004442:	687b      	ldr	r3, [r7, #4]
 8004444:	69ba      	ldr	r2, [r7, #24]
 8004446:	601a      	str	r2, [r3, #0]

      /*--------------------- EXTI Mode Configuration ------------------------*/
      /* Configure the External Interrupt or event for the current IO */
      if((GPIO_Init->Mode & EXTI_MODE) != 0x00U)
 8004448:	683b      	ldr	r3, [r7, #0]
 800444a:	685b      	ldr	r3, [r3, #4]
 800444c:	f403 3340 	and.w	r3, r3, #196608	@ 0x30000
 8004450:	2b00      	cmp	r3, #0
 8004452:	f000 80ae 	beq.w	80045b2 <HAL_GPIO_Init+0x2e2>
      {
        /* Enable SYSCFG Clock */
        __HAL_RCC_SYSCFG_CLK_ENABLE();
 8004456:	2300      	movs	r3, #0
 8004458:	60fb      	str	r3, [r7, #12]
 800445a:	4b5d      	ldr	r3, [pc, #372]	@ (80045d0 <HAL_GPIO_Init+0x300>)
 800445c:	6c5b      	ldr	r3, [r3, #68]	@ 0x44
 800445e:	4a5c      	ldr	r2, [pc, #368]	@ (80045d0 <HAL_GPIO_Init+0x300>)
 8004460:	f443 4380 	orr.w	r3, r3, #16384	@ 0x4000
 8004464:	6453      	str	r3, [r2, #68]	@ 0x44
 8004466:	4b5a      	ldr	r3, [pc, #360]	@ (80045d0 <HAL_GPIO_Init+0x300>)
 8004468:	6c5b      	ldr	r3, [r3, #68]	@ 0x44
 800446a:	f403 4380 	and.w	r3, r3, #16384	@ 0x4000
 800446e:	60fb      	str	r3, [r7, #12]
 8004470:	68fb      	ldr	r3, [r7, #12]

        temp = SYSCFG->EXTICR[position >> 2U];
 8004472:	4a58      	ldr	r2, [pc, #352]	@ (80045d4 <HAL_GPIO_Init+0x304>)
 8004474:	69fb      	ldr	r3, [r7, #28]
 8004476:	089b      	lsrs	r3, r3, #2
 8004478:	3302      	adds	r3, #2
 800447a:	f852 3023 	ldr.w	r3, [r2, r3, lsl #2]
 800447e:	61bb      	str	r3, [r7, #24]
        temp &= ~(0x0FU << (4U * (position & 0x03U)));
 8004480:	69fb      	ldr	r3, [r7, #28]
 8004482:	f003 0303 	and.w	r3, r3, #3
 8004486:	009b      	lsls	r3, r3, #2
 8004488:	220f      	movs	r2, #15
 800448a:	fa02 f303 	lsl.w	r3, r2, r3
 800448e:	43db      	mvns	r3, r3
 8004490:	69ba      	ldr	r2, [r7, #24]
 8004492:	4013      	ands	r3, r2
 8004494:	61bb      	str	r3, [r7, #24]
        temp |= ((uint32_t)(GPIO_GET_INDEX(GPIOx)) << (4U * (position & 0x03U)));
 8004496:	687b      	ldr	r3, [r7, #4]
 8004498:	4a4f      	ldr	r2, [pc, #316]	@ (80045d8 <HAL_GPIO_Init+0x308>)
 800449a:	4293      	cmp	r3, r2
 800449c:	d025      	beq.n	80044ea <HAL_GPIO_Init+0x21a>
 800449e:	687b      	ldr	r3, [r7, #4]
 80044a0:	4a4e      	ldr	r2, [pc, #312]	@ (80045dc <HAL_GPIO_Init+0x30c>)
 80044a2:	4293      	cmp	r3, r2
 80044a4:	d01f      	beq.n	80044e6 <HAL_GPIO_Init+0x216>
 80044a6:	687b      	ldr	r3, [r7, #4]
 80044a8:	4a4d      	ldr	r2, [pc, #308]	@ (80045e0 <HAL_GPIO_Init+0x310>)
 80044aa:	4293      	cmp	r3, r2
 80044ac:	d019      	beq.n	80044e2 <HAL_GPIO_Init+0x212>
 80044ae:	687b      	ldr	r3, [r7, #4]
 80044b0:	4a4c      	ldr	r2, [pc, #304]	@ (80045e4 <HAL_GPIO_Init+0x314>)
 80044b2:	4293      	cmp	r3, r2
 80044b4:	d013      	beq.n	80044de <HAL_GPIO_Init+0x20e>
 80044b6:	687b      	ldr	r3, [r7, #4]
 80044b8:	4a4b      	ldr	r2, [pc, #300]	@ (80045e8 <HAL_GPIO_Init+0x318>)
 80044ba:	4293      	cmp	r3, r2
 80044bc:	d00d      	beq.n	80044da <HAL_GPIO_Init+0x20a>
 80044be:	687b      	ldr	r3, [r7, #4]
 80044c0:	4a4a      	ldr	r2, [pc, #296]	@ (80045ec <HAL_GPIO_Init+0x31c>)
 80044c2:	4293      	cmp	r3, r2
 80044c4:	d007      	beq.n	80044d6 <HAL_GPIO_Init+0x206>
 80044c6:	687b      	ldr	r3, [r7, #4]
 80044c8:	4a49      	ldr	r2, [pc, #292]	@ (80045f0 <HAL_GPIO_Init+0x320>)
 80044ca:	4293      	cmp	r3, r2
 80044cc:	d101      	bne.n	80044d2 <HAL_GPIO_Init+0x202>
 80044ce:	2306      	movs	r3, #6
 80044d0:	e00c      	b.n	80044ec <HAL_GPIO_Init+0x21c>
 80044d2:	2307      	movs	r3, #7
 80044d4:	e00a      	b.n	80044ec <HAL_GPIO_Init+0x21c>
 80044d6:	2305      	movs	r3, #5
 80044d8:	e008      	b.n	80044ec <HAL_GPIO_Init+0x21c>
 80044da:	2304      	movs	r3, #4
 80044dc:	e006      	b.n	80044ec <HAL_GPIO_Init+0x21c>
 80044de:	2303      	movs	r3, #3
 80044e0:	e004      	b.n	80044ec <HAL_GPIO_Init+0x21c>
 80044e2:	2302      	movs	r3, #2
 80044e4:	e002      	b.n	80044ec <HAL_GPIO_Init+0x21c>
 80044e6:	2301      	movs	r3, #1
 80044e8:	e000      	b.n	80044ec <HAL_GPIO_Init+0x21c>
 80044ea:	2300      	movs	r3, #0
 80044ec:	69fa      	ldr	r2, [r7, #28]
 80044ee:	f002 0203 	and.w	r2, r2, #3
 80044f2:	0092      	lsls	r2, r2, #2
 80044f4:	4093      	lsls	r3, r2
 80044f6:	69ba      	ldr	r2, [r7, #24]
 80044f8:	4313      	orrs	r3, r2
 80044fa:	61bb      	str	r3, [r7, #24]
        SYSCFG->EXTICR[position >> 2U] = temp;
 80044fc:	4935      	ldr	r1, [pc, #212]	@ (80045d4 <HAL_GPIO_Init+0x304>)
 80044fe:	69fb      	ldr	r3, [r7, #28]
 8004500:	089b      	lsrs	r3, r3, #2
 8004502:	3302      	adds	r3, #2
 8004504:	69ba      	ldr	r2, [r7, #24]
 8004506:	f841 2023 	str.w	r2, [r1, r3, lsl #2]

        /* Clear Rising Falling edge configuration */
        temp = EXTI->RTSR;
 800450a:	4b3a      	ldr	r3, [pc, #232]	@ (80045f4 <HAL_GPIO_Init+0x324>)
 800450c:	689b      	ldr	r3, [r3, #8]
 800450e:	61bb      	str	r3, [r7, #24]
        temp &= ~((uint32_t)iocurrent);
 8004510:	693b      	ldr	r3, [r7, #16]
 8004512:	43db      	mvns	r3, r3
 8004514:	69ba      	ldr	r2, [r7, #24]
 8004516:	4013      	ands	r3, r2
 8004518:	61bb      	str	r3, [r7, #24]
        if((GPIO_Init->Mode & TRIGGER_RISING) != 0x00U)
 800451a:	683b      	ldr	r3, [r7, #0]
 800451c:	685b      	ldr	r3, [r3, #4]
 800451e:	f403 1380 	and.w	r3, r3, #1048576	@ 0x100000
 8004522:	2b00      	cmp	r3, #0
 8004524:	d003      	beq.n	800452e <HAL_GPIO_Init+0x25e>
        {
          temp |= iocurrent;
 8004526:	69ba      	ldr	r2, [r7, #24]
 8004528:	693b      	ldr	r3, [r7, #16]
 800452a:	4313      	orrs	r3, r2
 800452c:	61bb      	str	r3, [r7, #24]
        }
        EXTI->RTSR = temp;
 800452e:	4a31      	ldr	r2, [pc, #196]	@ (80045f4 <HAL_GPIO_Init+0x324>)
 8004530:	69bb      	ldr	r3, [r7, #24]
 8004532:	6093      	str	r3, [r2, #8]

        temp = EXTI->FTSR;
 8004534:	4b2f      	ldr	r3, [pc, #188]	@ (80045f4 <HAL_GPIO_Init+0x324>)
 8004536:	68db      	ldr	r3, [r3, #12]
 8004538:	61bb      	str	r3, [r7, #24]
        temp &= ~((uint32_t)iocurrent);
 800453a:	693b      	ldr	r3, [r7, #16]
 800453c:	43db      	mvns	r3, r3
 800453e:	69ba      	ldr	r2, [r7, #24]
 8004540:	4013      	ands	r3, r2
 8004542:	61bb      	str	r3, [r7, #24]
        if((GPIO_Init->Mode & TRIGGER_FALLING) != 0x00U)
 8004544:	683b      	ldr	r3, [r7, #0]
 8004546:	685b      	ldr	r3, [r3, #4]
 8004548:	f403 1300 	and.w	r3, r3, #2097152	@ 0x200000
 800454c:	2b00      	cmp	r3, #0
 800454e:	d003      	beq.n	8004558 <HAL_GPIO_Init+0x288>
        {
          temp |= iocurrent;
 8004550:	69ba      	ldr	r2, [r7, #24]
 8004552:	693b      	ldr	r3, [r7, #16]
 8004554:	4313      	orrs	r3, r2
 8004556:	61bb      	str	r3, [r7, #24]
        }
        EXTI->FTSR = temp;
 8004558:	4a26      	ldr	r2, [pc, #152]	@ (80045f4 <HAL_GPIO_Init+0x324>)
 800455a:	69bb      	ldr	r3, [r7, #24]
 800455c:	60d3      	str	r3, [r2, #12]

        temp = EXTI->EMR;
 800455e:	4b25      	ldr	r3, [pc, #148]	@ (80045f4 <HAL_GPIO_Init+0x324>)
 8004560:	685b      	ldr	r3, [r3, #4]
 8004562:	61bb      	str	r3, [r7, #24]
        temp &= ~((uint32_t)iocurrent);
 8004564:	693b      	ldr	r3, [r7, #16]
 8004566:	43db      	mvns	r3, r3
 8004568:	69ba      	ldr	r2, [r7, #24]
 800456a:	4013      	ands	r3, r2
 800456c:	61bb      	str	r3, [r7, #24]
        if((GPIO_Init->Mode & EXTI_EVT) != 0x00U)
 800456e:	683b      	ldr	r3, [r7, #0]
 8004570:	685b      	ldr	r3, [r3, #4]
 8004572:	f403 3300 	and.w	r3, r3, #131072	@ 0x20000
 8004576:	2b00      	cmp	r3, #0
 8004578:	d003      	beq.n	8004582 <HAL_GPIO_Init+0x2b2>
        {
          temp |= iocurrent;
 800457a:	69ba      	ldr	r2, [r7, #24]
 800457c:	693b      	ldr	r3, [r7, #16]
 800457e:	4313      	orrs	r3, r2
 8004580:	61bb      	str	r3, [r7, #24]
        }
        EXTI->EMR = temp;
 8004582:	4a1c      	ldr	r2, [pc, #112]	@ (80045f4 <HAL_GPIO_Init+0x324>)
 8004584:	69bb      	ldr	r3, [r7, #24]
 8004586:	6053      	str	r3, [r2, #4]

        /* Clear EXTI line configuration */
        temp = EXTI->IMR;
 8004588:	4b1a      	ldr	r3, [pc, #104]	@ (80045f4 <HAL_GPIO_Init+0x324>)
 800458a:	681b      	ldr	r3, [r3, #0]
 800458c:	61bb      	str	r3, [r7, #24]
        temp &= ~((uint32_t)iocurrent);
 800458e:	693b      	ldr	r3, [r7, #16]
 8004590:	43db      	mvns	r3, r3
 8004592:	69ba      	ldr	r2, [r7, #24]
 8004594:	4013      	ands	r3, r2
 8004596:	61bb      	str	r3, [r7, #24]
        if((GPIO_Init->Mode & EXTI_IT) != 0x00U)
 8004598:	683b      	ldr	r3, [r7, #0]
 800459a:	685b      	ldr	r3, [r3, #4]
 800459c:	f403 3380 	and.w	r3, r3, #65536	@ 0x10000
 80045a0:	2b00      	cmp	r3, #0
 80045a2:	d003      	beq.n	80045ac <HAL_GPIO_Init+0x2dc>
        {
          temp |= iocurrent;
 80045a4:	69ba      	ldr	r2, [r7, #24]
 80045a6:	693b      	ldr	r3, [r7, #16]
 80045a8:	4313      	orrs	r3, r2
 80045aa:	61bb      	str	r3, [r7, #24]
        }
        EXTI->IMR = temp;
 80045ac:	4a11      	ldr	r2, [pc, #68]	@ (80045f4 <HAL_GPIO_Init+0x324>)
 80045ae:	69bb      	ldr	r3, [r7, #24]
 80045b0:	6013      	str	r3, [r2, #0]
  for(position = 0U; position < GPIO_NUMBER; position++)
 80045b2:	69fb      	ldr	r3, [r7, #28]
 80045b4:	3301      	adds	r3, #1
 80045b6:	61fb      	str	r3, [r7, #28]
 80045b8:	69fb      	ldr	r3, [r7, #28]
 80045ba:	2b0f      	cmp	r3, #15
 80045bc:	f67f ae96 	bls.w	80042ec <HAL_GPIO_Init+0x1c>
      }
    }
  }
}
 80045c0:	bf00      	nop
 80045c2:	bf00      	nop
 80045c4:	3724      	adds	r7, #36	@ 0x24
 80045c6:	46bd      	mov	sp, r7
 80045c8:	f85d 7b04 	ldr.w	r7, [sp], #4
 80045cc:	4770      	bx	lr
 80045ce:	bf00      	nop
 80045d0:	40023800 	.word	0x40023800
 80045d4:	40013800 	.word	0x40013800
 80045d8:	40020000 	.word	0x40020000
 80045dc:	40020400 	.word	0x40020400
 80045e0:	40020800 	.word	0x40020800
 80045e4:	40020c00 	.word	0x40020c00
 80045e8:	40021000 	.word	0x40021000
 80045ec:	40021400 	.word	0x40021400
 80045f0:	40021800 	.word	0x40021800
 80045f4:	40013c00 	.word	0x40013c00

080045f8 <HAL_GPIO_WritePin>:
  *            @arg GPIO_PIN_RESET: to clear the port pin
  *            @arg GPIO_PIN_SET: to set the port pin
  * @retval None
  */
void HAL_GPIO_WritePin(GPIO_TypeDef* GPIOx, uint16_t GPIO_Pin, GPIO_PinState PinState)
{
 80045f8:	b480      	push	{r7}
 80045fa:	b083      	sub	sp, #12
 80045fc:	af00      	add	r7, sp, #0
 80045fe:	6078      	str	r0, [r7, #4]
 8004600:	460b      	mov	r3, r1
 8004602:	807b      	strh	r3, [r7, #2]
 8004604:	4613      	mov	r3, r2
 8004606:	707b      	strb	r3, [r7, #1]
  /* Check the parameters */
  assert_param(IS_GPIO_PIN(GPIO_Pin));
  assert_param(IS_GPIO_PIN_ACTION(PinState));

  if(PinState != GPIO_PIN_RESET)
 8004608:	787b      	ldrb	r3, [r7, #1]
 800460a:	2b00      	cmp	r3, #0
 800460c:	d003      	beq.n	8004616 <HAL_GPIO_WritePin+0x1e>
  {
    GPIOx->BSRR = GPIO_Pin;
 800460e:	887a      	ldrh	r2, [r7, #2]
 8004610:	687b      	ldr	r3, [r7, #4]
 8004612:	619a      	str	r2, [r3, #24]
  }
  else
  {
    GPIOx->BSRR = (uint32_t)GPIO_Pin << 16U;
  }
}
 8004614:	e003      	b.n	800461e <HAL_GPIO_WritePin+0x26>
    GPIOx->BSRR = (uint32_t)GPIO_Pin << 16U;
 8004616:	887b      	ldrh	r3, [r7, #2]
 8004618:	041a      	lsls	r2, r3, #16
 800461a:	687b      	ldr	r3, [r7, #4]
 800461c:	619a      	str	r2, [r3, #24]
}
 800461e:	bf00      	nop
 8004620:	370c      	adds	r7, #12
 8004622:	46bd      	mov	sp, r7
 8004624:	f85d 7b04 	ldr.w	r7, [sp], #4
 8004628:	4770      	bx	lr
	...

0800462c <HAL_I2C_Init>:
  * @param  hi2c Pointer to a I2C_HandleTypeDef structure that contains
  *                the configuration information for the specified I2C.
  * @retval HAL status
  */
HAL_StatusTypeDef HAL_I2C_Init(I2C_HandleTypeDef *hi2c)
{
 800462c:	b580      	push	{r7, lr}
 800462e:	b084      	sub	sp, #16
 8004630:	af00      	add	r7, sp, #0
 8004632:	6078      	str	r0, [r7, #4]
  uint32_t freqrange;
  uint32_t pclk1;

  /* Check the I2C handle allocation */
  if (hi2c == NULL)
 8004634:	687b      	ldr	r3, [r7, #4]
 8004636:	2b00      	cmp	r3, #0
 8004638:	d101      	bne.n	800463e <HAL_I2C_Init+0x12>
  {
    return HAL_ERROR;
 800463a:	2301      	movs	r3, #1
 800463c:	e12b      	b.n	8004896 <HAL_I2C_Init+0x26a>
  assert_param(IS_I2C_DUAL_ADDRESS(hi2c->Init.DualAddressMode));
  assert_param(IS_I2C_OWN_ADDRESS2(hi2c->Init.OwnAddress2));
  assert_param(IS_I2C_GENERAL_CALL(hi2c->Init.GeneralCallMode));
  assert_param(IS_I2C_NO_STRETCH(hi2c->Init.NoStretchMode));

  if (hi2c->State == HAL_I2C_STATE_RESET)
 800463e:	687b      	ldr	r3, [r7, #4]
 8004640:	f893 303d 	ldrb.w	r3, [r3, #61]	@ 0x3d
 8004644:	b2db      	uxtb	r3, r3
 8004646:	2b00      	cmp	r3, #0
 8004648:	d106      	bne.n	8004658 <HAL_I2C_Init+0x2c>
  {
    /* Allocate lock resource and initialize it */
    hi2c->Lock = HAL_UNLOCKED;
 800464a:	687b      	ldr	r3, [r7, #4]
 800464c:	2200      	movs	r2, #0
 800464e:	f883 203c 	strb.w	r2, [r3, #60]	@ 0x3c

    /* Init the low level hardware : GPIO, CLOCK, NVIC */
    hi2c->MspInitCallback(hi2c);
#else
    /* Init the low level hardware : GPIO, CLOCK, NVIC */
    HAL_I2C_MspInit(hi2c);
 8004652:	6878      	ldr	r0, [r7, #4]
 8004654:	f7fd ff7c 	bl	8002550 <HAL_I2C_MspInit>
#endif /* USE_HAL_I2C_REGISTER_CALLBACKS */
  }

  hi2c->State = HAL_I2C_STATE_BUSY;
 8004658:	687b      	ldr	r3, [r7, #4]
 800465a:	2224      	movs	r2, #36	@ 0x24
 800465c:	f883 203d 	strb.w	r2, [r3, #61]	@ 0x3d

  /* Disable the selected I2C peripheral */
  __HAL_I2C_DISABLE(hi2c);
 8004660:	687b      	ldr	r3, [r7, #4]
 8004662:	681b      	ldr	r3, [r3, #0]
 8004664:	681a      	ldr	r2, [r3, #0]
 8004666:	687b      	ldr	r3, [r7, #4]
 8004668:	681b      	ldr	r3, [r3, #0]
 800466a:	f022 0201 	bic.w	r2, r2, #1
 800466e:	601a      	str	r2, [r3, #0]

  /*Reset I2C*/
  hi2c->Instance->CR1 |= I2C_CR1_SWRST;
 8004670:	687b      	ldr	r3, [r7, #4]
 8004672:	681b      	ldr	r3, [r3, #0]
 8004674:	681a      	ldr	r2, [r3, #0]
 8004676:	687b      	ldr	r3, [r7, #4]
 8004678:	681b      	ldr	r3, [r3, #0]
 800467a:	f442 4200 	orr.w	r2, r2, #32768	@ 0x8000
 800467e:	601a      	str	r2, [r3, #0]
  hi2c->Instance->CR1 &= ~I2C_CR1_SWRST;
 8004680:	687b      	ldr	r3, [r7, #4]
 8004682:	681b      	ldr	r3, [r3, #0]
 8004684:	681a      	ldr	r2, [r3, #0]
 8004686:	687b      	ldr	r3, [r7, #4]
 8004688:	681b      	ldr	r3, [r3, #0]
 800468a:	f422 4200 	bic.w	r2, r2, #32768	@ 0x8000
 800468e:	601a      	str	r2, [r3, #0]

  /* Get PCLK1 frequency */
  pclk1 = HAL_RCC_GetPCLK1Freq();
 8004690:	f000 fa52 	bl	8004b38 <HAL_RCC_GetPCLK1Freq>
 8004694:	60f8      	str	r0, [r7, #12]

  /* Check the minimum allowed PCLK1 frequency */
  if (I2C_MIN_PCLK_FREQ(pclk1, hi2c->Init.ClockSpeed) == 1U)
 8004696:	687b      	ldr	r3, [r7, #4]
 8004698:	685b      	ldr	r3, [r3, #4]
 800469a:	4a81      	ldr	r2, [pc, #516]	@ (80048a0 <HAL_I2C_Init+0x274>)
 800469c:	4293      	cmp	r3, r2
 800469e:	d807      	bhi.n	80046b0 <HAL_I2C_Init+0x84>
 80046a0:	68fb      	ldr	r3, [r7, #12]
 80046a2:	4a80      	ldr	r2, [pc, #512]	@ (80048a4 <HAL_I2C_Init+0x278>)
 80046a4:	4293      	cmp	r3, r2
 80046a6:	bf94      	ite	ls
 80046a8:	2301      	movls	r3, #1
 80046aa:	2300      	movhi	r3, #0
 80046ac:	b2db      	uxtb	r3, r3
 80046ae:	e006      	b.n	80046be <HAL_I2C_Init+0x92>
 80046b0:	68fb      	ldr	r3, [r7, #12]
 80046b2:	4a7d      	ldr	r2, [pc, #500]	@ (80048a8 <HAL_I2C_Init+0x27c>)
 80046b4:	4293      	cmp	r3, r2
 80046b6:	bf94      	ite	ls
 80046b8:	2301      	movls	r3, #1
 80046ba:	2300      	movhi	r3, #0
 80046bc:	b2db      	uxtb	r3, r3
 80046be:	2b00      	cmp	r3, #0
 80046c0:	d001      	beq.n	80046c6 <HAL_I2C_Init+0x9a>
  {
    return HAL_ERROR;
 80046c2:	2301      	movs	r3, #1
 80046c4:	e0e7      	b.n	8004896 <HAL_I2C_Init+0x26a>
  }

  /* Calculate frequency range */
  freqrange = I2C_FREQRANGE(pclk1);
 80046c6:	68fb      	ldr	r3, [r7, #12]
 80046c8:	4a78      	ldr	r2, [pc, #480]	@ (80048ac <HAL_I2C_Init+0x280>)
 80046ca:	fba2 2303 	umull	r2, r3, r2, r3
 80046ce:	0c9b      	lsrs	r3, r3, #18
 80046d0:	60bb      	str	r3, [r7, #8]

  /*---------------------------- I2Cx CR2 Configuration ----------------------*/
  /* Configure I2Cx: Frequency range */
  MODIFY_REG(hi2c->Instance->CR2, I2C_CR2_FREQ, freqrange);
 80046d2:	687b      	ldr	r3, [r7, #4]
 80046d4:	681b      	ldr	r3, [r3, #0]
 80046d6:	685b      	ldr	r3, [r3, #4]
 80046d8:	f023 013f 	bic.w	r1, r3, #63	@ 0x3f
 80046dc:	687b      	ldr	r3, [r7, #4]
 80046de:	681b      	ldr	r3, [r3, #0]
 80046e0:	68ba      	ldr	r2, [r7, #8]
 80046e2:	430a      	orrs	r2, r1
 80046e4:	605a      	str	r2, [r3, #4]

  /*---------------------------- I2Cx TRISE Configuration --------------------*/
  /* Configure I2Cx: Rise Time */
  MODIFY_REG(hi2c->Instance->TRISE, I2C_TRISE_TRISE, I2C_RISE_TIME(freqrange, hi2c->Init.ClockSpeed));
 80046e6:	687b      	ldr	r3, [r7, #4]
 80046e8:	681b      	ldr	r3, [r3, #0]
 80046ea:	6a1b      	ldr	r3, [r3, #32]
 80046ec:	f023 013f 	bic.w	r1, r3, #63	@ 0x3f
 80046f0:	687b      	ldr	r3, [r7, #4]
 80046f2:	685b      	ldr	r3, [r3, #4]
 80046f4:	4a6a      	ldr	r2, [pc, #424]	@ (80048a0 <HAL_I2C_Init+0x274>)
 80046f6:	4293      	cmp	r3, r2
 80046f8:	d802      	bhi.n	8004700 <HAL_I2C_Init+0xd4>
 80046fa:	68bb      	ldr	r3, [r7, #8]
 80046fc:	3301      	adds	r3, #1
 80046fe:	e009      	b.n	8004714 <HAL_I2C_Init+0xe8>
 8004700:	68bb      	ldr	r3, [r7, #8]
 8004702:	f44f 7296 	mov.w	r2, #300	@ 0x12c
 8004706:	fb02 f303 	mul.w	r3, r2, r3
 800470a:	4a69      	ldr	r2, [pc, #420]	@ (80048b0 <HAL_I2C_Init+0x284>)
 800470c:	fba2 2303 	umull	r2, r3, r2, r3
 8004710:	099b      	lsrs	r3, r3, #6
 8004712:	3301      	adds	r3, #1
 8004714:	687a      	ldr	r2, [r7, #4]
 8004716:	6812      	ldr	r2, [r2, #0]
 8004718:	430b      	orrs	r3, r1
 800471a:	6213      	str	r3, [r2, #32]

  /*---------------------------- I2Cx CCR Configuration ----------------------*/
  /* Configure I2Cx: Speed */
  MODIFY_REG(hi2c->Instance->CCR, (I2C_CCR_FS | I2C_CCR_DUTY | I2C_CCR_CCR), I2C_SPEED(pclk1, hi2c->Init.ClockSpeed, hi2c->Init.DutyCycle));
 800471c:	687b      	ldr	r3, [r7, #4]
 800471e:	681b      	ldr	r3, [r3, #0]
 8004720:	69db      	ldr	r3, [r3, #28]
 8004722:	f423 424f 	bic.w	r2, r3, #52992	@ 0xcf00
 8004726:	f022 02ff 	bic.w	r2, r2, #255	@ 0xff
 800472a:	687b      	ldr	r3, [r7, #4]
 800472c:	685b      	ldr	r3, [r3, #4]
 800472e:	495c      	ldr	r1, [pc, #368]	@ (80048a0 <HAL_I2C_Init+0x274>)
 8004730:	428b      	cmp	r3, r1
 8004732:	d819      	bhi.n	8004768 <HAL_I2C_Init+0x13c>
 8004734:	68fb      	ldr	r3, [r7, #12]
 8004736:	1e59      	subs	r1, r3, #1
 8004738:	687b      	ldr	r3, [r7, #4]
 800473a:	685b      	ldr	r3, [r3, #4]
 800473c:	005b      	lsls	r3, r3, #1
 800473e:	fbb1 f3f3 	udiv	r3, r1, r3
 8004742:	1c59      	adds	r1, r3, #1
 8004744:	f640 73fc 	movw	r3, #4092	@ 0xffc
 8004748:	400b      	ands	r3, r1
 800474a:	2b00      	cmp	r3, #0
 800474c:	d00a      	beq.n	8004764 <HAL_I2C_Init+0x138>
 800474e:	68fb      	ldr	r3, [r7, #12]
 8004750:	1e59      	subs	r1, r3, #1
 8004752:	687b      	ldr	r3, [r7, #4]
 8004754:	685b      	ldr	r3, [r3, #4]
 8004756:	005b      	lsls	r3, r3, #1
 8004758:	fbb1 f3f3 	udiv	r3, r1, r3
 800475c:	3301      	adds	r3, #1
 800475e:	f3c3 030b 	ubfx	r3, r3, #0, #12
 8004762:	e051      	b.n	8004808 <HAL_I2C_Init+0x1dc>
 8004764:	2304      	movs	r3, #4
 8004766:	e04f      	b.n	8004808 <HAL_I2C_Init+0x1dc>
 8004768:	687b      	ldr	r3, [r7, #4]
 800476a:	689b      	ldr	r3, [r3, #8]
 800476c:	2b00      	cmp	r3, #0
 800476e:	d111      	bne.n	8004794 <HAL_I2C_Init+0x168>
 8004770:	68fb      	ldr	r3, [r7, #12]
 8004772:	1e58      	subs	r0, r3, #1
 8004774:	687b      	ldr	r3, [r7, #4]
 8004776:	6859      	ldr	r1, [r3, #4]
 8004778:	460b      	mov	r3, r1
 800477a:	005b      	lsls	r3, r3, #1
 800477c:	440b      	add	r3, r1
 800477e:	fbb0 f3f3 	udiv	r3, r0, r3
 8004782:	3301      	adds	r3, #1
 8004784:	f3c3 030b 	ubfx	r3, r3, #0, #12
 8004788:	2b00      	cmp	r3, #0
 800478a:	bf0c      	ite	eq
 800478c:	2301      	moveq	r3, #1
 800478e:	2300      	movne	r3, #0
 8004790:	b2db      	uxtb	r3, r3
 8004792:	e012      	b.n	80047ba <HAL_I2C_Init+0x18e>
 8004794:	68fb      	ldr	r3, [r7, #12]
 8004796:	1e58      	subs	r0, r3, #1
 8004798:	687b      	ldr	r3, [r7, #4]
 800479a:	6859      	ldr	r1, [r3, #4]
 800479c:	460b      	mov	r3, r1
 800479e:	009b      	lsls	r3, r3, #2
 80047a0:	440b      	add	r3, r1
 80047a2:	0099      	lsls	r1, r3, #2
 80047a4:	440b      	add	r3, r1
 80047a6:	fbb0 f3f3 	udiv	r3, r0, r3
 80047aa:	3301      	adds	r3, #1
 80047ac:	f3c3 030b 	ubfx	r3, r3, #0, #12
 80047b0:	2b00      	cmp	r3, #0
 80047b2:	bf0c      	ite	eq
 80047b4:	2301      	moveq	r3, #1
 80047b6:	2300      	movne	r3, #0
 80047b8:	b2db      	uxtb	r3, r3
 80047ba:	2b00      	cmp	r3, #0
 80047bc:	d001      	beq.n	80047c2 <HAL_I2C_Init+0x196>
 80047be:	2301      	movs	r3, #1
 80047c0:	e022      	b.n	8004808 <HAL_I2C_Init+0x1dc>
 80047c2:	687b      	ldr	r3, [r7, #4]
 80047c4:	689b      	ldr	r3, [r3, #8]
 80047c6:	2b00      	cmp	r3, #0
 80047c8:	d10e      	bne.n	80047e8 <HAL_I2C_Init+0x1bc>
 80047ca:	68fb      	ldr	r3, [r7, #12]
 80047cc:	1e58      	subs	r0, r3, #1
 80047ce:	687b      	ldr	r3, [r7, #4]
 80047d0:	6859      	ldr	r1, [r3, #4]
 80047d2:	460b      	mov	r3, r1
 80047d4:	005b      	lsls	r3, r3, #1
 80047d6:	440b      	add	r3, r1
 80047d8:	fbb0 f3f3 	udiv	r3, r0, r3
 80047dc:	3301      	adds	r3, #1
 80047de:	f3c3 030b 	ubfx	r3, r3, #0, #12
 80047e2:	f443 4300 	orr.w	r3, r3, #32768	@ 0x8000
 80047e6:	e00f      	b.n	8004808 <HAL_I2C_Init+0x1dc>
 80047e8:	68fb      	ldr	r3, [r7, #12]
 80047ea:	1e58      	subs	r0, r3, #1
 80047ec:	687b      	ldr	r3, [r7, #4]
 80047ee:	6859      	ldr	r1, [r3, #4]
 80047f0:	460b      	mov	r3, r1
 80047f2:	009b      	lsls	r3, r3, #2
 80047f4:	440b      	add	r3, r1
 80047f6:	0099      	lsls	r1, r3, #2
 80047f8:	440b      	add	r3, r1
 80047fa:	fbb0 f3f3 	udiv	r3, r0, r3
 80047fe:	3301      	adds	r3, #1
 8004800:	f3c3 030b 	ubfx	r3, r3, #0, #12
 8004804:	f443 4340 	orr.w	r3, r3, #49152	@ 0xc000
 8004808:	6879      	ldr	r1, [r7, #4]
 800480a:	6809      	ldr	r1, [r1, #0]
 800480c:	4313      	orrs	r3, r2
 800480e:	61cb      	str	r3, [r1, #28]

  /*---------------------------- I2Cx CR1 Configuration ----------------------*/
  /* Configure I2Cx: Generalcall and NoStretch mode */
  MODIFY_REG(hi2c->Instance->CR1, (I2C_CR1_ENGC | I2C_CR1_NOSTRETCH), (hi2c->Init.GeneralCallMode | hi2c->Init.NoStretchMode));
 8004810:	687b      	ldr	r3, [r7, #4]
 8004812:	681b      	ldr	r3, [r3, #0]
 8004814:	681b      	ldr	r3, [r3, #0]
 8004816:	f023 01c0 	bic.w	r1, r3, #192	@ 0xc0
 800481a:	687b      	ldr	r3, [r7, #4]
 800481c:	69da      	ldr	r2, [r3, #28]
 800481e:	687b      	ldr	r3, [r7, #4]
 8004820:	6a1b      	ldr	r3, [r3, #32]
 8004822:	431a      	orrs	r2, r3
 8004824:	687b      	ldr	r3, [r7, #4]
 8004826:	681b      	ldr	r3, [r3, #0]
 8004828:	430a      	orrs	r2, r1
 800482a:	601a      	str	r2, [r3, #0]

  /*---------------------------- I2Cx OAR1 Configuration ---------------------*/
  /* Configure I2Cx: Own Address1 and addressing mode */
  MODIFY_REG(hi2c->Instance->OAR1, (I2C_OAR1_ADDMODE | I2C_OAR1_ADD8_9 | I2C_OAR1_ADD1_7 | I2C_OAR1_ADD0), (hi2c->Init.AddressingMode | hi2c->Init.OwnAddress1));
 800482c:	687b      	ldr	r3, [r7, #4]
 800482e:	681b      	ldr	r3, [r3, #0]
 8004830:	689b      	ldr	r3, [r3, #8]
 8004832:	f423 4303 	bic.w	r3, r3, #33536	@ 0x8300
 8004836:	f023 03ff 	bic.w	r3, r3, #255	@ 0xff
 800483a:	687a      	ldr	r2, [r7, #4]
 800483c:	6911      	ldr	r1, [r2, #16]
 800483e:	687a      	ldr	r2, [r7, #4]
 8004840:	68d2      	ldr	r2, [r2, #12]
 8004842:	4311      	orrs	r1, r2
 8004844:	687a      	ldr	r2, [r7, #4]
 8004846:	6812      	ldr	r2, [r2, #0]
 8004848:	430b      	orrs	r3, r1
 800484a:	6093      	str	r3, [r2, #8]

  /*---------------------------- I2Cx OAR2 Configuration ---------------------*/
  /* Configure I2Cx: Dual mode and Own Address2 */
  MODIFY_REG(hi2c->Instance->OAR2, (I2C_OAR2_ENDUAL | I2C_OAR2_ADD2), (hi2c->Init.DualAddressMode | hi2c->Init.OwnAddress2));
 800484c:	687b      	ldr	r3, [r7, #4]
 800484e:	681b      	ldr	r3, [r3, #0]
 8004850:	68db      	ldr	r3, [r3, #12]
 8004852:	f023 01ff 	bic.w	r1, r3, #255	@ 0xff
 8004856:	687b      	ldr	r3, [r7, #4]
 8004858:	695a      	ldr	r2, [r3, #20]
 800485a:	687b      	ldr	r3, [r7, #4]
 800485c:	699b      	ldr	r3, [r3, #24]
 800485e:	431a      	orrs	r2, r3
 8004860:	687b      	ldr	r3, [r7, #4]
 8004862:	681b      	ldr	r3, [r3, #0]
 8004864:	430a      	orrs	r2, r1
 8004866:	60da      	str	r2, [r3, #12]

  /* Enable the selected I2C peripheral */
  __HAL_I2C_ENABLE(hi2c);
 8004868:	687b      	ldr	r3, [r7, #4]
 800486a:	681b      	ldr	r3, [r3, #0]
 800486c:	681a      	ldr	r2, [r3, #0]
 800486e:	687b      	ldr	r3, [r7, #4]
 8004870:	681b      	ldr	r3, [r3, #0]
 8004872:	f042 0201 	orr.w	r2, r2, #1
 8004876:	601a      	str	r2, [r3, #0]

  hi2c->ErrorCode = HAL_I2C_ERROR_NONE;
 8004878:	687b      	ldr	r3, [r7, #4]
 800487a:	2200      	movs	r2, #0
 800487c:	641a      	str	r2, [r3, #64]	@ 0x40
  hi2c->State = HAL_I2C_STATE_READY;
 800487e:	687b      	ldr	r3, [r7, #4]
 8004880:	2220      	movs	r2, #32
 8004882:	f883 203d 	strb.w	r2, [r3, #61]	@ 0x3d
  hi2c->PreviousState = I2C_STATE_NONE;
 8004886:	687b      	ldr	r3, [r7, #4]
 8004888:	2200      	movs	r2, #0
 800488a:	631a      	str	r2, [r3, #48]	@ 0x30
  hi2c->Mode = HAL_I2C_MODE_NONE;
 800488c:	687b      	ldr	r3, [r7, #4]
 800488e:	2200      	movs	r2, #0
 8004890:	f883 203e 	strb.w	r2, [r3, #62]	@ 0x3e

  return HAL_OK;
 8004894:	2300      	movs	r3, #0
}
 8004896:	4618      	mov	r0, r3
 8004898:	3710      	adds	r7, #16
 800489a:	46bd      	mov	sp, r7
 800489c:	bd80      	pop	{r7, pc}
 800489e:	bf00      	nop
 80048a0:	000186a0 	.word	0x000186a0
 80048a4:	001e847f 	.word	0x001e847f
 80048a8:	003d08ff 	.word	0x003d08ff
 80048ac:	431bde83 	.word	0x431bde83
 80048b0:	10624dd3 	.word	0x10624dd3

080048b4 <HAL_PWREx_EnableOverDrive>:
  *         During the Over-drive switch activation, no peripheral clocks should be enabled.   
  *         The peripheral clocks must be enabled once the Over-drive mode is activated.   
  * @retval HAL status
  */
HAL_StatusTypeDef HAL_PWREx_EnableOverDrive(void)
{
 80048b4:	b580      	push	{r7, lr}
 80048b6:	b082      	sub	sp, #8
 80048b8:	af00      	add	r7, sp, #0
  uint32_t tickstart = 0U;
 80048ba:	2300      	movs	r3, #0
 80048bc:	607b      	str	r3, [r7, #4]

  __HAL_RCC_PWR_CLK_ENABLE();
 80048be:	2300      	movs	r3, #0
 80048c0:	603b      	str	r3, [r7, #0]
 80048c2:	4b20      	ldr	r3, [pc, #128]	@ (8004944 <HAL_PWREx_EnableOverDrive+0x90>)
 80048c4:	6c1b      	ldr	r3, [r3, #64]	@ 0x40
 80048c6:	4a1f      	ldr	r2, [pc, #124]	@ (8004944 <HAL_PWREx_EnableOverDrive+0x90>)
 80048c8:	f043 5380 	orr.w	r3, r3, #268435456	@ 0x10000000
 80048cc:	6413      	str	r3, [r2, #64]	@ 0x40
 80048ce:	4b1d      	ldr	r3, [pc, #116]	@ (8004944 <HAL_PWREx_EnableOverDrive+0x90>)
 80048d0:	6c1b      	ldr	r3, [r3, #64]	@ 0x40
 80048d2:	f003 5380 	and.w	r3, r3, #268435456	@ 0x10000000
 80048d6:	603b      	str	r3, [r7, #0]
 80048d8:	683b      	ldr	r3, [r7, #0]
  
  /* Enable the Over-drive to extend the clock frequency to 180 Mhz */
  __HAL_PWR_OVERDRIVE_ENABLE();
 80048da:	4b1b      	ldr	r3, [pc, #108]	@ (8004948 <HAL_PWREx_EnableOverDrive+0x94>)
 80048dc:	2201      	movs	r2, #1
 80048de:	601a      	str	r2, [r3, #0]

  /* Get tick */
  tickstart = HAL_GetTick();
 80048e0:	f7fe f872 	bl	80029c8 <HAL_GetTick>
 80048e4:	6078      	str	r0, [r7, #4]

  while(!__HAL_PWR_GET_FLAG(PWR_FLAG_ODRDY))
 80048e6:	e009      	b.n	80048fc <HAL_PWREx_EnableOverDrive+0x48>
  {
    if((HAL_GetTick() - tickstart) > PWR_OVERDRIVE_TIMEOUT_VALUE)
 80048e8:	f7fe f86e 	bl	80029c8 <HAL_GetTick>
 80048ec:	4602      	mov	r2, r0
 80048ee:	687b      	ldr	r3, [r7, #4]
 80048f0:	1ad3      	subs	r3, r2, r3
 80048f2:	f5b3 7f7a 	cmp.w	r3, #1000	@ 0x3e8
 80048f6:	d901      	bls.n	80048fc <HAL_PWREx_EnableOverDrive+0x48>
    {
      return HAL_TIMEOUT;
 80048f8:	2303      	movs	r3, #3
 80048fa:	e01f      	b.n	800493c <HAL_PWREx_EnableOverDrive+0x88>
  while(!__HAL_PWR_GET_FLAG(PWR_FLAG_ODRDY))
 80048fc:	4b13      	ldr	r3, [pc, #76]	@ (800494c <HAL_PWREx_EnableOverDrive+0x98>)
 80048fe:	685b      	ldr	r3, [r3, #4]
 8004900:	f403 3380 	and.w	r3, r3, #65536	@ 0x10000
 8004904:	f5b3 3f80 	cmp.w	r3, #65536	@ 0x10000
 8004908:	d1ee      	bne.n	80048e8 <HAL_PWREx_EnableOverDrive+0x34>
    }
  }
  
  /* Enable the Over-drive switch */
  __HAL_PWR_OVERDRIVESWITCHING_ENABLE();
 800490a:	4b11      	ldr	r3, [pc, #68]	@ (8004950 <HAL_PWREx_EnableOverDrive+0x9c>)
 800490c:	2201      	movs	r2, #1
 800490e:	601a      	str	r2, [r3, #0]

  /* Get tick */
  tickstart = HAL_GetTick();
 8004910:	f7fe f85a 	bl	80029c8 <HAL_GetTick>
 8004914:	6078      	str	r0, [r7, #4]

  while(!__HAL_PWR_GET_FLAG(PWR_FLAG_ODSWRDY))
 8004916:	e009      	b.n	800492c <HAL_PWREx_EnableOverDrive+0x78>
  {
    if((HAL_GetTick() - tickstart ) > PWR_OVERDRIVE_TIMEOUT_VALUE)
 8004918:	f7fe f856 	bl	80029c8 <HAL_GetTick>
 800491c:	4602      	mov	r2, r0
 800491e:	687b      	ldr	r3, [r7, #4]
 8004920:	1ad3      	subs	r3, r2, r3
 8004922:	f5b3 7f7a 	cmp.w	r3, #1000	@ 0x3e8
 8004926:	d901      	bls.n	800492c <HAL_PWREx_EnableOverDrive+0x78>
    {
      return HAL_TIMEOUT;
 8004928:	2303      	movs	r3, #3
 800492a:	e007      	b.n	800493c <HAL_PWREx_EnableOverDrive+0x88>
  while(!__HAL_PWR_GET_FLAG(PWR_FLAG_ODSWRDY))
 800492c:	4b07      	ldr	r3, [pc, #28]	@ (800494c <HAL_PWREx_EnableOverDrive+0x98>)
 800492e:	685b      	ldr	r3, [r3, #4]
 8004930:	f403 3300 	and.w	r3, r3, #131072	@ 0x20000
 8004934:	f5b3 3f00 	cmp.w	r3, #131072	@ 0x20000
 8004938:	d1ee      	bne.n	8004918 <HAL_PWREx_EnableOverDrive+0x64>
    }
  } 
  return HAL_OK;
 800493a:	2300      	movs	r3, #0
}
 800493c:	4618      	mov	r0, r3
 800493e:	3708      	adds	r7, #8
 8004940:	46bd      	mov	sp, r7
 8004942:	bd80      	pop	{r7, pc}
 8004944:	40023800 	.word	0x40023800
 8004948:	420e0040 	.word	0x420e0040
 800494c:	40007000 	.word	0x40007000
 8004950:	420e0044 	.word	0x420e0044

08004954 <HAL_RCC_ClockConfig>:
  *         HPRE[3:0] bits to ensure that HCLK not exceed the maximum allowed frequency
  *         (for more details refer to section above "Initialization/de-initialization functions")
  * @retval None
  */
HAL_StatusTypeDef HAL_RCC_ClockConfig(RCC_ClkInitTypeDef  *RCC_ClkInitStruct, uint32_t FLatency)
{
 8004954:	b580      	push	{r7, lr}
 8004956:	b084      	sub	sp, #16
 8004958:	af00      	add	r7, sp, #0
 800495a:	6078      	str	r0, [r7, #4]
 800495c:	6039      	str	r1, [r7, #0]
  uint32_t tickstart;

  /* Check Null pointer */
  if (RCC_ClkInitStruct == NULL)
 800495e:	687b      	ldr	r3, [r7, #4]
 8004960:	2b00      	cmp	r3, #0
 8004962:	d101      	bne.n	8004968 <HAL_RCC_ClockConfig+0x14>
  {
    return HAL_ERROR;
 8004964:	2301      	movs	r3, #1
 8004966:	e0cc      	b.n	8004b02 <HAL_RCC_ClockConfig+0x1ae>
  /* To correctly read data from FLASH memory, the number of wait states (LATENCY)
    must be correctly programmed according to the frequency of the CPU clock
    (HCLK) and the supply voltage of the device. */

  /* Increasing the number of wait states because of higher CPU frequency */
  if (FLatency > __HAL_FLASH_GET_LATENCY())
 8004968:	4b68      	ldr	r3, [pc, #416]	@ (8004b0c <HAL_RCC_ClockConfig+0x1b8>)
 800496a:	681b      	ldr	r3, [r3, #0]
 800496c:	f003 030f 	and.w	r3, r3, #15
 8004970:	683a      	ldr	r2, [r7, #0]
 8004972:	429a      	cmp	r2, r3
 8004974:	d90c      	bls.n	8004990 <HAL_RCC_ClockConfig+0x3c>
  {
    /* Program the new number of wait states to the LATENCY bits in the FLASH_ACR register */
    __HAL_FLASH_SET_LATENCY(FLatency);
 8004976:	4b65      	ldr	r3, [pc, #404]	@ (8004b0c <HAL_RCC_ClockConfig+0x1b8>)
 8004978:	683a      	ldr	r2, [r7, #0]
 800497a:	b2d2      	uxtb	r2, r2
 800497c:	701a      	strb	r2, [r3, #0]

    /* Check that the new number of wait states is taken into account to access the Flash
    memory by reading the FLASH_ACR register */
    if (__HAL_FLASH_GET_LATENCY() != FLatency)
 800497e:	4b63      	ldr	r3, [pc, #396]	@ (8004b0c <HAL_RCC_ClockConfig+0x1b8>)
 8004980:	681b      	ldr	r3, [r3, #0]
 8004982:	f003 030f 	and.w	r3, r3, #15
 8004986:	683a      	ldr	r2, [r7, #0]
 8004988:	429a      	cmp	r2, r3
 800498a:	d001      	beq.n	8004990 <HAL_RCC_ClockConfig+0x3c>
    {
      return HAL_ERROR;
 800498c:	2301      	movs	r3, #1
 800498e:	e0b8      	b.n	8004b02 <HAL_RCC_ClockConfig+0x1ae>
    }
  }

  /*-------------------------- HCLK Configuration --------------------------*/
  if (((RCC_ClkInitStruct->ClockType) & RCC_CLOCKTYPE_HCLK) == RCC_CLOCKTYPE_HCLK)
 8004990:	687b      	ldr	r3, [r7, #4]
 8004992:	681b      	ldr	r3, [r3, #0]
 8004994:	f003 0302 	and.w	r3, r3, #2
 8004998:	2b00      	cmp	r3, #0
 800499a:	d020      	beq.n	80049de <HAL_RCC_ClockConfig+0x8a>
  {
    /* Set the highest APBx dividers in order to ensure that we do not go through
       a non-spec phase whatever we decrease or increase HCLK. */
    if (((RCC_ClkInitStruct->ClockType) & RCC_CLOCKTYPE_PCLK1) == RCC_CLOCKTYPE_PCLK1)
 800499c:	687b      	ldr	r3, [r7, #4]
 800499e:	681b      	ldr	r3, [r3, #0]
 80049a0:	f003 0304 	and.w	r3, r3, #4
 80049a4:	2b00      	cmp	r3, #0
 80049a6:	d005      	beq.n	80049b4 <HAL_RCC_ClockConfig+0x60>
    {
      MODIFY_REG(RCC->CFGR, RCC_CFGR_PPRE1, RCC_HCLK_DIV16);
 80049a8:	4b59      	ldr	r3, [pc, #356]	@ (8004b10 <HAL_RCC_ClockConfig+0x1bc>)
 80049aa:	689b      	ldr	r3, [r3, #8]
 80049ac:	4a58      	ldr	r2, [pc, #352]	@ (8004b10 <HAL_RCC_ClockConfig+0x1bc>)
 80049ae:	f443 53e0 	orr.w	r3, r3, #7168	@ 0x1c00
 80049b2:	6093      	str	r3, [r2, #8]
    }

    if (((RCC_ClkInitStruct->ClockType) & RCC_CLOCKTYPE_PCLK2) == RCC_CLOCKTYPE_PCLK2)
 80049b4:	687b      	ldr	r3, [r7, #4]
 80049b6:	681b      	ldr	r3, [r3, #0]
 80049b8:	f003 0308 	and.w	r3, r3, #8
 80049bc:	2b00      	cmp	r3, #0
 80049be:	d005      	beq.n	80049cc <HAL_RCC_ClockConfig+0x78>
    {
      MODIFY_REG(RCC->CFGR, RCC_CFGR_PPRE2, (RCC_HCLK_DIV16 << 3));
 80049c0:	4b53      	ldr	r3, [pc, #332]	@ (8004b10 <HAL_RCC_ClockConfig+0x1bc>)
 80049c2:	689b      	ldr	r3, [r3, #8]
 80049c4:	4a52      	ldr	r2, [pc, #328]	@ (8004b10 <HAL_RCC_ClockConfig+0x1bc>)
 80049c6:	f443 4360 	orr.w	r3, r3, #57344	@ 0xe000
 80049ca:	6093      	str	r3, [r2, #8]
    }

    assert_param(IS_RCC_HCLK(RCC_ClkInitStruct->AHBCLKDivider));
    MODIFY_REG(RCC->CFGR, RCC_CFGR_HPRE, RCC_ClkInitStruct->AHBCLKDivider);
 80049cc:	4b50      	ldr	r3, [pc, #320]	@ (8004b10 <HAL_RCC_ClockConfig+0x1bc>)
 80049ce:	689b      	ldr	r3, [r3, #8]
 80049d0:	f023 02f0 	bic.w	r2, r3, #240	@ 0xf0
 80049d4:	687b      	ldr	r3, [r7, #4]
 80049d6:	689b      	ldr	r3, [r3, #8]
 80049d8:	494d      	ldr	r1, [pc, #308]	@ (8004b10 <HAL_RCC_ClockConfig+0x1bc>)
 80049da:	4313      	orrs	r3, r2
 80049dc:	608b      	str	r3, [r1, #8]
  }

  /*------------------------- SYSCLK Configuration ---------------------------*/
  if (((RCC_ClkInitStruct->ClockType) & RCC_CLOCKTYPE_SYSCLK) == RCC_CLOCKTYPE_SYSCLK)
 80049de:	687b      	ldr	r3, [r7, #4]
 80049e0:	681b      	ldr	r3, [r3, #0]
 80049e2:	f003 0301 	and.w	r3, r3, #1
 80049e6:	2b00      	cmp	r3, #0
 80049e8:	d044      	beq.n	8004a74 <HAL_RCC_ClockConfig+0x120>
  {
    assert_param(IS_RCC_SYSCLKSOURCE(RCC_ClkInitStruct->SYSCLKSource));

    /* HSE is selected as System Clock Source */
    if (RCC_ClkInitStruct->SYSCLKSource == RCC_SYSCLKSOURCE_HSE)
 80049ea:	687b      	ldr	r3, [r7, #4]
 80049ec:	685b      	ldr	r3, [r3, #4]
 80049ee:	2b01      	cmp	r3, #1
 80049f0:	d107      	bne.n	8004a02 <HAL_RCC_ClockConfig+0xae>
    {
      /* Check the HSE ready flag */
      if (__HAL_RCC_GET_FLAG(RCC_FLAG_HSERDY) == RESET)
 80049f2:	4b47      	ldr	r3, [pc, #284]	@ (8004b10 <HAL_RCC_ClockConfig+0x1bc>)
 80049f4:	681b      	ldr	r3, [r3, #0]
 80049f6:	f403 3300 	and.w	r3, r3, #131072	@ 0x20000
 80049fa:	2b00      	cmp	r3, #0
 80049fc:	d119      	bne.n	8004a32 <HAL_RCC_ClockConfig+0xde>
      {
        return HAL_ERROR;
 80049fe:	2301      	movs	r3, #1
 8004a00:	e07f      	b.n	8004b02 <HAL_RCC_ClockConfig+0x1ae>
      }
    }
    /* PLL is selected as System Clock Source */
    else if ((RCC_ClkInitStruct->SYSCLKSource == RCC_SYSCLKSOURCE_PLLCLK)   ||
 8004a02:	687b      	ldr	r3, [r7, #4]
 8004a04:	685b      	ldr	r3, [r3, #4]
 8004a06:	2b02      	cmp	r3, #2
 8004a08:	d003      	beq.n	8004a12 <HAL_RCC_ClockConfig+0xbe>
             (RCC_ClkInitStruct->SYSCLKSource == RCC_SYSCLKSOURCE_PLLRCLK))
 8004a0a:	687b      	ldr	r3, [r7, #4]
 8004a0c:	685b      	ldr	r3, [r3, #4]
    else if ((RCC_ClkInitStruct->SYSCLKSource == RCC_SYSCLKSOURCE_PLLCLK)   ||
 8004a0e:	2b03      	cmp	r3, #3
 8004a10:	d107      	bne.n	8004a22 <HAL_RCC_ClockConfig+0xce>
    {
      /* Check the PLL ready flag */
      if (__HAL_RCC_GET_FLAG(RCC_FLAG_PLLRDY) == RESET)
 8004a12:	4b3f      	ldr	r3, [pc, #252]	@ (8004b10 <HAL_RCC_ClockConfig+0x1bc>)
 8004a14:	681b      	ldr	r3, [r3, #0]
 8004a16:	f003 7300 	and.w	r3, r3, #33554432	@ 0x2000000
 8004a1a:	2b00      	cmp	r3, #0
 8004a1c:	d109      	bne.n	8004a32 <HAL_RCC_ClockConfig+0xde>
      {
        return HAL_ERROR;
 8004a1e:	2301      	movs	r3, #1
 8004a20:	e06f      	b.n	8004b02 <HAL_RCC_ClockConfig+0x1ae>
    }
    /* HSI is selected as System Clock Source */
    else
    {
      /* Check the HSI ready flag */
      if (__HAL_RCC_GET_FLAG(RCC_FLAG_HSIRDY) == RESET)
 8004a22:	4b3b      	ldr	r3, [pc, #236]	@ (8004b10 <HAL_RCC_ClockConfig+0x1bc>)
 8004a24:	681b      	ldr	r3, [r3, #0]
 8004a26:	f003 0302 	and.w	r3, r3, #2
 8004a2a:	2b00      	cmp	r3, #0
 8004a2c:	d101      	bne.n	8004a32 <HAL_RCC_ClockConfig+0xde>
      {
        return HAL_ERROR;
 8004a2e:	2301      	movs	r3, #1
 8004a30:	e067      	b.n	8004b02 <HAL_RCC_ClockConfig+0x1ae>
      }
    }

    __HAL_RCC_SYSCLK_CONFIG(RCC_ClkInitStruct->SYSCLKSource);
 8004a32:	4b37      	ldr	r3, [pc, #220]	@ (8004b10 <HAL_RCC_ClockConfig+0x1bc>)
 8004a34:	689b      	ldr	r3, [r3, #8]
 8004a36:	f023 0203 	bic.w	r2, r3, #3
 8004a3a:	687b      	ldr	r3, [r7, #4]
 8004a3c:	685b      	ldr	r3, [r3, #4]
 8004a3e:	4934      	ldr	r1, [pc, #208]	@ (8004b10 <HAL_RCC_ClockConfig+0x1bc>)
 8004a40:	4313      	orrs	r3, r2
 8004a42:	608b      	str	r3, [r1, #8]

    /* Get Start Tick */
    tickstart = HAL_GetTick();
 8004a44:	f7fd ffc0 	bl	80029c8 <HAL_GetTick>
 8004a48:	60f8      	str	r0, [r7, #12]

    while (__HAL_RCC_GET_SYSCLK_SOURCE() != (RCC_ClkInitStruct->SYSCLKSource << RCC_CFGR_SWS_Pos))
 8004a4a:	e00a      	b.n	8004a62 <HAL_RCC_ClockConfig+0x10e>
    {
      if ((HAL_GetTick() - tickstart) > CLOCKSWITCH_TIMEOUT_VALUE)
 8004a4c:	f7fd ffbc 	bl	80029c8 <HAL_GetTick>
 8004a50:	4602      	mov	r2, r0
 8004a52:	68fb      	ldr	r3, [r7, #12]
 8004a54:	1ad3      	subs	r3, r2, r3
 8004a56:	f241 3288 	movw	r2, #5000	@ 0x1388
 8004a5a:	4293      	cmp	r3, r2
 8004a5c:	d901      	bls.n	8004a62 <HAL_RCC_ClockConfig+0x10e>
      {
        return HAL_TIMEOUT;
 8004a5e:	2303      	movs	r3, #3
 8004a60:	e04f      	b.n	8004b02 <HAL_RCC_ClockConfig+0x1ae>
    while (__HAL_RCC_GET_SYSCLK_SOURCE() != (RCC_ClkInitStruct->SYSCLKSource << RCC_CFGR_SWS_Pos))
 8004a62:	4b2b      	ldr	r3, [pc, #172]	@ (8004b10 <HAL_RCC_ClockConfig+0x1bc>)
 8004a64:	689b      	ldr	r3, [r3, #8]
 8004a66:	f003 020c 	and.w	r2, r3, #12
 8004a6a:	687b      	ldr	r3, [r7, #4]
 8004a6c:	685b      	ldr	r3, [r3, #4]
 8004a6e:	009b      	lsls	r3, r3, #2
 8004a70:	429a      	cmp	r2, r3
 8004a72:	d1eb      	bne.n	8004a4c <HAL_RCC_ClockConfig+0xf8>
      }
    }
  }

  /* Decreasing the number of wait states because of lower CPU frequency */
  if (FLatency < __HAL_FLASH_GET_LATENCY())
 8004a74:	4b25      	ldr	r3, [pc, #148]	@ (8004b0c <HAL_RCC_ClockConfig+0x1b8>)
 8004a76:	681b      	ldr	r3, [r3, #0]
 8004a78:	f003 030f 	and.w	r3, r3, #15
 8004a7c:	683a      	ldr	r2, [r7, #0]
 8004a7e:	429a      	cmp	r2, r3
 8004a80:	d20c      	bcs.n	8004a9c <HAL_RCC_ClockConfig+0x148>
  {
    /* Program the new number of wait states to the LATENCY bits in the FLASH_ACR register */
    __HAL_FLASH_SET_LATENCY(FLatency);
 8004a82:	4b22      	ldr	r3, [pc, #136]	@ (8004b0c <HAL_RCC_ClockConfig+0x1b8>)
 8004a84:	683a      	ldr	r2, [r7, #0]
 8004a86:	b2d2      	uxtb	r2, r2
 8004a88:	701a      	strb	r2, [r3, #0]

    /* Check that the new number of wait states is taken into account to access the Flash
    memory by reading the FLASH_ACR register */
    if (__HAL_FLASH_GET_LATENCY() != FLatency)
 8004a8a:	4b20      	ldr	r3, [pc, #128]	@ (8004b0c <HAL_RCC_ClockConfig+0x1b8>)
 8004a8c:	681b      	ldr	r3, [r3, #0]
 8004a8e:	f003 030f 	and.w	r3, r3, #15
 8004a92:	683a      	ldr	r2, [r7, #0]
 8004a94:	429a      	cmp	r2, r3
 8004a96:	d001      	beq.n	8004a9c <HAL_RCC_ClockConfig+0x148>
    {
      return HAL_ERROR;
 8004a98:	2301      	movs	r3, #1
 8004a9a:	e032      	b.n	8004b02 <HAL_RCC_ClockConfig+0x1ae>
    }
  }

  /*-------------------------- PCLK1 Configuration ---------------------------*/
  if (((RCC_ClkInitStruct->ClockType) & RCC_CLOCKTYPE_PCLK1) == RCC_CLOCKTYPE_PCLK1)
 8004a9c:	687b      	ldr	r3, [r7, #4]
 8004a9e:	681b      	ldr	r3, [r3, #0]
 8004aa0:	f003 0304 	and.w	r3, r3, #4
 8004aa4:	2b00      	cmp	r3, #0
 8004aa6:	d008      	beq.n	8004aba <HAL_RCC_ClockConfig+0x166>
  {
    assert_param(IS_RCC_PCLK(RCC_ClkInitStruct->APB1CLKDivider));
    MODIFY_REG(RCC->CFGR, RCC_CFGR_PPRE1, RCC_ClkInitStruct->APB1CLKDivider);
 8004aa8:	4b19      	ldr	r3, [pc, #100]	@ (8004b10 <HAL_RCC_ClockConfig+0x1bc>)
 8004aaa:	689b      	ldr	r3, [r3, #8]
 8004aac:	f423 52e0 	bic.w	r2, r3, #7168	@ 0x1c00
 8004ab0:	687b      	ldr	r3, [r7, #4]
 8004ab2:	68db      	ldr	r3, [r3, #12]
 8004ab4:	4916      	ldr	r1, [pc, #88]	@ (8004b10 <HAL_RCC_ClockConfig+0x1bc>)
 8004ab6:	4313      	orrs	r3, r2
 8004ab8:	608b      	str	r3, [r1, #8]
  }

  /*-------------------------- PCLK2 Configuration ---------------------------*/
  if (((RCC_ClkInitStruct->ClockType) & RCC_CLOCKTYPE_PCLK2) == RCC_CLOCKTYPE_PCLK2)
 8004aba:	687b      	ldr	r3, [r7, #4]
 8004abc:	681b      	ldr	r3, [r3, #0]
 8004abe:	f003 0308 	and.w	r3, r3, #8
 8004ac2:	2b00      	cmp	r3, #0
 8004ac4:	d009      	beq.n	8004ada <HAL_RCC_ClockConfig+0x186>
  {
    assert_param(IS_RCC_PCLK(RCC_ClkInitStruct->APB2CLKDivider));
    MODIFY_REG(RCC->CFGR, RCC_CFGR_PPRE2, ((RCC_ClkInitStruct->APB2CLKDivider) << 3U));
 8004ac6:	4b12      	ldr	r3, [pc, #72]	@ (8004b10 <HAL_RCC_ClockConfig+0x1bc>)
 8004ac8:	689b      	ldr	r3, [r3, #8]
 8004aca:	f423 4260 	bic.w	r2, r3, #57344	@ 0xe000
 8004ace:	687b      	ldr	r3, [r7, #4]
 8004ad0:	691b      	ldr	r3, [r3, #16]
 8004ad2:	00db      	lsls	r3, r3, #3
 8004ad4:	490e      	ldr	r1, [pc, #56]	@ (8004b10 <HAL_RCC_ClockConfig+0x1bc>)
 8004ad6:	4313      	orrs	r3, r2
 8004ad8:	608b      	str	r3, [r1, #8]
  }

  /* Update the SystemCoreClock global variable */
  SystemCoreClock = HAL_RCC_GetSysClockFreq() >> AHBPrescTable[(RCC->CFGR & RCC_CFGR_HPRE) >> RCC_CFGR_HPRE_Pos];
 8004ada:	f000 f855 	bl	8004b88 <HAL_RCC_GetSysClockFreq>
 8004ade:	4602      	mov	r2, r0
 8004ae0:	4b0b      	ldr	r3, [pc, #44]	@ (8004b10 <HAL_RCC_ClockConfig+0x1bc>)
 8004ae2:	689b      	ldr	r3, [r3, #8]
 8004ae4:	091b      	lsrs	r3, r3, #4
 8004ae6:	f003 030f 	and.w	r3, r3, #15
 8004aea:	490a      	ldr	r1, [pc, #40]	@ (8004b14 <HAL_RCC_ClockConfig+0x1c0>)
 8004aec:	5ccb      	ldrb	r3, [r1, r3]
 8004aee:	fa22 f303 	lsr.w	r3, r2, r3
 8004af2:	4a09      	ldr	r2, [pc, #36]	@ (8004b18 <HAL_RCC_ClockConfig+0x1c4>)
 8004af4:	6013      	str	r3, [r2, #0]

  /* Configure the source of time base considering new system clocks settings */
  HAL_InitTick(uwTickPrio);
 8004af6:	4b09      	ldr	r3, [pc, #36]	@ (8004b1c <HAL_RCC_ClockConfig+0x1c8>)
 8004af8:	681b      	ldr	r3, [r3, #0]
 8004afa:	4618      	mov	r0, r3
 8004afc:	f7fd ff20 	bl	8002940 <HAL_InitTick>

  return HAL_OK;
 8004b00:	2300      	movs	r3, #0
}
 8004b02:	4618      	mov	r0, r3
 8004b04:	3710      	adds	r7, #16
 8004b06:	46bd      	mov	sp, r7
 8004b08:	bd80      	pop	{r7, pc}
 8004b0a:	bf00      	nop
 8004b0c:	40023c00 	.word	0x40023c00
 8004b10:	40023800 	.word	0x40023800
 8004b14:	08009a08 	.word	0x08009a08
 8004b18:	20000000 	.word	0x20000000
 8004b1c:	20000004 	.word	0x20000004

08004b20 <HAL_RCC_GetHCLKFreq>:
  * @note   The SystemCoreClock CMSIS variable is used to store System Clock Frequency
  *         and updated within this function
  * @retval HCLK frequency
  */
uint32_t HAL_RCC_GetHCLKFreq(void)
{
 8004b20:	b480      	push	{r7}
 8004b22:	af00      	add	r7, sp, #0
  return SystemCoreClock;
 8004b24:	4b03      	ldr	r3, [pc, #12]	@ (8004b34 <HAL_RCC_GetHCLKFreq+0x14>)
 8004b26:	681b      	ldr	r3, [r3, #0]
}
 8004b28:	4618      	mov	r0, r3
 8004b2a:	46bd      	mov	sp, r7
 8004b2c:	f85d 7b04 	ldr.w	r7, [sp], #4
 8004b30:	4770      	bx	lr
 8004b32:	bf00      	nop
 8004b34:	20000000 	.word	0x20000000

08004b38 <HAL_RCC_GetPCLK1Freq>:
  * @note   Each time PCLK1 changes, this function must be called to update the
  *         right PCLK1 value. Otherwise, any configuration based on this function will be incorrect.
  * @retval PCLK1 frequency
  */
uint32_t HAL_RCC_GetPCLK1Freq(void)
{
 8004b38:	b580      	push	{r7, lr}
 8004b3a:	af00      	add	r7, sp, #0
  /* Get HCLK source and Compute PCLK1 frequency ---------------------------*/
  return (HAL_RCC_GetHCLKFreq() >> APBPrescTable[(RCC->CFGR & RCC_CFGR_PPRE1) >> RCC_CFGR_PPRE1_Pos]);
 8004b3c:	f7ff fff0 	bl	8004b20 <HAL_RCC_GetHCLKFreq>
 8004b40:	4602      	mov	r2, r0
 8004b42:	4b05      	ldr	r3, [pc, #20]	@ (8004b58 <HAL_RCC_GetPCLK1Freq+0x20>)
 8004b44:	689b      	ldr	r3, [r3, #8]
 8004b46:	0a9b      	lsrs	r3, r3, #10
 8004b48:	f003 0307 	and.w	r3, r3, #7
 8004b4c:	4903      	ldr	r1, [pc, #12]	@ (8004b5c <HAL_RCC_GetPCLK1Freq+0x24>)
 8004b4e:	5ccb      	ldrb	r3, [r1, r3]
 8004b50:	fa22 f303 	lsr.w	r3, r2, r3
}
 8004b54:	4618      	mov	r0, r3
 8004b56:	bd80      	pop	{r7, pc}
 8004b58:	40023800 	.word	0x40023800
 8004b5c:	08009a18 	.word	0x08009a18

08004b60 <HAL_RCC_GetPCLK2Freq>:
  * @note   Each time PCLK2 changes, this function must be called to update the
  *         right PCLK2 value. Otherwise, any configuration based on this function will be incorrect.
  * @retval PCLK2 frequency
  */
uint32_t HAL_RCC_GetPCLK2Freq(void)
{
 8004b60:	b580      	push	{r7, lr}
 8004b62:	af00      	add	r7, sp, #0
  /* Get HCLK source and Compute PCLK2 frequency ---------------------------*/
  return (HAL_RCC_GetHCLKFreq() >> APBPrescTable[(RCC->CFGR & RCC_CFGR_PPRE2) >> RCC_CFGR_PPRE2_Pos]);
 8004b64:	f7ff ffdc 	bl	8004b20 <HAL_RCC_GetHCLKFreq>
 8004b68:	4602      	mov	r2, r0
 8004b6a:	4b05      	ldr	r3, [pc, #20]	@ (8004b80 <HAL_RCC_GetPCLK2Freq+0x20>)
 8004b6c:	689b      	ldr	r3, [r3, #8]
 8004b6e:	0b5b      	lsrs	r3, r3, #13
 8004b70:	f003 0307 	and.w	r3, r3, #7
 8004b74:	4903      	ldr	r1, [pc, #12]	@ (8004b84 <HAL_RCC_GetPCLK2Freq+0x24>)
 8004b76:	5ccb      	ldrb	r3, [r1, r3]
 8004b78:	fa22 f303 	lsr.w	r3, r2, r3
}
 8004b7c:	4618      	mov	r0, r3
 8004b7e:	bd80      	pop	{r7, pc}
 8004b80:	40023800 	.word	0x40023800
 8004b84:	08009a18 	.word	0x08009a18

08004b88 <HAL_RCC_GetSysClockFreq>:
  *
  *
  * @retval SYSCLK frequency
  */
uint32_t HAL_RCC_GetSysClockFreq(void)
{
 8004b88:	e92d 4fb0 	stmdb	sp!, {r4, r5, r7, r8, r9, sl, fp, lr}
 8004b8c:	b0ae      	sub	sp, #184	@ 0xb8
 8004b8e:	af00      	add	r7, sp, #0
  uint32_t pllm = 0U;
 8004b90:	2300      	movs	r3, #0
 8004b92:	f8c7 30ac 	str.w	r3, [r7, #172]	@ 0xac
  uint32_t pllvco = 0U;
 8004b96:	2300      	movs	r3, #0
 8004b98:	f8c7 30b4 	str.w	r3, [r7, #180]	@ 0xb4
  uint32_t pllp = 0U;
 8004b9c:	2300      	movs	r3, #0
 8004b9e:	f8c7 30a8 	str.w	r3, [r7, #168]	@ 0xa8
  uint32_t pllr = 0U;
 8004ba2:	2300      	movs	r3, #0
 8004ba4:	f8c7 30a4 	str.w	r3, [r7, #164]	@ 0xa4
  uint32_t sysclockfreq = 0U;
 8004ba8:	2300      	movs	r3, #0
 8004baa:	f8c7 30b0 	str.w	r3, [r7, #176]	@ 0xb0

  /* Get SYSCLK source -------------------------------------------------------*/
  switch (RCC->CFGR & RCC_CFGR_SWS)
 8004bae:	4bcb      	ldr	r3, [pc, #812]	@ (8004edc <HAL_RCC_GetSysClockFreq+0x354>)
 8004bb0:	689b      	ldr	r3, [r3, #8]
 8004bb2:	f003 030c 	and.w	r3, r3, #12
 8004bb6:	2b0c      	cmp	r3, #12
 8004bb8:	f200 8206 	bhi.w	8004fc8 <HAL_RCC_GetSysClockFreq+0x440>
 8004bbc:	a201      	add	r2, pc, #4	@ (adr r2, 8004bc4 <HAL_RCC_GetSysClockFreq+0x3c>)
 8004bbe:	f852 f023 	ldr.w	pc, [r2, r3, lsl #2]
 8004bc2:	bf00      	nop
 8004bc4:	08004bf9 	.word	0x08004bf9
 8004bc8:	08004fc9 	.word	0x08004fc9
 8004bcc:	08004fc9 	.word	0x08004fc9
 8004bd0:	08004fc9 	.word	0x08004fc9
 8004bd4:	08004c01 	.word	0x08004c01
 8004bd8:	08004fc9 	.word	0x08004fc9
 8004bdc:	08004fc9 	.word	0x08004fc9
 8004be0:	08004fc9 	.word	0x08004fc9
 8004be4:	08004c09 	.word	0x08004c09
 8004be8:	08004fc9 	.word	0x08004fc9
 8004bec:	08004fc9 	.word	0x08004fc9
 8004bf0:	08004fc9 	.word	0x08004fc9
 8004bf4:	08004df9 	.word	0x08004df9
  {
    case RCC_CFGR_SWS_HSI:  /* HSI used as system clock source */
    {
      sysclockfreq = HSI_VALUE;
 8004bf8:	4bb9      	ldr	r3, [pc, #740]	@ (8004ee0 <HAL_RCC_GetSysClockFreq+0x358>)
 8004bfa:	f8c7 30b0 	str.w	r3, [r7, #176]	@ 0xb0
      break;
 8004bfe:	e1e7      	b.n	8004fd0 <HAL_RCC_GetSysClockFreq+0x448>
    }
    case RCC_CFGR_SWS_HSE:  /* HSE used as system clock  source */
    {
      sysclockfreq = HSE_VALUE;
 8004c00:	4bb8      	ldr	r3, [pc, #736]	@ (8004ee4 <HAL_RCC_GetSysClockFreq+0x35c>)
 8004c02:	f8c7 30b0 	str.w	r3, [r7, #176]	@ 0xb0
      break;
 8004c06:	e1e3      	b.n	8004fd0 <HAL_RCC_GetSysClockFreq+0x448>
    }
    case RCC_CFGR_SWS_PLL:  /* PLL/PLLP used as system clock  source */
    {
      /* PLL_VCO = (HSE_VALUE or HSI_VALUE / PLLM) * PLLN
      SYSCLK = PLL_VCO / PLLP */
      pllm = RCC->PLLCFGR & RCC_PLLCFGR_PLLM;
 8004c08:	4bb4      	ldr	r3, [pc, #720]	@ (8004edc <HAL_RCC_GetSysClockFreq+0x354>)
 8004c0a:	685b      	ldr	r3, [r3, #4]
 8004c0c:	f003 033f 	and.w	r3, r3, #63	@ 0x3f
 8004c10:	f8c7 30ac 	str.w	r3, [r7, #172]	@ 0xac
      if (__HAL_RCC_GET_PLL_OSCSOURCE() != RCC_PLLSOURCE_HSI)
 8004c14:	4bb1      	ldr	r3, [pc, #708]	@ (8004edc <HAL_RCC_GetSysClockFreq+0x354>)
 8004c16:	685b      	ldr	r3, [r3, #4]
 8004c18:	f403 0380 	and.w	r3, r3, #4194304	@ 0x400000
 8004c1c:	2b00      	cmp	r3, #0
 8004c1e:	d071      	beq.n	8004d04 <HAL_RCC_GetSysClockFreq+0x17c>
      {
        /* HSE used as PLL clock source */
        pllvco = (uint32_t)((((uint64_t) HSE_VALUE * ((uint64_t)((RCC->PLLCFGR & RCC_PLLCFGR_PLLN) >> RCC_PLLCFGR_PLLN_Pos)))) / (uint64_t)pllm);
 8004c20:	4bae      	ldr	r3, [pc, #696]	@ (8004edc <HAL_RCC_GetSysClockFreq+0x354>)
 8004c22:	685b      	ldr	r3, [r3, #4]
 8004c24:	099b      	lsrs	r3, r3, #6
 8004c26:	2200      	movs	r2, #0
 8004c28:	f8c7 3098 	str.w	r3, [r7, #152]	@ 0x98
 8004c2c:	f8c7 209c 	str.w	r2, [r7, #156]	@ 0x9c
 8004c30:	f8d7 3098 	ldr.w	r3, [r7, #152]	@ 0x98
 8004c34:	f3c3 0308 	ubfx	r3, r3, #0, #9
 8004c38:	f8c7 3090 	str.w	r3, [r7, #144]	@ 0x90
 8004c3c:	2300      	movs	r3, #0
 8004c3e:	f8c7 3094 	str.w	r3, [r7, #148]	@ 0x94
 8004c42:	e9d7 4524 	ldrd	r4, r5, [r7, #144]	@ 0x90
 8004c46:	4622      	mov	r2, r4
 8004c48:	462b      	mov	r3, r5
 8004c4a:	f04f 0000 	mov.w	r0, #0
 8004c4e:	f04f 0100 	mov.w	r1, #0
 8004c52:	0159      	lsls	r1, r3, #5
 8004c54:	ea41 61d2 	orr.w	r1, r1, r2, lsr #27
 8004c58:	0150      	lsls	r0, r2, #5
 8004c5a:	4602      	mov	r2, r0
 8004c5c:	460b      	mov	r3, r1
 8004c5e:	4621      	mov	r1, r4
 8004c60:	1a51      	subs	r1, r2, r1
 8004c62:	6439      	str	r1, [r7, #64]	@ 0x40
 8004c64:	4629      	mov	r1, r5
 8004c66:	eb63 0301 	sbc.w	r3, r3, r1
 8004c6a:	647b      	str	r3, [r7, #68]	@ 0x44
 8004c6c:	f04f 0200 	mov.w	r2, #0
 8004c70:	f04f 0300 	mov.w	r3, #0
 8004c74:	e9d7 8910 	ldrd	r8, r9, [r7, #64]	@ 0x40
 8004c78:	4649      	mov	r1, r9
 8004c7a:	018b      	lsls	r3, r1, #6
 8004c7c:	4641      	mov	r1, r8
 8004c7e:	ea43 6391 	orr.w	r3, r3, r1, lsr #26
 8004c82:	4641      	mov	r1, r8
 8004c84:	018a      	lsls	r2, r1, #6
 8004c86:	4641      	mov	r1, r8
 8004c88:	1a51      	subs	r1, r2, r1
 8004c8a:	63b9      	str	r1, [r7, #56]	@ 0x38
 8004c8c:	4649      	mov	r1, r9
 8004c8e:	eb63 0301 	sbc.w	r3, r3, r1
 8004c92:	63fb      	str	r3, [r7, #60]	@ 0x3c
 8004c94:	f04f 0200 	mov.w	r2, #0
 8004c98:	f04f 0300 	mov.w	r3, #0
 8004c9c:	e9d7 890e 	ldrd	r8, r9, [r7, #56]	@ 0x38
 8004ca0:	4649      	mov	r1, r9
 8004ca2:	00cb      	lsls	r3, r1, #3
 8004ca4:	4641      	mov	r1, r8
 8004ca6:	ea43 7351 	orr.w	r3, r3, r1, lsr #29
 8004caa:	4641      	mov	r1, r8
 8004cac:	00ca      	lsls	r2, r1, #3
 8004cae:	4610      	mov	r0, r2
 8004cb0:	4619      	mov	r1, r3
 8004cb2:	4603      	mov	r3, r0
 8004cb4:	4622      	mov	r2, r4
 8004cb6:	189b      	adds	r3, r3, r2
 8004cb8:	633b      	str	r3, [r7, #48]	@ 0x30
 8004cba:	462b      	mov	r3, r5
 8004cbc:	460a      	mov	r2, r1
 8004cbe:	eb42 0303 	adc.w	r3, r2, r3
 8004cc2:	637b      	str	r3, [r7, #52]	@ 0x34
 8004cc4:	f04f 0200 	mov.w	r2, #0
 8004cc8:	f04f 0300 	mov.w	r3, #0
 8004ccc:	e9d7 450c 	ldrd	r4, r5, [r7, #48]	@ 0x30
 8004cd0:	4629      	mov	r1, r5
 8004cd2:	024b      	lsls	r3, r1, #9
 8004cd4:	4621      	mov	r1, r4
 8004cd6:	ea43 53d1 	orr.w	r3, r3, r1, lsr #23
 8004cda:	4621      	mov	r1, r4
 8004cdc:	024a      	lsls	r2, r1, #9
 8004cde:	4610      	mov	r0, r2
 8004ce0:	4619      	mov	r1, r3
 8004ce2:	f8d7 30ac 	ldr.w	r3, [r7, #172]	@ 0xac
 8004ce6:	2200      	movs	r2, #0
 8004ce8:	f8c7 3088 	str.w	r3, [r7, #136]	@ 0x88
 8004cec:	f8c7 208c 	str.w	r2, [r7, #140]	@ 0x8c
 8004cf0:	e9d7 2322 	ldrd	r2, r3, [r7, #136]	@ 0x88
 8004cf4:	f7fb ffc8 	bl	8000c88 <__aeabi_uldivmod>
 8004cf8:	4602      	mov	r2, r0
 8004cfa:	460b      	mov	r3, r1
 8004cfc:	4613      	mov	r3, r2
 8004cfe:	f8c7 30b4 	str.w	r3, [r7, #180]	@ 0xb4
 8004d02:	e067      	b.n	8004dd4 <HAL_RCC_GetSysClockFreq+0x24c>
      }
      else
      {
        /* HSI used as PLL clock source */
        pllvco = (uint32_t)((((uint64_t) HSI_VALUE * ((uint64_t)((RCC->PLLCFGR & RCC_PLLCFGR_PLLN) >> RCC_PLLCFGR_PLLN_Pos)))) / (uint64_t)pllm);
 8004d04:	4b75      	ldr	r3, [pc, #468]	@ (8004edc <HAL_RCC_GetSysClockFreq+0x354>)
 8004d06:	685b      	ldr	r3, [r3, #4]
 8004d08:	099b      	lsrs	r3, r3, #6
 8004d0a:	2200      	movs	r2, #0
 8004d0c:	f8c7 3080 	str.w	r3, [r7, #128]	@ 0x80
 8004d10:	f8c7 2084 	str.w	r2, [r7, #132]	@ 0x84
 8004d14:	f8d7 3080 	ldr.w	r3, [r7, #128]	@ 0x80
 8004d18:	f3c3 0308 	ubfx	r3, r3, #0, #9
 8004d1c:	67bb      	str	r3, [r7, #120]	@ 0x78
 8004d1e:	2300      	movs	r3, #0
 8004d20:	67fb      	str	r3, [r7, #124]	@ 0x7c
 8004d22:	e9d7 451e 	ldrd	r4, r5, [r7, #120]	@ 0x78
 8004d26:	4622      	mov	r2, r4
 8004d28:	462b      	mov	r3, r5
 8004d2a:	f04f 0000 	mov.w	r0, #0
 8004d2e:	f04f 0100 	mov.w	r1, #0
 8004d32:	0159      	lsls	r1, r3, #5
 8004d34:	ea41 61d2 	orr.w	r1, r1, r2, lsr #27
 8004d38:	0150      	lsls	r0, r2, #5
 8004d3a:	4602      	mov	r2, r0
 8004d3c:	460b      	mov	r3, r1
 8004d3e:	4621      	mov	r1, r4
 8004d40:	1a51      	subs	r1, r2, r1
 8004d42:	62b9      	str	r1, [r7, #40]	@ 0x28
 8004d44:	4629      	mov	r1, r5
 8004d46:	eb63 0301 	sbc.w	r3, r3, r1
 8004d4a:	62fb      	str	r3, [r7, #44]	@ 0x2c
 8004d4c:	f04f 0200 	mov.w	r2, #0
 8004d50:	f04f 0300 	mov.w	r3, #0
 8004d54:	e9d7 890a 	ldrd	r8, r9, [r7, #40]	@ 0x28
 8004d58:	4649      	mov	r1, r9
 8004d5a:	018b      	lsls	r3, r1, #6
 8004d5c:	4641      	mov	r1, r8
 8004d5e:	ea43 6391 	orr.w	r3, r3, r1, lsr #26
 8004d62:	4641      	mov	r1, r8
 8004d64:	018a      	lsls	r2, r1, #6
 8004d66:	4641      	mov	r1, r8
 8004d68:	ebb2 0a01 	subs.w	sl, r2, r1
 8004d6c:	4649      	mov	r1, r9
 8004d6e:	eb63 0b01 	sbc.w	fp, r3, r1
 8004d72:	f04f 0200 	mov.w	r2, #0
 8004d76:	f04f 0300 	mov.w	r3, #0
 8004d7a:	ea4f 03cb 	mov.w	r3, fp, lsl #3
 8004d7e:	ea43 735a 	orr.w	r3, r3, sl, lsr #29
 8004d82:	ea4f 02ca 	mov.w	r2, sl, lsl #3
 8004d86:	4692      	mov	sl, r2
 8004d88:	469b      	mov	fp, r3
 8004d8a:	4623      	mov	r3, r4
 8004d8c:	eb1a 0303 	adds.w	r3, sl, r3
 8004d90:	623b      	str	r3, [r7, #32]
 8004d92:	462b      	mov	r3, r5
 8004d94:	eb4b 0303 	adc.w	r3, fp, r3
 8004d98:	627b      	str	r3, [r7, #36]	@ 0x24
 8004d9a:	f04f 0200 	mov.w	r2, #0
 8004d9e:	f04f 0300 	mov.w	r3, #0
 8004da2:	e9d7 4508 	ldrd	r4, r5, [r7, #32]
 8004da6:	4629      	mov	r1, r5
 8004da8:	028b      	lsls	r3, r1, #10
 8004daa:	4621      	mov	r1, r4
 8004dac:	ea43 5391 	orr.w	r3, r3, r1, lsr #22
 8004db0:	4621      	mov	r1, r4
 8004db2:	028a      	lsls	r2, r1, #10
 8004db4:	4610      	mov	r0, r2
 8004db6:	4619      	mov	r1, r3
 8004db8:	f8d7 30ac 	ldr.w	r3, [r7, #172]	@ 0xac
 8004dbc:	2200      	movs	r2, #0
 8004dbe:	673b      	str	r3, [r7, #112]	@ 0x70
 8004dc0:	677a      	str	r2, [r7, #116]	@ 0x74
 8004dc2:	e9d7 231c 	ldrd	r2, r3, [r7, #112]	@ 0x70
 8004dc6:	f7fb ff5f 	bl	8000c88 <__aeabi_uldivmod>
 8004dca:	4602      	mov	r2, r0
 8004dcc:	460b      	mov	r3, r1
 8004dce:	4613      	mov	r3, r2
 8004dd0:	f8c7 30b4 	str.w	r3, [r7, #180]	@ 0xb4
      }
      pllp = ((((RCC->PLLCFGR & RCC_PLLCFGR_PLLP) >> RCC_PLLCFGR_PLLP_Pos) + 1U) * 2U);
 8004dd4:	4b41      	ldr	r3, [pc, #260]	@ (8004edc <HAL_RCC_GetSysClockFreq+0x354>)
 8004dd6:	685b      	ldr	r3, [r3, #4]
 8004dd8:	0c1b      	lsrs	r3, r3, #16
 8004dda:	f003 0303 	and.w	r3, r3, #3
 8004dde:	3301      	adds	r3, #1
 8004de0:	005b      	lsls	r3, r3, #1
 8004de2:	f8c7 30a8 	str.w	r3, [r7, #168]	@ 0xa8

      sysclockfreq = pllvco / pllp;
 8004de6:	f8d7 20b4 	ldr.w	r2, [r7, #180]	@ 0xb4
 8004dea:	f8d7 30a8 	ldr.w	r3, [r7, #168]	@ 0xa8
 8004dee:	fbb2 f3f3 	udiv	r3, r2, r3
 8004df2:	f8c7 30b0 	str.w	r3, [r7, #176]	@ 0xb0
      break;
 8004df6:	e0eb      	b.n	8004fd0 <HAL_RCC_GetSysClockFreq+0x448>
    }
    case RCC_CFGR_SWS_PLLR:  /* PLL/PLLR used as system clock  source */
    {
      /* PLL_VCO = (HSE_VALUE or HSI_VALUE / PLLM) * PLLN
      SYSCLK = PLL_VCO / PLLR */
      pllm = RCC->PLLCFGR & RCC_PLLCFGR_PLLM;
 8004df8:	4b38      	ldr	r3, [pc, #224]	@ (8004edc <HAL_RCC_GetSysClockFreq+0x354>)
 8004dfa:	685b      	ldr	r3, [r3, #4]
 8004dfc:	f003 033f 	and.w	r3, r3, #63	@ 0x3f
 8004e00:	f8c7 30ac 	str.w	r3, [r7, #172]	@ 0xac
      if (__HAL_RCC_GET_PLL_OSCSOURCE() != RCC_PLLSOURCE_HSI)
 8004e04:	4b35      	ldr	r3, [pc, #212]	@ (8004edc <HAL_RCC_GetSysClockFreq+0x354>)
 8004e06:	685b      	ldr	r3, [r3, #4]
 8004e08:	f403 0380 	and.w	r3, r3, #4194304	@ 0x400000
 8004e0c:	2b00      	cmp	r3, #0
 8004e0e:	d06b      	beq.n	8004ee8 <HAL_RCC_GetSysClockFreq+0x360>
      {
        /* HSE used as PLL clock source */
        pllvco = (uint32_t)((((uint64_t) HSE_VALUE * ((uint64_t)((RCC->PLLCFGR & RCC_PLLCFGR_PLLN) >> RCC_PLLCFGR_PLLN_Pos)))) / (uint64_t)pllm);
 8004e10:	4b32      	ldr	r3, [pc, #200]	@ (8004edc <HAL_RCC_GetSysClockFreq+0x354>)
 8004e12:	685b      	ldr	r3, [r3, #4]
 8004e14:	099b      	lsrs	r3, r3, #6
 8004e16:	2200      	movs	r2, #0
 8004e18:	66bb      	str	r3, [r7, #104]	@ 0x68
 8004e1a:	66fa      	str	r2, [r7, #108]	@ 0x6c
 8004e1c:	6ebb      	ldr	r3, [r7, #104]	@ 0x68
 8004e1e:	f3c3 0308 	ubfx	r3, r3, #0, #9
 8004e22:	663b      	str	r3, [r7, #96]	@ 0x60
 8004e24:	2300      	movs	r3, #0
 8004e26:	667b      	str	r3, [r7, #100]	@ 0x64
 8004e28:	e9d7 4518 	ldrd	r4, r5, [r7, #96]	@ 0x60
 8004e2c:	4622      	mov	r2, r4
 8004e2e:	462b      	mov	r3, r5
 8004e30:	f04f 0000 	mov.w	r0, #0
 8004e34:	f04f 0100 	mov.w	r1, #0
 8004e38:	0159      	lsls	r1, r3, #5
 8004e3a:	ea41 61d2 	orr.w	r1, r1, r2, lsr #27
 8004e3e:	0150      	lsls	r0, r2, #5
 8004e40:	4602      	mov	r2, r0
 8004e42:	460b      	mov	r3, r1
 8004e44:	4621      	mov	r1, r4
 8004e46:	1a51      	subs	r1, r2, r1
 8004e48:	61b9      	str	r1, [r7, #24]
 8004e4a:	4629      	mov	r1, r5
 8004e4c:	eb63 0301 	sbc.w	r3, r3, r1
 8004e50:	61fb      	str	r3, [r7, #28]
 8004e52:	f04f 0200 	mov.w	r2, #0
 8004e56:	f04f 0300 	mov.w	r3, #0
 8004e5a:	e9d7 ab06 	ldrd	sl, fp, [r7, #24]
 8004e5e:	4659      	mov	r1, fp
 8004e60:	018b      	lsls	r3, r1, #6
 8004e62:	4651      	mov	r1, sl
 8004e64:	ea43 6391 	orr.w	r3, r3, r1, lsr #26
 8004e68:	4651      	mov	r1, sl
 8004e6a:	018a      	lsls	r2, r1, #6
 8004e6c:	4651      	mov	r1, sl
 8004e6e:	ebb2 0801 	subs.w	r8, r2, r1
 8004e72:	4659      	mov	r1, fp
 8004e74:	eb63 0901 	sbc.w	r9, r3, r1
 8004e78:	f04f 0200 	mov.w	r2, #0
 8004e7c:	f04f 0300 	mov.w	r3, #0
 8004e80:	ea4f 03c9 	mov.w	r3, r9, lsl #3
 8004e84:	ea43 7358 	orr.w	r3, r3, r8, lsr #29
 8004e88:	ea4f 02c8 	mov.w	r2, r8, lsl #3
 8004e8c:	4690      	mov	r8, r2
 8004e8e:	4699      	mov	r9, r3
 8004e90:	4623      	mov	r3, r4
 8004e92:	eb18 0303 	adds.w	r3, r8, r3
 8004e96:	613b      	str	r3, [r7, #16]
 8004e98:	462b      	mov	r3, r5
 8004e9a:	eb49 0303 	adc.w	r3, r9, r3
 8004e9e:	617b      	str	r3, [r7, #20]
 8004ea0:	f04f 0200 	mov.w	r2, #0
 8004ea4:	f04f 0300 	mov.w	r3, #0
 8004ea8:	e9d7 4504 	ldrd	r4, r5, [r7, #16]
 8004eac:	4629      	mov	r1, r5
 8004eae:	024b      	lsls	r3, r1, #9
 8004eb0:	4621      	mov	r1, r4
 8004eb2:	ea43 53d1 	orr.w	r3, r3, r1, lsr #23
 8004eb6:	4621      	mov	r1, r4
 8004eb8:	024a      	lsls	r2, r1, #9
 8004eba:	4610      	mov	r0, r2
 8004ebc:	4619      	mov	r1, r3
 8004ebe:	f8d7 30ac 	ldr.w	r3, [r7, #172]	@ 0xac
 8004ec2:	2200      	movs	r2, #0
 8004ec4:	65bb      	str	r3, [r7, #88]	@ 0x58
 8004ec6:	65fa      	str	r2, [r7, #92]	@ 0x5c
 8004ec8:	e9d7 2316 	ldrd	r2, r3, [r7, #88]	@ 0x58
 8004ecc:	f7fb fedc 	bl	8000c88 <__aeabi_uldivmod>
 8004ed0:	4602      	mov	r2, r0
 8004ed2:	460b      	mov	r3, r1
 8004ed4:	4613      	mov	r3, r2
 8004ed6:	f8c7 30b4 	str.w	r3, [r7, #180]	@ 0xb4
 8004eda:	e065      	b.n	8004fa8 <HAL_RCC_GetSysClockFreq+0x420>
 8004edc:	40023800 	.word	0x40023800
 8004ee0:	00f42400 	.word	0x00f42400
 8004ee4:	007a1200 	.word	0x007a1200
      }
      else
      {
        /* HSI used as PLL clock source */
        pllvco = (uint32_t)((((uint64_t) HSI_VALUE * ((uint64_t)((RCC->PLLCFGR & RCC_PLLCFGR_PLLN) >> RCC_PLLCFGR_PLLN_Pos)))) / (uint64_t)pllm);
 8004ee8:	4b3d      	ldr	r3, [pc, #244]	@ (8004fe0 <HAL_RCC_GetSysClockFreq+0x458>)
 8004eea:	685b      	ldr	r3, [r3, #4]
 8004eec:	099b      	lsrs	r3, r3, #6
 8004eee:	2200      	movs	r2, #0
 8004ef0:	4618      	mov	r0, r3
 8004ef2:	4611      	mov	r1, r2
 8004ef4:	f3c0 0308 	ubfx	r3, r0, #0, #9
 8004ef8:	653b      	str	r3, [r7, #80]	@ 0x50
 8004efa:	2300      	movs	r3, #0
 8004efc:	657b      	str	r3, [r7, #84]	@ 0x54
 8004efe:	e9d7 8914 	ldrd	r8, r9, [r7, #80]	@ 0x50
 8004f02:	4642      	mov	r2, r8
 8004f04:	464b      	mov	r3, r9
 8004f06:	f04f 0000 	mov.w	r0, #0
 8004f0a:	f04f 0100 	mov.w	r1, #0
 8004f0e:	0159      	lsls	r1, r3, #5
 8004f10:	ea41 61d2 	orr.w	r1, r1, r2, lsr #27
 8004f14:	0150      	lsls	r0, r2, #5
 8004f16:	4602      	mov	r2, r0
 8004f18:	460b      	mov	r3, r1
 8004f1a:	4641      	mov	r1, r8
 8004f1c:	1a51      	subs	r1, r2, r1
 8004f1e:	60b9      	str	r1, [r7, #8]
 8004f20:	4649      	mov	r1, r9
 8004f22:	eb63 0301 	sbc.w	r3, r3, r1
 8004f26:	60fb      	str	r3, [r7, #12]
 8004f28:	f04f 0200 	mov.w	r2, #0
 8004f2c:	f04f 0300 	mov.w	r3, #0
 8004f30:	e9d7 ab02 	ldrd	sl, fp, [r7, #8]
 8004f34:	4659      	mov	r1, fp
 8004f36:	018b      	lsls	r3, r1, #6
 8004f38:	4651      	mov	r1, sl
 8004f3a:	ea43 6391 	orr.w	r3, r3, r1, lsr #26
 8004f3e:	4651      	mov	r1, sl
 8004f40:	018a      	lsls	r2, r1, #6
 8004f42:	4651      	mov	r1, sl
 8004f44:	1a54      	subs	r4, r2, r1
 8004f46:	4659      	mov	r1, fp
 8004f48:	eb63 0501 	sbc.w	r5, r3, r1
 8004f4c:	f04f 0200 	mov.w	r2, #0
 8004f50:	f04f 0300 	mov.w	r3, #0
 8004f54:	00eb      	lsls	r3, r5, #3
 8004f56:	ea43 7354 	orr.w	r3, r3, r4, lsr #29
 8004f5a:	00e2      	lsls	r2, r4, #3
 8004f5c:	4614      	mov	r4, r2
 8004f5e:	461d      	mov	r5, r3
 8004f60:	4643      	mov	r3, r8
 8004f62:	18e3      	adds	r3, r4, r3
 8004f64:	603b      	str	r3, [r7, #0]
 8004f66:	464b      	mov	r3, r9
 8004f68:	eb45 0303 	adc.w	r3, r5, r3
 8004f6c:	607b      	str	r3, [r7, #4]
 8004f6e:	f04f 0200 	mov.w	r2, #0
 8004f72:	f04f 0300 	mov.w	r3, #0
 8004f76:	e9d7 4500 	ldrd	r4, r5, [r7]
 8004f7a:	4629      	mov	r1, r5
 8004f7c:	028b      	lsls	r3, r1, #10
 8004f7e:	4621      	mov	r1, r4
 8004f80:	ea43 5391 	orr.w	r3, r3, r1, lsr #22
 8004f84:	4621      	mov	r1, r4
 8004f86:	028a      	lsls	r2, r1, #10
 8004f88:	4610      	mov	r0, r2
 8004f8a:	4619      	mov	r1, r3
 8004f8c:	f8d7 30ac 	ldr.w	r3, [r7, #172]	@ 0xac
 8004f90:	2200      	movs	r2, #0
 8004f92:	64bb      	str	r3, [r7, #72]	@ 0x48
 8004f94:	64fa      	str	r2, [r7, #76]	@ 0x4c
 8004f96:	e9d7 2312 	ldrd	r2, r3, [r7, #72]	@ 0x48
 8004f9a:	f7fb fe75 	bl	8000c88 <__aeabi_uldivmod>
 8004f9e:	4602      	mov	r2, r0
 8004fa0:	460b      	mov	r3, r1
 8004fa2:	4613      	mov	r3, r2
 8004fa4:	f8c7 30b4 	str.w	r3, [r7, #180]	@ 0xb4
      }
      pllr = ((RCC->PLLCFGR & RCC_PLLCFGR_PLLR) >> RCC_PLLCFGR_PLLR_Pos);
 8004fa8:	4b0d      	ldr	r3, [pc, #52]	@ (8004fe0 <HAL_RCC_GetSysClockFreq+0x458>)
 8004faa:	685b      	ldr	r3, [r3, #4]
 8004fac:	0f1b      	lsrs	r3, r3, #28
 8004fae:	f003 0307 	and.w	r3, r3, #7
 8004fb2:	f8c7 30a4 	str.w	r3, [r7, #164]	@ 0xa4

      sysclockfreq = pllvco / pllr;
 8004fb6:	f8d7 20b4 	ldr.w	r2, [r7, #180]	@ 0xb4
 8004fba:	f8d7 30a4 	ldr.w	r3, [r7, #164]	@ 0xa4
 8004fbe:	fbb2 f3f3 	udiv	r3, r2, r3
 8004fc2:	f8c7 30b0 	str.w	r3, [r7, #176]	@ 0xb0
      break;
 8004fc6:	e003      	b.n	8004fd0 <HAL_RCC_GetSysClockFreq+0x448>
    }
    default:
    {
      sysclockfreq = HSI_VALUE;
 8004fc8:	4b06      	ldr	r3, [pc, #24]	@ (8004fe4 <HAL_RCC_GetSysClockFreq+0x45c>)
 8004fca:	f8c7 30b0 	str.w	r3, [r7, #176]	@ 0xb0
      break;
 8004fce:	bf00      	nop
    }
  }
  return sysclockfreq;
 8004fd0:	f8d7 30b0 	ldr.w	r3, [r7, #176]	@ 0xb0
}
 8004fd4:	4618      	mov	r0, r3
 8004fd6:	37b8      	adds	r7, #184	@ 0xb8
 8004fd8:	46bd      	mov	sp, r7
 8004fda:	e8bd 8fb0 	ldmia.w	sp!, {r4, r5, r7, r8, r9, sl, fp, pc}
 8004fde:	bf00      	nop
 8004fe0:	40023800 	.word	0x40023800
 8004fe4:	00f42400 	.word	0x00f42400

08004fe8 <HAL_RCC_OscConfig>:
  * @note   This function add the PLL/PLLR factor management during PLL configuration this feature
  *         is only available in STM32F410xx/STM32F446xx/STM32F469xx/STM32F479xx/STM32F412Zx/STM32F412Vx/STM32F412Rx/STM32F412Cx devices
  * @retval HAL status
  */
HAL_StatusTypeDef HAL_RCC_OscConfig(RCC_OscInitTypeDef  *RCC_OscInitStruct)
{
 8004fe8:	b580      	push	{r7, lr}
 8004fea:	b086      	sub	sp, #24
 8004fec:	af00      	add	r7, sp, #0
 8004fee:	6078      	str	r0, [r7, #4]
  uint32_t tickstart;
  uint32_t pll_config;

  /* Check Null pointer */
  if (RCC_OscInitStruct == NULL)
 8004ff0:	687b      	ldr	r3, [r7, #4]
 8004ff2:	2b00      	cmp	r3, #0
 8004ff4:	d101      	bne.n	8004ffa <HAL_RCC_OscConfig+0x12>
  {
    return HAL_ERROR;
 8004ff6:	2301      	movs	r3, #1
 8004ff8:	e28d      	b.n	8005516 <HAL_RCC_OscConfig+0x52e>
  }

  /* Check the parameters */
  assert_param(IS_RCC_OSCILLATORTYPE(RCC_OscInitStruct->OscillatorType));
  /*------------------------------- HSE Configuration ------------------------*/
  if (((RCC_OscInitStruct->OscillatorType) & RCC_OSCILLATORTYPE_HSE) == RCC_OSCILLATORTYPE_HSE)
 8004ffa:	687b      	ldr	r3, [r7, #4]
 8004ffc:	681b      	ldr	r3, [r3, #0]
 8004ffe:	f003 0301 	and.w	r3, r3, #1
 8005002:	2b00      	cmp	r3, #0
 8005004:	f000 8083 	beq.w	800510e <HAL_RCC_OscConfig+0x126>
  {
    /* Check the parameters */
    assert_param(IS_RCC_HSE(RCC_OscInitStruct->HSEState));
    /* When the HSE is used as system clock or clock source for PLL in these cases HSE will not disabled */
#if defined(STM32F446xx)
    if ((__HAL_RCC_GET_SYSCLK_SOURCE() == RCC_CFGR_SWS_HSE)
 8005008:	4b94      	ldr	r3, [pc, #592]	@ (800525c <HAL_RCC_OscConfig+0x274>)
 800500a:	689b      	ldr	r3, [r3, #8]
 800500c:	f003 030c 	and.w	r3, r3, #12
 8005010:	2b04      	cmp	r3, #4
 8005012:	d019      	beq.n	8005048 <HAL_RCC_OscConfig+0x60>
        || \
        ((__HAL_RCC_GET_SYSCLK_SOURCE() == RCC_CFGR_SWS_PLL) && ((RCC->PLLCFGR & RCC_PLLCFGR_PLLSRC) == RCC_PLLCFGR_PLLSRC_HSE)) || \
 8005014:	4b91      	ldr	r3, [pc, #580]	@ (800525c <HAL_RCC_OscConfig+0x274>)
 8005016:	689b      	ldr	r3, [r3, #8]
 8005018:	f003 030c 	and.w	r3, r3, #12
        || \
 800501c:	2b08      	cmp	r3, #8
 800501e:	d106      	bne.n	800502e <HAL_RCC_OscConfig+0x46>
        ((__HAL_RCC_GET_SYSCLK_SOURCE() == RCC_CFGR_SWS_PLL) && ((RCC->PLLCFGR & RCC_PLLCFGR_PLLSRC) == RCC_PLLCFGR_PLLSRC_HSE)) || \
 8005020:	4b8e      	ldr	r3, [pc, #568]	@ (800525c <HAL_RCC_OscConfig+0x274>)
 8005022:	685b      	ldr	r3, [r3, #4]
 8005024:	f403 0380 	and.w	r3, r3, #4194304	@ 0x400000
 8005028:	f5b3 0f80 	cmp.w	r3, #4194304	@ 0x400000
 800502c:	d00c      	beq.n	8005048 <HAL_RCC_OscConfig+0x60>
        ((__HAL_RCC_GET_SYSCLK_SOURCE() == RCC_CFGR_SWS_PLLR) && ((RCC->PLLCFGR & RCC_PLLCFGR_PLLSRC) == RCC_PLLCFGR_PLLSRC_HSE)))
 800502e:	4b8b      	ldr	r3, [pc, #556]	@ (800525c <HAL_RCC_OscConfig+0x274>)
 8005030:	689b      	ldr	r3, [r3, #8]
 8005032:	f003 030c 	and.w	r3, r3, #12
        ((__HAL_RCC_GET_SYSCLK_SOURCE() == RCC_CFGR_SWS_PLL) && ((RCC->PLLCFGR & RCC_PLLCFGR_PLLSRC) == RCC_PLLCFGR_PLLSRC_HSE)) || \
 8005036:	2b0c      	cmp	r3, #12
 8005038:	d112      	bne.n	8005060 <HAL_RCC_OscConfig+0x78>
        ((__HAL_RCC_GET_SYSCLK_SOURCE() == RCC_CFGR_SWS_PLLR) && ((RCC->PLLCFGR & RCC_PLLCFGR_PLLSRC) == RCC_PLLCFGR_PLLSRC_HSE)))
 800503a:	4b88      	ldr	r3, [pc, #544]	@ (800525c <HAL_RCC_OscConfig+0x274>)
 800503c:	685b      	ldr	r3, [r3, #4]
 800503e:	f403 0380 	and.w	r3, r3, #4194304	@ 0x400000
 8005042:	f5b3 0f80 	cmp.w	r3, #4194304	@ 0x400000
 8005046:	d10b      	bne.n	8005060 <HAL_RCC_OscConfig+0x78>
    if ((__HAL_RCC_GET_SYSCLK_SOURCE() == RCC_CFGR_SWS_HSE)
        || \
        ((__HAL_RCC_GET_SYSCLK_SOURCE() == RCC_CFGR_SWS_PLL) && ((RCC->PLLCFGR & RCC_PLLCFGR_PLLSRC) == RCC_PLLCFGR_PLLSRC_HSE)))
#endif /* STM32F446xx */
    {
      if ((__HAL_RCC_GET_FLAG(RCC_FLAG_HSERDY) != RESET) && (RCC_OscInitStruct->HSEState == RCC_HSE_OFF))
 8005048:	4b84      	ldr	r3, [pc, #528]	@ (800525c <HAL_RCC_OscConfig+0x274>)
 800504a:	681b      	ldr	r3, [r3, #0]
 800504c:	f403 3300 	and.w	r3, r3, #131072	@ 0x20000
 8005050:	2b00      	cmp	r3, #0
 8005052:	d05b      	beq.n	800510c <HAL_RCC_OscConfig+0x124>
 8005054:	687b      	ldr	r3, [r7, #4]
 8005056:	685b      	ldr	r3, [r3, #4]
 8005058:	2b00      	cmp	r3, #0
 800505a:	d157      	bne.n	800510c <HAL_RCC_OscConfig+0x124>
      {
        return HAL_ERROR;
 800505c:	2301      	movs	r3, #1
 800505e:	e25a      	b.n	8005516 <HAL_RCC_OscConfig+0x52e>
      }
    }
    else
    {
      /* Set the new HSE configuration ---------------------------------------*/
      __HAL_RCC_HSE_CONFIG(RCC_OscInitStruct->HSEState);
 8005060:	687b      	ldr	r3, [r7, #4]
 8005062:	685b      	ldr	r3, [r3, #4]
 8005064:	f5b3 3f80 	cmp.w	r3, #65536	@ 0x10000
 8005068:	d106      	bne.n	8005078 <HAL_RCC_OscConfig+0x90>
 800506a:	4b7c      	ldr	r3, [pc, #496]	@ (800525c <HAL_RCC_OscConfig+0x274>)
 800506c:	681b      	ldr	r3, [r3, #0]
 800506e:	4a7b      	ldr	r2, [pc, #492]	@ (800525c <HAL_RCC_OscConfig+0x274>)
 8005070:	f443 3380 	orr.w	r3, r3, #65536	@ 0x10000
 8005074:	6013      	str	r3, [r2, #0]
 8005076:	e01d      	b.n	80050b4 <HAL_RCC_OscConfig+0xcc>
 8005078:	687b      	ldr	r3, [r7, #4]
 800507a:	685b      	ldr	r3, [r3, #4]
 800507c:	f5b3 2fa0 	cmp.w	r3, #327680	@ 0x50000
 8005080:	d10c      	bne.n	800509c <HAL_RCC_OscConfig+0xb4>
 8005082:	4b76      	ldr	r3, [pc, #472]	@ (800525c <HAL_RCC_OscConfig+0x274>)
 8005084:	681b      	ldr	r3, [r3, #0]
 8005086:	4a75      	ldr	r2, [pc, #468]	@ (800525c <HAL_RCC_OscConfig+0x274>)
 8005088:	f443 2380 	orr.w	r3, r3, #262144	@ 0x40000
 800508c:	6013      	str	r3, [r2, #0]
 800508e:	4b73      	ldr	r3, [pc, #460]	@ (800525c <HAL_RCC_OscConfig+0x274>)
 8005090:	681b      	ldr	r3, [r3, #0]
 8005092:	4a72      	ldr	r2, [pc, #456]	@ (800525c <HAL_RCC_OscConfig+0x274>)
 8005094:	f443 3380 	orr.w	r3, r3, #65536	@ 0x10000
 8005098:	6013      	str	r3, [r2, #0]
 800509a:	e00b      	b.n	80050b4 <HAL_RCC_OscConfig+0xcc>
 800509c:	4b6f      	ldr	r3, [pc, #444]	@ (800525c <HAL_RCC_OscConfig+0x274>)
 800509e:	681b      	ldr	r3, [r3, #0]
 80050a0:	4a6e      	ldr	r2, [pc, #440]	@ (800525c <HAL_RCC_OscConfig+0x274>)
 80050a2:	f423 3380 	bic.w	r3, r3, #65536	@ 0x10000
 80050a6:	6013      	str	r3, [r2, #0]
 80050a8:	4b6c      	ldr	r3, [pc, #432]	@ (800525c <HAL_RCC_OscConfig+0x274>)
 80050aa:	681b      	ldr	r3, [r3, #0]
 80050ac:	4a6b      	ldr	r2, [pc, #428]	@ (800525c <HAL_RCC_OscConfig+0x274>)
 80050ae:	f423 2380 	bic.w	r3, r3, #262144	@ 0x40000
 80050b2:	6013      	str	r3, [r2, #0]

      /* Check the HSE State */
      if ((RCC_OscInitStruct->HSEState) != RCC_HSE_OFF)
 80050b4:	687b      	ldr	r3, [r7, #4]
 80050b6:	685b      	ldr	r3, [r3, #4]
 80050b8:	2b00      	cmp	r3, #0
 80050ba:	d013      	beq.n	80050e4 <HAL_RCC_OscConfig+0xfc>
      {
        /* Get Start Tick*/
        tickstart = HAL_GetTick();
 80050bc:	f7fd fc84 	bl	80029c8 <HAL_GetTick>
 80050c0:	6138      	str	r0, [r7, #16]

        /* Wait till HSE is ready */
        while (__HAL_RCC_GET_FLAG(RCC_FLAG_HSERDY) == RESET)
 80050c2:	e008      	b.n	80050d6 <HAL_RCC_OscConfig+0xee>
        {
          if ((HAL_GetTick() - tickstart) > HSE_TIMEOUT_VALUE)
 80050c4:	f7fd fc80 	bl	80029c8 <HAL_GetTick>
 80050c8:	4602      	mov	r2, r0
 80050ca:	693b      	ldr	r3, [r7, #16]
 80050cc:	1ad3      	subs	r3, r2, r3
 80050ce:	2b64      	cmp	r3, #100	@ 0x64
 80050d0:	d901      	bls.n	80050d6 <HAL_RCC_OscConfig+0xee>
          {
            return HAL_TIMEOUT;
 80050d2:	2303      	movs	r3, #3
 80050d4:	e21f      	b.n	8005516 <HAL_RCC_OscConfig+0x52e>
        while (__HAL_RCC_GET_FLAG(RCC_FLAG_HSERDY) == RESET)
 80050d6:	4b61      	ldr	r3, [pc, #388]	@ (800525c <HAL_RCC_OscConfig+0x274>)
 80050d8:	681b      	ldr	r3, [r3, #0]
 80050da:	f403 3300 	and.w	r3, r3, #131072	@ 0x20000
 80050de:	2b00      	cmp	r3, #0
 80050e0:	d0f0      	beq.n	80050c4 <HAL_RCC_OscConfig+0xdc>
 80050e2:	e014      	b.n	800510e <HAL_RCC_OscConfig+0x126>
        }
      }
      else
      {
        /* Get Start Tick*/
        tickstart = HAL_GetTick();
 80050e4:	f7fd fc70 	bl	80029c8 <HAL_GetTick>
 80050e8:	6138      	str	r0, [r7, #16]

        /* Wait till HSE is bypassed or disabled */
        while (__HAL_RCC_GET_FLAG(RCC_FLAG_HSERDY) != RESET)
 80050ea:	e008      	b.n	80050fe <HAL_RCC_OscConfig+0x116>
        {
          if ((HAL_GetTick() - tickstart) > HSE_TIMEOUT_VALUE)
 80050ec:	f7fd fc6c 	bl	80029c8 <HAL_GetTick>
 80050f0:	4602      	mov	r2, r0
 80050f2:	693b      	ldr	r3, [r7, #16]
 80050f4:	1ad3      	subs	r3, r2, r3
 80050f6:	2b64      	cmp	r3, #100	@ 0x64
 80050f8:	d901      	bls.n	80050fe <HAL_RCC_OscConfig+0x116>
          {
            return HAL_TIMEOUT;
 80050fa:	2303      	movs	r3, #3
 80050fc:	e20b      	b.n	8005516 <HAL_RCC_OscConfig+0x52e>
        while (__HAL_RCC_GET_FLAG(RCC_FLAG_HSERDY) != RESET)
 80050fe:	4b57      	ldr	r3, [pc, #348]	@ (800525c <HAL_RCC_OscConfig+0x274>)
 8005100:	681b      	ldr	r3, [r3, #0]
 8005102:	f403 3300 	and.w	r3, r3, #131072	@ 0x20000
 8005106:	2b00      	cmp	r3, #0
 8005108:	d1f0      	bne.n	80050ec <HAL_RCC_OscConfig+0x104>
 800510a:	e000      	b.n	800510e <HAL_RCC_OscConfig+0x126>
      if ((__HAL_RCC_GET_FLAG(RCC_FLAG_HSERDY) != RESET) && (RCC_OscInitStruct->HSEState == RCC_HSE_OFF))
 800510c:	bf00      	nop
        }
      }
    }
  }
  /*----------------------------- HSI Configuration --------------------------*/
  if (((RCC_OscInitStruct->OscillatorType) & RCC_OSCILLATORTYPE_HSI) == RCC_OSCILLATORTYPE_HSI)
 800510e:	687b      	ldr	r3, [r7, #4]
 8005110:	681b      	ldr	r3, [r3, #0]
 8005112:	f003 0302 	and.w	r3, r3, #2
 8005116:	2b00      	cmp	r3, #0
 8005118:	d06f      	beq.n	80051fa <HAL_RCC_OscConfig+0x212>
    assert_param(IS_RCC_HSI(RCC_OscInitStruct->HSIState));
    assert_param(IS_RCC_CALIBRATION_VALUE(RCC_OscInitStruct->HSICalibrationValue));

    /* Check if HSI is used as system clock or as PLL source when PLL is selected as system clock */
#if defined(STM32F446xx)
    if ((__HAL_RCC_GET_SYSCLK_SOURCE() == RCC_CFGR_SWS_HSI)
 800511a:	4b50      	ldr	r3, [pc, #320]	@ (800525c <HAL_RCC_OscConfig+0x274>)
 800511c:	689b      	ldr	r3, [r3, #8]
 800511e:	f003 030c 	and.w	r3, r3, #12
 8005122:	2b00      	cmp	r3, #0
 8005124:	d017      	beq.n	8005156 <HAL_RCC_OscConfig+0x16e>
        || \
        ((__HAL_RCC_GET_SYSCLK_SOURCE() == RCC_CFGR_SWS_PLL) && ((RCC->PLLCFGR & RCC_PLLCFGR_PLLSRC) == RCC_PLLCFGR_PLLSRC_HSI)) || \
 8005126:	4b4d      	ldr	r3, [pc, #308]	@ (800525c <HAL_RCC_OscConfig+0x274>)
 8005128:	689b      	ldr	r3, [r3, #8]
 800512a:	f003 030c 	and.w	r3, r3, #12
        || \
 800512e:	2b08      	cmp	r3, #8
 8005130:	d105      	bne.n	800513e <HAL_RCC_OscConfig+0x156>
        ((__HAL_RCC_GET_SYSCLK_SOURCE() == RCC_CFGR_SWS_PLL) && ((RCC->PLLCFGR & RCC_PLLCFGR_PLLSRC) == RCC_PLLCFGR_PLLSRC_HSI)) || \
 8005132:	4b4a      	ldr	r3, [pc, #296]	@ (800525c <HAL_RCC_OscConfig+0x274>)
 8005134:	685b      	ldr	r3, [r3, #4]
 8005136:	f403 0380 	and.w	r3, r3, #4194304	@ 0x400000
 800513a:	2b00      	cmp	r3, #0
 800513c:	d00b      	beq.n	8005156 <HAL_RCC_OscConfig+0x16e>
        ((__HAL_RCC_GET_SYSCLK_SOURCE() == RCC_CFGR_SWS_PLLR) && ((RCC->PLLCFGR & RCC_PLLCFGR_PLLSRC) == RCC_PLLCFGR_PLLSRC_HSI)))
 800513e:	4b47      	ldr	r3, [pc, #284]	@ (800525c <HAL_RCC_OscConfig+0x274>)
 8005140:	689b      	ldr	r3, [r3, #8]
 8005142:	f003 030c 	and.w	r3, r3, #12
        ((__HAL_RCC_GET_SYSCLK_SOURCE() == RCC_CFGR_SWS_PLL) && ((RCC->PLLCFGR & RCC_PLLCFGR_PLLSRC) == RCC_PLLCFGR_PLLSRC_HSI)) || \
 8005146:	2b0c      	cmp	r3, #12
 8005148:	d11c      	bne.n	8005184 <HAL_RCC_OscConfig+0x19c>
        ((__HAL_RCC_GET_SYSCLK_SOURCE() == RCC_CFGR_SWS_PLLR) && ((RCC->PLLCFGR & RCC_PLLCFGR_PLLSRC) == RCC_PLLCFGR_PLLSRC_HSI)))
 800514a:	4b44      	ldr	r3, [pc, #272]	@ (800525c <HAL_RCC_OscConfig+0x274>)
 800514c:	685b      	ldr	r3, [r3, #4]
 800514e:	f403 0380 	and.w	r3, r3, #4194304	@ 0x400000
 8005152:	2b00      	cmp	r3, #0
 8005154:	d116      	bne.n	8005184 <HAL_RCC_OscConfig+0x19c>
        || \
        ((__HAL_RCC_GET_SYSCLK_SOURCE() == RCC_CFGR_SWS_PLL) && ((RCC->PLLCFGR & RCC_PLLCFGR_PLLSRC) == RCC_PLLCFGR_PLLSRC_HSI)))
#endif /* STM32F446xx */
    {
      /* When HSI is used as system clock it will not disabled */
      if ((__HAL_RCC_GET_FLAG(RCC_FLAG_HSIRDY) != RESET) && (RCC_OscInitStruct->HSIState != RCC_HSI_ON))
 8005156:	4b41      	ldr	r3, [pc, #260]	@ (800525c <HAL_RCC_OscConfig+0x274>)
 8005158:	681b      	ldr	r3, [r3, #0]
 800515a:	f003 0302 	and.w	r3, r3, #2
 800515e:	2b00      	cmp	r3, #0
 8005160:	d005      	beq.n	800516e <HAL_RCC_OscConfig+0x186>
 8005162:	687b      	ldr	r3, [r7, #4]
 8005164:	68db      	ldr	r3, [r3, #12]
 8005166:	2b01      	cmp	r3, #1
 8005168:	d001      	beq.n	800516e <HAL_RCC_OscConfig+0x186>
      {
        return HAL_ERROR;
 800516a:	2301      	movs	r3, #1
 800516c:	e1d3      	b.n	8005516 <HAL_RCC_OscConfig+0x52e>
      }
      /* Otherwise, just the calibration is allowed */
      else
      {
        /* Adjusts the Internal High Speed oscillator (HSI) calibration value.*/
        __HAL_RCC_HSI_CALIBRATIONVALUE_ADJUST(RCC_OscInitStruct->HSICalibrationValue);
 800516e:	4b3b      	ldr	r3, [pc, #236]	@ (800525c <HAL_RCC_OscConfig+0x274>)
 8005170:	681b      	ldr	r3, [r3, #0]
 8005172:	f023 02f8 	bic.w	r2, r3, #248	@ 0xf8
 8005176:	687b      	ldr	r3, [r7, #4]
 8005178:	691b      	ldr	r3, [r3, #16]
 800517a:	00db      	lsls	r3, r3, #3
 800517c:	4937      	ldr	r1, [pc, #220]	@ (800525c <HAL_RCC_OscConfig+0x274>)
 800517e:	4313      	orrs	r3, r2
 8005180:	600b      	str	r3, [r1, #0]
      if ((__HAL_RCC_GET_FLAG(RCC_FLAG_HSIRDY) != RESET) && (RCC_OscInitStruct->HSIState != RCC_HSI_ON))
 8005182:	e03a      	b.n	80051fa <HAL_RCC_OscConfig+0x212>
      }
    }
    else
    {
      /* Check the HSI State */
      if ((RCC_OscInitStruct->HSIState) != RCC_HSI_OFF)
 8005184:	687b      	ldr	r3, [r7, #4]
 8005186:	68db      	ldr	r3, [r3, #12]
 8005188:	2b00      	cmp	r3, #0
 800518a:	d020      	beq.n	80051ce <HAL_RCC_OscConfig+0x1e6>
      {
        /* Enable the Internal High Speed oscillator (HSI). */
        __HAL_RCC_HSI_ENABLE();
 800518c:	4b34      	ldr	r3, [pc, #208]	@ (8005260 <HAL_RCC_OscConfig+0x278>)
 800518e:	2201      	movs	r2, #1
 8005190:	601a      	str	r2, [r3, #0]

        /* Get Start Tick*/
        tickstart = HAL_GetTick();
 8005192:	f7fd fc19 	bl	80029c8 <HAL_GetTick>
 8005196:	6138      	str	r0, [r7, #16]

        /* Wait till HSI is ready */
        while (__HAL_RCC_GET_FLAG(RCC_FLAG_HSIRDY) == RESET)
 8005198:	e008      	b.n	80051ac <HAL_RCC_OscConfig+0x1c4>
        {
          if ((HAL_GetTick() - tickstart) > HSI_TIMEOUT_VALUE)
 800519a:	f7fd fc15 	bl	80029c8 <HAL_GetTick>
 800519e:	4602      	mov	r2, r0
 80051a0:	693b      	ldr	r3, [r7, #16]
 80051a2:	1ad3      	subs	r3, r2, r3
 80051a4:	2b02      	cmp	r3, #2
 80051a6:	d901      	bls.n	80051ac <HAL_RCC_OscConfig+0x1c4>
          {
            return HAL_TIMEOUT;
 80051a8:	2303      	movs	r3, #3
 80051aa:	e1b4      	b.n	8005516 <HAL_RCC_OscConfig+0x52e>
        while (__HAL_RCC_GET_FLAG(RCC_FLAG_HSIRDY) == RESET)
 80051ac:	4b2b      	ldr	r3, [pc, #172]	@ (800525c <HAL_RCC_OscConfig+0x274>)
 80051ae:	681b      	ldr	r3, [r3, #0]
 80051b0:	f003 0302 	and.w	r3, r3, #2
 80051b4:	2b00      	cmp	r3, #0
 80051b6:	d0f0      	beq.n	800519a <HAL_RCC_OscConfig+0x1b2>
          }
        }

        /* Adjusts the Internal High Speed oscillator (HSI) calibration value.*/
        __HAL_RCC_HSI_CALIBRATIONVALUE_ADJUST(RCC_OscInitStruct->HSICalibrationValue);
 80051b8:	4b28      	ldr	r3, [pc, #160]	@ (800525c <HAL_RCC_OscConfig+0x274>)
 80051ba:	681b      	ldr	r3, [r3, #0]
 80051bc:	f023 02f8 	bic.w	r2, r3, #248	@ 0xf8
 80051c0:	687b      	ldr	r3, [r7, #4]
 80051c2:	691b      	ldr	r3, [r3, #16]
 80051c4:	00db      	lsls	r3, r3, #3
 80051c6:	4925      	ldr	r1, [pc, #148]	@ (800525c <HAL_RCC_OscConfig+0x274>)
 80051c8:	4313      	orrs	r3, r2
 80051ca:	600b      	str	r3, [r1, #0]
 80051cc:	e015      	b.n	80051fa <HAL_RCC_OscConfig+0x212>
      }
      else
      {
        /* Disable the Internal High Speed oscillator (HSI). */
        __HAL_RCC_HSI_DISABLE();
 80051ce:	4b24      	ldr	r3, [pc, #144]	@ (8005260 <HAL_RCC_OscConfig+0x278>)
 80051d0:	2200      	movs	r2, #0
 80051d2:	601a      	str	r2, [r3, #0]

        /* Get Start Tick*/
        tickstart = HAL_GetTick();
 80051d4:	f7fd fbf8 	bl	80029c8 <HAL_GetTick>
 80051d8:	6138      	str	r0, [r7, #16]

        /* Wait till HSI is ready */
        while (__HAL_RCC_GET_FLAG(RCC_FLAG_HSIRDY) != RESET)
 80051da:	e008      	b.n	80051ee <HAL_RCC_OscConfig+0x206>
        {
          if ((HAL_GetTick() - tickstart) > HSI_TIMEOUT_VALUE)
 80051dc:	f7fd fbf4 	bl	80029c8 <HAL_GetTick>
 80051e0:	4602      	mov	r2, r0
 80051e2:	693b      	ldr	r3, [r7, #16]
 80051e4:	1ad3      	subs	r3, r2, r3
 80051e6:	2b02      	cmp	r3, #2
 80051e8:	d901      	bls.n	80051ee <HAL_RCC_OscConfig+0x206>
          {
            return HAL_TIMEOUT;
 80051ea:	2303      	movs	r3, #3
 80051ec:	e193      	b.n	8005516 <HAL_RCC_OscConfig+0x52e>
        while (__HAL_RCC_GET_FLAG(RCC_FLAG_HSIRDY) != RESET)
 80051ee:	4b1b      	ldr	r3, [pc, #108]	@ (800525c <HAL_RCC_OscConfig+0x274>)
 80051f0:	681b      	ldr	r3, [r3, #0]
 80051f2:	f003 0302 	and.w	r3, r3, #2
 80051f6:	2b00      	cmp	r3, #0
 80051f8:	d1f0      	bne.n	80051dc <HAL_RCC_OscConfig+0x1f4>
        }
      }
    }
  }
  /*------------------------------ LSI Configuration -------------------------*/
  if (((RCC_OscInitStruct->OscillatorType) & RCC_OSCILLATORTYPE_LSI) == RCC_OSCILLATORTYPE_LSI)
 80051fa:	687b      	ldr	r3, [r7, #4]
 80051fc:	681b      	ldr	r3, [r3, #0]
 80051fe:	f003 0308 	and.w	r3, r3, #8
 8005202:	2b00      	cmp	r3, #0
 8005204:	d036      	beq.n	8005274 <HAL_RCC_OscConfig+0x28c>
  {
    /* Check the parameters */
    assert_param(IS_RCC_LSI(RCC_OscInitStruct->LSIState));

    /* Check the LSI State */
    if ((RCC_OscInitStruct->LSIState) != RCC_LSI_OFF)
 8005206:	687b      	ldr	r3, [r7, #4]
 8005208:	695b      	ldr	r3, [r3, #20]
 800520a:	2b00      	cmp	r3, #0
 800520c:	d016      	beq.n	800523c <HAL_RCC_OscConfig+0x254>
    {
      /* Enable the Internal Low Speed oscillator (LSI). */
      __HAL_RCC_LSI_ENABLE();
 800520e:	4b15      	ldr	r3, [pc, #84]	@ (8005264 <HAL_RCC_OscConfig+0x27c>)
 8005210:	2201      	movs	r2, #1
 8005212:	601a      	str	r2, [r3, #0]

      /* Get Start Tick*/
      tickstart = HAL_GetTick();
 8005214:	f7fd fbd8 	bl	80029c8 <HAL_GetTick>
 8005218:	6138      	str	r0, [r7, #16]

      /* Wait till LSI is ready */
      while (__HAL_RCC_GET_FLAG(RCC_FLAG_LSIRDY) == RESET)
 800521a:	e008      	b.n	800522e <HAL_RCC_OscConfig+0x246>
      {
        if ((HAL_GetTick() - tickstart) > LSI_TIMEOUT_VALUE)
 800521c:	f7fd fbd4 	bl	80029c8 <HAL_GetTick>
 8005220:	4602      	mov	r2, r0
 8005222:	693b      	ldr	r3, [r7, #16]
 8005224:	1ad3      	subs	r3, r2, r3
 8005226:	2b02      	cmp	r3, #2
 8005228:	d901      	bls.n	800522e <HAL_RCC_OscConfig+0x246>
        {
          return HAL_TIMEOUT;
 800522a:	2303      	movs	r3, #3
 800522c:	e173      	b.n	8005516 <HAL_RCC_OscConfig+0x52e>
      while (__HAL_RCC_GET_FLAG(RCC_FLAG_LSIRDY) == RESET)
 800522e:	4b0b      	ldr	r3, [pc, #44]	@ (800525c <HAL_RCC_OscConfig+0x274>)
 8005230:	6f5b      	ldr	r3, [r3, #116]	@ 0x74
 8005232:	f003 0302 	and.w	r3, r3, #2
 8005236:	2b00      	cmp	r3, #0
 8005238:	d0f0      	beq.n	800521c <HAL_RCC_OscConfig+0x234>
 800523a:	e01b      	b.n	8005274 <HAL_RCC_OscConfig+0x28c>
      }
    }
    else
    {
      /* Disable the Internal Low Speed oscillator (LSI). */
      __HAL_RCC_LSI_DISABLE();
 800523c:	4b09      	ldr	r3, [pc, #36]	@ (8005264 <HAL_RCC_OscConfig+0x27c>)
 800523e:	2200      	movs	r2, #0
 8005240:	601a      	str	r2, [r3, #0]

      /* Get Start Tick*/
      tickstart = HAL_GetTick();
 8005242:	f7fd fbc1 	bl	80029c8 <HAL_GetTick>
 8005246:	6138      	str	r0, [r7, #16]

      /* Wait till LSI is ready */
      while (__HAL_RCC_GET_FLAG(RCC_FLAG_LSIRDY) != RESET)
 8005248:	e00e      	b.n	8005268 <HAL_RCC_OscConfig+0x280>
      {
        if ((HAL_GetTick() - tickstart) > LSI_TIMEOUT_VALUE)
 800524a:	f7fd fbbd 	bl	80029c8 <HAL_GetTick>
 800524e:	4602      	mov	r2, r0
 8005250:	693b      	ldr	r3, [r7, #16]
 8005252:	1ad3      	subs	r3, r2, r3
 8005254:	2b02      	cmp	r3, #2
 8005256:	d907      	bls.n	8005268 <HAL_RCC_OscConfig+0x280>
        {
          return HAL_TIMEOUT;
 8005258:	2303      	movs	r3, #3
 800525a:	e15c      	b.n	8005516 <HAL_RCC_OscConfig+0x52e>
 800525c:	40023800 	.word	0x40023800
 8005260:	42470000 	.word	0x42470000
 8005264:	42470e80 	.word	0x42470e80
      while (__HAL_RCC_GET_FLAG(RCC_FLAG_LSIRDY) != RESET)
 8005268:	4b8a      	ldr	r3, [pc, #552]	@ (8005494 <HAL_RCC_OscConfig+0x4ac>)
 800526a:	6f5b      	ldr	r3, [r3, #116]	@ 0x74
 800526c:	f003 0302 	and.w	r3, r3, #2
 8005270:	2b00      	cmp	r3, #0
 8005272:	d1ea      	bne.n	800524a <HAL_RCC_OscConfig+0x262>
        }
      }
    }
  }
  /*------------------------------ LSE Configuration -------------------------*/
  if (((RCC_OscInitStruct->OscillatorType) & RCC_OSCILLATORTYPE_LSE) == RCC_OSCILLATORTYPE_LSE)
 8005274:	687b      	ldr	r3, [r7, #4]
 8005276:	681b      	ldr	r3, [r3, #0]
 8005278:	f003 0304 	and.w	r3, r3, #4
 800527c:	2b00      	cmp	r3, #0
 800527e:	f000 8097 	beq.w	80053b0 <HAL_RCC_OscConfig+0x3c8>
  {
    FlagStatus       pwrclkchanged = RESET;
 8005282:	2300      	movs	r3, #0
 8005284:	75fb      	strb	r3, [r7, #23]
    /* Check the parameters */
    assert_param(IS_RCC_LSE(RCC_OscInitStruct->LSEState));

    /* Update LSE configuration in Backup Domain control register    */
    /* Requires to enable write access to Backup Domain of necessary */
    if (__HAL_RCC_PWR_IS_CLK_DISABLED())
 8005286:	4b83      	ldr	r3, [pc, #524]	@ (8005494 <HAL_RCC_OscConfig+0x4ac>)
 8005288:	6c1b      	ldr	r3, [r3, #64]	@ 0x40
 800528a:	f003 5380 	and.w	r3, r3, #268435456	@ 0x10000000
 800528e:	2b00      	cmp	r3, #0
 8005290:	d10f      	bne.n	80052b2 <HAL_RCC_OscConfig+0x2ca>
    {
      __HAL_RCC_PWR_CLK_ENABLE();
 8005292:	2300      	movs	r3, #0
 8005294:	60bb      	str	r3, [r7, #8]
 8005296:	4b7f      	ldr	r3, [pc, #508]	@ (8005494 <HAL_RCC_OscConfig+0x4ac>)
 8005298:	6c1b      	ldr	r3, [r3, #64]	@ 0x40
 800529a:	4a7e      	ldr	r2, [pc, #504]	@ (8005494 <HAL_RCC_OscConfig+0x4ac>)
 800529c:	f043 5380 	orr.w	r3, r3, #268435456	@ 0x10000000
 80052a0:	6413      	str	r3, [r2, #64]	@ 0x40
 80052a2:	4b7c      	ldr	r3, [pc, #496]	@ (8005494 <HAL_RCC_OscConfig+0x4ac>)
 80052a4:	6c1b      	ldr	r3, [r3, #64]	@ 0x40
 80052a6:	f003 5380 	and.w	r3, r3, #268435456	@ 0x10000000
 80052aa:	60bb      	str	r3, [r7, #8]
 80052ac:	68bb      	ldr	r3, [r7, #8]
      pwrclkchanged = SET;
 80052ae:	2301      	movs	r3, #1
 80052b0:	75fb      	strb	r3, [r7, #23]
    }

    if (HAL_IS_BIT_CLR(PWR->CR, PWR_CR_DBP))
 80052b2:	4b79      	ldr	r3, [pc, #484]	@ (8005498 <HAL_RCC_OscConfig+0x4b0>)
 80052b4:	681b      	ldr	r3, [r3, #0]
 80052b6:	f403 7380 	and.w	r3, r3, #256	@ 0x100
 80052ba:	2b00      	cmp	r3, #0
 80052bc:	d118      	bne.n	80052f0 <HAL_RCC_OscConfig+0x308>
    {
      /* Enable write access to Backup domain */
      SET_BIT(PWR->CR, PWR_CR_DBP);
 80052be:	4b76      	ldr	r3, [pc, #472]	@ (8005498 <HAL_RCC_OscConfig+0x4b0>)
 80052c0:	681b      	ldr	r3, [r3, #0]
 80052c2:	4a75      	ldr	r2, [pc, #468]	@ (8005498 <HAL_RCC_OscConfig+0x4b0>)
 80052c4:	f443 7380 	orr.w	r3, r3, #256	@ 0x100
 80052c8:	6013      	str	r3, [r2, #0]

      /* Wait for Backup domain Write protection disable */
      tickstart = HAL_GetTick();
 80052ca:	f7fd fb7d 	bl	80029c8 <HAL_GetTick>
 80052ce:	6138      	str	r0, [r7, #16]

      while (HAL_IS_BIT_CLR(PWR->CR, PWR_CR_DBP))
 80052d0:	e008      	b.n	80052e4 <HAL_RCC_OscConfig+0x2fc>
      {
        if ((HAL_GetTick() - tickstart) > RCC_DBP_TIMEOUT_VALUE)
 80052d2:	f7fd fb79 	bl	80029c8 <HAL_GetTick>
 80052d6:	4602      	mov	r2, r0
 80052d8:	693b      	ldr	r3, [r7, #16]
 80052da:	1ad3      	subs	r3, r2, r3
 80052dc:	2b02      	cmp	r3, #2
 80052de:	d901      	bls.n	80052e4 <HAL_RCC_OscConfig+0x2fc>
        {
          return HAL_TIMEOUT;
 80052e0:	2303      	movs	r3, #3
 80052e2:	e118      	b.n	8005516 <HAL_RCC_OscConfig+0x52e>
      while (HAL_IS_BIT_CLR(PWR->CR, PWR_CR_DBP))
 80052e4:	4b6c      	ldr	r3, [pc, #432]	@ (8005498 <HAL_RCC_OscConfig+0x4b0>)
 80052e6:	681b      	ldr	r3, [r3, #0]
 80052e8:	f403 7380 	and.w	r3, r3, #256	@ 0x100
 80052ec:	2b00      	cmp	r3, #0
 80052ee:	d0f0      	beq.n	80052d2 <HAL_RCC_OscConfig+0x2ea>
        }
      }
    }

    /* Set the new LSE configuration -----------------------------------------*/
    __HAL_RCC_LSE_CONFIG(RCC_OscInitStruct->LSEState);
 80052f0:	687b      	ldr	r3, [r7, #4]
 80052f2:	689b      	ldr	r3, [r3, #8]
 80052f4:	2b01      	cmp	r3, #1
 80052f6:	d106      	bne.n	8005306 <HAL_RCC_OscConfig+0x31e>
 80052f8:	4b66      	ldr	r3, [pc, #408]	@ (8005494 <HAL_RCC_OscConfig+0x4ac>)
 80052fa:	6f1b      	ldr	r3, [r3, #112]	@ 0x70
 80052fc:	4a65      	ldr	r2, [pc, #404]	@ (8005494 <HAL_RCC_OscConfig+0x4ac>)
 80052fe:	f043 0301 	orr.w	r3, r3, #1
 8005302:	6713      	str	r3, [r2, #112]	@ 0x70
 8005304:	e01c      	b.n	8005340 <HAL_RCC_OscConfig+0x358>
 8005306:	687b      	ldr	r3, [r7, #4]
 8005308:	689b      	ldr	r3, [r3, #8]
 800530a:	2b05      	cmp	r3, #5
 800530c:	d10c      	bne.n	8005328 <HAL_RCC_OscConfig+0x340>
 800530e:	4b61      	ldr	r3, [pc, #388]	@ (8005494 <HAL_RCC_OscConfig+0x4ac>)
 8005310:	6f1b      	ldr	r3, [r3, #112]	@ 0x70
 8005312:	4a60      	ldr	r2, [pc, #384]	@ (8005494 <HAL_RCC_OscConfig+0x4ac>)
 8005314:	f043 0304 	orr.w	r3, r3, #4
 8005318:	6713      	str	r3, [r2, #112]	@ 0x70
 800531a:	4b5e      	ldr	r3, [pc, #376]	@ (8005494 <HAL_RCC_OscConfig+0x4ac>)
 800531c:	6f1b      	ldr	r3, [r3, #112]	@ 0x70
 800531e:	4a5d      	ldr	r2, [pc, #372]	@ (8005494 <HAL_RCC_OscConfig+0x4ac>)
 8005320:	f043 0301 	orr.w	r3, r3, #1
 8005324:	6713      	str	r3, [r2, #112]	@ 0x70
 8005326:	e00b      	b.n	8005340 <HAL_RCC_OscConfig+0x358>
 8005328:	4b5a      	ldr	r3, [pc, #360]	@ (8005494 <HAL_RCC_OscConfig+0x4ac>)
 800532a:	6f1b      	ldr	r3, [r3, #112]	@ 0x70
 800532c:	4a59      	ldr	r2, [pc, #356]	@ (8005494 <HAL_RCC_OscConfig+0x4ac>)
 800532e:	f023 0301 	bic.w	r3, r3, #1
 8005332:	6713      	str	r3, [r2, #112]	@ 0x70
 8005334:	4b57      	ldr	r3, [pc, #348]	@ (8005494 <HAL_RCC_OscConfig+0x4ac>)
 8005336:	6f1b      	ldr	r3, [r3, #112]	@ 0x70
 8005338:	4a56      	ldr	r2, [pc, #344]	@ (8005494 <HAL_RCC_OscConfig+0x4ac>)
 800533a:	f023 0304 	bic.w	r3, r3, #4
 800533e:	6713      	str	r3, [r2, #112]	@ 0x70
    /* Check the LSE State */
    if ((RCC_OscInitStruct->LSEState) != RCC_LSE_OFF)
 8005340:	687b      	ldr	r3, [r7, #4]
 8005342:	689b      	ldr	r3, [r3, #8]
 8005344:	2b00      	cmp	r3, #0
 8005346:	d015      	beq.n	8005374 <HAL_RCC_OscConfig+0x38c>
    {
      /* Get Start Tick*/
      tickstart = HAL_GetTick();
 8005348:	f7fd fb3e 	bl	80029c8 <HAL_GetTick>
 800534c:	6138      	str	r0, [r7, #16]

      /* Wait till LSE is ready */
      while (__HAL_RCC_GET_FLAG(RCC_FLAG_LSERDY) == RESET)
 800534e:	e00a      	b.n	8005366 <HAL_RCC_OscConfig+0x37e>
      {
        if ((HAL_GetTick() - tickstart) > RCC_LSE_TIMEOUT_VALUE)
 8005350:	f7fd fb3a 	bl	80029c8 <HAL_GetTick>
 8005354:	4602      	mov	r2, r0
 8005356:	693b      	ldr	r3, [r7, #16]
 8005358:	1ad3      	subs	r3, r2, r3
 800535a:	f241 3288 	movw	r2, #5000	@ 0x1388
 800535e:	4293      	cmp	r3, r2
 8005360:	d901      	bls.n	8005366 <HAL_RCC_OscConfig+0x37e>
        {
          return HAL_TIMEOUT;
 8005362:	2303      	movs	r3, #3
 8005364:	e0d7      	b.n	8005516 <HAL_RCC_OscConfig+0x52e>
      while (__HAL_RCC_GET_FLAG(RCC_FLAG_LSERDY) == RESET)
 8005366:	4b4b      	ldr	r3, [pc, #300]	@ (8005494 <HAL_RCC_OscConfig+0x4ac>)
 8005368:	6f1b      	ldr	r3, [r3, #112]	@ 0x70
 800536a:	f003 0302 	and.w	r3, r3, #2
 800536e:	2b00      	cmp	r3, #0
 8005370:	d0ee      	beq.n	8005350 <HAL_RCC_OscConfig+0x368>
 8005372:	e014      	b.n	800539e <HAL_RCC_OscConfig+0x3b6>
      }
    }
    else
    {
      /* Get Start Tick*/
      tickstart = HAL_GetTick();
 8005374:	f7fd fb28 	bl	80029c8 <HAL_GetTick>
 8005378:	6138      	str	r0, [r7, #16]

      /* Wait till LSE is ready */
      while (__HAL_RCC_GET_FLAG(RCC_FLAG_LSERDY) != RESET)
 800537a:	e00a      	b.n	8005392 <HAL_RCC_OscConfig+0x3aa>
      {
        if ((HAL_GetTick() - tickstart) > RCC_LSE_TIMEOUT_VALUE)
 800537c:	f7fd fb24 	bl	80029c8 <HAL_GetTick>
 8005380:	4602      	mov	r2, r0
 8005382:	693b      	ldr	r3, [r7, #16]
 8005384:	1ad3      	subs	r3, r2, r3
 8005386:	f241 3288 	movw	r2, #5000	@ 0x1388
 800538a:	4293      	cmp	r3, r2
 800538c:	d901      	bls.n	8005392 <HAL_RCC_OscConfig+0x3aa>
        {
          return HAL_TIMEOUT;
 800538e:	2303      	movs	r3, #3
 8005390:	e0c1      	b.n	8005516 <HAL_RCC_OscConfig+0x52e>
      while (__HAL_RCC_GET_FLAG(RCC_FLAG_LSERDY) != RESET)
 8005392:	4b40      	ldr	r3, [pc, #256]	@ (8005494 <HAL_RCC_OscConfig+0x4ac>)
 8005394:	6f1b      	ldr	r3, [r3, #112]	@ 0x70
 8005396:	f003 0302 	and.w	r3, r3, #2
 800539a:	2b00      	cmp	r3, #0
 800539c:	d1ee      	bne.n	800537c <HAL_RCC_OscConfig+0x394>
        }
      }
    }

    /* Restore clock configuration if changed */
    if (pwrclkchanged == SET)
 800539e:	7dfb      	ldrb	r3, [r7, #23]
 80053a0:	2b01      	cmp	r3, #1
 80053a2:	d105      	bne.n	80053b0 <HAL_RCC_OscConfig+0x3c8>
    {
      __HAL_RCC_PWR_CLK_DISABLE();
 80053a4:	4b3b      	ldr	r3, [pc, #236]	@ (8005494 <HAL_RCC_OscConfig+0x4ac>)
 80053a6:	6c1b      	ldr	r3, [r3, #64]	@ 0x40
 80053a8:	4a3a      	ldr	r2, [pc, #232]	@ (8005494 <HAL_RCC_OscConfig+0x4ac>)
 80053aa:	f023 5380 	bic.w	r3, r3, #268435456	@ 0x10000000
 80053ae:	6413      	str	r3, [r2, #64]	@ 0x40
    }
  }
  /*-------------------------------- PLL Configuration -----------------------*/
  /* Check the parameters */
  assert_param(IS_RCC_PLL(RCC_OscInitStruct->PLL.PLLState));
  if ((RCC_OscInitStruct->PLL.PLLState) != RCC_PLL_NONE)
 80053b0:	687b      	ldr	r3, [r7, #4]
 80053b2:	699b      	ldr	r3, [r3, #24]
 80053b4:	2b00      	cmp	r3, #0
 80053b6:	f000 80ad 	beq.w	8005514 <HAL_RCC_OscConfig+0x52c>
  {
    /* Check if the PLL is used as system clock or not */
    if (__HAL_RCC_GET_SYSCLK_SOURCE() != RCC_CFGR_SWS_PLL)
 80053ba:	4b36      	ldr	r3, [pc, #216]	@ (8005494 <HAL_RCC_OscConfig+0x4ac>)
 80053bc:	689b      	ldr	r3, [r3, #8]
 80053be:	f003 030c 	and.w	r3, r3, #12
 80053c2:	2b08      	cmp	r3, #8
 80053c4:	d060      	beq.n	8005488 <HAL_RCC_OscConfig+0x4a0>
    {
      if ((RCC_OscInitStruct->PLL.PLLState) == RCC_PLL_ON)
 80053c6:	687b      	ldr	r3, [r7, #4]
 80053c8:	699b      	ldr	r3, [r3, #24]
 80053ca:	2b02      	cmp	r3, #2
 80053cc:	d145      	bne.n	800545a <HAL_RCC_OscConfig+0x472>
        assert_param(IS_RCC_PLLP_VALUE(RCC_OscInitStruct->PLL.PLLP));
        assert_param(IS_RCC_PLLQ_VALUE(RCC_OscInitStruct->PLL.PLLQ));
        assert_param(IS_RCC_PLLR_VALUE(RCC_OscInitStruct->PLL.PLLR));

        /* Disable the main PLL. */
        __HAL_RCC_PLL_DISABLE();
 80053ce:	4b33      	ldr	r3, [pc, #204]	@ (800549c <HAL_RCC_OscConfig+0x4b4>)
 80053d0:	2200      	movs	r2, #0
 80053d2:	601a      	str	r2, [r3, #0]

        /* Get Start Tick*/
        tickstart = HAL_GetTick();
 80053d4:	f7fd faf8 	bl	80029c8 <HAL_GetTick>
 80053d8:	6138      	str	r0, [r7, #16]

        /* Wait till PLL is ready */
        while (__HAL_RCC_GET_FLAG(RCC_FLAG_PLLRDY) != RESET)
 80053da:	e008      	b.n	80053ee <HAL_RCC_OscConfig+0x406>
        {
          if ((HAL_GetTick() - tickstart) > PLL_TIMEOUT_VALUE)
 80053dc:	f7fd faf4 	bl	80029c8 <HAL_GetTick>
 80053e0:	4602      	mov	r2, r0
 80053e2:	693b      	ldr	r3, [r7, #16]
 80053e4:	1ad3      	subs	r3, r2, r3
 80053e6:	2b02      	cmp	r3, #2
 80053e8:	d901      	bls.n	80053ee <HAL_RCC_OscConfig+0x406>
          {
            return HAL_TIMEOUT;
 80053ea:	2303      	movs	r3, #3
 80053ec:	e093      	b.n	8005516 <HAL_RCC_OscConfig+0x52e>
        while (__HAL_RCC_GET_FLAG(RCC_FLAG_PLLRDY) != RESET)
 80053ee:	4b29      	ldr	r3, [pc, #164]	@ (8005494 <HAL_RCC_OscConfig+0x4ac>)
 80053f0:	681b      	ldr	r3, [r3, #0]
 80053f2:	f003 7300 	and.w	r3, r3, #33554432	@ 0x2000000
 80053f6:	2b00      	cmp	r3, #0
 80053f8:	d1f0      	bne.n	80053dc <HAL_RCC_OscConfig+0x3f4>
          }
        }

        /* Configure the main PLL clock source, multiplication and division factors. */
        WRITE_REG(RCC->PLLCFGR, (RCC_OscInitStruct->PLL.PLLSource                                            | \
 80053fa:	687b      	ldr	r3, [r7, #4]
 80053fc:	69da      	ldr	r2, [r3, #28]
 80053fe:	687b      	ldr	r3, [r7, #4]
 8005400:	6a1b      	ldr	r3, [r3, #32]
 8005402:	431a      	orrs	r2, r3
 8005404:	687b      	ldr	r3, [r7, #4]
 8005406:	6a5b      	ldr	r3, [r3, #36]	@ 0x24
 8005408:	019b      	lsls	r3, r3, #6
 800540a:	431a      	orrs	r2, r3
 800540c:	687b      	ldr	r3, [r7, #4]
 800540e:	6a9b      	ldr	r3, [r3, #40]	@ 0x28
 8005410:	085b      	lsrs	r3, r3, #1
 8005412:	3b01      	subs	r3, #1
 8005414:	041b      	lsls	r3, r3, #16
 8005416:	431a      	orrs	r2, r3
 8005418:	687b      	ldr	r3, [r7, #4]
 800541a:	6adb      	ldr	r3, [r3, #44]	@ 0x2c
 800541c:	061b      	lsls	r3, r3, #24
 800541e:	431a      	orrs	r2, r3
 8005420:	687b      	ldr	r3, [r7, #4]
 8005422:	6b1b      	ldr	r3, [r3, #48]	@ 0x30
 8005424:	071b      	lsls	r3, r3, #28
 8005426:	491b      	ldr	r1, [pc, #108]	@ (8005494 <HAL_RCC_OscConfig+0x4ac>)
 8005428:	4313      	orrs	r3, r2
 800542a:	604b      	str	r3, [r1, #4]
                                 (RCC_OscInitStruct->PLL.PLLN << RCC_PLLCFGR_PLLN_Pos)                       | \
                                 (((RCC_OscInitStruct->PLL.PLLP >> 1U) - 1U) << RCC_PLLCFGR_PLLP_Pos)        | \
                                 (RCC_OscInitStruct->PLL.PLLQ << RCC_PLLCFGR_PLLQ_Pos)                       | \
                                 (RCC_OscInitStruct->PLL.PLLR << RCC_PLLCFGR_PLLR_Pos)));
        /* Enable the main PLL. */
        __HAL_RCC_PLL_ENABLE();
 800542c:	4b1b      	ldr	r3, [pc, #108]	@ (800549c <HAL_RCC_OscConfig+0x4b4>)
 800542e:	2201      	movs	r2, #1
 8005430:	601a      	str	r2, [r3, #0]

        /* Get Start Tick*/
        tickstart = HAL_GetTick();
 8005432:	f7fd fac9 	bl	80029c8 <HAL_GetTick>
 8005436:	6138      	str	r0, [r7, #16]

        /* Wait till PLL is ready */
        while (__HAL_RCC_GET_FLAG(RCC_FLAG_PLLRDY) == RESET)
 8005438:	e008      	b.n	800544c <HAL_RCC_OscConfig+0x464>
        {
          if ((HAL_GetTick() - tickstart) > PLL_TIMEOUT_VALUE)
 800543a:	f7fd fac5 	bl	80029c8 <HAL_GetTick>
 800543e:	4602      	mov	r2, r0
 8005440:	693b      	ldr	r3, [r7, #16]
 8005442:	1ad3      	subs	r3, r2, r3
 8005444:	2b02      	cmp	r3, #2
 8005446:	d901      	bls.n	800544c <HAL_RCC_OscConfig+0x464>
          {
            return HAL_TIMEOUT;
 8005448:	2303      	movs	r3, #3
 800544a:	e064      	b.n	8005516 <HAL_RCC_OscConfig+0x52e>
        while (__HAL_RCC_GET_FLAG(RCC_FLAG_PLLRDY) == RESET)
 800544c:	4b11      	ldr	r3, [pc, #68]	@ (8005494 <HAL_RCC_OscConfig+0x4ac>)
 800544e:	681b      	ldr	r3, [r3, #0]
 8005450:	f003 7300 	and.w	r3, r3, #33554432	@ 0x2000000
 8005454:	2b00      	cmp	r3, #0
 8005456:	d0f0      	beq.n	800543a <HAL_RCC_OscConfig+0x452>
 8005458:	e05c      	b.n	8005514 <HAL_RCC_OscConfig+0x52c>
        }
      }
      else
      {
        /* Disable the main PLL. */
        __HAL_RCC_PLL_DISABLE();
 800545a:	4b10      	ldr	r3, [pc, #64]	@ (800549c <HAL_RCC_OscConfig+0x4b4>)
 800545c:	2200      	movs	r2, #0
 800545e:	601a      	str	r2, [r3, #0]

        /* Get Start Tick*/
        tickstart = HAL_GetTick();
 8005460:	f7fd fab2 	bl	80029c8 <HAL_GetTick>
 8005464:	6138      	str	r0, [r7, #16]

        /* Wait till PLL is ready */
        while (__HAL_RCC_GET_FLAG(RCC_FLAG_PLLRDY) != RESET)
 8005466:	e008      	b.n	800547a <HAL_RCC_OscConfig+0x492>
        {
          if ((HAL_GetTick() - tickstart) > PLL_TIMEOUT_VALUE)
 8005468:	f7fd faae 	bl	80029c8 <HAL_GetTick>
 800546c:	4602      	mov	r2, r0
 800546e:	693b      	ldr	r3, [r7, #16]
 8005470:	1ad3      	subs	r3, r2, r3
 8005472:	2b02      	cmp	r3, #2
 8005474:	d901      	bls.n	800547a <HAL_RCC_OscConfig+0x492>
          {
            return HAL_TIMEOUT;
 8005476:	2303      	movs	r3, #3
 8005478:	e04d      	b.n	8005516 <HAL_RCC_OscConfig+0x52e>
        while (__HAL_RCC_GET_FLAG(RCC_FLAG_PLLRDY) != RESET)
 800547a:	4b06      	ldr	r3, [pc, #24]	@ (8005494 <HAL_RCC_OscConfig+0x4ac>)
 800547c:	681b      	ldr	r3, [r3, #0]
 800547e:	f003 7300 	and.w	r3, r3, #33554432	@ 0x2000000
 8005482:	2b00      	cmp	r3, #0
 8005484:	d1f0      	bne.n	8005468 <HAL_RCC_OscConfig+0x480>
 8005486:	e045      	b.n	8005514 <HAL_RCC_OscConfig+0x52c>
      }
    }
    else
    {
      /* Check if there is a request to disable the PLL used as System clock source */
      if ((RCC_OscInitStruct->PLL.PLLState) == RCC_PLL_OFF)
 8005488:	687b      	ldr	r3, [r7, #4]
 800548a:	699b      	ldr	r3, [r3, #24]
 800548c:	2b01      	cmp	r3, #1
 800548e:	d107      	bne.n	80054a0 <HAL_RCC_OscConfig+0x4b8>
      {
        return HAL_ERROR;
 8005490:	2301      	movs	r3, #1
 8005492:	e040      	b.n	8005516 <HAL_RCC_OscConfig+0x52e>
 8005494:	40023800 	.word	0x40023800
 8005498:	40007000 	.word	0x40007000
 800549c:	42470060 	.word	0x42470060
      }
      else
      {
        /* Do not return HAL_ERROR if request repeats the current configuration */
        pll_config = RCC->PLLCFGR;
 80054a0:	4b1f      	ldr	r3, [pc, #124]	@ (8005520 <HAL_RCC_OscConfig+0x538>)
 80054a2:	685b      	ldr	r3, [r3, #4]
 80054a4:	60fb      	str	r3, [r7, #12]
#if defined (RCC_PLLCFGR_PLLR)
        if (((RCC_OscInitStruct->PLL.PLLState) == RCC_PLL_OFF) ||
 80054a6:	687b      	ldr	r3, [r7, #4]
 80054a8:	699b      	ldr	r3, [r3, #24]
 80054aa:	2b01      	cmp	r3, #1
 80054ac:	d030      	beq.n	8005510 <HAL_RCC_OscConfig+0x528>
            (READ_BIT(pll_config, RCC_PLLCFGR_PLLSRC) != RCC_OscInitStruct->PLL.PLLSource) ||
 80054ae:	68fb      	ldr	r3, [r7, #12]
 80054b0:	f403 0280 	and.w	r2, r3, #4194304	@ 0x400000
 80054b4:	687b      	ldr	r3, [r7, #4]
 80054b6:	69db      	ldr	r3, [r3, #28]
        if (((RCC_OscInitStruct->PLL.PLLState) == RCC_PLL_OFF) ||
 80054b8:	429a      	cmp	r2, r3
 80054ba:	d129      	bne.n	8005510 <HAL_RCC_OscConfig+0x528>
            (READ_BIT(pll_config, RCC_PLLCFGR_PLLM) != (RCC_OscInitStruct->PLL.PLLM) << RCC_PLLCFGR_PLLM_Pos) ||
 80054bc:	68fb      	ldr	r3, [r7, #12]
 80054be:	f003 023f 	and.w	r2, r3, #63	@ 0x3f
 80054c2:	687b      	ldr	r3, [r7, #4]
 80054c4:	6a1b      	ldr	r3, [r3, #32]
            (READ_BIT(pll_config, RCC_PLLCFGR_PLLSRC) != RCC_OscInitStruct->PLL.PLLSource) ||
 80054c6:	429a      	cmp	r2, r3
 80054c8:	d122      	bne.n	8005510 <HAL_RCC_OscConfig+0x528>
            (READ_BIT(pll_config, RCC_PLLCFGR_PLLN) != (RCC_OscInitStruct->PLL.PLLN) << RCC_PLLCFGR_PLLN_Pos) ||
 80054ca:	68fa      	ldr	r2, [r7, #12]
 80054cc:	f647 73c0 	movw	r3, #32704	@ 0x7fc0
 80054d0:	4013      	ands	r3, r2
 80054d2:	687a      	ldr	r2, [r7, #4]
 80054d4:	6a52      	ldr	r2, [r2, #36]	@ 0x24
 80054d6:	0192      	lsls	r2, r2, #6
            (READ_BIT(pll_config, RCC_PLLCFGR_PLLM) != (RCC_OscInitStruct->PLL.PLLM) << RCC_PLLCFGR_PLLM_Pos) ||
 80054d8:	4293      	cmp	r3, r2
 80054da:	d119      	bne.n	8005510 <HAL_RCC_OscConfig+0x528>
            (READ_BIT(pll_config, RCC_PLLCFGR_PLLP) != (((RCC_OscInitStruct->PLL.PLLP >> 1U) - 1U)) << RCC_PLLCFGR_PLLP_Pos) ||
 80054dc:	68fb      	ldr	r3, [r7, #12]
 80054de:	f403 3240 	and.w	r2, r3, #196608	@ 0x30000
 80054e2:	687b      	ldr	r3, [r7, #4]
 80054e4:	6a9b      	ldr	r3, [r3, #40]	@ 0x28
 80054e6:	085b      	lsrs	r3, r3, #1
 80054e8:	3b01      	subs	r3, #1
 80054ea:	041b      	lsls	r3, r3, #16
            (READ_BIT(pll_config, RCC_PLLCFGR_PLLN) != (RCC_OscInitStruct->PLL.PLLN) << RCC_PLLCFGR_PLLN_Pos) ||
 80054ec:	429a      	cmp	r2, r3
 80054ee:	d10f      	bne.n	8005510 <HAL_RCC_OscConfig+0x528>
            (READ_BIT(pll_config, RCC_PLLCFGR_PLLQ) != (RCC_OscInitStruct->PLL.PLLQ << RCC_PLLCFGR_PLLQ_Pos)) ||
 80054f0:	68fb      	ldr	r3, [r7, #12]
 80054f2:	f003 6270 	and.w	r2, r3, #251658240	@ 0xf000000
 80054f6:	687b      	ldr	r3, [r7, #4]
 80054f8:	6adb      	ldr	r3, [r3, #44]	@ 0x2c
 80054fa:	061b      	lsls	r3, r3, #24
            (READ_BIT(pll_config, RCC_PLLCFGR_PLLP) != (((RCC_OscInitStruct->PLL.PLLP >> 1U) - 1U)) << RCC_PLLCFGR_PLLP_Pos) ||
 80054fc:	429a      	cmp	r2, r3
 80054fe:	d107      	bne.n	8005510 <HAL_RCC_OscConfig+0x528>
            (READ_BIT(pll_config, RCC_PLLCFGR_PLLR) != (RCC_OscInitStruct->PLL.PLLR << RCC_PLLCFGR_PLLR_Pos)))
 8005500:	68fb      	ldr	r3, [r7, #12]
 8005502:	f003 42e0 	and.w	r2, r3, #1879048192	@ 0x70000000
 8005506:	687b      	ldr	r3, [r7, #4]
 8005508:	6b1b      	ldr	r3, [r3, #48]	@ 0x30
 800550a:	071b      	lsls	r3, r3, #28
            (READ_BIT(pll_config, RCC_PLLCFGR_PLLQ) != (RCC_OscInitStruct->PLL.PLLQ << RCC_PLLCFGR_PLLQ_Pos)) ||
 800550c:	429a      	cmp	r2, r3
 800550e:	d001      	beq.n	8005514 <HAL_RCC_OscConfig+0x52c>
            (READ_BIT(pll_config, RCC_PLLCFGR_PLLN) != (RCC_OscInitStruct->PLL.PLLN) << RCC_PLLCFGR_PLLN_Pos) ||
            (READ_BIT(pll_config, RCC_PLLCFGR_PLLP) != (((RCC_OscInitStruct->PLL.PLLP >> 1U) - 1U)) << RCC_PLLCFGR_PLLP_Pos) ||
            (READ_BIT(pll_config, RCC_PLLCFGR_PLLQ) != (RCC_OscInitStruct->PLL.PLLQ << RCC_PLLCFGR_PLLQ_Pos)))
#endif /* RCC_PLLCFGR_PLLR */
        {
          return HAL_ERROR;
 8005510:	2301      	movs	r3, #1
 8005512:	e000      	b.n	8005516 <HAL_RCC_OscConfig+0x52e>
        }
      }
    }
  }
  return HAL_OK;
 8005514:	2300      	movs	r3, #0
}
 8005516:	4618      	mov	r0, r3
 8005518:	3718      	adds	r7, #24
 800551a:	46bd      	mov	sp, r7
 800551c:	bd80      	pop	{r7, pc}
 800551e:	bf00      	nop
 8005520:	40023800 	.word	0x40023800

08005524 <HAL_UART_Init>:
  * @param  huart  Pointer to a UART_HandleTypeDef structure that contains
  *                the configuration information for the specified UART module.
  * @retval HAL status
  */
HAL_StatusTypeDef HAL_UART_Init(UART_HandleTypeDef *huart)
{
 8005524:	b580      	push	{r7, lr}
 8005526:	b082      	sub	sp, #8
 8005528:	af00      	add	r7, sp, #0
 800552a:	6078      	str	r0, [r7, #4]
  /* Check the UART handle allocation */
  if (huart == NULL)
 800552c:	687b      	ldr	r3, [r7, #4]
 800552e:	2b00      	cmp	r3, #0
 8005530:	d101      	bne.n	8005536 <HAL_UART_Init+0x12>
  {
    return HAL_ERROR;
 8005532:	2301      	movs	r3, #1
 8005534:	e042      	b.n	80055bc <HAL_UART_Init+0x98>
    assert_param(IS_UART_INSTANCE(huart->Instance));
  }
  assert_param(IS_UART_WORD_LENGTH(huart->Init.WordLength));
  assert_param(IS_UART_OVERSAMPLING(huart->Init.OverSampling));

  if (huart->gState == HAL_UART_STATE_RESET)
 8005536:	687b      	ldr	r3, [r7, #4]
 8005538:	f893 3041 	ldrb.w	r3, [r3, #65]	@ 0x41
 800553c:	b2db      	uxtb	r3, r3
 800553e:	2b00      	cmp	r3, #0
 8005540:	d106      	bne.n	8005550 <HAL_UART_Init+0x2c>
  {
    /* Allocate lock resource and initialize it */
    huart->Lock = HAL_UNLOCKED;
 8005542:	687b      	ldr	r3, [r7, #4]
 8005544:	2200      	movs	r2, #0
 8005546:	f883 2040 	strb.w	r2, [r3, #64]	@ 0x40

    /* Init the low level hardware */
    huart->MspInitCallback(huart);
#else
    /* Init the low level hardware : GPIO, CLOCK */
    HAL_UART_MspInit(huart);
 800554a:	6878      	ldr	r0, [r7, #4]
 800554c:	f7fd f848 	bl	80025e0 <HAL_UART_MspInit>
#endif /* (USE_HAL_UART_REGISTER_CALLBACKS) */
  }

  huart->gState = HAL_UART_STATE_BUSY;
 8005550:	687b      	ldr	r3, [r7, #4]
 8005552:	2224      	movs	r2, #36	@ 0x24
 8005554:	f883 2041 	strb.w	r2, [r3, #65]	@ 0x41

  /* Disable the peripheral */
  __HAL_UART_DISABLE(huart);
 8005558:	687b      	ldr	r3, [r7, #4]
 800555a:	681b      	ldr	r3, [r3, #0]
 800555c:	68da      	ldr	r2, [r3, #12]
 800555e:	687b      	ldr	r3, [r7, #4]
 8005560:	681b      	ldr	r3, [r3, #0]
 8005562:	f422 5200 	bic.w	r2, r2, #8192	@ 0x2000
 8005566:	60da      	str	r2, [r3, #12]

  /* Set the UART Communication parameters */
  UART_SetConfig(huart);
 8005568:	6878      	ldr	r0, [r7, #4]
 800556a:	f000 f973 	bl	8005854 <UART_SetConfig>

  /* In asynchronous mode, the following bits must be kept cleared:
     - LINEN and CLKEN bits in the USART_CR2 register,
     - SCEN, HDSEL and IREN  bits in the USART_CR3 register.*/
  CLEAR_BIT(huart->Instance->CR2, (USART_CR2_LINEN | USART_CR2_CLKEN));
 800556e:	687b      	ldr	r3, [r7, #4]
 8005570:	681b      	ldr	r3, [r3, #0]
 8005572:	691a      	ldr	r2, [r3, #16]
 8005574:	687b      	ldr	r3, [r7, #4]
 8005576:	681b      	ldr	r3, [r3, #0]
 8005578:	f422 4290 	bic.w	r2, r2, #18432	@ 0x4800
 800557c:	611a      	str	r2, [r3, #16]
  CLEAR_BIT(huart->Instance->CR3, (USART_CR3_SCEN | USART_CR3_HDSEL | USART_CR3_IREN));
 800557e:	687b      	ldr	r3, [r7, #4]
 8005580:	681b      	ldr	r3, [r3, #0]
 8005582:	695a      	ldr	r2, [r3, #20]
 8005584:	687b      	ldr	r3, [r7, #4]
 8005586:	681b      	ldr	r3, [r3, #0]
 8005588:	f022 022a 	bic.w	r2, r2, #42	@ 0x2a
 800558c:	615a      	str	r2, [r3, #20]

  /* Enable the peripheral */
  __HAL_UART_ENABLE(huart);
 800558e:	687b      	ldr	r3, [r7, #4]
 8005590:	681b      	ldr	r3, [r3, #0]
 8005592:	68da      	ldr	r2, [r3, #12]
 8005594:	687b      	ldr	r3, [r7, #4]
 8005596:	681b      	ldr	r3, [r3, #0]
 8005598:	f442 5200 	orr.w	r2, r2, #8192	@ 0x2000
 800559c:	60da      	str	r2, [r3, #12]

  /* Initialize the UART state */
  huart->ErrorCode = HAL_UART_ERROR_NONE;
 800559e:	687b      	ldr	r3, [r7, #4]
 80055a0:	2200      	movs	r2, #0
 80055a2:	645a      	str	r2, [r3, #68]	@ 0x44
  huart->gState = HAL_UART_STATE_READY;
 80055a4:	687b      	ldr	r3, [r7, #4]
 80055a6:	2220      	movs	r2, #32
 80055a8:	f883 2041 	strb.w	r2, [r3, #65]	@ 0x41
  huart->RxState = HAL_UART_STATE_READY;
 80055ac:	687b      	ldr	r3, [r7, #4]
 80055ae:	2220      	movs	r2, #32
 80055b0:	f883 2042 	strb.w	r2, [r3, #66]	@ 0x42
  huart->RxEventType = HAL_UART_RXEVENT_TC;
 80055b4:	687b      	ldr	r3, [r7, #4]
 80055b6:	2200      	movs	r2, #0
 80055b8:	635a      	str	r2, [r3, #52]	@ 0x34

  return HAL_OK;
 80055ba:	2300      	movs	r3, #0
}
 80055bc:	4618      	mov	r0, r3
 80055be:	3708      	adds	r7, #8
 80055c0:	46bd      	mov	sp, r7
 80055c2:	bd80      	pop	{r7, pc}

080055c4 <HAL_UART_Transmit>:
  * @param  Size  Amount of data elements (u8 or u16) to be sent
  * @param  Timeout Timeout duration
  * @retval HAL status
  */
HAL_StatusTypeDef HAL_UART_Transmit(UART_HandleTypeDef *huart, const uint8_t *pData, uint16_t Size, uint32_t Timeout)
{
 80055c4:	b580      	push	{r7, lr}
 80055c6:	b08a      	sub	sp, #40	@ 0x28
 80055c8:	af02      	add	r7, sp, #8
 80055ca:	60f8      	str	r0, [r7, #12]
 80055cc:	60b9      	str	r1, [r7, #8]
 80055ce:	603b      	str	r3, [r7, #0]
 80055d0:	4613      	mov	r3, r2
 80055d2:	80fb      	strh	r3, [r7, #6]
  const uint8_t  *pdata8bits;
  const uint16_t *pdata16bits;
  uint32_t tickstart = 0U;
 80055d4:	2300      	movs	r3, #0
 80055d6:	617b      	str	r3, [r7, #20]

  /* Check that a Tx process is not already ongoing */
  if (huart->gState == HAL_UART_STATE_READY)
 80055d8:	68fb      	ldr	r3, [r7, #12]
 80055da:	f893 3041 	ldrb.w	r3, [r3, #65]	@ 0x41
 80055de:	b2db      	uxtb	r3, r3
 80055e0:	2b20      	cmp	r3, #32
 80055e2:	d175      	bne.n	80056d0 <HAL_UART_Transmit+0x10c>
  {
    if ((pData == NULL) || (Size == 0U))
 80055e4:	68bb      	ldr	r3, [r7, #8]
 80055e6:	2b00      	cmp	r3, #0
 80055e8:	d002      	beq.n	80055f0 <HAL_UART_Transmit+0x2c>
 80055ea:	88fb      	ldrh	r3, [r7, #6]
 80055ec:	2b00      	cmp	r3, #0
 80055ee:	d101      	bne.n	80055f4 <HAL_UART_Transmit+0x30>
    {
      return  HAL_ERROR;
 80055f0:	2301      	movs	r3, #1
 80055f2:	e06e      	b.n	80056d2 <HAL_UART_Transmit+0x10e>
    }

    huart->ErrorCode = HAL_UART_ERROR_NONE;
 80055f4:	68fb      	ldr	r3, [r7, #12]
 80055f6:	2200      	movs	r2, #0
 80055f8:	645a      	str	r2, [r3, #68]	@ 0x44
    huart->gState = HAL_UART_STATE_BUSY_TX;
 80055fa:	68fb      	ldr	r3, [r7, #12]
 80055fc:	2221      	movs	r2, #33	@ 0x21
 80055fe:	f883 2041 	strb.w	r2, [r3, #65]	@ 0x41

    /* Init tickstart for timeout management */
    tickstart = HAL_GetTick();
 8005602:	f7fd f9e1 	bl	80029c8 <HAL_GetTick>
 8005606:	6178      	str	r0, [r7, #20]

    huart->TxXferSize = Size;
 8005608:	68fb      	ldr	r3, [r7, #12]
 800560a:	88fa      	ldrh	r2, [r7, #6]
 800560c:	849a      	strh	r2, [r3, #36]	@ 0x24
    huart->TxXferCount = Size;
 800560e:	68fb      	ldr	r3, [r7, #12]
 8005610:	88fa      	ldrh	r2, [r7, #6]
 8005612:	84da      	strh	r2, [r3, #38]	@ 0x26

    /* In case of 9bits/No Parity transfer, pData needs to be handled as a uint16_t pointer */
    if ((huart->Init.WordLength == UART_WORDLENGTH_9B) && (huart->Init.Parity == UART_PARITY_NONE))
 8005614:	68fb      	ldr	r3, [r7, #12]
 8005616:	689b      	ldr	r3, [r3, #8]
 8005618:	f5b3 5f80 	cmp.w	r3, #4096	@ 0x1000
 800561c:	d108      	bne.n	8005630 <HAL_UART_Transmit+0x6c>
 800561e:	68fb      	ldr	r3, [r7, #12]
 8005620:	691b      	ldr	r3, [r3, #16]
 8005622:	2b00      	cmp	r3, #0
 8005624:	d104      	bne.n	8005630 <HAL_UART_Transmit+0x6c>
    {
      pdata8bits  = NULL;
 8005626:	2300      	movs	r3, #0
 8005628:	61fb      	str	r3, [r7, #28]
      pdata16bits = (const uint16_t *) pData;
 800562a:	68bb      	ldr	r3, [r7, #8]
 800562c:	61bb      	str	r3, [r7, #24]
 800562e:	e003      	b.n	8005638 <HAL_UART_Transmit+0x74>
    }
    else
    {
      pdata8bits  = pData;
 8005630:	68bb      	ldr	r3, [r7, #8]
 8005632:	61fb      	str	r3, [r7, #28]
      pdata16bits = NULL;
 8005634:	2300      	movs	r3, #0
 8005636:	61bb      	str	r3, [r7, #24]
    }

    while (huart->TxXferCount > 0U)
 8005638:	e02e      	b.n	8005698 <HAL_UART_Transmit+0xd4>
    {
      if (UART_WaitOnFlagUntilTimeout(huart, UART_FLAG_TXE, RESET, tickstart, Timeout) != HAL_OK)
 800563a:	683b      	ldr	r3, [r7, #0]
 800563c:	9300      	str	r3, [sp, #0]
 800563e:	697b      	ldr	r3, [r7, #20]
 8005640:	2200      	movs	r2, #0
 8005642:	2180      	movs	r1, #128	@ 0x80
 8005644:	68f8      	ldr	r0, [r7, #12]
 8005646:	f000 f848 	bl	80056da <UART_WaitOnFlagUntilTimeout>
 800564a:	4603      	mov	r3, r0
 800564c:	2b00      	cmp	r3, #0
 800564e:	d005      	beq.n	800565c <HAL_UART_Transmit+0x98>
      {
        huart->gState = HAL_UART_STATE_READY;
 8005650:	68fb      	ldr	r3, [r7, #12]
 8005652:	2220      	movs	r2, #32
 8005654:	f883 2041 	strb.w	r2, [r3, #65]	@ 0x41

        return HAL_TIMEOUT;
 8005658:	2303      	movs	r3, #3
 800565a:	e03a      	b.n	80056d2 <HAL_UART_Transmit+0x10e>
      }
      if (pdata8bits == NULL)
 800565c:	69fb      	ldr	r3, [r7, #28]
 800565e:	2b00      	cmp	r3, #0
 8005660:	d10b      	bne.n	800567a <HAL_UART_Transmit+0xb6>
      {
        huart->Instance->DR = (uint16_t)(*pdata16bits & 0x01FFU);
 8005662:	69bb      	ldr	r3, [r7, #24]
 8005664:	881b      	ldrh	r3, [r3, #0]
 8005666:	461a      	mov	r2, r3
 8005668:	68fb      	ldr	r3, [r7, #12]
 800566a:	681b      	ldr	r3, [r3, #0]
 800566c:	f3c2 0208 	ubfx	r2, r2, #0, #9
 8005670:	605a      	str	r2, [r3, #4]
        pdata16bits++;
 8005672:	69bb      	ldr	r3, [r7, #24]
 8005674:	3302      	adds	r3, #2
 8005676:	61bb      	str	r3, [r7, #24]
 8005678:	e007      	b.n	800568a <HAL_UART_Transmit+0xc6>
      }
      else
      {
        huart->Instance->DR = (uint8_t)(*pdata8bits & 0xFFU);
 800567a:	69fb      	ldr	r3, [r7, #28]
 800567c:	781a      	ldrb	r2, [r3, #0]
 800567e:	68fb      	ldr	r3, [r7, #12]
 8005680:	681b      	ldr	r3, [r3, #0]
 8005682:	605a      	str	r2, [r3, #4]
        pdata8bits++;
 8005684:	69fb      	ldr	r3, [r7, #28]
 8005686:	3301      	adds	r3, #1
 8005688:	61fb      	str	r3, [r7, #28]
      }
      huart->TxXferCount--;
 800568a:	68fb      	ldr	r3, [r7, #12]
 800568c:	8cdb      	ldrh	r3, [r3, #38]	@ 0x26
 800568e:	b29b      	uxth	r3, r3
 8005690:	3b01      	subs	r3, #1
 8005692:	b29a      	uxth	r2, r3
 8005694:	68fb      	ldr	r3, [r7, #12]
 8005696:	84da      	strh	r2, [r3, #38]	@ 0x26
    while (huart->TxXferCount > 0U)
 8005698:	68fb      	ldr	r3, [r7, #12]
 800569a:	8cdb      	ldrh	r3, [r3, #38]	@ 0x26
 800569c:	b29b      	uxth	r3, r3
 800569e:	2b00      	cmp	r3, #0
 80056a0:	d1cb      	bne.n	800563a <HAL_UART_Transmit+0x76>
    }

    if (UART_WaitOnFlagUntilTimeout(huart, UART_FLAG_TC, RESET, tickstart, Timeout) != HAL_OK)
 80056a2:	683b      	ldr	r3, [r7, #0]
 80056a4:	9300      	str	r3, [sp, #0]
 80056a6:	697b      	ldr	r3, [r7, #20]
 80056a8:	2200      	movs	r2, #0
 80056aa:	2140      	movs	r1, #64	@ 0x40
 80056ac:	68f8      	ldr	r0, [r7, #12]
 80056ae:	f000 f814 	bl	80056da <UART_WaitOnFlagUntilTimeout>
 80056b2:	4603      	mov	r3, r0
 80056b4:	2b00      	cmp	r3, #0
 80056b6:	d005      	beq.n	80056c4 <HAL_UART_Transmit+0x100>
    {
      huart->gState = HAL_UART_STATE_READY;
 80056b8:	68fb      	ldr	r3, [r7, #12]
 80056ba:	2220      	movs	r2, #32
 80056bc:	f883 2041 	strb.w	r2, [r3, #65]	@ 0x41

      return HAL_TIMEOUT;
 80056c0:	2303      	movs	r3, #3
 80056c2:	e006      	b.n	80056d2 <HAL_UART_Transmit+0x10e>
    }

    /* At end of Tx process, restore huart->gState to Ready */
    huart->gState = HAL_UART_STATE_READY;
 80056c4:	68fb      	ldr	r3, [r7, #12]
 80056c6:	2220      	movs	r2, #32
 80056c8:	f883 2041 	strb.w	r2, [r3, #65]	@ 0x41

    return HAL_OK;
 80056cc:	2300      	movs	r3, #0
 80056ce:	e000      	b.n	80056d2 <HAL_UART_Transmit+0x10e>
  }
  else
  {
    return HAL_BUSY;
 80056d0:	2302      	movs	r3, #2
  }
}
 80056d2:	4618      	mov	r0, r3
 80056d4:	3720      	adds	r7, #32
 80056d6:	46bd      	mov	sp, r7
 80056d8:	bd80      	pop	{r7, pc}

080056da <UART_WaitOnFlagUntilTimeout>:
  * @param  Timeout Timeout duration
  * @retval HAL status
  */
static HAL_StatusTypeDef UART_WaitOnFlagUntilTimeout(UART_HandleTypeDef *huart, uint32_t Flag, FlagStatus Status,
                                                     uint32_t Tickstart, uint32_t Timeout)
{
 80056da:	b580      	push	{r7, lr}
 80056dc:	b086      	sub	sp, #24
 80056de:	af00      	add	r7, sp, #0
 80056e0:	60f8      	str	r0, [r7, #12]
 80056e2:	60b9      	str	r1, [r7, #8]
 80056e4:	603b      	str	r3, [r7, #0]
 80056e6:	4613      	mov	r3, r2
 80056e8:	71fb      	strb	r3, [r7, #7]
  /* Wait until flag is set */
  while ((__HAL_UART_GET_FLAG(huart, Flag) ? SET : RESET) == Status)
 80056ea:	e03b      	b.n	8005764 <UART_WaitOnFlagUntilTimeout+0x8a>
  {
    /* Check for the Timeout */
    if (Timeout != HAL_MAX_DELAY)
 80056ec:	6a3b      	ldr	r3, [r7, #32]
 80056ee:	f1b3 3fff 	cmp.w	r3, #4294967295	@ 0xffffffff
 80056f2:	d037      	beq.n	8005764 <UART_WaitOnFlagUntilTimeout+0x8a>
    {
      if (((HAL_GetTick() - Tickstart) > Timeout) || (Timeout == 0U))
 80056f4:	f7fd f968 	bl	80029c8 <HAL_GetTick>
 80056f8:	4602      	mov	r2, r0
 80056fa:	683b      	ldr	r3, [r7, #0]
 80056fc:	1ad3      	subs	r3, r2, r3
 80056fe:	6a3a      	ldr	r2, [r7, #32]
 8005700:	429a      	cmp	r2, r3
 8005702:	d302      	bcc.n	800570a <UART_WaitOnFlagUntilTimeout+0x30>
 8005704:	6a3b      	ldr	r3, [r7, #32]
 8005706:	2b00      	cmp	r3, #0
 8005708:	d101      	bne.n	800570e <UART_WaitOnFlagUntilTimeout+0x34>
      {

        return HAL_TIMEOUT;
 800570a:	2303      	movs	r3, #3
 800570c:	e03a      	b.n	8005784 <UART_WaitOnFlagUntilTimeout+0xaa>
      }

      if ((READ_BIT(huart->Instance->CR1, USART_CR1_RE) != 0U) && (Flag != UART_FLAG_TXE) && (Flag != UART_FLAG_TC))
 800570e:	68fb      	ldr	r3, [r7, #12]
 8005710:	681b      	ldr	r3, [r3, #0]
 8005712:	68db      	ldr	r3, [r3, #12]
 8005714:	f003 0304 	and.w	r3, r3, #4
 8005718:	2b00      	cmp	r3, #0
 800571a:	d023      	beq.n	8005764 <UART_WaitOnFlagUntilTimeout+0x8a>
 800571c:	68bb      	ldr	r3, [r7, #8]
 800571e:	2b80      	cmp	r3, #128	@ 0x80
 8005720:	d020      	beq.n	8005764 <UART_WaitOnFlagUntilTimeout+0x8a>
 8005722:	68bb      	ldr	r3, [r7, #8]
 8005724:	2b40      	cmp	r3, #64	@ 0x40
 8005726:	d01d      	beq.n	8005764 <UART_WaitOnFlagUntilTimeout+0x8a>
      {
        if (__HAL_UART_GET_FLAG(huart, UART_FLAG_ORE) == SET)
 8005728:	68fb      	ldr	r3, [r7, #12]
 800572a:	681b      	ldr	r3, [r3, #0]
 800572c:	681b      	ldr	r3, [r3, #0]
 800572e:	f003 0308 	and.w	r3, r3, #8
 8005732:	2b08      	cmp	r3, #8
 8005734:	d116      	bne.n	8005764 <UART_WaitOnFlagUntilTimeout+0x8a>
        {
          /* Clear Overrun Error flag*/
          __HAL_UART_CLEAR_OREFLAG(huart);
 8005736:	2300      	movs	r3, #0
 8005738:	617b      	str	r3, [r7, #20]
 800573a:	68fb      	ldr	r3, [r7, #12]
 800573c:	681b      	ldr	r3, [r3, #0]
 800573e:	681b      	ldr	r3, [r3, #0]
 8005740:	617b      	str	r3, [r7, #20]
 8005742:	68fb      	ldr	r3, [r7, #12]
 8005744:	681b      	ldr	r3, [r3, #0]
 8005746:	685b      	ldr	r3, [r3, #4]
 8005748:	617b      	str	r3, [r7, #20]
 800574a:	697b      	ldr	r3, [r7, #20]

          /* Blocking error : transfer is aborted
          Set the UART state ready to be able to start again the process,
          Disable Rx Interrupts if ongoing */
          UART_EndRxTransfer(huart);
 800574c:	68f8      	ldr	r0, [r7, #12]
 800574e:	f000 f81d 	bl	800578c <UART_EndRxTransfer>

          huart->ErrorCode = HAL_UART_ERROR_ORE;
 8005752:	68fb      	ldr	r3, [r7, #12]
 8005754:	2208      	movs	r2, #8
 8005756:	645a      	str	r2, [r3, #68]	@ 0x44

          /* Process Unlocked */
          __HAL_UNLOCK(huart);
 8005758:	68fb      	ldr	r3, [r7, #12]
 800575a:	2200      	movs	r2, #0
 800575c:	f883 2040 	strb.w	r2, [r3, #64]	@ 0x40

          return HAL_ERROR;
 8005760:	2301      	movs	r3, #1
 8005762:	e00f      	b.n	8005784 <UART_WaitOnFlagUntilTimeout+0xaa>
  while ((__HAL_UART_GET_FLAG(huart, Flag) ? SET : RESET) == Status)
 8005764:	68fb      	ldr	r3, [r7, #12]
 8005766:	681b      	ldr	r3, [r3, #0]
 8005768:	681a      	ldr	r2, [r3, #0]
 800576a:	68bb      	ldr	r3, [r7, #8]
 800576c:	4013      	ands	r3, r2
 800576e:	68ba      	ldr	r2, [r7, #8]
 8005770:	429a      	cmp	r2, r3
 8005772:	bf0c      	ite	eq
 8005774:	2301      	moveq	r3, #1
 8005776:	2300      	movne	r3, #0
 8005778:	b2db      	uxtb	r3, r3
 800577a:	461a      	mov	r2, r3
 800577c:	79fb      	ldrb	r3, [r7, #7]
 800577e:	429a      	cmp	r2, r3
 8005780:	d0b4      	beq.n	80056ec <UART_WaitOnFlagUntilTimeout+0x12>
        }
      }
    }
  }
  return HAL_OK;
 8005782:	2300      	movs	r3, #0
}
 8005784:	4618      	mov	r0, r3
 8005786:	3718      	adds	r7, #24
 8005788:	46bd      	mov	sp, r7
 800578a:	bd80      	pop	{r7, pc}

0800578c <UART_EndRxTransfer>:
  * @brief  End ongoing Rx transfer on UART peripheral (following error detection or Reception completion).
  * @param  huart UART handle.
  * @retval None
  */
static void UART_EndRxTransfer(UART_HandleTypeDef *huart)
{
 800578c:	b480      	push	{r7}
 800578e:	b095      	sub	sp, #84	@ 0x54
 8005790:	af00      	add	r7, sp, #0
 8005792:	6078      	str	r0, [r7, #4]
  /* Disable RXNE, PE and ERR (Frame error, noise error, overrun error) interrupts */
  ATOMIC_CLEAR_BIT(huart->Instance->CR1, (USART_CR1_RXNEIE | USART_CR1_PEIE));
 8005794:	687b      	ldr	r3, [r7, #4]
 8005796:	681b      	ldr	r3, [r3, #0]
 8005798:	330c      	adds	r3, #12
 800579a:	637b      	str	r3, [r7, #52]	@ 0x34
   __ASM volatile ("ldrex %0, %1" : "=r" (result) : "Q" (*addr) );
 800579c:	6b7b      	ldr	r3, [r7, #52]	@ 0x34
 800579e:	e853 3f00 	ldrex	r3, [r3]
 80057a2:	633b      	str	r3, [r7, #48]	@ 0x30
   return(result);
 80057a4:	6b3b      	ldr	r3, [r7, #48]	@ 0x30
 80057a6:	f423 7390 	bic.w	r3, r3, #288	@ 0x120
 80057aa:	64fb      	str	r3, [r7, #76]	@ 0x4c
 80057ac:	687b      	ldr	r3, [r7, #4]
 80057ae:	681b      	ldr	r3, [r3, #0]
 80057b0:	330c      	adds	r3, #12
 80057b2:	6cfa      	ldr	r2, [r7, #76]	@ 0x4c
 80057b4:	643a      	str	r2, [r7, #64]	@ 0x40
 80057b6:	63fb      	str	r3, [r7, #60]	@ 0x3c
   __ASM volatile ("strex %0, %2, %1" : "=&r" (result), "=Q" (*addr) : "r" (value) );
 80057b8:	6bf9      	ldr	r1, [r7, #60]	@ 0x3c
 80057ba:	6c3a      	ldr	r2, [r7, #64]	@ 0x40
 80057bc:	e841 2300 	strex	r3, r2, [r1]
 80057c0:	63bb      	str	r3, [r7, #56]	@ 0x38
   return(result);
 80057c2:	6bbb      	ldr	r3, [r7, #56]	@ 0x38
 80057c4:	2b00      	cmp	r3, #0
 80057c6:	d1e5      	bne.n	8005794 <UART_EndRxTransfer+0x8>
  ATOMIC_CLEAR_BIT(huart->Instance->CR3, USART_CR3_EIE);
 80057c8:	687b      	ldr	r3, [r7, #4]
 80057ca:	681b      	ldr	r3, [r3, #0]
 80057cc:	3314      	adds	r3, #20
 80057ce:	623b      	str	r3, [r7, #32]
   __ASM volatile ("ldrex %0, %1" : "=r" (result) : "Q" (*addr) );
 80057d0:	6a3b      	ldr	r3, [r7, #32]
 80057d2:	e853 3f00 	ldrex	r3, [r3]
 80057d6:	61fb      	str	r3, [r7, #28]
   return(result);
 80057d8:	69fb      	ldr	r3, [r7, #28]
 80057da:	f023 0301 	bic.w	r3, r3, #1
 80057de:	64bb      	str	r3, [r7, #72]	@ 0x48
 80057e0:	687b      	ldr	r3, [r7, #4]
 80057e2:	681b      	ldr	r3, [r3, #0]
 80057e4:	3314      	adds	r3, #20
 80057e6:	6cba      	ldr	r2, [r7, #72]	@ 0x48
 80057e8:	62fa      	str	r2, [r7, #44]	@ 0x2c
 80057ea:	62bb      	str	r3, [r7, #40]	@ 0x28
   __ASM volatile ("strex %0, %2, %1" : "=&r" (result), "=Q" (*addr) : "r" (value) );
 80057ec:	6ab9      	ldr	r1, [r7, #40]	@ 0x28
 80057ee:	6afa      	ldr	r2, [r7, #44]	@ 0x2c
 80057f0:	e841 2300 	strex	r3, r2, [r1]
 80057f4:	627b      	str	r3, [r7, #36]	@ 0x24
   return(result);
 80057f6:	6a7b      	ldr	r3, [r7, #36]	@ 0x24
 80057f8:	2b00      	cmp	r3, #0
 80057fa:	d1e5      	bne.n	80057c8 <UART_EndRxTransfer+0x3c>

  /* In case of reception waiting for IDLE event, disable also the IDLE IE interrupt source */
  if (huart->ReceptionType == HAL_UART_RECEPTION_TOIDLE)
 80057fc:	687b      	ldr	r3, [r7, #4]
 80057fe:	6b1b      	ldr	r3, [r3, #48]	@ 0x30
 8005800:	2b01      	cmp	r3, #1
 8005802:	d119      	bne.n	8005838 <UART_EndRxTransfer+0xac>
  {
    ATOMIC_CLEAR_BIT(huart->Instance->CR1, USART_CR1_IDLEIE);
 8005804:	687b      	ldr	r3, [r7, #4]
 8005806:	681b      	ldr	r3, [r3, #0]
 8005808:	330c      	adds	r3, #12
 800580a:	60fb      	str	r3, [r7, #12]
   __ASM volatile ("ldrex %0, %1" : "=r" (result) : "Q" (*addr) );
 800580c:	68fb      	ldr	r3, [r7, #12]
 800580e:	e853 3f00 	ldrex	r3, [r3]
 8005812:	60bb      	str	r3, [r7, #8]
   return(result);
 8005814:	68bb      	ldr	r3, [r7, #8]
 8005816:	f023 0310 	bic.w	r3, r3, #16
 800581a:	647b      	str	r3, [r7, #68]	@ 0x44
 800581c:	687b      	ldr	r3, [r7, #4]
 800581e:	681b      	ldr	r3, [r3, #0]
 8005820:	330c      	adds	r3, #12
 8005822:	6c7a      	ldr	r2, [r7, #68]	@ 0x44
 8005824:	61ba      	str	r2, [r7, #24]
 8005826:	617b      	str	r3, [r7, #20]
   __ASM volatile ("strex %0, %2, %1" : "=&r" (result), "=Q" (*addr) : "r" (value) );
 8005828:	6979      	ldr	r1, [r7, #20]
 800582a:	69ba      	ldr	r2, [r7, #24]
 800582c:	e841 2300 	strex	r3, r2, [r1]
 8005830:	613b      	str	r3, [r7, #16]
   return(result);
 8005832:	693b      	ldr	r3, [r7, #16]
 8005834:	2b00      	cmp	r3, #0
 8005836:	d1e5      	bne.n	8005804 <UART_EndRxTransfer+0x78>
  }

  /* At end of Rx process, restore huart->RxState to Ready */
  huart->RxState = HAL_UART_STATE_READY;
 8005838:	687b      	ldr	r3, [r7, #4]
 800583a:	2220      	movs	r2, #32
 800583c:	f883 2042 	strb.w	r2, [r3, #66]	@ 0x42
  huart->ReceptionType = HAL_UART_RECEPTION_STANDARD;
 8005840:	687b      	ldr	r3, [r7, #4]
 8005842:	2200      	movs	r2, #0
 8005844:	631a      	str	r2, [r3, #48]	@ 0x30
}
 8005846:	bf00      	nop
 8005848:	3754      	adds	r7, #84	@ 0x54
 800584a:	46bd      	mov	sp, r7
 800584c:	f85d 7b04 	ldr.w	r7, [sp], #4
 8005850:	4770      	bx	lr
	...

08005854 <UART_SetConfig>:
  * @param  huart  Pointer to a UART_HandleTypeDef structure that contains
  *                the configuration information for the specified UART module.
  * @retval None
  */
static void UART_SetConfig(UART_HandleTypeDef *huart)
{
 8005854:	e92d 4fb0 	stmdb	sp!, {r4, r5, r7, r8, r9, sl, fp, lr}
 8005858:	b0c0      	sub	sp, #256	@ 0x100
 800585a:	af00      	add	r7, sp, #0
 800585c:	f8c7 00f4 	str.w	r0, [r7, #244]	@ 0xf4
  assert_param(IS_UART_MODE(huart->Init.Mode));

  /*-------------------------- USART CR2 Configuration -----------------------*/
  /* Configure the UART Stop Bits: Set STOP[13:12] bits
     according to huart->Init.StopBits value */
  MODIFY_REG(huart->Instance->CR2, USART_CR2_STOP, huart->Init.StopBits);
 8005860:	f8d7 30f4 	ldr.w	r3, [r7, #244]	@ 0xf4
 8005864:	681b      	ldr	r3, [r3, #0]
 8005866:	691b      	ldr	r3, [r3, #16]
 8005868:	f423 5040 	bic.w	r0, r3, #12288	@ 0x3000
 800586c:	f8d7 30f4 	ldr.w	r3, [r7, #244]	@ 0xf4
 8005870:	68d9      	ldr	r1, [r3, #12]
 8005872:	f8d7 30f4 	ldr.w	r3, [r7, #244]	@ 0xf4
 8005876:	681a      	ldr	r2, [r3, #0]
 8005878:	ea40 0301 	orr.w	r3, r0, r1
 800587c:	6113      	str	r3, [r2, #16]
     Set the M bits according to huart->Init.WordLength value
     Set PCE and PS bits according to huart->Init.Parity value
     Set TE and RE bits according to huart->Init.Mode value
     Set OVER8 bit according to huart->Init.OverSampling value */

  tmpreg = (uint32_t)huart->Init.WordLength | huart->Init.Parity | huart->Init.Mode | huart->Init.OverSampling;
 800587e:	f8d7 30f4 	ldr.w	r3, [r7, #244]	@ 0xf4
 8005882:	689a      	ldr	r2, [r3, #8]
 8005884:	f8d7 30f4 	ldr.w	r3, [r7, #244]	@ 0xf4
 8005888:	691b      	ldr	r3, [r3, #16]
 800588a:	431a      	orrs	r2, r3
 800588c:	f8d7 30f4 	ldr.w	r3, [r7, #244]	@ 0xf4
 8005890:	695b      	ldr	r3, [r3, #20]
 8005892:	431a      	orrs	r2, r3
 8005894:	f8d7 30f4 	ldr.w	r3, [r7, #244]	@ 0xf4
 8005898:	69db      	ldr	r3, [r3, #28]
 800589a:	4313      	orrs	r3, r2
 800589c:	f8c7 30f8 	str.w	r3, [r7, #248]	@ 0xf8
  MODIFY_REG(huart->Instance->CR1,
 80058a0:	f8d7 30f4 	ldr.w	r3, [r7, #244]	@ 0xf4
 80058a4:	681b      	ldr	r3, [r3, #0]
 80058a6:	68db      	ldr	r3, [r3, #12]
 80058a8:	f423 4116 	bic.w	r1, r3, #38400	@ 0x9600
 80058ac:	f021 010c 	bic.w	r1, r1, #12
 80058b0:	f8d7 30f4 	ldr.w	r3, [r7, #244]	@ 0xf4
 80058b4:	681a      	ldr	r2, [r3, #0]
 80058b6:	f8d7 30f8 	ldr.w	r3, [r7, #248]	@ 0xf8
 80058ba:	430b      	orrs	r3, r1
 80058bc:	60d3      	str	r3, [r2, #12]
             (uint32_t)(USART_CR1_M | USART_CR1_PCE | USART_CR1_PS | USART_CR1_TE | USART_CR1_RE | USART_CR1_OVER8),
             tmpreg);

  /*-------------------------- USART CR3 Configuration -----------------------*/
  /* Configure the UART HFC: Set CTSE and RTSE bits according to huart->Init.HwFlowCtl value */
  MODIFY_REG(huart->Instance->CR3, (USART_CR3_RTSE | USART_CR3_CTSE), huart->Init.HwFlowCtl);
 80058be:	f8d7 30f4 	ldr.w	r3, [r7, #244]	@ 0xf4
 80058c2:	681b      	ldr	r3, [r3, #0]
 80058c4:	695b      	ldr	r3, [r3, #20]
 80058c6:	f423 7040 	bic.w	r0, r3, #768	@ 0x300
 80058ca:	f8d7 30f4 	ldr.w	r3, [r7, #244]	@ 0xf4
 80058ce:	6999      	ldr	r1, [r3, #24]
 80058d0:	f8d7 30f4 	ldr.w	r3, [r7, #244]	@ 0xf4
 80058d4:	681a      	ldr	r2, [r3, #0]
 80058d6:	ea40 0301 	orr.w	r3, r0, r1
 80058da:	6153      	str	r3, [r2, #20]
    if ((huart->Instance == USART1) || (huart->Instance == USART6) || (huart->Instance == UART9) || (huart->Instance == UART10))
    {
      pclk = HAL_RCC_GetPCLK2Freq();
    }
#elif defined(USART6)
    if ((huart->Instance == USART1) || (huart->Instance == USART6))
 80058dc:	f8d7 30f4 	ldr.w	r3, [r7, #244]	@ 0xf4
 80058e0:	681a      	ldr	r2, [r3, #0]
 80058e2:	4b8f      	ldr	r3, [pc, #572]	@ (8005b20 <UART_SetConfig+0x2cc>)
 80058e4:	429a      	cmp	r2, r3
 80058e6:	d005      	beq.n	80058f4 <UART_SetConfig+0xa0>
 80058e8:	f8d7 30f4 	ldr.w	r3, [r7, #244]	@ 0xf4
 80058ec:	681a      	ldr	r2, [r3, #0]
 80058ee:	4b8d      	ldr	r3, [pc, #564]	@ (8005b24 <UART_SetConfig+0x2d0>)
 80058f0:	429a      	cmp	r2, r3
 80058f2:	d104      	bne.n	80058fe <UART_SetConfig+0xaa>
    {
      pclk = HAL_RCC_GetPCLK2Freq();
 80058f4:	f7ff f934 	bl	8004b60 <HAL_RCC_GetPCLK2Freq>
 80058f8:	f8c7 00fc 	str.w	r0, [r7, #252]	@ 0xfc
 80058fc:	e003      	b.n	8005906 <UART_SetConfig+0xb2>
      pclk = HAL_RCC_GetPCLK2Freq();
    }
#endif /* USART6 */
    else
    {
      pclk = HAL_RCC_GetPCLK1Freq();
 80058fe:	f7ff f91b 	bl	8004b38 <HAL_RCC_GetPCLK1Freq>
 8005902:	f8c7 00fc 	str.w	r0, [r7, #252]	@ 0xfc
    }
  /*-------------------------- USART BRR Configuration ---------------------*/
  if (huart->Init.OverSampling == UART_OVERSAMPLING_8)
 8005906:	f8d7 30f4 	ldr.w	r3, [r7, #244]	@ 0xf4
 800590a:	69db      	ldr	r3, [r3, #28]
 800590c:	f5b3 4f00 	cmp.w	r3, #32768	@ 0x8000
 8005910:	f040 810c 	bne.w	8005b2c <UART_SetConfig+0x2d8>
  {
    huart->Instance->BRR = UART_BRR_SAMPLING8(pclk, huart->Init.BaudRate);
 8005914:	f8d7 30fc 	ldr.w	r3, [r7, #252]	@ 0xfc
 8005918:	2200      	movs	r2, #0
 800591a:	f8c7 30e8 	str.w	r3, [r7, #232]	@ 0xe8
 800591e:	f8c7 20ec 	str.w	r2, [r7, #236]	@ 0xec
 8005922:	e9d7 453a 	ldrd	r4, r5, [r7, #232]	@ 0xe8
 8005926:	4622      	mov	r2, r4
 8005928:	462b      	mov	r3, r5
 800592a:	1891      	adds	r1, r2, r2
 800592c:	65b9      	str	r1, [r7, #88]	@ 0x58
 800592e:	415b      	adcs	r3, r3
 8005930:	65fb      	str	r3, [r7, #92]	@ 0x5c
 8005932:	e9d7 2316 	ldrd	r2, r3, [r7, #88]	@ 0x58
 8005936:	4621      	mov	r1, r4
 8005938:	eb12 0801 	adds.w	r8, r2, r1
 800593c:	4629      	mov	r1, r5
 800593e:	eb43 0901 	adc.w	r9, r3, r1
 8005942:	f04f 0200 	mov.w	r2, #0
 8005946:	f04f 0300 	mov.w	r3, #0
 800594a:	ea4f 03c9 	mov.w	r3, r9, lsl #3
 800594e:	ea43 7358 	orr.w	r3, r3, r8, lsr #29
 8005952:	ea4f 02c8 	mov.w	r2, r8, lsl #3
 8005956:	4690      	mov	r8, r2
 8005958:	4699      	mov	r9, r3
 800595a:	4623      	mov	r3, r4
 800595c:	eb18 0303 	adds.w	r3, r8, r3
 8005960:	f8c7 30e0 	str.w	r3, [r7, #224]	@ 0xe0
 8005964:	462b      	mov	r3, r5
 8005966:	eb49 0303 	adc.w	r3, r9, r3
 800596a:	f8c7 30e4 	str.w	r3, [r7, #228]	@ 0xe4
 800596e:	f8d7 30f4 	ldr.w	r3, [r7, #244]	@ 0xf4
 8005972:	685b      	ldr	r3, [r3, #4]
 8005974:	2200      	movs	r2, #0
 8005976:	f8c7 30d8 	str.w	r3, [r7, #216]	@ 0xd8
 800597a:	f8c7 20dc 	str.w	r2, [r7, #220]	@ 0xdc
 800597e:	e9d7 1236 	ldrd	r1, r2, [r7, #216]	@ 0xd8
 8005982:	460b      	mov	r3, r1
 8005984:	18db      	adds	r3, r3, r3
 8005986:	653b      	str	r3, [r7, #80]	@ 0x50
 8005988:	4613      	mov	r3, r2
 800598a:	eb42 0303 	adc.w	r3, r2, r3
 800598e:	657b      	str	r3, [r7, #84]	@ 0x54
 8005990:	e9d7 2314 	ldrd	r2, r3, [r7, #80]	@ 0x50
 8005994:	e9d7 0138 	ldrd	r0, r1, [r7, #224]	@ 0xe0
 8005998:	f7fb f976 	bl	8000c88 <__aeabi_uldivmod>
 800599c:	4602      	mov	r2, r0
 800599e:	460b      	mov	r3, r1
 80059a0:	4b61      	ldr	r3, [pc, #388]	@ (8005b28 <UART_SetConfig+0x2d4>)
 80059a2:	fba3 2302 	umull	r2, r3, r3, r2
 80059a6:	095b      	lsrs	r3, r3, #5
 80059a8:	011c      	lsls	r4, r3, #4
 80059aa:	f8d7 30fc 	ldr.w	r3, [r7, #252]	@ 0xfc
 80059ae:	2200      	movs	r2, #0
 80059b0:	f8c7 30d0 	str.w	r3, [r7, #208]	@ 0xd0
 80059b4:	f8c7 20d4 	str.w	r2, [r7, #212]	@ 0xd4
 80059b8:	e9d7 8934 	ldrd	r8, r9, [r7, #208]	@ 0xd0
 80059bc:	4642      	mov	r2, r8
 80059be:	464b      	mov	r3, r9
 80059c0:	1891      	adds	r1, r2, r2
 80059c2:	64b9      	str	r1, [r7, #72]	@ 0x48
 80059c4:	415b      	adcs	r3, r3
 80059c6:	64fb      	str	r3, [r7, #76]	@ 0x4c
 80059c8:	e9d7 2312 	ldrd	r2, r3, [r7, #72]	@ 0x48
 80059cc:	4641      	mov	r1, r8
 80059ce:	eb12 0a01 	adds.w	sl, r2, r1
 80059d2:	4649      	mov	r1, r9
 80059d4:	eb43 0b01 	adc.w	fp, r3, r1
 80059d8:	f04f 0200 	mov.w	r2, #0
 80059dc:	f04f 0300 	mov.w	r3, #0
 80059e0:	ea4f 03cb 	mov.w	r3, fp, lsl #3
 80059e4:	ea43 735a 	orr.w	r3, r3, sl, lsr #29
 80059e8:	ea4f 02ca 	mov.w	r2, sl, lsl #3
 80059ec:	4692      	mov	sl, r2
 80059ee:	469b      	mov	fp, r3
 80059f0:	4643      	mov	r3, r8
 80059f2:	eb1a 0303 	adds.w	r3, sl, r3
 80059f6:	f8c7 30c8 	str.w	r3, [r7, #200]	@ 0xc8
 80059fa:	464b      	mov	r3, r9
 80059fc:	eb4b 0303 	adc.w	r3, fp, r3
 8005a00:	f8c7 30cc 	str.w	r3, [r7, #204]	@ 0xcc
 8005a04:	f8d7 30f4 	ldr.w	r3, [r7, #244]	@ 0xf4
 8005a08:	685b      	ldr	r3, [r3, #4]
 8005a0a:	2200      	movs	r2, #0
 8005a0c:	f8c7 30c0 	str.w	r3, [r7, #192]	@ 0xc0
 8005a10:	f8c7 20c4 	str.w	r2, [r7, #196]	@ 0xc4
 8005a14:	e9d7 1230 	ldrd	r1, r2, [r7, #192]	@ 0xc0
 8005a18:	460b      	mov	r3, r1
 8005a1a:	18db      	adds	r3, r3, r3
 8005a1c:	643b      	str	r3, [r7, #64]	@ 0x40
 8005a1e:	4613      	mov	r3, r2
 8005a20:	eb42 0303 	adc.w	r3, r2, r3
 8005a24:	647b      	str	r3, [r7, #68]	@ 0x44
 8005a26:	e9d7 2310 	ldrd	r2, r3, [r7, #64]	@ 0x40
 8005a2a:	e9d7 0132 	ldrd	r0, r1, [r7, #200]	@ 0xc8
 8005a2e:	f7fb f92b 	bl	8000c88 <__aeabi_uldivmod>
 8005a32:	4602      	mov	r2, r0
 8005a34:	460b      	mov	r3, r1
 8005a36:	4611      	mov	r1, r2
 8005a38:	4b3b      	ldr	r3, [pc, #236]	@ (8005b28 <UART_SetConfig+0x2d4>)
 8005a3a:	fba3 2301 	umull	r2, r3, r3, r1
 8005a3e:	095b      	lsrs	r3, r3, #5
 8005a40:	2264      	movs	r2, #100	@ 0x64
 8005a42:	fb02 f303 	mul.w	r3, r2, r3
 8005a46:	1acb      	subs	r3, r1, r3
 8005a48:	00db      	lsls	r3, r3, #3
 8005a4a:	f103 0232 	add.w	r2, r3, #50	@ 0x32
 8005a4e:	4b36      	ldr	r3, [pc, #216]	@ (8005b28 <UART_SetConfig+0x2d4>)
 8005a50:	fba3 2302 	umull	r2, r3, r3, r2
 8005a54:	095b      	lsrs	r3, r3, #5
 8005a56:	005b      	lsls	r3, r3, #1
 8005a58:	f403 73f8 	and.w	r3, r3, #496	@ 0x1f0
 8005a5c:	441c      	add	r4, r3
 8005a5e:	f8d7 30fc 	ldr.w	r3, [r7, #252]	@ 0xfc
 8005a62:	2200      	movs	r2, #0
 8005a64:	f8c7 30b8 	str.w	r3, [r7, #184]	@ 0xb8
 8005a68:	f8c7 20bc 	str.w	r2, [r7, #188]	@ 0xbc
 8005a6c:	e9d7 892e 	ldrd	r8, r9, [r7, #184]	@ 0xb8
 8005a70:	4642      	mov	r2, r8
 8005a72:	464b      	mov	r3, r9
 8005a74:	1891      	adds	r1, r2, r2
 8005a76:	63b9      	str	r1, [r7, #56]	@ 0x38
 8005a78:	415b      	adcs	r3, r3
 8005a7a:	63fb      	str	r3, [r7, #60]	@ 0x3c
 8005a7c:	e9d7 230e 	ldrd	r2, r3, [r7, #56]	@ 0x38
 8005a80:	4641      	mov	r1, r8
 8005a82:	1851      	adds	r1, r2, r1
 8005a84:	6339      	str	r1, [r7, #48]	@ 0x30
 8005a86:	4649      	mov	r1, r9
 8005a88:	414b      	adcs	r3, r1
 8005a8a:	637b      	str	r3, [r7, #52]	@ 0x34
 8005a8c:	f04f 0200 	mov.w	r2, #0
 8005a90:	f04f 0300 	mov.w	r3, #0
 8005a94:	e9d7 ab0c 	ldrd	sl, fp, [r7, #48]	@ 0x30
 8005a98:	4659      	mov	r1, fp
 8005a9a:	00cb      	lsls	r3, r1, #3
 8005a9c:	4651      	mov	r1, sl
 8005a9e:	ea43 7351 	orr.w	r3, r3, r1, lsr #29
 8005aa2:	4651      	mov	r1, sl
 8005aa4:	00ca      	lsls	r2, r1, #3
 8005aa6:	4610      	mov	r0, r2
 8005aa8:	4619      	mov	r1, r3
 8005aaa:	4603      	mov	r3, r0
 8005aac:	4642      	mov	r2, r8
 8005aae:	189b      	adds	r3, r3, r2
 8005ab0:	f8c7 30b0 	str.w	r3, [r7, #176]	@ 0xb0
 8005ab4:	464b      	mov	r3, r9
 8005ab6:	460a      	mov	r2, r1
 8005ab8:	eb42 0303 	adc.w	r3, r2, r3
 8005abc:	f8c7 30b4 	str.w	r3, [r7, #180]	@ 0xb4
 8005ac0:	f8d7 30f4 	ldr.w	r3, [r7, #244]	@ 0xf4
 8005ac4:	685b      	ldr	r3, [r3, #4]
 8005ac6:	2200      	movs	r2, #0
 8005ac8:	f8c7 30a8 	str.w	r3, [r7, #168]	@ 0xa8
 8005acc:	f8c7 20ac 	str.w	r2, [r7, #172]	@ 0xac
 8005ad0:	e9d7 122a 	ldrd	r1, r2, [r7, #168]	@ 0xa8
 8005ad4:	460b      	mov	r3, r1
 8005ad6:	18db      	adds	r3, r3, r3
 8005ad8:	62bb      	str	r3, [r7, #40]	@ 0x28
 8005ada:	4613      	mov	r3, r2
 8005adc:	eb42 0303 	adc.w	r3, r2, r3
 8005ae0:	62fb      	str	r3, [r7, #44]	@ 0x2c
 8005ae2:	e9d7 230a 	ldrd	r2, r3, [r7, #40]	@ 0x28
 8005ae6:	e9d7 012c 	ldrd	r0, r1, [r7, #176]	@ 0xb0
 8005aea:	f7fb f8cd 	bl	8000c88 <__aeabi_uldivmod>
 8005aee:	4602      	mov	r2, r0
 8005af0:	460b      	mov	r3, r1
 8005af2:	4b0d      	ldr	r3, [pc, #52]	@ (8005b28 <UART_SetConfig+0x2d4>)
 8005af4:	fba3 1302 	umull	r1, r3, r3, r2
 8005af8:	095b      	lsrs	r3, r3, #5
 8005afa:	2164      	movs	r1, #100	@ 0x64
 8005afc:	fb01 f303 	mul.w	r3, r1, r3
 8005b00:	1ad3      	subs	r3, r2, r3
 8005b02:	00db      	lsls	r3, r3, #3
 8005b04:	3332      	adds	r3, #50	@ 0x32
 8005b06:	4a08      	ldr	r2, [pc, #32]	@ (8005b28 <UART_SetConfig+0x2d4>)
 8005b08:	fba2 2303 	umull	r2, r3, r2, r3
 8005b0c:	095b      	lsrs	r3, r3, #5
 8005b0e:	f003 0207 	and.w	r2, r3, #7
 8005b12:	f8d7 30f4 	ldr.w	r3, [r7, #244]	@ 0xf4
 8005b16:	681b      	ldr	r3, [r3, #0]
 8005b18:	4422      	add	r2, r4
 8005b1a:	609a      	str	r2, [r3, #8]
  }
  else
  {
    huart->Instance->BRR = UART_BRR_SAMPLING16(pclk, huart->Init.BaudRate);
  }
}
 8005b1c:	e106      	b.n	8005d2c <UART_SetConfig+0x4d8>
 8005b1e:	bf00      	nop
 8005b20:	40011000 	.word	0x40011000
 8005b24:	40011400 	.word	0x40011400
 8005b28:	51eb851f 	.word	0x51eb851f
    huart->Instance->BRR = UART_BRR_SAMPLING16(pclk, huart->Init.BaudRate);
 8005b2c:	f8d7 30fc 	ldr.w	r3, [r7, #252]	@ 0xfc
 8005b30:	2200      	movs	r2, #0
 8005b32:	f8c7 30a0 	str.w	r3, [r7, #160]	@ 0xa0
 8005b36:	f8c7 20a4 	str.w	r2, [r7, #164]	@ 0xa4
 8005b3a:	e9d7 8928 	ldrd	r8, r9, [r7, #160]	@ 0xa0
 8005b3e:	4642      	mov	r2, r8
 8005b40:	464b      	mov	r3, r9
 8005b42:	1891      	adds	r1, r2, r2
 8005b44:	6239      	str	r1, [r7, #32]
 8005b46:	415b      	adcs	r3, r3
 8005b48:	627b      	str	r3, [r7, #36]	@ 0x24
 8005b4a:	e9d7 2308 	ldrd	r2, r3, [r7, #32]
 8005b4e:	4641      	mov	r1, r8
 8005b50:	1854      	adds	r4, r2, r1
 8005b52:	4649      	mov	r1, r9
 8005b54:	eb43 0501 	adc.w	r5, r3, r1
 8005b58:	f04f 0200 	mov.w	r2, #0
 8005b5c:	f04f 0300 	mov.w	r3, #0
 8005b60:	00eb      	lsls	r3, r5, #3
 8005b62:	ea43 7354 	orr.w	r3, r3, r4, lsr #29
 8005b66:	00e2      	lsls	r2, r4, #3
 8005b68:	4614      	mov	r4, r2
 8005b6a:	461d      	mov	r5, r3
 8005b6c:	4643      	mov	r3, r8
 8005b6e:	18e3      	adds	r3, r4, r3
 8005b70:	f8c7 3098 	str.w	r3, [r7, #152]	@ 0x98
 8005b74:	464b      	mov	r3, r9
 8005b76:	eb45 0303 	adc.w	r3, r5, r3
 8005b7a:	f8c7 309c 	str.w	r3, [r7, #156]	@ 0x9c
 8005b7e:	f8d7 30f4 	ldr.w	r3, [r7, #244]	@ 0xf4
 8005b82:	685b      	ldr	r3, [r3, #4]
 8005b84:	2200      	movs	r2, #0
 8005b86:	f8c7 3090 	str.w	r3, [r7, #144]	@ 0x90
 8005b8a:	f8c7 2094 	str.w	r2, [r7, #148]	@ 0x94
 8005b8e:	f04f 0200 	mov.w	r2, #0
 8005b92:	f04f 0300 	mov.w	r3, #0
 8005b96:	e9d7 4524 	ldrd	r4, r5, [r7, #144]	@ 0x90
 8005b9a:	4629      	mov	r1, r5
 8005b9c:	008b      	lsls	r3, r1, #2
 8005b9e:	4621      	mov	r1, r4
 8005ba0:	ea43 7391 	orr.w	r3, r3, r1, lsr #30
 8005ba4:	4621      	mov	r1, r4
 8005ba6:	008a      	lsls	r2, r1, #2
 8005ba8:	e9d7 0126 	ldrd	r0, r1, [r7, #152]	@ 0x98
 8005bac:	f7fb f86c 	bl	8000c88 <__aeabi_uldivmod>
 8005bb0:	4602      	mov	r2, r0
 8005bb2:	460b      	mov	r3, r1
 8005bb4:	4b60      	ldr	r3, [pc, #384]	@ (8005d38 <UART_SetConfig+0x4e4>)
 8005bb6:	fba3 2302 	umull	r2, r3, r3, r2
 8005bba:	095b      	lsrs	r3, r3, #5
 8005bbc:	011c      	lsls	r4, r3, #4
 8005bbe:	f8d7 30fc 	ldr.w	r3, [r7, #252]	@ 0xfc
 8005bc2:	2200      	movs	r2, #0
 8005bc4:	f8c7 3088 	str.w	r3, [r7, #136]	@ 0x88
 8005bc8:	f8c7 208c 	str.w	r2, [r7, #140]	@ 0x8c
 8005bcc:	e9d7 8922 	ldrd	r8, r9, [r7, #136]	@ 0x88
 8005bd0:	4642      	mov	r2, r8
 8005bd2:	464b      	mov	r3, r9
 8005bd4:	1891      	adds	r1, r2, r2
 8005bd6:	61b9      	str	r1, [r7, #24]
 8005bd8:	415b      	adcs	r3, r3
 8005bda:	61fb      	str	r3, [r7, #28]
 8005bdc:	e9d7 2306 	ldrd	r2, r3, [r7, #24]
 8005be0:	4641      	mov	r1, r8
 8005be2:	1851      	adds	r1, r2, r1
 8005be4:	6139      	str	r1, [r7, #16]
 8005be6:	4649      	mov	r1, r9
 8005be8:	414b      	adcs	r3, r1
 8005bea:	617b      	str	r3, [r7, #20]
 8005bec:	f04f 0200 	mov.w	r2, #0
 8005bf0:	f04f 0300 	mov.w	r3, #0
 8005bf4:	e9d7 ab04 	ldrd	sl, fp, [r7, #16]
 8005bf8:	4659      	mov	r1, fp
 8005bfa:	00cb      	lsls	r3, r1, #3
 8005bfc:	4651      	mov	r1, sl
 8005bfe:	ea43 7351 	orr.w	r3, r3, r1, lsr #29
 8005c02:	4651      	mov	r1, sl
 8005c04:	00ca      	lsls	r2, r1, #3
 8005c06:	4610      	mov	r0, r2
 8005c08:	4619      	mov	r1, r3
 8005c0a:	4603      	mov	r3, r0
 8005c0c:	4642      	mov	r2, r8
 8005c0e:	189b      	adds	r3, r3, r2
 8005c10:	f8c7 3080 	str.w	r3, [r7, #128]	@ 0x80
 8005c14:	464b      	mov	r3, r9
 8005c16:	460a      	mov	r2, r1
 8005c18:	eb42 0303 	adc.w	r3, r2, r3
 8005c1c:	f8c7 3084 	str.w	r3, [r7, #132]	@ 0x84
 8005c20:	f8d7 30f4 	ldr.w	r3, [r7, #244]	@ 0xf4
 8005c24:	685b      	ldr	r3, [r3, #4]
 8005c26:	2200      	movs	r2, #0
 8005c28:	67bb      	str	r3, [r7, #120]	@ 0x78
 8005c2a:	67fa      	str	r2, [r7, #124]	@ 0x7c
 8005c2c:	f04f 0200 	mov.w	r2, #0
 8005c30:	f04f 0300 	mov.w	r3, #0
 8005c34:	e9d7 891e 	ldrd	r8, r9, [r7, #120]	@ 0x78
 8005c38:	4649      	mov	r1, r9
 8005c3a:	008b      	lsls	r3, r1, #2
 8005c3c:	4641      	mov	r1, r8
 8005c3e:	ea43 7391 	orr.w	r3, r3, r1, lsr #30
 8005c42:	4641      	mov	r1, r8
 8005c44:	008a      	lsls	r2, r1, #2
 8005c46:	e9d7 0120 	ldrd	r0, r1, [r7, #128]	@ 0x80
 8005c4a:	f7fb f81d 	bl	8000c88 <__aeabi_uldivmod>
 8005c4e:	4602      	mov	r2, r0
 8005c50:	460b      	mov	r3, r1
 8005c52:	4611      	mov	r1, r2
 8005c54:	4b38      	ldr	r3, [pc, #224]	@ (8005d38 <UART_SetConfig+0x4e4>)
 8005c56:	fba3 2301 	umull	r2, r3, r3, r1
 8005c5a:	095b      	lsrs	r3, r3, #5
 8005c5c:	2264      	movs	r2, #100	@ 0x64
 8005c5e:	fb02 f303 	mul.w	r3, r2, r3
 8005c62:	1acb      	subs	r3, r1, r3
 8005c64:	011b      	lsls	r3, r3, #4
 8005c66:	3332      	adds	r3, #50	@ 0x32
 8005c68:	4a33      	ldr	r2, [pc, #204]	@ (8005d38 <UART_SetConfig+0x4e4>)
 8005c6a:	fba2 2303 	umull	r2, r3, r2, r3
 8005c6e:	095b      	lsrs	r3, r3, #5
 8005c70:	f003 03f0 	and.w	r3, r3, #240	@ 0xf0
 8005c74:	441c      	add	r4, r3
 8005c76:	f8d7 30fc 	ldr.w	r3, [r7, #252]	@ 0xfc
 8005c7a:	2200      	movs	r2, #0
 8005c7c:	673b      	str	r3, [r7, #112]	@ 0x70
 8005c7e:	677a      	str	r2, [r7, #116]	@ 0x74
 8005c80:	e9d7 891c 	ldrd	r8, r9, [r7, #112]	@ 0x70
 8005c84:	4642      	mov	r2, r8
 8005c86:	464b      	mov	r3, r9
 8005c88:	1891      	adds	r1, r2, r2
 8005c8a:	60b9      	str	r1, [r7, #8]
 8005c8c:	415b      	adcs	r3, r3
 8005c8e:	60fb      	str	r3, [r7, #12]
 8005c90:	e9d7 2302 	ldrd	r2, r3, [r7, #8]
 8005c94:	4641      	mov	r1, r8
 8005c96:	1851      	adds	r1, r2, r1
 8005c98:	6039      	str	r1, [r7, #0]
 8005c9a:	4649      	mov	r1, r9
 8005c9c:	414b      	adcs	r3, r1
 8005c9e:	607b      	str	r3, [r7, #4]
 8005ca0:	f04f 0200 	mov.w	r2, #0
 8005ca4:	f04f 0300 	mov.w	r3, #0
 8005ca8:	e9d7 ab00 	ldrd	sl, fp, [r7]
 8005cac:	4659      	mov	r1, fp
 8005cae:	00cb      	lsls	r3, r1, #3
 8005cb0:	4651      	mov	r1, sl
 8005cb2:	ea43 7351 	orr.w	r3, r3, r1, lsr #29
 8005cb6:	4651      	mov	r1, sl
 8005cb8:	00ca      	lsls	r2, r1, #3
 8005cba:	4610      	mov	r0, r2
 8005cbc:	4619      	mov	r1, r3
 8005cbe:	4603      	mov	r3, r0
 8005cc0:	4642      	mov	r2, r8
 8005cc2:	189b      	adds	r3, r3, r2
 8005cc4:	66bb      	str	r3, [r7, #104]	@ 0x68
 8005cc6:	464b      	mov	r3, r9
 8005cc8:	460a      	mov	r2, r1
 8005cca:	eb42 0303 	adc.w	r3, r2, r3
 8005cce:	66fb      	str	r3, [r7, #108]	@ 0x6c
 8005cd0:	f8d7 30f4 	ldr.w	r3, [r7, #244]	@ 0xf4
 8005cd4:	685b      	ldr	r3, [r3, #4]
 8005cd6:	2200      	movs	r2, #0
 8005cd8:	663b      	str	r3, [r7, #96]	@ 0x60
 8005cda:	667a      	str	r2, [r7, #100]	@ 0x64
 8005cdc:	f04f 0200 	mov.w	r2, #0
 8005ce0:	f04f 0300 	mov.w	r3, #0
 8005ce4:	e9d7 8918 	ldrd	r8, r9, [r7, #96]	@ 0x60
 8005ce8:	4649      	mov	r1, r9
 8005cea:	008b      	lsls	r3, r1, #2
 8005cec:	4641      	mov	r1, r8
 8005cee:	ea43 7391 	orr.w	r3, r3, r1, lsr #30
 8005cf2:	4641      	mov	r1, r8
 8005cf4:	008a      	lsls	r2, r1, #2
 8005cf6:	e9d7 011a 	ldrd	r0, r1, [r7, #104]	@ 0x68
 8005cfa:	f7fa ffc5 	bl	8000c88 <__aeabi_uldivmod>
 8005cfe:	4602      	mov	r2, r0
 8005d00:	460b      	mov	r3, r1
 8005d02:	4b0d      	ldr	r3, [pc, #52]	@ (8005d38 <UART_SetConfig+0x4e4>)
 8005d04:	fba3 1302 	umull	r1, r3, r3, r2
 8005d08:	095b      	lsrs	r3, r3, #5
 8005d0a:	2164      	movs	r1, #100	@ 0x64
 8005d0c:	fb01 f303 	mul.w	r3, r1, r3
 8005d10:	1ad3      	subs	r3, r2, r3
 8005d12:	011b      	lsls	r3, r3, #4
 8005d14:	3332      	adds	r3, #50	@ 0x32
 8005d16:	4a08      	ldr	r2, [pc, #32]	@ (8005d38 <UART_SetConfig+0x4e4>)
 8005d18:	fba2 2303 	umull	r2, r3, r2, r3
 8005d1c:	095b      	lsrs	r3, r3, #5
 8005d1e:	f003 020f 	and.w	r2, r3, #15
 8005d22:	f8d7 30f4 	ldr.w	r3, [r7, #244]	@ 0xf4
 8005d26:	681b      	ldr	r3, [r3, #0]
 8005d28:	4422      	add	r2, r4
 8005d2a:	609a      	str	r2, [r3, #8]
}
 8005d2c:	bf00      	nop
 8005d2e:	f507 7780 	add.w	r7, r7, #256	@ 0x100
 8005d32:	46bd      	mov	sp, r7
 8005d34:	e8bd 8fb0 	ldmia.w	sp!, {r4, r5, r7, r8, r9, sl, fp, pc}
 8005d38:	51eb851f 	.word	0x51eb851f

08005d3c <__cvt>:
 8005d3c:	e92d 47ff 	stmdb	sp!, {r0, r1, r2, r3, r4, r5, r6, r7, r8, r9, sl, lr}
 8005d40:	ec57 6b10 	vmov	r6, r7, d0
 8005d44:	2f00      	cmp	r7, #0
 8005d46:	460c      	mov	r4, r1
 8005d48:	4619      	mov	r1, r3
 8005d4a:	463b      	mov	r3, r7
 8005d4c:	bfbb      	ittet	lt
 8005d4e:	f107 4300 	addlt.w	r3, r7, #2147483648	@ 0x80000000
 8005d52:	461f      	movlt	r7, r3
 8005d54:	2300      	movge	r3, #0
 8005d56:	232d      	movlt	r3, #45	@ 0x2d
 8005d58:	700b      	strb	r3, [r1, #0]
 8005d5a:	9b0d      	ldr	r3, [sp, #52]	@ 0x34
 8005d5c:	f8dd a030 	ldr.w	sl, [sp, #48]	@ 0x30
 8005d60:	4691      	mov	r9, r2
 8005d62:	f023 0820 	bic.w	r8, r3, #32
 8005d66:	bfbc      	itt	lt
 8005d68:	4632      	movlt	r2, r6
 8005d6a:	4616      	movlt	r6, r2
 8005d6c:	f1b8 0f46 	cmp.w	r8, #70	@ 0x46
 8005d70:	d005      	beq.n	8005d7e <__cvt+0x42>
 8005d72:	f1b8 0f45 	cmp.w	r8, #69	@ 0x45
 8005d76:	d100      	bne.n	8005d7a <__cvt+0x3e>
 8005d78:	3401      	adds	r4, #1
 8005d7a:	2102      	movs	r1, #2
 8005d7c:	e000      	b.n	8005d80 <__cvt+0x44>
 8005d7e:	2103      	movs	r1, #3
 8005d80:	ab03      	add	r3, sp, #12
 8005d82:	9301      	str	r3, [sp, #4]
 8005d84:	ab02      	add	r3, sp, #8
 8005d86:	9300      	str	r3, [sp, #0]
 8005d88:	ec47 6b10 	vmov	d0, r6, r7
 8005d8c:	4653      	mov	r3, sl
 8005d8e:	4622      	mov	r2, r4
 8005d90:	f000 fdd2 	bl	8006938 <_dtoa_r>
 8005d94:	f1b8 0f47 	cmp.w	r8, #71	@ 0x47
 8005d98:	4605      	mov	r5, r0
 8005d9a:	d119      	bne.n	8005dd0 <__cvt+0x94>
 8005d9c:	f019 0f01 	tst.w	r9, #1
 8005da0:	d00e      	beq.n	8005dc0 <__cvt+0x84>
 8005da2:	eb00 0904 	add.w	r9, r0, r4
 8005da6:	2200      	movs	r2, #0
 8005da8:	2300      	movs	r3, #0
 8005daa:	4630      	mov	r0, r6
 8005dac:	4639      	mov	r1, r7
 8005dae:	f7fa feab 	bl	8000b08 <__aeabi_dcmpeq>
 8005db2:	b108      	cbz	r0, 8005db8 <__cvt+0x7c>
 8005db4:	f8cd 900c 	str.w	r9, [sp, #12]
 8005db8:	2230      	movs	r2, #48	@ 0x30
 8005dba:	9b03      	ldr	r3, [sp, #12]
 8005dbc:	454b      	cmp	r3, r9
 8005dbe:	d31e      	bcc.n	8005dfe <__cvt+0xc2>
 8005dc0:	9b03      	ldr	r3, [sp, #12]
 8005dc2:	9a0e      	ldr	r2, [sp, #56]	@ 0x38
 8005dc4:	1b5b      	subs	r3, r3, r5
 8005dc6:	4628      	mov	r0, r5
 8005dc8:	6013      	str	r3, [r2, #0]
 8005dca:	b004      	add	sp, #16
 8005dcc:	e8bd 87f0 	ldmia.w	sp!, {r4, r5, r6, r7, r8, r9, sl, pc}
 8005dd0:	f1b8 0f46 	cmp.w	r8, #70	@ 0x46
 8005dd4:	eb00 0904 	add.w	r9, r0, r4
 8005dd8:	d1e5      	bne.n	8005da6 <__cvt+0x6a>
 8005dda:	7803      	ldrb	r3, [r0, #0]
 8005ddc:	2b30      	cmp	r3, #48	@ 0x30
 8005dde:	d10a      	bne.n	8005df6 <__cvt+0xba>
 8005de0:	2200      	movs	r2, #0
 8005de2:	2300      	movs	r3, #0
 8005de4:	4630      	mov	r0, r6
 8005de6:	4639      	mov	r1, r7
 8005de8:	f7fa fe8e 	bl	8000b08 <__aeabi_dcmpeq>
 8005dec:	b918      	cbnz	r0, 8005df6 <__cvt+0xba>
 8005dee:	f1c4 0401 	rsb	r4, r4, #1
 8005df2:	f8ca 4000 	str.w	r4, [sl]
 8005df6:	f8da 3000 	ldr.w	r3, [sl]
 8005dfa:	4499      	add	r9, r3
 8005dfc:	e7d3      	b.n	8005da6 <__cvt+0x6a>
 8005dfe:	1c59      	adds	r1, r3, #1
 8005e00:	9103      	str	r1, [sp, #12]
 8005e02:	701a      	strb	r2, [r3, #0]
 8005e04:	e7d9      	b.n	8005dba <__cvt+0x7e>

08005e06 <__exponent>:
 8005e06:	b5f7      	push	{r0, r1, r2, r4, r5, r6, r7, lr}
 8005e08:	2900      	cmp	r1, #0
 8005e0a:	bfba      	itte	lt
 8005e0c:	4249      	neglt	r1, r1
 8005e0e:	232d      	movlt	r3, #45	@ 0x2d
 8005e10:	232b      	movge	r3, #43	@ 0x2b
 8005e12:	2909      	cmp	r1, #9
 8005e14:	7002      	strb	r2, [r0, #0]
 8005e16:	7043      	strb	r3, [r0, #1]
 8005e18:	dd29      	ble.n	8005e6e <__exponent+0x68>
 8005e1a:	f10d 0307 	add.w	r3, sp, #7
 8005e1e:	461d      	mov	r5, r3
 8005e20:	270a      	movs	r7, #10
 8005e22:	461a      	mov	r2, r3
 8005e24:	fbb1 f6f7 	udiv	r6, r1, r7
 8005e28:	fb07 1416 	mls	r4, r7, r6, r1
 8005e2c:	3430      	adds	r4, #48	@ 0x30
 8005e2e:	f802 4c01 	strb.w	r4, [r2, #-1]
 8005e32:	460c      	mov	r4, r1
 8005e34:	2c63      	cmp	r4, #99	@ 0x63
 8005e36:	f103 33ff 	add.w	r3, r3, #4294967295	@ 0xffffffff
 8005e3a:	4631      	mov	r1, r6
 8005e3c:	dcf1      	bgt.n	8005e22 <__exponent+0x1c>
 8005e3e:	3130      	adds	r1, #48	@ 0x30
 8005e40:	1e94      	subs	r4, r2, #2
 8005e42:	f803 1c01 	strb.w	r1, [r3, #-1]
 8005e46:	1c41      	adds	r1, r0, #1
 8005e48:	4623      	mov	r3, r4
 8005e4a:	42ab      	cmp	r3, r5
 8005e4c:	d30a      	bcc.n	8005e64 <__exponent+0x5e>
 8005e4e:	f10d 0309 	add.w	r3, sp, #9
 8005e52:	1a9b      	subs	r3, r3, r2
 8005e54:	42ac      	cmp	r4, r5
 8005e56:	bf88      	it	hi
 8005e58:	2300      	movhi	r3, #0
 8005e5a:	3302      	adds	r3, #2
 8005e5c:	4403      	add	r3, r0
 8005e5e:	1a18      	subs	r0, r3, r0
 8005e60:	b003      	add	sp, #12
 8005e62:	bdf0      	pop	{r4, r5, r6, r7, pc}
 8005e64:	f813 6b01 	ldrb.w	r6, [r3], #1
 8005e68:	f801 6f01 	strb.w	r6, [r1, #1]!
 8005e6c:	e7ed      	b.n	8005e4a <__exponent+0x44>
 8005e6e:	2330      	movs	r3, #48	@ 0x30
 8005e70:	3130      	adds	r1, #48	@ 0x30
 8005e72:	7083      	strb	r3, [r0, #2]
 8005e74:	70c1      	strb	r1, [r0, #3]
 8005e76:	1d03      	adds	r3, r0, #4
 8005e78:	e7f1      	b.n	8005e5e <__exponent+0x58>
	...

08005e7c <_printf_float>:
 8005e7c:	e92d 4ff0 	stmdb	sp!, {r4, r5, r6, r7, r8, r9, sl, fp, lr}
 8005e80:	b08d      	sub	sp, #52	@ 0x34
 8005e82:	460c      	mov	r4, r1
 8005e84:	f8dd 8058 	ldr.w	r8, [sp, #88]	@ 0x58
 8005e88:	4616      	mov	r6, r2
 8005e8a:	461f      	mov	r7, r3
 8005e8c:	4605      	mov	r5, r0
 8005e8e:	f000 fc97 	bl	80067c0 <_localeconv_r>
 8005e92:	6803      	ldr	r3, [r0, #0]
 8005e94:	9304      	str	r3, [sp, #16]
 8005e96:	4618      	mov	r0, r3
 8005e98:	f7fa fa0a 	bl	80002b0 <strlen>
 8005e9c:	2300      	movs	r3, #0
 8005e9e:	930a      	str	r3, [sp, #40]	@ 0x28
 8005ea0:	f8d8 3000 	ldr.w	r3, [r8]
 8005ea4:	9005      	str	r0, [sp, #20]
 8005ea6:	3307      	adds	r3, #7
 8005ea8:	f023 0307 	bic.w	r3, r3, #7
 8005eac:	f103 0208 	add.w	r2, r3, #8
 8005eb0:	f894 a018 	ldrb.w	sl, [r4, #24]
 8005eb4:	f8d4 b000 	ldr.w	fp, [r4]
 8005eb8:	f8c8 2000 	str.w	r2, [r8]
 8005ebc:	e9d3 8900 	ldrd	r8, r9, [r3]
 8005ec0:	f029 4300 	bic.w	r3, r9, #2147483648	@ 0x80000000
 8005ec4:	9307      	str	r3, [sp, #28]
 8005ec6:	f8cd 8018 	str.w	r8, [sp, #24]
 8005eca:	e9c4 8912 	strd	r8, r9, [r4, #72]	@ 0x48
 8005ece:	e9dd 0106 	ldrd	r0, r1, [sp, #24]
 8005ed2:	4b9c      	ldr	r3, [pc, #624]	@ (8006144 <_printf_float+0x2c8>)
 8005ed4:	f04f 32ff 	mov.w	r2, #4294967295	@ 0xffffffff
 8005ed8:	f7fa fe48 	bl	8000b6c <__aeabi_dcmpun>
 8005edc:	bb70      	cbnz	r0, 8005f3c <_printf_float+0xc0>
 8005ede:	e9dd 0106 	ldrd	r0, r1, [sp, #24]
 8005ee2:	4b98      	ldr	r3, [pc, #608]	@ (8006144 <_printf_float+0x2c8>)
 8005ee4:	f04f 32ff 	mov.w	r2, #4294967295	@ 0xffffffff
 8005ee8:	f7fa fe22 	bl	8000b30 <__aeabi_dcmple>
 8005eec:	bb30      	cbnz	r0, 8005f3c <_printf_float+0xc0>
 8005eee:	2200      	movs	r2, #0
 8005ef0:	2300      	movs	r3, #0
 8005ef2:	4640      	mov	r0, r8
 8005ef4:	4649      	mov	r1, r9
 8005ef6:	f7fa fe11 	bl	8000b1c <__aeabi_dcmplt>
 8005efa:	b110      	cbz	r0, 8005f02 <_printf_float+0x86>
 8005efc:	232d      	movs	r3, #45	@ 0x2d
 8005efe:	f884 3043 	strb.w	r3, [r4, #67]	@ 0x43
 8005f02:	4a91      	ldr	r2, [pc, #580]	@ (8006148 <_printf_float+0x2cc>)
 8005f04:	4b91      	ldr	r3, [pc, #580]	@ (800614c <_printf_float+0x2d0>)
 8005f06:	f1ba 0f47 	cmp.w	sl, #71	@ 0x47
 8005f0a:	bf94      	ite	ls
 8005f0c:	4690      	movls	r8, r2
 8005f0e:	4698      	movhi	r8, r3
 8005f10:	2303      	movs	r3, #3
 8005f12:	6123      	str	r3, [r4, #16]
 8005f14:	f02b 0304 	bic.w	r3, fp, #4
 8005f18:	6023      	str	r3, [r4, #0]
 8005f1a:	f04f 0900 	mov.w	r9, #0
 8005f1e:	9700      	str	r7, [sp, #0]
 8005f20:	4633      	mov	r3, r6
 8005f22:	aa0b      	add	r2, sp, #44	@ 0x2c
 8005f24:	4621      	mov	r1, r4
 8005f26:	4628      	mov	r0, r5
 8005f28:	f000 f9d2 	bl	80062d0 <_printf_common>
 8005f2c:	3001      	adds	r0, #1
 8005f2e:	f040 808d 	bne.w	800604c <_printf_float+0x1d0>
 8005f32:	f04f 30ff 	mov.w	r0, #4294967295	@ 0xffffffff
 8005f36:	b00d      	add	sp, #52	@ 0x34
 8005f38:	e8bd 8ff0 	ldmia.w	sp!, {r4, r5, r6, r7, r8, r9, sl, fp, pc}
 8005f3c:	4642      	mov	r2, r8
 8005f3e:	464b      	mov	r3, r9
 8005f40:	4640      	mov	r0, r8
 8005f42:	4649      	mov	r1, r9
 8005f44:	f7fa fe12 	bl	8000b6c <__aeabi_dcmpun>
 8005f48:	b140      	cbz	r0, 8005f5c <_printf_float+0xe0>
 8005f4a:	464b      	mov	r3, r9
 8005f4c:	2b00      	cmp	r3, #0
 8005f4e:	bfbc      	itt	lt
 8005f50:	232d      	movlt	r3, #45	@ 0x2d
 8005f52:	f884 3043 	strblt.w	r3, [r4, #67]	@ 0x43
 8005f56:	4a7e      	ldr	r2, [pc, #504]	@ (8006150 <_printf_float+0x2d4>)
 8005f58:	4b7e      	ldr	r3, [pc, #504]	@ (8006154 <_printf_float+0x2d8>)
 8005f5a:	e7d4      	b.n	8005f06 <_printf_float+0x8a>
 8005f5c:	6863      	ldr	r3, [r4, #4]
 8005f5e:	f00a 02df 	and.w	r2, sl, #223	@ 0xdf
 8005f62:	9206      	str	r2, [sp, #24]
 8005f64:	1c5a      	adds	r2, r3, #1
 8005f66:	d13b      	bne.n	8005fe0 <_printf_float+0x164>
 8005f68:	2306      	movs	r3, #6
 8005f6a:	6063      	str	r3, [r4, #4]
 8005f6c:	f44b 6280 	orr.w	r2, fp, #1024	@ 0x400
 8005f70:	2300      	movs	r3, #0
 8005f72:	6022      	str	r2, [r4, #0]
 8005f74:	9303      	str	r3, [sp, #12]
 8005f76:	ab0a      	add	r3, sp, #40	@ 0x28
 8005f78:	e9cd a301 	strd	sl, r3, [sp, #4]
 8005f7c:	ab09      	add	r3, sp, #36	@ 0x24
 8005f7e:	9300      	str	r3, [sp, #0]
 8005f80:	6861      	ldr	r1, [r4, #4]
 8005f82:	ec49 8b10 	vmov	d0, r8, r9
 8005f86:	f10d 0323 	add.w	r3, sp, #35	@ 0x23
 8005f8a:	4628      	mov	r0, r5
 8005f8c:	f7ff fed6 	bl	8005d3c <__cvt>
 8005f90:	9b06      	ldr	r3, [sp, #24]
 8005f92:	9909      	ldr	r1, [sp, #36]	@ 0x24
 8005f94:	2b47      	cmp	r3, #71	@ 0x47
 8005f96:	4680      	mov	r8, r0
 8005f98:	d129      	bne.n	8005fee <_printf_float+0x172>
 8005f9a:	1cc8      	adds	r0, r1, #3
 8005f9c:	db02      	blt.n	8005fa4 <_printf_float+0x128>
 8005f9e:	6863      	ldr	r3, [r4, #4]
 8005fa0:	4299      	cmp	r1, r3
 8005fa2:	dd41      	ble.n	8006028 <_printf_float+0x1ac>
 8005fa4:	f1aa 0a02 	sub.w	sl, sl, #2
 8005fa8:	fa5f fa8a 	uxtb.w	sl, sl
 8005fac:	3901      	subs	r1, #1
 8005fae:	4652      	mov	r2, sl
 8005fb0:	f104 0050 	add.w	r0, r4, #80	@ 0x50
 8005fb4:	9109      	str	r1, [sp, #36]	@ 0x24
 8005fb6:	f7ff ff26 	bl	8005e06 <__exponent>
 8005fba:	9a0a      	ldr	r2, [sp, #40]	@ 0x28
 8005fbc:	1813      	adds	r3, r2, r0
 8005fbe:	2a01      	cmp	r2, #1
 8005fc0:	4681      	mov	r9, r0
 8005fc2:	6123      	str	r3, [r4, #16]
 8005fc4:	dc02      	bgt.n	8005fcc <_printf_float+0x150>
 8005fc6:	6822      	ldr	r2, [r4, #0]
 8005fc8:	07d2      	lsls	r2, r2, #31
 8005fca:	d501      	bpl.n	8005fd0 <_printf_float+0x154>
 8005fcc:	3301      	adds	r3, #1
 8005fce:	6123      	str	r3, [r4, #16]
 8005fd0:	f89d 3023 	ldrb.w	r3, [sp, #35]	@ 0x23
 8005fd4:	2b00      	cmp	r3, #0
 8005fd6:	d0a2      	beq.n	8005f1e <_printf_float+0xa2>
 8005fd8:	232d      	movs	r3, #45	@ 0x2d
 8005fda:	f884 3043 	strb.w	r3, [r4, #67]	@ 0x43
 8005fde:	e79e      	b.n	8005f1e <_printf_float+0xa2>
 8005fe0:	9a06      	ldr	r2, [sp, #24]
 8005fe2:	2a47      	cmp	r2, #71	@ 0x47
 8005fe4:	d1c2      	bne.n	8005f6c <_printf_float+0xf0>
 8005fe6:	2b00      	cmp	r3, #0
 8005fe8:	d1c0      	bne.n	8005f6c <_printf_float+0xf0>
 8005fea:	2301      	movs	r3, #1
 8005fec:	e7bd      	b.n	8005f6a <_printf_float+0xee>
 8005fee:	f1ba 0f65 	cmp.w	sl, #101	@ 0x65
 8005ff2:	d9db      	bls.n	8005fac <_printf_float+0x130>
 8005ff4:	f1ba 0f66 	cmp.w	sl, #102	@ 0x66
 8005ff8:	d118      	bne.n	800602c <_printf_float+0x1b0>
 8005ffa:	2900      	cmp	r1, #0
 8005ffc:	6863      	ldr	r3, [r4, #4]
 8005ffe:	dd0b      	ble.n	8006018 <_printf_float+0x19c>
 8006000:	6121      	str	r1, [r4, #16]
 8006002:	b913      	cbnz	r3, 800600a <_printf_float+0x18e>
 8006004:	6822      	ldr	r2, [r4, #0]
 8006006:	07d0      	lsls	r0, r2, #31
 8006008:	d502      	bpl.n	8006010 <_printf_float+0x194>
 800600a:	3301      	adds	r3, #1
 800600c:	440b      	add	r3, r1
 800600e:	6123      	str	r3, [r4, #16]
 8006010:	65a1      	str	r1, [r4, #88]	@ 0x58
 8006012:	f04f 0900 	mov.w	r9, #0
 8006016:	e7db      	b.n	8005fd0 <_printf_float+0x154>
 8006018:	b913      	cbnz	r3, 8006020 <_printf_float+0x1a4>
 800601a:	6822      	ldr	r2, [r4, #0]
 800601c:	07d2      	lsls	r2, r2, #31
 800601e:	d501      	bpl.n	8006024 <_printf_float+0x1a8>
 8006020:	3302      	adds	r3, #2
 8006022:	e7f4      	b.n	800600e <_printf_float+0x192>
 8006024:	2301      	movs	r3, #1
 8006026:	e7f2      	b.n	800600e <_printf_float+0x192>
 8006028:	f04f 0a67 	mov.w	sl, #103	@ 0x67
 800602c:	9b0a      	ldr	r3, [sp, #40]	@ 0x28
 800602e:	4299      	cmp	r1, r3
 8006030:	db05      	blt.n	800603e <_printf_float+0x1c2>
 8006032:	6823      	ldr	r3, [r4, #0]
 8006034:	6121      	str	r1, [r4, #16]
 8006036:	07d8      	lsls	r0, r3, #31
 8006038:	d5ea      	bpl.n	8006010 <_printf_float+0x194>
 800603a:	1c4b      	adds	r3, r1, #1
 800603c:	e7e7      	b.n	800600e <_printf_float+0x192>
 800603e:	2900      	cmp	r1, #0
 8006040:	bfd4      	ite	le
 8006042:	f1c1 0202 	rsble	r2, r1, #2
 8006046:	2201      	movgt	r2, #1
 8006048:	4413      	add	r3, r2
 800604a:	e7e0      	b.n	800600e <_printf_float+0x192>
 800604c:	6823      	ldr	r3, [r4, #0]
 800604e:	055a      	lsls	r2, r3, #21
 8006050:	d407      	bmi.n	8006062 <_printf_float+0x1e6>
 8006052:	6923      	ldr	r3, [r4, #16]
 8006054:	4642      	mov	r2, r8
 8006056:	4631      	mov	r1, r6
 8006058:	4628      	mov	r0, r5
 800605a:	47b8      	blx	r7
 800605c:	3001      	adds	r0, #1
 800605e:	d12b      	bne.n	80060b8 <_printf_float+0x23c>
 8006060:	e767      	b.n	8005f32 <_printf_float+0xb6>
 8006062:	f1ba 0f65 	cmp.w	sl, #101	@ 0x65
 8006066:	f240 80dd 	bls.w	8006224 <_printf_float+0x3a8>
 800606a:	e9d4 0112 	ldrd	r0, r1, [r4, #72]	@ 0x48
 800606e:	2200      	movs	r2, #0
 8006070:	2300      	movs	r3, #0
 8006072:	f7fa fd49 	bl	8000b08 <__aeabi_dcmpeq>
 8006076:	2800      	cmp	r0, #0
 8006078:	d033      	beq.n	80060e2 <_printf_float+0x266>
 800607a:	4a37      	ldr	r2, [pc, #220]	@ (8006158 <_printf_float+0x2dc>)
 800607c:	2301      	movs	r3, #1
 800607e:	4631      	mov	r1, r6
 8006080:	4628      	mov	r0, r5
 8006082:	47b8      	blx	r7
 8006084:	3001      	adds	r0, #1
 8006086:	f43f af54 	beq.w	8005f32 <_printf_float+0xb6>
 800608a:	e9dd 3809 	ldrd	r3, r8, [sp, #36]	@ 0x24
 800608e:	4543      	cmp	r3, r8
 8006090:	db02      	blt.n	8006098 <_printf_float+0x21c>
 8006092:	6823      	ldr	r3, [r4, #0]
 8006094:	07d8      	lsls	r0, r3, #31
 8006096:	d50f      	bpl.n	80060b8 <_printf_float+0x23c>
 8006098:	e9dd 2304 	ldrd	r2, r3, [sp, #16]
 800609c:	4631      	mov	r1, r6
 800609e:	4628      	mov	r0, r5
 80060a0:	47b8      	blx	r7
 80060a2:	3001      	adds	r0, #1
 80060a4:	f43f af45 	beq.w	8005f32 <_printf_float+0xb6>
 80060a8:	f04f 0900 	mov.w	r9, #0
 80060ac:	f108 38ff 	add.w	r8, r8, #4294967295	@ 0xffffffff
 80060b0:	f104 0a1a 	add.w	sl, r4, #26
 80060b4:	45c8      	cmp	r8, r9
 80060b6:	dc09      	bgt.n	80060cc <_printf_float+0x250>
 80060b8:	6823      	ldr	r3, [r4, #0]
 80060ba:	079b      	lsls	r3, r3, #30
 80060bc:	f100 8103 	bmi.w	80062c6 <_printf_float+0x44a>
 80060c0:	68e0      	ldr	r0, [r4, #12]
 80060c2:	9b0b      	ldr	r3, [sp, #44]	@ 0x2c
 80060c4:	4298      	cmp	r0, r3
 80060c6:	bfb8      	it	lt
 80060c8:	4618      	movlt	r0, r3
 80060ca:	e734      	b.n	8005f36 <_printf_float+0xba>
 80060cc:	2301      	movs	r3, #1
 80060ce:	4652      	mov	r2, sl
 80060d0:	4631      	mov	r1, r6
 80060d2:	4628      	mov	r0, r5
 80060d4:	47b8      	blx	r7
 80060d6:	3001      	adds	r0, #1
 80060d8:	f43f af2b 	beq.w	8005f32 <_printf_float+0xb6>
 80060dc:	f109 0901 	add.w	r9, r9, #1
 80060e0:	e7e8      	b.n	80060b4 <_printf_float+0x238>
 80060e2:	9b09      	ldr	r3, [sp, #36]	@ 0x24
 80060e4:	2b00      	cmp	r3, #0
 80060e6:	dc39      	bgt.n	800615c <_printf_float+0x2e0>
 80060e8:	4a1b      	ldr	r2, [pc, #108]	@ (8006158 <_printf_float+0x2dc>)
 80060ea:	2301      	movs	r3, #1
 80060ec:	4631      	mov	r1, r6
 80060ee:	4628      	mov	r0, r5
 80060f0:	47b8      	blx	r7
 80060f2:	3001      	adds	r0, #1
 80060f4:	f43f af1d 	beq.w	8005f32 <_printf_float+0xb6>
 80060f8:	e9dd 3909 	ldrd	r3, r9, [sp, #36]	@ 0x24
 80060fc:	ea59 0303 	orrs.w	r3, r9, r3
 8006100:	d102      	bne.n	8006108 <_printf_float+0x28c>
 8006102:	6823      	ldr	r3, [r4, #0]
 8006104:	07d9      	lsls	r1, r3, #31
 8006106:	d5d7      	bpl.n	80060b8 <_printf_float+0x23c>
 8006108:	e9dd 2304 	ldrd	r2, r3, [sp, #16]
 800610c:	4631      	mov	r1, r6
 800610e:	4628      	mov	r0, r5
 8006110:	47b8      	blx	r7
 8006112:	3001      	adds	r0, #1
 8006114:	f43f af0d 	beq.w	8005f32 <_printf_float+0xb6>
 8006118:	f04f 0a00 	mov.w	sl, #0
 800611c:	f104 0b1a 	add.w	fp, r4, #26
 8006120:	9b09      	ldr	r3, [sp, #36]	@ 0x24
 8006122:	425b      	negs	r3, r3
 8006124:	4553      	cmp	r3, sl
 8006126:	dc01      	bgt.n	800612c <_printf_float+0x2b0>
 8006128:	464b      	mov	r3, r9
 800612a:	e793      	b.n	8006054 <_printf_float+0x1d8>
 800612c:	2301      	movs	r3, #1
 800612e:	465a      	mov	r2, fp
 8006130:	4631      	mov	r1, r6
 8006132:	4628      	mov	r0, r5
 8006134:	47b8      	blx	r7
 8006136:	3001      	adds	r0, #1
 8006138:	f43f aefb 	beq.w	8005f32 <_printf_float+0xb6>
 800613c:	f10a 0a01 	add.w	sl, sl, #1
 8006140:	e7ee      	b.n	8006120 <_printf_float+0x2a4>
 8006142:	bf00      	nop
 8006144:	7fefffff 	.word	0x7fefffff
 8006148:	08009a20 	.word	0x08009a20
 800614c:	08009a24 	.word	0x08009a24
 8006150:	08009a28 	.word	0x08009a28
 8006154:	08009a2c 	.word	0x08009a2c
 8006158:	08009a30 	.word	0x08009a30
 800615c:	6da3      	ldr	r3, [r4, #88]	@ 0x58
 800615e:	f8dd a028 	ldr.w	sl, [sp, #40]	@ 0x28
 8006162:	4553      	cmp	r3, sl
 8006164:	bfa8      	it	ge
 8006166:	4653      	movge	r3, sl
 8006168:	2b00      	cmp	r3, #0
 800616a:	4699      	mov	r9, r3
 800616c:	dc36      	bgt.n	80061dc <_printf_float+0x360>
 800616e:	f04f 0b00 	mov.w	fp, #0
 8006172:	ea29 79e9 	bic.w	r9, r9, r9, asr #31
 8006176:	f104 021a 	add.w	r2, r4, #26
 800617a:	6da3      	ldr	r3, [r4, #88]	@ 0x58
 800617c:	9306      	str	r3, [sp, #24]
 800617e:	eba3 0309 	sub.w	r3, r3, r9
 8006182:	455b      	cmp	r3, fp
 8006184:	dc31      	bgt.n	80061ea <_printf_float+0x36e>
 8006186:	9b09      	ldr	r3, [sp, #36]	@ 0x24
 8006188:	459a      	cmp	sl, r3
 800618a:	dc3a      	bgt.n	8006202 <_printf_float+0x386>
 800618c:	6823      	ldr	r3, [r4, #0]
 800618e:	07da      	lsls	r2, r3, #31
 8006190:	d437      	bmi.n	8006202 <_printf_float+0x386>
 8006192:	9b09      	ldr	r3, [sp, #36]	@ 0x24
 8006194:	ebaa 0903 	sub.w	r9, sl, r3
 8006198:	9b06      	ldr	r3, [sp, #24]
 800619a:	ebaa 0303 	sub.w	r3, sl, r3
 800619e:	4599      	cmp	r9, r3
 80061a0:	bfa8      	it	ge
 80061a2:	4699      	movge	r9, r3
 80061a4:	f1b9 0f00 	cmp.w	r9, #0
 80061a8:	dc33      	bgt.n	8006212 <_printf_float+0x396>
 80061aa:	f04f 0800 	mov.w	r8, #0
 80061ae:	ea29 79e9 	bic.w	r9, r9, r9, asr #31
 80061b2:	f104 0b1a 	add.w	fp, r4, #26
 80061b6:	9b09      	ldr	r3, [sp, #36]	@ 0x24
 80061b8:	ebaa 0303 	sub.w	r3, sl, r3
 80061bc:	eba3 0309 	sub.w	r3, r3, r9
 80061c0:	4543      	cmp	r3, r8
 80061c2:	f77f af79 	ble.w	80060b8 <_printf_float+0x23c>
 80061c6:	2301      	movs	r3, #1
 80061c8:	465a      	mov	r2, fp
 80061ca:	4631      	mov	r1, r6
 80061cc:	4628      	mov	r0, r5
 80061ce:	47b8      	blx	r7
 80061d0:	3001      	adds	r0, #1
 80061d2:	f43f aeae 	beq.w	8005f32 <_printf_float+0xb6>
 80061d6:	f108 0801 	add.w	r8, r8, #1
 80061da:	e7ec      	b.n	80061b6 <_printf_float+0x33a>
 80061dc:	4642      	mov	r2, r8
 80061de:	4631      	mov	r1, r6
 80061e0:	4628      	mov	r0, r5
 80061e2:	47b8      	blx	r7
 80061e4:	3001      	adds	r0, #1
 80061e6:	d1c2      	bne.n	800616e <_printf_float+0x2f2>
 80061e8:	e6a3      	b.n	8005f32 <_printf_float+0xb6>
 80061ea:	2301      	movs	r3, #1
 80061ec:	4631      	mov	r1, r6
 80061ee:	4628      	mov	r0, r5
 80061f0:	9206      	str	r2, [sp, #24]
 80061f2:	47b8      	blx	r7
 80061f4:	3001      	adds	r0, #1
 80061f6:	f43f ae9c 	beq.w	8005f32 <_printf_float+0xb6>
 80061fa:	9a06      	ldr	r2, [sp, #24]
 80061fc:	f10b 0b01 	add.w	fp, fp, #1
 8006200:	e7bb      	b.n	800617a <_printf_float+0x2fe>
 8006202:	e9dd 2304 	ldrd	r2, r3, [sp, #16]
 8006206:	4631      	mov	r1, r6
 8006208:	4628      	mov	r0, r5
 800620a:	47b8      	blx	r7
 800620c:	3001      	adds	r0, #1
 800620e:	d1c0      	bne.n	8006192 <_printf_float+0x316>
 8006210:	e68f      	b.n	8005f32 <_printf_float+0xb6>
 8006212:	9a06      	ldr	r2, [sp, #24]
 8006214:	464b      	mov	r3, r9
 8006216:	4442      	add	r2, r8
 8006218:	4631      	mov	r1, r6
 800621a:	4628      	mov	r0, r5
 800621c:	47b8      	blx	r7
 800621e:	3001      	adds	r0, #1
 8006220:	d1c3      	bne.n	80061aa <_printf_float+0x32e>
 8006222:	e686      	b.n	8005f32 <_printf_float+0xb6>
 8006224:	f8dd a028 	ldr.w	sl, [sp, #40]	@ 0x28
 8006228:	f1ba 0f01 	cmp.w	sl, #1
 800622c:	dc01      	bgt.n	8006232 <_printf_float+0x3b6>
 800622e:	07db      	lsls	r3, r3, #31
 8006230:	d536      	bpl.n	80062a0 <_printf_float+0x424>
 8006232:	2301      	movs	r3, #1
 8006234:	4642      	mov	r2, r8
 8006236:	4631      	mov	r1, r6
 8006238:	4628      	mov	r0, r5
 800623a:	47b8      	blx	r7
 800623c:	3001      	adds	r0, #1
 800623e:	f43f ae78 	beq.w	8005f32 <_printf_float+0xb6>
 8006242:	e9dd 2304 	ldrd	r2, r3, [sp, #16]
 8006246:	4631      	mov	r1, r6
 8006248:	4628      	mov	r0, r5
 800624a:	47b8      	blx	r7
 800624c:	3001      	adds	r0, #1
 800624e:	f43f ae70 	beq.w	8005f32 <_printf_float+0xb6>
 8006252:	e9d4 0112 	ldrd	r0, r1, [r4, #72]	@ 0x48
 8006256:	2200      	movs	r2, #0
 8006258:	2300      	movs	r3, #0
 800625a:	f10a 3aff 	add.w	sl, sl, #4294967295	@ 0xffffffff
 800625e:	f7fa fc53 	bl	8000b08 <__aeabi_dcmpeq>
 8006262:	b9c0      	cbnz	r0, 8006296 <_printf_float+0x41a>
 8006264:	4653      	mov	r3, sl
 8006266:	f108 0201 	add.w	r2, r8, #1
 800626a:	4631      	mov	r1, r6
 800626c:	4628      	mov	r0, r5
 800626e:	47b8      	blx	r7
 8006270:	3001      	adds	r0, #1
 8006272:	d10c      	bne.n	800628e <_printf_float+0x412>
 8006274:	e65d      	b.n	8005f32 <_printf_float+0xb6>
 8006276:	2301      	movs	r3, #1
 8006278:	465a      	mov	r2, fp
 800627a:	4631      	mov	r1, r6
 800627c:	4628      	mov	r0, r5
 800627e:	47b8      	blx	r7
 8006280:	3001      	adds	r0, #1
 8006282:	f43f ae56 	beq.w	8005f32 <_printf_float+0xb6>
 8006286:	f108 0801 	add.w	r8, r8, #1
 800628a:	45d0      	cmp	r8, sl
 800628c:	dbf3      	blt.n	8006276 <_printf_float+0x3fa>
 800628e:	464b      	mov	r3, r9
 8006290:	f104 0250 	add.w	r2, r4, #80	@ 0x50
 8006294:	e6df      	b.n	8006056 <_printf_float+0x1da>
 8006296:	f04f 0800 	mov.w	r8, #0
 800629a:	f104 0b1a 	add.w	fp, r4, #26
 800629e:	e7f4      	b.n	800628a <_printf_float+0x40e>
 80062a0:	2301      	movs	r3, #1
 80062a2:	4642      	mov	r2, r8
 80062a4:	e7e1      	b.n	800626a <_printf_float+0x3ee>
 80062a6:	2301      	movs	r3, #1
 80062a8:	464a      	mov	r2, r9
 80062aa:	4631      	mov	r1, r6
 80062ac:	4628      	mov	r0, r5
 80062ae:	47b8      	blx	r7
 80062b0:	3001      	adds	r0, #1
 80062b2:	f43f ae3e 	beq.w	8005f32 <_printf_float+0xb6>
 80062b6:	f108 0801 	add.w	r8, r8, #1
 80062ba:	68e3      	ldr	r3, [r4, #12]
 80062bc:	990b      	ldr	r1, [sp, #44]	@ 0x2c
 80062be:	1a5b      	subs	r3, r3, r1
 80062c0:	4543      	cmp	r3, r8
 80062c2:	dcf0      	bgt.n	80062a6 <_printf_float+0x42a>
 80062c4:	e6fc      	b.n	80060c0 <_printf_float+0x244>
 80062c6:	f04f 0800 	mov.w	r8, #0
 80062ca:	f104 0919 	add.w	r9, r4, #25
 80062ce:	e7f4      	b.n	80062ba <_printf_float+0x43e>

080062d0 <_printf_common>:
 80062d0:	e92d 47f0 	stmdb	sp!, {r4, r5, r6, r7, r8, r9, sl, lr}
 80062d4:	4616      	mov	r6, r2
 80062d6:	4698      	mov	r8, r3
 80062d8:	688a      	ldr	r2, [r1, #8]
 80062da:	690b      	ldr	r3, [r1, #16]
 80062dc:	f8dd 9020 	ldr.w	r9, [sp, #32]
 80062e0:	4293      	cmp	r3, r2
 80062e2:	bfb8      	it	lt
 80062e4:	4613      	movlt	r3, r2
 80062e6:	6033      	str	r3, [r6, #0]
 80062e8:	f891 2043 	ldrb.w	r2, [r1, #67]	@ 0x43
 80062ec:	4607      	mov	r7, r0
 80062ee:	460c      	mov	r4, r1
 80062f0:	b10a      	cbz	r2, 80062f6 <_printf_common+0x26>
 80062f2:	3301      	adds	r3, #1
 80062f4:	6033      	str	r3, [r6, #0]
 80062f6:	6823      	ldr	r3, [r4, #0]
 80062f8:	0699      	lsls	r1, r3, #26
 80062fa:	bf42      	ittt	mi
 80062fc:	6833      	ldrmi	r3, [r6, #0]
 80062fe:	3302      	addmi	r3, #2
 8006300:	6033      	strmi	r3, [r6, #0]
 8006302:	6825      	ldr	r5, [r4, #0]
 8006304:	f015 0506 	ands.w	r5, r5, #6
 8006308:	d106      	bne.n	8006318 <_printf_common+0x48>
 800630a:	f104 0a19 	add.w	sl, r4, #25
 800630e:	68e3      	ldr	r3, [r4, #12]
 8006310:	6832      	ldr	r2, [r6, #0]
 8006312:	1a9b      	subs	r3, r3, r2
 8006314:	42ab      	cmp	r3, r5
 8006316:	dc26      	bgt.n	8006366 <_printf_common+0x96>
 8006318:	f894 3043 	ldrb.w	r3, [r4, #67]	@ 0x43
 800631c:	6822      	ldr	r2, [r4, #0]
 800631e:	3b00      	subs	r3, #0
 8006320:	bf18      	it	ne
 8006322:	2301      	movne	r3, #1
 8006324:	0692      	lsls	r2, r2, #26
 8006326:	d42b      	bmi.n	8006380 <_printf_common+0xb0>
 8006328:	f104 0243 	add.w	r2, r4, #67	@ 0x43
 800632c:	4641      	mov	r1, r8
 800632e:	4638      	mov	r0, r7
 8006330:	47c8      	blx	r9
 8006332:	3001      	adds	r0, #1
 8006334:	d01e      	beq.n	8006374 <_printf_common+0xa4>
 8006336:	6823      	ldr	r3, [r4, #0]
 8006338:	6922      	ldr	r2, [r4, #16]
 800633a:	f003 0306 	and.w	r3, r3, #6
 800633e:	2b04      	cmp	r3, #4
 8006340:	bf02      	ittt	eq
 8006342:	68e5      	ldreq	r5, [r4, #12]
 8006344:	6833      	ldreq	r3, [r6, #0]
 8006346:	1aed      	subeq	r5, r5, r3
 8006348:	68a3      	ldr	r3, [r4, #8]
 800634a:	bf0c      	ite	eq
 800634c:	ea25 75e5 	biceq.w	r5, r5, r5, asr #31
 8006350:	2500      	movne	r5, #0
 8006352:	4293      	cmp	r3, r2
 8006354:	bfc4      	itt	gt
 8006356:	1a9b      	subgt	r3, r3, r2
 8006358:	18ed      	addgt	r5, r5, r3
 800635a:	2600      	movs	r6, #0
 800635c:	341a      	adds	r4, #26
 800635e:	42b5      	cmp	r5, r6
 8006360:	d11a      	bne.n	8006398 <_printf_common+0xc8>
 8006362:	2000      	movs	r0, #0
 8006364:	e008      	b.n	8006378 <_printf_common+0xa8>
 8006366:	2301      	movs	r3, #1
 8006368:	4652      	mov	r2, sl
 800636a:	4641      	mov	r1, r8
 800636c:	4638      	mov	r0, r7
 800636e:	47c8      	blx	r9
 8006370:	3001      	adds	r0, #1
 8006372:	d103      	bne.n	800637c <_printf_common+0xac>
 8006374:	f04f 30ff 	mov.w	r0, #4294967295	@ 0xffffffff
 8006378:	e8bd 87f0 	ldmia.w	sp!, {r4, r5, r6, r7, r8, r9, sl, pc}
 800637c:	3501      	adds	r5, #1
 800637e:	e7c6      	b.n	800630e <_printf_common+0x3e>
 8006380:	18e1      	adds	r1, r4, r3
 8006382:	1c5a      	adds	r2, r3, #1
 8006384:	2030      	movs	r0, #48	@ 0x30
 8006386:	f881 0043 	strb.w	r0, [r1, #67]	@ 0x43
 800638a:	4422      	add	r2, r4
 800638c:	f894 1045 	ldrb.w	r1, [r4, #69]	@ 0x45
 8006390:	f882 1043 	strb.w	r1, [r2, #67]	@ 0x43
 8006394:	3302      	adds	r3, #2
 8006396:	e7c7      	b.n	8006328 <_printf_common+0x58>
 8006398:	2301      	movs	r3, #1
 800639a:	4622      	mov	r2, r4
 800639c:	4641      	mov	r1, r8
 800639e:	4638      	mov	r0, r7
 80063a0:	47c8      	blx	r9
 80063a2:	3001      	adds	r0, #1
 80063a4:	d0e6      	beq.n	8006374 <_printf_common+0xa4>
 80063a6:	3601      	adds	r6, #1
 80063a8:	e7d9      	b.n	800635e <_printf_common+0x8e>
	...

080063ac <_printf_i>:
 80063ac:	e92d 47ff 	stmdb	sp!, {r0, r1, r2, r3, r4, r5, r6, r7, r8, r9, sl, lr}
 80063b0:	7e0f      	ldrb	r7, [r1, #24]
 80063b2:	9e0c      	ldr	r6, [sp, #48]	@ 0x30
 80063b4:	2f78      	cmp	r7, #120	@ 0x78
 80063b6:	4691      	mov	r9, r2
 80063b8:	4680      	mov	r8, r0
 80063ba:	460c      	mov	r4, r1
 80063bc:	469a      	mov	sl, r3
 80063be:	f101 0243 	add.w	r2, r1, #67	@ 0x43
 80063c2:	d807      	bhi.n	80063d4 <_printf_i+0x28>
 80063c4:	2f62      	cmp	r7, #98	@ 0x62
 80063c6:	d80a      	bhi.n	80063de <_printf_i+0x32>
 80063c8:	2f00      	cmp	r7, #0
 80063ca:	f000 80d2 	beq.w	8006572 <_printf_i+0x1c6>
 80063ce:	2f58      	cmp	r7, #88	@ 0x58
 80063d0:	f000 80b9 	beq.w	8006546 <_printf_i+0x19a>
 80063d4:	f104 0642 	add.w	r6, r4, #66	@ 0x42
 80063d8:	f884 7042 	strb.w	r7, [r4, #66]	@ 0x42
 80063dc:	e03a      	b.n	8006454 <_printf_i+0xa8>
 80063de:	f1a7 0363 	sub.w	r3, r7, #99	@ 0x63
 80063e2:	2b15      	cmp	r3, #21
 80063e4:	d8f6      	bhi.n	80063d4 <_printf_i+0x28>
 80063e6:	a101      	add	r1, pc, #4	@ (adr r1, 80063ec <_printf_i+0x40>)
 80063e8:	f851 f023 	ldr.w	pc, [r1, r3, lsl #2]
 80063ec:	08006445 	.word	0x08006445
 80063f0:	08006459 	.word	0x08006459
 80063f4:	080063d5 	.word	0x080063d5
 80063f8:	080063d5 	.word	0x080063d5
 80063fc:	080063d5 	.word	0x080063d5
 8006400:	080063d5 	.word	0x080063d5
 8006404:	08006459 	.word	0x08006459
 8006408:	080063d5 	.word	0x080063d5
 800640c:	080063d5 	.word	0x080063d5
 8006410:	080063d5 	.word	0x080063d5
 8006414:	080063d5 	.word	0x080063d5
 8006418:	08006559 	.word	0x08006559
 800641c:	08006483 	.word	0x08006483
 8006420:	08006513 	.word	0x08006513
 8006424:	080063d5 	.word	0x080063d5
 8006428:	080063d5 	.word	0x080063d5
 800642c:	0800657b 	.word	0x0800657b
 8006430:	080063d5 	.word	0x080063d5
 8006434:	08006483 	.word	0x08006483
 8006438:	080063d5 	.word	0x080063d5
 800643c:	080063d5 	.word	0x080063d5
 8006440:	0800651b 	.word	0x0800651b
 8006444:	6833      	ldr	r3, [r6, #0]
 8006446:	1d1a      	adds	r2, r3, #4
 8006448:	681b      	ldr	r3, [r3, #0]
 800644a:	6032      	str	r2, [r6, #0]
 800644c:	f104 0642 	add.w	r6, r4, #66	@ 0x42
 8006450:	f884 3042 	strb.w	r3, [r4, #66]	@ 0x42
 8006454:	2301      	movs	r3, #1
 8006456:	e09d      	b.n	8006594 <_printf_i+0x1e8>
 8006458:	6833      	ldr	r3, [r6, #0]
 800645a:	6820      	ldr	r0, [r4, #0]
 800645c:	1d19      	adds	r1, r3, #4
 800645e:	6031      	str	r1, [r6, #0]
 8006460:	0606      	lsls	r6, r0, #24
 8006462:	d501      	bpl.n	8006468 <_printf_i+0xbc>
 8006464:	681d      	ldr	r5, [r3, #0]
 8006466:	e003      	b.n	8006470 <_printf_i+0xc4>
 8006468:	0645      	lsls	r5, r0, #25
 800646a:	d5fb      	bpl.n	8006464 <_printf_i+0xb8>
 800646c:	f9b3 5000 	ldrsh.w	r5, [r3]
 8006470:	2d00      	cmp	r5, #0
 8006472:	da03      	bge.n	800647c <_printf_i+0xd0>
 8006474:	232d      	movs	r3, #45	@ 0x2d
 8006476:	426d      	negs	r5, r5
 8006478:	f884 3043 	strb.w	r3, [r4, #67]	@ 0x43
 800647c:	4859      	ldr	r0, [pc, #356]	@ (80065e4 <_printf_i+0x238>)
 800647e:	230a      	movs	r3, #10
 8006480:	e011      	b.n	80064a6 <_printf_i+0xfa>
 8006482:	6821      	ldr	r1, [r4, #0]
 8006484:	6833      	ldr	r3, [r6, #0]
 8006486:	0608      	lsls	r0, r1, #24
 8006488:	f853 5b04 	ldr.w	r5, [r3], #4
 800648c:	d402      	bmi.n	8006494 <_printf_i+0xe8>
 800648e:	0649      	lsls	r1, r1, #25
 8006490:	bf48      	it	mi
 8006492:	b2ad      	uxthmi	r5, r5
 8006494:	2f6f      	cmp	r7, #111	@ 0x6f
 8006496:	4853      	ldr	r0, [pc, #332]	@ (80065e4 <_printf_i+0x238>)
 8006498:	6033      	str	r3, [r6, #0]
 800649a:	bf14      	ite	ne
 800649c:	230a      	movne	r3, #10
 800649e:	2308      	moveq	r3, #8
 80064a0:	2100      	movs	r1, #0
 80064a2:	f884 1043 	strb.w	r1, [r4, #67]	@ 0x43
 80064a6:	6866      	ldr	r6, [r4, #4]
 80064a8:	60a6      	str	r6, [r4, #8]
 80064aa:	2e00      	cmp	r6, #0
 80064ac:	bfa2      	ittt	ge
 80064ae:	6821      	ldrge	r1, [r4, #0]
 80064b0:	f021 0104 	bicge.w	r1, r1, #4
 80064b4:	6021      	strge	r1, [r4, #0]
 80064b6:	b90d      	cbnz	r5, 80064bc <_printf_i+0x110>
 80064b8:	2e00      	cmp	r6, #0
 80064ba:	d04b      	beq.n	8006554 <_printf_i+0x1a8>
 80064bc:	4616      	mov	r6, r2
 80064be:	fbb5 f1f3 	udiv	r1, r5, r3
 80064c2:	fb03 5711 	mls	r7, r3, r1, r5
 80064c6:	5dc7      	ldrb	r7, [r0, r7]
 80064c8:	f806 7d01 	strb.w	r7, [r6, #-1]!
 80064cc:	462f      	mov	r7, r5
 80064ce:	42bb      	cmp	r3, r7
 80064d0:	460d      	mov	r5, r1
 80064d2:	d9f4      	bls.n	80064be <_printf_i+0x112>
 80064d4:	2b08      	cmp	r3, #8
 80064d6:	d10b      	bne.n	80064f0 <_printf_i+0x144>
 80064d8:	6823      	ldr	r3, [r4, #0]
 80064da:	07df      	lsls	r7, r3, #31
 80064dc:	d508      	bpl.n	80064f0 <_printf_i+0x144>
 80064de:	6923      	ldr	r3, [r4, #16]
 80064e0:	6861      	ldr	r1, [r4, #4]
 80064e2:	4299      	cmp	r1, r3
 80064e4:	bfde      	ittt	le
 80064e6:	2330      	movle	r3, #48	@ 0x30
 80064e8:	f806 3c01 	strble.w	r3, [r6, #-1]
 80064ec:	f106 36ff 	addle.w	r6, r6, #4294967295	@ 0xffffffff
 80064f0:	1b92      	subs	r2, r2, r6
 80064f2:	6122      	str	r2, [r4, #16]
 80064f4:	f8cd a000 	str.w	sl, [sp]
 80064f8:	464b      	mov	r3, r9
 80064fa:	aa03      	add	r2, sp, #12
 80064fc:	4621      	mov	r1, r4
 80064fe:	4640      	mov	r0, r8
 8006500:	f7ff fee6 	bl	80062d0 <_printf_common>
 8006504:	3001      	adds	r0, #1
 8006506:	d14a      	bne.n	800659e <_printf_i+0x1f2>
 8006508:	f04f 30ff 	mov.w	r0, #4294967295	@ 0xffffffff
 800650c:	b004      	add	sp, #16
 800650e:	e8bd 87f0 	ldmia.w	sp!, {r4, r5, r6, r7, r8, r9, sl, pc}
 8006512:	6823      	ldr	r3, [r4, #0]
 8006514:	f043 0320 	orr.w	r3, r3, #32
 8006518:	6023      	str	r3, [r4, #0]
 800651a:	4833      	ldr	r0, [pc, #204]	@ (80065e8 <_printf_i+0x23c>)
 800651c:	2778      	movs	r7, #120	@ 0x78
 800651e:	f884 7045 	strb.w	r7, [r4, #69]	@ 0x45
 8006522:	6823      	ldr	r3, [r4, #0]
 8006524:	6831      	ldr	r1, [r6, #0]
 8006526:	061f      	lsls	r7, r3, #24
 8006528:	f851 5b04 	ldr.w	r5, [r1], #4
 800652c:	d402      	bmi.n	8006534 <_printf_i+0x188>
 800652e:	065f      	lsls	r7, r3, #25
 8006530:	bf48      	it	mi
 8006532:	b2ad      	uxthmi	r5, r5
 8006534:	6031      	str	r1, [r6, #0]
 8006536:	07d9      	lsls	r1, r3, #31
 8006538:	bf44      	itt	mi
 800653a:	f043 0320 	orrmi.w	r3, r3, #32
 800653e:	6023      	strmi	r3, [r4, #0]
 8006540:	b11d      	cbz	r5, 800654a <_printf_i+0x19e>
 8006542:	2310      	movs	r3, #16
 8006544:	e7ac      	b.n	80064a0 <_printf_i+0xf4>
 8006546:	4827      	ldr	r0, [pc, #156]	@ (80065e4 <_printf_i+0x238>)
 8006548:	e7e9      	b.n	800651e <_printf_i+0x172>
 800654a:	6823      	ldr	r3, [r4, #0]
 800654c:	f023 0320 	bic.w	r3, r3, #32
 8006550:	6023      	str	r3, [r4, #0]
 8006552:	e7f6      	b.n	8006542 <_printf_i+0x196>
 8006554:	4616      	mov	r6, r2
 8006556:	e7bd      	b.n	80064d4 <_printf_i+0x128>
 8006558:	6833      	ldr	r3, [r6, #0]
 800655a:	6825      	ldr	r5, [r4, #0]
 800655c:	6961      	ldr	r1, [r4, #20]
 800655e:	1d18      	adds	r0, r3, #4
 8006560:	6030      	str	r0, [r6, #0]
 8006562:	062e      	lsls	r6, r5, #24
 8006564:	681b      	ldr	r3, [r3, #0]
 8006566:	d501      	bpl.n	800656c <_printf_i+0x1c0>
 8006568:	6019      	str	r1, [r3, #0]
 800656a:	e002      	b.n	8006572 <_printf_i+0x1c6>
 800656c:	0668      	lsls	r0, r5, #25
 800656e:	d5fb      	bpl.n	8006568 <_printf_i+0x1bc>
 8006570:	8019      	strh	r1, [r3, #0]
 8006572:	2300      	movs	r3, #0
 8006574:	6123      	str	r3, [r4, #16]
 8006576:	4616      	mov	r6, r2
 8006578:	e7bc      	b.n	80064f4 <_printf_i+0x148>
 800657a:	6833      	ldr	r3, [r6, #0]
 800657c:	1d1a      	adds	r2, r3, #4
 800657e:	6032      	str	r2, [r6, #0]
 8006580:	681e      	ldr	r6, [r3, #0]
 8006582:	6862      	ldr	r2, [r4, #4]
 8006584:	2100      	movs	r1, #0
 8006586:	4630      	mov	r0, r6
 8006588:	f7f9 fe42 	bl	8000210 <memchr>
 800658c:	b108      	cbz	r0, 8006592 <_printf_i+0x1e6>
 800658e:	1b80      	subs	r0, r0, r6
 8006590:	6060      	str	r0, [r4, #4]
 8006592:	6863      	ldr	r3, [r4, #4]
 8006594:	6123      	str	r3, [r4, #16]
 8006596:	2300      	movs	r3, #0
 8006598:	f884 3043 	strb.w	r3, [r4, #67]	@ 0x43
 800659c:	e7aa      	b.n	80064f4 <_printf_i+0x148>
 800659e:	6923      	ldr	r3, [r4, #16]
 80065a0:	4632      	mov	r2, r6
 80065a2:	4649      	mov	r1, r9
 80065a4:	4640      	mov	r0, r8
 80065a6:	47d0      	blx	sl
 80065a8:	3001      	adds	r0, #1
 80065aa:	d0ad      	beq.n	8006508 <_printf_i+0x15c>
 80065ac:	6823      	ldr	r3, [r4, #0]
 80065ae:	079b      	lsls	r3, r3, #30
 80065b0:	d413      	bmi.n	80065da <_printf_i+0x22e>
 80065b2:	68e0      	ldr	r0, [r4, #12]
 80065b4:	9b03      	ldr	r3, [sp, #12]
 80065b6:	4298      	cmp	r0, r3
 80065b8:	bfb8      	it	lt
 80065ba:	4618      	movlt	r0, r3
 80065bc:	e7a6      	b.n	800650c <_printf_i+0x160>
 80065be:	2301      	movs	r3, #1
 80065c0:	4632      	mov	r2, r6
 80065c2:	4649      	mov	r1, r9
 80065c4:	4640      	mov	r0, r8
 80065c6:	47d0      	blx	sl
 80065c8:	3001      	adds	r0, #1
 80065ca:	d09d      	beq.n	8006508 <_printf_i+0x15c>
 80065cc:	3501      	adds	r5, #1
 80065ce:	68e3      	ldr	r3, [r4, #12]
 80065d0:	9903      	ldr	r1, [sp, #12]
 80065d2:	1a5b      	subs	r3, r3, r1
 80065d4:	42ab      	cmp	r3, r5
 80065d6:	dcf2      	bgt.n	80065be <_printf_i+0x212>
 80065d8:	e7eb      	b.n	80065b2 <_printf_i+0x206>
 80065da:	2500      	movs	r5, #0
 80065dc:	f104 0619 	add.w	r6, r4, #25
 80065e0:	e7f5      	b.n	80065ce <_printf_i+0x222>
 80065e2:	bf00      	nop
 80065e4:	08009a32 	.word	0x08009a32
 80065e8:	08009a43 	.word	0x08009a43

080065ec <siprintf>:
 80065ec:	b40e      	push	{r1, r2, r3}
 80065ee:	b500      	push	{lr}
 80065f0:	b09c      	sub	sp, #112	@ 0x70
 80065f2:	ab1d      	add	r3, sp, #116	@ 0x74
 80065f4:	9002      	str	r0, [sp, #8]
 80065f6:	9006      	str	r0, [sp, #24]
 80065f8:	f06f 4100 	mvn.w	r1, #2147483648	@ 0x80000000
 80065fc:	4809      	ldr	r0, [pc, #36]	@ (8006624 <siprintf+0x38>)
 80065fe:	9107      	str	r1, [sp, #28]
 8006600:	9104      	str	r1, [sp, #16]
 8006602:	4909      	ldr	r1, [pc, #36]	@ (8006628 <siprintf+0x3c>)
 8006604:	f853 2b04 	ldr.w	r2, [r3], #4
 8006608:	9105      	str	r1, [sp, #20]
 800660a:	6800      	ldr	r0, [r0, #0]
 800660c:	9301      	str	r3, [sp, #4]
 800660e:	a902      	add	r1, sp, #8
 8006610:	f000 ffb2 	bl	8007578 <_svfiprintf_r>
 8006614:	9b02      	ldr	r3, [sp, #8]
 8006616:	2200      	movs	r2, #0
 8006618:	701a      	strb	r2, [r3, #0]
 800661a:	b01c      	add	sp, #112	@ 0x70
 800661c:	f85d eb04 	ldr.w	lr, [sp], #4
 8006620:	b003      	add	sp, #12
 8006622:	4770      	bx	lr
 8006624:	20000018 	.word	0x20000018
 8006628:	ffff0208 	.word	0xffff0208

0800662c <std>:
 800662c:	2300      	movs	r3, #0
 800662e:	b510      	push	{r4, lr}
 8006630:	4604      	mov	r4, r0
 8006632:	e9c0 3300 	strd	r3, r3, [r0]
 8006636:	e9c0 3304 	strd	r3, r3, [r0, #16]
 800663a:	6083      	str	r3, [r0, #8]
 800663c:	8181      	strh	r1, [r0, #12]
 800663e:	6643      	str	r3, [r0, #100]	@ 0x64
 8006640:	81c2      	strh	r2, [r0, #14]
 8006642:	6183      	str	r3, [r0, #24]
 8006644:	4619      	mov	r1, r3
 8006646:	2208      	movs	r2, #8
 8006648:	305c      	adds	r0, #92	@ 0x5c
 800664a:	f000 f8b1 	bl	80067b0 <memset>
 800664e:	4b0d      	ldr	r3, [pc, #52]	@ (8006684 <std+0x58>)
 8006650:	6263      	str	r3, [r4, #36]	@ 0x24
 8006652:	4b0d      	ldr	r3, [pc, #52]	@ (8006688 <std+0x5c>)
 8006654:	62a3      	str	r3, [r4, #40]	@ 0x28
 8006656:	4b0d      	ldr	r3, [pc, #52]	@ (800668c <std+0x60>)
 8006658:	62e3      	str	r3, [r4, #44]	@ 0x2c
 800665a:	4b0d      	ldr	r3, [pc, #52]	@ (8006690 <std+0x64>)
 800665c:	6323      	str	r3, [r4, #48]	@ 0x30
 800665e:	4b0d      	ldr	r3, [pc, #52]	@ (8006694 <std+0x68>)
 8006660:	6224      	str	r4, [r4, #32]
 8006662:	429c      	cmp	r4, r3
 8006664:	d006      	beq.n	8006674 <std+0x48>
 8006666:	f103 0268 	add.w	r2, r3, #104	@ 0x68
 800666a:	4294      	cmp	r4, r2
 800666c:	d002      	beq.n	8006674 <std+0x48>
 800666e:	33d0      	adds	r3, #208	@ 0xd0
 8006670:	429c      	cmp	r4, r3
 8006672:	d105      	bne.n	8006680 <std+0x54>
 8006674:	f104 0058 	add.w	r0, r4, #88	@ 0x58
 8006678:	e8bd 4010 	ldmia.w	sp!, {r4, lr}
 800667c:	f000 b8ce 	b.w	800681c <__retarget_lock_init_recursive>
 8006680:	bd10      	pop	{r4, pc}
 8006682:	bf00      	nop
 8006684:	08008139 	.word	0x08008139
 8006688:	0800815b 	.word	0x0800815b
 800668c:	08008193 	.word	0x08008193
 8006690:	080081b7 	.word	0x080081b7
 8006694:	20000384 	.word	0x20000384

08006698 <stdio_exit_handler>:
 8006698:	4a02      	ldr	r2, [pc, #8]	@ (80066a4 <stdio_exit_handler+0xc>)
 800669a:	4903      	ldr	r1, [pc, #12]	@ (80066a8 <stdio_exit_handler+0x10>)
 800669c:	4803      	ldr	r0, [pc, #12]	@ (80066ac <stdio_exit_handler+0x14>)
 800669e:	f000 b869 	b.w	8006774 <_fwalk_sglue>
 80066a2:	bf00      	nop
 80066a4:	2000000c 	.word	0x2000000c
 80066a8:	080079cd 	.word	0x080079cd
 80066ac:	2000001c 	.word	0x2000001c

080066b0 <cleanup_stdio>:
 80066b0:	6841      	ldr	r1, [r0, #4]
 80066b2:	4b0c      	ldr	r3, [pc, #48]	@ (80066e4 <cleanup_stdio+0x34>)
 80066b4:	4299      	cmp	r1, r3
 80066b6:	b510      	push	{r4, lr}
 80066b8:	4604      	mov	r4, r0
 80066ba:	d001      	beq.n	80066c0 <cleanup_stdio+0x10>
 80066bc:	f001 f986 	bl	80079cc <_fflush_r>
 80066c0:	68a1      	ldr	r1, [r4, #8]
 80066c2:	4b09      	ldr	r3, [pc, #36]	@ (80066e8 <cleanup_stdio+0x38>)
 80066c4:	4299      	cmp	r1, r3
 80066c6:	d002      	beq.n	80066ce <cleanup_stdio+0x1e>
 80066c8:	4620      	mov	r0, r4
 80066ca:	f001 f97f 	bl	80079cc <_fflush_r>
 80066ce:	68e1      	ldr	r1, [r4, #12]
 80066d0:	4b06      	ldr	r3, [pc, #24]	@ (80066ec <cleanup_stdio+0x3c>)
 80066d2:	4299      	cmp	r1, r3
 80066d4:	d004      	beq.n	80066e0 <cleanup_stdio+0x30>
 80066d6:	4620      	mov	r0, r4
 80066d8:	e8bd 4010 	ldmia.w	sp!, {r4, lr}
 80066dc:	f001 b976 	b.w	80079cc <_fflush_r>
 80066e0:	bd10      	pop	{r4, pc}
 80066e2:	bf00      	nop
 80066e4:	20000384 	.word	0x20000384
 80066e8:	200003ec 	.word	0x200003ec
 80066ec:	20000454 	.word	0x20000454

080066f0 <global_stdio_init.part.0>:
 80066f0:	b510      	push	{r4, lr}
 80066f2:	4b0b      	ldr	r3, [pc, #44]	@ (8006720 <global_stdio_init.part.0+0x30>)
 80066f4:	4c0b      	ldr	r4, [pc, #44]	@ (8006724 <global_stdio_init.part.0+0x34>)
 80066f6:	4a0c      	ldr	r2, [pc, #48]	@ (8006728 <global_stdio_init.part.0+0x38>)
 80066f8:	601a      	str	r2, [r3, #0]
 80066fa:	4620      	mov	r0, r4
 80066fc:	2200      	movs	r2, #0
 80066fe:	2104      	movs	r1, #4
 8006700:	f7ff ff94 	bl	800662c <std>
 8006704:	f104 0068 	add.w	r0, r4, #104	@ 0x68
 8006708:	2201      	movs	r2, #1
 800670a:	2109      	movs	r1, #9
 800670c:	f7ff ff8e 	bl	800662c <std>
 8006710:	f104 00d0 	add.w	r0, r4, #208	@ 0xd0
 8006714:	2202      	movs	r2, #2
 8006716:	e8bd 4010 	ldmia.w	sp!, {r4, lr}
 800671a:	2112      	movs	r1, #18
 800671c:	f7ff bf86 	b.w	800662c <std>
 8006720:	200004bc 	.word	0x200004bc
 8006724:	20000384 	.word	0x20000384
 8006728:	08006699 	.word	0x08006699

0800672c <__sfp_lock_acquire>:
 800672c:	4801      	ldr	r0, [pc, #4]	@ (8006734 <__sfp_lock_acquire+0x8>)
 800672e:	f000 b876 	b.w	800681e <__retarget_lock_acquire_recursive>
 8006732:	bf00      	nop
 8006734:	200004c1 	.word	0x200004c1

08006738 <__sfp_lock_release>:
 8006738:	4801      	ldr	r0, [pc, #4]	@ (8006740 <__sfp_lock_release+0x8>)
 800673a:	f000 b871 	b.w	8006820 <__retarget_lock_release_recursive>
 800673e:	bf00      	nop
 8006740:	200004c1 	.word	0x200004c1

08006744 <__sinit>:
 8006744:	b510      	push	{r4, lr}
 8006746:	4604      	mov	r4, r0
 8006748:	f7ff fff0 	bl	800672c <__sfp_lock_acquire>
 800674c:	6a23      	ldr	r3, [r4, #32]
 800674e:	b11b      	cbz	r3, 8006758 <__sinit+0x14>
 8006750:	e8bd 4010 	ldmia.w	sp!, {r4, lr}
 8006754:	f7ff bff0 	b.w	8006738 <__sfp_lock_release>
 8006758:	4b04      	ldr	r3, [pc, #16]	@ (800676c <__sinit+0x28>)
 800675a:	6223      	str	r3, [r4, #32]
 800675c:	4b04      	ldr	r3, [pc, #16]	@ (8006770 <__sinit+0x2c>)
 800675e:	681b      	ldr	r3, [r3, #0]
 8006760:	2b00      	cmp	r3, #0
 8006762:	d1f5      	bne.n	8006750 <__sinit+0xc>
 8006764:	f7ff ffc4 	bl	80066f0 <global_stdio_init.part.0>
 8006768:	e7f2      	b.n	8006750 <__sinit+0xc>
 800676a:	bf00      	nop
 800676c:	080066b1 	.word	0x080066b1
 8006770:	200004bc 	.word	0x200004bc

08006774 <_fwalk_sglue>:
 8006774:	e92d 43f8 	stmdb	sp!, {r3, r4, r5, r6, r7, r8, r9, lr}
 8006778:	4607      	mov	r7, r0
 800677a:	4688      	mov	r8, r1
 800677c:	4614      	mov	r4, r2
 800677e:	2600      	movs	r6, #0
 8006780:	e9d4 9501 	ldrd	r9, r5, [r4, #4]
 8006784:	f1b9 0901 	subs.w	r9, r9, #1
 8006788:	d505      	bpl.n	8006796 <_fwalk_sglue+0x22>
 800678a:	6824      	ldr	r4, [r4, #0]
 800678c:	2c00      	cmp	r4, #0
 800678e:	d1f7      	bne.n	8006780 <_fwalk_sglue+0xc>
 8006790:	4630      	mov	r0, r6
 8006792:	e8bd 83f8 	ldmia.w	sp!, {r3, r4, r5, r6, r7, r8, r9, pc}
 8006796:	89ab      	ldrh	r3, [r5, #12]
 8006798:	2b01      	cmp	r3, #1
 800679a:	d907      	bls.n	80067ac <_fwalk_sglue+0x38>
 800679c:	f9b5 300e 	ldrsh.w	r3, [r5, #14]
 80067a0:	3301      	adds	r3, #1
 80067a2:	d003      	beq.n	80067ac <_fwalk_sglue+0x38>
 80067a4:	4629      	mov	r1, r5
 80067a6:	4638      	mov	r0, r7
 80067a8:	47c0      	blx	r8
 80067aa:	4306      	orrs	r6, r0
 80067ac:	3568      	adds	r5, #104	@ 0x68
 80067ae:	e7e9      	b.n	8006784 <_fwalk_sglue+0x10>

080067b0 <memset>:
 80067b0:	4402      	add	r2, r0
 80067b2:	4603      	mov	r3, r0
 80067b4:	4293      	cmp	r3, r2
 80067b6:	d100      	bne.n	80067ba <memset+0xa>
 80067b8:	4770      	bx	lr
 80067ba:	f803 1b01 	strb.w	r1, [r3], #1
 80067be:	e7f9      	b.n	80067b4 <memset+0x4>

080067c0 <_localeconv_r>:
 80067c0:	4800      	ldr	r0, [pc, #0]	@ (80067c4 <_localeconv_r+0x4>)
 80067c2:	4770      	bx	lr
 80067c4:	20000158 	.word	0x20000158

080067c8 <__errno>:
 80067c8:	4b01      	ldr	r3, [pc, #4]	@ (80067d0 <__errno+0x8>)
 80067ca:	6818      	ldr	r0, [r3, #0]
 80067cc:	4770      	bx	lr
 80067ce:	bf00      	nop
 80067d0:	20000018 	.word	0x20000018

080067d4 <__libc_init_array>:
 80067d4:	b570      	push	{r4, r5, r6, lr}
 80067d6:	4d0d      	ldr	r5, [pc, #52]	@ (800680c <__libc_init_array+0x38>)
 80067d8:	4c0d      	ldr	r4, [pc, #52]	@ (8006810 <__libc_init_array+0x3c>)
 80067da:	1b64      	subs	r4, r4, r5
 80067dc:	10a4      	asrs	r4, r4, #2
 80067de:	2600      	movs	r6, #0
 80067e0:	42a6      	cmp	r6, r4
 80067e2:	d109      	bne.n	80067f8 <__libc_init_array+0x24>
 80067e4:	4d0b      	ldr	r5, [pc, #44]	@ (8006814 <__libc_init_array+0x40>)
 80067e6:	4c0c      	ldr	r4, [pc, #48]	@ (8006818 <__libc_init_array+0x44>)
 80067e8:	f003 f84e 	bl	8009888 <_init>
 80067ec:	1b64      	subs	r4, r4, r5
 80067ee:	10a4      	asrs	r4, r4, #2
 80067f0:	2600      	movs	r6, #0
 80067f2:	42a6      	cmp	r6, r4
 80067f4:	d105      	bne.n	8006802 <__libc_init_array+0x2e>
 80067f6:	bd70      	pop	{r4, r5, r6, pc}
 80067f8:	f855 3b04 	ldr.w	r3, [r5], #4
 80067fc:	4798      	blx	r3
 80067fe:	3601      	adds	r6, #1
 8006800:	e7ee      	b.n	80067e0 <__libc_init_array+0xc>
 8006802:	f855 3b04 	ldr.w	r3, [r5], #4
 8006806:	4798      	blx	r3
 8006808:	3601      	adds	r6, #1
 800680a:	e7f2      	b.n	80067f2 <__libc_init_array+0x1e>
 800680c:	08009dc8 	.word	0x08009dc8
 8006810:	08009dc8 	.word	0x08009dc8
 8006814:	08009dc8 	.word	0x08009dc8
 8006818:	08009dcc 	.word	0x08009dcc

0800681c <__retarget_lock_init_recursive>:
 800681c:	4770      	bx	lr

0800681e <__retarget_lock_acquire_recursive>:
 800681e:	4770      	bx	lr

08006820 <__retarget_lock_release_recursive>:
 8006820:	4770      	bx	lr

08006822 <quorem>:
 8006822:	e92d 4ff7 	stmdb	sp!, {r0, r1, r2, r4, r5, r6, r7, r8, r9, sl, fp, lr}
 8006826:	6903      	ldr	r3, [r0, #16]
 8006828:	690c      	ldr	r4, [r1, #16]
 800682a:	42a3      	cmp	r3, r4
 800682c:	4607      	mov	r7, r0
 800682e:	db7e      	blt.n	800692e <quorem+0x10c>
 8006830:	3c01      	subs	r4, #1
 8006832:	f101 0814 	add.w	r8, r1, #20
 8006836:	00a3      	lsls	r3, r4, #2
 8006838:	f100 0514 	add.w	r5, r0, #20
 800683c:	9300      	str	r3, [sp, #0]
 800683e:	eb05 0384 	add.w	r3, r5, r4, lsl #2
 8006842:	9301      	str	r3, [sp, #4]
 8006844:	f858 3024 	ldr.w	r3, [r8, r4, lsl #2]
 8006848:	f855 2024 	ldr.w	r2, [r5, r4, lsl #2]
 800684c:	3301      	adds	r3, #1
 800684e:	429a      	cmp	r2, r3
 8006850:	eb08 0984 	add.w	r9, r8, r4, lsl #2
 8006854:	fbb2 f6f3 	udiv	r6, r2, r3
 8006858:	d32e      	bcc.n	80068b8 <quorem+0x96>
 800685a:	f04f 0a00 	mov.w	sl, #0
 800685e:	46c4      	mov	ip, r8
 8006860:	46ae      	mov	lr, r5
 8006862:	46d3      	mov	fp, sl
 8006864:	f85c 3b04 	ldr.w	r3, [ip], #4
 8006868:	b298      	uxth	r0, r3
 800686a:	fb06 a000 	mla	r0, r6, r0, sl
 800686e:	0c02      	lsrs	r2, r0, #16
 8006870:	0c1b      	lsrs	r3, r3, #16
 8006872:	fb06 2303 	mla	r3, r6, r3, r2
 8006876:	f8de 2000 	ldr.w	r2, [lr]
 800687a:	b280      	uxth	r0, r0
 800687c:	b292      	uxth	r2, r2
 800687e:	1a12      	subs	r2, r2, r0
 8006880:	445a      	add	r2, fp
 8006882:	f8de 0000 	ldr.w	r0, [lr]
 8006886:	ea4f 4a13 	mov.w	sl, r3, lsr #16
 800688a:	b29b      	uxth	r3, r3
 800688c:	ebc3 4322 	rsb	r3, r3, r2, asr #16
 8006890:	eb03 4310 	add.w	r3, r3, r0, lsr #16
 8006894:	b292      	uxth	r2, r2
 8006896:	ea42 4203 	orr.w	r2, r2, r3, lsl #16
 800689a:	45e1      	cmp	r9, ip
 800689c:	f84e 2b04 	str.w	r2, [lr], #4
 80068a0:	ea4f 4b23 	mov.w	fp, r3, asr #16
 80068a4:	d2de      	bcs.n	8006864 <quorem+0x42>
 80068a6:	9b00      	ldr	r3, [sp, #0]
 80068a8:	58eb      	ldr	r3, [r5, r3]
 80068aa:	b92b      	cbnz	r3, 80068b8 <quorem+0x96>
 80068ac:	9b01      	ldr	r3, [sp, #4]
 80068ae:	3b04      	subs	r3, #4
 80068b0:	429d      	cmp	r5, r3
 80068b2:	461a      	mov	r2, r3
 80068b4:	d32f      	bcc.n	8006916 <quorem+0xf4>
 80068b6:	613c      	str	r4, [r7, #16]
 80068b8:	4638      	mov	r0, r7
 80068ba:	f001 fb35 	bl	8007f28 <__mcmp>
 80068be:	2800      	cmp	r0, #0
 80068c0:	db25      	blt.n	800690e <quorem+0xec>
 80068c2:	4629      	mov	r1, r5
 80068c4:	2000      	movs	r0, #0
 80068c6:	f858 2b04 	ldr.w	r2, [r8], #4
 80068ca:	f8d1 c000 	ldr.w	ip, [r1]
 80068ce:	fa1f fe82 	uxth.w	lr, r2
 80068d2:	fa1f f38c 	uxth.w	r3, ip
 80068d6:	eba3 030e 	sub.w	r3, r3, lr
 80068da:	4403      	add	r3, r0
 80068dc:	0c12      	lsrs	r2, r2, #16
 80068de:	ebc2 4223 	rsb	r2, r2, r3, asr #16
 80068e2:	eb02 421c 	add.w	r2, r2, ip, lsr #16
 80068e6:	b29b      	uxth	r3, r3
 80068e8:	ea43 4302 	orr.w	r3, r3, r2, lsl #16
 80068ec:	45c1      	cmp	r9, r8
 80068ee:	f841 3b04 	str.w	r3, [r1], #4
 80068f2:	ea4f 4022 	mov.w	r0, r2, asr #16
 80068f6:	d2e6      	bcs.n	80068c6 <quorem+0xa4>
 80068f8:	f855 2024 	ldr.w	r2, [r5, r4, lsl #2]
 80068fc:	eb05 0384 	add.w	r3, r5, r4, lsl #2
 8006900:	b922      	cbnz	r2, 800690c <quorem+0xea>
 8006902:	3b04      	subs	r3, #4
 8006904:	429d      	cmp	r5, r3
 8006906:	461a      	mov	r2, r3
 8006908:	d30b      	bcc.n	8006922 <quorem+0x100>
 800690a:	613c      	str	r4, [r7, #16]
 800690c:	3601      	adds	r6, #1
 800690e:	4630      	mov	r0, r6
 8006910:	b003      	add	sp, #12
 8006912:	e8bd 8ff0 	ldmia.w	sp!, {r4, r5, r6, r7, r8, r9, sl, fp, pc}
 8006916:	6812      	ldr	r2, [r2, #0]
 8006918:	3b04      	subs	r3, #4
 800691a:	2a00      	cmp	r2, #0
 800691c:	d1cb      	bne.n	80068b6 <quorem+0x94>
 800691e:	3c01      	subs	r4, #1
 8006920:	e7c6      	b.n	80068b0 <quorem+0x8e>
 8006922:	6812      	ldr	r2, [r2, #0]
 8006924:	3b04      	subs	r3, #4
 8006926:	2a00      	cmp	r2, #0
 8006928:	d1ef      	bne.n	800690a <quorem+0xe8>
 800692a:	3c01      	subs	r4, #1
 800692c:	e7ea      	b.n	8006904 <quorem+0xe2>
 800692e:	2000      	movs	r0, #0
 8006930:	e7ee      	b.n	8006910 <quorem+0xee>
 8006932:	0000      	movs	r0, r0
 8006934:	0000      	movs	r0, r0
	...

08006938 <_dtoa_r>:
 8006938:	e92d 4ff0 	stmdb	sp!, {r4, r5, r6, r7, r8, r9, sl, fp, lr}
 800693c:	69c7      	ldr	r7, [r0, #28]
 800693e:	b099      	sub	sp, #100	@ 0x64
 8006940:	ed8d 0b02 	vstr	d0, [sp, #8]
 8006944:	ec55 4b10 	vmov	r4, r5, d0
 8006948:	9e22      	ldr	r6, [sp, #136]	@ 0x88
 800694a:	9109      	str	r1, [sp, #36]	@ 0x24
 800694c:	4683      	mov	fp, r0
 800694e:	920e      	str	r2, [sp, #56]	@ 0x38
 8006950:	9313      	str	r3, [sp, #76]	@ 0x4c
 8006952:	b97f      	cbnz	r7, 8006974 <_dtoa_r+0x3c>
 8006954:	2010      	movs	r0, #16
 8006956:	f000 ff0b 	bl	8007770 <malloc>
 800695a:	4602      	mov	r2, r0
 800695c:	f8cb 001c 	str.w	r0, [fp, #28]
 8006960:	b920      	cbnz	r0, 800696c <_dtoa_r+0x34>
 8006962:	4ba7      	ldr	r3, [pc, #668]	@ (8006c00 <_dtoa_r+0x2c8>)
 8006964:	21ef      	movs	r1, #239	@ 0xef
 8006966:	48a7      	ldr	r0, [pc, #668]	@ (8006c04 <_dtoa_r+0x2cc>)
 8006968:	f001 fcd6 	bl	8008318 <__assert_func>
 800696c:	e9c0 7701 	strd	r7, r7, [r0, #4]
 8006970:	6007      	str	r7, [r0, #0]
 8006972:	60c7      	str	r7, [r0, #12]
 8006974:	f8db 301c 	ldr.w	r3, [fp, #28]
 8006978:	6819      	ldr	r1, [r3, #0]
 800697a:	b159      	cbz	r1, 8006994 <_dtoa_r+0x5c>
 800697c:	685a      	ldr	r2, [r3, #4]
 800697e:	604a      	str	r2, [r1, #4]
 8006980:	2301      	movs	r3, #1
 8006982:	4093      	lsls	r3, r2
 8006984:	608b      	str	r3, [r1, #8]
 8006986:	4658      	mov	r0, fp
 8006988:	f001 f894 	bl	8007ab4 <_Bfree>
 800698c:	f8db 301c 	ldr.w	r3, [fp, #28]
 8006990:	2200      	movs	r2, #0
 8006992:	601a      	str	r2, [r3, #0]
 8006994:	1e2b      	subs	r3, r5, #0
 8006996:	bfb9      	ittee	lt
 8006998:	f023 4300 	biclt.w	r3, r3, #2147483648	@ 0x80000000
 800699c:	9303      	strlt	r3, [sp, #12]
 800699e:	2300      	movge	r3, #0
 80069a0:	6033      	strge	r3, [r6, #0]
 80069a2:	9f03      	ldr	r7, [sp, #12]
 80069a4:	4b98      	ldr	r3, [pc, #608]	@ (8006c08 <_dtoa_r+0x2d0>)
 80069a6:	bfbc      	itt	lt
 80069a8:	2201      	movlt	r2, #1
 80069aa:	6032      	strlt	r2, [r6, #0]
 80069ac:	43bb      	bics	r3, r7
 80069ae:	d112      	bne.n	80069d6 <_dtoa_r+0x9e>
 80069b0:	9a13      	ldr	r2, [sp, #76]	@ 0x4c
 80069b2:	f242 730f 	movw	r3, #9999	@ 0x270f
 80069b6:	6013      	str	r3, [r2, #0]
 80069b8:	f3c7 0313 	ubfx	r3, r7, #0, #20
 80069bc:	4323      	orrs	r3, r4
 80069be:	f000 854d 	beq.w	800745c <_dtoa_r+0xb24>
 80069c2:	9b23      	ldr	r3, [sp, #140]	@ 0x8c
 80069c4:	f8df a254 	ldr.w	sl, [pc, #596]	@ 8006c1c <_dtoa_r+0x2e4>
 80069c8:	2b00      	cmp	r3, #0
 80069ca:	f000 854f 	beq.w	800746c <_dtoa_r+0xb34>
 80069ce:	f10a 0303 	add.w	r3, sl, #3
 80069d2:	f000 bd49 	b.w	8007468 <_dtoa_r+0xb30>
 80069d6:	ed9d 7b02 	vldr	d7, [sp, #8]
 80069da:	2200      	movs	r2, #0
 80069dc:	ec51 0b17 	vmov	r0, r1, d7
 80069e0:	2300      	movs	r3, #0
 80069e2:	ed8d 7b0c 	vstr	d7, [sp, #48]	@ 0x30
 80069e6:	f7fa f88f 	bl	8000b08 <__aeabi_dcmpeq>
 80069ea:	4680      	mov	r8, r0
 80069ec:	b158      	cbz	r0, 8006a06 <_dtoa_r+0xce>
 80069ee:	9a13      	ldr	r2, [sp, #76]	@ 0x4c
 80069f0:	2301      	movs	r3, #1
 80069f2:	6013      	str	r3, [r2, #0]
 80069f4:	9b23      	ldr	r3, [sp, #140]	@ 0x8c
 80069f6:	b113      	cbz	r3, 80069fe <_dtoa_r+0xc6>
 80069f8:	9a23      	ldr	r2, [sp, #140]	@ 0x8c
 80069fa:	4b84      	ldr	r3, [pc, #528]	@ (8006c0c <_dtoa_r+0x2d4>)
 80069fc:	6013      	str	r3, [r2, #0]
 80069fe:	f8df a220 	ldr.w	sl, [pc, #544]	@ 8006c20 <_dtoa_r+0x2e8>
 8006a02:	f000 bd33 	b.w	800746c <_dtoa_r+0xb34>
 8006a06:	ed9d 0b0c 	vldr	d0, [sp, #48]	@ 0x30
 8006a0a:	aa16      	add	r2, sp, #88	@ 0x58
 8006a0c:	a917      	add	r1, sp, #92	@ 0x5c
 8006a0e:	4658      	mov	r0, fp
 8006a10:	f001 fb3a 	bl	8008088 <__d2b>
 8006a14:	f3c7 560a 	ubfx	r6, r7, #20, #11
 8006a18:	4681      	mov	r9, r0
 8006a1a:	2e00      	cmp	r6, #0
 8006a1c:	d077      	beq.n	8006b0e <_dtoa_r+0x1d6>
 8006a1e:	9b0d      	ldr	r3, [sp, #52]	@ 0x34
 8006a20:	f8cd 8050 	str.w	r8, [sp, #80]	@ 0x50
 8006a24:	f3c3 0313 	ubfx	r3, r3, #0, #20
 8006a28:	e9dd 010c 	ldrd	r0, r1, [sp, #48]	@ 0x30
 8006a2c:	f043 537f 	orr.w	r3, r3, #1069547520	@ 0x3fc00000
 8006a30:	f443 1340 	orr.w	r3, r3, #3145728	@ 0x300000
 8006a34:	f2a6 36ff 	subw	r6, r6, #1023	@ 0x3ff
 8006a38:	4619      	mov	r1, r3
 8006a3a:	2200      	movs	r2, #0
 8006a3c:	4b74      	ldr	r3, [pc, #464]	@ (8006c10 <_dtoa_r+0x2d8>)
 8006a3e:	f7f9 fc43 	bl	80002c8 <__aeabi_dsub>
 8006a42:	a369      	add	r3, pc, #420	@ (adr r3, 8006be8 <_dtoa_r+0x2b0>)
 8006a44:	e9d3 2300 	ldrd	r2, r3, [r3]
 8006a48:	f7f9 fdf6 	bl	8000638 <__aeabi_dmul>
 8006a4c:	a368      	add	r3, pc, #416	@ (adr r3, 8006bf0 <_dtoa_r+0x2b8>)
 8006a4e:	e9d3 2300 	ldrd	r2, r3, [r3]
 8006a52:	f7f9 fc3b 	bl	80002cc <__adddf3>
 8006a56:	4604      	mov	r4, r0
 8006a58:	4630      	mov	r0, r6
 8006a5a:	460d      	mov	r5, r1
 8006a5c:	f7f9 fd82 	bl	8000564 <__aeabi_i2d>
 8006a60:	a365      	add	r3, pc, #404	@ (adr r3, 8006bf8 <_dtoa_r+0x2c0>)
 8006a62:	e9d3 2300 	ldrd	r2, r3, [r3]
 8006a66:	f7f9 fde7 	bl	8000638 <__aeabi_dmul>
 8006a6a:	4602      	mov	r2, r0
 8006a6c:	460b      	mov	r3, r1
 8006a6e:	4620      	mov	r0, r4
 8006a70:	4629      	mov	r1, r5
 8006a72:	f7f9 fc2b 	bl	80002cc <__adddf3>
 8006a76:	4604      	mov	r4, r0
 8006a78:	460d      	mov	r5, r1
 8006a7a:	f7fa f88d 	bl	8000b98 <__aeabi_d2iz>
 8006a7e:	2200      	movs	r2, #0
 8006a80:	4607      	mov	r7, r0
 8006a82:	2300      	movs	r3, #0
 8006a84:	4620      	mov	r0, r4
 8006a86:	4629      	mov	r1, r5
 8006a88:	f7fa f848 	bl	8000b1c <__aeabi_dcmplt>
 8006a8c:	b140      	cbz	r0, 8006aa0 <_dtoa_r+0x168>
 8006a8e:	4638      	mov	r0, r7
 8006a90:	f7f9 fd68 	bl	8000564 <__aeabi_i2d>
 8006a94:	4622      	mov	r2, r4
 8006a96:	462b      	mov	r3, r5
 8006a98:	f7fa f836 	bl	8000b08 <__aeabi_dcmpeq>
 8006a9c:	b900      	cbnz	r0, 8006aa0 <_dtoa_r+0x168>
 8006a9e:	3f01      	subs	r7, #1
 8006aa0:	2f16      	cmp	r7, #22
 8006aa2:	d851      	bhi.n	8006b48 <_dtoa_r+0x210>
 8006aa4:	4b5b      	ldr	r3, [pc, #364]	@ (8006c14 <_dtoa_r+0x2dc>)
 8006aa6:	eb03 03c7 	add.w	r3, r3, r7, lsl #3
 8006aaa:	e9d3 2300 	ldrd	r2, r3, [r3]
 8006aae:	e9dd 010c 	ldrd	r0, r1, [sp, #48]	@ 0x30
 8006ab2:	f7fa f833 	bl	8000b1c <__aeabi_dcmplt>
 8006ab6:	2800      	cmp	r0, #0
 8006ab8:	d048      	beq.n	8006b4c <_dtoa_r+0x214>
 8006aba:	3f01      	subs	r7, #1
 8006abc:	2300      	movs	r3, #0
 8006abe:	9312      	str	r3, [sp, #72]	@ 0x48
 8006ac0:	9b16      	ldr	r3, [sp, #88]	@ 0x58
 8006ac2:	1b9b      	subs	r3, r3, r6
 8006ac4:	1e5a      	subs	r2, r3, #1
 8006ac6:	bf44      	itt	mi
 8006ac8:	f1c3 0801 	rsbmi	r8, r3, #1
 8006acc:	2300      	movmi	r3, #0
 8006ace:	9208      	str	r2, [sp, #32]
 8006ad0:	bf54      	ite	pl
 8006ad2:	f04f 0800 	movpl.w	r8, #0
 8006ad6:	9308      	strmi	r3, [sp, #32]
 8006ad8:	2f00      	cmp	r7, #0
 8006ada:	db39      	blt.n	8006b50 <_dtoa_r+0x218>
 8006adc:	9b08      	ldr	r3, [sp, #32]
 8006ade:	970f      	str	r7, [sp, #60]	@ 0x3c
 8006ae0:	443b      	add	r3, r7
 8006ae2:	9308      	str	r3, [sp, #32]
 8006ae4:	2300      	movs	r3, #0
 8006ae6:	930a      	str	r3, [sp, #40]	@ 0x28
 8006ae8:	9b09      	ldr	r3, [sp, #36]	@ 0x24
 8006aea:	2b09      	cmp	r3, #9
 8006aec:	d864      	bhi.n	8006bb8 <_dtoa_r+0x280>
 8006aee:	2b05      	cmp	r3, #5
 8006af0:	bfc4      	itt	gt
 8006af2:	3b04      	subgt	r3, #4
 8006af4:	9309      	strgt	r3, [sp, #36]	@ 0x24
 8006af6:	9b09      	ldr	r3, [sp, #36]	@ 0x24
 8006af8:	f1a3 0302 	sub.w	r3, r3, #2
 8006afc:	bfcc      	ite	gt
 8006afe:	2400      	movgt	r4, #0
 8006b00:	2401      	movle	r4, #1
 8006b02:	2b03      	cmp	r3, #3
 8006b04:	d863      	bhi.n	8006bce <_dtoa_r+0x296>
 8006b06:	e8df f003 	tbb	[pc, r3]
 8006b0a:	372a      	.short	0x372a
 8006b0c:	5535      	.short	0x5535
 8006b0e:	e9dd 6316 	ldrd	r6, r3, [sp, #88]	@ 0x58
 8006b12:	441e      	add	r6, r3
 8006b14:	f206 4332 	addw	r3, r6, #1074	@ 0x432
 8006b18:	2b20      	cmp	r3, #32
 8006b1a:	bfc1      	itttt	gt
 8006b1c:	f1c3 0340 	rsbgt	r3, r3, #64	@ 0x40
 8006b20:	409f      	lslgt	r7, r3
 8006b22:	f206 4312 	addwgt	r3, r6, #1042	@ 0x412
 8006b26:	fa24 f303 	lsrgt.w	r3, r4, r3
 8006b2a:	bfd6      	itet	le
 8006b2c:	f1c3 0320 	rsble	r3, r3, #32
 8006b30:	ea47 0003 	orrgt.w	r0, r7, r3
 8006b34:	fa04 f003 	lslle.w	r0, r4, r3
 8006b38:	f7f9 fd04 	bl	8000544 <__aeabi_ui2d>
 8006b3c:	2201      	movs	r2, #1
 8006b3e:	f1a1 73f8 	sub.w	r3, r1, #32505856	@ 0x1f00000
 8006b42:	3e01      	subs	r6, #1
 8006b44:	9214      	str	r2, [sp, #80]	@ 0x50
 8006b46:	e777      	b.n	8006a38 <_dtoa_r+0x100>
 8006b48:	2301      	movs	r3, #1
 8006b4a:	e7b8      	b.n	8006abe <_dtoa_r+0x186>
 8006b4c:	9012      	str	r0, [sp, #72]	@ 0x48
 8006b4e:	e7b7      	b.n	8006ac0 <_dtoa_r+0x188>
 8006b50:	427b      	negs	r3, r7
 8006b52:	930a      	str	r3, [sp, #40]	@ 0x28
 8006b54:	2300      	movs	r3, #0
 8006b56:	eba8 0807 	sub.w	r8, r8, r7
 8006b5a:	930f      	str	r3, [sp, #60]	@ 0x3c
 8006b5c:	e7c4      	b.n	8006ae8 <_dtoa_r+0x1b0>
 8006b5e:	2300      	movs	r3, #0
 8006b60:	930b      	str	r3, [sp, #44]	@ 0x2c
 8006b62:	9b0e      	ldr	r3, [sp, #56]	@ 0x38
 8006b64:	2b00      	cmp	r3, #0
 8006b66:	dc35      	bgt.n	8006bd4 <_dtoa_r+0x29c>
 8006b68:	2301      	movs	r3, #1
 8006b6a:	9300      	str	r3, [sp, #0]
 8006b6c:	9307      	str	r3, [sp, #28]
 8006b6e:	461a      	mov	r2, r3
 8006b70:	920e      	str	r2, [sp, #56]	@ 0x38
 8006b72:	e00b      	b.n	8006b8c <_dtoa_r+0x254>
 8006b74:	2301      	movs	r3, #1
 8006b76:	e7f3      	b.n	8006b60 <_dtoa_r+0x228>
 8006b78:	2300      	movs	r3, #0
 8006b7a:	930b      	str	r3, [sp, #44]	@ 0x2c
 8006b7c:	9b0e      	ldr	r3, [sp, #56]	@ 0x38
 8006b7e:	18fb      	adds	r3, r7, r3
 8006b80:	9300      	str	r3, [sp, #0]
 8006b82:	3301      	adds	r3, #1
 8006b84:	2b01      	cmp	r3, #1
 8006b86:	9307      	str	r3, [sp, #28]
 8006b88:	bfb8      	it	lt
 8006b8a:	2301      	movlt	r3, #1
 8006b8c:	f8db 001c 	ldr.w	r0, [fp, #28]
 8006b90:	2100      	movs	r1, #0
 8006b92:	2204      	movs	r2, #4
 8006b94:	f102 0514 	add.w	r5, r2, #20
 8006b98:	429d      	cmp	r5, r3
 8006b9a:	d91f      	bls.n	8006bdc <_dtoa_r+0x2a4>
 8006b9c:	6041      	str	r1, [r0, #4]
 8006b9e:	4658      	mov	r0, fp
 8006ba0:	f000 ff48 	bl	8007a34 <_Balloc>
 8006ba4:	4682      	mov	sl, r0
 8006ba6:	2800      	cmp	r0, #0
 8006ba8:	d13c      	bne.n	8006c24 <_dtoa_r+0x2ec>
 8006baa:	4b1b      	ldr	r3, [pc, #108]	@ (8006c18 <_dtoa_r+0x2e0>)
 8006bac:	4602      	mov	r2, r0
 8006bae:	f240 11af 	movw	r1, #431	@ 0x1af
 8006bb2:	e6d8      	b.n	8006966 <_dtoa_r+0x2e>
 8006bb4:	2301      	movs	r3, #1
 8006bb6:	e7e0      	b.n	8006b7a <_dtoa_r+0x242>
 8006bb8:	2401      	movs	r4, #1
 8006bba:	2300      	movs	r3, #0
 8006bbc:	9309      	str	r3, [sp, #36]	@ 0x24
 8006bbe:	940b      	str	r4, [sp, #44]	@ 0x2c
 8006bc0:	f04f 33ff 	mov.w	r3, #4294967295	@ 0xffffffff
 8006bc4:	9300      	str	r3, [sp, #0]
 8006bc6:	9307      	str	r3, [sp, #28]
 8006bc8:	2200      	movs	r2, #0
 8006bca:	2312      	movs	r3, #18
 8006bcc:	e7d0      	b.n	8006b70 <_dtoa_r+0x238>
 8006bce:	2301      	movs	r3, #1
 8006bd0:	930b      	str	r3, [sp, #44]	@ 0x2c
 8006bd2:	e7f5      	b.n	8006bc0 <_dtoa_r+0x288>
 8006bd4:	9b0e      	ldr	r3, [sp, #56]	@ 0x38
 8006bd6:	9300      	str	r3, [sp, #0]
 8006bd8:	9307      	str	r3, [sp, #28]
 8006bda:	e7d7      	b.n	8006b8c <_dtoa_r+0x254>
 8006bdc:	3101      	adds	r1, #1
 8006bde:	0052      	lsls	r2, r2, #1
 8006be0:	e7d8      	b.n	8006b94 <_dtoa_r+0x25c>
 8006be2:	bf00      	nop
 8006be4:	f3af 8000 	nop.w
 8006be8:	636f4361 	.word	0x636f4361
 8006bec:	3fd287a7 	.word	0x3fd287a7
 8006bf0:	8b60c8b3 	.word	0x8b60c8b3
 8006bf4:	3fc68a28 	.word	0x3fc68a28
 8006bf8:	509f79fb 	.word	0x509f79fb
 8006bfc:	3fd34413 	.word	0x3fd34413
 8006c00:	08009a61 	.word	0x08009a61
 8006c04:	08009a78 	.word	0x08009a78
 8006c08:	7ff00000 	.word	0x7ff00000
 8006c0c:	08009a31 	.word	0x08009a31
 8006c10:	3ff80000 	.word	0x3ff80000
 8006c14:	08009b80 	.word	0x08009b80
 8006c18:	08009ad0 	.word	0x08009ad0
 8006c1c:	08009a5d 	.word	0x08009a5d
 8006c20:	08009a30 	.word	0x08009a30
 8006c24:	f8db 301c 	ldr.w	r3, [fp, #28]
 8006c28:	6018      	str	r0, [r3, #0]
 8006c2a:	9b07      	ldr	r3, [sp, #28]
 8006c2c:	2b0e      	cmp	r3, #14
 8006c2e:	f200 80a4 	bhi.w	8006d7a <_dtoa_r+0x442>
 8006c32:	2c00      	cmp	r4, #0
 8006c34:	f000 80a1 	beq.w	8006d7a <_dtoa_r+0x442>
 8006c38:	2f00      	cmp	r7, #0
 8006c3a:	dd33      	ble.n	8006ca4 <_dtoa_r+0x36c>
 8006c3c:	4bad      	ldr	r3, [pc, #692]	@ (8006ef4 <_dtoa_r+0x5bc>)
 8006c3e:	f007 020f 	and.w	r2, r7, #15
 8006c42:	eb03 03c2 	add.w	r3, r3, r2, lsl #3
 8006c46:	ed93 7b00 	vldr	d7, [r3]
 8006c4a:	05f8      	lsls	r0, r7, #23
 8006c4c:	ed8d 7b04 	vstr	d7, [sp, #16]
 8006c50:	ea4f 1427 	mov.w	r4, r7, asr #4
 8006c54:	d516      	bpl.n	8006c84 <_dtoa_r+0x34c>
 8006c56:	4ba8      	ldr	r3, [pc, #672]	@ (8006ef8 <_dtoa_r+0x5c0>)
 8006c58:	e9dd 010c 	ldrd	r0, r1, [sp, #48]	@ 0x30
 8006c5c:	e9d3 2308 	ldrd	r2, r3, [r3, #32]
 8006c60:	f7f9 fe14 	bl	800088c <__aeabi_ddiv>
 8006c64:	e9cd 0102 	strd	r0, r1, [sp, #8]
 8006c68:	f004 040f 	and.w	r4, r4, #15
 8006c6c:	2603      	movs	r6, #3
 8006c6e:	4da2      	ldr	r5, [pc, #648]	@ (8006ef8 <_dtoa_r+0x5c0>)
 8006c70:	b954      	cbnz	r4, 8006c88 <_dtoa_r+0x350>
 8006c72:	e9dd 2304 	ldrd	r2, r3, [sp, #16]
 8006c76:	e9dd 0102 	ldrd	r0, r1, [sp, #8]
 8006c7a:	f7f9 fe07 	bl	800088c <__aeabi_ddiv>
 8006c7e:	e9cd 0102 	strd	r0, r1, [sp, #8]
 8006c82:	e028      	b.n	8006cd6 <_dtoa_r+0x39e>
 8006c84:	2602      	movs	r6, #2
 8006c86:	e7f2      	b.n	8006c6e <_dtoa_r+0x336>
 8006c88:	07e1      	lsls	r1, r4, #31
 8006c8a:	d508      	bpl.n	8006c9e <_dtoa_r+0x366>
 8006c8c:	e9dd 0104 	ldrd	r0, r1, [sp, #16]
 8006c90:	e9d5 2300 	ldrd	r2, r3, [r5]
 8006c94:	f7f9 fcd0 	bl	8000638 <__aeabi_dmul>
 8006c98:	e9cd 0104 	strd	r0, r1, [sp, #16]
 8006c9c:	3601      	adds	r6, #1
 8006c9e:	1064      	asrs	r4, r4, #1
 8006ca0:	3508      	adds	r5, #8
 8006ca2:	e7e5      	b.n	8006c70 <_dtoa_r+0x338>
 8006ca4:	f000 80d2 	beq.w	8006e4c <_dtoa_r+0x514>
 8006ca8:	427c      	negs	r4, r7
 8006caa:	4b92      	ldr	r3, [pc, #584]	@ (8006ef4 <_dtoa_r+0x5bc>)
 8006cac:	4d92      	ldr	r5, [pc, #584]	@ (8006ef8 <_dtoa_r+0x5c0>)
 8006cae:	f004 020f 	and.w	r2, r4, #15
 8006cb2:	eb03 03c2 	add.w	r3, r3, r2, lsl #3
 8006cb6:	e9d3 2300 	ldrd	r2, r3, [r3]
 8006cba:	e9dd 010c 	ldrd	r0, r1, [sp, #48]	@ 0x30
 8006cbe:	f7f9 fcbb 	bl	8000638 <__aeabi_dmul>
 8006cc2:	e9cd 0102 	strd	r0, r1, [sp, #8]
 8006cc6:	1124      	asrs	r4, r4, #4
 8006cc8:	2300      	movs	r3, #0
 8006cca:	2602      	movs	r6, #2
 8006ccc:	2c00      	cmp	r4, #0
 8006cce:	f040 80b2 	bne.w	8006e36 <_dtoa_r+0x4fe>
 8006cd2:	2b00      	cmp	r3, #0
 8006cd4:	d1d3      	bne.n	8006c7e <_dtoa_r+0x346>
 8006cd6:	9b12      	ldr	r3, [sp, #72]	@ 0x48
 8006cd8:	e9dd 4502 	ldrd	r4, r5, [sp, #8]
 8006cdc:	2b00      	cmp	r3, #0
 8006cde:	f000 80b7 	beq.w	8006e50 <_dtoa_r+0x518>
 8006ce2:	4b86      	ldr	r3, [pc, #536]	@ (8006efc <_dtoa_r+0x5c4>)
 8006ce4:	2200      	movs	r2, #0
 8006ce6:	4620      	mov	r0, r4
 8006ce8:	4629      	mov	r1, r5
 8006cea:	f7f9 ff17 	bl	8000b1c <__aeabi_dcmplt>
 8006cee:	2800      	cmp	r0, #0
 8006cf0:	f000 80ae 	beq.w	8006e50 <_dtoa_r+0x518>
 8006cf4:	9b07      	ldr	r3, [sp, #28]
 8006cf6:	2b00      	cmp	r3, #0
 8006cf8:	f000 80aa 	beq.w	8006e50 <_dtoa_r+0x518>
 8006cfc:	9b00      	ldr	r3, [sp, #0]
 8006cfe:	2b00      	cmp	r3, #0
 8006d00:	dd37      	ble.n	8006d72 <_dtoa_r+0x43a>
 8006d02:	1e7b      	subs	r3, r7, #1
 8006d04:	9304      	str	r3, [sp, #16]
 8006d06:	4620      	mov	r0, r4
 8006d08:	4b7d      	ldr	r3, [pc, #500]	@ (8006f00 <_dtoa_r+0x5c8>)
 8006d0a:	2200      	movs	r2, #0
 8006d0c:	4629      	mov	r1, r5
 8006d0e:	f7f9 fc93 	bl	8000638 <__aeabi_dmul>
 8006d12:	e9cd 0102 	strd	r0, r1, [sp, #8]
 8006d16:	9c00      	ldr	r4, [sp, #0]
 8006d18:	3601      	adds	r6, #1
 8006d1a:	4630      	mov	r0, r6
 8006d1c:	f7f9 fc22 	bl	8000564 <__aeabi_i2d>
 8006d20:	e9dd 2302 	ldrd	r2, r3, [sp, #8]
 8006d24:	f7f9 fc88 	bl	8000638 <__aeabi_dmul>
 8006d28:	4b76      	ldr	r3, [pc, #472]	@ (8006f04 <_dtoa_r+0x5cc>)
 8006d2a:	2200      	movs	r2, #0
 8006d2c:	f7f9 face 	bl	80002cc <__adddf3>
 8006d30:	4605      	mov	r5, r0
 8006d32:	f1a1 7650 	sub.w	r6, r1, #54525952	@ 0x3400000
 8006d36:	2c00      	cmp	r4, #0
 8006d38:	f040 808d 	bne.w	8006e56 <_dtoa_r+0x51e>
 8006d3c:	e9dd 0102 	ldrd	r0, r1, [sp, #8]
 8006d40:	4b71      	ldr	r3, [pc, #452]	@ (8006f08 <_dtoa_r+0x5d0>)
 8006d42:	2200      	movs	r2, #0
 8006d44:	f7f9 fac0 	bl	80002c8 <__aeabi_dsub>
 8006d48:	4602      	mov	r2, r0
 8006d4a:	460b      	mov	r3, r1
 8006d4c:	e9cd 2302 	strd	r2, r3, [sp, #8]
 8006d50:	462a      	mov	r2, r5
 8006d52:	4633      	mov	r3, r6
 8006d54:	f7f9 ff00 	bl	8000b58 <__aeabi_dcmpgt>
 8006d58:	2800      	cmp	r0, #0
 8006d5a:	f040 828b 	bne.w	8007274 <_dtoa_r+0x93c>
 8006d5e:	e9dd 0102 	ldrd	r0, r1, [sp, #8]
 8006d62:	462a      	mov	r2, r5
 8006d64:	f106 4300 	add.w	r3, r6, #2147483648	@ 0x80000000
 8006d68:	f7f9 fed8 	bl	8000b1c <__aeabi_dcmplt>
 8006d6c:	2800      	cmp	r0, #0
 8006d6e:	f040 8128 	bne.w	8006fc2 <_dtoa_r+0x68a>
 8006d72:	e9dd 340c 	ldrd	r3, r4, [sp, #48]	@ 0x30
 8006d76:	e9cd 3402 	strd	r3, r4, [sp, #8]
 8006d7a:	9b17      	ldr	r3, [sp, #92]	@ 0x5c
 8006d7c:	2b00      	cmp	r3, #0
 8006d7e:	f2c0 815a 	blt.w	8007036 <_dtoa_r+0x6fe>
 8006d82:	2f0e      	cmp	r7, #14
 8006d84:	f300 8157 	bgt.w	8007036 <_dtoa_r+0x6fe>
 8006d88:	4b5a      	ldr	r3, [pc, #360]	@ (8006ef4 <_dtoa_r+0x5bc>)
 8006d8a:	eb03 03c7 	add.w	r3, r3, r7, lsl #3
 8006d8e:	ed93 7b00 	vldr	d7, [r3]
 8006d92:	9b0e      	ldr	r3, [sp, #56]	@ 0x38
 8006d94:	2b00      	cmp	r3, #0
 8006d96:	ed8d 7b00 	vstr	d7, [sp]
 8006d9a:	da03      	bge.n	8006da4 <_dtoa_r+0x46c>
 8006d9c:	9b07      	ldr	r3, [sp, #28]
 8006d9e:	2b00      	cmp	r3, #0
 8006da0:	f340 8101 	ble.w	8006fa6 <_dtoa_r+0x66e>
 8006da4:	e9dd 4502 	ldrd	r4, r5, [sp, #8]
 8006da8:	4656      	mov	r6, sl
 8006daa:	e9dd 2300 	ldrd	r2, r3, [sp]
 8006dae:	4620      	mov	r0, r4
 8006db0:	4629      	mov	r1, r5
 8006db2:	f7f9 fd6b 	bl	800088c <__aeabi_ddiv>
 8006db6:	f7f9 feef 	bl	8000b98 <__aeabi_d2iz>
 8006dba:	4680      	mov	r8, r0
 8006dbc:	f7f9 fbd2 	bl	8000564 <__aeabi_i2d>
 8006dc0:	e9dd 2300 	ldrd	r2, r3, [sp]
 8006dc4:	f7f9 fc38 	bl	8000638 <__aeabi_dmul>
 8006dc8:	4602      	mov	r2, r0
 8006dca:	460b      	mov	r3, r1
 8006dcc:	4620      	mov	r0, r4
 8006dce:	4629      	mov	r1, r5
 8006dd0:	f108 0430 	add.w	r4, r8, #48	@ 0x30
 8006dd4:	f7f9 fa78 	bl	80002c8 <__aeabi_dsub>
 8006dd8:	f806 4b01 	strb.w	r4, [r6], #1
 8006ddc:	9d07      	ldr	r5, [sp, #28]
 8006dde:	eba6 040a 	sub.w	r4, r6, sl
 8006de2:	42a5      	cmp	r5, r4
 8006de4:	4602      	mov	r2, r0
 8006de6:	460b      	mov	r3, r1
 8006de8:	f040 8117 	bne.w	800701a <_dtoa_r+0x6e2>
 8006dec:	f7f9 fa6e 	bl	80002cc <__adddf3>
 8006df0:	e9dd 2300 	ldrd	r2, r3, [sp]
 8006df4:	4604      	mov	r4, r0
 8006df6:	460d      	mov	r5, r1
 8006df8:	f7f9 feae 	bl	8000b58 <__aeabi_dcmpgt>
 8006dfc:	2800      	cmp	r0, #0
 8006dfe:	f040 80f9 	bne.w	8006ff4 <_dtoa_r+0x6bc>
 8006e02:	e9dd 2300 	ldrd	r2, r3, [sp]
 8006e06:	4620      	mov	r0, r4
 8006e08:	4629      	mov	r1, r5
 8006e0a:	f7f9 fe7d 	bl	8000b08 <__aeabi_dcmpeq>
 8006e0e:	b118      	cbz	r0, 8006e18 <_dtoa_r+0x4e0>
 8006e10:	f018 0f01 	tst.w	r8, #1
 8006e14:	f040 80ee 	bne.w	8006ff4 <_dtoa_r+0x6bc>
 8006e18:	4649      	mov	r1, r9
 8006e1a:	4658      	mov	r0, fp
 8006e1c:	f000 fe4a 	bl	8007ab4 <_Bfree>
 8006e20:	2300      	movs	r3, #0
 8006e22:	7033      	strb	r3, [r6, #0]
 8006e24:	9b13      	ldr	r3, [sp, #76]	@ 0x4c
 8006e26:	3701      	adds	r7, #1
 8006e28:	601f      	str	r7, [r3, #0]
 8006e2a:	9b23      	ldr	r3, [sp, #140]	@ 0x8c
 8006e2c:	2b00      	cmp	r3, #0
 8006e2e:	f000 831d 	beq.w	800746c <_dtoa_r+0xb34>
 8006e32:	601e      	str	r6, [r3, #0]
 8006e34:	e31a      	b.n	800746c <_dtoa_r+0xb34>
 8006e36:	07e2      	lsls	r2, r4, #31
 8006e38:	d505      	bpl.n	8006e46 <_dtoa_r+0x50e>
 8006e3a:	e9d5 2300 	ldrd	r2, r3, [r5]
 8006e3e:	f7f9 fbfb 	bl	8000638 <__aeabi_dmul>
 8006e42:	3601      	adds	r6, #1
 8006e44:	2301      	movs	r3, #1
 8006e46:	1064      	asrs	r4, r4, #1
 8006e48:	3508      	adds	r5, #8
 8006e4a:	e73f      	b.n	8006ccc <_dtoa_r+0x394>
 8006e4c:	2602      	movs	r6, #2
 8006e4e:	e742      	b.n	8006cd6 <_dtoa_r+0x39e>
 8006e50:	9c07      	ldr	r4, [sp, #28]
 8006e52:	9704      	str	r7, [sp, #16]
 8006e54:	e761      	b.n	8006d1a <_dtoa_r+0x3e2>
 8006e56:	4b27      	ldr	r3, [pc, #156]	@ (8006ef4 <_dtoa_r+0x5bc>)
 8006e58:	990b      	ldr	r1, [sp, #44]	@ 0x2c
 8006e5a:	eb03 03c4 	add.w	r3, r3, r4, lsl #3
 8006e5e:	e953 2302 	ldrd	r2, r3, [r3, #-8]
 8006e62:	4454      	add	r4, sl
 8006e64:	2900      	cmp	r1, #0
 8006e66:	d053      	beq.n	8006f10 <_dtoa_r+0x5d8>
 8006e68:	4928      	ldr	r1, [pc, #160]	@ (8006f0c <_dtoa_r+0x5d4>)
 8006e6a:	2000      	movs	r0, #0
 8006e6c:	f7f9 fd0e 	bl	800088c <__aeabi_ddiv>
 8006e70:	4633      	mov	r3, r6
 8006e72:	462a      	mov	r2, r5
 8006e74:	f7f9 fa28 	bl	80002c8 <__aeabi_dsub>
 8006e78:	e9cd 0110 	strd	r0, r1, [sp, #64]	@ 0x40
 8006e7c:	4656      	mov	r6, sl
 8006e7e:	e9dd 0102 	ldrd	r0, r1, [sp, #8]
 8006e82:	f7f9 fe89 	bl	8000b98 <__aeabi_d2iz>
 8006e86:	4605      	mov	r5, r0
 8006e88:	f7f9 fb6c 	bl	8000564 <__aeabi_i2d>
 8006e8c:	4602      	mov	r2, r0
 8006e8e:	460b      	mov	r3, r1
 8006e90:	e9dd 0102 	ldrd	r0, r1, [sp, #8]
 8006e94:	f7f9 fa18 	bl	80002c8 <__aeabi_dsub>
 8006e98:	3530      	adds	r5, #48	@ 0x30
 8006e9a:	4602      	mov	r2, r0
 8006e9c:	460b      	mov	r3, r1
 8006e9e:	e9cd 2302 	strd	r2, r3, [sp, #8]
 8006ea2:	f806 5b01 	strb.w	r5, [r6], #1
 8006ea6:	e9dd 2310 	ldrd	r2, r3, [sp, #64]	@ 0x40
 8006eaa:	f7f9 fe37 	bl	8000b1c <__aeabi_dcmplt>
 8006eae:	2800      	cmp	r0, #0
 8006eb0:	d171      	bne.n	8006f96 <_dtoa_r+0x65e>
 8006eb2:	e9dd 2302 	ldrd	r2, r3, [sp, #8]
 8006eb6:	4911      	ldr	r1, [pc, #68]	@ (8006efc <_dtoa_r+0x5c4>)
 8006eb8:	2000      	movs	r0, #0
 8006eba:	f7f9 fa05 	bl	80002c8 <__aeabi_dsub>
 8006ebe:	e9dd 2310 	ldrd	r2, r3, [sp, #64]	@ 0x40
 8006ec2:	f7f9 fe2b 	bl	8000b1c <__aeabi_dcmplt>
 8006ec6:	2800      	cmp	r0, #0
 8006ec8:	f040 8095 	bne.w	8006ff6 <_dtoa_r+0x6be>
 8006ecc:	42a6      	cmp	r6, r4
 8006ece:	f43f af50 	beq.w	8006d72 <_dtoa_r+0x43a>
 8006ed2:	e9dd 0110 	ldrd	r0, r1, [sp, #64]	@ 0x40
 8006ed6:	4b0a      	ldr	r3, [pc, #40]	@ (8006f00 <_dtoa_r+0x5c8>)
 8006ed8:	2200      	movs	r2, #0
 8006eda:	f7f9 fbad 	bl	8000638 <__aeabi_dmul>
 8006ede:	4b08      	ldr	r3, [pc, #32]	@ (8006f00 <_dtoa_r+0x5c8>)
 8006ee0:	e9cd 0110 	strd	r0, r1, [sp, #64]	@ 0x40
 8006ee4:	2200      	movs	r2, #0
 8006ee6:	e9dd 0102 	ldrd	r0, r1, [sp, #8]
 8006eea:	f7f9 fba5 	bl	8000638 <__aeabi_dmul>
 8006eee:	e9cd 0102 	strd	r0, r1, [sp, #8]
 8006ef2:	e7c4      	b.n	8006e7e <_dtoa_r+0x546>
 8006ef4:	08009b80 	.word	0x08009b80
 8006ef8:	08009b58 	.word	0x08009b58
 8006efc:	3ff00000 	.word	0x3ff00000
 8006f00:	40240000 	.word	0x40240000
 8006f04:	401c0000 	.word	0x401c0000
 8006f08:	40140000 	.word	0x40140000
 8006f0c:	3fe00000 	.word	0x3fe00000
 8006f10:	4631      	mov	r1, r6
 8006f12:	4628      	mov	r0, r5
 8006f14:	f7f9 fb90 	bl	8000638 <__aeabi_dmul>
 8006f18:	e9cd 0110 	strd	r0, r1, [sp, #64]	@ 0x40
 8006f1c:	9415      	str	r4, [sp, #84]	@ 0x54
 8006f1e:	4656      	mov	r6, sl
 8006f20:	e9dd 0102 	ldrd	r0, r1, [sp, #8]
 8006f24:	f7f9 fe38 	bl	8000b98 <__aeabi_d2iz>
 8006f28:	4605      	mov	r5, r0
 8006f2a:	f7f9 fb1b 	bl	8000564 <__aeabi_i2d>
 8006f2e:	4602      	mov	r2, r0
 8006f30:	460b      	mov	r3, r1
 8006f32:	e9dd 0102 	ldrd	r0, r1, [sp, #8]
 8006f36:	f7f9 f9c7 	bl	80002c8 <__aeabi_dsub>
 8006f3a:	3530      	adds	r5, #48	@ 0x30
 8006f3c:	f806 5b01 	strb.w	r5, [r6], #1
 8006f40:	4602      	mov	r2, r0
 8006f42:	460b      	mov	r3, r1
 8006f44:	42a6      	cmp	r6, r4
 8006f46:	e9cd 2302 	strd	r2, r3, [sp, #8]
 8006f4a:	f04f 0200 	mov.w	r2, #0
 8006f4e:	d124      	bne.n	8006f9a <_dtoa_r+0x662>
 8006f50:	4bac      	ldr	r3, [pc, #688]	@ (8007204 <_dtoa_r+0x8cc>)
 8006f52:	e9dd 0110 	ldrd	r0, r1, [sp, #64]	@ 0x40
 8006f56:	f7f9 f9b9 	bl	80002cc <__adddf3>
 8006f5a:	4602      	mov	r2, r0
 8006f5c:	460b      	mov	r3, r1
 8006f5e:	e9dd 0102 	ldrd	r0, r1, [sp, #8]
 8006f62:	f7f9 fdf9 	bl	8000b58 <__aeabi_dcmpgt>
 8006f66:	2800      	cmp	r0, #0
 8006f68:	d145      	bne.n	8006ff6 <_dtoa_r+0x6be>
 8006f6a:	e9dd 2310 	ldrd	r2, r3, [sp, #64]	@ 0x40
 8006f6e:	49a5      	ldr	r1, [pc, #660]	@ (8007204 <_dtoa_r+0x8cc>)
 8006f70:	2000      	movs	r0, #0
 8006f72:	f7f9 f9a9 	bl	80002c8 <__aeabi_dsub>
 8006f76:	4602      	mov	r2, r0
 8006f78:	460b      	mov	r3, r1
 8006f7a:	e9dd 0102 	ldrd	r0, r1, [sp, #8]
 8006f7e:	f7f9 fdcd 	bl	8000b1c <__aeabi_dcmplt>
 8006f82:	2800      	cmp	r0, #0
 8006f84:	f43f aef5 	beq.w	8006d72 <_dtoa_r+0x43a>
 8006f88:	9e15      	ldr	r6, [sp, #84]	@ 0x54
 8006f8a:	1e73      	subs	r3, r6, #1
 8006f8c:	9315      	str	r3, [sp, #84]	@ 0x54
 8006f8e:	f816 3c01 	ldrb.w	r3, [r6, #-1]
 8006f92:	2b30      	cmp	r3, #48	@ 0x30
 8006f94:	d0f8      	beq.n	8006f88 <_dtoa_r+0x650>
 8006f96:	9f04      	ldr	r7, [sp, #16]
 8006f98:	e73e      	b.n	8006e18 <_dtoa_r+0x4e0>
 8006f9a:	4b9b      	ldr	r3, [pc, #620]	@ (8007208 <_dtoa_r+0x8d0>)
 8006f9c:	f7f9 fb4c 	bl	8000638 <__aeabi_dmul>
 8006fa0:	e9cd 0102 	strd	r0, r1, [sp, #8]
 8006fa4:	e7bc      	b.n	8006f20 <_dtoa_r+0x5e8>
 8006fa6:	d10c      	bne.n	8006fc2 <_dtoa_r+0x68a>
 8006fa8:	4b98      	ldr	r3, [pc, #608]	@ (800720c <_dtoa_r+0x8d4>)
 8006faa:	2200      	movs	r2, #0
 8006fac:	e9dd 0100 	ldrd	r0, r1, [sp]
 8006fb0:	f7f9 fb42 	bl	8000638 <__aeabi_dmul>
 8006fb4:	e9dd 2302 	ldrd	r2, r3, [sp, #8]
 8006fb8:	f7f9 fdc4 	bl	8000b44 <__aeabi_dcmpge>
 8006fbc:	2800      	cmp	r0, #0
 8006fbe:	f000 8157 	beq.w	8007270 <_dtoa_r+0x938>
 8006fc2:	2400      	movs	r4, #0
 8006fc4:	4625      	mov	r5, r4
 8006fc6:	9b0e      	ldr	r3, [sp, #56]	@ 0x38
 8006fc8:	43db      	mvns	r3, r3
 8006fca:	9304      	str	r3, [sp, #16]
 8006fcc:	4656      	mov	r6, sl
 8006fce:	2700      	movs	r7, #0
 8006fd0:	4621      	mov	r1, r4
 8006fd2:	4658      	mov	r0, fp
 8006fd4:	f000 fd6e 	bl	8007ab4 <_Bfree>
 8006fd8:	2d00      	cmp	r5, #0
 8006fda:	d0dc      	beq.n	8006f96 <_dtoa_r+0x65e>
 8006fdc:	b12f      	cbz	r7, 8006fea <_dtoa_r+0x6b2>
 8006fde:	42af      	cmp	r7, r5
 8006fe0:	d003      	beq.n	8006fea <_dtoa_r+0x6b2>
 8006fe2:	4639      	mov	r1, r7
 8006fe4:	4658      	mov	r0, fp
 8006fe6:	f000 fd65 	bl	8007ab4 <_Bfree>
 8006fea:	4629      	mov	r1, r5
 8006fec:	4658      	mov	r0, fp
 8006fee:	f000 fd61 	bl	8007ab4 <_Bfree>
 8006ff2:	e7d0      	b.n	8006f96 <_dtoa_r+0x65e>
 8006ff4:	9704      	str	r7, [sp, #16]
 8006ff6:	4633      	mov	r3, r6
 8006ff8:	461e      	mov	r6, r3
 8006ffa:	f813 2d01 	ldrb.w	r2, [r3, #-1]!
 8006ffe:	2a39      	cmp	r2, #57	@ 0x39
 8007000:	d107      	bne.n	8007012 <_dtoa_r+0x6da>
 8007002:	459a      	cmp	sl, r3
 8007004:	d1f8      	bne.n	8006ff8 <_dtoa_r+0x6c0>
 8007006:	9a04      	ldr	r2, [sp, #16]
 8007008:	3201      	adds	r2, #1
 800700a:	9204      	str	r2, [sp, #16]
 800700c:	2230      	movs	r2, #48	@ 0x30
 800700e:	f88a 2000 	strb.w	r2, [sl]
 8007012:	781a      	ldrb	r2, [r3, #0]
 8007014:	3201      	adds	r2, #1
 8007016:	701a      	strb	r2, [r3, #0]
 8007018:	e7bd      	b.n	8006f96 <_dtoa_r+0x65e>
 800701a:	4b7b      	ldr	r3, [pc, #492]	@ (8007208 <_dtoa_r+0x8d0>)
 800701c:	2200      	movs	r2, #0
 800701e:	f7f9 fb0b 	bl	8000638 <__aeabi_dmul>
 8007022:	2200      	movs	r2, #0
 8007024:	2300      	movs	r3, #0
 8007026:	4604      	mov	r4, r0
 8007028:	460d      	mov	r5, r1
 800702a:	f7f9 fd6d 	bl	8000b08 <__aeabi_dcmpeq>
 800702e:	2800      	cmp	r0, #0
 8007030:	f43f aebb 	beq.w	8006daa <_dtoa_r+0x472>
 8007034:	e6f0      	b.n	8006e18 <_dtoa_r+0x4e0>
 8007036:	9a0b      	ldr	r2, [sp, #44]	@ 0x2c
 8007038:	2a00      	cmp	r2, #0
 800703a:	f000 80db 	beq.w	80071f4 <_dtoa_r+0x8bc>
 800703e:	9a09      	ldr	r2, [sp, #36]	@ 0x24
 8007040:	2a01      	cmp	r2, #1
 8007042:	f300 80bf 	bgt.w	80071c4 <_dtoa_r+0x88c>
 8007046:	9a14      	ldr	r2, [sp, #80]	@ 0x50
 8007048:	2a00      	cmp	r2, #0
 800704a:	f000 80b7 	beq.w	80071bc <_dtoa_r+0x884>
 800704e:	f203 4333 	addw	r3, r3, #1075	@ 0x433
 8007052:	9c0a      	ldr	r4, [sp, #40]	@ 0x28
 8007054:	4646      	mov	r6, r8
 8007056:	9a08      	ldr	r2, [sp, #32]
 8007058:	2101      	movs	r1, #1
 800705a:	441a      	add	r2, r3
 800705c:	4658      	mov	r0, fp
 800705e:	4498      	add	r8, r3
 8007060:	9208      	str	r2, [sp, #32]
 8007062:	f000 fddb 	bl	8007c1c <__i2b>
 8007066:	4605      	mov	r5, r0
 8007068:	b15e      	cbz	r6, 8007082 <_dtoa_r+0x74a>
 800706a:	9b08      	ldr	r3, [sp, #32]
 800706c:	2b00      	cmp	r3, #0
 800706e:	dd08      	ble.n	8007082 <_dtoa_r+0x74a>
 8007070:	42b3      	cmp	r3, r6
 8007072:	9a08      	ldr	r2, [sp, #32]
 8007074:	bfa8      	it	ge
 8007076:	4633      	movge	r3, r6
 8007078:	eba8 0803 	sub.w	r8, r8, r3
 800707c:	1af6      	subs	r6, r6, r3
 800707e:	1ad3      	subs	r3, r2, r3
 8007080:	9308      	str	r3, [sp, #32]
 8007082:	9b0a      	ldr	r3, [sp, #40]	@ 0x28
 8007084:	b1f3      	cbz	r3, 80070c4 <_dtoa_r+0x78c>
 8007086:	9b0b      	ldr	r3, [sp, #44]	@ 0x2c
 8007088:	2b00      	cmp	r3, #0
 800708a:	f000 80b7 	beq.w	80071fc <_dtoa_r+0x8c4>
 800708e:	b18c      	cbz	r4, 80070b4 <_dtoa_r+0x77c>
 8007090:	4629      	mov	r1, r5
 8007092:	4622      	mov	r2, r4
 8007094:	4658      	mov	r0, fp
 8007096:	f000 fe81 	bl	8007d9c <__pow5mult>
 800709a:	464a      	mov	r2, r9
 800709c:	4601      	mov	r1, r0
 800709e:	4605      	mov	r5, r0
 80070a0:	4658      	mov	r0, fp
 80070a2:	f000 fdd1 	bl	8007c48 <__multiply>
 80070a6:	4649      	mov	r1, r9
 80070a8:	9004      	str	r0, [sp, #16]
 80070aa:	4658      	mov	r0, fp
 80070ac:	f000 fd02 	bl	8007ab4 <_Bfree>
 80070b0:	9b04      	ldr	r3, [sp, #16]
 80070b2:	4699      	mov	r9, r3
 80070b4:	9b0a      	ldr	r3, [sp, #40]	@ 0x28
 80070b6:	1b1a      	subs	r2, r3, r4
 80070b8:	d004      	beq.n	80070c4 <_dtoa_r+0x78c>
 80070ba:	4649      	mov	r1, r9
 80070bc:	4658      	mov	r0, fp
 80070be:	f000 fe6d 	bl	8007d9c <__pow5mult>
 80070c2:	4681      	mov	r9, r0
 80070c4:	2101      	movs	r1, #1
 80070c6:	4658      	mov	r0, fp
 80070c8:	f000 fda8 	bl	8007c1c <__i2b>
 80070cc:	9b0f      	ldr	r3, [sp, #60]	@ 0x3c
 80070ce:	4604      	mov	r4, r0
 80070d0:	2b00      	cmp	r3, #0
 80070d2:	f000 81cf 	beq.w	8007474 <_dtoa_r+0xb3c>
 80070d6:	461a      	mov	r2, r3
 80070d8:	4601      	mov	r1, r0
 80070da:	4658      	mov	r0, fp
 80070dc:	f000 fe5e 	bl	8007d9c <__pow5mult>
 80070e0:	9b09      	ldr	r3, [sp, #36]	@ 0x24
 80070e2:	2b01      	cmp	r3, #1
 80070e4:	4604      	mov	r4, r0
 80070e6:	f300 8095 	bgt.w	8007214 <_dtoa_r+0x8dc>
 80070ea:	9b02      	ldr	r3, [sp, #8]
 80070ec:	2b00      	cmp	r3, #0
 80070ee:	f040 8087 	bne.w	8007200 <_dtoa_r+0x8c8>
 80070f2:	9b03      	ldr	r3, [sp, #12]
 80070f4:	f3c3 0313 	ubfx	r3, r3, #0, #20
 80070f8:	2b00      	cmp	r3, #0
 80070fa:	f040 8089 	bne.w	8007210 <_dtoa_r+0x8d8>
 80070fe:	9b03      	ldr	r3, [sp, #12]
 8007100:	f023 4300 	bic.w	r3, r3, #2147483648	@ 0x80000000
 8007104:	0d1b      	lsrs	r3, r3, #20
 8007106:	051b      	lsls	r3, r3, #20
 8007108:	b12b      	cbz	r3, 8007116 <_dtoa_r+0x7de>
 800710a:	9b08      	ldr	r3, [sp, #32]
 800710c:	3301      	adds	r3, #1
 800710e:	9308      	str	r3, [sp, #32]
 8007110:	f108 0801 	add.w	r8, r8, #1
 8007114:	2301      	movs	r3, #1
 8007116:	930a      	str	r3, [sp, #40]	@ 0x28
 8007118:	9b0f      	ldr	r3, [sp, #60]	@ 0x3c
 800711a:	2b00      	cmp	r3, #0
 800711c:	f000 81b0 	beq.w	8007480 <_dtoa_r+0xb48>
 8007120:	6923      	ldr	r3, [r4, #16]
 8007122:	eb04 0383 	add.w	r3, r4, r3, lsl #2
 8007126:	6918      	ldr	r0, [r3, #16]
 8007128:	f000 fd2c 	bl	8007b84 <__hi0bits>
 800712c:	f1c0 0020 	rsb	r0, r0, #32
 8007130:	9b08      	ldr	r3, [sp, #32]
 8007132:	4418      	add	r0, r3
 8007134:	f010 001f 	ands.w	r0, r0, #31
 8007138:	d077      	beq.n	800722a <_dtoa_r+0x8f2>
 800713a:	f1c0 0320 	rsb	r3, r0, #32
 800713e:	2b04      	cmp	r3, #4
 8007140:	dd6b      	ble.n	800721a <_dtoa_r+0x8e2>
 8007142:	9b08      	ldr	r3, [sp, #32]
 8007144:	f1c0 001c 	rsb	r0, r0, #28
 8007148:	4403      	add	r3, r0
 800714a:	4480      	add	r8, r0
 800714c:	4406      	add	r6, r0
 800714e:	9308      	str	r3, [sp, #32]
 8007150:	f1b8 0f00 	cmp.w	r8, #0
 8007154:	dd05      	ble.n	8007162 <_dtoa_r+0x82a>
 8007156:	4649      	mov	r1, r9
 8007158:	4642      	mov	r2, r8
 800715a:	4658      	mov	r0, fp
 800715c:	f000 fe78 	bl	8007e50 <__lshift>
 8007160:	4681      	mov	r9, r0
 8007162:	9b08      	ldr	r3, [sp, #32]
 8007164:	2b00      	cmp	r3, #0
 8007166:	dd05      	ble.n	8007174 <_dtoa_r+0x83c>
 8007168:	4621      	mov	r1, r4
 800716a:	461a      	mov	r2, r3
 800716c:	4658      	mov	r0, fp
 800716e:	f000 fe6f 	bl	8007e50 <__lshift>
 8007172:	4604      	mov	r4, r0
 8007174:	9b12      	ldr	r3, [sp, #72]	@ 0x48
 8007176:	2b00      	cmp	r3, #0
 8007178:	d059      	beq.n	800722e <_dtoa_r+0x8f6>
 800717a:	4621      	mov	r1, r4
 800717c:	4648      	mov	r0, r9
 800717e:	f000 fed3 	bl	8007f28 <__mcmp>
 8007182:	2800      	cmp	r0, #0
 8007184:	da53      	bge.n	800722e <_dtoa_r+0x8f6>
 8007186:	1e7b      	subs	r3, r7, #1
 8007188:	9304      	str	r3, [sp, #16]
 800718a:	4649      	mov	r1, r9
 800718c:	2300      	movs	r3, #0
 800718e:	220a      	movs	r2, #10
 8007190:	4658      	mov	r0, fp
 8007192:	f000 fcb1 	bl	8007af8 <__multadd>
 8007196:	9b0b      	ldr	r3, [sp, #44]	@ 0x2c
 8007198:	4681      	mov	r9, r0
 800719a:	2b00      	cmp	r3, #0
 800719c:	f000 8172 	beq.w	8007484 <_dtoa_r+0xb4c>
 80071a0:	2300      	movs	r3, #0
 80071a2:	4629      	mov	r1, r5
 80071a4:	220a      	movs	r2, #10
 80071a6:	4658      	mov	r0, fp
 80071a8:	f000 fca6 	bl	8007af8 <__multadd>
 80071ac:	9b00      	ldr	r3, [sp, #0]
 80071ae:	2b00      	cmp	r3, #0
 80071b0:	4605      	mov	r5, r0
 80071b2:	dc67      	bgt.n	8007284 <_dtoa_r+0x94c>
 80071b4:	9b09      	ldr	r3, [sp, #36]	@ 0x24
 80071b6:	2b02      	cmp	r3, #2
 80071b8:	dc41      	bgt.n	800723e <_dtoa_r+0x906>
 80071ba:	e063      	b.n	8007284 <_dtoa_r+0x94c>
 80071bc:	9b16      	ldr	r3, [sp, #88]	@ 0x58
 80071be:	f1c3 0336 	rsb	r3, r3, #54	@ 0x36
 80071c2:	e746      	b.n	8007052 <_dtoa_r+0x71a>
 80071c4:	9b07      	ldr	r3, [sp, #28]
 80071c6:	1e5c      	subs	r4, r3, #1
 80071c8:	9b0a      	ldr	r3, [sp, #40]	@ 0x28
 80071ca:	42a3      	cmp	r3, r4
 80071cc:	bfbf      	itttt	lt
 80071ce:	9b0a      	ldrlt	r3, [sp, #40]	@ 0x28
 80071d0:	9a0f      	ldrlt	r2, [sp, #60]	@ 0x3c
 80071d2:	940a      	strlt	r4, [sp, #40]	@ 0x28
 80071d4:	1ae3      	sublt	r3, r4, r3
 80071d6:	bfb4      	ite	lt
 80071d8:	18d2      	addlt	r2, r2, r3
 80071da:	1b1c      	subge	r4, r3, r4
 80071dc:	9b07      	ldr	r3, [sp, #28]
 80071de:	bfbc      	itt	lt
 80071e0:	920f      	strlt	r2, [sp, #60]	@ 0x3c
 80071e2:	2400      	movlt	r4, #0
 80071e4:	2b00      	cmp	r3, #0
 80071e6:	bfb5      	itete	lt
 80071e8:	eba8 0603 	sublt.w	r6, r8, r3
 80071ec:	9b07      	ldrge	r3, [sp, #28]
 80071ee:	2300      	movlt	r3, #0
 80071f0:	4646      	movge	r6, r8
 80071f2:	e730      	b.n	8007056 <_dtoa_r+0x71e>
 80071f4:	9c0a      	ldr	r4, [sp, #40]	@ 0x28
 80071f6:	9d0b      	ldr	r5, [sp, #44]	@ 0x2c
 80071f8:	4646      	mov	r6, r8
 80071fa:	e735      	b.n	8007068 <_dtoa_r+0x730>
 80071fc:	9a0a      	ldr	r2, [sp, #40]	@ 0x28
 80071fe:	e75c      	b.n	80070ba <_dtoa_r+0x782>
 8007200:	2300      	movs	r3, #0
 8007202:	e788      	b.n	8007116 <_dtoa_r+0x7de>
 8007204:	3fe00000 	.word	0x3fe00000
 8007208:	40240000 	.word	0x40240000
 800720c:	40140000 	.word	0x40140000
 8007210:	9b02      	ldr	r3, [sp, #8]
 8007212:	e780      	b.n	8007116 <_dtoa_r+0x7de>
 8007214:	2300      	movs	r3, #0
 8007216:	930a      	str	r3, [sp, #40]	@ 0x28
 8007218:	e782      	b.n	8007120 <_dtoa_r+0x7e8>
 800721a:	d099      	beq.n	8007150 <_dtoa_r+0x818>
 800721c:	9a08      	ldr	r2, [sp, #32]
 800721e:	331c      	adds	r3, #28
 8007220:	441a      	add	r2, r3
 8007222:	4498      	add	r8, r3
 8007224:	441e      	add	r6, r3
 8007226:	9208      	str	r2, [sp, #32]
 8007228:	e792      	b.n	8007150 <_dtoa_r+0x818>
 800722a:	4603      	mov	r3, r0
 800722c:	e7f6      	b.n	800721c <_dtoa_r+0x8e4>
 800722e:	9b07      	ldr	r3, [sp, #28]
 8007230:	9704      	str	r7, [sp, #16]
 8007232:	2b00      	cmp	r3, #0
 8007234:	dc20      	bgt.n	8007278 <_dtoa_r+0x940>
 8007236:	9300      	str	r3, [sp, #0]
 8007238:	9b09      	ldr	r3, [sp, #36]	@ 0x24
 800723a:	2b02      	cmp	r3, #2
 800723c:	dd1e      	ble.n	800727c <_dtoa_r+0x944>
 800723e:	9b00      	ldr	r3, [sp, #0]
 8007240:	2b00      	cmp	r3, #0
 8007242:	f47f aec0 	bne.w	8006fc6 <_dtoa_r+0x68e>
 8007246:	4621      	mov	r1, r4
 8007248:	2205      	movs	r2, #5
 800724a:	4658      	mov	r0, fp
 800724c:	f000 fc54 	bl	8007af8 <__multadd>
 8007250:	4601      	mov	r1, r0
 8007252:	4604      	mov	r4, r0
 8007254:	4648      	mov	r0, r9
 8007256:	f000 fe67 	bl	8007f28 <__mcmp>
 800725a:	2800      	cmp	r0, #0
 800725c:	f77f aeb3 	ble.w	8006fc6 <_dtoa_r+0x68e>
 8007260:	4656      	mov	r6, sl
 8007262:	2331      	movs	r3, #49	@ 0x31
 8007264:	f806 3b01 	strb.w	r3, [r6], #1
 8007268:	9b04      	ldr	r3, [sp, #16]
 800726a:	3301      	adds	r3, #1
 800726c:	9304      	str	r3, [sp, #16]
 800726e:	e6ae      	b.n	8006fce <_dtoa_r+0x696>
 8007270:	9c07      	ldr	r4, [sp, #28]
 8007272:	9704      	str	r7, [sp, #16]
 8007274:	4625      	mov	r5, r4
 8007276:	e7f3      	b.n	8007260 <_dtoa_r+0x928>
 8007278:	9b07      	ldr	r3, [sp, #28]
 800727a:	9300      	str	r3, [sp, #0]
 800727c:	9b0b      	ldr	r3, [sp, #44]	@ 0x2c
 800727e:	2b00      	cmp	r3, #0
 8007280:	f000 8104 	beq.w	800748c <_dtoa_r+0xb54>
 8007284:	2e00      	cmp	r6, #0
 8007286:	dd05      	ble.n	8007294 <_dtoa_r+0x95c>
 8007288:	4629      	mov	r1, r5
 800728a:	4632      	mov	r2, r6
 800728c:	4658      	mov	r0, fp
 800728e:	f000 fddf 	bl	8007e50 <__lshift>
 8007292:	4605      	mov	r5, r0
 8007294:	9b0a      	ldr	r3, [sp, #40]	@ 0x28
 8007296:	2b00      	cmp	r3, #0
 8007298:	d05a      	beq.n	8007350 <_dtoa_r+0xa18>
 800729a:	6869      	ldr	r1, [r5, #4]
 800729c:	4658      	mov	r0, fp
 800729e:	f000 fbc9 	bl	8007a34 <_Balloc>
 80072a2:	4606      	mov	r6, r0
 80072a4:	b928      	cbnz	r0, 80072b2 <_dtoa_r+0x97a>
 80072a6:	4b84      	ldr	r3, [pc, #528]	@ (80074b8 <_dtoa_r+0xb80>)
 80072a8:	4602      	mov	r2, r0
 80072aa:	f240 21ef 	movw	r1, #751	@ 0x2ef
 80072ae:	f7ff bb5a 	b.w	8006966 <_dtoa_r+0x2e>
 80072b2:	692a      	ldr	r2, [r5, #16]
 80072b4:	3202      	adds	r2, #2
 80072b6:	0092      	lsls	r2, r2, #2
 80072b8:	f105 010c 	add.w	r1, r5, #12
 80072bc:	300c      	adds	r0, #12
 80072be:	f001 f81d 	bl	80082fc <memcpy>
 80072c2:	2201      	movs	r2, #1
 80072c4:	4631      	mov	r1, r6
 80072c6:	4658      	mov	r0, fp
 80072c8:	f000 fdc2 	bl	8007e50 <__lshift>
 80072cc:	f10a 0301 	add.w	r3, sl, #1
 80072d0:	9307      	str	r3, [sp, #28]
 80072d2:	9b00      	ldr	r3, [sp, #0]
 80072d4:	4453      	add	r3, sl
 80072d6:	930b      	str	r3, [sp, #44]	@ 0x2c
 80072d8:	9b02      	ldr	r3, [sp, #8]
 80072da:	f003 0301 	and.w	r3, r3, #1
 80072de:	462f      	mov	r7, r5
 80072e0:	930a      	str	r3, [sp, #40]	@ 0x28
 80072e2:	4605      	mov	r5, r0
 80072e4:	9b07      	ldr	r3, [sp, #28]
 80072e6:	4621      	mov	r1, r4
 80072e8:	3b01      	subs	r3, #1
 80072ea:	4648      	mov	r0, r9
 80072ec:	9300      	str	r3, [sp, #0]
 80072ee:	f7ff fa98 	bl	8006822 <quorem>
 80072f2:	4639      	mov	r1, r7
 80072f4:	9002      	str	r0, [sp, #8]
 80072f6:	f100 0830 	add.w	r8, r0, #48	@ 0x30
 80072fa:	4648      	mov	r0, r9
 80072fc:	f000 fe14 	bl	8007f28 <__mcmp>
 8007300:	462a      	mov	r2, r5
 8007302:	9008      	str	r0, [sp, #32]
 8007304:	4621      	mov	r1, r4
 8007306:	4658      	mov	r0, fp
 8007308:	f000 fe2a 	bl	8007f60 <__mdiff>
 800730c:	68c2      	ldr	r2, [r0, #12]
 800730e:	4606      	mov	r6, r0
 8007310:	bb02      	cbnz	r2, 8007354 <_dtoa_r+0xa1c>
 8007312:	4601      	mov	r1, r0
 8007314:	4648      	mov	r0, r9
 8007316:	f000 fe07 	bl	8007f28 <__mcmp>
 800731a:	4602      	mov	r2, r0
 800731c:	4631      	mov	r1, r6
 800731e:	4658      	mov	r0, fp
 8007320:	920e      	str	r2, [sp, #56]	@ 0x38
 8007322:	f000 fbc7 	bl	8007ab4 <_Bfree>
 8007326:	9b09      	ldr	r3, [sp, #36]	@ 0x24
 8007328:	9a0e      	ldr	r2, [sp, #56]	@ 0x38
 800732a:	9e07      	ldr	r6, [sp, #28]
 800732c:	ea43 0102 	orr.w	r1, r3, r2
 8007330:	9b0a      	ldr	r3, [sp, #40]	@ 0x28
 8007332:	4319      	orrs	r1, r3
 8007334:	d110      	bne.n	8007358 <_dtoa_r+0xa20>
 8007336:	f1b8 0f39 	cmp.w	r8, #57	@ 0x39
 800733a:	d029      	beq.n	8007390 <_dtoa_r+0xa58>
 800733c:	9b08      	ldr	r3, [sp, #32]
 800733e:	2b00      	cmp	r3, #0
 8007340:	dd02      	ble.n	8007348 <_dtoa_r+0xa10>
 8007342:	9b02      	ldr	r3, [sp, #8]
 8007344:	f103 0831 	add.w	r8, r3, #49	@ 0x31
 8007348:	9b00      	ldr	r3, [sp, #0]
 800734a:	f883 8000 	strb.w	r8, [r3]
 800734e:	e63f      	b.n	8006fd0 <_dtoa_r+0x698>
 8007350:	4628      	mov	r0, r5
 8007352:	e7bb      	b.n	80072cc <_dtoa_r+0x994>
 8007354:	2201      	movs	r2, #1
 8007356:	e7e1      	b.n	800731c <_dtoa_r+0x9e4>
 8007358:	9b08      	ldr	r3, [sp, #32]
 800735a:	2b00      	cmp	r3, #0
 800735c:	db04      	blt.n	8007368 <_dtoa_r+0xa30>
 800735e:	9909      	ldr	r1, [sp, #36]	@ 0x24
 8007360:	430b      	orrs	r3, r1
 8007362:	990a      	ldr	r1, [sp, #40]	@ 0x28
 8007364:	430b      	orrs	r3, r1
 8007366:	d120      	bne.n	80073aa <_dtoa_r+0xa72>
 8007368:	2a00      	cmp	r2, #0
 800736a:	dded      	ble.n	8007348 <_dtoa_r+0xa10>
 800736c:	4649      	mov	r1, r9
 800736e:	2201      	movs	r2, #1
 8007370:	4658      	mov	r0, fp
 8007372:	f000 fd6d 	bl	8007e50 <__lshift>
 8007376:	4621      	mov	r1, r4
 8007378:	4681      	mov	r9, r0
 800737a:	f000 fdd5 	bl	8007f28 <__mcmp>
 800737e:	2800      	cmp	r0, #0
 8007380:	dc03      	bgt.n	800738a <_dtoa_r+0xa52>
 8007382:	d1e1      	bne.n	8007348 <_dtoa_r+0xa10>
 8007384:	f018 0f01 	tst.w	r8, #1
 8007388:	d0de      	beq.n	8007348 <_dtoa_r+0xa10>
 800738a:	f1b8 0f39 	cmp.w	r8, #57	@ 0x39
 800738e:	d1d8      	bne.n	8007342 <_dtoa_r+0xa0a>
 8007390:	9a00      	ldr	r2, [sp, #0]
 8007392:	2339      	movs	r3, #57	@ 0x39
 8007394:	7013      	strb	r3, [r2, #0]
 8007396:	4633      	mov	r3, r6
 8007398:	461e      	mov	r6, r3
 800739a:	3b01      	subs	r3, #1
 800739c:	f816 2c01 	ldrb.w	r2, [r6, #-1]
 80073a0:	2a39      	cmp	r2, #57	@ 0x39
 80073a2:	d052      	beq.n	800744a <_dtoa_r+0xb12>
 80073a4:	3201      	adds	r2, #1
 80073a6:	701a      	strb	r2, [r3, #0]
 80073a8:	e612      	b.n	8006fd0 <_dtoa_r+0x698>
 80073aa:	2a00      	cmp	r2, #0
 80073ac:	dd07      	ble.n	80073be <_dtoa_r+0xa86>
 80073ae:	f1b8 0f39 	cmp.w	r8, #57	@ 0x39
 80073b2:	d0ed      	beq.n	8007390 <_dtoa_r+0xa58>
 80073b4:	9a00      	ldr	r2, [sp, #0]
 80073b6:	f108 0301 	add.w	r3, r8, #1
 80073ba:	7013      	strb	r3, [r2, #0]
 80073bc:	e608      	b.n	8006fd0 <_dtoa_r+0x698>
 80073be:	9b07      	ldr	r3, [sp, #28]
 80073c0:	9a07      	ldr	r2, [sp, #28]
 80073c2:	f803 8c01 	strb.w	r8, [r3, #-1]
 80073c6:	9b0b      	ldr	r3, [sp, #44]	@ 0x2c
 80073c8:	4293      	cmp	r3, r2
 80073ca:	d028      	beq.n	800741e <_dtoa_r+0xae6>
 80073cc:	4649      	mov	r1, r9
 80073ce:	2300      	movs	r3, #0
 80073d0:	220a      	movs	r2, #10
 80073d2:	4658      	mov	r0, fp
 80073d4:	f000 fb90 	bl	8007af8 <__multadd>
 80073d8:	42af      	cmp	r7, r5
 80073da:	4681      	mov	r9, r0
 80073dc:	f04f 0300 	mov.w	r3, #0
 80073e0:	f04f 020a 	mov.w	r2, #10
 80073e4:	4639      	mov	r1, r7
 80073e6:	4658      	mov	r0, fp
 80073e8:	d107      	bne.n	80073fa <_dtoa_r+0xac2>
 80073ea:	f000 fb85 	bl	8007af8 <__multadd>
 80073ee:	4607      	mov	r7, r0
 80073f0:	4605      	mov	r5, r0
 80073f2:	9b07      	ldr	r3, [sp, #28]
 80073f4:	3301      	adds	r3, #1
 80073f6:	9307      	str	r3, [sp, #28]
 80073f8:	e774      	b.n	80072e4 <_dtoa_r+0x9ac>
 80073fa:	f000 fb7d 	bl	8007af8 <__multadd>
 80073fe:	4629      	mov	r1, r5
 8007400:	4607      	mov	r7, r0
 8007402:	2300      	movs	r3, #0
 8007404:	220a      	movs	r2, #10
 8007406:	4658      	mov	r0, fp
 8007408:	f000 fb76 	bl	8007af8 <__multadd>
 800740c:	4605      	mov	r5, r0
 800740e:	e7f0      	b.n	80073f2 <_dtoa_r+0xaba>
 8007410:	9b00      	ldr	r3, [sp, #0]
 8007412:	2b00      	cmp	r3, #0
 8007414:	bfcc      	ite	gt
 8007416:	461e      	movgt	r6, r3
 8007418:	2601      	movle	r6, #1
 800741a:	4456      	add	r6, sl
 800741c:	2700      	movs	r7, #0
 800741e:	4649      	mov	r1, r9
 8007420:	2201      	movs	r2, #1
 8007422:	4658      	mov	r0, fp
 8007424:	f000 fd14 	bl	8007e50 <__lshift>
 8007428:	4621      	mov	r1, r4
 800742a:	4681      	mov	r9, r0
 800742c:	f000 fd7c 	bl	8007f28 <__mcmp>
 8007430:	2800      	cmp	r0, #0
 8007432:	dcb0      	bgt.n	8007396 <_dtoa_r+0xa5e>
 8007434:	d102      	bne.n	800743c <_dtoa_r+0xb04>
 8007436:	f018 0f01 	tst.w	r8, #1
 800743a:	d1ac      	bne.n	8007396 <_dtoa_r+0xa5e>
 800743c:	4633      	mov	r3, r6
 800743e:	461e      	mov	r6, r3
 8007440:	f813 2d01 	ldrb.w	r2, [r3, #-1]!
 8007444:	2a30      	cmp	r2, #48	@ 0x30
 8007446:	d0fa      	beq.n	800743e <_dtoa_r+0xb06>
 8007448:	e5c2      	b.n	8006fd0 <_dtoa_r+0x698>
 800744a:	459a      	cmp	sl, r3
 800744c:	d1a4      	bne.n	8007398 <_dtoa_r+0xa60>
 800744e:	9b04      	ldr	r3, [sp, #16]
 8007450:	3301      	adds	r3, #1
 8007452:	9304      	str	r3, [sp, #16]
 8007454:	2331      	movs	r3, #49	@ 0x31
 8007456:	f88a 3000 	strb.w	r3, [sl]
 800745a:	e5b9      	b.n	8006fd0 <_dtoa_r+0x698>
 800745c:	9b23      	ldr	r3, [sp, #140]	@ 0x8c
 800745e:	f8df a05c 	ldr.w	sl, [pc, #92]	@ 80074bc <_dtoa_r+0xb84>
 8007462:	b11b      	cbz	r3, 800746c <_dtoa_r+0xb34>
 8007464:	f10a 0308 	add.w	r3, sl, #8
 8007468:	9a23      	ldr	r2, [sp, #140]	@ 0x8c
 800746a:	6013      	str	r3, [r2, #0]
 800746c:	4650      	mov	r0, sl
 800746e:	b019      	add	sp, #100	@ 0x64
 8007470:	e8bd 8ff0 	ldmia.w	sp!, {r4, r5, r6, r7, r8, r9, sl, fp, pc}
 8007474:	9b09      	ldr	r3, [sp, #36]	@ 0x24
 8007476:	2b01      	cmp	r3, #1
 8007478:	f77f ae37 	ble.w	80070ea <_dtoa_r+0x7b2>
 800747c:	9b0f      	ldr	r3, [sp, #60]	@ 0x3c
 800747e:	930a      	str	r3, [sp, #40]	@ 0x28
 8007480:	2001      	movs	r0, #1
 8007482:	e655      	b.n	8007130 <_dtoa_r+0x7f8>
 8007484:	9b00      	ldr	r3, [sp, #0]
 8007486:	2b00      	cmp	r3, #0
 8007488:	f77f aed6 	ble.w	8007238 <_dtoa_r+0x900>
 800748c:	4656      	mov	r6, sl
 800748e:	4621      	mov	r1, r4
 8007490:	4648      	mov	r0, r9
 8007492:	f7ff f9c6 	bl	8006822 <quorem>
 8007496:	f100 0830 	add.w	r8, r0, #48	@ 0x30
 800749a:	f806 8b01 	strb.w	r8, [r6], #1
 800749e:	9b00      	ldr	r3, [sp, #0]
 80074a0:	eba6 020a 	sub.w	r2, r6, sl
 80074a4:	4293      	cmp	r3, r2
 80074a6:	ddb3      	ble.n	8007410 <_dtoa_r+0xad8>
 80074a8:	4649      	mov	r1, r9
 80074aa:	2300      	movs	r3, #0
 80074ac:	220a      	movs	r2, #10
 80074ae:	4658      	mov	r0, fp
 80074b0:	f000 fb22 	bl	8007af8 <__multadd>
 80074b4:	4681      	mov	r9, r0
 80074b6:	e7ea      	b.n	800748e <_dtoa_r+0xb56>
 80074b8:	08009ad0 	.word	0x08009ad0
 80074bc:	08009a54 	.word	0x08009a54

080074c0 <__ssputs_r>:
 80074c0:	e92d 47f0 	stmdb	sp!, {r4, r5, r6, r7, r8, r9, sl, lr}
 80074c4:	688e      	ldr	r6, [r1, #8]
 80074c6:	461f      	mov	r7, r3
 80074c8:	42be      	cmp	r6, r7
 80074ca:	680b      	ldr	r3, [r1, #0]
 80074cc:	4682      	mov	sl, r0
 80074ce:	460c      	mov	r4, r1
 80074d0:	4690      	mov	r8, r2
 80074d2:	d82d      	bhi.n	8007530 <__ssputs_r+0x70>
 80074d4:	f9b1 200c 	ldrsh.w	r2, [r1, #12]
 80074d8:	f412 6f90 	tst.w	r2, #1152	@ 0x480
 80074dc:	d026      	beq.n	800752c <__ssputs_r+0x6c>
 80074de:	6965      	ldr	r5, [r4, #20]
 80074e0:	6909      	ldr	r1, [r1, #16]
 80074e2:	eb05 0545 	add.w	r5, r5, r5, lsl #1
 80074e6:	eba3 0901 	sub.w	r9, r3, r1
 80074ea:	eb05 75d5 	add.w	r5, r5, r5, lsr #31
 80074ee:	1c7b      	adds	r3, r7, #1
 80074f0:	444b      	add	r3, r9
 80074f2:	106d      	asrs	r5, r5, #1
 80074f4:	429d      	cmp	r5, r3
 80074f6:	bf38      	it	cc
 80074f8:	461d      	movcc	r5, r3
 80074fa:	0553      	lsls	r3, r2, #21
 80074fc:	d527      	bpl.n	800754e <__ssputs_r+0x8e>
 80074fe:	4629      	mov	r1, r5
 8007500:	f000 f960 	bl	80077c4 <_malloc_r>
 8007504:	4606      	mov	r6, r0
 8007506:	b360      	cbz	r0, 8007562 <__ssputs_r+0xa2>
 8007508:	6921      	ldr	r1, [r4, #16]
 800750a:	464a      	mov	r2, r9
 800750c:	f000 fef6 	bl	80082fc <memcpy>
 8007510:	89a3      	ldrh	r3, [r4, #12]
 8007512:	f423 6390 	bic.w	r3, r3, #1152	@ 0x480
 8007516:	f043 0380 	orr.w	r3, r3, #128	@ 0x80
 800751a:	81a3      	strh	r3, [r4, #12]
 800751c:	6126      	str	r6, [r4, #16]
 800751e:	6165      	str	r5, [r4, #20]
 8007520:	444e      	add	r6, r9
 8007522:	eba5 0509 	sub.w	r5, r5, r9
 8007526:	6026      	str	r6, [r4, #0]
 8007528:	60a5      	str	r5, [r4, #8]
 800752a:	463e      	mov	r6, r7
 800752c:	42be      	cmp	r6, r7
 800752e:	d900      	bls.n	8007532 <__ssputs_r+0x72>
 8007530:	463e      	mov	r6, r7
 8007532:	6820      	ldr	r0, [r4, #0]
 8007534:	4632      	mov	r2, r6
 8007536:	4641      	mov	r1, r8
 8007538:	f000 fe6f 	bl	800821a <memmove>
 800753c:	68a3      	ldr	r3, [r4, #8]
 800753e:	1b9b      	subs	r3, r3, r6
 8007540:	60a3      	str	r3, [r4, #8]
 8007542:	6823      	ldr	r3, [r4, #0]
 8007544:	4433      	add	r3, r6
 8007546:	6023      	str	r3, [r4, #0]
 8007548:	2000      	movs	r0, #0
 800754a:	e8bd 87f0 	ldmia.w	sp!, {r4, r5, r6, r7, r8, r9, sl, pc}
 800754e:	462a      	mov	r2, r5
 8007550:	f000 fe35 	bl	80081be <_realloc_r>
 8007554:	4606      	mov	r6, r0
 8007556:	2800      	cmp	r0, #0
 8007558:	d1e0      	bne.n	800751c <__ssputs_r+0x5c>
 800755a:	6921      	ldr	r1, [r4, #16]
 800755c:	4650      	mov	r0, sl
 800755e:	f000 ff0d 	bl	800837c <_free_r>
 8007562:	230c      	movs	r3, #12
 8007564:	f8ca 3000 	str.w	r3, [sl]
 8007568:	89a3      	ldrh	r3, [r4, #12]
 800756a:	f043 0340 	orr.w	r3, r3, #64	@ 0x40
 800756e:	81a3      	strh	r3, [r4, #12]
 8007570:	f04f 30ff 	mov.w	r0, #4294967295	@ 0xffffffff
 8007574:	e7e9      	b.n	800754a <__ssputs_r+0x8a>
	...

08007578 <_svfiprintf_r>:
 8007578:	e92d 4ff0 	stmdb	sp!, {r4, r5, r6, r7, r8, r9, sl, fp, lr}
 800757c:	4698      	mov	r8, r3
 800757e:	898b      	ldrh	r3, [r1, #12]
 8007580:	061b      	lsls	r3, r3, #24
 8007582:	b09d      	sub	sp, #116	@ 0x74
 8007584:	4607      	mov	r7, r0
 8007586:	460d      	mov	r5, r1
 8007588:	4614      	mov	r4, r2
 800758a:	d510      	bpl.n	80075ae <_svfiprintf_r+0x36>
 800758c:	690b      	ldr	r3, [r1, #16]
 800758e:	b973      	cbnz	r3, 80075ae <_svfiprintf_r+0x36>
 8007590:	2140      	movs	r1, #64	@ 0x40
 8007592:	f000 f917 	bl	80077c4 <_malloc_r>
 8007596:	6028      	str	r0, [r5, #0]
 8007598:	6128      	str	r0, [r5, #16]
 800759a:	b930      	cbnz	r0, 80075aa <_svfiprintf_r+0x32>
 800759c:	230c      	movs	r3, #12
 800759e:	603b      	str	r3, [r7, #0]
 80075a0:	f04f 30ff 	mov.w	r0, #4294967295	@ 0xffffffff
 80075a4:	b01d      	add	sp, #116	@ 0x74
 80075a6:	e8bd 8ff0 	ldmia.w	sp!, {r4, r5, r6, r7, r8, r9, sl, fp, pc}
 80075aa:	2340      	movs	r3, #64	@ 0x40
 80075ac:	616b      	str	r3, [r5, #20]
 80075ae:	2300      	movs	r3, #0
 80075b0:	9309      	str	r3, [sp, #36]	@ 0x24
 80075b2:	2320      	movs	r3, #32
 80075b4:	f88d 3029 	strb.w	r3, [sp, #41]	@ 0x29
 80075b8:	f8cd 800c 	str.w	r8, [sp, #12]
 80075bc:	2330      	movs	r3, #48	@ 0x30
 80075be:	f8df 819c 	ldr.w	r8, [pc, #412]	@ 800775c <_svfiprintf_r+0x1e4>
 80075c2:	f88d 302a 	strb.w	r3, [sp, #42]	@ 0x2a
 80075c6:	f04f 0901 	mov.w	r9, #1
 80075ca:	4623      	mov	r3, r4
 80075cc:	469a      	mov	sl, r3
 80075ce:	f813 2b01 	ldrb.w	r2, [r3], #1
 80075d2:	b10a      	cbz	r2, 80075d8 <_svfiprintf_r+0x60>
 80075d4:	2a25      	cmp	r2, #37	@ 0x25
 80075d6:	d1f9      	bne.n	80075cc <_svfiprintf_r+0x54>
 80075d8:	ebba 0b04 	subs.w	fp, sl, r4
 80075dc:	d00b      	beq.n	80075f6 <_svfiprintf_r+0x7e>
 80075de:	465b      	mov	r3, fp
 80075e0:	4622      	mov	r2, r4
 80075e2:	4629      	mov	r1, r5
 80075e4:	4638      	mov	r0, r7
 80075e6:	f7ff ff6b 	bl	80074c0 <__ssputs_r>
 80075ea:	3001      	adds	r0, #1
 80075ec:	f000 80a7 	beq.w	800773e <_svfiprintf_r+0x1c6>
 80075f0:	9a09      	ldr	r2, [sp, #36]	@ 0x24
 80075f2:	445a      	add	r2, fp
 80075f4:	9209      	str	r2, [sp, #36]	@ 0x24
 80075f6:	f89a 3000 	ldrb.w	r3, [sl]
 80075fa:	2b00      	cmp	r3, #0
 80075fc:	f000 809f 	beq.w	800773e <_svfiprintf_r+0x1c6>
 8007600:	2300      	movs	r3, #0
 8007602:	f04f 32ff 	mov.w	r2, #4294967295	@ 0xffffffff
 8007606:	e9cd 2305 	strd	r2, r3, [sp, #20]
 800760a:	f10a 0a01 	add.w	sl, sl, #1
 800760e:	9304      	str	r3, [sp, #16]
 8007610:	9307      	str	r3, [sp, #28]
 8007612:	f88d 3053 	strb.w	r3, [sp, #83]	@ 0x53
 8007616:	931a      	str	r3, [sp, #104]	@ 0x68
 8007618:	4654      	mov	r4, sl
 800761a:	2205      	movs	r2, #5
 800761c:	f814 1b01 	ldrb.w	r1, [r4], #1
 8007620:	484e      	ldr	r0, [pc, #312]	@ (800775c <_svfiprintf_r+0x1e4>)
 8007622:	f7f8 fdf5 	bl	8000210 <memchr>
 8007626:	9a04      	ldr	r2, [sp, #16]
 8007628:	b9d8      	cbnz	r0, 8007662 <_svfiprintf_r+0xea>
 800762a:	06d0      	lsls	r0, r2, #27
 800762c:	bf44      	itt	mi
 800762e:	2320      	movmi	r3, #32
 8007630:	f88d 3053 	strbmi.w	r3, [sp, #83]	@ 0x53
 8007634:	0711      	lsls	r1, r2, #28
 8007636:	bf44      	itt	mi
 8007638:	232b      	movmi	r3, #43	@ 0x2b
 800763a:	f88d 3053 	strbmi.w	r3, [sp, #83]	@ 0x53
 800763e:	f89a 3000 	ldrb.w	r3, [sl]
 8007642:	2b2a      	cmp	r3, #42	@ 0x2a
 8007644:	d015      	beq.n	8007672 <_svfiprintf_r+0xfa>
 8007646:	9a07      	ldr	r2, [sp, #28]
 8007648:	4654      	mov	r4, sl
 800764a:	2000      	movs	r0, #0
 800764c:	f04f 0c0a 	mov.w	ip, #10
 8007650:	4621      	mov	r1, r4
 8007652:	f811 3b01 	ldrb.w	r3, [r1], #1
 8007656:	3b30      	subs	r3, #48	@ 0x30
 8007658:	2b09      	cmp	r3, #9
 800765a:	d94b      	bls.n	80076f4 <_svfiprintf_r+0x17c>
 800765c:	b1b0      	cbz	r0, 800768c <_svfiprintf_r+0x114>
 800765e:	9207      	str	r2, [sp, #28]
 8007660:	e014      	b.n	800768c <_svfiprintf_r+0x114>
 8007662:	eba0 0308 	sub.w	r3, r0, r8
 8007666:	fa09 f303 	lsl.w	r3, r9, r3
 800766a:	4313      	orrs	r3, r2
 800766c:	9304      	str	r3, [sp, #16]
 800766e:	46a2      	mov	sl, r4
 8007670:	e7d2      	b.n	8007618 <_svfiprintf_r+0xa0>
 8007672:	9b03      	ldr	r3, [sp, #12]
 8007674:	1d19      	adds	r1, r3, #4
 8007676:	681b      	ldr	r3, [r3, #0]
 8007678:	9103      	str	r1, [sp, #12]
 800767a:	2b00      	cmp	r3, #0
 800767c:	bfbb      	ittet	lt
 800767e:	425b      	neglt	r3, r3
 8007680:	f042 0202 	orrlt.w	r2, r2, #2
 8007684:	9307      	strge	r3, [sp, #28]
 8007686:	9307      	strlt	r3, [sp, #28]
 8007688:	bfb8      	it	lt
 800768a:	9204      	strlt	r2, [sp, #16]
 800768c:	7823      	ldrb	r3, [r4, #0]
 800768e:	2b2e      	cmp	r3, #46	@ 0x2e
 8007690:	d10a      	bne.n	80076a8 <_svfiprintf_r+0x130>
 8007692:	7863      	ldrb	r3, [r4, #1]
 8007694:	2b2a      	cmp	r3, #42	@ 0x2a
 8007696:	d132      	bne.n	80076fe <_svfiprintf_r+0x186>
 8007698:	9b03      	ldr	r3, [sp, #12]
 800769a:	1d1a      	adds	r2, r3, #4
 800769c:	681b      	ldr	r3, [r3, #0]
 800769e:	9203      	str	r2, [sp, #12]
 80076a0:	ea43 73e3 	orr.w	r3, r3, r3, asr #31
 80076a4:	3402      	adds	r4, #2
 80076a6:	9305      	str	r3, [sp, #20]
 80076a8:	f8df a0c0 	ldr.w	sl, [pc, #192]	@ 800776c <_svfiprintf_r+0x1f4>
 80076ac:	7821      	ldrb	r1, [r4, #0]
 80076ae:	2203      	movs	r2, #3
 80076b0:	4650      	mov	r0, sl
 80076b2:	f7f8 fdad 	bl	8000210 <memchr>
 80076b6:	b138      	cbz	r0, 80076c8 <_svfiprintf_r+0x150>
 80076b8:	9b04      	ldr	r3, [sp, #16]
 80076ba:	eba0 000a 	sub.w	r0, r0, sl
 80076be:	2240      	movs	r2, #64	@ 0x40
 80076c0:	4082      	lsls	r2, r0
 80076c2:	4313      	orrs	r3, r2
 80076c4:	3401      	adds	r4, #1
 80076c6:	9304      	str	r3, [sp, #16]
 80076c8:	f814 1b01 	ldrb.w	r1, [r4], #1
 80076cc:	4824      	ldr	r0, [pc, #144]	@ (8007760 <_svfiprintf_r+0x1e8>)
 80076ce:	f88d 1028 	strb.w	r1, [sp, #40]	@ 0x28
 80076d2:	2206      	movs	r2, #6
 80076d4:	f7f8 fd9c 	bl	8000210 <memchr>
 80076d8:	2800      	cmp	r0, #0
 80076da:	d036      	beq.n	800774a <_svfiprintf_r+0x1d2>
 80076dc:	4b21      	ldr	r3, [pc, #132]	@ (8007764 <_svfiprintf_r+0x1ec>)
 80076de:	bb1b      	cbnz	r3, 8007728 <_svfiprintf_r+0x1b0>
 80076e0:	9b03      	ldr	r3, [sp, #12]
 80076e2:	3307      	adds	r3, #7
 80076e4:	f023 0307 	bic.w	r3, r3, #7
 80076e8:	3308      	adds	r3, #8
 80076ea:	9303      	str	r3, [sp, #12]
 80076ec:	9b09      	ldr	r3, [sp, #36]	@ 0x24
 80076ee:	4433      	add	r3, r6
 80076f0:	9309      	str	r3, [sp, #36]	@ 0x24
 80076f2:	e76a      	b.n	80075ca <_svfiprintf_r+0x52>
 80076f4:	fb0c 3202 	mla	r2, ip, r2, r3
 80076f8:	460c      	mov	r4, r1
 80076fa:	2001      	movs	r0, #1
 80076fc:	e7a8      	b.n	8007650 <_svfiprintf_r+0xd8>
 80076fe:	2300      	movs	r3, #0
 8007700:	3401      	adds	r4, #1
 8007702:	9305      	str	r3, [sp, #20]
 8007704:	4619      	mov	r1, r3
 8007706:	f04f 0c0a 	mov.w	ip, #10
 800770a:	4620      	mov	r0, r4
 800770c:	f810 2b01 	ldrb.w	r2, [r0], #1
 8007710:	3a30      	subs	r2, #48	@ 0x30
 8007712:	2a09      	cmp	r2, #9
 8007714:	d903      	bls.n	800771e <_svfiprintf_r+0x1a6>
 8007716:	2b00      	cmp	r3, #0
 8007718:	d0c6      	beq.n	80076a8 <_svfiprintf_r+0x130>
 800771a:	9105      	str	r1, [sp, #20]
 800771c:	e7c4      	b.n	80076a8 <_svfiprintf_r+0x130>
 800771e:	fb0c 2101 	mla	r1, ip, r1, r2
 8007722:	4604      	mov	r4, r0
 8007724:	2301      	movs	r3, #1
 8007726:	e7f0      	b.n	800770a <_svfiprintf_r+0x192>
 8007728:	ab03      	add	r3, sp, #12
 800772a:	9300      	str	r3, [sp, #0]
 800772c:	462a      	mov	r2, r5
 800772e:	4b0e      	ldr	r3, [pc, #56]	@ (8007768 <_svfiprintf_r+0x1f0>)
 8007730:	a904      	add	r1, sp, #16
 8007732:	4638      	mov	r0, r7
 8007734:	f7fe fba2 	bl	8005e7c <_printf_float>
 8007738:	1c42      	adds	r2, r0, #1
 800773a:	4606      	mov	r6, r0
 800773c:	d1d6      	bne.n	80076ec <_svfiprintf_r+0x174>
 800773e:	89ab      	ldrh	r3, [r5, #12]
 8007740:	065b      	lsls	r3, r3, #25
 8007742:	f53f af2d 	bmi.w	80075a0 <_svfiprintf_r+0x28>
 8007746:	9809      	ldr	r0, [sp, #36]	@ 0x24
 8007748:	e72c      	b.n	80075a4 <_svfiprintf_r+0x2c>
 800774a:	ab03      	add	r3, sp, #12
 800774c:	9300      	str	r3, [sp, #0]
 800774e:	462a      	mov	r2, r5
 8007750:	4b05      	ldr	r3, [pc, #20]	@ (8007768 <_svfiprintf_r+0x1f0>)
 8007752:	a904      	add	r1, sp, #16
 8007754:	4638      	mov	r0, r7
 8007756:	f7fe fe29 	bl	80063ac <_printf_i>
 800775a:	e7ed      	b.n	8007738 <_svfiprintf_r+0x1c0>
 800775c:	08009ae1 	.word	0x08009ae1
 8007760:	08009aeb 	.word	0x08009aeb
 8007764:	08005e7d 	.word	0x08005e7d
 8007768:	080074c1 	.word	0x080074c1
 800776c:	08009ae7 	.word	0x08009ae7

08007770 <malloc>:
 8007770:	4b02      	ldr	r3, [pc, #8]	@ (800777c <malloc+0xc>)
 8007772:	4601      	mov	r1, r0
 8007774:	6818      	ldr	r0, [r3, #0]
 8007776:	f000 b825 	b.w	80077c4 <_malloc_r>
 800777a:	bf00      	nop
 800777c:	20000018 	.word	0x20000018

08007780 <sbrk_aligned>:
 8007780:	b570      	push	{r4, r5, r6, lr}
 8007782:	4e0f      	ldr	r6, [pc, #60]	@ (80077c0 <sbrk_aligned+0x40>)
 8007784:	460c      	mov	r4, r1
 8007786:	6831      	ldr	r1, [r6, #0]
 8007788:	4605      	mov	r5, r0
 800778a:	b911      	cbnz	r1, 8007792 <sbrk_aligned+0x12>
 800778c:	f000 fd94 	bl	80082b8 <_sbrk_r>
 8007790:	6030      	str	r0, [r6, #0]
 8007792:	4621      	mov	r1, r4
 8007794:	4628      	mov	r0, r5
 8007796:	f000 fd8f 	bl	80082b8 <_sbrk_r>
 800779a:	1c43      	adds	r3, r0, #1
 800779c:	d103      	bne.n	80077a6 <sbrk_aligned+0x26>
 800779e:	f04f 34ff 	mov.w	r4, #4294967295	@ 0xffffffff
 80077a2:	4620      	mov	r0, r4
 80077a4:	bd70      	pop	{r4, r5, r6, pc}
 80077a6:	1cc4      	adds	r4, r0, #3
 80077a8:	f024 0403 	bic.w	r4, r4, #3
 80077ac:	42a0      	cmp	r0, r4
 80077ae:	d0f8      	beq.n	80077a2 <sbrk_aligned+0x22>
 80077b0:	1a21      	subs	r1, r4, r0
 80077b2:	4628      	mov	r0, r5
 80077b4:	f000 fd80 	bl	80082b8 <_sbrk_r>
 80077b8:	3001      	adds	r0, #1
 80077ba:	d1f2      	bne.n	80077a2 <sbrk_aligned+0x22>
 80077bc:	e7ef      	b.n	800779e <sbrk_aligned+0x1e>
 80077be:	bf00      	nop
 80077c0:	200004c4 	.word	0x200004c4

080077c4 <_malloc_r>:
 80077c4:	e92d 43f8 	stmdb	sp!, {r3, r4, r5, r6, r7, r8, r9, lr}
 80077c8:	1ccd      	adds	r5, r1, #3
 80077ca:	f025 0503 	bic.w	r5, r5, #3
 80077ce:	3508      	adds	r5, #8
 80077d0:	2d0c      	cmp	r5, #12
 80077d2:	bf38      	it	cc
 80077d4:	250c      	movcc	r5, #12
 80077d6:	2d00      	cmp	r5, #0
 80077d8:	4606      	mov	r6, r0
 80077da:	db01      	blt.n	80077e0 <_malloc_r+0x1c>
 80077dc:	42a9      	cmp	r1, r5
 80077de:	d904      	bls.n	80077ea <_malloc_r+0x26>
 80077e0:	230c      	movs	r3, #12
 80077e2:	6033      	str	r3, [r6, #0]
 80077e4:	2000      	movs	r0, #0
 80077e6:	e8bd 83f8 	ldmia.w	sp!, {r3, r4, r5, r6, r7, r8, r9, pc}
 80077ea:	f8df 80d4 	ldr.w	r8, [pc, #212]	@ 80078c0 <_malloc_r+0xfc>
 80077ee:	f000 f915 	bl	8007a1c <__malloc_lock>
 80077f2:	f8d8 3000 	ldr.w	r3, [r8]
 80077f6:	461c      	mov	r4, r3
 80077f8:	bb44      	cbnz	r4, 800784c <_malloc_r+0x88>
 80077fa:	4629      	mov	r1, r5
 80077fc:	4630      	mov	r0, r6
 80077fe:	f7ff ffbf 	bl	8007780 <sbrk_aligned>
 8007802:	1c43      	adds	r3, r0, #1
 8007804:	4604      	mov	r4, r0
 8007806:	d158      	bne.n	80078ba <_malloc_r+0xf6>
 8007808:	f8d8 4000 	ldr.w	r4, [r8]
 800780c:	4627      	mov	r7, r4
 800780e:	2f00      	cmp	r7, #0
 8007810:	d143      	bne.n	800789a <_malloc_r+0xd6>
 8007812:	2c00      	cmp	r4, #0
 8007814:	d04b      	beq.n	80078ae <_malloc_r+0xea>
 8007816:	6823      	ldr	r3, [r4, #0]
 8007818:	4639      	mov	r1, r7
 800781a:	4630      	mov	r0, r6
 800781c:	eb04 0903 	add.w	r9, r4, r3
 8007820:	f000 fd4a 	bl	80082b8 <_sbrk_r>
 8007824:	4581      	cmp	r9, r0
 8007826:	d142      	bne.n	80078ae <_malloc_r+0xea>
 8007828:	6821      	ldr	r1, [r4, #0]
 800782a:	1a6d      	subs	r5, r5, r1
 800782c:	4629      	mov	r1, r5
 800782e:	4630      	mov	r0, r6
 8007830:	f7ff ffa6 	bl	8007780 <sbrk_aligned>
 8007834:	3001      	adds	r0, #1
 8007836:	d03a      	beq.n	80078ae <_malloc_r+0xea>
 8007838:	6823      	ldr	r3, [r4, #0]
 800783a:	442b      	add	r3, r5
 800783c:	6023      	str	r3, [r4, #0]
 800783e:	f8d8 3000 	ldr.w	r3, [r8]
 8007842:	685a      	ldr	r2, [r3, #4]
 8007844:	bb62      	cbnz	r2, 80078a0 <_malloc_r+0xdc>
 8007846:	f8c8 7000 	str.w	r7, [r8]
 800784a:	e00f      	b.n	800786c <_malloc_r+0xa8>
 800784c:	6822      	ldr	r2, [r4, #0]
 800784e:	1b52      	subs	r2, r2, r5
 8007850:	d420      	bmi.n	8007894 <_malloc_r+0xd0>
 8007852:	2a0b      	cmp	r2, #11
 8007854:	d917      	bls.n	8007886 <_malloc_r+0xc2>
 8007856:	1961      	adds	r1, r4, r5
 8007858:	42a3      	cmp	r3, r4
 800785a:	6025      	str	r5, [r4, #0]
 800785c:	bf18      	it	ne
 800785e:	6059      	strne	r1, [r3, #4]
 8007860:	6863      	ldr	r3, [r4, #4]
 8007862:	bf08      	it	eq
 8007864:	f8c8 1000 	streq.w	r1, [r8]
 8007868:	5162      	str	r2, [r4, r5]
 800786a:	604b      	str	r3, [r1, #4]
 800786c:	4630      	mov	r0, r6
 800786e:	f000 f8db 	bl	8007a28 <__malloc_unlock>
 8007872:	f104 000b 	add.w	r0, r4, #11
 8007876:	1d23      	adds	r3, r4, #4
 8007878:	f020 0007 	bic.w	r0, r0, #7
 800787c:	1ac2      	subs	r2, r0, r3
 800787e:	bf1c      	itt	ne
 8007880:	1a1b      	subne	r3, r3, r0
 8007882:	50a3      	strne	r3, [r4, r2]
 8007884:	e7af      	b.n	80077e6 <_malloc_r+0x22>
 8007886:	6862      	ldr	r2, [r4, #4]
 8007888:	42a3      	cmp	r3, r4
 800788a:	bf0c      	ite	eq
 800788c:	f8c8 2000 	streq.w	r2, [r8]
 8007890:	605a      	strne	r2, [r3, #4]
 8007892:	e7eb      	b.n	800786c <_malloc_r+0xa8>
 8007894:	4623      	mov	r3, r4
 8007896:	6864      	ldr	r4, [r4, #4]
 8007898:	e7ae      	b.n	80077f8 <_malloc_r+0x34>
 800789a:	463c      	mov	r4, r7
 800789c:	687f      	ldr	r7, [r7, #4]
 800789e:	e7b6      	b.n	800780e <_malloc_r+0x4a>
 80078a0:	461a      	mov	r2, r3
 80078a2:	685b      	ldr	r3, [r3, #4]
 80078a4:	42a3      	cmp	r3, r4
 80078a6:	d1fb      	bne.n	80078a0 <_malloc_r+0xdc>
 80078a8:	2300      	movs	r3, #0
 80078aa:	6053      	str	r3, [r2, #4]
 80078ac:	e7de      	b.n	800786c <_malloc_r+0xa8>
 80078ae:	230c      	movs	r3, #12
 80078b0:	6033      	str	r3, [r6, #0]
 80078b2:	4630      	mov	r0, r6
 80078b4:	f000 f8b8 	bl	8007a28 <__malloc_unlock>
 80078b8:	e794      	b.n	80077e4 <_malloc_r+0x20>
 80078ba:	6005      	str	r5, [r0, #0]
 80078bc:	e7d6      	b.n	800786c <_malloc_r+0xa8>
 80078be:	bf00      	nop
 80078c0:	200004c8 	.word	0x200004c8

080078c4 <__sflush_r>:
 80078c4:	f9b1 200c 	ldrsh.w	r2, [r1, #12]
 80078c8:	e92d 41f0 	stmdb	sp!, {r4, r5, r6, r7, r8, lr}
 80078cc:	0716      	lsls	r6, r2, #28
 80078ce:	4605      	mov	r5, r0
 80078d0:	460c      	mov	r4, r1
 80078d2:	d454      	bmi.n	800797e <__sflush_r+0xba>
 80078d4:	684b      	ldr	r3, [r1, #4]
 80078d6:	2b00      	cmp	r3, #0
 80078d8:	dc02      	bgt.n	80078e0 <__sflush_r+0x1c>
 80078da:	6c0b      	ldr	r3, [r1, #64]	@ 0x40
 80078dc:	2b00      	cmp	r3, #0
 80078de:	dd48      	ble.n	8007972 <__sflush_r+0xae>
 80078e0:	6ae6      	ldr	r6, [r4, #44]	@ 0x2c
 80078e2:	2e00      	cmp	r6, #0
 80078e4:	d045      	beq.n	8007972 <__sflush_r+0xae>
 80078e6:	2300      	movs	r3, #0
 80078e8:	f412 5280 	ands.w	r2, r2, #4096	@ 0x1000
 80078ec:	682f      	ldr	r7, [r5, #0]
 80078ee:	6a21      	ldr	r1, [r4, #32]
 80078f0:	602b      	str	r3, [r5, #0]
 80078f2:	d030      	beq.n	8007956 <__sflush_r+0x92>
 80078f4:	6d62      	ldr	r2, [r4, #84]	@ 0x54
 80078f6:	89a3      	ldrh	r3, [r4, #12]
 80078f8:	0759      	lsls	r1, r3, #29
 80078fa:	d505      	bpl.n	8007908 <__sflush_r+0x44>
 80078fc:	6863      	ldr	r3, [r4, #4]
 80078fe:	1ad2      	subs	r2, r2, r3
 8007900:	6b63      	ldr	r3, [r4, #52]	@ 0x34
 8007902:	b10b      	cbz	r3, 8007908 <__sflush_r+0x44>
 8007904:	6c23      	ldr	r3, [r4, #64]	@ 0x40
 8007906:	1ad2      	subs	r2, r2, r3
 8007908:	2300      	movs	r3, #0
 800790a:	6ae6      	ldr	r6, [r4, #44]	@ 0x2c
 800790c:	6a21      	ldr	r1, [r4, #32]
 800790e:	4628      	mov	r0, r5
 8007910:	47b0      	blx	r6
 8007912:	1c43      	adds	r3, r0, #1
 8007914:	89a3      	ldrh	r3, [r4, #12]
 8007916:	d106      	bne.n	8007926 <__sflush_r+0x62>
 8007918:	6829      	ldr	r1, [r5, #0]
 800791a:	291d      	cmp	r1, #29
 800791c:	d82b      	bhi.n	8007976 <__sflush_r+0xb2>
 800791e:	4a2a      	ldr	r2, [pc, #168]	@ (80079c8 <__sflush_r+0x104>)
 8007920:	410a      	asrs	r2, r1
 8007922:	07d6      	lsls	r6, r2, #31
 8007924:	d427      	bmi.n	8007976 <__sflush_r+0xb2>
 8007926:	2200      	movs	r2, #0
 8007928:	6062      	str	r2, [r4, #4]
 800792a:	04d9      	lsls	r1, r3, #19
 800792c:	6922      	ldr	r2, [r4, #16]
 800792e:	6022      	str	r2, [r4, #0]
 8007930:	d504      	bpl.n	800793c <__sflush_r+0x78>
 8007932:	1c42      	adds	r2, r0, #1
 8007934:	d101      	bne.n	800793a <__sflush_r+0x76>
 8007936:	682b      	ldr	r3, [r5, #0]
 8007938:	b903      	cbnz	r3, 800793c <__sflush_r+0x78>
 800793a:	6560      	str	r0, [r4, #84]	@ 0x54
 800793c:	6b61      	ldr	r1, [r4, #52]	@ 0x34
 800793e:	602f      	str	r7, [r5, #0]
 8007940:	b1b9      	cbz	r1, 8007972 <__sflush_r+0xae>
 8007942:	f104 0344 	add.w	r3, r4, #68	@ 0x44
 8007946:	4299      	cmp	r1, r3
 8007948:	d002      	beq.n	8007950 <__sflush_r+0x8c>
 800794a:	4628      	mov	r0, r5
 800794c:	f000 fd16 	bl	800837c <_free_r>
 8007950:	2300      	movs	r3, #0
 8007952:	6363      	str	r3, [r4, #52]	@ 0x34
 8007954:	e00d      	b.n	8007972 <__sflush_r+0xae>
 8007956:	2301      	movs	r3, #1
 8007958:	4628      	mov	r0, r5
 800795a:	47b0      	blx	r6
 800795c:	4602      	mov	r2, r0
 800795e:	1c50      	adds	r0, r2, #1
 8007960:	d1c9      	bne.n	80078f6 <__sflush_r+0x32>
 8007962:	682b      	ldr	r3, [r5, #0]
 8007964:	2b00      	cmp	r3, #0
 8007966:	d0c6      	beq.n	80078f6 <__sflush_r+0x32>
 8007968:	2b1d      	cmp	r3, #29
 800796a:	d001      	beq.n	8007970 <__sflush_r+0xac>
 800796c:	2b16      	cmp	r3, #22
 800796e:	d11e      	bne.n	80079ae <__sflush_r+0xea>
 8007970:	602f      	str	r7, [r5, #0]
 8007972:	2000      	movs	r0, #0
 8007974:	e022      	b.n	80079bc <__sflush_r+0xf8>
 8007976:	f043 0340 	orr.w	r3, r3, #64	@ 0x40
 800797a:	b21b      	sxth	r3, r3
 800797c:	e01b      	b.n	80079b6 <__sflush_r+0xf2>
 800797e:	690f      	ldr	r7, [r1, #16]
 8007980:	2f00      	cmp	r7, #0
 8007982:	d0f6      	beq.n	8007972 <__sflush_r+0xae>
 8007984:	0793      	lsls	r3, r2, #30
 8007986:	680e      	ldr	r6, [r1, #0]
 8007988:	bf08      	it	eq
 800798a:	694b      	ldreq	r3, [r1, #20]
 800798c:	600f      	str	r7, [r1, #0]
 800798e:	bf18      	it	ne
 8007990:	2300      	movne	r3, #0
 8007992:	eba6 0807 	sub.w	r8, r6, r7
 8007996:	608b      	str	r3, [r1, #8]
 8007998:	f1b8 0f00 	cmp.w	r8, #0
 800799c:	dde9      	ble.n	8007972 <__sflush_r+0xae>
 800799e:	6a21      	ldr	r1, [r4, #32]
 80079a0:	6aa6      	ldr	r6, [r4, #40]	@ 0x28
 80079a2:	4643      	mov	r3, r8
 80079a4:	463a      	mov	r2, r7
 80079a6:	4628      	mov	r0, r5
 80079a8:	47b0      	blx	r6
 80079aa:	2800      	cmp	r0, #0
 80079ac:	dc08      	bgt.n	80079c0 <__sflush_r+0xfc>
 80079ae:	f9b4 300c 	ldrsh.w	r3, [r4, #12]
 80079b2:	f043 0340 	orr.w	r3, r3, #64	@ 0x40
 80079b6:	81a3      	strh	r3, [r4, #12]
 80079b8:	f04f 30ff 	mov.w	r0, #4294967295	@ 0xffffffff
 80079bc:	e8bd 81f0 	ldmia.w	sp!, {r4, r5, r6, r7, r8, pc}
 80079c0:	4407      	add	r7, r0
 80079c2:	eba8 0800 	sub.w	r8, r8, r0
 80079c6:	e7e7      	b.n	8007998 <__sflush_r+0xd4>
 80079c8:	dfbffffe 	.word	0xdfbffffe

080079cc <_fflush_r>:
 80079cc:	b538      	push	{r3, r4, r5, lr}
 80079ce:	690b      	ldr	r3, [r1, #16]
 80079d0:	4605      	mov	r5, r0
 80079d2:	460c      	mov	r4, r1
 80079d4:	b913      	cbnz	r3, 80079dc <_fflush_r+0x10>
 80079d6:	2500      	movs	r5, #0
 80079d8:	4628      	mov	r0, r5
 80079da:	bd38      	pop	{r3, r4, r5, pc}
 80079dc:	b118      	cbz	r0, 80079e6 <_fflush_r+0x1a>
 80079de:	6a03      	ldr	r3, [r0, #32]
 80079e0:	b90b      	cbnz	r3, 80079e6 <_fflush_r+0x1a>
 80079e2:	f7fe feaf 	bl	8006744 <__sinit>
 80079e6:	f9b4 300c 	ldrsh.w	r3, [r4, #12]
 80079ea:	2b00      	cmp	r3, #0
 80079ec:	d0f3      	beq.n	80079d6 <_fflush_r+0xa>
 80079ee:	6e62      	ldr	r2, [r4, #100]	@ 0x64
 80079f0:	07d0      	lsls	r0, r2, #31
 80079f2:	d404      	bmi.n	80079fe <_fflush_r+0x32>
 80079f4:	0599      	lsls	r1, r3, #22
 80079f6:	d402      	bmi.n	80079fe <_fflush_r+0x32>
 80079f8:	6da0      	ldr	r0, [r4, #88]	@ 0x58
 80079fa:	f7fe ff10 	bl	800681e <__retarget_lock_acquire_recursive>
 80079fe:	4628      	mov	r0, r5
 8007a00:	4621      	mov	r1, r4
 8007a02:	f7ff ff5f 	bl	80078c4 <__sflush_r>
 8007a06:	6e63      	ldr	r3, [r4, #100]	@ 0x64
 8007a08:	07da      	lsls	r2, r3, #31
 8007a0a:	4605      	mov	r5, r0
 8007a0c:	d4e4      	bmi.n	80079d8 <_fflush_r+0xc>
 8007a0e:	89a3      	ldrh	r3, [r4, #12]
 8007a10:	059b      	lsls	r3, r3, #22
 8007a12:	d4e1      	bmi.n	80079d8 <_fflush_r+0xc>
 8007a14:	6da0      	ldr	r0, [r4, #88]	@ 0x58
 8007a16:	f7fe ff03 	bl	8006820 <__retarget_lock_release_recursive>
 8007a1a:	e7dd      	b.n	80079d8 <_fflush_r+0xc>

08007a1c <__malloc_lock>:
 8007a1c:	4801      	ldr	r0, [pc, #4]	@ (8007a24 <__malloc_lock+0x8>)
 8007a1e:	f7fe befe 	b.w	800681e <__retarget_lock_acquire_recursive>
 8007a22:	bf00      	nop
 8007a24:	200004c0 	.word	0x200004c0

08007a28 <__malloc_unlock>:
 8007a28:	4801      	ldr	r0, [pc, #4]	@ (8007a30 <__malloc_unlock+0x8>)
 8007a2a:	f7fe bef9 	b.w	8006820 <__retarget_lock_release_recursive>
 8007a2e:	bf00      	nop
 8007a30:	200004c0 	.word	0x200004c0

08007a34 <_Balloc>:
 8007a34:	b570      	push	{r4, r5, r6, lr}
 8007a36:	69c6      	ldr	r6, [r0, #28]
 8007a38:	4604      	mov	r4, r0
 8007a3a:	460d      	mov	r5, r1
 8007a3c:	b976      	cbnz	r6, 8007a5c <_Balloc+0x28>
 8007a3e:	2010      	movs	r0, #16
 8007a40:	f7ff fe96 	bl	8007770 <malloc>
 8007a44:	4602      	mov	r2, r0
 8007a46:	61e0      	str	r0, [r4, #28]
 8007a48:	b920      	cbnz	r0, 8007a54 <_Balloc+0x20>
 8007a4a:	4b18      	ldr	r3, [pc, #96]	@ (8007aac <_Balloc+0x78>)
 8007a4c:	4818      	ldr	r0, [pc, #96]	@ (8007ab0 <_Balloc+0x7c>)
 8007a4e:	216b      	movs	r1, #107	@ 0x6b
 8007a50:	f000 fc62 	bl	8008318 <__assert_func>
 8007a54:	e9c0 6601 	strd	r6, r6, [r0, #4]
 8007a58:	6006      	str	r6, [r0, #0]
 8007a5a:	60c6      	str	r6, [r0, #12]
 8007a5c:	69e6      	ldr	r6, [r4, #28]
 8007a5e:	68f3      	ldr	r3, [r6, #12]
 8007a60:	b183      	cbz	r3, 8007a84 <_Balloc+0x50>
 8007a62:	69e3      	ldr	r3, [r4, #28]
 8007a64:	68db      	ldr	r3, [r3, #12]
 8007a66:	f853 0025 	ldr.w	r0, [r3, r5, lsl #2]
 8007a6a:	b9b8      	cbnz	r0, 8007a9c <_Balloc+0x68>
 8007a6c:	2101      	movs	r1, #1
 8007a6e:	fa01 f605 	lsl.w	r6, r1, r5
 8007a72:	1d72      	adds	r2, r6, #5
 8007a74:	0092      	lsls	r2, r2, #2
 8007a76:	4620      	mov	r0, r4
 8007a78:	f000 fc6c 	bl	8008354 <_calloc_r>
 8007a7c:	b160      	cbz	r0, 8007a98 <_Balloc+0x64>
 8007a7e:	e9c0 5601 	strd	r5, r6, [r0, #4]
 8007a82:	e00e      	b.n	8007aa2 <_Balloc+0x6e>
 8007a84:	2221      	movs	r2, #33	@ 0x21
 8007a86:	2104      	movs	r1, #4
 8007a88:	4620      	mov	r0, r4
 8007a8a:	f000 fc63 	bl	8008354 <_calloc_r>
 8007a8e:	69e3      	ldr	r3, [r4, #28]
 8007a90:	60f0      	str	r0, [r6, #12]
 8007a92:	68db      	ldr	r3, [r3, #12]
 8007a94:	2b00      	cmp	r3, #0
 8007a96:	d1e4      	bne.n	8007a62 <_Balloc+0x2e>
 8007a98:	2000      	movs	r0, #0
 8007a9a:	bd70      	pop	{r4, r5, r6, pc}
 8007a9c:	6802      	ldr	r2, [r0, #0]
 8007a9e:	f843 2025 	str.w	r2, [r3, r5, lsl #2]
 8007aa2:	2300      	movs	r3, #0
 8007aa4:	e9c0 3303 	strd	r3, r3, [r0, #12]
 8007aa8:	e7f7      	b.n	8007a9a <_Balloc+0x66>
 8007aaa:	bf00      	nop
 8007aac:	08009a61 	.word	0x08009a61
 8007ab0:	08009af2 	.word	0x08009af2

08007ab4 <_Bfree>:
 8007ab4:	b570      	push	{r4, r5, r6, lr}
 8007ab6:	69c6      	ldr	r6, [r0, #28]
 8007ab8:	4605      	mov	r5, r0
 8007aba:	460c      	mov	r4, r1
 8007abc:	b976      	cbnz	r6, 8007adc <_Bfree+0x28>
 8007abe:	2010      	movs	r0, #16
 8007ac0:	f7ff fe56 	bl	8007770 <malloc>
 8007ac4:	4602      	mov	r2, r0
 8007ac6:	61e8      	str	r0, [r5, #28]
 8007ac8:	b920      	cbnz	r0, 8007ad4 <_Bfree+0x20>
 8007aca:	4b09      	ldr	r3, [pc, #36]	@ (8007af0 <_Bfree+0x3c>)
 8007acc:	4809      	ldr	r0, [pc, #36]	@ (8007af4 <_Bfree+0x40>)
 8007ace:	218f      	movs	r1, #143	@ 0x8f
 8007ad0:	f000 fc22 	bl	8008318 <__assert_func>
 8007ad4:	e9c0 6601 	strd	r6, r6, [r0, #4]
 8007ad8:	6006      	str	r6, [r0, #0]
 8007ada:	60c6      	str	r6, [r0, #12]
 8007adc:	b13c      	cbz	r4, 8007aee <_Bfree+0x3a>
 8007ade:	69eb      	ldr	r3, [r5, #28]
 8007ae0:	6862      	ldr	r2, [r4, #4]
 8007ae2:	68db      	ldr	r3, [r3, #12]
 8007ae4:	f853 1022 	ldr.w	r1, [r3, r2, lsl #2]
 8007ae8:	6021      	str	r1, [r4, #0]
 8007aea:	f843 4022 	str.w	r4, [r3, r2, lsl #2]
 8007aee:	bd70      	pop	{r4, r5, r6, pc}
 8007af0:	08009a61 	.word	0x08009a61
 8007af4:	08009af2 	.word	0x08009af2

08007af8 <__multadd>:
 8007af8:	e92d 41f0 	stmdb	sp!, {r4, r5, r6, r7, r8, lr}
 8007afc:	690d      	ldr	r5, [r1, #16]
 8007afe:	4607      	mov	r7, r0
 8007b00:	460c      	mov	r4, r1
 8007b02:	461e      	mov	r6, r3
 8007b04:	f101 0c14 	add.w	ip, r1, #20
 8007b08:	2000      	movs	r0, #0
 8007b0a:	f8dc 3000 	ldr.w	r3, [ip]
 8007b0e:	b299      	uxth	r1, r3
 8007b10:	fb02 6101 	mla	r1, r2, r1, r6
 8007b14:	0c1e      	lsrs	r6, r3, #16
 8007b16:	0c0b      	lsrs	r3, r1, #16
 8007b18:	fb02 3306 	mla	r3, r2, r6, r3
 8007b1c:	b289      	uxth	r1, r1
 8007b1e:	3001      	adds	r0, #1
 8007b20:	eb01 4103 	add.w	r1, r1, r3, lsl #16
 8007b24:	4285      	cmp	r5, r0
 8007b26:	f84c 1b04 	str.w	r1, [ip], #4
 8007b2a:	ea4f 4613 	mov.w	r6, r3, lsr #16
 8007b2e:	dcec      	bgt.n	8007b0a <__multadd+0x12>
 8007b30:	b30e      	cbz	r6, 8007b76 <__multadd+0x7e>
 8007b32:	68a3      	ldr	r3, [r4, #8]
 8007b34:	42ab      	cmp	r3, r5
 8007b36:	dc19      	bgt.n	8007b6c <__multadd+0x74>
 8007b38:	6861      	ldr	r1, [r4, #4]
 8007b3a:	4638      	mov	r0, r7
 8007b3c:	3101      	adds	r1, #1
 8007b3e:	f7ff ff79 	bl	8007a34 <_Balloc>
 8007b42:	4680      	mov	r8, r0
 8007b44:	b928      	cbnz	r0, 8007b52 <__multadd+0x5a>
 8007b46:	4602      	mov	r2, r0
 8007b48:	4b0c      	ldr	r3, [pc, #48]	@ (8007b7c <__multadd+0x84>)
 8007b4a:	480d      	ldr	r0, [pc, #52]	@ (8007b80 <__multadd+0x88>)
 8007b4c:	21ba      	movs	r1, #186	@ 0xba
 8007b4e:	f000 fbe3 	bl	8008318 <__assert_func>
 8007b52:	6922      	ldr	r2, [r4, #16]
 8007b54:	3202      	adds	r2, #2
 8007b56:	f104 010c 	add.w	r1, r4, #12
 8007b5a:	0092      	lsls	r2, r2, #2
 8007b5c:	300c      	adds	r0, #12
 8007b5e:	f000 fbcd 	bl	80082fc <memcpy>
 8007b62:	4621      	mov	r1, r4
 8007b64:	4638      	mov	r0, r7
 8007b66:	f7ff ffa5 	bl	8007ab4 <_Bfree>
 8007b6a:	4644      	mov	r4, r8
 8007b6c:	eb04 0385 	add.w	r3, r4, r5, lsl #2
 8007b70:	3501      	adds	r5, #1
 8007b72:	615e      	str	r6, [r3, #20]
 8007b74:	6125      	str	r5, [r4, #16]
 8007b76:	4620      	mov	r0, r4
 8007b78:	e8bd 81f0 	ldmia.w	sp!, {r4, r5, r6, r7, r8, pc}
 8007b7c:	08009ad0 	.word	0x08009ad0
 8007b80:	08009af2 	.word	0x08009af2

08007b84 <__hi0bits>:
 8007b84:	f5b0 3f80 	cmp.w	r0, #65536	@ 0x10000
 8007b88:	4603      	mov	r3, r0
 8007b8a:	bf36      	itet	cc
 8007b8c:	0403      	lslcc	r3, r0, #16
 8007b8e:	2000      	movcs	r0, #0
 8007b90:	2010      	movcc	r0, #16
 8007b92:	f1b3 7f80 	cmp.w	r3, #16777216	@ 0x1000000
 8007b96:	bf3c      	itt	cc
 8007b98:	021b      	lslcc	r3, r3, #8
 8007b9a:	3008      	addcc	r0, #8
 8007b9c:	f1b3 5f80 	cmp.w	r3, #268435456	@ 0x10000000
 8007ba0:	bf3c      	itt	cc
 8007ba2:	011b      	lslcc	r3, r3, #4
 8007ba4:	3004      	addcc	r0, #4
 8007ba6:	f1b3 4f80 	cmp.w	r3, #1073741824	@ 0x40000000
 8007baa:	bf3c      	itt	cc
 8007bac:	009b      	lslcc	r3, r3, #2
 8007bae:	3002      	addcc	r0, #2
 8007bb0:	2b00      	cmp	r3, #0
 8007bb2:	db05      	blt.n	8007bc0 <__hi0bits+0x3c>
 8007bb4:	f013 4f80 	tst.w	r3, #1073741824	@ 0x40000000
 8007bb8:	f100 0001 	add.w	r0, r0, #1
 8007bbc:	bf08      	it	eq
 8007bbe:	2020      	moveq	r0, #32
 8007bc0:	4770      	bx	lr

08007bc2 <__lo0bits>:
 8007bc2:	6803      	ldr	r3, [r0, #0]
 8007bc4:	4602      	mov	r2, r0
 8007bc6:	f013 0007 	ands.w	r0, r3, #7
 8007bca:	d00b      	beq.n	8007be4 <__lo0bits+0x22>
 8007bcc:	07d9      	lsls	r1, r3, #31
 8007bce:	d421      	bmi.n	8007c14 <__lo0bits+0x52>
 8007bd0:	0798      	lsls	r0, r3, #30
 8007bd2:	bf49      	itett	mi
 8007bd4:	085b      	lsrmi	r3, r3, #1
 8007bd6:	089b      	lsrpl	r3, r3, #2
 8007bd8:	2001      	movmi	r0, #1
 8007bda:	6013      	strmi	r3, [r2, #0]
 8007bdc:	bf5c      	itt	pl
 8007bde:	6013      	strpl	r3, [r2, #0]
 8007be0:	2002      	movpl	r0, #2
 8007be2:	4770      	bx	lr
 8007be4:	b299      	uxth	r1, r3
 8007be6:	b909      	cbnz	r1, 8007bec <__lo0bits+0x2a>
 8007be8:	0c1b      	lsrs	r3, r3, #16
 8007bea:	2010      	movs	r0, #16
 8007bec:	b2d9      	uxtb	r1, r3
 8007bee:	b909      	cbnz	r1, 8007bf4 <__lo0bits+0x32>
 8007bf0:	3008      	adds	r0, #8
 8007bf2:	0a1b      	lsrs	r3, r3, #8
 8007bf4:	0719      	lsls	r1, r3, #28
 8007bf6:	bf04      	itt	eq
 8007bf8:	091b      	lsreq	r3, r3, #4
 8007bfa:	3004      	addeq	r0, #4
 8007bfc:	0799      	lsls	r1, r3, #30
 8007bfe:	bf04      	itt	eq
 8007c00:	089b      	lsreq	r3, r3, #2
 8007c02:	3002      	addeq	r0, #2
 8007c04:	07d9      	lsls	r1, r3, #31
 8007c06:	d403      	bmi.n	8007c10 <__lo0bits+0x4e>
 8007c08:	085b      	lsrs	r3, r3, #1
 8007c0a:	f100 0001 	add.w	r0, r0, #1
 8007c0e:	d003      	beq.n	8007c18 <__lo0bits+0x56>
 8007c10:	6013      	str	r3, [r2, #0]
 8007c12:	4770      	bx	lr
 8007c14:	2000      	movs	r0, #0
 8007c16:	4770      	bx	lr
 8007c18:	2020      	movs	r0, #32
 8007c1a:	4770      	bx	lr

08007c1c <__i2b>:
 8007c1c:	b510      	push	{r4, lr}
 8007c1e:	460c      	mov	r4, r1
 8007c20:	2101      	movs	r1, #1
 8007c22:	f7ff ff07 	bl	8007a34 <_Balloc>
 8007c26:	4602      	mov	r2, r0
 8007c28:	b928      	cbnz	r0, 8007c36 <__i2b+0x1a>
 8007c2a:	4b05      	ldr	r3, [pc, #20]	@ (8007c40 <__i2b+0x24>)
 8007c2c:	4805      	ldr	r0, [pc, #20]	@ (8007c44 <__i2b+0x28>)
 8007c2e:	f240 1145 	movw	r1, #325	@ 0x145
 8007c32:	f000 fb71 	bl	8008318 <__assert_func>
 8007c36:	2301      	movs	r3, #1
 8007c38:	6144      	str	r4, [r0, #20]
 8007c3a:	6103      	str	r3, [r0, #16]
 8007c3c:	bd10      	pop	{r4, pc}
 8007c3e:	bf00      	nop
 8007c40:	08009ad0 	.word	0x08009ad0
 8007c44:	08009af2 	.word	0x08009af2

08007c48 <__multiply>:
 8007c48:	e92d 4ff0 	stmdb	sp!, {r4, r5, r6, r7, r8, r9, sl, fp, lr}
 8007c4c:	4614      	mov	r4, r2
 8007c4e:	690a      	ldr	r2, [r1, #16]
 8007c50:	6923      	ldr	r3, [r4, #16]
 8007c52:	429a      	cmp	r2, r3
 8007c54:	bfa8      	it	ge
 8007c56:	4623      	movge	r3, r4
 8007c58:	460f      	mov	r7, r1
 8007c5a:	bfa4      	itt	ge
 8007c5c:	460c      	movge	r4, r1
 8007c5e:	461f      	movge	r7, r3
 8007c60:	f8d4 a010 	ldr.w	sl, [r4, #16]
 8007c64:	f8d7 9010 	ldr.w	r9, [r7, #16]
 8007c68:	68a3      	ldr	r3, [r4, #8]
 8007c6a:	6861      	ldr	r1, [r4, #4]
 8007c6c:	eb0a 0609 	add.w	r6, sl, r9
 8007c70:	42b3      	cmp	r3, r6
 8007c72:	b085      	sub	sp, #20
 8007c74:	bfb8      	it	lt
 8007c76:	3101      	addlt	r1, #1
 8007c78:	f7ff fedc 	bl	8007a34 <_Balloc>
 8007c7c:	b930      	cbnz	r0, 8007c8c <__multiply+0x44>
 8007c7e:	4602      	mov	r2, r0
 8007c80:	4b44      	ldr	r3, [pc, #272]	@ (8007d94 <__multiply+0x14c>)
 8007c82:	4845      	ldr	r0, [pc, #276]	@ (8007d98 <__multiply+0x150>)
 8007c84:	f44f 71b1 	mov.w	r1, #354	@ 0x162
 8007c88:	f000 fb46 	bl	8008318 <__assert_func>
 8007c8c:	f100 0514 	add.w	r5, r0, #20
 8007c90:	eb05 0886 	add.w	r8, r5, r6, lsl #2
 8007c94:	462b      	mov	r3, r5
 8007c96:	2200      	movs	r2, #0
 8007c98:	4543      	cmp	r3, r8
 8007c9a:	d321      	bcc.n	8007ce0 <__multiply+0x98>
 8007c9c:	f107 0114 	add.w	r1, r7, #20
 8007ca0:	f104 0214 	add.w	r2, r4, #20
 8007ca4:	eb02 028a 	add.w	r2, r2, sl, lsl #2
 8007ca8:	eb01 0389 	add.w	r3, r1, r9, lsl #2
 8007cac:	9302      	str	r3, [sp, #8]
 8007cae:	1b13      	subs	r3, r2, r4
 8007cb0:	3b15      	subs	r3, #21
 8007cb2:	f023 0303 	bic.w	r3, r3, #3
 8007cb6:	3304      	adds	r3, #4
 8007cb8:	f104 0715 	add.w	r7, r4, #21
 8007cbc:	42ba      	cmp	r2, r7
 8007cbe:	bf38      	it	cc
 8007cc0:	2304      	movcc	r3, #4
 8007cc2:	9301      	str	r3, [sp, #4]
 8007cc4:	9b02      	ldr	r3, [sp, #8]
 8007cc6:	9103      	str	r1, [sp, #12]
 8007cc8:	428b      	cmp	r3, r1
 8007cca:	d80c      	bhi.n	8007ce6 <__multiply+0x9e>
 8007ccc:	2e00      	cmp	r6, #0
 8007cce:	dd03      	ble.n	8007cd8 <__multiply+0x90>
 8007cd0:	f858 3d04 	ldr.w	r3, [r8, #-4]!
 8007cd4:	2b00      	cmp	r3, #0
 8007cd6:	d05b      	beq.n	8007d90 <__multiply+0x148>
 8007cd8:	6106      	str	r6, [r0, #16]
 8007cda:	b005      	add	sp, #20
 8007cdc:	e8bd 8ff0 	ldmia.w	sp!, {r4, r5, r6, r7, r8, r9, sl, fp, pc}
 8007ce0:	f843 2b04 	str.w	r2, [r3], #4
 8007ce4:	e7d8      	b.n	8007c98 <__multiply+0x50>
 8007ce6:	f8b1 a000 	ldrh.w	sl, [r1]
 8007cea:	f1ba 0f00 	cmp.w	sl, #0
 8007cee:	d024      	beq.n	8007d3a <__multiply+0xf2>
 8007cf0:	f104 0e14 	add.w	lr, r4, #20
 8007cf4:	46a9      	mov	r9, r5
 8007cf6:	f04f 0c00 	mov.w	ip, #0
 8007cfa:	f85e 7b04 	ldr.w	r7, [lr], #4
 8007cfe:	f8d9 3000 	ldr.w	r3, [r9]
 8007d02:	fa1f fb87 	uxth.w	fp, r7
 8007d06:	b29b      	uxth	r3, r3
 8007d08:	fb0a 330b 	mla	r3, sl, fp, r3
 8007d0c:	ea4f 4b17 	mov.w	fp, r7, lsr #16
 8007d10:	f8d9 7000 	ldr.w	r7, [r9]
 8007d14:	4463      	add	r3, ip
 8007d16:	ea4f 4c17 	mov.w	ip, r7, lsr #16
 8007d1a:	fb0a c70b 	mla	r7, sl, fp, ip
 8007d1e:	eb07 4713 	add.w	r7, r7, r3, lsr #16
 8007d22:	b29b      	uxth	r3, r3
 8007d24:	ea43 4307 	orr.w	r3, r3, r7, lsl #16
 8007d28:	4572      	cmp	r2, lr
 8007d2a:	f849 3b04 	str.w	r3, [r9], #4
 8007d2e:	ea4f 4c17 	mov.w	ip, r7, lsr #16
 8007d32:	d8e2      	bhi.n	8007cfa <__multiply+0xb2>
 8007d34:	9b01      	ldr	r3, [sp, #4]
 8007d36:	f845 c003 	str.w	ip, [r5, r3]
 8007d3a:	9b03      	ldr	r3, [sp, #12]
 8007d3c:	f8b3 9002 	ldrh.w	r9, [r3, #2]
 8007d40:	3104      	adds	r1, #4
 8007d42:	f1b9 0f00 	cmp.w	r9, #0
 8007d46:	d021      	beq.n	8007d8c <__multiply+0x144>
 8007d48:	682b      	ldr	r3, [r5, #0]
 8007d4a:	f104 0c14 	add.w	ip, r4, #20
 8007d4e:	46ae      	mov	lr, r5
 8007d50:	f04f 0a00 	mov.w	sl, #0
 8007d54:	f8bc b000 	ldrh.w	fp, [ip]
 8007d58:	f8be 7002 	ldrh.w	r7, [lr, #2]
 8007d5c:	fb09 770b 	mla	r7, r9, fp, r7
 8007d60:	4457      	add	r7, sl
 8007d62:	b29b      	uxth	r3, r3
 8007d64:	ea43 4307 	orr.w	r3, r3, r7, lsl #16
 8007d68:	f84e 3b04 	str.w	r3, [lr], #4
 8007d6c:	f85c 3b04 	ldr.w	r3, [ip], #4
 8007d70:	ea4f 4a13 	mov.w	sl, r3, lsr #16
 8007d74:	f8be 3000 	ldrh.w	r3, [lr]
 8007d78:	fb09 330a 	mla	r3, r9, sl, r3
 8007d7c:	eb03 4317 	add.w	r3, r3, r7, lsr #16
 8007d80:	4562      	cmp	r2, ip
 8007d82:	ea4f 4a13 	mov.w	sl, r3, lsr #16
 8007d86:	d8e5      	bhi.n	8007d54 <__multiply+0x10c>
 8007d88:	9f01      	ldr	r7, [sp, #4]
 8007d8a:	51eb      	str	r3, [r5, r7]
 8007d8c:	3504      	adds	r5, #4
 8007d8e:	e799      	b.n	8007cc4 <__multiply+0x7c>
 8007d90:	3e01      	subs	r6, #1
 8007d92:	e79b      	b.n	8007ccc <__multiply+0x84>
 8007d94:	08009ad0 	.word	0x08009ad0
 8007d98:	08009af2 	.word	0x08009af2

08007d9c <__pow5mult>:
 8007d9c:	e92d 43f8 	stmdb	sp!, {r3, r4, r5, r6, r7, r8, r9, lr}
 8007da0:	4615      	mov	r5, r2
 8007da2:	f012 0203 	ands.w	r2, r2, #3
 8007da6:	4607      	mov	r7, r0
 8007da8:	460e      	mov	r6, r1
 8007daa:	d007      	beq.n	8007dbc <__pow5mult+0x20>
 8007dac:	4c25      	ldr	r4, [pc, #148]	@ (8007e44 <__pow5mult+0xa8>)
 8007dae:	3a01      	subs	r2, #1
 8007db0:	2300      	movs	r3, #0
 8007db2:	f854 2022 	ldr.w	r2, [r4, r2, lsl #2]
 8007db6:	f7ff fe9f 	bl	8007af8 <__multadd>
 8007dba:	4606      	mov	r6, r0
 8007dbc:	10ad      	asrs	r5, r5, #2
 8007dbe:	d03d      	beq.n	8007e3c <__pow5mult+0xa0>
 8007dc0:	69fc      	ldr	r4, [r7, #28]
 8007dc2:	b97c      	cbnz	r4, 8007de4 <__pow5mult+0x48>
 8007dc4:	2010      	movs	r0, #16
 8007dc6:	f7ff fcd3 	bl	8007770 <malloc>
 8007dca:	4602      	mov	r2, r0
 8007dcc:	61f8      	str	r0, [r7, #28]
 8007dce:	b928      	cbnz	r0, 8007ddc <__pow5mult+0x40>
 8007dd0:	4b1d      	ldr	r3, [pc, #116]	@ (8007e48 <__pow5mult+0xac>)
 8007dd2:	481e      	ldr	r0, [pc, #120]	@ (8007e4c <__pow5mult+0xb0>)
 8007dd4:	f240 11b3 	movw	r1, #435	@ 0x1b3
 8007dd8:	f000 fa9e 	bl	8008318 <__assert_func>
 8007ddc:	e9c0 4401 	strd	r4, r4, [r0, #4]
 8007de0:	6004      	str	r4, [r0, #0]
 8007de2:	60c4      	str	r4, [r0, #12]
 8007de4:	f8d7 801c 	ldr.w	r8, [r7, #28]
 8007de8:	f8d8 4008 	ldr.w	r4, [r8, #8]
 8007dec:	b94c      	cbnz	r4, 8007e02 <__pow5mult+0x66>
 8007dee:	f240 2171 	movw	r1, #625	@ 0x271
 8007df2:	4638      	mov	r0, r7
 8007df4:	f7ff ff12 	bl	8007c1c <__i2b>
 8007df8:	2300      	movs	r3, #0
 8007dfa:	f8c8 0008 	str.w	r0, [r8, #8]
 8007dfe:	4604      	mov	r4, r0
 8007e00:	6003      	str	r3, [r0, #0]
 8007e02:	f04f 0900 	mov.w	r9, #0
 8007e06:	07eb      	lsls	r3, r5, #31
 8007e08:	d50a      	bpl.n	8007e20 <__pow5mult+0x84>
 8007e0a:	4631      	mov	r1, r6
 8007e0c:	4622      	mov	r2, r4
 8007e0e:	4638      	mov	r0, r7
 8007e10:	f7ff ff1a 	bl	8007c48 <__multiply>
 8007e14:	4631      	mov	r1, r6
 8007e16:	4680      	mov	r8, r0
 8007e18:	4638      	mov	r0, r7
 8007e1a:	f7ff fe4b 	bl	8007ab4 <_Bfree>
 8007e1e:	4646      	mov	r6, r8
 8007e20:	106d      	asrs	r5, r5, #1
 8007e22:	d00b      	beq.n	8007e3c <__pow5mult+0xa0>
 8007e24:	6820      	ldr	r0, [r4, #0]
 8007e26:	b938      	cbnz	r0, 8007e38 <__pow5mult+0x9c>
 8007e28:	4622      	mov	r2, r4
 8007e2a:	4621      	mov	r1, r4
 8007e2c:	4638      	mov	r0, r7
 8007e2e:	f7ff ff0b 	bl	8007c48 <__multiply>
 8007e32:	6020      	str	r0, [r4, #0]
 8007e34:	f8c0 9000 	str.w	r9, [r0]
 8007e38:	4604      	mov	r4, r0
 8007e3a:	e7e4      	b.n	8007e06 <__pow5mult+0x6a>
 8007e3c:	4630      	mov	r0, r6
 8007e3e:	e8bd 83f8 	ldmia.w	sp!, {r3, r4, r5, r6, r7, r8, r9, pc}
 8007e42:	bf00      	nop
 8007e44:	08009b4c 	.word	0x08009b4c
 8007e48:	08009a61 	.word	0x08009a61
 8007e4c:	08009af2 	.word	0x08009af2

08007e50 <__lshift>:
 8007e50:	e92d 47f0 	stmdb	sp!, {r4, r5, r6, r7, r8, r9, sl, lr}
 8007e54:	460c      	mov	r4, r1
 8007e56:	6849      	ldr	r1, [r1, #4]
 8007e58:	6923      	ldr	r3, [r4, #16]
 8007e5a:	eb03 1862 	add.w	r8, r3, r2, asr #5
 8007e5e:	68a3      	ldr	r3, [r4, #8]
 8007e60:	4607      	mov	r7, r0
 8007e62:	4691      	mov	r9, r2
 8007e64:	ea4f 1a62 	mov.w	sl, r2, asr #5
 8007e68:	f108 0601 	add.w	r6, r8, #1
 8007e6c:	42b3      	cmp	r3, r6
 8007e6e:	db0b      	blt.n	8007e88 <__lshift+0x38>
 8007e70:	4638      	mov	r0, r7
 8007e72:	f7ff fddf 	bl	8007a34 <_Balloc>
 8007e76:	4605      	mov	r5, r0
 8007e78:	b948      	cbnz	r0, 8007e8e <__lshift+0x3e>
 8007e7a:	4602      	mov	r2, r0
 8007e7c:	4b28      	ldr	r3, [pc, #160]	@ (8007f20 <__lshift+0xd0>)
 8007e7e:	4829      	ldr	r0, [pc, #164]	@ (8007f24 <__lshift+0xd4>)
 8007e80:	f44f 71ef 	mov.w	r1, #478	@ 0x1de
 8007e84:	f000 fa48 	bl	8008318 <__assert_func>
 8007e88:	3101      	adds	r1, #1
 8007e8a:	005b      	lsls	r3, r3, #1
 8007e8c:	e7ee      	b.n	8007e6c <__lshift+0x1c>
 8007e8e:	2300      	movs	r3, #0
 8007e90:	f100 0114 	add.w	r1, r0, #20
 8007e94:	f100 0210 	add.w	r2, r0, #16
 8007e98:	4618      	mov	r0, r3
 8007e9a:	4553      	cmp	r3, sl
 8007e9c:	db33      	blt.n	8007f06 <__lshift+0xb6>
 8007e9e:	6920      	ldr	r0, [r4, #16]
 8007ea0:	ea2a 7aea 	bic.w	sl, sl, sl, asr #31
 8007ea4:	f104 0314 	add.w	r3, r4, #20
 8007ea8:	f019 091f 	ands.w	r9, r9, #31
 8007eac:	eb01 018a 	add.w	r1, r1, sl, lsl #2
 8007eb0:	eb03 0c80 	add.w	ip, r3, r0, lsl #2
 8007eb4:	d02b      	beq.n	8007f0e <__lshift+0xbe>
 8007eb6:	f1c9 0e20 	rsb	lr, r9, #32
 8007eba:	468a      	mov	sl, r1
 8007ebc:	2200      	movs	r2, #0
 8007ebe:	6818      	ldr	r0, [r3, #0]
 8007ec0:	fa00 f009 	lsl.w	r0, r0, r9
 8007ec4:	4310      	orrs	r0, r2
 8007ec6:	f84a 0b04 	str.w	r0, [sl], #4
 8007eca:	f853 2b04 	ldr.w	r2, [r3], #4
 8007ece:	459c      	cmp	ip, r3
 8007ed0:	fa22 f20e 	lsr.w	r2, r2, lr
 8007ed4:	d8f3      	bhi.n	8007ebe <__lshift+0x6e>
 8007ed6:	ebac 0304 	sub.w	r3, ip, r4
 8007eda:	3b15      	subs	r3, #21
 8007edc:	f023 0303 	bic.w	r3, r3, #3
 8007ee0:	3304      	adds	r3, #4
 8007ee2:	f104 0015 	add.w	r0, r4, #21
 8007ee6:	4584      	cmp	ip, r0
 8007ee8:	bf38      	it	cc
 8007eea:	2304      	movcc	r3, #4
 8007eec:	50ca      	str	r2, [r1, r3]
 8007eee:	b10a      	cbz	r2, 8007ef4 <__lshift+0xa4>
 8007ef0:	f108 0602 	add.w	r6, r8, #2
 8007ef4:	3e01      	subs	r6, #1
 8007ef6:	4638      	mov	r0, r7
 8007ef8:	612e      	str	r6, [r5, #16]
 8007efa:	4621      	mov	r1, r4
 8007efc:	f7ff fdda 	bl	8007ab4 <_Bfree>
 8007f00:	4628      	mov	r0, r5
 8007f02:	e8bd 87f0 	ldmia.w	sp!, {r4, r5, r6, r7, r8, r9, sl, pc}
 8007f06:	f842 0f04 	str.w	r0, [r2, #4]!
 8007f0a:	3301      	adds	r3, #1
 8007f0c:	e7c5      	b.n	8007e9a <__lshift+0x4a>
 8007f0e:	3904      	subs	r1, #4
 8007f10:	f853 2b04 	ldr.w	r2, [r3], #4
 8007f14:	f841 2f04 	str.w	r2, [r1, #4]!
 8007f18:	459c      	cmp	ip, r3
 8007f1a:	d8f9      	bhi.n	8007f10 <__lshift+0xc0>
 8007f1c:	e7ea      	b.n	8007ef4 <__lshift+0xa4>
 8007f1e:	bf00      	nop
 8007f20:	08009ad0 	.word	0x08009ad0
 8007f24:	08009af2 	.word	0x08009af2

08007f28 <__mcmp>:
 8007f28:	690a      	ldr	r2, [r1, #16]
 8007f2a:	4603      	mov	r3, r0
 8007f2c:	6900      	ldr	r0, [r0, #16]
 8007f2e:	1a80      	subs	r0, r0, r2
 8007f30:	b530      	push	{r4, r5, lr}
 8007f32:	d10e      	bne.n	8007f52 <__mcmp+0x2a>
 8007f34:	3314      	adds	r3, #20
 8007f36:	3114      	adds	r1, #20
 8007f38:	eb03 0482 	add.w	r4, r3, r2, lsl #2
 8007f3c:	eb01 0182 	add.w	r1, r1, r2, lsl #2
 8007f40:	f854 5d04 	ldr.w	r5, [r4, #-4]!
 8007f44:	f851 2d04 	ldr.w	r2, [r1, #-4]!
 8007f48:	4295      	cmp	r5, r2
 8007f4a:	d003      	beq.n	8007f54 <__mcmp+0x2c>
 8007f4c:	d205      	bcs.n	8007f5a <__mcmp+0x32>
 8007f4e:	f04f 30ff 	mov.w	r0, #4294967295	@ 0xffffffff
 8007f52:	bd30      	pop	{r4, r5, pc}
 8007f54:	42a3      	cmp	r3, r4
 8007f56:	d3f3      	bcc.n	8007f40 <__mcmp+0x18>
 8007f58:	e7fb      	b.n	8007f52 <__mcmp+0x2a>
 8007f5a:	2001      	movs	r0, #1
 8007f5c:	e7f9      	b.n	8007f52 <__mcmp+0x2a>
	...

08007f60 <__mdiff>:
 8007f60:	e92d 4ff7 	stmdb	sp!, {r0, r1, r2, r4, r5, r6, r7, r8, r9, sl, fp, lr}
 8007f64:	4689      	mov	r9, r1
 8007f66:	4606      	mov	r6, r0
 8007f68:	4611      	mov	r1, r2
 8007f6a:	4648      	mov	r0, r9
 8007f6c:	4614      	mov	r4, r2
 8007f6e:	f7ff ffdb 	bl	8007f28 <__mcmp>
 8007f72:	1e05      	subs	r5, r0, #0
 8007f74:	d112      	bne.n	8007f9c <__mdiff+0x3c>
 8007f76:	4629      	mov	r1, r5
 8007f78:	4630      	mov	r0, r6
 8007f7a:	f7ff fd5b 	bl	8007a34 <_Balloc>
 8007f7e:	4602      	mov	r2, r0
 8007f80:	b928      	cbnz	r0, 8007f8e <__mdiff+0x2e>
 8007f82:	4b3f      	ldr	r3, [pc, #252]	@ (8008080 <__mdiff+0x120>)
 8007f84:	f240 2137 	movw	r1, #567	@ 0x237
 8007f88:	483e      	ldr	r0, [pc, #248]	@ (8008084 <__mdiff+0x124>)
 8007f8a:	f000 f9c5 	bl	8008318 <__assert_func>
 8007f8e:	2301      	movs	r3, #1
 8007f90:	e9c0 3504 	strd	r3, r5, [r0, #16]
 8007f94:	4610      	mov	r0, r2
 8007f96:	b003      	add	sp, #12
 8007f98:	e8bd 8ff0 	ldmia.w	sp!, {r4, r5, r6, r7, r8, r9, sl, fp, pc}
 8007f9c:	bfbc      	itt	lt
 8007f9e:	464b      	movlt	r3, r9
 8007fa0:	46a1      	movlt	r9, r4
 8007fa2:	4630      	mov	r0, r6
 8007fa4:	f8d9 1004 	ldr.w	r1, [r9, #4]
 8007fa8:	bfba      	itte	lt
 8007faa:	461c      	movlt	r4, r3
 8007fac:	2501      	movlt	r5, #1
 8007fae:	2500      	movge	r5, #0
 8007fb0:	f7ff fd40 	bl	8007a34 <_Balloc>
 8007fb4:	4602      	mov	r2, r0
 8007fb6:	b918      	cbnz	r0, 8007fc0 <__mdiff+0x60>
 8007fb8:	4b31      	ldr	r3, [pc, #196]	@ (8008080 <__mdiff+0x120>)
 8007fba:	f240 2145 	movw	r1, #581	@ 0x245
 8007fbe:	e7e3      	b.n	8007f88 <__mdiff+0x28>
 8007fc0:	f8d9 7010 	ldr.w	r7, [r9, #16]
 8007fc4:	6926      	ldr	r6, [r4, #16]
 8007fc6:	60c5      	str	r5, [r0, #12]
 8007fc8:	f109 0310 	add.w	r3, r9, #16
 8007fcc:	f109 0514 	add.w	r5, r9, #20
 8007fd0:	f104 0e14 	add.w	lr, r4, #20
 8007fd4:	f100 0b14 	add.w	fp, r0, #20
 8007fd8:	eb05 0887 	add.w	r8, r5, r7, lsl #2
 8007fdc:	eb0e 0686 	add.w	r6, lr, r6, lsl #2
 8007fe0:	9301      	str	r3, [sp, #4]
 8007fe2:	46d9      	mov	r9, fp
 8007fe4:	f04f 0c00 	mov.w	ip, #0
 8007fe8:	9b01      	ldr	r3, [sp, #4]
 8007fea:	f85e 0b04 	ldr.w	r0, [lr], #4
 8007fee:	f853 af04 	ldr.w	sl, [r3, #4]!
 8007ff2:	9301      	str	r3, [sp, #4]
 8007ff4:	fa1f f38a 	uxth.w	r3, sl
 8007ff8:	4619      	mov	r1, r3
 8007ffa:	b283      	uxth	r3, r0
 8007ffc:	1acb      	subs	r3, r1, r3
 8007ffe:	0c00      	lsrs	r0, r0, #16
 8008000:	4463      	add	r3, ip
 8008002:	ebc0 401a 	rsb	r0, r0, sl, lsr #16
 8008006:	eb00 4023 	add.w	r0, r0, r3, asr #16
 800800a:	b29b      	uxth	r3, r3
 800800c:	ea43 4300 	orr.w	r3, r3, r0, lsl #16
 8008010:	4576      	cmp	r6, lr
 8008012:	f849 3b04 	str.w	r3, [r9], #4
 8008016:	ea4f 4c20 	mov.w	ip, r0, asr #16
 800801a:	d8e5      	bhi.n	8007fe8 <__mdiff+0x88>
 800801c:	1b33      	subs	r3, r6, r4
 800801e:	3b15      	subs	r3, #21
 8008020:	f023 0303 	bic.w	r3, r3, #3
 8008024:	3415      	adds	r4, #21
 8008026:	3304      	adds	r3, #4
 8008028:	42a6      	cmp	r6, r4
 800802a:	bf38      	it	cc
 800802c:	2304      	movcc	r3, #4
 800802e:	441d      	add	r5, r3
 8008030:	445b      	add	r3, fp
 8008032:	461e      	mov	r6, r3
 8008034:	462c      	mov	r4, r5
 8008036:	4544      	cmp	r4, r8
 8008038:	d30e      	bcc.n	8008058 <__mdiff+0xf8>
 800803a:	f108 0103 	add.w	r1, r8, #3
 800803e:	1b49      	subs	r1, r1, r5
 8008040:	f021 0103 	bic.w	r1, r1, #3
 8008044:	3d03      	subs	r5, #3
 8008046:	45a8      	cmp	r8, r5
 8008048:	bf38      	it	cc
 800804a:	2100      	movcc	r1, #0
 800804c:	440b      	add	r3, r1
 800804e:	f853 1d04 	ldr.w	r1, [r3, #-4]!
 8008052:	b191      	cbz	r1, 800807a <__mdiff+0x11a>
 8008054:	6117      	str	r7, [r2, #16]
 8008056:	e79d      	b.n	8007f94 <__mdiff+0x34>
 8008058:	f854 1b04 	ldr.w	r1, [r4], #4
 800805c:	46e6      	mov	lr, ip
 800805e:	0c08      	lsrs	r0, r1, #16
 8008060:	fa1c fc81 	uxtah	ip, ip, r1
 8008064:	4471      	add	r1, lr
 8008066:	eb00 402c 	add.w	r0, r0, ip, asr #16
 800806a:	b289      	uxth	r1, r1
 800806c:	ea41 4100 	orr.w	r1, r1, r0, lsl #16
 8008070:	f846 1b04 	str.w	r1, [r6], #4
 8008074:	ea4f 4c20 	mov.w	ip, r0, asr #16
 8008078:	e7dd      	b.n	8008036 <__mdiff+0xd6>
 800807a:	3f01      	subs	r7, #1
 800807c:	e7e7      	b.n	800804e <__mdiff+0xee>
 800807e:	bf00      	nop
 8008080:	08009ad0 	.word	0x08009ad0
 8008084:	08009af2 	.word	0x08009af2

08008088 <__d2b>:
 8008088:	e92d 43f7 	stmdb	sp!, {r0, r1, r2, r4, r5, r6, r7, r8, r9, lr}
 800808c:	460f      	mov	r7, r1
 800808e:	2101      	movs	r1, #1
 8008090:	ec59 8b10 	vmov	r8, r9, d0
 8008094:	4616      	mov	r6, r2
 8008096:	f7ff fccd 	bl	8007a34 <_Balloc>
 800809a:	4604      	mov	r4, r0
 800809c:	b930      	cbnz	r0, 80080ac <__d2b+0x24>
 800809e:	4602      	mov	r2, r0
 80080a0:	4b23      	ldr	r3, [pc, #140]	@ (8008130 <__d2b+0xa8>)
 80080a2:	4824      	ldr	r0, [pc, #144]	@ (8008134 <__d2b+0xac>)
 80080a4:	f240 310f 	movw	r1, #783	@ 0x30f
 80080a8:	f000 f936 	bl	8008318 <__assert_func>
 80080ac:	f3c9 550a 	ubfx	r5, r9, #20, #11
 80080b0:	f3c9 0313 	ubfx	r3, r9, #0, #20
 80080b4:	b10d      	cbz	r5, 80080ba <__d2b+0x32>
 80080b6:	f443 1380 	orr.w	r3, r3, #1048576	@ 0x100000
 80080ba:	9301      	str	r3, [sp, #4]
 80080bc:	f1b8 0300 	subs.w	r3, r8, #0
 80080c0:	d023      	beq.n	800810a <__d2b+0x82>
 80080c2:	4668      	mov	r0, sp
 80080c4:	9300      	str	r3, [sp, #0]
 80080c6:	f7ff fd7c 	bl	8007bc2 <__lo0bits>
 80080ca:	e9dd 1200 	ldrd	r1, r2, [sp]
 80080ce:	b1d0      	cbz	r0, 8008106 <__d2b+0x7e>
 80080d0:	f1c0 0320 	rsb	r3, r0, #32
 80080d4:	fa02 f303 	lsl.w	r3, r2, r3
 80080d8:	430b      	orrs	r3, r1
 80080da:	40c2      	lsrs	r2, r0
 80080dc:	6163      	str	r3, [r4, #20]
 80080de:	9201      	str	r2, [sp, #4]
 80080e0:	9b01      	ldr	r3, [sp, #4]
 80080e2:	61a3      	str	r3, [r4, #24]
 80080e4:	2b00      	cmp	r3, #0
 80080e6:	bf0c      	ite	eq
 80080e8:	2201      	moveq	r2, #1
 80080ea:	2202      	movne	r2, #2
 80080ec:	6122      	str	r2, [r4, #16]
 80080ee:	b1a5      	cbz	r5, 800811a <__d2b+0x92>
 80080f0:	f2a5 4533 	subw	r5, r5, #1075	@ 0x433
 80080f4:	4405      	add	r5, r0
 80080f6:	603d      	str	r5, [r7, #0]
 80080f8:	f1c0 0035 	rsb	r0, r0, #53	@ 0x35
 80080fc:	6030      	str	r0, [r6, #0]
 80080fe:	4620      	mov	r0, r4
 8008100:	b003      	add	sp, #12
 8008102:	e8bd 83f0 	ldmia.w	sp!, {r4, r5, r6, r7, r8, r9, pc}
 8008106:	6161      	str	r1, [r4, #20]
 8008108:	e7ea      	b.n	80080e0 <__d2b+0x58>
 800810a:	a801      	add	r0, sp, #4
 800810c:	f7ff fd59 	bl	8007bc2 <__lo0bits>
 8008110:	9b01      	ldr	r3, [sp, #4]
 8008112:	6163      	str	r3, [r4, #20]
 8008114:	3020      	adds	r0, #32
 8008116:	2201      	movs	r2, #1
 8008118:	e7e8      	b.n	80080ec <__d2b+0x64>
 800811a:	eb04 0382 	add.w	r3, r4, r2, lsl #2
 800811e:	f2a0 4032 	subw	r0, r0, #1074	@ 0x432
 8008122:	6038      	str	r0, [r7, #0]
 8008124:	6918      	ldr	r0, [r3, #16]
 8008126:	f7ff fd2d 	bl	8007b84 <__hi0bits>
 800812a:	ebc0 1042 	rsb	r0, r0, r2, lsl #5
 800812e:	e7e5      	b.n	80080fc <__d2b+0x74>
 8008130:	08009ad0 	.word	0x08009ad0
 8008134:	08009af2 	.word	0x08009af2

08008138 <__sread>:
 8008138:	b510      	push	{r4, lr}
 800813a:	460c      	mov	r4, r1
 800813c:	f9b1 100e 	ldrsh.w	r1, [r1, #14]
 8008140:	f000 f8a8 	bl	8008294 <_read_r>
 8008144:	2800      	cmp	r0, #0
 8008146:	bfab      	itete	ge
 8008148:	6d63      	ldrge	r3, [r4, #84]	@ 0x54
 800814a:	89a3      	ldrhlt	r3, [r4, #12]
 800814c:	181b      	addge	r3, r3, r0
 800814e:	f423 5380 	biclt.w	r3, r3, #4096	@ 0x1000
 8008152:	bfac      	ite	ge
 8008154:	6563      	strge	r3, [r4, #84]	@ 0x54
 8008156:	81a3      	strhlt	r3, [r4, #12]
 8008158:	bd10      	pop	{r4, pc}

0800815a <__swrite>:
 800815a:	e92d 41f0 	stmdb	sp!, {r4, r5, r6, r7, r8, lr}
 800815e:	461f      	mov	r7, r3
 8008160:	898b      	ldrh	r3, [r1, #12]
 8008162:	05db      	lsls	r3, r3, #23
 8008164:	4605      	mov	r5, r0
 8008166:	460c      	mov	r4, r1
 8008168:	4616      	mov	r6, r2
 800816a:	d505      	bpl.n	8008178 <__swrite+0x1e>
 800816c:	f9b1 100e 	ldrsh.w	r1, [r1, #14]
 8008170:	2302      	movs	r3, #2
 8008172:	2200      	movs	r2, #0
 8008174:	f000 f87c 	bl	8008270 <_lseek_r>
 8008178:	89a3      	ldrh	r3, [r4, #12]
 800817a:	f9b4 100e 	ldrsh.w	r1, [r4, #14]
 800817e:	f423 5380 	bic.w	r3, r3, #4096	@ 0x1000
 8008182:	81a3      	strh	r3, [r4, #12]
 8008184:	4632      	mov	r2, r6
 8008186:	463b      	mov	r3, r7
 8008188:	4628      	mov	r0, r5
 800818a:	e8bd 41f0 	ldmia.w	sp!, {r4, r5, r6, r7, r8, lr}
 800818e:	f000 b8a3 	b.w	80082d8 <_write_r>

08008192 <__sseek>:
 8008192:	b510      	push	{r4, lr}
 8008194:	460c      	mov	r4, r1
 8008196:	f9b1 100e 	ldrsh.w	r1, [r1, #14]
 800819a:	f000 f869 	bl	8008270 <_lseek_r>
 800819e:	1c43      	adds	r3, r0, #1
 80081a0:	89a3      	ldrh	r3, [r4, #12]
 80081a2:	bf15      	itete	ne
 80081a4:	6560      	strne	r0, [r4, #84]	@ 0x54
 80081a6:	f423 5380 	biceq.w	r3, r3, #4096	@ 0x1000
 80081aa:	f443 5380 	orrne.w	r3, r3, #4096	@ 0x1000
 80081ae:	81a3      	strheq	r3, [r4, #12]
 80081b0:	bf18      	it	ne
 80081b2:	81a3      	strhne	r3, [r4, #12]
 80081b4:	bd10      	pop	{r4, pc}

080081b6 <__sclose>:
 80081b6:	f9b1 100e 	ldrsh.w	r1, [r1, #14]
 80081ba:	f000 b849 	b.w	8008250 <_close_r>

080081be <_realloc_r>:
 80081be:	e92d 41f0 	stmdb	sp!, {r4, r5, r6, r7, r8, lr}
 80081c2:	4680      	mov	r8, r0
 80081c4:	4615      	mov	r5, r2
 80081c6:	460c      	mov	r4, r1
 80081c8:	b921      	cbnz	r1, 80081d4 <_realloc_r+0x16>
 80081ca:	e8bd 41f0 	ldmia.w	sp!, {r4, r5, r6, r7, r8, lr}
 80081ce:	4611      	mov	r1, r2
 80081d0:	f7ff baf8 	b.w	80077c4 <_malloc_r>
 80081d4:	b92a      	cbnz	r2, 80081e2 <_realloc_r+0x24>
 80081d6:	f000 f8d1 	bl	800837c <_free_r>
 80081da:	2400      	movs	r4, #0
 80081dc:	4620      	mov	r0, r4
 80081de:	e8bd 81f0 	ldmia.w	sp!, {r4, r5, r6, r7, r8, pc}
 80081e2:	f000 f927 	bl	8008434 <_malloc_usable_size_r>
 80081e6:	4285      	cmp	r5, r0
 80081e8:	4606      	mov	r6, r0
 80081ea:	d802      	bhi.n	80081f2 <_realloc_r+0x34>
 80081ec:	ebb5 0f50 	cmp.w	r5, r0, lsr #1
 80081f0:	d8f4      	bhi.n	80081dc <_realloc_r+0x1e>
 80081f2:	4629      	mov	r1, r5
 80081f4:	4640      	mov	r0, r8
 80081f6:	f7ff fae5 	bl	80077c4 <_malloc_r>
 80081fa:	4607      	mov	r7, r0
 80081fc:	2800      	cmp	r0, #0
 80081fe:	d0ec      	beq.n	80081da <_realloc_r+0x1c>
 8008200:	42b5      	cmp	r5, r6
 8008202:	462a      	mov	r2, r5
 8008204:	4621      	mov	r1, r4
 8008206:	bf28      	it	cs
 8008208:	4632      	movcs	r2, r6
 800820a:	f000 f877 	bl	80082fc <memcpy>
 800820e:	4621      	mov	r1, r4
 8008210:	4640      	mov	r0, r8
 8008212:	f000 f8b3 	bl	800837c <_free_r>
 8008216:	463c      	mov	r4, r7
 8008218:	e7e0      	b.n	80081dc <_realloc_r+0x1e>

0800821a <memmove>:
 800821a:	4288      	cmp	r0, r1
 800821c:	b510      	push	{r4, lr}
 800821e:	eb01 0402 	add.w	r4, r1, r2
 8008222:	d902      	bls.n	800822a <memmove+0x10>
 8008224:	4284      	cmp	r4, r0
 8008226:	4623      	mov	r3, r4
 8008228:	d807      	bhi.n	800823a <memmove+0x20>
 800822a:	1e43      	subs	r3, r0, #1
 800822c:	42a1      	cmp	r1, r4
 800822e:	d008      	beq.n	8008242 <memmove+0x28>
 8008230:	f811 2b01 	ldrb.w	r2, [r1], #1
 8008234:	f803 2f01 	strb.w	r2, [r3, #1]!
 8008238:	e7f8      	b.n	800822c <memmove+0x12>
 800823a:	4402      	add	r2, r0
 800823c:	4601      	mov	r1, r0
 800823e:	428a      	cmp	r2, r1
 8008240:	d100      	bne.n	8008244 <memmove+0x2a>
 8008242:	bd10      	pop	{r4, pc}
 8008244:	f813 4d01 	ldrb.w	r4, [r3, #-1]!
 8008248:	f802 4d01 	strb.w	r4, [r2, #-1]!
 800824c:	e7f7      	b.n	800823e <memmove+0x24>
	...

08008250 <_close_r>:
 8008250:	b538      	push	{r3, r4, r5, lr}
 8008252:	4d06      	ldr	r5, [pc, #24]	@ (800826c <_close_r+0x1c>)
 8008254:	2300      	movs	r3, #0
 8008256:	4604      	mov	r4, r0
 8008258:	4608      	mov	r0, r1
 800825a:	602b      	str	r3, [r5, #0]
 800825c:	f7fa faa8 	bl	80027b0 <_close>
 8008260:	1c43      	adds	r3, r0, #1
 8008262:	d102      	bne.n	800826a <_close_r+0x1a>
 8008264:	682b      	ldr	r3, [r5, #0]
 8008266:	b103      	cbz	r3, 800826a <_close_r+0x1a>
 8008268:	6023      	str	r3, [r4, #0]
 800826a:	bd38      	pop	{r3, r4, r5, pc}
 800826c:	200004cc 	.word	0x200004cc

08008270 <_lseek_r>:
 8008270:	b538      	push	{r3, r4, r5, lr}
 8008272:	4d07      	ldr	r5, [pc, #28]	@ (8008290 <_lseek_r+0x20>)
 8008274:	4604      	mov	r4, r0
 8008276:	4608      	mov	r0, r1
 8008278:	4611      	mov	r1, r2
 800827a:	2200      	movs	r2, #0
 800827c:	602a      	str	r2, [r5, #0]
 800827e:	461a      	mov	r2, r3
 8008280:	f7fa fabd 	bl	80027fe <_lseek>
 8008284:	1c43      	adds	r3, r0, #1
 8008286:	d102      	bne.n	800828e <_lseek_r+0x1e>
 8008288:	682b      	ldr	r3, [r5, #0]
 800828a:	b103      	cbz	r3, 800828e <_lseek_r+0x1e>
 800828c:	6023      	str	r3, [r4, #0]
 800828e:	bd38      	pop	{r3, r4, r5, pc}
 8008290:	200004cc 	.word	0x200004cc

08008294 <_read_r>:
 8008294:	b538      	push	{r3, r4, r5, lr}
 8008296:	4d07      	ldr	r5, [pc, #28]	@ (80082b4 <_read_r+0x20>)
 8008298:	4604      	mov	r4, r0
 800829a:	4608      	mov	r0, r1
 800829c:	4611      	mov	r1, r2
 800829e:	2200      	movs	r2, #0
 80082a0:	602a      	str	r2, [r5, #0]
 80082a2:	461a      	mov	r2, r3
 80082a4:	f7fa fa4b 	bl	800273e <_read>
 80082a8:	1c43      	adds	r3, r0, #1
 80082aa:	d102      	bne.n	80082b2 <_read_r+0x1e>
 80082ac:	682b      	ldr	r3, [r5, #0]
 80082ae:	b103      	cbz	r3, 80082b2 <_read_r+0x1e>
 80082b0:	6023      	str	r3, [r4, #0]
 80082b2:	bd38      	pop	{r3, r4, r5, pc}
 80082b4:	200004cc 	.word	0x200004cc

080082b8 <_sbrk_r>:
 80082b8:	b538      	push	{r3, r4, r5, lr}
 80082ba:	4d06      	ldr	r5, [pc, #24]	@ (80082d4 <_sbrk_r+0x1c>)
 80082bc:	2300      	movs	r3, #0
 80082be:	4604      	mov	r4, r0
 80082c0:	4608      	mov	r0, r1
 80082c2:	602b      	str	r3, [r5, #0]
 80082c4:	f7fa faa8 	bl	8002818 <_sbrk>
 80082c8:	1c43      	adds	r3, r0, #1
 80082ca:	d102      	bne.n	80082d2 <_sbrk_r+0x1a>
 80082cc:	682b      	ldr	r3, [r5, #0]
 80082ce:	b103      	cbz	r3, 80082d2 <_sbrk_r+0x1a>
 80082d0:	6023      	str	r3, [r4, #0]
 80082d2:	bd38      	pop	{r3, r4, r5, pc}
 80082d4:	200004cc 	.word	0x200004cc

080082d8 <_write_r>:
 80082d8:	b538      	push	{r3, r4, r5, lr}
 80082da:	4d07      	ldr	r5, [pc, #28]	@ (80082f8 <_write_r+0x20>)
 80082dc:	4604      	mov	r4, r0
 80082de:	4608      	mov	r0, r1
 80082e0:	4611      	mov	r1, r2
 80082e2:	2200      	movs	r2, #0
 80082e4:	602a      	str	r2, [r5, #0]
 80082e6:	461a      	mov	r2, r3
 80082e8:	f7fa fa46 	bl	8002778 <_write>
 80082ec:	1c43      	adds	r3, r0, #1
 80082ee:	d102      	bne.n	80082f6 <_write_r+0x1e>
 80082f0:	682b      	ldr	r3, [r5, #0]
 80082f2:	b103      	cbz	r3, 80082f6 <_write_r+0x1e>
 80082f4:	6023      	str	r3, [r4, #0]
 80082f6:	bd38      	pop	{r3, r4, r5, pc}
 80082f8:	200004cc 	.word	0x200004cc

080082fc <memcpy>:
 80082fc:	440a      	add	r2, r1
 80082fe:	4291      	cmp	r1, r2
 8008300:	f100 33ff 	add.w	r3, r0, #4294967295	@ 0xffffffff
 8008304:	d100      	bne.n	8008308 <memcpy+0xc>
 8008306:	4770      	bx	lr
 8008308:	b510      	push	{r4, lr}
 800830a:	f811 4b01 	ldrb.w	r4, [r1], #1
 800830e:	f803 4f01 	strb.w	r4, [r3, #1]!
 8008312:	4291      	cmp	r1, r2
 8008314:	d1f9      	bne.n	800830a <memcpy+0xe>
 8008316:	bd10      	pop	{r4, pc}

08008318 <__assert_func>:
 8008318:	b51f      	push	{r0, r1, r2, r3, r4, lr}
 800831a:	4614      	mov	r4, r2
 800831c:	461a      	mov	r2, r3
 800831e:	4b09      	ldr	r3, [pc, #36]	@ (8008344 <__assert_func+0x2c>)
 8008320:	681b      	ldr	r3, [r3, #0]
 8008322:	4605      	mov	r5, r0
 8008324:	68d8      	ldr	r0, [r3, #12]
 8008326:	b954      	cbnz	r4, 800833e <__assert_func+0x26>
 8008328:	4b07      	ldr	r3, [pc, #28]	@ (8008348 <__assert_func+0x30>)
 800832a:	461c      	mov	r4, r3
 800832c:	e9cd 3401 	strd	r3, r4, [sp, #4]
 8008330:	9100      	str	r1, [sp, #0]
 8008332:	462b      	mov	r3, r5
 8008334:	4905      	ldr	r1, [pc, #20]	@ (800834c <__assert_func+0x34>)
 8008336:	f000 f885 	bl	8008444 <fiprintf>
 800833a:	f000 f8a2 	bl	8008482 <abort>
 800833e:	4b04      	ldr	r3, [pc, #16]	@ (8008350 <__assert_func+0x38>)
 8008340:	e7f4      	b.n	800832c <__assert_func+0x14>
 8008342:	bf00      	nop
 8008344:	20000018 	.word	0x20000018
 8008348:	08009d8e 	.word	0x08009d8e
 800834c:	08009d60 	.word	0x08009d60
 8008350:	08009d53 	.word	0x08009d53

08008354 <_calloc_r>:
 8008354:	b570      	push	{r4, r5, r6, lr}
 8008356:	fba1 5402 	umull	r5, r4, r1, r2
 800835a:	b93c      	cbnz	r4, 800836c <_calloc_r+0x18>
 800835c:	4629      	mov	r1, r5
 800835e:	f7ff fa31 	bl	80077c4 <_malloc_r>
 8008362:	4606      	mov	r6, r0
 8008364:	b928      	cbnz	r0, 8008372 <_calloc_r+0x1e>
 8008366:	2600      	movs	r6, #0
 8008368:	4630      	mov	r0, r6
 800836a:	bd70      	pop	{r4, r5, r6, pc}
 800836c:	220c      	movs	r2, #12
 800836e:	6002      	str	r2, [r0, #0]
 8008370:	e7f9      	b.n	8008366 <_calloc_r+0x12>
 8008372:	462a      	mov	r2, r5
 8008374:	4621      	mov	r1, r4
 8008376:	f7fe fa1b 	bl	80067b0 <memset>
 800837a:	e7f5      	b.n	8008368 <_calloc_r+0x14>

0800837c <_free_r>:
 800837c:	b538      	push	{r3, r4, r5, lr}
 800837e:	4605      	mov	r5, r0
 8008380:	2900      	cmp	r1, #0
 8008382:	d041      	beq.n	8008408 <_free_r+0x8c>
 8008384:	f851 3c04 	ldr.w	r3, [r1, #-4]
 8008388:	1f0c      	subs	r4, r1, #4
 800838a:	2b00      	cmp	r3, #0
 800838c:	bfb8      	it	lt
 800838e:	18e4      	addlt	r4, r4, r3
 8008390:	f7ff fb44 	bl	8007a1c <__malloc_lock>
 8008394:	4a1d      	ldr	r2, [pc, #116]	@ (800840c <_free_r+0x90>)
 8008396:	6813      	ldr	r3, [r2, #0]
 8008398:	b933      	cbnz	r3, 80083a8 <_free_r+0x2c>
 800839a:	6063      	str	r3, [r4, #4]
 800839c:	6014      	str	r4, [r2, #0]
 800839e:	4628      	mov	r0, r5
 80083a0:	e8bd 4038 	ldmia.w	sp!, {r3, r4, r5, lr}
 80083a4:	f7ff bb40 	b.w	8007a28 <__malloc_unlock>
 80083a8:	42a3      	cmp	r3, r4
 80083aa:	d908      	bls.n	80083be <_free_r+0x42>
 80083ac:	6820      	ldr	r0, [r4, #0]
 80083ae:	1821      	adds	r1, r4, r0
 80083b0:	428b      	cmp	r3, r1
 80083b2:	bf01      	itttt	eq
 80083b4:	6819      	ldreq	r1, [r3, #0]
 80083b6:	685b      	ldreq	r3, [r3, #4]
 80083b8:	1809      	addeq	r1, r1, r0
 80083ba:	6021      	streq	r1, [r4, #0]
 80083bc:	e7ed      	b.n	800839a <_free_r+0x1e>
 80083be:	461a      	mov	r2, r3
 80083c0:	685b      	ldr	r3, [r3, #4]
 80083c2:	b10b      	cbz	r3, 80083c8 <_free_r+0x4c>
 80083c4:	42a3      	cmp	r3, r4
 80083c6:	d9fa      	bls.n	80083be <_free_r+0x42>
 80083c8:	6811      	ldr	r1, [r2, #0]
 80083ca:	1850      	adds	r0, r2, r1
 80083cc:	42a0      	cmp	r0, r4
 80083ce:	d10b      	bne.n	80083e8 <_free_r+0x6c>
 80083d0:	6820      	ldr	r0, [r4, #0]
 80083d2:	4401      	add	r1, r0
 80083d4:	1850      	adds	r0, r2, r1
 80083d6:	4283      	cmp	r3, r0
 80083d8:	6011      	str	r1, [r2, #0]
 80083da:	d1e0      	bne.n	800839e <_free_r+0x22>
 80083dc:	6818      	ldr	r0, [r3, #0]
 80083de:	685b      	ldr	r3, [r3, #4]
 80083e0:	6053      	str	r3, [r2, #4]
 80083e2:	4408      	add	r0, r1
 80083e4:	6010      	str	r0, [r2, #0]
 80083e6:	e7da      	b.n	800839e <_free_r+0x22>
 80083e8:	d902      	bls.n	80083f0 <_free_r+0x74>
 80083ea:	230c      	movs	r3, #12
 80083ec:	602b      	str	r3, [r5, #0]
 80083ee:	e7d6      	b.n	800839e <_free_r+0x22>
 80083f0:	6820      	ldr	r0, [r4, #0]
 80083f2:	1821      	adds	r1, r4, r0
 80083f4:	428b      	cmp	r3, r1
 80083f6:	bf04      	itt	eq
 80083f8:	6819      	ldreq	r1, [r3, #0]
 80083fa:	685b      	ldreq	r3, [r3, #4]
 80083fc:	6063      	str	r3, [r4, #4]
 80083fe:	bf04      	itt	eq
 8008400:	1809      	addeq	r1, r1, r0
 8008402:	6021      	streq	r1, [r4, #0]
 8008404:	6054      	str	r4, [r2, #4]
 8008406:	e7ca      	b.n	800839e <_free_r+0x22>
 8008408:	bd38      	pop	{r3, r4, r5, pc}
 800840a:	bf00      	nop
 800840c:	200004c8 	.word	0x200004c8

08008410 <__ascii_mbtowc>:
 8008410:	b082      	sub	sp, #8
 8008412:	b901      	cbnz	r1, 8008416 <__ascii_mbtowc+0x6>
 8008414:	a901      	add	r1, sp, #4
 8008416:	b142      	cbz	r2, 800842a <__ascii_mbtowc+0x1a>
 8008418:	b14b      	cbz	r3, 800842e <__ascii_mbtowc+0x1e>
 800841a:	7813      	ldrb	r3, [r2, #0]
 800841c:	600b      	str	r3, [r1, #0]
 800841e:	7812      	ldrb	r2, [r2, #0]
 8008420:	1e10      	subs	r0, r2, #0
 8008422:	bf18      	it	ne
 8008424:	2001      	movne	r0, #1
 8008426:	b002      	add	sp, #8
 8008428:	4770      	bx	lr
 800842a:	4610      	mov	r0, r2
 800842c:	e7fb      	b.n	8008426 <__ascii_mbtowc+0x16>
 800842e:	f06f 0001 	mvn.w	r0, #1
 8008432:	e7f8      	b.n	8008426 <__ascii_mbtowc+0x16>

08008434 <_malloc_usable_size_r>:
 8008434:	f851 3c04 	ldr.w	r3, [r1, #-4]
 8008438:	1f18      	subs	r0, r3, #4
 800843a:	2b00      	cmp	r3, #0
 800843c:	bfbc      	itt	lt
 800843e:	580b      	ldrlt	r3, [r1, r0]
 8008440:	18c0      	addlt	r0, r0, r3
 8008442:	4770      	bx	lr

08008444 <fiprintf>:
 8008444:	b40e      	push	{r1, r2, r3}
 8008446:	b503      	push	{r0, r1, lr}
 8008448:	4601      	mov	r1, r0
 800844a:	ab03      	add	r3, sp, #12
 800844c:	4805      	ldr	r0, [pc, #20]	@ (8008464 <fiprintf+0x20>)
 800844e:	f853 2b04 	ldr.w	r2, [r3], #4
 8008452:	6800      	ldr	r0, [r0, #0]
 8008454:	9301      	str	r3, [sp, #4]
 8008456:	f000 f845 	bl	80084e4 <_vfiprintf_r>
 800845a:	b002      	add	sp, #8
 800845c:	f85d eb04 	ldr.w	lr, [sp], #4
 8008460:	b003      	add	sp, #12
 8008462:	4770      	bx	lr
 8008464:	20000018 	.word	0x20000018

08008468 <__ascii_wctomb>:
 8008468:	4603      	mov	r3, r0
 800846a:	4608      	mov	r0, r1
 800846c:	b141      	cbz	r1, 8008480 <__ascii_wctomb+0x18>
 800846e:	2aff      	cmp	r2, #255	@ 0xff
 8008470:	d904      	bls.n	800847c <__ascii_wctomb+0x14>
 8008472:	228a      	movs	r2, #138	@ 0x8a
 8008474:	601a      	str	r2, [r3, #0]
 8008476:	f04f 30ff 	mov.w	r0, #4294967295	@ 0xffffffff
 800847a:	4770      	bx	lr
 800847c:	700a      	strb	r2, [r1, #0]
 800847e:	2001      	movs	r0, #1
 8008480:	4770      	bx	lr

08008482 <abort>:
 8008482:	b508      	push	{r3, lr}
 8008484:	2006      	movs	r0, #6
 8008486:	f000 fa85 	bl	8008994 <raise>
 800848a:	2001      	movs	r0, #1
 800848c:	f7fa f94c 	bl	8002728 <_exit>

08008490 <__sfputc_r>:
 8008490:	6893      	ldr	r3, [r2, #8]
 8008492:	3b01      	subs	r3, #1
 8008494:	2b00      	cmp	r3, #0
 8008496:	b410      	push	{r4}
 8008498:	6093      	str	r3, [r2, #8]
 800849a:	da08      	bge.n	80084ae <__sfputc_r+0x1e>
 800849c:	6994      	ldr	r4, [r2, #24]
 800849e:	42a3      	cmp	r3, r4
 80084a0:	db01      	blt.n	80084a6 <__sfputc_r+0x16>
 80084a2:	290a      	cmp	r1, #10
 80084a4:	d103      	bne.n	80084ae <__sfputc_r+0x1e>
 80084a6:	f85d 4b04 	ldr.w	r4, [sp], #4
 80084aa:	f000 b933 	b.w	8008714 <__swbuf_r>
 80084ae:	6813      	ldr	r3, [r2, #0]
 80084b0:	1c58      	adds	r0, r3, #1
 80084b2:	6010      	str	r0, [r2, #0]
 80084b4:	7019      	strb	r1, [r3, #0]
 80084b6:	4608      	mov	r0, r1
 80084b8:	f85d 4b04 	ldr.w	r4, [sp], #4
 80084bc:	4770      	bx	lr

080084be <__sfputs_r>:
 80084be:	b5f8      	push	{r3, r4, r5, r6, r7, lr}
 80084c0:	4606      	mov	r6, r0
 80084c2:	460f      	mov	r7, r1
 80084c4:	4614      	mov	r4, r2
 80084c6:	18d5      	adds	r5, r2, r3
 80084c8:	42ac      	cmp	r4, r5
 80084ca:	d101      	bne.n	80084d0 <__sfputs_r+0x12>
 80084cc:	2000      	movs	r0, #0
 80084ce:	e007      	b.n	80084e0 <__sfputs_r+0x22>
 80084d0:	f814 1b01 	ldrb.w	r1, [r4], #1
 80084d4:	463a      	mov	r2, r7
 80084d6:	4630      	mov	r0, r6
 80084d8:	f7ff ffda 	bl	8008490 <__sfputc_r>
 80084dc:	1c43      	adds	r3, r0, #1
 80084de:	d1f3      	bne.n	80084c8 <__sfputs_r+0xa>
 80084e0:	bdf8      	pop	{r3, r4, r5, r6, r7, pc}
	...

080084e4 <_vfiprintf_r>:
 80084e4:	e92d 4ff0 	stmdb	sp!, {r4, r5, r6, r7, r8, r9, sl, fp, lr}
 80084e8:	460d      	mov	r5, r1
 80084ea:	b09d      	sub	sp, #116	@ 0x74
 80084ec:	4614      	mov	r4, r2
 80084ee:	4698      	mov	r8, r3
 80084f0:	4606      	mov	r6, r0
 80084f2:	b118      	cbz	r0, 80084fc <_vfiprintf_r+0x18>
 80084f4:	6a03      	ldr	r3, [r0, #32]
 80084f6:	b90b      	cbnz	r3, 80084fc <_vfiprintf_r+0x18>
 80084f8:	f7fe f924 	bl	8006744 <__sinit>
 80084fc:	6e6b      	ldr	r3, [r5, #100]	@ 0x64
 80084fe:	07d9      	lsls	r1, r3, #31
 8008500:	d405      	bmi.n	800850e <_vfiprintf_r+0x2a>
 8008502:	89ab      	ldrh	r3, [r5, #12]
 8008504:	059a      	lsls	r2, r3, #22
 8008506:	d402      	bmi.n	800850e <_vfiprintf_r+0x2a>
 8008508:	6da8      	ldr	r0, [r5, #88]	@ 0x58
 800850a:	f7fe f988 	bl	800681e <__retarget_lock_acquire_recursive>
 800850e:	89ab      	ldrh	r3, [r5, #12]
 8008510:	071b      	lsls	r3, r3, #28
 8008512:	d501      	bpl.n	8008518 <_vfiprintf_r+0x34>
 8008514:	692b      	ldr	r3, [r5, #16]
 8008516:	b99b      	cbnz	r3, 8008540 <_vfiprintf_r+0x5c>
 8008518:	4629      	mov	r1, r5
 800851a:	4630      	mov	r0, r6
 800851c:	f000 f938 	bl	8008790 <__swsetup_r>
 8008520:	b170      	cbz	r0, 8008540 <_vfiprintf_r+0x5c>
 8008522:	6e6b      	ldr	r3, [r5, #100]	@ 0x64
 8008524:	07dc      	lsls	r4, r3, #31
 8008526:	d504      	bpl.n	8008532 <_vfiprintf_r+0x4e>
 8008528:	f04f 30ff 	mov.w	r0, #4294967295	@ 0xffffffff
 800852c:	b01d      	add	sp, #116	@ 0x74
 800852e:	e8bd 8ff0 	ldmia.w	sp!, {r4, r5, r6, r7, r8, r9, sl, fp, pc}
 8008532:	89ab      	ldrh	r3, [r5, #12]
 8008534:	0598      	lsls	r0, r3, #22
 8008536:	d4f7      	bmi.n	8008528 <_vfiprintf_r+0x44>
 8008538:	6da8      	ldr	r0, [r5, #88]	@ 0x58
 800853a:	f7fe f971 	bl	8006820 <__retarget_lock_release_recursive>
 800853e:	e7f3      	b.n	8008528 <_vfiprintf_r+0x44>
 8008540:	2300      	movs	r3, #0
 8008542:	9309      	str	r3, [sp, #36]	@ 0x24
 8008544:	2320      	movs	r3, #32
 8008546:	f88d 3029 	strb.w	r3, [sp, #41]	@ 0x29
 800854a:	f8cd 800c 	str.w	r8, [sp, #12]
 800854e:	2330      	movs	r3, #48	@ 0x30
 8008550:	f8df 81ac 	ldr.w	r8, [pc, #428]	@ 8008700 <_vfiprintf_r+0x21c>
 8008554:	f88d 302a 	strb.w	r3, [sp, #42]	@ 0x2a
 8008558:	f04f 0901 	mov.w	r9, #1
 800855c:	4623      	mov	r3, r4
 800855e:	469a      	mov	sl, r3
 8008560:	f813 2b01 	ldrb.w	r2, [r3], #1
 8008564:	b10a      	cbz	r2, 800856a <_vfiprintf_r+0x86>
 8008566:	2a25      	cmp	r2, #37	@ 0x25
 8008568:	d1f9      	bne.n	800855e <_vfiprintf_r+0x7a>
 800856a:	ebba 0b04 	subs.w	fp, sl, r4
 800856e:	d00b      	beq.n	8008588 <_vfiprintf_r+0xa4>
 8008570:	465b      	mov	r3, fp
 8008572:	4622      	mov	r2, r4
 8008574:	4629      	mov	r1, r5
 8008576:	4630      	mov	r0, r6
 8008578:	f7ff ffa1 	bl	80084be <__sfputs_r>
 800857c:	3001      	adds	r0, #1
 800857e:	f000 80a7 	beq.w	80086d0 <_vfiprintf_r+0x1ec>
 8008582:	9a09      	ldr	r2, [sp, #36]	@ 0x24
 8008584:	445a      	add	r2, fp
 8008586:	9209      	str	r2, [sp, #36]	@ 0x24
 8008588:	f89a 3000 	ldrb.w	r3, [sl]
 800858c:	2b00      	cmp	r3, #0
 800858e:	f000 809f 	beq.w	80086d0 <_vfiprintf_r+0x1ec>
 8008592:	2300      	movs	r3, #0
 8008594:	f04f 32ff 	mov.w	r2, #4294967295	@ 0xffffffff
 8008598:	e9cd 2305 	strd	r2, r3, [sp, #20]
 800859c:	f10a 0a01 	add.w	sl, sl, #1
 80085a0:	9304      	str	r3, [sp, #16]
 80085a2:	9307      	str	r3, [sp, #28]
 80085a4:	f88d 3053 	strb.w	r3, [sp, #83]	@ 0x53
 80085a8:	931a      	str	r3, [sp, #104]	@ 0x68
 80085aa:	4654      	mov	r4, sl
 80085ac:	2205      	movs	r2, #5
 80085ae:	f814 1b01 	ldrb.w	r1, [r4], #1
 80085b2:	4853      	ldr	r0, [pc, #332]	@ (8008700 <_vfiprintf_r+0x21c>)
 80085b4:	f7f7 fe2c 	bl	8000210 <memchr>
 80085b8:	9a04      	ldr	r2, [sp, #16]
 80085ba:	b9d8      	cbnz	r0, 80085f4 <_vfiprintf_r+0x110>
 80085bc:	06d1      	lsls	r1, r2, #27
 80085be:	bf44      	itt	mi
 80085c0:	2320      	movmi	r3, #32
 80085c2:	f88d 3053 	strbmi.w	r3, [sp, #83]	@ 0x53
 80085c6:	0713      	lsls	r3, r2, #28
 80085c8:	bf44      	itt	mi
 80085ca:	232b      	movmi	r3, #43	@ 0x2b
 80085cc:	f88d 3053 	strbmi.w	r3, [sp, #83]	@ 0x53
 80085d0:	f89a 3000 	ldrb.w	r3, [sl]
 80085d4:	2b2a      	cmp	r3, #42	@ 0x2a
 80085d6:	d015      	beq.n	8008604 <_vfiprintf_r+0x120>
 80085d8:	9a07      	ldr	r2, [sp, #28]
 80085da:	4654      	mov	r4, sl
 80085dc:	2000      	movs	r0, #0
 80085de:	f04f 0c0a 	mov.w	ip, #10
 80085e2:	4621      	mov	r1, r4
 80085e4:	f811 3b01 	ldrb.w	r3, [r1], #1
 80085e8:	3b30      	subs	r3, #48	@ 0x30
 80085ea:	2b09      	cmp	r3, #9
 80085ec:	d94b      	bls.n	8008686 <_vfiprintf_r+0x1a2>
 80085ee:	b1b0      	cbz	r0, 800861e <_vfiprintf_r+0x13a>
 80085f0:	9207      	str	r2, [sp, #28]
 80085f2:	e014      	b.n	800861e <_vfiprintf_r+0x13a>
 80085f4:	eba0 0308 	sub.w	r3, r0, r8
 80085f8:	fa09 f303 	lsl.w	r3, r9, r3
 80085fc:	4313      	orrs	r3, r2
 80085fe:	9304      	str	r3, [sp, #16]
 8008600:	46a2      	mov	sl, r4
 8008602:	e7d2      	b.n	80085aa <_vfiprintf_r+0xc6>
 8008604:	9b03      	ldr	r3, [sp, #12]
 8008606:	1d19      	adds	r1, r3, #4
 8008608:	681b      	ldr	r3, [r3, #0]
 800860a:	9103      	str	r1, [sp, #12]
 800860c:	2b00      	cmp	r3, #0
 800860e:	bfbb      	ittet	lt
 8008610:	425b      	neglt	r3, r3
 8008612:	f042 0202 	orrlt.w	r2, r2, #2
 8008616:	9307      	strge	r3, [sp, #28]
 8008618:	9307      	strlt	r3, [sp, #28]
 800861a:	bfb8      	it	lt
 800861c:	9204      	strlt	r2, [sp, #16]
 800861e:	7823      	ldrb	r3, [r4, #0]
 8008620:	2b2e      	cmp	r3, #46	@ 0x2e
 8008622:	d10a      	bne.n	800863a <_vfiprintf_r+0x156>
 8008624:	7863      	ldrb	r3, [r4, #1]
 8008626:	2b2a      	cmp	r3, #42	@ 0x2a
 8008628:	d132      	bne.n	8008690 <_vfiprintf_r+0x1ac>
 800862a:	9b03      	ldr	r3, [sp, #12]
 800862c:	1d1a      	adds	r2, r3, #4
 800862e:	681b      	ldr	r3, [r3, #0]
 8008630:	9203      	str	r2, [sp, #12]
 8008632:	ea43 73e3 	orr.w	r3, r3, r3, asr #31
 8008636:	3402      	adds	r4, #2
 8008638:	9305      	str	r3, [sp, #20]
 800863a:	f8df a0d4 	ldr.w	sl, [pc, #212]	@ 8008710 <_vfiprintf_r+0x22c>
 800863e:	7821      	ldrb	r1, [r4, #0]
 8008640:	2203      	movs	r2, #3
 8008642:	4650      	mov	r0, sl
 8008644:	f7f7 fde4 	bl	8000210 <memchr>
 8008648:	b138      	cbz	r0, 800865a <_vfiprintf_r+0x176>
 800864a:	9b04      	ldr	r3, [sp, #16]
 800864c:	eba0 000a 	sub.w	r0, r0, sl
 8008650:	2240      	movs	r2, #64	@ 0x40
 8008652:	4082      	lsls	r2, r0
 8008654:	4313      	orrs	r3, r2
 8008656:	3401      	adds	r4, #1
 8008658:	9304      	str	r3, [sp, #16]
 800865a:	f814 1b01 	ldrb.w	r1, [r4], #1
 800865e:	4829      	ldr	r0, [pc, #164]	@ (8008704 <_vfiprintf_r+0x220>)
 8008660:	f88d 1028 	strb.w	r1, [sp, #40]	@ 0x28
 8008664:	2206      	movs	r2, #6
 8008666:	f7f7 fdd3 	bl	8000210 <memchr>
 800866a:	2800      	cmp	r0, #0
 800866c:	d03f      	beq.n	80086ee <_vfiprintf_r+0x20a>
 800866e:	4b26      	ldr	r3, [pc, #152]	@ (8008708 <_vfiprintf_r+0x224>)
 8008670:	bb1b      	cbnz	r3, 80086ba <_vfiprintf_r+0x1d6>
 8008672:	9b03      	ldr	r3, [sp, #12]
 8008674:	3307      	adds	r3, #7
 8008676:	f023 0307 	bic.w	r3, r3, #7
 800867a:	3308      	adds	r3, #8
 800867c:	9303      	str	r3, [sp, #12]
 800867e:	9b09      	ldr	r3, [sp, #36]	@ 0x24
 8008680:	443b      	add	r3, r7
 8008682:	9309      	str	r3, [sp, #36]	@ 0x24
 8008684:	e76a      	b.n	800855c <_vfiprintf_r+0x78>
 8008686:	fb0c 3202 	mla	r2, ip, r2, r3
 800868a:	460c      	mov	r4, r1
 800868c:	2001      	movs	r0, #1
 800868e:	e7a8      	b.n	80085e2 <_vfiprintf_r+0xfe>
 8008690:	2300      	movs	r3, #0
 8008692:	3401      	adds	r4, #1
 8008694:	9305      	str	r3, [sp, #20]
 8008696:	4619      	mov	r1, r3
 8008698:	f04f 0c0a 	mov.w	ip, #10
 800869c:	4620      	mov	r0, r4
 800869e:	f810 2b01 	ldrb.w	r2, [r0], #1
 80086a2:	3a30      	subs	r2, #48	@ 0x30
 80086a4:	2a09      	cmp	r2, #9
 80086a6:	d903      	bls.n	80086b0 <_vfiprintf_r+0x1cc>
 80086a8:	2b00      	cmp	r3, #0
 80086aa:	d0c6      	beq.n	800863a <_vfiprintf_r+0x156>
 80086ac:	9105      	str	r1, [sp, #20]
 80086ae:	e7c4      	b.n	800863a <_vfiprintf_r+0x156>
 80086b0:	fb0c 2101 	mla	r1, ip, r1, r2
 80086b4:	4604      	mov	r4, r0
 80086b6:	2301      	movs	r3, #1
 80086b8:	e7f0      	b.n	800869c <_vfiprintf_r+0x1b8>
 80086ba:	ab03      	add	r3, sp, #12
 80086bc:	9300      	str	r3, [sp, #0]
 80086be:	462a      	mov	r2, r5
 80086c0:	4b12      	ldr	r3, [pc, #72]	@ (800870c <_vfiprintf_r+0x228>)
 80086c2:	a904      	add	r1, sp, #16
 80086c4:	4630      	mov	r0, r6
 80086c6:	f7fd fbd9 	bl	8005e7c <_printf_float>
 80086ca:	4607      	mov	r7, r0
 80086cc:	1c78      	adds	r0, r7, #1
 80086ce:	d1d6      	bne.n	800867e <_vfiprintf_r+0x19a>
 80086d0:	6e6b      	ldr	r3, [r5, #100]	@ 0x64
 80086d2:	07d9      	lsls	r1, r3, #31
 80086d4:	d405      	bmi.n	80086e2 <_vfiprintf_r+0x1fe>
 80086d6:	89ab      	ldrh	r3, [r5, #12]
 80086d8:	059a      	lsls	r2, r3, #22
 80086da:	d402      	bmi.n	80086e2 <_vfiprintf_r+0x1fe>
 80086dc:	6da8      	ldr	r0, [r5, #88]	@ 0x58
 80086de:	f7fe f89f 	bl	8006820 <__retarget_lock_release_recursive>
 80086e2:	89ab      	ldrh	r3, [r5, #12]
 80086e4:	065b      	lsls	r3, r3, #25
 80086e6:	f53f af1f 	bmi.w	8008528 <_vfiprintf_r+0x44>
 80086ea:	9809      	ldr	r0, [sp, #36]	@ 0x24
 80086ec:	e71e      	b.n	800852c <_vfiprintf_r+0x48>
 80086ee:	ab03      	add	r3, sp, #12
 80086f0:	9300      	str	r3, [sp, #0]
 80086f2:	462a      	mov	r2, r5
 80086f4:	4b05      	ldr	r3, [pc, #20]	@ (800870c <_vfiprintf_r+0x228>)
 80086f6:	a904      	add	r1, sp, #16
 80086f8:	4630      	mov	r0, r6
 80086fa:	f7fd fe57 	bl	80063ac <_printf_i>
 80086fe:	e7e4      	b.n	80086ca <_vfiprintf_r+0x1e6>
 8008700:	08009ae1 	.word	0x08009ae1
 8008704:	08009aeb 	.word	0x08009aeb
 8008708:	08005e7d 	.word	0x08005e7d
 800870c:	080084bf 	.word	0x080084bf
 8008710:	08009ae7 	.word	0x08009ae7

08008714 <__swbuf_r>:
 8008714:	b5f8      	push	{r3, r4, r5, r6, r7, lr}
 8008716:	460e      	mov	r6, r1
 8008718:	4614      	mov	r4, r2
 800871a:	4605      	mov	r5, r0
 800871c:	b118      	cbz	r0, 8008726 <__swbuf_r+0x12>
 800871e:	6a03      	ldr	r3, [r0, #32]
 8008720:	b90b      	cbnz	r3, 8008726 <__swbuf_r+0x12>
 8008722:	f7fe f80f 	bl	8006744 <__sinit>
 8008726:	69a3      	ldr	r3, [r4, #24]
 8008728:	60a3      	str	r3, [r4, #8]
 800872a:	89a3      	ldrh	r3, [r4, #12]
 800872c:	071a      	lsls	r2, r3, #28
 800872e:	d501      	bpl.n	8008734 <__swbuf_r+0x20>
 8008730:	6923      	ldr	r3, [r4, #16]
 8008732:	b943      	cbnz	r3, 8008746 <__swbuf_r+0x32>
 8008734:	4621      	mov	r1, r4
 8008736:	4628      	mov	r0, r5
 8008738:	f000 f82a 	bl	8008790 <__swsetup_r>
 800873c:	b118      	cbz	r0, 8008746 <__swbuf_r+0x32>
 800873e:	f04f 37ff 	mov.w	r7, #4294967295	@ 0xffffffff
 8008742:	4638      	mov	r0, r7
 8008744:	bdf8      	pop	{r3, r4, r5, r6, r7, pc}
 8008746:	6823      	ldr	r3, [r4, #0]
 8008748:	6922      	ldr	r2, [r4, #16]
 800874a:	1a98      	subs	r0, r3, r2
 800874c:	6963      	ldr	r3, [r4, #20]
 800874e:	b2f6      	uxtb	r6, r6
 8008750:	4283      	cmp	r3, r0
 8008752:	4637      	mov	r7, r6
 8008754:	dc05      	bgt.n	8008762 <__swbuf_r+0x4e>
 8008756:	4621      	mov	r1, r4
 8008758:	4628      	mov	r0, r5
 800875a:	f7ff f937 	bl	80079cc <_fflush_r>
 800875e:	2800      	cmp	r0, #0
 8008760:	d1ed      	bne.n	800873e <__swbuf_r+0x2a>
 8008762:	68a3      	ldr	r3, [r4, #8]
 8008764:	3b01      	subs	r3, #1
 8008766:	60a3      	str	r3, [r4, #8]
 8008768:	6823      	ldr	r3, [r4, #0]
 800876a:	1c5a      	adds	r2, r3, #1
 800876c:	6022      	str	r2, [r4, #0]
 800876e:	701e      	strb	r6, [r3, #0]
 8008770:	6962      	ldr	r2, [r4, #20]
 8008772:	1c43      	adds	r3, r0, #1
 8008774:	429a      	cmp	r2, r3
 8008776:	d004      	beq.n	8008782 <__swbuf_r+0x6e>
 8008778:	89a3      	ldrh	r3, [r4, #12]
 800877a:	07db      	lsls	r3, r3, #31
 800877c:	d5e1      	bpl.n	8008742 <__swbuf_r+0x2e>
 800877e:	2e0a      	cmp	r6, #10
 8008780:	d1df      	bne.n	8008742 <__swbuf_r+0x2e>
 8008782:	4621      	mov	r1, r4
 8008784:	4628      	mov	r0, r5
 8008786:	f7ff f921 	bl	80079cc <_fflush_r>
 800878a:	2800      	cmp	r0, #0
 800878c:	d0d9      	beq.n	8008742 <__swbuf_r+0x2e>
 800878e:	e7d6      	b.n	800873e <__swbuf_r+0x2a>

08008790 <__swsetup_r>:
 8008790:	b538      	push	{r3, r4, r5, lr}
 8008792:	4b29      	ldr	r3, [pc, #164]	@ (8008838 <__swsetup_r+0xa8>)
 8008794:	4605      	mov	r5, r0
 8008796:	6818      	ldr	r0, [r3, #0]
 8008798:	460c      	mov	r4, r1
 800879a:	b118      	cbz	r0, 80087a4 <__swsetup_r+0x14>
 800879c:	6a03      	ldr	r3, [r0, #32]
 800879e:	b90b      	cbnz	r3, 80087a4 <__swsetup_r+0x14>
 80087a0:	f7fd ffd0 	bl	8006744 <__sinit>
 80087a4:	f9b4 300c 	ldrsh.w	r3, [r4, #12]
 80087a8:	0719      	lsls	r1, r3, #28
 80087aa:	d422      	bmi.n	80087f2 <__swsetup_r+0x62>
 80087ac:	06da      	lsls	r2, r3, #27
 80087ae:	d407      	bmi.n	80087c0 <__swsetup_r+0x30>
 80087b0:	2209      	movs	r2, #9
 80087b2:	602a      	str	r2, [r5, #0]
 80087b4:	f043 0340 	orr.w	r3, r3, #64	@ 0x40
 80087b8:	81a3      	strh	r3, [r4, #12]
 80087ba:	f04f 30ff 	mov.w	r0, #4294967295	@ 0xffffffff
 80087be:	e033      	b.n	8008828 <__swsetup_r+0x98>
 80087c0:	0758      	lsls	r0, r3, #29
 80087c2:	d512      	bpl.n	80087ea <__swsetup_r+0x5a>
 80087c4:	6b61      	ldr	r1, [r4, #52]	@ 0x34
 80087c6:	b141      	cbz	r1, 80087da <__swsetup_r+0x4a>
 80087c8:	f104 0344 	add.w	r3, r4, #68	@ 0x44
 80087cc:	4299      	cmp	r1, r3
 80087ce:	d002      	beq.n	80087d6 <__swsetup_r+0x46>
 80087d0:	4628      	mov	r0, r5
 80087d2:	f7ff fdd3 	bl	800837c <_free_r>
 80087d6:	2300      	movs	r3, #0
 80087d8:	6363      	str	r3, [r4, #52]	@ 0x34
 80087da:	89a3      	ldrh	r3, [r4, #12]
 80087dc:	f023 0324 	bic.w	r3, r3, #36	@ 0x24
 80087e0:	81a3      	strh	r3, [r4, #12]
 80087e2:	2300      	movs	r3, #0
 80087e4:	6063      	str	r3, [r4, #4]
 80087e6:	6923      	ldr	r3, [r4, #16]
 80087e8:	6023      	str	r3, [r4, #0]
 80087ea:	89a3      	ldrh	r3, [r4, #12]
 80087ec:	f043 0308 	orr.w	r3, r3, #8
 80087f0:	81a3      	strh	r3, [r4, #12]
 80087f2:	6923      	ldr	r3, [r4, #16]
 80087f4:	b94b      	cbnz	r3, 800880a <__swsetup_r+0x7a>
 80087f6:	89a3      	ldrh	r3, [r4, #12]
 80087f8:	f403 7320 	and.w	r3, r3, #640	@ 0x280
 80087fc:	f5b3 7f00 	cmp.w	r3, #512	@ 0x200
 8008800:	d003      	beq.n	800880a <__swsetup_r+0x7a>
 8008802:	4621      	mov	r1, r4
 8008804:	4628      	mov	r0, r5
 8008806:	f000 f83f 	bl	8008888 <__smakebuf_r>
 800880a:	f9b4 300c 	ldrsh.w	r3, [r4, #12]
 800880e:	f013 0201 	ands.w	r2, r3, #1
 8008812:	d00a      	beq.n	800882a <__swsetup_r+0x9a>
 8008814:	2200      	movs	r2, #0
 8008816:	60a2      	str	r2, [r4, #8]
 8008818:	6962      	ldr	r2, [r4, #20]
 800881a:	4252      	negs	r2, r2
 800881c:	61a2      	str	r2, [r4, #24]
 800881e:	6922      	ldr	r2, [r4, #16]
 8008820:	b942      	cbnz	r2, 8008834 <__swsetup_r+0xa4>
 8008822:	f013 0080 	ands.w	r0, r3, #128	@ 0x80
 8008826:	d1c5      	bne.n	80087b4 <__swsetup_r+0x24>
 8008828:	bd38      	pop	{r3, r4, r5, pc}
 800882a:	0799      	lsls	r1, r3, #30
 800882c:	bf58      	it	pl
 800882e:	6962      	ldrpl	r2, [r4, #20]
 8008830:	60a2      	str	r2, [r4, #8]
 8008832:	e7f4      	b.n	800881e <__swsetup_r+0x8e>
 8008834:	2000      	movs	r0, #0
 8008836:	e7f7      	b.n	8008828 <__swsetup_r+0x98>
 8008838:	20000018 	.word	0x20000018

0800883c <__swhatbuf_r>:
 800883c:	b570      	push	{r4, r5, r6, lr}
 800883e:	460c      	mov	r4, r1
 8008840:	f9b1 100e 	ldrsh.w	r1, [r1, #14]
 8008844:	2900      	cmp	r1, #0
 8008846:	b096      	sub	sp, #88	@ 0x58
 8008848:	4615      	mov	r5, r2
 800884a:	461e      	mov	r6, r3
 800884c:	da0d      	bge.n	800886a <__swhatbuf_r+0x2e>
 800884e:	89a3      	ldrh	r3, [r4, #12]
 8008850:	f013 0f80 	tst.w	r3, #128	@ 0x80
 8008854:	f04f 0100 	mov.w	r1, #0
 8008858:	bf14      	ite	ne
 800885a:	2340      	movne	r3, #64	@ 0x40
 800885c:	f44f 6380 	moveq.w	r3, #1024	@ 0x400
 8008860:	2000      	movs	r0, #0
 8008862:	6031      	str	r1, [r6, #0]
 8008864:	602b      	str	r3, [r5, #0]
 8008866:	b016      	add	sp, #88	@ 0x58
 8008868:	bd70      	pop	{r4, r5, r6, pc}
 800886a:	466a      	mov	r2, sp
 800886c:	f000 f848 	bl	8008900 <_fstat_r>
 8008870:	2800      	cmp	r0, #0
 8008872:	dbec      	blt.n	800884e <__swhatbuf_r+0x12>
 8008874:	9901      	ldr	r1, [sp, #4]
 8008876:	f401 4170 	and.w	r1, r1, #61440	@ 0xf000
 800887a:	f5a1 5300 	sub.w	r3, r1, #8192	@ 0x2000
 800887e:	4259      	negs	r1, r3
 8008880:	4159      	adcs	r1, r3
 8008882:	f44f 6380 	mov.w	r3, #1024	@ 0x400
 8008886:	e7eb      	b.n	8008860 <__swhatbuf_r+0x24>

08008888 <__smakebuf_r>:
 8008888:	898b      	ldrh	r3, [r1, #12]
 800888a:	b5f7      	push	{r0, r1, r2, r4, r5, r6, r7, lr}
 800888c:	079d      	lsls	r5, r3, #30
 800888e:	4606      	mov	r6, r0
 8008890:	460c      	mov	r4, r1
 8008892:	d507      	bpl.n	80088a4 <__smakebuf_r+0x1c>
 8008894:	f104 0347 	add.w	r3, r4, #71	@ 0x47
 8008898:	6023      	str	r3, [r4, #0]
 800889a:	6123      	str	r3, [r4, #16]
 800889c:	2301      	movs	r3, #1
 800889e:	6163      	str	r3, [r4, #20]
 80088a0:	b003      	add	sp, #12
 80088a2:	bdf0      	pop	{r4, r5, r6, r7, pc}
 80088a4:	ab01      	add	r3, sp, #4
 80088a6:	466a      	mov	r2, sp
 80088a8:	f7ff ffc8 	bl	800883c <__swhatbuf_r>
 80088ac:	9f00      	ldr	r7, [sp, #0]
 80088ae:	4605      	mov	r5, r0
 80088b0:	4639      	mov	r1, r7
 80088b2:	4630      	mov	r0, r6
 80088b4:	f7fe ff86 	bl	80077c4 <_malloc_r>
 80088b8:	b948      	cbnz	r0, 80088ce <__smakebuf_r+0x46>
 80088ba:	f9b4 300c 	ldrsh.w	r3, [r4, #12]
 80088be:	059a      	lsls	r2, r3, #22
 80088c0:	d4ee      	bmi.n	80088a0 <__smakebuf_r+0x18>
 80088c2:	f023 0303 	bic.w	r3, r3, #3
 80088c6:	f043 0302 	orr.w	r3, r3, #2
 80088ca:	81a3      	strh	r3, [r4, #12]
 80088cc:	e7e2      	b.n	8008894 <__smakebuf_r+0xc>
 80088ce:	89a3      	ldrh	r3, [r4, #12]
 80088d0:	6020      	str	r0, [r4, #0]
 80088d2:	f043 0380 	orr.w	r3, r3, #128	@ 0x80
 80088d6:	81a3      	strh	r3, [r4, #12]
 80088d8:	9b01      	ldr	r3, [sp, #4]
 80088da:	e9c4 0704 	strd	r0, r7, [r4, #16]
 80088de:	b15b      	cbz	r3, 80088f8 <__smakebuf_r+0x70>
 80088e0:	f9b4 100e 	ldrsh.w	r1, [r4, #14]
 80088e4:	4630      	mov	r0, r6
 80088e6:	f000 f81d 	bl	8008924 <_isatty_r>
 80088ea:	b128      	cbz	r0, 80088f8 <__smakebuf_r+0x70>
 80088ec:	89a3      	ldrh	r3, [r4, #12]
 80088ee:	f023 0303 	bic.w	r3, r3, #3
 80088f2:	f043 0301 	orr.w	r3, r3, #1
 80088f6:	81a3      	strh	r3, [r4, #12]
 80088f8:	89a3      	ldrh	r3, [r4, #12]
 80088fa:	431d      	orrs	r5, r3
 80088fc:	81a5      	strh	r5, [r4, #12]
 80088fe:	e7cf      	b.n	80088a0 <__smakebuf_r+0x18>

08008900 <_fstat_r>:
 8008900:	b538      	push	{r3, r4, r5, lr}
 8008902:	4d07      	ldr	r5, [pc, #28]	@ (8008920 <_fstat_r+0x20>)
 8008904:	2300      	movs	r3, #0
 8008906:	4604      	mov	r4, r0
 8008908:	4608      	mov	r0, r1
 800890a:	4611      	mov	r1, r2
 800890c:	602b      	str	r3, [r5, #0]
 800890e:	f7f9 ff5b 	bl	80027c8 <_fstat>
 8008912:	1c43      	adds	r3, r0, #1
 8008914:	d102      	bne.n	800891c <_fstat_r+0x1c>
 8008916:	682b      	ldr	r3, [r5, #0]
 8008918:	b103      	cbz	r3, 800891c <_fstat_r+0x1c>
 800891a:	6023      	str	r3, [r4, #0]
 800891c:	bd38      	pop	{r3, r4, r5, pc}
 800891e:	bf00      	nop
 8008920:	200004cc 	.word	0x200004cc

08008924 <_isatty_r>:
 8008924:	b538      	push	{r3, r4, r5, lr}
 8008926:	4d06      	ldr	r5, [pc, #24]	@ (8008940 <_isatty_r+0x1c>)
 8008928:	2300      	movs	r3, #0
 800892a:	4604      	mov	r4, r0
 800892c:	4608      	mov	r0, r1
 800892e:	602b      	str	r3, [r5, #0]
 8008930:	f7f9 ff5a 	bl	80027e8 <_isatty>
 8008934:	1c43      	adds	r3, r0, #1
 8008936:	d102      	bne.n	800893e <_isatty_r+0x1a>
 8008938:	682b      	ldr	r3, [r5, #0]
 800893a:	b103      	cbz	r3, 800893e <_isatty_r+0x1a>
 800893c:	6023      	str	r3, [r4, #0]
 800893e:	bd38      	pop	{r3, r4, r5, pc}
 8008940:	200004cc 	.word	0x200004cc

08008944 <_raise_r>:
 8008944:	291f      	cmp	r1, #31
 8008946:	b538      	push	{r3, r4, r5, lr}
 8008948:	4605      	mov	r5, r0
 800894a:	460c      	mov	r4, r1
 800894c:	d904      	bls.n	8008958 <_raise_r+0x14>
 800894e:	2316      	movs	r3, #22
 8008950:	6003      	str	r3, [r0, #0]
 8008952:	f04f 30ff 	mov.w	r0, #4294967295	@ 0xffffffff
 8008956:	bd38      	pop	{r3, r4, r5, pc}
 8008958:	6bc2      	ldr	r2, [r0, #60]	@ 0x3c
 800895a:	b112      	cbz	r2, 8008962 <_raise_r+0x1e>
 800895c:	f852 3021 	ldr.w	r3, [r2, r1, lsl #2]
 8008960:	b94b      	cbnz	r3, 8008976 <_raise_r+0x32>
 8008962:	4628      	mov	r0, r5
 8008964:	f000 f830 	bl	80089c8 <_getpid_r>
 8008968:	4622      	mov	r2, r4
 800896a:	4601      	mov	r1, r0
 800896c:	4628      	mov	r0, r5
 800896e:	e8bd 4038 	ldmia.w	sp!, {r3, r4, r5, lr}
 8008972:	f000 b817 	b.w	80089a4 <_kill_r>
 8008976:	2b01      	cmp	r3, #1
 8008978:	d00a      	beq.n	8008990 <_raise_r+0x4c>
 800897a:	1c59      	adds	r1, r3, #1
 800897c:	d103      	bne.n	8008986 <_raise_r+0x42>
 800897e:	2316      	movs	r3, #22
 8008980:	6003      	str	r3, [r0, #0]
 8008982:	2001      	movs	r0, #1
 8008984:	e7e7      	b.n	8008956 <_raise_r+0x12>
 8008986:	2100      	movs	r1, #0
 8008988:	f842 1024 	str.w	r1, [r2, r4, lsl #2]
 800898c:	4620      	mov	r0, r4
 800898e:	4798      	blx	r3
 8008990:	2000      	movs	r0, #0
 8008992:	e7e0      	b.n	8008956 <_raise_r+0x12>

08008994 <raise>:
 8008994:	4b02      	ldr	r3, [pc, #8]	@ (80089a0 <raise+0xc>)
 8008996:	4601      	mov	r1, r0
 8008998:	6818      	ldr	r0, [r3, #0]
 800899a:	f7ff bfd3 	b.w	8008944 <_raise_r>
 800899e:	bf00      	nop
 80089a0:	20000018 	.word	0x20000018

080089a4 <_kill_r>:
 80089a4:	b538      	push	{r3, r4, r5, lr}
 80089a6:	4d07      	ldr	r5, [pc, #28]	@ (80089c4 <_kill_r+0x20>)
 80089a8:	2300      	movs	r3, #0
 80089aa:	4604      	mov	r4, r0
 80089ac:	4608      	mov	r0, r1
 80089ae:	4611      	mov	r1, r2
 80089b0:	602b      	str	r3, [r5, #0]
 80089b2:	f7f9 fea9 	bl	8002708 <_kill>
 80089b6:	1c43      	adds	r3, r0, #1
 80089b8:	d102      	bne.n	80089c0 <_kill_r+0x1c>
 80089ba:	682b      	ldr	r3, [r5, #0]
 80089bc:	b103      	cbz	r3, 80089c0 <_kill_r+0x1c>
 80089be:	6023      	str	r3, [r4, #0]
 80089c0:	bd38      	pop	{r3, r4, r5, pc}
 80089c2:	bf00      	nop
 80089c4:	200004cc 	.word	0x200004cc

080089c8 <_getpid_r>:
 80089c8:	f7f9 be96 	b.w	80026f8 <_getpid>

080089cc <pow>:
 80089cc:	b5f8      	push	{r3, r4, r5, r6, r7, lr}
 80089ce:	ed2d 8b02 	vpush	{d8}
 80089d2:	eeb0 8a40 	vmov.f32	s16, s0
 80089d6:	eef0 8a60 	vmov.f32	s17, s1
 80089da:	ec55 4b11 	vmov	r4, r5, d1
 80089de:	f000 f873 	bl	8008ac8 <__ieee754_pow>
 80089e2:	4622      	mov	r2, r4
 80089e4:	462b      	mov	r3, r5
 80089e6:	4620      	mov	r0, r4
 80089e8:	4629      	mov	r1, r5
 80089ea:	ec57 6b10 	vmov	r6, r7, d0
 80089ee:	f7f8 f8bd 	bl	8000b6c <__aeabi_dcmpun>
 80089f2:	2800      	cmp	r0, #0
 80089f4:	d13b      	bne.n	8008a6e <pow+0xa2>
 80089f6:	ec51 0b18 	vmov	r0, r1, d8
 80089fa:	2200      	movs	r2, #0
 80089fc:	2300      	movs	r3, #0
 80089fe:	f7f8 f883 	bl	8000b08 <__aeabi_dcmpeq>
 8008a02:	b1b8      	cbz	r0, 8008a34 <pow+0x68>
 8008a04:	2200      	movs	r2, #0
 8008a06:	2300      	movs	r3, #0
 8008a08:	4620      	mov	r0, r4
 8008a0a:	4629      	mov	r1, r5
 8008a0c:	f7f8 f87c 	bl	8000b08 <__aeabi_dcmpeq>
 8008a10:	2800      	cmp	r0, #0
 8008a12:	d146      	bne.n	8008aa2 <pow+0xd6>
 8008a14:	ec45 4b10 	vmov	d0, r4, r5
 8008a18:	f000 f848 	bl	8008aac <finite>
 8008a1c:	b338      	cbz	r0, 8008a6e <pow+0xa2>
 8008a1e:	2200      	movs	r2, #0
 8008a20:	2300      	movs	r3, #0
 8008a22:	4620      	mov	r0, r4
 8008a24:	4629      	mov	r1, r5
 8008a26:	f7f8 f879 	bl	8000b1c <__aeabi_dcmplt>
 8008a2a:	b300      	cbz	r0, 8008a6e <pow+0xa2>
 8008a2c:	f7fd fecc 	bl	80067c8 <__errno>
 8008a30:	2322      	movs	r3, #34	@ 0x22
 8008a32:	e01b      	b.n	8008a6c <pow+0xa0>
 8008a34:	ec47 6b10 	vmov	d0, r6, r7
 8008a38:	f000 f838 	bl	8008aac <finite>
 8008a3c:	b9e0      	cbnz	r0, 8008a78 <pow+0xac>
 8008a3e:	eeb0 0a48 	vmov.f32	s0, s16
 8008a42:	eef0 0a68 	vmov.f32	s1, s17
 8008a46:	f000 f831 	bl	8008aac <finite>
 8008a4a:	b1a8      	cbz	r0, 8008a78 <pow+0xac>
 8008a4c:	ec45 4b10 	vmov	d0, r4, r5
 8008a50:	f000 f82c 	bl	8008aac <finite>
 8008a54:	b180      	cbz	r0, 8008a78 <pow+0xac>
 8008a56:	4632      	mov	r2, r6
 8008a58:	463b      	mov	r3, r7
 8008a5a:	4630      	mov	r0, r6
 8008a5c:	4639      	mov	r1, r7
 8008a5e:	f7f8 f885 	bl	8000b6c <__aeabi_dcmpun>
 8008a62:	2800      	cmp	r0, #0
 8008a64:	d0e2      	beq.n	8008a2c <pow+0x60>
 8008a66:	f7fd feaf 	bl	80067c8 <__errno>
 8008a6a:	2321      	movs	r3, #33	@ 0x21
 8008a6c:	6003      	str	r3, [r0, #0]
 8008a6e:	ecbd 8b02 	vpop	{d8}
 8008a72:	ec47 6b10 	vmov	d0, r6, r7
 8008a76:	bdf8      	pop	{r3, r4, r5, r6, r7, pc}
 8008a78:	2200      	movs	r2, #0
 8008a7a:	2300      	movs	r3, #0
 8008a7c:	4630      	mov	r0, r6
 8008a7e:	4639      	mov	r1, r7
 8008a80:	f7f8 f842 	bl	8000b08 <__aeabi_dcmpeq>
 8008a84:	2800      	cmp	r0, #0
 8008a86:	d0f2      	beq.n	8008a6e <pow+0xa2>
 8008a88:	eeb0 0a48 	vmov.f32	s0, s16
 8008a8c:	eef0 0a68 	vmov.f32	s1, s17
 8008a90:	f000 f80c 	bl	8008aac <finite>
 8008a94:	2800      	cmp	r0, #0
 8008a96:	d0ea      	beq.n	8008a6e <pow+0xa2>
 8008a98:	ec45 4b10 	vmov	d0, r4, r5
 8008a9c:	f000 f806 	bl	8008aac <finite>
 8008aa0:	e7c3      	b.n	8008a2a <pow+0x5e>
 8008aa2:	4f01      	ldr	r7, [pc, #4]	@ (8008aa8 <pow+0xdc>)
 8008aa4:	2600      	movs	r6, #0
 8008aa6:	e7e2      	b.n	8008a6e <pow+0xa2>
 8008aa8:	3ff00000 	.word	0x3ff00000

08008aac <finite>:
 8008aac:	b082      	sub	sp, #8
 8008aae:	ed8d 0b00 	vstr	d0, [sp]
 8008ab2:	9801      	ldr	r0, [sp, #4]
 8008ab4:	f040 4000 	orr.w	r0, r0, #2147483648	@ 0x80000000
 8008ab8:	f500 1080 	add.w	r0, r0, #1048576	@ 0x100000
 8008abc:	0fc0      	lsrs	r0, r0, #31
 8008abe:	b002      	add	sp, #8
 8008ac0:	4770      	bx	lr
 8008ac2:	0000      	movs	r0, r0
 8008ac4:	0000      	movs	r0, r0
	...

08008ac8 <__ieee754_pow>:
 8008ac8:	e92d 4ff0 	stmdb	sp!, {r4, r5, r6, r7, r8, r9, sl, fp, lr}
 8008acc:	b091      	sub	sp, #68	@ 0x44
 8008ace:	ed8d 1b00 	vstr	d1, [sp]
 8008ad2:	e9dd 1900 	ldrd	r1, r9, [sp]
 8008ad6:	f029 4a00 	bic.w	sl, r9, #2147483648	@ 0x80000000
 8008ada:	ea5a 0001 	orrs.w	r0, sl, r1
 8008ade:	ec57 6b10 	vmov	r6, r7, d0
 8008ae2:	d113      	bne.n	8008b0c <__ieee754_pow+0x44>
 8008ae4:	19b3      	adds	r3, r6, r6
 8008ae6:	f487 2200 	eor.w	r2, r7, #524288	@ 0x80000
 8008aea:	4152      	adcs	r2, r2
 8008aec:	4298      	cmp	r0, r3
 8008aee:	4b98      	ldr	r3, [pc, #608]	@ (8008d50 <__ieee754_pow+0x288>)
 8008af0:	4193      	sbcs	r3, r2
 8008af2:	f080 84ea 	bcs.w	80094ca <__ieee754_pow+0xa02>
 8008af6:	e9dd 2300 	ldrd	r2, r3, [sp]
 8008afa:	4630      	mov	r0, r6
 8008afc:	4639      	mov	r1, r7
 8008afe:	f7f7 fbe5 	bl	80002cc <__adddf3>
 8008b02:	ec41 0b10 	vmov	d0, r0, r1
 8008b06:	b011      	add	sp, #68	@ 0x44
 8008b08:	e8bd 8ff0 	ldmia.w	sp!, {r4, r5, r6, r7, r8, r9, sl, fp, pc}
 8008b0c:	4a91      	ldr	r2, [pc, #580]	@ (8008d54 <__ieee754_pow+0x28c>)
 8008b0e:	f027 4800 	bic.w	r8, r7, #2147483648	@ 0x80000000
 8008b12:	4590      	cmp	r8, r2
 8008b14:	463d      	mov	r5, r7
 8008b16:	4633      	mov	r3, r6
 8008b18:	d806      	bhi.n	8008b28 <__ieee754_pow+0x60>
 8008b1a:	d101      	bne.n	8008b20 <__ieee754_pow+0x58>
 8008b1c:	2e00      	cmp	r6, #0
 8008b1e:	d1ea      	bne.n	8008af6 <__ieee754_pow+0x2e>
 8008b20:	4592      	cmp	sl, r2
 8008b22:	d801      	bhi.n	8008b28 <__ieee754_pow+0x60>
 8008b24:	d10e      	bne.n	8008b44 <__ieee754_pow+0x7c>
 8008b26:	b169      	cbz	r1, 8008b44 <__ieee754_pow+0x7c>
 8008b28:	f105 4540 	add.w	r5, r5, #3221225472	@ 0xc0000000
 8008b2c:	f505 1580 	add.w	r5, r5, #1048576	@ 0x100000
 8008b30:	431d      	orrs	r5, r3
 8008b32:	d1e0      	bne.n	8008af6 <__ieee754_pow+0x2e>
 8008b34:	e9dd 3200 	ldrd	r3, r2, [sp]
 8008b38:	18db      	adds	r3, r3, r3
 8008b3a:	f482 2200 	eor.w	r2, r2, #524288	@ 0x80000
 8008b3e:	4152      	adcs	r2, r2
 8008b40:	429d      	cmp	r5, r3
 8008b42:	e7d4      	b.n	8008aee <__ieee754_pow+0x26>
 8008b44:	2d00      	cmp	r5, #0
 8008b46:	46c3      	mov	fp, r8
 8008b48:	da3a      	bge.n	8008bc0 <__ieee754_pow+0xf8>
 8008b4a:	4a83      	ldr	r2, [pc, #524]	@ (8008d58 <__ieee754_pow+0x290>)
 8008b4c:	4592      	cmp	sl, r2
 8008b4e:	d84d      	bhi.n	8008bec <__ieee754_pow+0x124>
 8008b50:	f1a2 7254 	sub.w	r2, r2, #55574528	@ 0x3500000
 8008b54:	4592      	cmp	sl, r2
 8008b56:	f240 84c7 	bls.w	80094e8 <__ieee754_pow+0xa20>
 8008b5a:	ea4f 522a 	mov.w	r2, sl, asr #20
 8008b5e:	f2a2 32ff 	subw	r2, r2, #1023	@ 0x3ff
 8008b62:	2a14      	cmp	r2, #20
 8008b64:	dd0f      	ble.n	8008b86 <__ieee754_pow+0xbe>
 8008b66:	f1c2 0234 	rsb	r2, r2, #52	@ 0x34
 8008b6a:	fa21 f402 	lsr.w	r4, r1, r2
 8008b6e:	fa04 f202 	lsl.w	r2, r4, r2
 8008b72:	428a      	cmp	r2, r1
 8008b74:	f040 84b8 	bne.w	80094e8 <__ieee754_pow+0xa20>
 8008b78:	f004 0401 	and.w	r4, r4, #1
 8008b7c:	f1c4 0402 	rsb	r4, r4, #2
 8008b80:	2900      	cmp	r1, #0
 8008b82:	d158      	bne.n	8008c36 <__ieee754_pow+0x16e>
 8008b84:	e00e      	b.n	8008ba4 <__ieee754_pow+0xdc>
 8008b86:	2900      	cmp	r1, #0
 8008b88:	d154      	bne.n	8008c34 <__ieee754_pow+0x16c>
 8008b8a:	f1c2 0214 	rsb	r2, r2, #20
 8008b8e:	fa4a f402 	asr.w	r4, sl, r2
 8008b92:	fa04 f202 	lsl.w	r2, r4, r2
 8008b96:	4552      	cmp	r2, sl
 8008b98:	f040 84a3 	bne.w	80094e2 <__ieee754_pow+0xa1a>
 8008b9c:	f004 0401 	and.w	r4, r4, #1
 8008ba0:	f1c4 0402 	rsb	r4, r4, #2
 8008ba4:	4a6d      	ldr	r2, [pc, #436]	@ (8008d5c <__ieee754_pow+0x294>)
 8008ba6:	4592      	cmp	sl, r2
 8008ba8:	d12e      	bne.n	8008c08 <__ieee754_pow+0x140>
 8008baa:	f1b9 0f00 	cmp.w	r9, #0
 8008bae:	f280 8494 	bge.w	80094da <__ieee754_pow+0xa12>
 8008bb2:	496a      	ldr	r1, [pc, #424]	@ (8008d5c <__ieee754_pow+0x294>)
 8008bb4:	4632      	mov	r2, r6
 8008bb6:	463b      	mov	r3, r7
 8008bb8:	2000      	movs	r0, #0
 8008bba:	f7f7 fe67 	bl	800088c <__aeabi_ddiv>
 8008bbe:	e7a0      	b.n	8008b02 <__ieee754_pow+0x3a>
 8008bc0:	2400      	movs	r4, #0
 8008bc2:	bbc1      	cbnz	r1, 8008c36 <__ieee754_pow+0x16e>
 8008bc4:	4a63      	ldr	r2, [pc, #396]	@ (8008d54 <__ieee754_pow+0x28c>)
 8008bc6:	4592      	cmp	sl, r2
 8008bc8:	d1ec      	bne.n	8008ba4 <__ieee754_pow+0xdc>
 8008bca:	f108 4240 	add.w	r2, r8, #3221225472	@ 0xc0000000
 8008bce:	f502 1280 	add.w	r2, r2, #1048576	@ 0x100000
 8008bd2:	431a      	orrs	r2, r3
 8008bd4:	f000 8479 	beq.w	80094ca <__ieee754_pow+0xa02>
 8008bd8:	4b61      	ldr	r3, [pc, #388]	@ (8008d60 <__ieee754_pow+0x298>)
 8008bda:	4598      	cmp	r8, r3
 8008bdc:	d908      	bls.n	8008bf0 <__ieee754_pow+0x128>
 8008bde:	f1b9 0f00 	cmp.w	r9, #0
 8008be2:	f2c0 8476 	blt.w	80094d2 <__ieee754_pow+0xa0a>
 8008be6:	e9dd 0100 	ldrd	r0, r1, [sp]
 8008bea:	e78a      	b.n	8008b02 <__ieee754_pow+0x3a>
 8008bec:	2402      	movs	r4, #2
 8008bee:	e7e8      	b.n	8008bc2 <__ieee754_pow+0xfa>
 8008bf0:	f1b9 0f00 	cmp.w	r9, #0
 8008bf4:	f04f 0000 	mov.w	r0, #0
 8008bf8:	f04f 0100 	mov.w	r1, #0
 8008bfc:	da81      	bge.n	8008b02 <__ieee754_pow+0x3a>
 8008bfe:	e9dd 0300 	ldrd	r0, r3, [sp]
 8008c02:	f103 4100 	add.w	r1, r3, #2147483648	@ 0x80000000
 8008c06:	e77c      	b.n	8008b02 <__ieee754_pow+0x3a>
 8008c08:	f1b9 4f80 	cmp.w	r9, #1073741824	@ 0x40000000
 8008c0c:	d106      	bne.n	8008c1c <__ieee754_pow+0x154>
 8008c0e:	4632      	mov	r2, r6
 8008c10:	463b      	mov	r3, r7
 8008c12:	4630      	mov	r0, r6
 8008c14:	4639      	mov	r1, r7
 8008c16:	f7f7 fd0f 	bl	8000638 <__aeabi_dmul>
 8008c1a:	e772      	b.n	8008b02 <__ieee754_pow+0x3a>
 8008c1c:	4a51      	ldr	r2, [pc, #324]	@ (8008d64 <__ieee754_pow+0x29c>)
 8008c1e:	4591      	cmp	r9, r2
 8008c20:	d109      	bne.n	8008c36 <__ieee754_pow+0x16e>
 8008c22:	2d00      	cmp	r5, #0
 8008c24:	db07      	blt.n	8008c36 <__ieee754_pow+0x16e>
 8008c26:	ec47 6b10 	vmov	d0, r6, r7
 8008c2a:	b011      	add	sp, #68	@ 0x44
 8008c2c:	e8bd 4ff0 	ldmia.w	sp!, {r4, r5, r6, r7, r8, r9, sl, fp, lr}
 8008c30:	f000 bd50 	b.w	80096d4 <__ieee754_sqrt>
 8008c34:	2400      	movs	r4, #0
 8008c36:	ec47 6b10 	vmov	d0, r6, r7
 8008c3a:	9302      	str	r3, [sp, #8]
 8008c3c:	f000 fcc4 	bl	80095c8 <fabs>
 8008c40:	9b02      	ldr	r3, [sp, #8]
 8008c42:	ec51 0b10 	vmov	r0, r1, d0
 8008c46:	bb53      	cbnz	r3, 8008c9e <__ieee754_pow+0x1d6>
 8008c48:	4b44      	ldr	r3, [pc, #272]	@ (8008d5c <__ieee754_pow+0x294>)
 8008c4a:	f025 4240 	bic.w	r2, r5, #3221225472	@ 0xc0000000
 8008c4e:	429a      	cmp	r2, r3
 8008c50:	d002      	beq.n	8008c58 <__ieee754_pow+0x190>
 8008c52:	f1b8 0f00 	cmp.w	r8, #0
 8008c56:	d122      	bne.n	8008c9e <__ieee754_pow+0x1d6>
 8008c58:	f1b9 0f00 	cmp.w	r9, #0
 8008c5c:	da05      	bge.n	8008c6a <__ieee754_pow+0x1a2>
 8008c5e:	4602      	mov	r2, r0
 8008c60:	460b      	mov	r3, r1
 8008c62:	2000      	movs	r0, #0
 8008c64:	493d      	ldr	r1, [pc, #244]	@ (8008d5c <__ieee754_pow+0x294>)
 8008c66:	f7f7 fe11 	bl	800088c <__aeabi_ddiv>
 8008c6a:	2d00      	cmp	r5, #0
 8008c6c:	f6bf af49 	bge.w	8008b02 <__ieee754_pow+0x3a>
 8008c70:	f108 4840 	add.w	r8, r8, #3221225472	@ 0xc0000000
 8008c74:	f508 1880 	add.w	r8, r8, #1048576	@ 0x100000
 8008c78:	ea58 0804 	orrs.w	r8, r8, r4
 8008c7c:	d108      	bne.n	8008c90 <__ieee754_pow+0x1c8>
 8008c7e:	4602      	mov	r2, r0
 8008c80:	460b      	mov	r3, r1
 8008c82:	4610      	mov	r0, r2
 8008c84:	4619      	mov	r1, r3
 8008c86:	f7f7 fb1f 	bl	80002c8 <__aeabi_dsub>
 8008c8a:	4602      	mov	r2, r0
 8008c8c:	460b      	mov	r3, r1
 8008c8e:	e794      	b.n	8008bba <__ieee754_pow+0xf2>
 8008c90:	2c01      	cmp	r4, #1
 8008c92:	f47f af36 	bne.w	8008b02 <__ieee754_pow+0x3a>
 8008c96:	f101 4300 	add.w	r3, r1, #2147483648	@ 0x80000000
 8008c9a:	4619      	mov	r1, r3
 8008c9c:	e731      	b.n	8008b02 <__ieee754_pow+0x3a>
 8008c9e:	0feb      	lsrs	r3, r5, #31
 8008ca0:	3b01      	subs	r3, #1
 8008ca2:	ea53 0204 	orrs.w	r2, r3, r4
 8008ca6:	d102      	bne.n	8008cae <__ieee754_pow+0x1e6>
 8008ca8:	4632      	mov	r2, r6
 8008caa:	463b      	mov	r3, r7
 8008cac:	e7e9      	b.n	8008c82 <__ieee754_pow+0x1ba>
 8008cae:	3c01      	subs	r4, #1
 8008cb0:	431c      	orrs	r4, r3
 8008cb2:	d016      	beq.n	8008ce2 <__ieee754_pow+0x21a>
 8008cb4:	ed9f 7b22 	vldr	d7, [pc, #136]	@ 8008d40 <__ieee754_pow+0x278>
 8008cb8:	f1ba 4f84 	cmp.w	sl, #1107296256	@ 0x42000000
 8008cbc:	ed8d 7b02 	vstr	d7, [sp, #8]
 8008cc0:	f240 8112 	bls.w	8008ee8 <__ieee754_pow+0x420>
 8008cc4:	4b28      	ldr	r3, [pc, #160]	@ (8008d68 <__ieee754_pow+0x2a0>)
 8008cc6:	459a      	cmp	sl, r3
 8008cc8:	4b25      	ldr	r3, [pc, #148]	@ (8008d60 <__ieee754_pow+0x298>)
 8008cca:	d916      	bls.n	8008cfa <__ieee754_pow+0x232>
 8008ccc:	4598      	cmp	r8, r3
 8008cce:	d80b      	bhi.n	8008ce8 <__ieee754_pow+0x220>
 8008cd0:	f1b9 0f00 	cmp.w	r9, #0
 8008cd4:	da0b      	bge.n	8008cee <__ieee754_pow+0x226>
 8008cd6:	2000      	movs	r0, #0
 8008cd8:	b011      	add	sp, #68	@ 0x44
 8008cda:	e8bd 4ff0 	ldmia.w	sp!, {r4, r5, r6, r7, r8, r9, sl, fp, lr}
 8008cde:	f000 bc6b 	b.w	80095b8 <__math_oflow>
 8008ce2:	ed9f 7b19 	vldr	d7, [pc, #100]	@ 8008d48 <__ieee754_pow+0x280>
 8008ce6:	e7e7      	b.n	8008cb8 <__ieee754_pow+0x1f0>
 8008ce8:	f1b9 0f00 	cmp.w	r9, #0
 8008cec:	dcf3      	bgt.n	8008cd6 <__ieee754_pow+0x20e>
 8008cee:	2000      	movs	r0, #0
 8008cf0:	b011      	add	sp, #68	@ 0x44
 8008cf2:	e8bd 4ff0 	ldmia.w	sp!, {r4, r5, r6, r7, r8, r9, sl, fp, lr}
 8008cf6:	f000 bc57 	b.w	80095a8 <__math_uflow>
 8008cfa:	4598      	cmp	r8, r3
 8008cfc:	d20c      	bcs.n	8008d18 <__ieee754_pow+0x250>
 8008cfe:	e9dd 0102 	ldrd	r0, r1, [sp, #8]
 8008d02:	2200      	movs	r2, #0
 8008d04:	2300      	movs	r3, #0
 8008d06:	f7f7 ff09 	bl	8000b1c <__aeabi_dcmplt>
 8008d0a:	3800      	subs	r0, #0
 8008d0c:	bf18      	it	ne
 8008d0e:	2001      	movne	r0, #1
 8008d10:	f1b9 0f00 	cmp.w	r9, #0
 8008d14:	daec      	bge.n	8008cf0 <__ieee754_pow+0x228>
 8008d16:	e7df      	b.n	8008cd8 <__ieee754_pow+0x210>
 8008d18:	4b10      	ldr	r3, [pc, #64]	@ (8008d5c <__ieee754_pow+0x294>)
 8008d1a:	4598      	cmp	r8, r3
 8008d1c:	f04f 0200 	mov.w	r2, #0
 8008d20:	d924      	bls.n	8008d6c <__ieee754_pow+0x2a4>
 8008d22:	e9dd 0102 	ldrd	r0, r1, [sp, #8]
 8008d26:	2300      	movs	r3, #0
 8008d28:	f7f7 fef8 	bl	8000b1c <__aeabi_dcmplt>
 8008d2c:	3800      	subs	r0, #0
 8008d2e:	bf18      	it	ne
 8008d30:	2001      	movne	r0, #1
 8008d32:	f1b9 0f00 	cmp.w	r9, #0
 8008d36:	dccf      	bgt.n	8008cd8 <__ieee754_pow+0x210>
 8008d38:	e7da      	b.n	8008cf0 <__ieee754_pow+0x228>
 8008d3a:	bf00      	nop
 8008d3c:	f3af 8000 	nop.w
 8008d40:	00000000 	.word	0x00000000
 8008d44:	3ff00000 	.word	0x3ff00000
 8008d48:	00000000 	.word	0x00000000
 8008d4c:	bff00000 	.word	0xbff00000
 8008d50:	fff00000 	.word	0xfff00000
 8008d54:	7ff00000 	.word	0x7ff00000
 8008d58:	433fffff 	.word	0x433fffff
 8008d5c:	3ff00000 	.word	0x3ff00000
 8008d60:	3fefffff 	.word	0x3fefffff
 8008d64:	3fe00000 	.word	0x3fe00000
 8008d68:	43f00000 	.word	0x43f00000
 8008d6c:	4b5a      	ldr	r3, [pc, #360]	@ (8008ed8 <__ieee754_pow+0x410>)
 8008d6e:	f7f7 faab 	bl	80002c8 <__aeabi_dsub>
 8008d72:	a351      	add	r3, pc, #324	@ (adr r3, 8008eb8 <__ieee754_pow+0x3f0>)
 8008d74:	e9d3 2300 	ldrd	r2, r3, [r3]
 8008d78:	4604      	mov	r4, r0
 8008d7a:	460d      	mov	r5, r1
 8008d7c:	f7f7 fc5c 	bl	8000638 <__aeabi_dmul>
 8008d80:	a34f      	add	r3, pc, #316	@ (adr r3, 8008ec0 <__ieee754_pow+0x3f8>)
 8008d82:	e9d3 2300 	ldrd	r2, r3, [r3]
 8008d86:	4606      	mov	r6, r0
 8008d88:	460f      	mov	r7, r1
 8008d8a:	4620      	mov	r0, r4
 8008d8c:	4629      	mov	r1, r5
 8008d8e:	f7f7 fc53 	bl	8000638 <__aeabi_dmul>
 8008d92:	4b52      	ldr	r3, [pc, #328]	@ (8008edc <__ieee754_pow+0x414>)
 8008d94:	4682      	mov	sl, r0
 8008d96:	468b      	mov	fp, r1
 8008d98:	2200      	movs	r2, #0
 8008d9a:	4620      	mov	r0, r4
 8008d9c:	4629      	mov	r1, r5
 8008d9e:	f7f7 fc4b 	bl	8000638 <__aeabi_dmul>
 8008da2:	4602      	mov	r2, r0
 8008da4:	460b      	mov	r3, r1
 8008da6:	a148      	add	r1, pc, #288	@ (adr r1, 8008ec8 <__ieee754_pow+0x400>)
 8008da8:	e9d1 0100 	ldrd	r0, r1, [r1]
 8008dac:	f7f7 fa8c 	bl	80002c8 <__aeabi_dsub>
 8008db0:	4622      	mov	r2, r4
 8008db2:	462b      	mov	r3, r5
 8008db4:	f7f7 fc40 	bl	8000638 <__aeabi_dmul>
 8008db8:	4602      	mov	r2, r0
 8008dba:	460b      	mov	r3, r1
 8008dbc:	2000      	movs	r0, #0
 8008dbe:	4948      	ldr	r1, [pc, #288]	@ (8008ee0 <__ieee754_pow+0x418>)
 8008dc0:	f7f7 fa82 	bl	80002c8 <__aeabi_dsub>
 8008dc4:	4622      	mov	r2, r4
 8008dc6:	4680      	mov	r8, r0
 8008dc8:	4689      	mov	r9, r1
 8008dca:	462b      	mov	r3, r5
 8008dcc:	4620      	mov	r0, r4
 8008dce:	4629      	mov	r1, r5
 8008dd0:	f7f7 fc32 	bl	8000638 <__aeabi_dmul>
 8008dd4:	4602      	mov	r2, r0
 8008dd6:	460b      	mov	r3, r1
 8008dd8:	4640      	mov	r0, r8
 8008dda:	4649      	mov	r1, r9
 8008ddc:	f7f7 fc2c 	bl	8000638 <__aeabi_dmul>
 8008de0:	a33b      	add	r3, pc, #236	@ (adr r3, 8008ed0 <__ieee754_pow+0x408>)
 8008de2:	e9d3 2300 	ldrd	r2, r3, [r3]
 8008de6:	f7f7 fc27 	bl	8000638 <__aeabi_dmul>
 8008dea:	4602      	mov	r2, r0
 8008dec:	460b      	mov	r3, r1
 8008dee:	4650      	mov	r0, sl
 8008df0:	4659      	mov	r1, fp
 8008df2:	f7f7 fa69 	bl	80002c8 <__aeabi_dsub>
 8008df6:	4602      	mov	r2, r0
 8008df8:	460b      	mov	r3, r1
 8008dfa:	4680      	mov	r8, r0
 8008dfc:	4689      	mov	r9, r1
 8008dfe:	4630      	mov	r0, r6
 8008e00:	4639      	mov	r1, r7
 8008e02:	f7f7 fa63 	bl	80002cc <__adddf3>
 8008e06:	2400      	movs	r4, #0
 8008e08:	4632      	mov	r2, r6
 8008e0a:	463b      	mov	r3, r7
 8008e0c:	4620      	mov	r0, r4
 8008e0e:	460d      	mov	r5, r1
 8008e10:	f7f7 fa5a 	bl	80002c8 <__aeabi_dsub>
 8008e14:	4602      	mov	r2, r0
 8008e16:	460b      	mov	r3, r1
 8008e18:	4640      	mov	r0, r8
 8008e1a:	4649      	mov	r1, r9
 8008e1c:	f7f7 fa54 	bl	80002c8 <__aeabi_dsub>
 8008e20:	e9dd 2300 	ldrd	r2, r3, [sp]
 8008e24:	e9cd 2304 	strd	r2, r3, [sp, #16]
 8008e28:	2300      	movs	r3, #0
 8008e2a:	9304      	str	r3, [sp, #16]
 8008e2c:	e9dd ab04 	ldrd	sl, fp, [sp, #16]
 8008e30:	4606      	mov	r6, r0
 8008e32:	460f      	mov	r7, r1
 8008e34:	4652      	mov	r2, sl
 8008e36:	465b      	mov	r3, fp
 8008e38:	e9dd 0100 	ldrd	r0, r1, [sp]
 8008e3c:	f7f7 fa44 	bl	80002c8 <__aeabi_dsub>
 8008e40:	4622      	mov	r2, r4
 8008e42:	462b      	mov	r3, r5
 8008e44:	f7f7 fbf8 	bl	8000638 <__aeabi_dmul>
 8008e48:	e9dd 2300 	ldrd	r2, r3, [sp]
 8008e4c:	4680      	mov	r8, r0
 8008e4e:	4689      	mov	r9, r1
 8008e50:	4630      	mov	r0, r6
 8008e52:	4639      	mov	r1, r7
 8008e54:	f7f7 fbf0 	bl	8000638 <__aeabi_dmul>
 8008e58:	4602      	mov	r2, r0
 8008e5a:	460b      	mov	r3, r1
 8008e5c:	4640      	mov	r0, r8
 8008e5e:	4649      	mov	r1, r9
 8008e60:	f7f7 fa34 	bl	80002cc <__adddf3>
 8008e64:	4652      	mov	r2, sl
 8008e66:	465b      	mov	r3, fp
 8008e68:	4606      	mov	r6, r0
 8008e6a:	460f      	mov	r7, r1
 8008e6c:	4620      	mov	r0, r4
 8008e6e:	4629      	mov	r1, r5
 8008e70:	f7f7 fbe2 	bl	8000638 <__aeabi_dmul>
 8008e74:	460b      	mov	r3, r1
 8008e76:	4602      	mov	r2, r0
 8008e78:	4680      	mov	r8, r0
 8008e7a:	4689      	mov	r9, r1
 8008e7c:	4630      	mov	r0, r6
 8008e7e:	4639      	mov	r1, r7
 8008e80:	f7f7 fa24 	bl	80002cc <__adddf3>
 8008e84:	4b17      	ldr	r3, [pc, #92]	@ (8008ee4 <__ieee754_pow+0x41c>)
 8008e86:	4299      	cmp	r1, r3
 8008e88:	4604      	mov	r4, r0
 8008e8a:	460d      	mov	r5, r1
 8008e8c:	468a      	mov	sl, r1
 8008e8e:	468b      	mov	fp, r1
 8008e90:	f340 82ef 	ble.w	8009472 <__ieee754_pow+0x9aa>
 8008e94:	f101 433f 	add.w	r3, r1, #3204448256	@ 0xbf000000
 8008e98:	f503 03e0 	add.w	r3, r3, #7340032	@ 0x700000
 8008e9c:	4303      	orrs	r3, r0
 8008e9e:	f000 81e8 	beq.w	8009272 <__ieee754_pow+0x7aa>
 8008ea2:	e9dd 0102 	ldrd	r0, r1, [sp, #8]
 8008ea6:	2200      	movs	r2, #0
 8008ea8:	2300      	movs	r3, #0
 8008eaa:	f7f7 fe37 	bl	8000b1c <__aeabi_dcmplt>
 8008eae:	3800      	subs	r0, #0
 8008eb0:	bf18      	it	ne
 8008eb2:	2001      	movne	r0, #1
 8008eb4:	e710      	b.n	8008cd8 <__ieee754_pow+0x210>
 8008eb6:	bf00      	nop
 8008eb8:	60000000 	.word	0x60000000
 8008ebc:	3ff71547 	.word	0x3ff71547
 8008ec0:	f85ddf44 	.word	0xf85ddf44
 8008ec4:	3e54ae0b 	.word	0x3e54ae0b
 8008ec8:	55555555 	.word	0x55555555
 8008ecc:	3fd55555 	.word	0x3fd55555
 8008ed0:	652b82fe 	.word	0x652b82fe
 8008ed4:	3ff71547 	.word	0x3ff71547
 8008ed8:	3ff00000 	.word	0x3ff00000
 8008edc:	3fd00000 	.word	0x3fd00000
 8008ee0:	3fe00000 	.word	0x3fe00000
 8008ee4:	408fffff 	.word	0x408fffff
 8008ee8:	4bd5      	ldr	r3, [pc, #852]	@ (8009240 <__ieee754_pow+0x778>)
 8008eea:	402b      	ands	r3, r5
 8008eec:	2200      	movs	r2, #0
 8008eee:	b92b      	cbnz	r3, 8008efc <__ieee754_pow+0x434>
 8008ef0:	4bd4      	ldr	r3, [pc, #848]	@ (8009244 <__ieee754_pow+0x77c>)
 8008ef2:	f7f7 fba1 	bl	8000638 <__aeabi_dmul>
 8008ef6:	f06f 0234 	mvn.w	r2, #52	@ 0x34
 8008efa:	468b      	mov	fp, r1
 8008efc:	ea4f 532b 	mov.w	r3, fp, asr #20
 8008f00:	f2a3 33ff 	subw	r3, r3, #1023	@ 0x3ff
 8008f04:	4413      	add	r3, r2
 8008f06:	930a      	str	r3, [sp, #40]	@ 0x28
 8008f08:	4bcf      	ldr	r3, [pc, #828]	@ (8009248 <__ieee754_pow+0x780>)
 8008f0a:	f3cb 0b13 	ubfx	fp, fp, #0, #20
 8008f0e:	f04b 557f 	orr.w	r5, fp, #1069547520	@ 0x3fc00000
 8008f12:	459b      	cmp	fp, r3
 8008f14:	f445 1540 	orr.w	r5, r5, #3145728	@ 0x300000
 8008f18:	dd08      	ble.n	8008f2c <__ieee754_pow+0x464>
 8008f1a:	4bcc      	ldr	r3, [pc, #816]	@ (800924c <__ieee754_pow+0x784>)
 8008f1c:	459b      	cmp	fp, r3
 8008f1e:	f340 81a5 	ble.w	800926c <__ieee754_pow+0x7a4>
 8008f22:	9b0a      	ldr	r3, [sp, #40]	@ 0x28
 8008f24:	3301      	adds	r3, #1
 8008f26:	930a      	str	r3, [sp, #40]	@ 0x28
 8008f28:	f5a5 1580 	sub.w	r5, r5, #1048576	@ 0x100000
 8008f2c:	f04f 0a00 	mov.w	sl, #0
 8008f30:	ea4f 03ca 	mov.w	r3, sl, lsl #3
 8008f34:	930b      	str	r3, [sp, #44]	@ 0x2c
 8008f36:	4bc6      	ldr	r3, [pc, #792]	@ (8009250 <__ieee754_pow+0x788>)
 8008f38:	eb03 03ca 	add.w	r3, r3, sl, lsl #3
 8008f3c:	ed93 7b00 	vldr	d7, [r3]
 8008f40:	4629      	mov	r1, r5
 8008f42:	ec53 2b17 	vmov	r2, r3, d7
 8008f46:	ed8d 7b06 	vstr	d7, [sp, #24]
 8008f4a:	e9cd 0108 	strd	r0, r1, [sp, #32]
 8008f4e:	f7f7 f9bb 	bl	80002c8 <__aeabi_dsub>
 8008f52:	e9dd 2308 	ldrd	r2, r3, [sp, #32]
 8008f56:	4606      	mov	r6, r0
 8008f58:	460f      	mov	r7, r1
 8008f5a:	e9dd 0106 	ldrd	r0, r1, [sp, #24]
 8008f5e:	f7f7 f9b5 	bl	80002cc <__adddf3>
 8008f62:	4602      	mov	r2, r0
 8008f64:	460b      	mov	r3, r1
 8008f66:	2000      	movs	r0, #0
 8008f68:	49ba      	ldr	r1, [pc, #744]	@ (8009254 <__ieee754_pow+0x78c>)
 8008f6a:	f7f7 fc8f 	bl	800088c <__aeabi_ddiv>
 8008f6e:	e9cd 010c 	strd	r0, r1, [sp, #48]	@ 0x30
 8008f72:	4602      	mov	r2, r0
 8008f74:	460b      	mov	r3, r1
 8008f76:	4630      	mov	r0, r6
 8008f78:	4639      	mov	r1, r7
 8008f7a:	f7f7 fb5d 	bl	8000638 <__aeabi_dmul>
 8008f7e:	e9cd 0104 	strd	r0, r1, [sp, #16]
 8008f82:	e9dd bc04 	ldrd	fp, ip, [sp, #16]
 8008f86:	106d      	asrs	r5, r5, #1
 8008f88:	f045 5500 	orr.w	r5, r5, #536870912	@ 0x20000000
 8008f8c:	f04f 0b00 	mov.w	fp, #0
 8008f90:	f505 2500 	add.w	r5, r5, #524288	@ 0x80000
 8008f94:	4661      	mov	r1, ip
 8008f96:	2200      	movs	r2, #0
 8008f98:	eb05 438a 	add.w	r3, r5, sl, lsl #18
 8008f9c:	4658      	mov	r0, fp
 8008f9e:	46e1      	mov	r9, ip
 8008fa0:	e9cd bc0e 	strd	fp, ip, [sp, #56]	@ 0x38
 8008fa4:	4614      	mov	r4, r2
 8008fa6:	461d      	mov	r5, r3
 8008fa8:	f7f7 fb46 	bl	8000638 <__aeabi_dmul>
 8008fac:	4602      	mov	r2, r0
 8008fae:	460b      	mov	r3, r1
 8008fb0:	4630      	mov	r0, r6
 8008fb2:	4639      	mov	r1, r7
 8008fb4:	f7f7 f988 	bl	80002c8 <__aeabi_dsub>
 8008fb8:	e9dd 2306 	ldrd	r2, r3, [sp, #24]
 8008fbc:	4606      	mov	r6, r0
 8008fbe:	460f      	mov	r7, r1
 8008fc0:	4620      	mov	r0, r4
 8008fc2:	4629      	mov	r1, r5
 8008fc4:	f7f7 f980 	bl	80002c8 <__aeabi_dsub>
 8008fc8:	4602      	mov	r2, r0
 8008fca:	460b      	mov	r3, r1
 8008fcc:	e9dd 0108 	ldrd	r0, r1, [sp, #32]
 8008fd0:	f7f7 f97a 	bl	80002c8 <__aeabi_dsub>
 8008fd4:	465a      	mov	r2, fp
 8008fd6:	464b      	mov	r3, r9
 8008fd8:	f7f7 fb2e 	bl	8000638 <__aeabi_dmul>
 8008fdc:	4602      	mov	r2, r0
 8008fde:	460b      	mov	r3, r1
 8008fe0:	4630      	mov	r0, r6
 8008fe2:	4639      	mov	r1, r7
 8008fe4:	f7f7 f970 	bl	80002c8 <__aeabi_dsub>
 8008fe8:	e9dd 230c 	ldrd	r2, r3, [sp, #48]	@ 0x30
 8008fec:	f7f7 fb24 	bl	8000638 <__aeabi_dmul>
 8008ff0:	e9dd 2304 	ldrd	r2, r3, [sp, #16]
 8008ff4:	e9cd 0106 	strd	r0, r1, [sp, #24]
 8008ff8:	4610      	mov	r0, r2
 8008ffa:	4619      	mov	r1, r3
 8008ffc:	f7f7 fb1c 	bl	8000638 <__aeabi_dmul>
 8009000:	a37d      	add	r3, pc, #500	@ (adr r3, 80091f8 <__ieee754_pow+0x730>)
 8009002:	e9d3 2300 	ldrd	r2, r3, [r3]
 8009006:	4604      	mov	r4, r0
 8009008:	460d      	mov	r5, r1
 800900a:	f7f7 fb15 	bl	8000638 <__aeabi_dmul>
 800900e:	a37c      	add	r3, pc, #496	@ (adr r3, 8009200 <__ieee754_pow+0x738>)
 8009010:	e9d3 2300 	ldrd	r2, r3, [r3]
 8009014:	f7f7 f95a 	bl	80002cc <__adddf3>
 8009018:	4622      	mov	r2, r4
 800901a:	462b      	mov	r3, r5
 800901c:	f7f7 fb0c 	bl	8000638 <__aeabi_dmul>
 8009020:	a379      	add	r3, pc, #484	@ (adr r3, 8009208 <__ieee754_pow+0x740>)
 8009022:	e9d3 2300 	ldrd	r2, r3, [r3]
 8009026:	f7f7 f951 	bl	80002cc <__adddf3>
 800902a:	4622      	mov	r2, r4
 800902c:	462b      	mov	r3, r5
 800902e:	f7f7 fb03 	bl	8000638 <__aeabi_dmul>
 8009032:	a377      	add	r3, pc, #476	@ (adr r3, 8009210 <__ieee754_pow+0x748>)
 8009034:	e9d3 2300 	ldrd	r2, r3, [r3]
 8009038:	f7f7 f948 	bl	80002cc <__adddf3>
 800903c:	4622      	mov	r2, r4
 800903e:	462b      	mov	r3, r5
 8009040:	f7f7 fafa 	bl	8000638 <__aeabi_dmul>
 8009044:	a374      	add	r3, pc, #464	@ (adr r3, 8009218 <__ieee754_pow+0x750>)
 8009046:	e9d3 2300 	ldrd	r2, r3, [r3]
 800904a:	f7f7 f93f 	bl	80002cc <__adddf3>
 800904e:	4622      	mov	r2, r4
 8009050:	462b      	mov	r3, r5
 8009052:	f7f7 faf1 	bl	8000638 <__aeabi_dmul>
 8009056:	a372      	add	r3, pc, #456	@ (adr r3, 8009220 <__ieee754_pow+0x758>)
 8009058:	e9d3 2300 	ldrd	r2, r3, [r3]
 800905c:	f7f7 f936 	bl	80002cc <__adddf3>
 8009060:	4622      	mov	r2, r4
 8009062:	4606      	mov	r6, r0
 8009064:	460f      	mov	r7, r1
 8009066:	462b      	mov	r3, r5
 8009068:	4620      	mov	r0, r4
 800906a:	4629      	mov	r1, r5
 800906c:	f7f7 fae4 	bl	8000638 <__aeabi_dmul>
 8009070:	4602      	mov	r2, r0
 8009072:	460b      	mov	r3, r1
 8009074:	4630      	mov	r0, r6
 8009076:	4639      	mov	r1, r7
 8009078:	f7f7 fade 	bl	8000638 <__aeabi_dmul>
 800907c:	465a      	mov	r2, fp
 800907e:	4604      	mov	r4, r0
 8009080:	460d      	mov	r5, r1
 8009082:	464b      	mov	r3, r9
 8009084:	e9dd 0104 	ldrd	r0, r1, [sp, #16]
 8009088:	f7f7 f920 	bl	80002cc <__adddf3>
 800908c:	e9dd 2306 	ldrd	r2, r3, [sp, #24]
 8009090:	f7f7 fad2 	bl	8000638 <__aeabi_dmul>
 8009094:	4622      	mov	r2, r4
 8009096:	462b      	mov	r3, r5
 8009098:	f7f7 f918 	bl	80002cc <__adddf3>
 800909c:	465a      	mov	r2, fp
 800909e:	e9cd 0108 	strd	r0, r1, [sp, #32]
 80090a2:	464b      	mov	r3, r9
 80090a4:	4658      	mov	r0, fp
 80090a6:	4649      	mov	r1, r9
 80090a8:	f7f7 fac6 	bl	8000638 <__aeabi_dmul>
 80090ac:	4b6a      	ldr	r3, [pc, #424]	@ (8009258 <__ieee754_pow+0x790>)
 80090ae:	2200      	movs	r2, #0
 80090b0:	4606      	mov	r6, r0
 80090b2:	460f      	mov	r7, r1
 80090b4:	f7f7 f90a 	bl	80002cc <__adddf3>
 80090b8:	e9dd 2308 	ldrd	r2, r3, [sp, #32]
 80090bc:	f7f7 f906 	bl	80002cc <__adddf3>
 80090c0:	46d8      	mov	r8, fp
 80090c2:	e9dd bc0e 	ldrd	fp, ip, [sp, #56]	@ 0x38
 80090c6:	460d      	mov	r5, r1
 80090c8:	465a      	mov	r2, fp
 80090ca:	460b      	mov	r3, r1
 80090cc:	4640      	mov	r0, r8
 80090ce:	4649      	mov	r1, r9
 80090d0:	e9cd bc0c 	strd	fp, ip, [sp, #48]	@ 0x30
 80090d4:	f7f7 fab0 	bl	8000638 <__aeabi_dmul>
 80090d8:	465c      	mov	r4, fp
 80090da:	4680      	mov	r8, r0
 80090dc:	4689      	mov	r9, r1
 80090de:	4b5e      	ldr	r3, [pc, #376]	@ (8009258 <__ieee754_pow+0x790>)
 80090e0:	2200      	movs	r2, #0
 80090e2:	4620      	mov	r0, r4
 80090e4:	4629      	mov	r1, r5
 80090e6:	f7f7 f8ef 	bl	80002c8 <__aeabi_dsub>
 80090ea:	4632      	mov	r2, r6
 80090ec:	463b      	mov	r3, r7
 80090ee:	f7f7 f8eb 	bl	80002c8 <__aeabi_dsub>
 80090f2:	4602      	mov	r2, r0
 80090f4:	460b      	mov	r3, r1
 80090f6:	e9dd 0108 	ldrd	r0, r1, [sp, #32]
 80090fa:	f7f7 f8e5 	bl	80002c8 <__aeabi_dsub>
 80090fe:	e9dd 2304 	ldrd	r2, r3, [sp, #16]
 8009102:	f7f7 fa99 	bl	8000638 <__aeabi_dmul>
 8009106:	4622      	mov	r2, r4
 8009108:	4606      	mov	r6, r0
 800910a:	460f      	mov	r7, r1
 800910c:	462b      	mov	r3, r5
 800910e:	e9dd 0106 	ldrd	r0, r1, [sp, #24]
 8009112:	f7f7 fa91 	bl	8000638 <__aeabi_dmul>
 8009116:	4602      	mov	r2, r0
 8009118:	460b      	mov	r3, r1
 800911a:	4630      	mov	r0, r6
 800911c:	4639      	mov	r1, r7
 800911e:	f7f7 f8d5 	bl	80002cc <__adddf3>
 8009122:	4606      	mov	r6, r0
 8009124:	460f      	mov	r7, r1
 8009126:	4602      	mov	r2, r0
 8009128:	460b      	mov	r3, r1
 800912a:	4640      	mov	r0, r8
 800912c:	4649      	mov	r1, r9
 800912e:	f7f7 f8cd 	bl	80002cc <__adddf3>
 8009132:	e9dd bc0c 	ldrd	fp, ip, [sp, #48]	@ 0x30
 8009136:	a33c      	add	r3, pc, #240	@ (adr r3, 8009228 <__ieee754_pow+0x760>)
 8009138:	e9d3 2300 	ldrd	r2, r3, [r3]
 800913c:	4658      	mov	r0, fp
 800913e:	e9cd bc08 	strd	fp, ip, [sp, #32]
 8009142:	460d      	mov	r5, r1
 8009144:	f7f7 fa78 	bl	8000638 <__aeabi_dmul>
 8009148:	465c      	mov	r4, fp
 800914a:	e9cd 0104 	strd	r0, r1, [sp, #16]
 800914e:	4642      	mov	r2, r8
 8009150:	464b      	mov	r3, r9
 8009152:	4620      	mov	r0, r4
 8009154:	4629      	mov	r1, r5
 8009156:	f7f7 f8b7 	bl	80002c8 <__aeabi_dsub>
 800915a:	4602      	mov	r2, r0
 800915c:	460b      	mov	r3, r1
 800915e:	4630      	mov	r0, r6
 8009160:	4639      	mov	r1, r7
 8009162:	f7f7 f8b1 	bl	80002c8 <__aeabi_dsub>
 8009166:	a332      	add	r3, pc, #200	@ (adr r3, 8009230 <__ieee754_pow+0x768>)
 8009168:	e9d3 2300 	ldrd	r2, r3, [r3]
 800916c:	f7f7 fa64 	bl	8000638 <__aeabi_dmul>
 8009170:	a331      	add	r3, pc, #196	@ (adr r3, 8009238 <__ieee754_pow+0x770>)
 8009172:	e9d3 2300 	ldrd	r2, r3, [r3]
 8009176:	4606      	mov	r6, r0
 8009178:	460f      	mov	r7, r1
 800917a:	4620      	mov	r0, r4
 800917c:	4629      	mov	r1, r5
 800917e:	f7f7 fa5b 	bl	8000638 <__aeabi_dmul>
 8009182:	4602      	mov	r2, r0
 8009184:	460b      	mov	r3, r1
 8009186:	4630      	mov	r0, r6
 8009188:	4639      	mov	r1, r7
 800918a:	f7f7 f89f 	bl	80002cc <__adddf3>
 800918e:	9a0b      	ldr	r2, [sp, #44]	@ 0x2c
 8009190:	4b32      	ldr	r3, [pc, #200]	@ (800925c <__ieee754_pow+0x794>)
 8009192:	4413      	add	r3, r2
 8009194:	e9d3 2300 	ldrd	r2, r3, [r3]
 8009198:	f7f7 f898 	bl	80002cc <__adddf3>
 800919c:	e9cd 0106 	strd	r0, r1, [sp, #24]
 80091a0:	980a      	ldr	r0, [sp, #40]	@ 0x28
 80091a2:	f7f7 f9df 	bl	8000564 <__aeabi_i2d>
 80091a6:	9a0b      	ldr	r2, [sp, #44]	@ 0x2c
 80091a8:	4b2d      	ldr	r3, [pc, #180]	@ (8009260 <__ieee754_pow+0x798>)
 80091aa:	4413      	add	r3, r2
 80091ac:	e9d3 8900 	ldrd	r8, r9, [r3]
 80091b0:	4606      	mov	r6, r0
 80091b2:	e9dd 2306 	ldrd	r2, r3, [sp, #24]
 80091b6:	460f      	mov	r7, r1
 80091b8:	e9dd 0104 	ldrd	r0, r1, [sp, #16]
 80091bc:	f7f7 f886 	bl	80002cc <__adddf3>
 80091c0:	4642      	mov	r2, r8
 80091c2:	464b      	mov	r3, r9
 80091c4:	f7f7 f882 	bl	80002cc <__adddf3>
 80091c8:	4632      	mov	r2, r6
 80091ca:	463b      	mov	r3, r7
 80091cc:	f7f7 f87e 	bl	80002cc <__adddf3>
 80091d0:	e9dd bc08 	ldrd	fp, ip, [sp, #32]
 80091d4:	4632      	mov	r2, r6
 80091d6:	463b      	mov	r3, r7
 80091d8:	4658      	mov	r0, fp
 80091da:	460d      	mov	r5, r1
 80091dc:	f7f7 f874 	bl	80002c8 <__aeabi_dsub>
 80091e0:	4642      	mov	r2, r8
 80091e2:	464b      	mov	r3, r9
 80091e4:	f7f7 f870 	bl	80002c8 <__aeabi_dsub>
 80091e8:	e9dd 2304 	ldrd	r2, r3, [sp, #16]
 80091ec:	f7f7 f86c 	bl	80002c8 <__aeabi_dsub>
 80091f0:	465c      	mov	r4, fp
 80091f2:	4602      	mov	r2, r0
 80091f4:	e036      	b.n	8009264 <__ieee754_pow+0x79c>
 80091f6:	bf00      	nop
 80091f8:	4a454eef 	.word	0x4a454eef
 80091fc:	3fca7e28 	.word	0x3fca7e28
 8009200:	93c9db65 	.word	0x93c9db65
 8009204:	3fcd864a 	.word	0x3fcd864a
 8009208:	a91d4101 	.word	0xa91d4101
 800920c:	3fd17460 	.word	0x3fd17460
 8009210:	518f264d 	.word	0x518f264d
 8009214:	3fd55555 	.word	0x3fd55555
 8009218:	db6fabff 	.word	0xdb6fabff
 800921c:	3fdb6db6 	.word	0x3fdb6db6
 8009220:	33333303 	.word	0x33333303
 8009224:	3fe33333 	.word	0x3fe33333
 8009228:	e0000000 	.word	0xe0000000
 800922c:	3feec709 	.word	0x3feec709
 8009230:	dc3a03fd 	.word	0xdc3a03fd
 8009234:	3feec709 	.word	0x3feec709
 8009238:	145b01f5 	.word	0x145b01f5
 800923c:	be3e2fe0 	.word	0xbe3e2fe0
 8009240:	7ff00000 	.word	0x7ff00000
 8009244:	43400000 	.word	0x43400000
 8009248:	0003988e 	.word	0x0003988e
 800924c:	000bb679 	.word	0x000bb679
 8009250:	08009db0 	.word	0x08009db0
 8009254:	3ff00000 	.word	0x3ff00000
 8009258:	40080000 	.word	0x40080000
 800925c:	08009d90 	.word	0x08009d90
 8009260:	08009da0 	.word	0x08009da0
 8009264:	460b      	mov	r3, r1
 8009266:	e9dd 0106 	ldrd	r0, r1, [sp, #24]
 800926a:	e5d7      	b.n	8008e1c <__ieee754_pow+0x354>
 800926c:	f04f 0a01 	mov.w	sl, #1
 8009270:	e65e      	b.n	8008f30 <__ieee754_pow+0x468>
 8009272:	a3b4      	add	r3, pc, #720	@ (adr r3, 8009544 <__ieee754_pow+0xa7c>)
 8009274:	e9d3 2300 	ldrd	r2, r3, [r3]
 8009278:	4630      	mov	r0, r6
 800927a:	4639      	mov	r1, r7
 800927c:	f7f7 f826 	bl	80002cc <__adddf3>
 8009280:	4642      	mov	r2, r8
 8009282:	e9cd 0100 	strd	r0, r1, [sp]
 8009286:	464b      	mov	r3, r9
 8009288:	4620      	mov	r0, r4
 800928a:	4629      	mov	r1, r5
 800928c:	f7f7 f81c 	bl	80002c8 <__aeabi_dsub>
 8009290:	4602      	mov	r2, r0
 8009292:	460b      	mov	r3, r1
 8009294:	e9dd 0100 	ldrd	r0, r1, [sp]
 8009298:	f7f7 fc5e 	bl	8000b58 <__aeabi_dcmpgt>
 800929c:	2800      	cmp	r0, #0
 800929e:	f47f ae00 	bne.w	8008ea2 <__ieee754_pow+0x3da>
 80092a2:	ea4f 5a2a 	mov.w	sl, sl, asr #20
 80092a6:	f44f 1380 	mov.w	r3, #1048576	@ 0x100000
 80092aa:	f2aa 3afe 	subw	sl, sl, #1022	@ 0x3fe
 80092ae:	fa43 fa0a 	asr.w	sl, r3, sl
 80092b2:	44da      	add	sl, fp
 80092b4:	f3ca 510a 	ubfx	r1, sl, #20, #11
 80092b8:	489d      	ldr	r0, [pc, #628]	@ (8009530 <__ieee754_pow+0xa68>)
 80092ba:	f2a1 31ff 	subw	r1, r1, #1023	@ 0x3ff
 80092be:	4108      	asrs	r0, r1
 80092c0:	ea00 030a 	and.w	r3, r0, sl
 80092c4:	f3ca 0a13 	ubfx	sl, sl, #0, #20
 80092c8:	f1c1 0114 	rsb	r1, r1, #20
 80092cc:	f44a 1a80 	orr.w	sl, sl, #1048576	@ 0x100000
 80092d0:	fa4a fa01 	asr.w	sl, sl, r1
 80092d4:	f1bb 0f00 	cmp.w	fp, #0
 80092d8:	4640      	mov	r0, r8
 80092da:	4649      	mov	r1, r9
 80092dc:	f04f 0200 	mov.w	r2, #0
 80092e0:	bfb8      	it	lt
 80092e2:	f1ca 0a00 	rsblt	sl, sl, #0
 80092e6:	f7f6 ffef 	bl	80002c8 <__aeabi_dsub>
 80092ea:	4680      	mov	r8, r0
 80092ec:	4689      	mov	r9, r1
 80092ee:	4632      	mov	r2, r6
 80092f0:	463b      	mov	r3, r7
 80092f2:	4640      	mov	r0, r8
 80092f4:	4649      	mov	r1, r9
 80092f6:	f7f6 ffe9 	bl	80002cc <__adddf3>
 80092fa:	2400      	movs	r4, #0
 80092fc:	a37c      	add	r3, pc, #496	@ (adr r3, 80094f0 <__ieee754_pow+0xa28>)
 80092fe:	e9d3 2300 	ldrd	r2, r3, [r3]
 8009302:	4620      	mov	r0, r4
 8009304:	460d      	mov	r5, r1
 8009306:	f7f7 f997 	bl	8000638 <__aeabi_dmul>
 800930a:	4642      	mov	r2, r8
 800930c:	e9cd 0100 	strd	r0, r1, [sp]
 8009310:	464b      	mov	r3, r9
 8009312:	4620      	mov	r0, r4
 8009314:	4629      	mov	r1, r5
 8009316:	f7f6 ffd7 	bl	80002c8 <__aeabi_dsub>
 800931a:	4602      	mov	r2, r0
 800931c:	460b      	mov	r3, r1
 800931e:	4630      	mov	r0, r6
 8009320:	4639      	mov	r1, r7
 8009322:	f7f6 ffd1 	bl	80002c8 <__aeabi_dsub>
 8009326:	a374      	add	r3, pc, #464	@ (adr r3, 80094f8 <__ieee754_pow+0xa30>)
 8009328:	e9d3 2300 	ldrd	r2, r3, [r3]
 800932c:	f7f7 f984 	bl	8000638 <__aeabi_dmul>
 8009330:	a373      	add	r3, pc, #460	@ (adr r3, 8009500 <__ieee754_pow+0xa38>)
 8009332:	e9d3 2300 	ldrd	r2, r3, [r3]
 8009336:	4680      	mov	r8, r0
 8009338:	4689      	mov	r9, r1
 800933a:	4620      	mov	r0, r4
 800933c:	4629      	mov	r1, r5
 800933e:	f7f7 f97b 	bl	8000638 <__aeabi_dmul>
 8009342:	4602      	mov	r2, r0
 8009344:	460b      	mov	r3, r1
 8009346:	4640      	mov	r0, r8
 8009348:	4649      	mov	r1, r9
 800934a:	f7f6 ffbf 	bl	80002cc <__adddf3>
 800934e:	4604      	mov	r4, r0
 8009350:	460d      	mov	r5, r1
 8009352:	4602      	mov	r2, r0
 8009354:	460b      	mov	r3, r1
 8009356:	e9dd 0100 	ldrd	r0, r1, [sp]
 800935a:	f7f6 ffb7 	bl	80002cc <__adddf3>
 800935e:	e9dd 2300 	ldrd	r2, r3, [sp]
 8009362:	4680      	mov	r8, r0
 8009364:	4689      	mov	r9, r1
 8009366:	f7f6 ffaf 	bl	80002c8 <__aeabi_dsub>
 800936a:	4602      	mov	r2, r0
 800936c:	460b      	mov	r3, r1
 800936e:	4620      	mov	r0, r4
 8009370:	4629      	mov	r1, r5
 8009372:	f7f6 ffa9 	bl	80002c8 <__aeabi_dsub>
 8009376:	4642      	mov	r2, r8
 8009378:	4606      	mov	r6, r0
 800937a:	460f      	mov	r7, r1
 800937c:	464b      	mov	r3, r9
 800937e:	4640      	mov	r0, r8
 8009380:	4649      	mov	r1, r9
 8009382:	f7f7 f959 	bl	8000638 <__aeabi_dmul>
 8009386:	a360      	add	r3, pc, #384	@ (adr r3, 8009508 <__ieee754_pow+0xa40>)
 8009388:	e9d3 2300 	ldrd	r2, r3, [r3]
 800938c:	4604      	mov	r4, r0
 800938e:	460d      	mov	r5, r1
 8009390:	f7f7 f952 	bl	8000638 <__aeabi_dmul>
 8009394:	a35e      	add	r3, pc, #376	@ (adr r3, 8009510 <__ieee754_pow+0xa48>)
 8009396:	e9d3 2300 	ldrd	r2, r3, [r3]
 800939a:	f7f6 ff95 	bl	80002c8 <__aeabi_dsub>
 800939e:	4622      	mov	r2, r4
 80093a0:	462b      	mov	r3, r5
 80093a2:	f7f7 f949 	bl	8000638 <__aeabi_dmul>
 80093a6:	a35c      	add	r3, pc, #368	@ (adr r3, 8009518 <__ieee754_pow+0xa50>)
 80093a8:	e9d3 2300 	ldrd	r2, r3, [r3]
 80093ac:	f7f6 ff8e 	bl	80002cc <__adddf3>
 80093b0:	4622      	mov	r2, r4
 80093b2:	462b      	mov	r3, r5
 80093b4:	f7f7 f940 	bl	8000638 <__aeabi_dmul>
 80093b8:	a359      	add	r3, pc, #356	@ (adr r3, 8009520 <__ieee754_pow+0xa58>)
 80093ba:	e9d3 2300 	ldrd	r2, r3, [r3]
 80093be:	f7f6 ff83 	bl	80002c8 <__aeabi_dsub>
 80093c2:	4622      	mov	r2, r4
 80093c4:	462b      	mov	r3, r5
 80093c6:	f7f7 f937 	bl	8000638 <__aeabi_dmul>
 80093ca:	a357      	add	r3, pc, #348	@ (adr r3, 8009528 <__ieee754_pow+0xa60>)
 80093cc:	e9d3 2300 	ldrd	r2, r3, [r3]
 80093d0:	f7f6 ff7c 	bl	80002cc <__adddf3>
 80093d4:	4622      	mov	r2, r4
 80093d6:	462b      	mov	r3, r5
 80093d8:	f7f7 f92e 	bl	8000638 <__aeabi_dmul>
 80093dc:	4602      	mov	r2, r0
 80093de:	460b      	mov	r3, r1
 80093e0:	4640      	mov	r0, r8
 80093e2:	4649      	mov	r1, r9
 80093e4:	f7f6 ff70 	bl	80002c8 <__aeabi_dsub>
 80093e8:	4604      	mov	r4, r0
 80093ea:	460d      	mov	r5, r1
 80093ec:	4602      	mov	r2, r0
 80093ee:	460b      	mov	r3, r1
 80093f0:	4640      	mov	r0, r8
 80093f2:	4649      	mov	r1, r9
 80093f4:	f7f7 f920 	bl	8000638 <__aeabi_dmul>
 80093f8:	2200      	movs	r2, #0
 80093fa:	e9cd 0100 	strd	r0, r1, [sp]
 80093fe:	f04f 4380 	mov.w	r3, #1073741824	@ 0x40000000
 8009402:	4620      	mov	r0, r4
 8009404:	4629      	mov	r1, r5
 8009406:	f7f6 ff5f 	bl	80002c8 <__aeabi_dsub>
 800940a:	4602      	mov	r2, r0
 800940c:	460b      	mov	r3, r1
 800940e:	e9dd 0100 	ldrd	r0, r1, [sp]
 8009412:	f7f7 fa3b 	bl	800088c <__aeabi_ddiv>
 8009416:	4632      	mov	r2, r6
 8009418:	4604      	mov	r4, r0
 800941a:	460d      	mov	r5, r1
 800941c:	463b      	mov	r3, r7
 800941e:	4640      	mov	r0, r8
 8009420:	4649      	mov	r1, r9
 8009422:	f7f7 f909 	bl	8000638 <__aeabi_dmul>
 8009426:	4632      	mov	r2, r6
 8009428:	463b      	mov	r3, r7
 800942a:	f7f6 ff4f 	bl	80002cc <__adddf3>
 800942e:	4602      	mov	r2, r0
 8009430:	460b      	mov	r3, r1
 8009432:	4620      	mov	r0, r4
 8009434:	4629      	mov	r1, r5
 8009436:	f7f6 ff47 	bl	80002c8 <__aeabi_dsub>
 800943a:	4642      	mov	r2, r8
 800943c:	464b      	mov	r3, r9
 800943e:	f7f6 ff43 	bl	80002c8 <__aeabi_dsub>
 8009442:	460b      	mov	r3, r1
 8009444:	4602      	mov	r2, r0
 8009446:	493b      	ldr	r1, [pc, #236]	@ (8009534 <__ieee754_pow+0xa6c>)
 8009448:	2000      	movs	r0, #0
 800944a:	f7f6 ff3d 	bl	80002c8 <__aeabi_dsub>
 800944e:	ec41 0b10 	vmov	d0, r0, r1
 8009452:	ee10 3a90 	vmov	r3, s1
 8009456:	eb03 530a 	add.w	r3, r3, sl, lsl #20
 800945a:	f5b3 1f80 	cmp.w	r3, #1048576	@ 0x100000
 800945e:	da30      	bge.n	80094c2 <__ieee754_pow+0x9fa>
 8009460:	4650      	mov	r0, sl
 8009462:	f000 f8b9 	bl	80095d8 <scalbn>
 8009466:	ec51 0b10 	vmov	r0, r1, d0
 800946a:	e9dd 2302 	ldrd	r2, r3, [sp, #8]
 800946e:	f7ff bbd2 	b.w	8008c16 <__ieee754_pow+0x14e>
 8009472:	4c31      	ldr	r4, [pc, #196]	@ (8009538 <__ieee754_pow+0xa70>)
 8009474:	f021 4300 	bic.w	r3, r1, #2147483648	@ 0x80000000
 8009478:	42a3      	cmp	r3, r4
 800947a:	d91a      	bls.n	80094b2 <__ieee754_pow+0x9ea>
 800947c:	4b2f      	ldr	r3, [pc, #188]	@ (800953c <__ieee754_pow+0xa74>)
 800947e:	440b      	add	r3, r1
 8009480:	4303      	orrs	r3, r0
 8009482:	d009      	beq.n	8009498 <__ieee754_pow+0x9d0>
 8009484:	e9dd 0102 	ldrd	r0, r1, [sp, #8]
 8009488:	2200      	movs	r2, #0
 800948a:	2300      	movs	r3, #0
 800948c:	f7f7 fb46 	bl	8000b1c <__aeabi_dcmplt>
 8009490:	3800      	subs	r0, #0
 8009492:	bf18      	it	ne
 8009494:	2001      	movne	r0, #1
 8009496:	e42b      	b.n	8008cf0 <__ieee754_pow+0x228>
 8009498:	4642      	mov	r2, r8
 800949a:	464b      	mov	r3, r9
 800949c:	f7f6 ff14 	bl	80002c8 <__aeabi_dsub>
 80094a0:	4632      	mov	r2, r6
 80094a2:	463b      	mov	r3, r7
 80094a4:	f7f7 fb4e 	bl	8000b44 <__aeabi_dcmpge>
 80094a8:	2800      	cmp	r0, #0
 80094aa:	d1eb      	bne.n	8009484 <__ieee754_pow+0x9bc>
 80094ac:	f8df a09c 	ldr.w	sl, [pc, #156]	@ 800954c <__ieee754_pow+0xa84>
 80094b0:	e6f7      	b.n	80092a2 <__ieee754_pow+0x7da>
 80094b2:	469a      	mov	sl, r3
 80094b4:	4b22      	ldr	r3, [pc, #136]	@ (8009540 <__ieee754_pow+0xa78>)
 80094b6:	459a      	cmp	sl, r3
 80094b8:	f63f aef3 	bhi.w	80092a2 <__ieee754_pow+0x7da>
 80094bc:	f8dd a010 	ldr.w	sl, [sp, #16]
 80094c0:	e715      	b.n	80092ee <__ieee754_pow+0x826>
 80094c2:	ec51 0b10 	vmov	r0, r1, d0
 80094c6:	4619      	mov	r1, r3
 80094c8:	e7cf      	b.n	800946a <__ieee754_pow+0x9a2>
 80094ca:	491a      	ldr	r1, [pc, #104]	@ (8009534 <__ieee754_pow+0xa6c>)
 80094cc:	2000      	movs	r0, #0
 80094ce:	f7ff bb18 	b.w	8008b02 <__ieee754_pow+0x3a>
 80094d2:	2000      	movs	r0, #0
 80094d4:	2100      	movs	r1, #0
 80094d6:	f7ff bb14 	b.w	8008b02 <__ieee754_pow+0x3a>
 80094da:	4630      	mov	r0, r6
 80094dc:	4639      	mov	r1, r7
 80094de:	f7ff bb10 	b.w	8008b02 <__ieee754_pow+0x3a>
 80094e2:	460c      	mov	r4, r1
 80094e4:	f7ff bb5e 	b.w	8008ba4 <__ieee754_pow+0xdc>
 80094e8:	2400      	movs	r4, #0
 80094ea:	f7ff bb49 	b.w	8008b80 <__ieee754_pow+0xb8>
 80094ee:	bf00      	nop
 80094f0:	00000000 	.word	0x00000000
 80094f4:	3fe62e43 	.word	0x3fe62e43
 80094f8:	fefa39ef 	.word	0xfefa39ef
 80094fc:	3fe62e42 	.word	0x3fe62e42
 8009500:	0ca86c39 	.word	0x0ca86c39
 8009504:	be205c61 	.word	0xbe205c61
 8009508:	72bea4d0 	.word	0x72bea4d0
 800950c:	3e663769 	.word	0x3e663769
 8009510:	c5d26bf1 	.word	0xc5d26bf1
 8009514:	3ebbbd41 	.word	0x3ebbbd41
 8009518:	af25de2c 	.word	0xaf25de2c
 800951c:	3f11566a 	.word	0x3f11566a
 8009520:	16bebd93 	.word	0x16bebd93
 8009524:	3f66c16c 	.word	0x3f66c16c
 8009528:	5555553e 	.word	0x5555553e
 800952c:	3fc55555 	.word	0x3fc55555
 8009530:	fff00000 	.word	0xfff00000
 8009534:	3ff00000 	.word	0x3ff00000
 8009538:	4090cbff 	.word	0x4090cbff
 800953c:	3f6f3400 	.word	0x3f6f3400
 8009540:	3fe00000 	.word	0x3fe00000
 8009544:	652b82fe 	.word	0x652b82fe
 8009548:	3c971547 	.word	0x3c971547
 800954c:	4090cc00 	.word	0x4090cc00

08009550 <with_errno>:
 8009550:	b510      	push	{r4, lr}
 8009552:	ed2d 8b02 	vpush	{d8}
 8009556:	eeb0 8a40 	vmov.f32	s16, s0
 800955a:	eef0 8a60 	vmov.f32	s17, s1
 800955e:	4604      	mov	r4, r0
 8009560:	f7fd f932 	bl	80067c8 <__errno>
 8009564:	eeb0 0a48 	vmov.f32	s0, s16
 8009568:	eef0 0a68 	vmov.f32	s1, s17
 800956c:	ecbd 8b02 	vpop	{d8}
 8009570:	6004      	str	r4, [r0, #0]
 8009572:	bd10      	pop	{r4, pc}

08009574 <xflow>:
 8009574:	4603      	mov	r3, r0
 8009576:	b507      	push	{r0, r1, r2, lr}
 8009578:	ec51 0b10 	vmov	r0, r1, d0
 800957c:	b183      	cbz	r3, 80095a0 <xflow+0x2c>
 800957e:	4602      	mov	r2, r0
 8009580:	f101 4300 	add.w	r3, r1, #2147483648	@ 0x80000000
 8009584:	e9cd 2300 	strd	r2, r3, [sp]
 8009588:	e9dd 2300 	ldrd	r2, r3, [sp]
 800958c:	f7f7 f854 	bl	8000638 <__aeabi_dmul>
 8009590:	ec41 0b10 	vmov	d0, r0, r1
 8009594:	2022      	movs	r0, #34	@ 0x22
 8009596:	b003      	add	sp, #12
 8009598:	f85d eb04 	ldr.w	lr, [sp], #4
 800959c:	f7ff bfd8 	b.w	8009550 <with_errno>
 80095a0:	4602      	mov	r2, r0
 80095a2:	460b      	mov	r3, r1
 80095a4:	e7ee      	b.n	8009584 <xflow+0x10>
	...

080095a8 <__math_uflow>:
 80095a8:	ed9f 0b01 	vldr	d0, [pc, #4]	@ 80095b0 <__math_uflow+0x8>
 80095ac:	f7ff bfe2 	b.w	8009574 <xflow>
 80095b0:	00000000 	.word	0x00000000
 80095b4:	10000000 	.word	0x10000000

080095b8 <__math_oflow>:
 80095b8:	ed9f 0b01 	vldr	d0, [pc, #4]	@ 80095c0 <__math_oflow+0x8>
 80095bc:	f7ff bfda 	b.w	8009574 <xflow>
 80095c0:	00000000 	.word	0x00000000
 80095c4:	70000000 	.word	0x70000000

080095c8 <fabs>:
 80095c8:	ec51 0b10 	vmov	r0, r1, d0
 80095cc:	4602      	mov	r2, r0
 80095ce:	f021 4300 	bic.w	r3, r1, #2147483648	@ 0x80000000
 80095d2:	ec43 2b10 	vmov	d0, r2, r3
 80095d6:	4770      	bx	lr

080095d8 <scalbn>:
 80095d8:	b570      	push	{r4, r5, r6, lr}
 80095da:	ec55 4b10 	vmov	r4, r5, d0
 80095de:	f3c5 510a 	ubfx	r1, r5, #20, #11
 80095e2:	4606      	mov	r6, r0
 80095e4:	462b      	mov	r3, r5
 80095e6:	b991      	cbnz	r1, 800960e <scalbn+0x36>
 80095e8:	f025 4300 	bic.w	r3, r5, #2147483648	@ 0x80000000
 80095ec:	4323      	orrs	r3, r4
 80095ee:	d03d      	beq.n	800966c <scalbn+0x94>
 80095f0:	4b35      	ldr	r3, [pc, #212]	@ (80096c8 <scalbn+0xf0>)
 80095f2:	4620      	mov	r0, r4
 80095f4:	4629      	mov	r1, r5
 80095f6:	2200      	movs	r2, #0
 80095f8:	f7f7 f81e 	bl	8000638 <__aeabi_dmul>
 80095fc:	4b33      	ldr	r3, [pc, #204]	@ (80096cc <scalbn+0xf4>)
 80095fe:	429e      	cmp	r6, r3
 8009600:	4604      	mov	r4, r0
 8009602:	460d      	mov	r5, r1
 8009604:	da0f      	bge.n	8009626 <scalbn+0x4e>
 8009606:	a328      	add	r3, pc, #160	@ (adr r3, 80096a8 <scalbn+0xd0>)
 8009608:	e9d3 2300 	ldrd	r2, r3, [r3]
 800960c:	e01e      	b.n	800964c <scalbn+0x74>
 800960e:	f240 72ff 	movw	r2, #2047	@ 0x7ff
 8009612:	4291      	cmp	r1, r2
 8009614:	d10b      	bne.n	800962e <scalbn+0x56>
 8009616:	4622      	mov	r2, r4
 8009618:	4620      	mov	r0, r4
 800961a:	4629      	mov	r1, r5
 800961c:	f7f6 fe56 	bl	80002cc <__adddf3>
 8009620:	4604      	mov	r4, r0
 8009622:	460d      	mov	r5, r1
 8009624:	e022      	b.n	800966c <scalbn+0x94>
 8009626:	460b      	mov	r3, r1
 8009628:	f3c1 510a 	ubfx	r1, r1, #20, #11
 800962c:	3936      	subs	r1, #54	@ 0x36
 800962e:	f24c 3250 	movw	r2, #50000	@ 0xc350
 8009632:	4296      	cmp	r6, r2
 8009634:	dd0d      	ble.n	8009652 <scalbn+0x7a>
 8009636:	2d00      	cmp	r5, #0
 8009638:	a11d      	add	r1, pc, #116	@ (adr r1, 80096b0 <scalbn+0xd8>)
 800963a:	e9d1 0100 	ldrd	r0, r1, [r1]
 800963e:	da02      	bge.n	8009646 <scalbn+0x6e>
 8009640:	a11d      	add	r1, pc, #116	@ (adr r1, 80096b8 <scalbn+0xe0>)
 8009642:	e9d1 0100 	ldrd	r0, r1, [r1]
 8009646:	a31a      	add	r3, pc, #104	@ (adr r3, 80096b0 <scalbn+0xd8>)
 8009648:	e9d3 2300 	ldrd	r2, r3, [r3]
 800964c:	f7f6 fff4 	bl	8000638 <__aeabi_dmul>
 8009650:	e7e6      	b.n	8009620 <scalbn+0x48>
 8009652:	1872      	adds	r2, r6, r1
 8009654:	f240 71fe 	movw	r1, #2046	@ 0x7fe
 8009658:	428a      	cmp	r2, r1
 800965a:	dcec      	bgt.n	8009636 <scalbn+0x5e>
 800965c:	2a00      	cmp	r2, #0
 800965e:	dd08      	ble.n	8009672 <scalbn+0x9a>
 8009660:	f023 43ff 	bic.w	r3, r3, #2139095040	@ 0x7f800000
 8009664:	f423 03e0 	bic.w	r3, r3, #7340032	@ 0x700000
 8009668:	ea43 5502 	orr.w	r5, r3, r2, lsl #20
 800966c:	ec45 4b10 	vmov	d0, r4, r5
 8009670:	bd70      	pop	{r4, r5, r6, pc}
 8009672:	f112 0f35 	cmn.w	r2, #53	@ 0x35
 8009676:	da08      	bge.n	800968a <scalbn+0xb2>
 8009678:	2d00      	cmp	r5, #0
 800967a:	a10b      	add	r1, pc, #44	@ (adr r1, 80096a8 <scalbn+0xd0>)
 800967c:	e9d1 0100 	ldrd	r0, r1, [r1]
 8009680:	dac1      	bge.n	8009606 <scalbn+0x2e>
 8009682:	a10f      	add	r1, pc, #60	@ (adr r1, 80096c0 <scalbn+0xe8>)
 8009684:	e9d1 0100 	ldrd	r0, r1, [r1]
 8009688:	e7bd      	b.n	8009606 <scalbn+0x2e>
 800968a:	f023 43ff 	bic.w	r3, r3, #2139095040	@ 0x7f800000
 800968e:	3236      	adds	r2, #54	@ 0x36
 8009690:	f423 03e0 	bic.w	r3, r3, #7340032	@ 0x700000
 8009694:	ea43 5502 	orr.w	r5, r3, r2, lsl #20
 8009698:	4620      	mov	r0, r4
 800969a:	4b0d      	ldr	r3, [pc, #52]	@ (80096d0 <scalbn+0xf8>)
 800969c:	4629      	mov	r1, r5
 800969e:	2200      	movs	r2, #0
 80096a0:	e7d4      	b.n	800964c <scalbn+0x74>
 80096a2:	bf00      	nop
 80096a4:	f3af 8000 	nop.w
 80096a8:	c2f8f359 	.word	0xc2f8f359
 80096ac:	01a56e1f 	.word	0x01a56e1f
 80096b0:	8800759c 	.word	0x8800759c
 80096b4:	7e37e43c 	.word	0x7e37e43c
 80096b8:	8800759c 	.word	0x8800759c
 80096bc:	fe37e43c 	.word	0xfe37e43c
 80096c0:	c2f8f359 	.word	0xc2f8f359
 80096c4:	81a56e1f 	.word	0x81a56e1f
 80096c8:	43500000 	.word	0x43500000
 80096cc:	ffff3cb0 	.word	0xffff3cb0
 80096d0:	3c900000 	.word	0x3c900000

080096d4 <__ieee754_sqrt>:
 80096d4:	e92d 4ff8 	stmdb	sp!, {r3, r4, r5, r6, r7, r8, r9, sl, fp, lr}
 80096d8:	4a68      	ldr	r2, [pc, #416]	@ (800987c <__ieee754_sqrt+0x1a8>)
 80096da:	ec55 4b10 	vmov	r4, r5, d0
 80096de:	43aa      	bics	r2, r5
 80096e0:	462b      	mov	r3, r5
 80096e2:	4621      	mov	r1, r4
 80096e4:	d110      	bne.n	8009708 <__ieee754_sqrt+0x34>
 80096e6:	4622      	mov	r2, r4
 80096e8:	4620      	mov	r0, r4
 80096ea:	4629      	mov	r1, r5
 80096ec:	f7f6 ffa4 	bl	8000638 <__aeabi_dmul>
 80096f0:	4602      	mov	r2, r0
 80096f2:	460b      	mov	r3, r1
 80096f4:	4620      	mov	r0, r4
 80096f6:	4629      	mov	r1, r5
 80096f8:	f7f6 fde8 	bl	80002cc <__adddf3>
 80096fc:	4604      	mov	r4, r0
 80096fe:	460d      	mov	r5, r1
 8009700:	ec45 4b10 	vmov	d0, r4, r5
 8009704:	e8bd 8ff8 	ldmia.w	sp!, {r3, r4, r5, r6, r7, r8, r9, sl, fp, pc}
 8009708:	2d00      	cmp	r5, #0
 800970a:	dc0e      	bgt.n	800972a <__ieee754_sqrt+0x56>
 800970c:	f025 4200 	bic.w	r2, r5, #2147483648	@ 0x80000000
 8009710:	4322      	orrs	r2, r4
 8009712:	d0f5      	beq.n	8009700 <__ieee754_sqrt+0x2c>
 8009714:	b19d      	cbz	r5, 800973e <__ieee754_sqrt+0x6a>
 8009716:	4622      	mov	r2, r4
 8009718:	4620      	mov	r0, r4
 800971a:	4629      	mov	r1, r5
 800971c:	f7f6 fdd4 	bl	80002c8 <__aeabi_dsub>
 8009720:	4602      	mov	r2, r0
 8009722:	460b      	mov	r3, r1
 8009724:	f7f7 f8b2 	bl	800088c <__aeabi_ddiv>
 8009728:	e7e8      	b.n	80096fc <__ieee754_sqrt+0x28>
 800972a:	152a      	asrs	r2, r5, #20
 800972c:	d115      	bne.n	800975a <__ieee754_sqrt+0x86>
 800972e:	2000      	movs	r0, #0
 8009730:	e009      	b.n	8009746 <__ieee754_sqrt+0x72>
 8009732:	0acb      	lsrs	r3, r1, #11
 8009734:	3a15      	subs	r2, #21
 8009736:	0549      	lsls	r1, r1, #21
 8009738:	2b00      	cmp	r3, #0
 800973a:	d0fa      	beq.n	8009732 <__ieee754_sqrt+0x5e>
 800973c:	e7f7      	b.n	800972e <__ieee754_sqrt+0x5a>
 800973e:	462a      	mov	r2, r5
 8009740:	e7fa      	b.n	8009738 <__ieee754_sqrt+0x64>
 8009742:	005b      	lsls	r3, r3, #1
 8009744:	3001      	adds	r0, #1
 8009746:	02dc      	lsls	r4, r3, #11
 8009748:	d5fb      	bpl.n	8009742 <__ieee754_sqrt+0x6e>
 800974a:	1e44      	subs	r4, r0, #1
 800974c:	1b12      	subs	r2, r2, r4
 800974e:	f1c0 0420 	rsb	r4, r0, #32
 8009752:	fa21 f404 	lsr.w	r4, r1, r4
 8009756:	4323      	orrs	r3, r4
 8009758:	4081      	lsls	r1, r0
 800975a:	f3c3 0313 	ubfx	r3, r3, #0, #20
 800975e:	f2a2 35ff 	subw	r5, r2, #1023	@ 0x3ff
 8009762:	f443 1380 	orr.w	r3, r3, #1048576	@ 0x100000
 8009766:	07d2      	lsls	r2, r2, #31
 8009768:	bf5c      	itt	pl
 800976a:	005b      	lslpl	r3, r3, #1
 800976c:	eb03 73d1 	addpl.w	r3, r3, r1, lsr #31
 8009770:	ea4f 0343 	mov.w	r3, r3, lsl #1
 8009774:	bf58      	it	pl
 8009776:	0049      	lslpl	r1, r1, #1
 8009778:	2600      	movs	r6, #0
 800977a:	eb03 73d1 	add.w	r3, r3, r1, lsr #31
 800977e:	106d      	asrs	r5, r5, #1
 8009780:	0049      	lsls	r1, r1, #1
 8009782:	2016      	movs	r0, #22
 8009784:	4632      	mov	r2, r6
 8009786:	f44f 1400 	mov.w	r4, #2097152	@ 0x200000
 800978a:	1917      	adds	r7, r2, r4
 800978c:	429f      	cmp	r7, r3
 800978e:	bfde      	ittt	le
 8009790:	193a      	addle	r2, r7, r4
 8009792:	1bdb      	suble	r3, r3, r7
 8009794:	1936      	addle	r6, r6, r4
 8009796:	0fcf      	lsrs	r7, r1, #31
 8009798:	3801      	subs	r0, #1
 800979a:	eb07 0343 	add.w	r3, r7, r3, lsl #1
 800979e:	ea4f 0141 	mov.w	r1, r1, lsl #1
 80097a2:	ea4f 0454 	mov.w	r4, r4, lsr #1
 80097a6:	d1f0      	bne.n	800978a <__ieee754_sqrt+0xb6>
 80097a8:	4604      	mov	r4, r0
 80097aa:	2720      	movs	r7, #32
 80097ac:	f04f 4c00 	mov.w	ip, #2147483648	@ 0x80000000
 80097b0:	429a      	cmp	r2, r3
 80097b2:	eb00 0e0c 	add.w	lr, r0, ip
 80097b6:	db02      	blt.n	80097be <__ieee754_sqrt+0xea>
 80097b8:	d113      	bne.n	80097e2 <__ieee754_sqrt+0x10e>
 80097ba:	458e      	cmp	lr, r1
 80097bc:	d811      	bhi.n	80097e2 <__ieee754_sqrt+0x10e>
 80097be:	f1be 0f00 	cmp.w	lr, #0
 80097c2:	eb0e 000c 	add.w	r0, lr, ip
 80097c6:	da42      	bge.n	800984e <__ieee754_sqrt+0x17a>
 80097c8:	2800      	cmp	r0, #0
 80097ca:	db40      	blt.n	800984e <__ieee754_sqrt+0x17a>
 80097cc:	f102 0801 	add.w	r8, r2, #1
 80097d0:	1a9b      	subs	r3, r3, r2
 80097d2:	458e      	cmp	lr, r1
 80097d4:	bf88      	it	hi
 80097d6:	f103 33ff 	addhi.w	r3, r3, #4294967295	@ 0xffffffff
 80097da:	eba1 010e 	sub.w	r1, r1, lr
 80097de:	4464      	add	r4, ip
 80097e0:	4642      	mov	r2, r8
 80097e2:	ea4f 7ed1 	mov.w	lr, r1, lsr #31
 80097e6:	3f01      	subs	r7, #1
 80097e8:	eb0e 0343 	add.w	r3, lr, r3, lsl #1
 80097ec:	ea4f 0141 	mov.w	r1, r1, lsl #1
 80097f0:	ea4f 0c5c 	mov.w	ip, ip, lsr #1
 80097f4:	d1dc      	bne.n	80097b0 <__ieee754_sqrt+0xdc>
 80097f6:	4319      	orrs	r1, r3
 80097f8:	d01b      	beq.n	8009832 <__ieee754_sqrt+0x15e>
 80097fa:	f8df a084 	ldr.w	sl, [pc, #132]	@ 8009880 <__ieee754_sqrt+0x1ac>
 80097fe:	f8df b084 	ldr.w	fp, [pc, #132]	@ 8009884 <__ieee754_sqrt+0x1b0>
 8009802:	e9da 0100 	ldrd	r0, r1, [sl]
 8009806:	e9db 2300 	ldrd	r2, r3, [fp]
 800980a:	f7f6 fd5d 	bl	80002c8 <__aeabi_dsub>
 800980e:	e9da 8900 	ldrd	r8, r9, [sl]
 8009812:	4602      	mov	r2, r0
 8009814:	460b      	mov	r3, r1
 8009816:	4640      	mov	r0, r8
 8009818:	4649      	mov	r1, r9
 800981a:	f7f7 f989 	bl	8000b30 <__aeabi_dcmple>
 800981e:	b140      	cbz	r0, 8009832 <__ieee754_sqrt+0x15e>
 8009820:	f1b4 3fff 	cmp.w	r4, #4294967295	@ 0xffffffff
 8009824:	e9da 0100 	ldrd	r0, r1, [sl]
 8009828:	e9db 2300 	ldrd	r2, r3, [fp]
 800982c:	d111      	bne.n	8009852 <__ieee754_sqrt+0x17e>
 800982e:	3601      	adds	r6, #1
 8009830:	463c      	mov	r4, r7
 8009832:	1072      	asrs	r2, r6, #1
 8009834:	0863      	lsrs	r3, r4, #1
 8009836:	07f1      	lsls	r1, r6, #31
 8009838:	f102 527f 	add.w	r2, r2, #1069547520	@ 0x3fc00000
 800983c:	f502 1200 	add.w	r2, r2, #2097152	@ 0x200000
 8009840:	bf48      	it	mi
 8009842:	f043 4300 	orrmi.w	r3, r3, #2147483648	@ 0x80000000
 8009846:	eb02 5105 	add.w	r1, r2, r5, lsl #20
 800984a:	4618      	mov	r0, r3
 800984c:	e756      	b.n	80096fc <__ieee754_sqrt+0x28>
 800984e:	4690      	mov	r8, r2
 8009850:	e7be      	b.n	80097d0 <__ieee754_sqrt+0xfc>
 8009852:	f7f6 fd3b 	bl	80002cc <__adddf3>
 8009856:	e9da 8900 	ldrd	r8, r9, [sl]
 800985a:	4602      	mov	r2, r0
 800985c:	460b      	mov	r3, r1
 800985e:	4640      	mov	r0, r8
 8009860:	4649      	mov	r1, r9
 8009862:	f7f7 f95b 	bl	8000b1c <__aeabi_dcmplt>
 8009866:	b120      	cbz	r0, 8009872 <__ieee754_sqrt+0x19e>
 8009868:	1ca0      	adds	r0, r4, #2
 800986a:	bf08      	it	eq
 800986c:	3601      	addeq	r6, #1
 800986e:	3402      	adds	r4, #2
 8009870:	e7df      	b.n	8009832 <__ieee754_sqrt+0x15e>
 8009872:	1c63      	adds	r3, r4, #1
 8009874:	f023 0401 	bic.w	r4, r3, #1
 8009878:	e7db      	b.n	8009832 <__ieee754_sqrt+0x15e>
 800987a:	bf00      	nop
 800987c:	7ff00000 	.word	0x7ff00000
 8009880:	200001e0 	.word	0x200001e0
 8009884:	200001d8 	.word	0x200001d8

08009888 <_init>:
 8009888:	b5f8      	push	{r3, r4, r5, r6, r7, lr}
 800988a:	bf00      	nop
 800988c:	bcf8      	pop	{r3, r4, r5, r6, r7}
 800988e:	bc08      	pop	{r3}
 8009890:	469e      	mov	lr, r3
 8009892:	4770      	bx	lr

08009894 <_fini>:
 8009894:	b5f8      	push	{r3, r4, r5, r6, r7, lr}
 8009896:	bf00      	nop
 8009898:	bcf8      	pop	{r3, r4, r5, r6, r7}
 800989a:	bc08      	pop	{r3}
 800989c:	469e      	mov	lr, r3
 800989e:	4770      	bx	lr
