
PCU.elf:     file format elf32-littlearm

Sections:
Idx Name          Size      VMA       LMA       File off  Algn
  0 .isr_vector   000001c4  08000000  08000000  00001000  2**0
                  CONTENTS, ALLOC, LOAD, READONLY, DATA
  1 .text         000095b8  080001d0  080001d0  000011d0  2**4
                  CONTENTS, ALLOC, LOAD, READONLY, CODE
  2 .rodata       00000520  08009788  08009788  0000a788  2**3
                  CONTENTS, ALLOC, LOAD, READONLY, DATA
  3 .ARM.extab    00000000  08009ca8  08009ca8  0000b1e8  2**0
                  CONTENTS
  4 .ARM          00000008  08009ca8  08009ca8  0000aca8  2**2
                  CONTENTS, ALLOC, LOAD, READONLY, DATA
  5 .preinit_array 00000000  08009cb0  08009cb0  0000b1e8  2**0
                  CONTENTS, ALLOC, LOAD, DATA
  6 .init_array   00000004  08009cb0  08009cb0  0000acb0  2**2
                  CONTENTS, ALLOC, LOAD, READONLY, DATA
  7 .fini_array   00000004  08009cb4  08009cb4  0000acb4  2**2
                  CONTENTS, ALLOC, LOAD, READONLY, DATA
  8 .data         000001e8  20000000  08009cb8  0000b000  2**3
                  CONTENTS, ALLOC, LOAD, DATA
  9 .bss          000002e8  200001e8  08009ea0  0000b1e8  2**2
                  ALLOC
 10 ._user_heap_stack 00000600  200004d0  08009ea0  0000b4d0  2**0
                  ALLOC
 11 .ARM.attributes 00000030  00000000  00000000  0000b1e8  2**0
                  CONTENTS, READONLY
 12 .debug_info   0001383a  00000000  00000000  0000b218  2**0
                  CONTENTS, READONLY, DEBUGGING, OCTETS
 13 .debug_abbrev 000034f2  00000000  00000000  0001ea52  2**0
                  CONTENTS, READONLY, DEBUGGING, OCTETS
 14 .debug_aranges 00000fa0  00000000  00000000  00021f48  2**3
                  CONTENTS, READONLY, DEBUGGING, OCTETS
 15 .debug_rnglists 00000c09  00000000  00000000  00022ee8  2**0
                  CONTENTS, READONLY, DEBUGGING, OCTETS
 16 .debug_macro  00025c10  00000000  00000000  00023af1  2**0
                  CONTENTS, READONLY, DEBUGGING, OCTETS
 17 .debug_line   00015e0c  00000000  00000000  00049701  2**0
                  CONTENTS, READONLY, DEBUGGING, OCTETS
 18 .debug_str    000ddada  00000000  00000000  0005f50d  2**0
                  CONTENTS, READONLY, DEBUGGING, OCTETS
 19 .comment      00000043  00000000  00000000  0013cfe7  2**0
                  CONTENTS, READONLY
 20 .debug_frame  00005394  00000000  00000000  0013d02c  2**2
                  CONTENTS, READONLY, DEBUGGING, OCTETS
 21 .debug_line_str 00000068  00000000  00000000  001423c0  2**0
                  CONTENTS, READONLY, DEBUGGING, OCTETS

Disassembly of section .text:

080001d0 <__do_global_dtors_aux>:
 80001d0:	b510      	push	{r4, lr}
 80001d2:	4c05      	ldr	r4, [pc, #20]	@ (80001e8 <__do_global_dtors_aux+0x18>)
 80001d4:	7823      	ldrb	r3, [r4, #0]
 80001d6:	b933      	cbnz	r3, 80001e6 <__do_global_dtors_aux+0x16>
 80001d8:	4b04      	ldr	r3, [pc, #16]	@ (80001ec <__do_global_dtors_aux+0x1c>)
 80001da:	b113      	cbz	r3, 80001e2 <__do_global_dtors_aux+0x12>
 80001dc:	4804      	ldr	r0, [pc, #16]	@ (80001f0 <__do_global_dtors_aux+0x20>)
 80001de:	f3af 8000 	nop.w
 80001e2:	2301      	movs	r3, #1
 80001e4:	7023      	strb	r3, [r4, #0]
 80001e6:	bd10      	pop	{r4, pc}
 80001e8:	200001e8 	.word	0x200001e8
 80001ec:	00000000 	.word	0x00000000
 80001f0:	08009770 	.word	0x08009770

080001f4 <frame_dummy>:
 80001f4:	b508      	push	{r3, lr}
 80001f6:	4b03      	ldr	r3, [pc, #12]	@ (8000204 <frame_dummy+0x10>)
 80001f8:	b11b      	cbz	r3, 8000202 <frame_dummy+0xe>
 80001fa:	4903      	ldr	r1, [pc, #12]	@ (8000208 <frame_dummy+0x14>)
 80001fc:	4803      	ldr	r0, [pc, #12]	@ (800020c <frame_dummy+0x18>)
 80001fe:	f3af 8000 	nop.w
 8000202:	bd08      	pop	{r3, pc}
 8000204:	00000000 	.word	0x00000000
 8000208:	200001ec 	.word	0x200001ec
 800020c:	08009770 	.word	0x08009770

08000210 <memchr>:
 8000210:	f001 01ff 	and.w	r1, r1, #255	@ 0xff
 8000214:	2a10      	cmp	r2, #16
 8000216:	db2b      	blt.n	8000270 <memchr+0x60>
 8000218:	f010 0f07 	tst.w	r0, #7
 800021c:	d008      	beq.n	8000230 <memchr+0x20>
 800021e:	f810 3b01 	ldrb.w	r3, [r0], #1
 8000222:	3a01      	subs	r2, #1
 8000224:	428b      	cmp	r3, r1
 8000226:	d02d      	beq.n	8000284 <memchr+0x74>
 8000228:	f010 0f07 	tst.w	r0, #7
 800022c:	b342      	cbz	r2, 8000280 <memchr+0x70>
 800022e:	d1f6      	bne.n	800021e <memchr+0xe>
 8000230:	b4f0      	push	{r4, r5, r6, r7}
 8000232:	ea41 2101 	orr.w	r1, r1, r1, lsl #8
 8000236:	ea41 4101 	orr.w	r1, r1, r1, lsl #16
 800023a:	f022 0407 	bic.w	r4, r2, #7
 800023e:	f07f 0700 	mvns.w	r7, #0
 8000242:	2300      	movs	r3, #0
 8000244:	e8f0 5602 	ldrd	r5, r6, [r0], #8
 8000248:	3c08      	subs	r4, #8
 800024a:	ea85 0501 	eor.w	r5, r5, r1
 800024e:	ea86 0601 	eor.w	r6, r6, r1
 8000252:	fa85 f547 	uadd8	r5, r5, r7
 8000256:	faa3 f587 	sel	r5, r3, r7
 800025a:	fa86 f647 	uadd8	r6, r6, r7
 800025e:	faa5 f687 	sel	r6, r5, r7
 8000262:	b98e      	cbnz	r6, 8000288 <memchr+0x78>
 8000264:	d1ee      	bne.n	8000244 <memchr+0x34>
 8000266:	bcf0      	pop	{r4, r5, r6, r7}
 8000268:	f001 01ff 	and.w	r1, r1, #255	@ 0xff
 800026c:	f002 0207 	and.w	r2, r2, #7
 8000270:	b132      	cbz	r2, 8000280 <memchr+0x70>
 8000272:	f810 3b01 	ldrb.w	r3, [r0], #1
 8000276:	3a01      	subs	r2, #1
 8000278:	ea83 0301 	eor.w	r3, r3, r1
 800027c:	b113      	cbz	r3, 8000284 <memchr+0x74>
 800027e:	d1f8      	bne.n	8000272 <memchr+0x62>
 8000280:	2000      	movs	r0, #0
 8000282:	4770      	bx	lr
 8000284:	3801      	subs	r0, #1
 8000286:	4770      	bx	lr
 8000288:	2d00      	cmp	r5, #0
 800028a:	bf06      	itte	eq
 800028c:	4635      	moveq	r5, r6
 800028e:	3803      	subeq	r0, #3
 8000290:	3807      	subne	r0, #7
 8000292:	f015 0f01 	tst.w	r5, #1
 8000296:	d107      	bne.n	80002a8 <memchr+0x98>
 8000298:	3001      	adds	r0, #1
 800029a:	f415 7f80 	tst.w	r5, #256	@ 0x100
 800029e:	bf02      	ittt	eq
 80002a0:	3001      	addeq	r0, #1
 80002a2:	f415 3fc0 	tsteq.w	r5, #98304	@ 0x18000
 80002a6:	3001      	addeq	r0, #1
 80002a8:	bcf0      	pop	{r4, r5, r6, r7}
 80002aa:	3801      	subs	r0, #1
 80002ac:	4770      	bx	lr
 80002ae:	bf00      	nop

080002b0 <strlen>:
 80002b0:	4603      	mov	r3, r0
 80002b2:	f813 2b01 	ldrb.w	r2, [r3], #1
 80002b6:	2a00      	cmp	r2, #0
 80002b8:	d1fb      	bne.n	80002b2 <strlen+0x2>
 80002ba:	1a18      	subs	r0, r3, r0
 80002bc:	3801      	subs	r0, #1
 80002be:	4770      	bx	lr

080002c0 <__aeabi_drsub>:
 80002c0:	f081 4100 	eor.w	r1, r1, #2147483648	@ 0x80000000
 80002c4:	e002      	b.n	80002cc <__adddf3>
 80002c6:	bf00      	nop

080002c8 <__aeabi_dsub>:
 80002c8:	f083 4300 	eor.w	r3, r3, #2147483648	@ 0x80000000

080002cc <__adddf3>:
 80002cc:	b530      	push	{r4, r5, lr}
 80002ce:	ea4f 0441 	mov.w	r4, r1, lsl #1
 80002d2:	ea4f 0543 	mov.w	r5, r3, lsl #1
 80002d6:	ea94 0f05 	teq	r4, r5
 80002da:	bf08      	it	eq
 80002dc:	ea90 0f02 	teqeq	r0, r2
 80002e0:	bf1f      	itttt	ne
 80002e2:	ea54 0c00 	orrsne.w	ip, r4, r0
 80002e6:	ea55 0c02 	orrsne.w	ip, r5, r2
 80002ea:	ea7f 5c64 	mvnsne.w	ip, r4, asr #21
 80002ee:	ea7f 5c65 	mvnsne.w	ip, r5, asr #21
 80002f2:	f000 80e2 	beq.w	80004ba <__adddf3+0x1ee>
 80002f6:	ea4f 5454 	mov.w	r4, r4, lsr #21
 80002fa:	ebd4 5555 	rsbs	r5, r4, r5, lsr #21
 80002fe:	bfb8      	it	lt
 8000300:	426d      	neglt	r5, r5
 8000302:	dd0c      	ble.n	800031e <__adddf3+0x52>
 8000304:	442c      	add	r4, r5
 8000306:	ea80 0202 	eor.w	r2, r0, r2
 800030a:	ea81 0303 	eor.w	r3, r1, r3
 800030e:	ea82 0000 	eor.w	r0, r2, r0
 8000312:	ea83 0101 	eor.w	r1, r3, r1
 8000316:	ea80 0202 	eor.w	r2, r0, r2
 800031a:	ea81 0303 	eor.w	r3, r1, r3
 800031e:	2d36      	cmp	r5, #54	@ 0x36
 8000320:	bf88      	it	hi
 8000322:	bd30      	pophi	{r4, r5, pc}
 8000324:	f011 4f00 	tst.w	r1, #2147483648	@ 0x80000000
 8000328:	ea4f 3101 	mov.w	r1, r1, lsl #12
 800032c:	f44f 1c80 	mov.w	ip, #1048576	@ 0x100000
 8000330:	ea4c 3111 	orr.w	r1, ip, r1, lsr #12
 8000334:	d002      	beq.n	800033c <__adddf3+0x70>
 8000336:	4240      	negs	r0, r0
 8000338:	eb61 0141 	sbc.w	r1, r1, r1, lsl #1
 800033c:	f013 4f00 	tst.w	r3, #2147483648	@ 0x80000000
 8000340:	ea4f 3303 	mov.w	r3, r3, lsl #12
 8000344:	ea4c 3313 	orr.w	r3, ip, r3, lsr #12
 8000348:	d002      	beq.n	8000350 <__adddf3+0x84>
 800034a:	4252      	negs	r2, r2
 800034c:	eb63 0343 	sbc.w	r3, r3, r3, lsl #1
 8000350:	ea94 0f05 	teq	r4, r5
 8000354:	f000 80a7 	beq.w	80004a6 <__adddf3+0x1da>
 8000358:	f1a4 0401 	sub.w	r4, r4, #1
 800035c:	f1d5 0e20 	rsbs	lr, r5, #32
 8000360:	db0d      	blt.n	800037e <__adddf3+0xb2>
 8000362:	fa02 fc0e 	lsl.w	ip, r2, lr
 8000366:	fa22 f205 	lsr.w	r2, r2, r5
 800036a:	1880      	adds	r0, r0, r2
 800036c:	f141 0100 	adc.w	r1, r1, #0
 8000370:	fa03 f20e 	lsl.w	r2, r3, lr
 8000374:	1880      	adds	r0, r0, r2
 8000376:	fa43 f305 	asr.w	r3, r3, r5
 800037a:	4159      	adcs	r1, r3
 800037c:	e00e      	b.n	800039c <__adddf3+0xd0>
 800037e:	f1a5 0520 	sub.w	r5, r5, #32
 8000382:	f10e 0e20 	add.w	lr, lr, #32
 8000386:	2a01      	cmp	r2, #1
 8000388:	fa03 fc0e 	lsl.w	ip, r3, lr
 800038c:	bf28      	it	cs
 800038e:	f04c 0c02 	orrcs.w	ip, ip, #2
 8000392:	fa43 f305 	asr.w	r3, r3, r5
 8000396:	18c0      	adds	r0, r0, r3
 8000398:	eb51 71e3 	adcs.w	r1, r1, r3, asr #31
 800039c:	f001 4500 	and.w	r5, r1, #2147483648	@ 0x80000000
 80003a0:	d507      	bpl.n	80003b2 <__adddf3+0xe6>
 80003a2:	f04f 0e00 	mov.w	lr, #0
 80003a6:	f1dc 0c00 	rsbs	ip, ip, #0
 80003aa:	eb7e 0000 	sbcs.w	r0, lr, r0
 80003ae:	eb6e 0101 	sbc.w	r1, lr, r1
 80003b2:	f5b1 1f80 	cmp.w	r1, #1048576	@ 0x100000
 80003b6:	d31b      	bcc.n	80003f0 <__adddf3+0x124>
 80003b8:	f5b1 1f00 	cmp.w	r1, #2097152	@ 0x200000
 80003bc:	d30c      	bcc.n	80003d8 <__adddf3+0x10c>
 80003be:	0849      	lsrs	r1, r1, #1
 80003c0:	ea5f 0030 	movs.w	r0, r0, rrx
 80003c4:	ea4f 0c3c 	mov.w	ip, ip, rrx
 80003c8:	f104 0401 	add.w	r4, r4, #1
 80003cc:	ea4f 5244 	mov.w	r2, r4, lsl #21
 80003d0:	f512 0f80 	cmn.w	r2, #4194304	@ 0x400000
 80003d4:	f080 809a 	bcs.w	800050c <__adddf3+0x240>
 80003d8:	f1bc 4f00 	cmp.w	ip, #2147483648	@ 0x80000000
 80003dc:	bf08      	it	eq
 80003de:	ea5f 0c50 	movseq.w	ip, r0, lsr #1
 80003e2:	f150 0000 	adcs.w	r0, r0, #0
 80003e6:	eb41 5104 	adc.w	r1, r1, r4, lsl #20
 80003ea:	ea41 0105 	orr.w	r1, r1, r5
 80003ee:	bd30      	pop	{r4, r5, pc}
 80003f0:	ea5f 0c4c 	movs.w	ip, ip, lsl #1
 80003f4:	4140      	adcs	r0, r0
 80003f6:	eb41 0101 	adc.w	r1, r1, r1
 80003fa:	3c01      	subs	r4, #1
 80003fc:	bf28      	it	cs
 80003fe:	f5b1 1f80 	cmpcs.w	r1, #1048576	@ 0x100000
 8000402:	d2e9      	bcs.n	80003d8 <__adddf3+0x10c>
 8000404:	f091 0f00 	teq	r1, #0
 8000408:	bf04      	itt	eq
 800040a:	4601      	moveq	r1, r0
 800040c:	2000      	moveq	r0, #0
 800040e:	fab1 f381 	clz	r3, r1
 8000412:	bf08      	it	eq
 8000414:	3320      	addeq	r3, #32
 8000416:	f1a3 030b 	sub.w	r3, r3, #11
 800041a:	f1b3 0220 	subs.w	r2, r3, #32
 800041e:	da0c      	bge.n	800043a <__adddf3+0x16e>
 8000420:	320c      	adds	r2, #12
 8000422:	dd08      	ble.n	8000436 <__adddf3+0x16a>
 8000424:	f102 0c14 	add.w	ip, r2, #20
 8000428:	f1c2 020c 	rsb	r2, r2, #12
 800042c:	fa01 f00c 	lsl.w	r0, r1, ip
 8000430:	fa21 f102 	lsr.w	r1, r1, r2
 8000434:	e00c      	b.n	8000450 <__adddf3+0x184>
 8000436:	f102 0214 	add.w	r2, r2, #20
 800043a:	bfd8      	it	le
 800043c:	f1c2 0c20 	rsble	ip, r2, #32
 8000440:	fa01 f102 	lsl.w	r1, r1, r2
 8000444:	fa20 fc0c 	lsr.w	ip, r0, ip
 8000448:	bfdc      	itt	le
 800044a:	ea41 010c 	orrle.w	r1, r1, ip
 800044e:	4090      	lslle	r0, r2
 8000450:	1ae4      	subs	r4, r4, r3
 8000452:	bfa2      	ittt	ge
 8000454:	eb01 5104 	addge.w	r1, r1, r4, lsl #20
 8000458:	4329      	orrge	r1, r5
 800045a:	bd30      	popge	{r4, r5, pc}
 800045c:	ea6f 0404 	mvn.w	r4, r4
 8000460:	3c1f      	subs	r4, #31
 8000462:	da1c      	bge.n	800049e <__adddf3+0x1d2>
 8000464:	340c      	adds	r4, #12
 8000466:	dc0e      	bgt.n	8000486 <__adddf3+0x1ba>
 8000468:	f104 0414 	add.w	r4, r4, #20
 800046c:	f1c4 0220 	rsb	r2, r4, #32
 8000470:	fa20 f004 	lsr.w	r0, r0, r4
 8000474:	fa01 f302 	lsl.w	r3, r1, r2
 8000478:	ea40 0003 	orr.w	r0, r0, r3
 800047c:	fa21 f304 	lsr.w	r3, r1, r4
 8000480:	ea45 0103 	orr.w	r1, r5, r3
 8000484:	bd30      	pop	{r4, r5, pc}
 8000486:	f1c4 040c 	rsb	r4, r4, #12
 800048a:	f1c4 0220 	rsb	r2, r4, #32
 800048e:	fa20 f002 	lsr.w	r0, r0, r2
 8000492:	fa01 f304 	lsl.w	r3, r1, r4
 8000496:	ea40 0003 	orr.w	r0, r0, r3
 800049a:	4629      	mov	r1, r5
 800049c:	bd30      	pop	{r4, r5, pc}
 800049e:	fa21 f004 	lsr.w	r0, r1, r4
 80004a2:	4629      	mov	r1, r5
 80004a4:	bd30      	pop	{r4, r5, pc}
 80004a6:	f094 0f00 	teq	r4, #0
 80004aa:	f483 1380 	eor.w	r3, r3, #1048576	@ 0x100000
 80004ae:	bf06      	itte	eq
 80004b0:	f481 1180 	eoreq.w	r1, r1, #1048576	@ 0x100000
 80004b4:	3401      	addeq	r4, #1
 80004b6:	3d01      	subne	r5, #1
 80004b8:	e74e      	b.n	8000358 <__adddf3+0x8c>
 80004ba:	ea7f 5c64 	mvns.w	ip, r4, asr #21
 80004be:	bf18      	it	ne
 80004c0:	ea7f 5c65 	mvnsne.w	ip, r5, asr #21
 80004c4:	d029      	beq.n	800051a <__adddf3+0x24e>
 80004c6:	ea94 0f05 	teq	r4, r5
 80004ca:	bf08      	it	eq
 80004cc:	ea90 0f02 	teqeq	r0, r2
 80004d0:	d005      	beq.n	80004de <__adddf3+0x212>
 80004d2:	ea54 0c00 	orrs.w	ip, r4, r0
 80004d6:	bf04      	itt	eq
 80004d8:	4619      	moveq	r1, r3
 80004da:	4610      	moveq	r0, r2
 80004dc:	bd30      	pop	{r4, r5, pc}
 80004de:	ea91 0f03 	teq	r1, r3
 80004e2:	bf1e      	ittt	ne
 80004e4:	2100      	movne	r1, #0
 80004e6:	2000      	movne	r0, #0
 80004e8:	bd30      	popne	{r4, r5, pc}
 80004ea:	ea5f 5c54 	movs.w	ip, r4, lsr #21
 80004ee:	d105      	bne.n	80004fc <__adddf3+0x230>
 80004f0:	0040      	lsls	r0, r0, #1
 80004f2:	4149      	adcs	r1, r1
 80004f4:	bf28      	it	cs
 80004f6:	f041 4100 	orrcs.w	r1, r1, #2147483648	@ 0x80000000
 80004fa:	bd30      	pop	{r4, r5, pc}
 80004fc:	f514 0480 	adds.w	r4, r4, #4194304	@ 0x400000
 8000500:	bf3c      	itt	cc
 8000502:	f501 1180 	addcc.w	r1, r1, #1048576	@ 0x100000
 8000506:	bd30      	popcc	{r4, r5, pc}
 8000508:	f001 4500 	and.w	r5, r1, #2147483648	@ 0x80000000
 800050c:	f045 41fe 	orr.w	r1, r5, #2130706432	@ 0x7f000000
 8000510:	f441 0170 	orr.w	r1, r1, #15728640	@ 0xf00000
 8000514:	f04f 0000 	mov.w	r0, #0
 8000518:	bd30      	pop	{r4, r5, pc}
 800051a:	ea7f 5c64 	mvns.w	ip, r4, asr #21
 800051e:	bf1a      	itte	ne
 8000520:	4619      	movne	r1, r3
 8000522:	4610      	movne	r0, r2
 8000524:	ea7f 5c65 	mvnseq.w	ip, r5, asr #21
 8000528:	bf1c      	itt	ne
 800052a:	460b      	movne	r3, r1
 800052c:	4602      	movne	r2, r0
 800052e:	ea50 3401 	orrs.w	r4, r0, r1, lsl #12
 8000532:	bf06      	itte	eq
 8000534:	ea52 3503 	orrseq.w	r5, r2, r3, lsl #12
 8000538:	ea91 0f03 	teqeq	r1, r3
 800053c:	f441 2100 	orrne.w	r1, r1, #524288	@ 0x80000
 8000540:	bd30      	pop	{r4, r5, pc}
 8000542:	bf00      	nop

08000544 <__aeabi_ui2d>:
 8000544:	f090 0f00 	teq	r0, #0
 8000548:	bf04      	itt	eq
 800054a:	2100      	moveq	r1, #0
 800054c:	4770      	bxeq	lr
 800054e:	b530      	push	{r4, r5, lr}
 8000550:	f44f 6480 	mov.w	r4, #1024	@ 0x400
 8000554:	f104 0432 	add.w	r4, r4, #50	@ 0x32
 8000558:	f04f 0500 	mov.w	r5, #0
 800055c:	f04f 0100 	mov.w	r1, #0
 8000560:	e750      	b.n	8000404 <__adddf3+0x138>
 8000562:	bf00      	nop

08000564 <__aeabi_i2d>:
 8000564:	f090 0f00 	teq	r0, #0
 8000568:	bf04      	itt	eq
 800056a:	2100      	moveq	r1, #0
 800056c:	4770      	bxeq	lr
 800056e:	b530      	push	{r4, r5, lr}
 8000570:	f44f 6480 	mov.w	r4, #1024	@ 0x400
 8000574:	f104 0432 	add.w	r4, r4, #50	@ 0x32
 8000578:	f010 4500 	ands.w	r5, r0, #2147483648	@ 0x80000000
 800057c:	bf48      	it	mi
 800057e:	4240      	negmi	r0, r0
 8000580:	f04f 0100 	mov.w	r1, #0
 8000584:	e73e      	b.n	8000404 <__adddf3+0x138>
 8000586:	bf00      	nop

08000588 <__aeabi_f2d>:
 8000588:	0042      	lsls	r2, r0, #1
 800058a:	ea4f 01e2 	mov.w	r1, r2, asr #3
 800058e:	ea4f 0131 	mov.w	r1, r1, rrx
 8000592:	ea4f 7002 	mov.w	r0, r2, lsl #28
 8000596:	bf1f      	itttt	ne
 8000598:	f012 437f 	andsne.w	r3, r2, #4278190080	@ 0xff000000
 800059c:	f093 4f7f 	teqne	r3, #4278190080	@ 0xff000000
 80005a0:	f081 5160 	eorne.w	r1, r1, #939524096	@ 0x38000000
 80005a4:	4770      	bxne	lr
 80005a6:	f032 427f 	bics.w	r2, r2, #4278190080	@ 0xff000000
 80005aa:	bf08      	it	eq
 80005ac:	4770      	bxeq	lr
 80005ae:	f093 4f7f 	teq	r3, #4278190080	@ 0xff000000
 80005b2:	bf04      	itt	eq
 80005b4:	f441 2100 	orreq.w	r1, r1, #524288	@ 0x80000
 80005b8:	4770      	bxeq	lr
 80005ba:	b530      	push	{r4, r5, lr}
 80005bc:	f44f 7460 	mov.w	r4, #896	@ 0x380
 80005c0:	f001 4500 	and.w	r5, r1, #2147483648	@ 0x80000000
 80005c4:	f021 4100 	bic.w	r1, r1, #2147483648	@ 0x80000000
 80005c8:	e71c      	b.n	8000404 <__adddf3+0x138>
 80005ca:	bf00      	nop

080005cc <__aeabi_ul2d>:
 80005cc:	ea50 0201 	orrs.w	r2, r0, r1
 80005d0:	bf08      	it	eq
 80005d2:	4770      	bxeq	lr
 80005d4:	b530      	push	{r4, r5, lr}
 80005d6:	f04f 0500 	mov.w	r5, #0
 80005da:	e00a      	b.n	80005f2 <__aeabi_l2d+0x16>

080005dc <__aeabi_l2d>:
 80005dc:	ea50 0201 	orrs.w	r2, r0, r1
 80005e0:	bf08      	it	eq
 80005e2:	4770      	bxeq	lr
 80005e4:	b530      	push	{r4, r5, lr}
 80005e6:	f011 4500 	ands.w	r5, r1, #2147483648	@ 0x80000000
 80005ea:	d502      	bpl.n	80005f2 <__aeabi_l2d+0x16>
 80005ec:	4240      	negs	r0, r0
 80005ee:	eb61 0141 	sbc.w	r1, r1, r1, lsl #1
 80005f2:	f44f 6480 	mov.w	r4, #1024	@ 0x400
 80005f6:	f104 0432 	add.w	r4, r4, #50	@ 0x32
 80005fa:	ea5f 5c91 	movs.w	ip, r1, lsr #22
 80005fe:	f43f aed8 	beq.w	80003b2 <__adddf3+0xe6>
 8000602:	f04f 0203 	mov.w	r2, #3
 8000606:	ea5f 0cdc 	movs.w	ip, ip, lsr #3
 800060a:	bf18      	it	ne
 800060c:	3203      	addne	r2, #3
 800060e:	ea5f 0cdc 	movs.w	ip, ip, lsr #3
 8000612:	bf18      	it	ne
 8000614:	3203      	addne	r2, #3
 8000616:	eb02 02dc 	add.w	r2, r2, ip, lsr #3
 800061a:	f1c2 0320 	rsb	r3, r2, #32
 800061e:	fa00 fc03 	lsl.w	ip, r0, r3
 8000622:	fa20 f002 	lsr.w	r0, r0, r2
 8000626:	fa01 fe03 	lsl.w	lr, r1, r3
 800062a:	ea40 000e 	orr.w	r0, r0, lr
 800062e:	fa21 f102 	lsr.w	r1, r1, r2
 8000632:	4414      	add	r4, r2
 8000634:	e6bd      	b.n	80003b2 <__adddf3+0xe6>
 8000636:	bf00      	nop

08000638 <__aeabi_dmul>:
 8000638:	b570      	push	{r4, r5, r6, lr}
 800063a:	f04f 0cff 	mov.w	ip, #255	@ 0xff
 800063e:	f44c 6ce0 	orr.w	ip, ip, #1792	@ 0x700
 8000642:	ea1c 5411 	ands.w	r4, ip, r1, lsr #20
 8000646:	bf1d      	ittte	ne
 8000648:	ea1c 5513 	andsne.w	r5, ip, r3, lsr #20
 800064c:	ea94 0f0c 	teqne	r4, ip
 8000650:	ea95 0f0c 	teqne	r5, ip
 8000654:	f000 f8de 	bleq	8000814 <__aeabi_dmul+0x1dc>
 8000658:	442c      	add	r4, r5
 800065a:	ea81 0603 	eor.w	r6, r1, r3
 800065e:	ea21 514c 	bic.w	r1, r1, ip, lsl #21
 8000662:	ea23 534c 	bic.w	r3, r3, ip, lsl #21
 8000666:	ea50 3501 	orrs.w	r5, r0, r1, lsl #12
 800066a:	bf18      	it	ne
 800066c:	ea52 3503 	orrsne.w	r5, r2, r3, lsl #12
 8000670:	f441 1180 	orr.w	r1, r1, #1048576	@ 0x100000
 8000674:	f443 1380 	orr.w	r3, r3, #1048576	@ 0x100000
 8000678:	d038      	beq.n	80006ec <__aeabi_dmul+0xb4>
 800067a:	fba0 ce02 	umull	ip, lr, r0, r2
 800067e:	f04f 0500 	mov.w	r5, #0
 8000682:	fbe1 e502 	umlal	lr, r5, r1, r2
 8000686:	f006 4200 	and.w	r2, r6, #2147483648	@ 0x80000000
 800068a:	fbe0 e503 	umlal	lr, r5, r0, r3
 800068e:	f04f 0600 	mov.w	r6, #0
 8000692:	fbe1 5603 	umlal	r5, r6, r1, r3
 8000696:	f09c 0f00 	teq	ip, #0
 800069a:	bf18      	it	ne
 800069c:	f04e 0e01 	orrne.w	lr, lr, #1
 80006a0:	f1a4 04ff 	sub.w	r4, r4, #255	@ 0xff
 80006a4:	f5b6 7f00 	cmp.w	r6, #512	@ 0x200
 80006a8:	f564 7440 	sbc.w	r4, r4, #768	@ 0x300
 80006ac:	d204      	bcs.n	80006b8 <__aeabi_dmul+0x80>
 80006ae:	ea5f 0e4e 	movs.w	lr, lr, lsl #1
 80006b2:	416d      	adcs	r5, r5
 80006b4:	eb46 0606 	adc.w	r6, r6, r6
 80006b8:	ea42 21c6 	orr.w	r1, r2, r6, lsl #11
 80006bc:	ea41 5155 	orr.w	r1, r1, r5, lsr #21
 80006c0:	ea4f 20c5 	mov.w	r0, r5, lsl #11
 80006c4:	ea40 505e 	orr.w	r0, r0, lr, lsr #21
 80006c8:	ea4f 2ece 	mov.w	lr, lr, lsl #11
 80006cc:	f1b4 0cfd 	subs.w	ip, r4, #253	@ 0xfd
 80006d0:	bf88      	it	hi
 80006d2:	f5bc 6fe0 	cmphi.w	ip, #1792	@ 0x700
 80006d6:	d81e      	bhi.n	8000716 <__aeabi_dmul+0xde>
 80006d8:	f1be 4f00 	cmp.w	lr, #2147483648	@ 0x80000000
 80006dc:	bf08      	it	eq
 80006de:	ea5f 0e50 	movseq.w	lr, r0, lsr #1
 80006e2:	f150 0000 	adcs.w	r0, r0, #0
 80006e6:	eb41 5104 	adc.w	r1, r1, r4, lsl #20
 80006ea:	bd70      	pop	{r4, r5, r6, pc}
 80006ec:	f006 4600 	and.w	r6, r6, #2147483648	@ 0x80000000
 80006f0:	ea46 0101 	orr.w	r1, r6, r1
 80006f4:	ea40 0002 	orr.w	r0, r0, r2
 80006f8:	ea81 0103 	eor.w	r1, r1, r3
 80006fc:	ebb4 045c 	subs.w	r4, r4, ip, lsr #1
 8000700:	bfc2      	ittt	gt
 8000702:	ebd4 050c 	rsbsgt	r5, r4, ip
 8000706:	ea41 5104 	orrgt.w	r1, r1, r4, lsl #20
 800070a:	bd70      	popgt	{r4, r5, r6, pc}
 800070c:	f441 1180 	orr.w	r1, r1, #1048576	@ 0x100000
 8000710:	f04f 0e00 	mov.w	lr, #0
 8000714:	3c01      	subs	r4, #1
 8000716:	f300 80ab 	bgt.w	8000870 <__aeabi_dmul+0x238>
 800071a:	f114 0f36 	cmn.w	r4, #54	@ 0x36
 800071e:	bfde      	ittt	le
 8000720:	2000      	movle	r0, #0
 8000722:	f001 4100 	andle.w	r1, r1, #2147483648	@ 0x80000000
 8000726:	bd70      	pople	{r4, r5, r6, pc}
 8000728:	f1c4 0400 	rsb	r4, r4, #0
 800072c:	3c20      	subs	r4, #32
 800072e:	da35      	bge.n	800079c <__aeabi_dmul+0x164>
 8000730:	340c      	adds	r4, #12
 8000732:	dc1b      	bgt.n	800076c <__aeabi_dmul+0x134>
 8000734:	f104 0414 	add.w	r4, r4, #20
 8000738:	f1c4 0520 	rsb	r5, r4, #32
 800073c:	fa00 f305 	lsl.w	r3, r0, r5
 8000740:	fa20 f004 	lsr.w	r0, r0, r4
 8000744:	fa01 f205 	lsl.w	r2, r1, r5
 8000748:	ea40 0002 	orr.w	r0, r0, r2
 800074c:	f001 4200 	and.w	r2, r1, #2147483648	@ 0x80000000
 8000750:	f021 4100 	bic.w	r1, r1, #2147483648	@ 0x80000000
 8000754:	eb10 70d3 	adds.w	r0, r0, r3, lsr #31
 8000758:	fa21 f604 	lsr.w	r6, r1, r4
 800075c:	eb42 0106 	adc.w	r1, r2, r6
 8000760:	ea5e 0e43 	orrs.w	lr, lr, r3, lsl #1
 8000764:	bf08      	it	eq
 8000766:	ea20 70d3 	biceq.w	r0, r0, r3, lsr #31
 800076a:	bd70      	pop	{r4, r5, r6, pc}
 800076c:	f1c4 040c 	rsb	r4, r4, #12
 8000770:	f1c4 0520 	rsb	r5, r4, #32
 8000774:	fa00 f304 	lsl.w	r3, r0, r4
 8000778:	fa20 f005 	lsr.w	r0, r0, r5
 800077c:	fa01 f204 	lsl.w	r2, r1, r4
 8000780:	ea40 0002 	orr.w	r0, r0, r2
 8000784:	f001 4100 	and.w	r1, r1, #2147483648	@ 0x80000000
 8000788:	eb10 70d3 	adds.w	r0, r0, r3, lsr #31
 800078c:	f141 0100 	adc.w	r1, r1, #0
 8000790:	ea5e 0e43 	orrs.w	lr, lr, r3, lsl #1
 8000794:	bf08      	it	eq
 8000796:	ea20 70d3 	biceq.w	r0, r0, r3, lsr #31
 800079a:	bd70      	pop	{r4, r5, r6, pc}
 800079c:	f1c4 0520 	rsb	r5, r4, #32
 80007a0:	fa00 f205 	lsl.w	r2, r0, r5
 80007a4:	ea4e 0e02 	orr.w	lr, lr, r2
 80007a8:	fa20 f304 	lsr.w	r3, r0, r4
 80007ac:	fa01 f205 	lsl.w	r2, r1, r5
 80007b0:	ea43 0302 	orr.w	r3, r3, r2
 80007b4:	fa21 f004 	lsr.w	r0, r1, r4
 80007b8:	f001 4100 	and.w	r1, r1, #2147483648	@ 0x80000000
 80007bc:	fa21 f204 	lsr.w	r2, r1, r4
 80007c0:	ea20 0002 	bic.w	r0, r0, r2
 80007c4:	eb00 70d3 	add.w	r0, r0, r3, lsr #31
 80007c8:	ea5e 0e43 	orrs.w	lr, lr, r3, lsl #1
 80007cc:	bf08      	it	eq
 80007ce:	ea20 70d3 	biceq.w	r0, r0, r3, lsr #31
 80007d2:	bd70      	pop	{r4, r5, r6, pc}
 80007d4:	f094 0f00 	teq	r4, #0
 80007d8:	d10f      	bne.n	80007fa <__aeabi_dmul+0x1c2>
 80007da:	f001 4600 	and.w	r6, r1, #2147483648	@ 0x80000000
 80007de:	0040      	lsls	r0, r0, #1
 80007e0:	eb41 0101 	adc.w	r1, r1, r1
 80007e4:	f411 1f80 	tst.w	r1, #1048576	@ 0x100000
 80007e8:	bf08      	it	eq
 80007ea:	3c01      	subeq	r4, #1
 80007ec:	d0f7      	beq.n	80007de <__aeabi_dmul+0x1a6>
 80007ee:	ea41 0106 	orr.w	r1, r1, r6
 80007f2:	f095 0f00 	teq	r5, #0
 80007f6:	bf18      	it	ne
 80007f8:	4770      	bxne	lr
 80007fa:	f003 4600 	and.w	r6, r3, #2147483648	@ 0x80000000
 80007fe:	0052      	lsls	r2, r2, #1
 8000800:	eb43 0303 	adc.w	r3, r3, r3
 8000804:	f413 1f80 	tst.w	r3, #1048576	@ 0x100000
 8000808:	bf08      	it	eq
 800080a:	3d01      	subeq	r5, #1
 800080c:	d0f7      	beq.n	80007fe <__aeabi_dmul+0x1c6>
 800080e:	ea43 0306 	orr.w	r3, r3, r6
 8000812:	4770      	bx	lr
 8000814:	ea94 0f0c 	teq	r4, ip
 8000818:	ea0c 5513 	and.w	r5, ip, r3, lsr #20
 800081c:	bf18      	it	ne
 800081e:	ea95 0f0c 	teqne	r5, ip
 8000822:	d00c      	beq.n	800083e <__aeabi_dmul+0x206>
 8000824:	ea50 0641 	orrs.w	r6, r0, r1, lsl #1
 8000828:	bf18      	it	ne
 800082a:	ea52 0643 	orrsne.w	r6, r2, r3, lsl #1
 800082e:	d1d1      	bne.n	80007d4 <__aeabi_dmul+0x19c>
 8000830:	ea81 0103 	eor.w	r1, r1, r3
 8000834:	f001 4100 	and.w	r1, r1, #2147483648	@ 0x80000000
 8000838:	f04f 0000 	mov.w	r0, #0
 800083c:	bd70      	pop	{r4, r5, r6, pc}
 800083e:	ea50 0641 	orrs.w	r6, r0, r1, lsl #1
 8000842:	bf06      	itte	eq
 8000844:	4610      	moveq	r0, r2
 8000846:	4619      	moveq	r1, r3
 8000848:	ea52 0643 	orrsne.w	r6, r2, r3, lsl #1
 800084c:	d019      	beq.n	8000882 <__aeabi_dmul+0x24a>
 800084e:	ea94 0f0c 	teq	r4, ip
 8000852:	d102      	bne.n	800085a <__aeabi_dmul+0x222>
 8000854:	ea50 3601 	orrs.w	r6, r0, r1, lsl #12
 8000858:	d113      	bne.n	8000882 <__aeabi_dmul+0x24a>
 800085a:	ea95 0f0c 	teq	r5, ip
 800085e:	d105      	bne.n	800086c <__aeabi_dmul+0x234>
 8000860:	ea52 3603 	orrs.w	r6, r2, r3, lsl #12
 8000864:	bf1c      	itt	ne
 8000866:	4610      	movne	r0, r2
 8000868:	4619      	movne	r1, r3
 800086a:	d10a      	bne.n	8000882 <__aeabi_dmul+0x24a>
 800086c:	ea81 0103 	eor.w	r1, r1, r3
 8000870:	f001 4100 	and.w	r1, r1, #2147483648	@ 0x80000000
 8000874:	f041 41fe 	orr.w	r1, r1, #2130706432	@ 0x7f000000
 8000878:	f441 0170 	orr.w	r1, r1, #15728640	@ 0xf00000
 800087c:	f04f 0000 	mov.w	r0, #0
 8000880:	bd70      	pop	{r4, r5, r6, pc}
 8000882:	f041 41fe 	orr.w	r1, r1, #2130706432	@ 0x7f000000
 8000886:	f441 0178 	orr.w	r1, r1, #16252928	@ 0xf80000
 800088a:	bd70      	pop	{r4, r5, r6, pc}

0800088c <__aeabi_ddiv>:
 800088c:	b570      	push	{r4, r5, r6, lr}
 800088e:	f04f 0cff 	mov.w	ip, #255	@ 0xff
 8000892:	f44c 6ce0 	orr.w	ip, ip, #1792	@ 0x700
 8000896:	ea1c 5411 	ands.w	r4, ip, r1, lsr #20
 800089a:	bf1d      	ittte	ne
 800089c:	ea1c 5513 	andsne.w	r5, ip, r3, lsr #20
 80008a0:	ea94 0f0c 	teqne	r4, ip
 80008a4:	ea95 0f0c 	teqne	r5, ip
 80008a8:	f000 f8a7 	bleq	80009fa <__aeabi_ddiv+0x16e>
 80008ac:	eba4 0405 	sub.w	r4, r4, r5
 80008b0:	ea81 0e03 	eor.w	lr, r1, r3
 80008b4:	ea52 3503 	orrs.w	r5, r2, r3, lsl #12
 80008b8:	ea4f 3101 	mov.w	r1, r1, lsl #12
 80008bc:	f000 8088 	beq.w	80009d0 <__aeabi_ddiv+0x144>
 80008c0:	ea4f 3303 	mov.w	r3, r3, lsl #12
 80008c4:	f04f 5580 	mov.w	r5, #268435456	@ 0x10000000
 80008c8:	ea45 1313 	orr.w	r3, r5, r3, lsr #4
 80008cc:	ea43 6312 	orr.w	r3, r3, r2, lsr #24
 80008d0:	ea4f 2202 	mov.w	r2, r2, lsl #8
 80008d4:	ea45 1511 	orr.w	r5, r5, r1, lsr #4
 80008d8:	ea45 6510 	orr.w	r5, r5, r0, lsr #24
 80008dc:	ea4f 2600 	mov.w	r6, r0, lsl #8
 80008e0:	f00e 4100 	and.w	r1, lr, #2147483648	@ 0x80000000
 80008e4:	429d      	cmp	r5, r3
 80008e6:	bf08      	it	eq
 80008e8:	4296      	cmpeq	r6, r2
 80008ea:	f144 04fd 	adc.w	r4, r4, #253	@ 0xfd
 80008ee:	f504 7440 	add.w	r4, r4, #768	@ 0x300
 80008f2:	d202      	bcs.n	80008fa <__aeabi_ddiv+0x6e>
 80008f4:	085b      	lsrs	r3, r3, #1
 80008f6:	ea4f 0232 	mov.w	r2, r2, rrx
 80008fa:	1ab6      	subs	r6, r6, r2
 80008fc:	eb65 0503 	sbc.w	r5, r5, r3
 8000900:	085b      	lsrs	r3, r3, #1
 8000902:	ea4f 0232 	mov.w	r2, r2, rrx
 8000906:	f44f 1080 	mov.w	r0, #1048576	@ 0x100000
 800090a:	f44f 2c00 	mov.w	ip, #524288	@ 0x80000
 800090e:	ebb6 0e02 	subs.w	lr, r6, r2
 8000912:	eb75 0e03 	sbcs.w	lr, r5, r3
 8000916:	bf22      	ittt	cs
 8000918:	1ab6      	subcs	r6, r6, r2
 800091a:	4675      	movcs	r5, lr
 800091c:	ea40 000c 	orrcs.w	r0, r0, ip
 8000920:	085b      	lsrs	r3, r3, #1
 8000922:	ea4f 0232 	mov.w	r2, r2, rrx
 8000926:	ebb6 0e02 	subs.w	lr, r6, r2
 800092a:	eb75 0e03 	sbcs.w	lr, r5, r3
 800092e:	bf22      	ittt	cs
 8000930:	1ab6      	subcs	r6, r6, r2
 8000932:	4675      	movcs	r5, lr
 8000934:	ea40 005c 	orrcs.w	r0, r0, ip, lsr #1
 8000938:	085b      	lsrs	r3, r3, #1
 800093a:	ea4f 0232 	mov.w	r2, r2, rrx
 800093e:	ebb6 0e02 	subs.w	lr, r6, r2
 8000942:	eb75 0e03 	sbcs.w	lr, r5, r3
 8000946:	bf22      	ittt	cs
 8000948:	1ab6      	subcs	r6, r6, r2
 800094a:	4675      	movcs	r5, lr
 800094c:	ea40 009c 	orrcs.w	r0, r0, ip, lsr #2
 8000950:	085b      	lsrs	r3, r3, #1
 8000952:	ea4f 0232 	mov.w	r2, r2, rrx
 8000956:	ebb6 0e02 	subs.w	lr, r6, r2
 800095a:	eb75 0e03 	sbcs.w	lr, r5, r3
 800095e:	bf22      	ittt	cs
 8000960:	1ab6      	subcs	r6, r6, r2
 8000962:	4675      	movcs	r5, lr
 8000964:	ea40 00dc 	orrcs.w	r0, r0, ip, lsr #3
 8000968:	ea55 0e06 	orrs.w	lr, r5, r6
 800096c:	d018      	beq.n	80009a0 <__aeabi_ddiv+0x114>
 800096e:	ea4f 1505 	mov.w	r5, r5, lsl #4
 8000972:	ea45 7516 	orr.w	r5, r5, r6, lsr #28
 8000976:	ea4f 1606 	mov.w	r6, r6, lsl #4
 800097a:	ea4f 03c3 	mov.w	r3, r3, lsl #3
 800097e:	ea43 7352 	orr.w	r3, r3, r2, lsr #29
 8000982:	ea4f 02c2 	mov.w	r2, r2, lsl #3
 8000986:	ea5f 1c1c 	movs.w	ip, ip, lsr #4
 800098a:	d1c0      	bne.n	800090e <__aeabi_ddiv+0x82>
 800098c:	f411 1f80 	tst.w	r1, #1048576	@ 0x100000
 8000990:	d10b      	bne.n	80009aa <__aeabi_ddiv+0x11e>
 8000992:	ea41 0100 	orr.w	r1, r1, r0
 8000996:	f04f 0000 	mov.w	r0, #0
 800099a:	f04f 4c00 	mov.w	ip, #2147483648	@ 0x80000000
 800099e:	e7b6      	b.n	800090e <__aeabi_ddiv+0x82>
 80009a0:	f411 1f80 	tst.w	r1, #1048576	@ 0x100000
 80009a4:	bf04      	itt	eq
 80009a6:	4301      	orreq	r1, r0
 80009a8:	2000      	moveq	r0, #0
 80009aa:	f1b4 0cfd 	subs.w	ip, r4, #253	@ 0xfd
 80009ae:	bf88      	it	hi
 80009b0:	f5bc 6fe0 	cmphi.w	ip, #1792	@ 0x700
 80009b4:	f63f aeaf 	bhi.w	8000716 <__aeabi_dmul+0xde>
 80009b8:	ebb5 0c03 	subs.w	ip, r5, r3
 80009bc:	bf04      	itt	eq
 80009be:	ebb6 0c02 	subseq.w	ip, r6, r2
 80009c2:	ea5f 0c50 	movseq.w	ip, r0, lsr #1
 80009c6:	f150 0000 	adcs.w	r0, r0, #0
 80009ca:	eb41 5104 	adc.w	r1, r1, r4, lsl #20
 80009ce:	bd70      	pop	{r4, r5, r6, pc}
 80009d0:	f00e 4e00 	and.w	lr, lr, #2147483648	@ 0x80000000
 80009d4:	ea4e 3111 	orr.w	r1, lr, r1, lsr #12
 80009d8:	eb14 045c 	adds.w	r4, r4, ip, lsr #1
 80009dc:	bfc2      	ittt	gt
 80009de:	ebd4 050c 	rsbsgt	r5, r4, ip
 80009e2:	ea41 5104 	orrgt.w	r1, r1, r4, lsl #20
 80009e6:	bd70      	popgt	{r4, r5, r6, pc}
 80009e8:	f441 1180 	orr.w	r1, r1, #1048576	@ 0x100000
 80009ec:	f04f 0e00 	mov.w	lr, #0
 80009f0:	3c01      	subs	r4, #1
 80009f2:	e690      	b.n	8000716 <__aeabi_dmul+0xde>
 80009f4:	ea45 0e06 	orr.w	lr, r5, r6
 80009f8:	e68d      	b.n	8000716 <__aeabi_dmul+0xde>
 80009fa:	ea0c 5513 	and.w	r5, ip, r3, lsr #20
 80009fe:	ea94 0f0c 	teq	r4, ip
 8000a02:	bf08      	it	eq
 8000a04:	ea95 0f0c 	teqeq	r5, ip
 8000a08:	f43f af3b 	beq.w	8000882 <__aeabi_dmul+0x24a>
 8000a0c:	ea94 0f0c 	teq	r4, ip
 8000a10:	d10a      	bne.n	8000a28 <__aeabi_ddiv+0x19c>
 8000a12:	ea50 3401 	orrs.w	r4, r0, r1, lsl #12
 8000a16:	f47f af34 	bne.w	8000882 <__aeabi_dmul+0x24a>
 8000a1a:	ea95 0f0c 	teq	r5, ip
 8000a1e:	f47f af25 	bne.w	800086c <__aeabi_dmul+0x234>
 8000a22:	4610      	mov	r0, r2
 8000a24:	4619      	mov	r1, r3
 8000a26:	e72c      	b.n	8000882 <__aeabi_dmul+0x24a>
 8000a28:	ea95 0f0c 	teq	r5, ip
 8000a2c:	d106      	bne.n	8000a3c <__aeabi_ddiv+0x1b0>
 8000a2e:	ea52 3503 	orrs.w	r5, r2, r3, lsl #12
 8000a32:	f43f aefd 	beq.w	8000830 <__aeabi_dmul+0x1f8>
 8000a36:	4610      	mov	r0, r2
 8000a38:	4619      	mov	r1, r3
 8000a3a:	e722      	b.n	8000882 <__aeabi_dmul+0x24a>
 8000a3c:	ea50 0641 	orrs.w	r6, r0, r1, lsl #1
 8000a40:	bf18      	it	ne
 8000a42:	ea52 0643 	orrsne.w	r6, r2, r3, lsl #1
 8000a46:	f47f aec5 	bne.w	80007d4 <__aeabi_dmul+0x19c>
 8000a4a:	ea50 0441 	orrs.w	r4, r0, r1, lsl #1
 8000a4e:	f47f af0d 	bne.w	800086c <__aeabi_dmul+0x234>
 8000a52:	ea52 0543 	orrs.w	r5, r2, r3, lsl #1
 8000a56:	f47f aeeb 	bne.w	8000830 <__aeabi_dmul+0x1f8>
 8000a5a:	e712      	b.n	8000882 <__aeabi_dmul+0x24a>

08000a5c <__gedf2>:
 8000a5c:	f04f 3cff 	mov.w	ip, #4294967295	@ 0xffffffff
 8000a60:	e006      	b.n	8000a70 <__cmpdf2+0x4>
 8000a62:	bf00      	nop

08000a64 <__ledf2>:
 8000a64:	f04f 0c01 	mov.w	ip, #1
 8000a68:	e002      	b.n	8000a70 <__cmpdf2+0x4>
 8000a6a:	bf00      	nop

08000a6c <__cmpdf2>:
 8000a6c:	f04f 0c01 	mov.w	ip, #1
 8000a70:	f84d cd04 	str.w	ip, [sp, #-4]!
 8000a74:	ea4f 0c41 	mov.w	ip, r1, lsl #1
 8000a78:	ea7f 5c6c 	mvns.w	ip, ip, asr #21
 8000a7c:	ea4f 0c43 	mov.w	ip, r3, lsl #1
 8000a80:	bf18      	it	ne
 8000a82:	ea7f 5c6c 	mvnsne.w	ip, ip, asr #21
 8000a86:	d01b      	beq.n	8000ac0 <__cmpdf2+0x54>
 8000a88:	b001      	add	sp, #4
 8000a8a:	ea50 0c41 	orrs.w	ip, r0, r1, lsl #1
 8000a8e:	bf0c      	ite	eq
 8000a90:	ea52 0c43 	orrseq.w	ip, r2, r3, lsl #1
 8000a94:	ea91 0f03 	teqne	r1, r3
 8000a98:	bf02      	ittt	eq
 8000a9a:	ea90 0f02 	teqeq	r0, r2
 8000a9e:	2000      	moveq	r0, #0
 8000aa0:	4770      	bxeq	lr
 8000aa2:	f110 0f00 	cmn.w	r0, #0
 8000aa6:	ea91 0f03 	teq	r1, r3
 8000aaa:	bf58      	it	pl
 8000aac:	4299      	cmppl	r1, r3
 8000aae:	bf08      	it	eq
 8000ab0:	4290      	cmpeq	r0, r2
 8000ab2:	bf2c      	ite	cs
 8000ab4:	17d8      	asrcs	r0, r3, #31
 8000ab6:	ea6f 70e3 	mvncc.w	r0, r3, asr #31
 8000aba:	f040 0001 	orr.w	r0, r0, #1
 8000abe:	4770      	bx	lr
 8000ac0:	ea4f 0c41 	mov.w	ip, r1, lsl #1
 8000ac4:	ea7f 5c6c 	mvns.w	ip, ip, asr #21
 8000ac8:	d102      	bne.n	8000ad0 <__cmpdf2+0x64>
 8000aca:	ea50 3c01 	orrs.w	ip, r0, r1, lsl #12
 8000ace:	d107      	bne.n	8000ae0 <__cmpdf2+0x74>
 8000ad0:	ea4f 0c43 	mov.w	ip, r3, lsl #1
 8000ad4:	ea7f 5c6c 	mvns.w	ip, ip, asr #21
 8000ad8:	d1d6      	bne.n	8000a88 <__cmpdf2+0x1c>
 8000ada:	ea52 3c03 	orrs.w	ip, r2, r3, lsl #12
 8000ade:	d0d3      	beq.n	8000a88 <__cmpdf2+0x1c>
 8000ae0:	f85d 0b04 	ldr.w	r0, [sp], #4
 8000ae4:	4770      	bx	lr
 8000ae6:	bf00      	nop

08000ae8 <__aeabi_cdrcmple>:
 8000ae8:	4684      	mov	ip, r0
 8000aea:	4610      	mov	r0, r2
 8000aec:	4662      	mov	r2, ip
 8000aee:	468c      	mov	ip, r1
 8000af0:	4619      	mov	r1, r3
 8000af2:	4663      	mov	r3, ip
 8000af4:	e000      	b.n	8000af8 <__aeabi_cdcmpeq>
 8000af6:	bf00      	nop

08000af8 <__aeabi_cdcmpeq>:
 8000af8:	b501      	push	{r0, lr}
 8000afa:	f7ff ffb7 	bl	8000a6c <__cmpdf2>
 8000afe:	2800      	cmp	r0, #0
 8000b00:	bf48      	it	mi
 8000b02:	f110 0f00 	cmnmi.w	r0, #0
 8000b06:	bd01      	pop	{r0, pc}

08000b08 <__aeabi_dcmpeq>:
 8000b08:	f84d ed08 	str.w	lr, [sp, #-8]!
 8000b0c:	f7ff fff4 	bl	8000af8 <__aeabi_cdcmpeq>
 8000b10:	bf0c      	ite	eq
 8000b12:	2001      	moveq	r0, #1
 8000b14:	2000      	movne	r0, #0
 8000b16:	f85d fb08 	ldr.w	pc, [sp], #8
 8000b1a:	bf00      	nop

08000b1c <__aeabi_dcmplt>:
 8000b1c:	f84d ed08 	str.w	lr, [sp, #-8]!
 8000b20:	f7ff ffea 	bl	8000af8 <__aeabi_cdcmpeq>
 8000b24:	bf34      	ite	cc
 8000b26:	2001      	movcc	r0, #1
 8000b28:	2000      	movcs	r0, #0
 8000b2a:	f85d fb08 	ldr.w	pc, [sp], #8
 8000b2e:	bf00      	nop

08000b30 <__aeabi_dcmple>:
 8000b30:	f84d ed08 	str.w	lr, [sp, #-8]!
 8000b34:	f7ff ffe0 	bl	8000af8 <__aeabi_cdcmpeq>
 8000b38:	bf94      	ite	ls
 8000b3a:	2001      	movls	r0, #1
 8000b3c:	2000      	movhi	r0, #0
 8000b3e:	f85d fb08 	ldr.w	pc, [sp], #8
 8000b42:	bf00      	nop

08000b44 <__aeabi_dcmpge>:
 8000b44:	f84d ed08 	str.w	lr, [sp, #-8]!
 8000b48:	f7ff ffce 	bl	8000ae8 <__aeabi_cdrcmple>
 8000b4c:	bf94      	ite	ls
 8000b4e:	2001      	movls	r0, #1
 8000b50:	2000      	movhi	r0, #0
 8000b52:	f85d fb08 	ldr.w	pc, [sp], #8
 8000b56:	bf00      	nop

08000b58 <__aeabi_dcmpgt>:
 8000b58:	f84d ed08 	str.w	lr, [sp, #-8]!
 8000b5c:	f7ff ffc4 	bl	8000ae8 <__aeabi_cdrcmple>
 8000b60:	bf34      	ite	cc
 8000b62:	2001      	movcc	r0, #1
 8000b64:	2000      	movcs	r0, #0
 8000b66:	f85d fb08 	ldr.w	pc, [sp], #8
 8000b6a:	bf00      	nop

08000b6c <__aeabi_dcmpun>:
 8000b6c:	ea4f 0c41 	mov.w	ip, r1, lsl #1
 8000b70:	ea7f 5c6c 	mvns.w	ip, ip, asr #21
 8000b74:	d102      	bne.n	8000b7c <__aeabi_dcmpun+0x10>
 8000b76:	ea50 3c01 	orrs.w	ip, r0, r1, lsl #12
 8000b7a:	d10a      	bne.n	8000b92 <__aeabi_dcmpun+0x26>
 8000b7c:	ea4f 0c43 	mov.w	ip, r3, lsl #1
 8000b80:	ea7f 5c6c 	mvns.w	ip, ip, asr #21
 8000b84:	d102      	bne.n	8000b8c <__aeabi_dcmpun+0x20>
 8000b86:	ea52 3c03 	orrs.w	ip, r2, r3, lsl #12
 8000b8a:	d102      	bne.n	8000b92 <__aeabi_dcmpun+0x26>
 8000b8c:	f04f 0000 	mov.w	r0, #0
 8000b90:	4770      	bx	lr
 8000b92:	f04f 0001 	mov.w	r0, #1
 8000b96:	4770      	bx	lr

08000b98 <__aeabi_d2iz>:
 8000b98:	ea4f 0241 	mov.w	r2, r1, lsl #1
 8000b9c:	f512 1200 	adds.w	r2, r2, #2097152	@ 0x200000
 8000ba0:	d215      	bcs.n	8000bce <__aeabi_d2iz+0x36>
 8000ba2:	d511      	bpl.n	8000bc8 <__aeabi_d2iz+0x30>
 8000ba4:	f46f 7378 	mvn.w	r3, #992	@ 0x3e0
 8000ba8:	ebb3 5262 	subs.w	r2, r3, r2, asr #21
 8000bac:	d912      	bls.n	8000bd4 <__aeabi_d2iz+0x3c>
 8000bae:	ea4f 23c1 	mov.w	r3, r1, lsl #11
 8000bb2:	f043 4300 	orr.w	r3, r3, #2147483648	@ 0x80000000
 8000bb6:	ea43 5350 	orr.w	r3, r3, r0, lsr #21
 8000bba:	f011 4f00 	tst.w	r1, #2147483648	@ 0x80000000
 8000bbe:	fa23 f002 	lsr.w	r0, r3, r2
 8000bc2:	bf18      	it	ne
 8000bc4:	4240      	negne	r0, r0
 8000bc6:	4770      	bx	lr
 8000bc8:	f04f 0000 	mov.w	r0, #0
 8000bcc:	4770      	bx	lr
 8000bce:	ea50 3001 	orrs.w	r0, r0, r1, lsl #12
 8000bd2:	d105      	bne.n	8000be0 <__aeabi_d2iz+0x48>
 8000bd4:	f011 4000 	ands.w	r0, r1, #2147483648	@ 0x80000000
 8000bd8:	bf08      	it	eq
 8000bda:	f06f 4000 	mvneq.w	r0, #2147483648	@ 0x80000000
 8000bde:	4770      	bx	lr
 8000be0:	f04f 0000 	mov.w	r0, #0
 8000be4:	4770      	bx	lr
 8000be6:	bf00      	nop

08000be8 <__aeabi_d2f>:
 8000be8:	ea4f 0241 	mov.w	r2, r1, lsl #1
 8000bec:	f1b2 43e0 	subs.w	r3, r2, #1879048192	@ 0x70000000
 8000bf0:	bf24      	itt	cs
 8000bf2:	f5b3 1c00 	subscs.w	ip, r3, #2097152	@ 0x200000
 8000bf6:	f1dc 5cfe 	rsbscs	ip, ip, #532676608	@ 0x1fc00000
 8000bfa:	d90d      	bls.n	8000c18 <__aeabi_d2f+0x30>
 8000bfc:	f001 4c00 	and.w	ip, r1, #2147483648	@ 0x80000000
 8000c00:	ea4f 02c0 	mov.w	r2, r0, lsl #3
 8000c04:	ea4c 7050 	orr.w	r0, ip, r0, lsr #29
 8000c08:	f1b2 4f00 	cmp.w	r2, #2147483648	@ 0x80000000
 8000c0c:	eb40 0083 	adc.w	r0, r0, r3, lsl #2
 8000c10:	bf08      	it	eq
 8000c12:	f020 0001 	biceq.w	r0, r0, #1
 8000c16:	4770      	bx	lr
 8000c18:	f011 4f80 	tst.w	r1, #1073741824	@ 0x40000000
 8000c1c:	d121      	bne.n	8000c62 <__aeabi_d2f+0x7a>
 8000c1e:	f113 7238 	adds.w	r2, r3, #48234496	@ 0x2e00000
 8000c22:	bfbc      	itt	lt
 8000c24:	f001 4000 	andlt.w	r0, r1, #2147483648	@ 0x80000000
 8000c28:	4770      	bxlt	lr
 8000c2a:	f441 1180 	orr.w	r1, r1, #1048576	@ 0x100000
 8000c2e:	ea4f 5252 	mov.w	r2, r2, lsr #21
 8000c32:	f1c2 0218 	rsb	r2, r2, #24
 8000c36:	f1c2 0c20 	rsb	ip, r2, #32
 8000c3a:	fa10 f30c 	lsls.w	r3, r0, ip
 8000c3e:	fa20 f002 	lsr.w	r0, r0, r2
 8000c42:	bf18      	it	ne
 8000c44:	f040 0001 	orrne.w	r0, r0, #1
 8000c48:	ea4f 23c1 	mov.w	r3, r1, lsl #11
 8000c4c:	ea4f 23d3 	mov.w	r3, r3, lsr #11
 8000c50:	fa03 fc0c 	lsl.w	ip, r3, ip
 8000c54:	ea40 000c 	orr.w	r0, r0, ip
 8000c58:	fa23 f302 	lsr.w	r3, r3, r2
 8000c5c:	ea4f 0343 	mov.w	r3, r3, lsl #1
 8000c60:	e7cc      	b.n	8000bfc <__aeabi_d2f+0x14>
 8000c62:	ea7f 5362 	mvns.w	r3, r2, asr #21
 8000c66:	d107      	bne.n	8000c78 <__aeabi_d2f+0x90>
 8000c68:	ea50 3301 	orrs.w	r3, r0, r1, lsl #12
 8000c6c:	bf1e      	ittt	ne
 8000c6e:	f04f 40fe 	movne.w	r0, #2130706432	@ 0x7f000000
 8000c72:	f440 0040 	orrne.w	r0, r0, #12582912	@ 0xc00000
 8000c76:	4770      	bxne	lr
 8000c78:	f001 4000 	and.w	r0, r1, #2147483648	@ 0x80000000
 8000c7c:	f040 40fe 	orr.w	r0, r0, #2130706432	@ 0x7f000000
 8000c80:	f440 0000 	orr.w	r0, r0, #8388608	@ 0x800000
 8000c84:	4770      	bx	lr
 8000c86:	bf00      	nop

08000c88 <__aeabi_uldivmod>:
 8000c88:	b953      	cbnz	r3, 8000ca0 <__aeabi_uldivmod+0x18>
 8000c8a:	b94a      	cbnz	r2, 8000ca0 <__aeabi_uldivmod+0x18>
 8000c8c:	2900      	cmp	r1, #0
 8000c8e:	bf08      	it	eq
 8000c90:	2800      	cmpeq	r0, #0
 8000c92:	bf1c      	itt	ne
 8000c94:	f04f 31ff 	movne.w	r1, #4294967295	@ 0xffffffff
 8000c98:	f04f 30ff 	movne.w	r0, #4294967295	@ 0xffffffff
 8000c9c:	f000 b96a 	b.w	8000f74 <__aeabi_idiv0>
 8000ca0:	f1ad 0c08 	sub.w	ip, sp, #8
 8000ca4:	e96d ce04 	strd	ip, lr, [sp, #-16]!
 8000ca8:	f000 f806 	bl	8000cb8 <__udivmoddi4>
 8000cac:	f8dd e004 	ldr.w	lr, [sp, #4]
 8000cb0:	e9dd 2302 	ldrd	r2, r3, [sp, #8]
 8000cb4:	b004      	add	sp, #16
 8000cb6:	4770      	bx	lr

08000cb8 <__udivmoddi4>:
 8000cb8:	e92d 47f0 	stmdb	sp!, {r4, r5, r6, r7, r8, r9, sl, lr}
 8000cbc:	9d08      	ldr	r5, [sp, #32]
 8000cbe:	460c      	mov	r4, r1
 8000cc0:	2b00      	cmp	r3, #0
 8000cc2:	d14e      	bne.n	8000d62 <__udivmoddi4+0xaa>
 8000cc4:	4694      	mov	ip, r2
 8000cc6:	458c      	cmp	ip, r1
 8000cc8:	4686      	mov	lr, r0
 8000cca:	fab2 f282 	clz	r2, r2
 8000cce:	d962      	bls.n	8000d96 <__udivmoddi4+0xde>
 8000cd0:	b14a      	cbz	r2, 8000ce6 <__udivmoddi4+0x2e>
 8000cd2:	f1c2 0320 	rsb	r3, r2, #32
 8000cd6:	4091      	lsls	r1, r2
 8000cd8:	fa20 f303 	lsr.w	r3, r0, r3
 8000cdc:	fa0c fc02 	lsl.w	ip, ip, r2
 8000ce0:	4319      	orrs	r1, r3
 8000ce2:	fa00 fe02 	lsl.w	lr, r0, r2
 8000ce6:	ea4f 471c 	mov.w	r7, ip, lsr #16
 8000cea:	fa1f f68c 	uxth.w	r6, ip
 8000cee:	fbb1 f4f7 	udiv	r4, r1, r7
 8000cf2:	ea4f 431e 	mov.w	r3, lr, lsr #16
 8000cf6:	fb07 1114 	mls	r1, r7, r4, r1
 8000cfa:	ea43 4301 	orr.w	r3, r3, r1, lsl #16
 8000cfe:	fb04 f106 	mul.w	r1, r4, r6
 8000d02:	4299      	cmp	r1, r3
 8000d04:	d90a      	bls.n	8000d1c <__udivmoddi4+0x64>
 8000d06:	eb1c 0303 	adds.w	r3, ip, r3
 8000d0a:	f104 30ff 	add.w	r0, r4, #4294967295	@ 0xffffffff
 8000d0e:	f080 8112 	bcs.w	8000f36 <__udivmoddi4+0x27e>
 8000d12:	4299      	cmp	r1, r3
 8000d14:	f240 810f 	bls.w	8000f36 <__udivmoddi4+0x27e>
 8000d18:	3c02      	subs	r4, #2
 8000d1a:	4463      	add	r3, ip
 8000d1c:	1a59      	subs	r1, r3, r1
 8000d1e:	fa1f f38e 	uxth.w	r3, lr
 8000d22:	fbb1 f0f7 	udiv	r0, r1, r7
 8000d26:	fb07 1110 	mls	r1, r7, r0, r1
 8000d2a:	ea43 4301 	orr.w	r3, r3, r1, lsl #16
 8000d2e:	fb00 f606 	mul.w	r6, r0, r6
 8000d32:	429e      	cmp	r6, r3
 8000d34:	d90a      	bls.n	8000d4c <__udivmoddi4+0x94>
 8000d36:	eb1c 0303 	adds.w	r3, ip, r3
 8000d3a:	f100 31ff 	add.w	r1, r0, #4294967295	@ 0xffffffff
 8000d3e:	f080 80fc 	bcs.w	8000f3a <__udivmoddi4+0x282>
 8000d42:	429e      	cmp	r6, r3
 8000d44:	f240 80f9 	bls.w	8000f3a <__udivmoddi4+0x282>
 8000d48:	4463      	add	r3, ip
 8000d4a:	3802      	subs	r0, #2
 8000d4c:	1b9b      	subs	r3, r3, r6
 8000d4e:	ea40 4004 	orr.w	r0, r0, r4, lsl #16
 8000d52:	2100      	movs	r1, #0
 8000d54:	b11d      	cbz	r5, 8000d5e <__udivmoddi4+0xa6>
 8000d56:	40d3      	lsrs	r3, r2
 8000d58:	2200      	movs	r2, #0
 8000d5a:	e9c5 3200 	strd	r3, r2, [r5]
 8000d5e:	e8bd 87f0 	ldmia.w	sp!, {r4, r5, r6, r7, r8, r9, sl, pc}
 8000d62:	428b      	cmp	r3, r1
 8000d64:	d905      	bls.n	8000d72 <__udivmoddi4+0xba>
 8000d66:	b10d      	cbz	r5, 8000d6c <__udivmoddi4+0xb4>
 8000d68:	e9c5 0100 	strd	r0, r1, [r5]
 8000d6c:	2100      	movs	r1, #0
 8000d6e:	4608      	mov	r0, r1
 8000d70:	e7f5      	b.n	8000d5e <__udivmoddi4+0xa6>
 8000d72:	fab3 f183 	clz	r1, r3
 8000d76:	2900      	cmp	r1, #0
 8000d78:	d146      	bne.n	8000e08 <__udivmoddi4+0x150>
 8000d7a:	42a3      	cmp	r3, r4
 8000d7c:	d302      	bcc.n	8000d84 <__udivmoddi4+0xcc>
 8000d7e:	4290      	cmp	r0, r2
 8000d80:	f0c0 80f0 	bcc.w	8000f64 <__udivmoddi4+0x2ac>
 8000d84:	1a86      	subs	r6, r0, r2
 8000d86:	eb64 0303 	sbc.w	r3, r4, r3
 8000d8a:	2001      	movs	r0, #1
 8000d8c:	2d00      	cmp	r5, #0
 8000d8e:	d0e6      	beq.n	8000d5e <__udivmoddi4+0xa6>
 8000d90:	e9c5 6300 	strd	r6, r3, [r5]
 8000d94:	e7e3      	b.n	8000d5e <__udivmoddi4+0xa6>
 8000d96:	2a00      	cmp	r2, #0
 8000d98:	f040 8090 	bne.w	8000ebc <__udivmoddi4+0x204>
 8000d9c:	eba1 040c 	sub.w	r4, r1, ip
 8000da0:	ea4f 481c 	mov.w	r8, ip, lsr #16
 8000da4:	fa1f f78c 	uxth.w	r7, ip
 8000da8:	2101      	movs	r1, #1
 8000daa:	fbb4 f6f8 	udiv	r6, r4, r8
 8000dae:	ea4f 431e 	mov.w	r3, lr, lsr #16
 8000db2:	fb08 4416 	mls	r4, r8, r6, r4
 8000db6:	ea43 4304 	orr.w	r3, r3, r4, lsl #16
 8000dba:	fb07 f006 	mul.w	r0, r7, r6
 8000dbe:	4298      	cmp	r0, r3
 8000dc0:	d908      	bls.n	8000dd4 <__udivmoddi4+0x11c>
 8000dc2:	eb1c 0303 	adds.w	r3, ip, r3
 8000dc6:	f106 34ff 	add.w	r4, r6, #4294967295	@ 0xffffffff
 8000dca:	d202      	bcs.n	8000dd2 <__udivmoddi4+0x11a>
 8000dcc:	4298      	cmp	r0, r3
 8000dce:	f200 80cd 	bhi.w	8000f6c <__udivmoddi4+0x2b4>
 8000dd2:	4626      	mov	r6, r4
 8000dd4:	1a1c      	subs	r4, r3, r0
 8000dd6:	fa1f f38e 	uxth.w	r3, lr
 8000dda:	fbb4 f0f8 	udiv	r0, r4, r8
 8000dde:	fb08 4410 	mls	r4, r8, r0, r4
 8000de2:	ea43 4304 	orr.w	r3, r3, r4, lsl #16
 8000de6:	fb00 f707 	mul.w	r7, r0, r7
 8000dea:	429f      	cmp	r7, r3
 8000dec:	d908      	bls.n	8000e00 <__udivmoddi4+0x148>
 8000dee:	eb1c 0303 	adds.w	r3, ip, r3
 8000df2:	f100 34ff 	add.w	r4, r0, #4294967295	@ 0xffffffff
 8000df6:	d202      	bcs.n	8000dfe <__udivmoddi4+0x146>
 8000df8:	429f      	cmp	r7, r3
 8000dfa:	f200 80b0 	bhi.w	8000f5e <__udivmoddi4+0x2a6>
 8000dfe:	4620      	mov	r0, r4
 8000e00:	1bdb      	subs	r3, r3, r7
 8000e02:	ea40 4006 	orr.w	r0, r0, r6, lsl #16
 8000e06:	e7a5      	b.n	8000d54 <__udivmoddi4+0x9c>
 8000e08:	f1c1 0620 	rsb	r6, r1, #32
 8000e0c:	408b      	lsls	r3, r1
 8000e0e:	fa22 f706 	lsr.w	r7, r2, r6
 8000e12:	431f      	orrs	r7, r3
 8000e14:	fa20 fc06 	lsr.w	ip, r0, r6
 8000e18:	fa04 f301 	lsl.w	r3, r4, r1
 8000e1c:	ea43 030c 	orr.w	r3, r3, ip
 8000e20:	40f4      	lsrs	r4, r6
 8000e22:	fa00 f801 	lsl.w	r8, r0, r1
 8000e26:	0c38      	lsrs	r0, r7, #16
 8000e28:	ea4f 4913 	mov.w	r9, r3, lsr #16
 8000e2c:	fbb4 fef0 	udiv	lr, r4, r0
 8000e30:	fa1f fc87 	uxth.w	ip, r7
 8000e34:	fb00 441e 	mls	r4, r0, lr, r4
 8000e38:	ea49 4404 	orr.w	r4, r9, r4, lsl #16
 8000e3c:	fb0e f90c 	mul.w	r9, lr, ip
 8000e40:	45a1      	cmp	r9, r4
 8000e42:	fa02 f201 	lsl.w	r2, r2, r1
 8000e46:	d90a      	bls.n	8000e5e <__udivmoddi4+0x1a6>
 8000e48:	193c      	adds	r4, r7, r4
 8000e4a:	f10e 3aff 	add.w	sl, lr, #4294967295	@ 0xffffffff
 8000e4e:	f080 8084 	bcs.w	8000f5a <__udivmoddi4+0x2a2>
 8000e52:	45a1      	cmp	r9, r4
 8000e54:	f240 8081 	bls.w	8000f5a <__udivmoddi4+0x2a2>
 8000e58:	f1ae 0e02 	sub.w	lr, lr, #2
 8000e5c:	443c      	add	r4, r7
 8000e5e:	eba4 0409 	sub.w	r4, r4, r9
 8000e62:	fa1f f983 	uxth.w	r9, r3
 8000e66:	fbb4 f3f0 	udiv	r3, r4, r0
 8000e6a:	fb00 4413 	mls	r4, r0, r3, r4
 8000e6e:	ea49 4404 	orr.w	r4, r9, r4, lsl #16
 8000e72:	fb03 fc0c 	mul.w	ip, r3, ip
 8000e76:	45a4      	cmp	ip, r4
 8000e78:	d907      	bls.n	8000e8a <__udivmoddi4+0x1d2>
 8000e7a:	193c      	adds	r4, r7, r4
 8000e7c:	f103 30ff 	add.w	r0, r3, #4294967295	@ 0xffffffff
 8000e80:	d267      	bcs.n	8000f52 <__udivmoddi4+0x29a>
 8000e82:	45a4      	cmp	ip, r4
 8000e84:	d965      	bls.n	8000f52 <__udivmoddi4+0x29a>
 8000e86:	3b02      	subs	r3, #2
 8000e88:	443c      	add	r4, r7
 8000e8a:	ea43 400e 	orr.w	r0, r3, lr, lsl #16
 8000e8e:	fba0 9302 	umull	r9, r3, r0, r2
 8000e92:	eba4 040c 	sub.w	r4, r4, ip
 8000e96:	429c      	cmp	r4, r3
 8000e98:	46ce      	mov	lr, r9
 8000e9a:	469c      	mov	ip, r3
 8000e9c:	d351      	bcc.n	8000f42 <__udivmoddi4+0x28a>
 8000e9e:	d04e      	beq.n	8000f3e <__udivmoddi4+0x286>
 8000ea0:	b155      	cbz	r5, 8000eb8 <__udivmoddi4+0x200>
 8000ea2:	ebb8 030e 	subs.w	r3, r8, lr
 8000ea6:	eb64 040c 	sbc.w	r4, r4, ip
 8000eaa:	fa04 f606 	lsl.w	r6, r4, r6
 8000eae:	40cb      	lsrs	r3, r1
 8000eb0:	431e      	orrs	r6, r3
 8000eb2:	40cc      	lsrs	r4, r1
 8000eb4:	e9c5 6400 	strd	r6, r4, [r5]
 8000eb8:	2100      	movs	r1, #0
 8000eba:	e750      	b.n	8000d5e <__udivmoddi4+0xa6>
 8000ebc:	f1c2 0320 	rsb	r3, r2, #32
 8000ec0:	fa20 f103 	lsr.w	r1, r0, r3
 8000ec4:	fa0c fc02 	lsl.w	ip, ip, r2
 8000ec8:	fa24 f303 	lsr.w	r3, r4, r3
 8000ecc:	4094      	lsls	r4, r2
 8000ece:	430c      	orrs	r4, r1
 8000ed0:	ea4f 481c 	mov.w	r8, ip, lsr #16
 8000ed4:	fa00 fe02 	lsl.w	lr, r0, r2
 8000ed8:	fa1f f78c 	uxth.w	r7, ip
 8000edc:	fbb3 f0f8 	udiv	r0, r3, r8
 8000ee0:	fb08 3110 	mls	r1, r8, r0, r3
 8000ee4:	0c23      	lsrs	r3, r4, #16
 8000ee6:	ea43 4301 	orr.w	r3, r3, r1, lsl #16
 8000eea:	fb00 f107 	mul.w	r1, r0, r7
 8000eee:	4299      	cmp	r1, r3
 8000ef0:	d908      	bls.n	8000f04 <__udivmoddi4+0x24c>
 8000ef2:	eb1c 0303 	adds.w	r3, ip, r3
 8000ef6:	f100 36ff 	add.w	r6, r0, #4294967295	@ 0xffffffff
 8000efa:	d22c      	bcs.n	8000f56 <__udivmoddi4+0x29e>
 8000efc:	4299      	cmp	r1, r3
 8000efe:	d92a      	bls.n	8000f56 <__udivmoddi4+0x29e>
 8000f00:	3802      	subs	r0, #2
 8000f02:	4463      	add	r3, ip
 8000f04:	1a5b      	subs	r3, r3, r1
 8000f06:	b2a4      	uxth	r4, r4
 8000f08:	fbb3 f1f8 	udiv	r1, r3, r8
 8000f0c:	fb08 3311 	mls	r3, r8, r1, r3
 8000f10:	ea44 4403 	orr.w	r4, r4, r3, lsl #16
 8000f14:	fb01 f307 	mul.w	r3, r1, r7
 8000f18:	42a3      	cmp	r3, r4
 8000f1a:	d908      	bls.n	8000f2e <__udivmoddi4+0x276>
 8000f1c:	eb1c 0404 	adds.w	r4, ip, r4
 8000f20:	f101 36ff 	add.w	r6, r1, #4294967295	@ 0xffffffff
 8000f24:	d213      	bcs.n	8000f4e <__udivmoddi4+0x296>
 8000f26:	42a3      	cmp	r3, r4
 8000f28:	d911      	bls.n	8000f4e <__udivmoddi4+0x296>
 8000f2a:	3902      	subs	r1, #2
 8000f2c:	4464      	add	r4, ip
 8000f2e:	1ae4      	subs	r4, r4, r3
 8000f30:	ea41 4100 	orr.w	r1, r1, r0, lsl #16
 8000f34:	e739      	b.n	8000daa <__udivmoddi4+0xf2>
 8000f36:	4604      	mov	r4, r0
 8000f38:	e6f0      	b.n	8000d1c <__udivmoddi4+0x64>
 8000f3a:	4608      	mov	r0, r1
 8000f3c:	e706      	b.n	8000d4c <__udivmoddi4+0x94>
 8000f3e:	45c8      	cmp	r8, r9
 8000f40:	d2ae      	bcs.n	8000ea0 <__udivmoddi4+0x1e8>
 8000f42:	ebb9 0e02 	subs.w	lr, r9, r2
 8000f46:	eb63 0c07 	sbc.w	ip, r3, r7
 8000f4a:	3801      	subs	r0, #1
 8000f4c:	e7a8      	b.n	8000ea0 <__udivmoddi4+0x1e8>
 8000f4e:	4631      	mov	r1, r6
 8000f50:	e7ed      	b.n	8000f2e <__udivmoddi4+0x276>
 8000f52:	4603      	mov	r3, r0
 8000f54:	e799      	b.n	8000e8a <__udivmoddi4+0x1d2>
 8000f56:	4630      	mov	r0, r6
 8000f58:	e7d4      	b.n	8000f04 <__udivmoddi4+0x24c>
 8000f5a:	46d6      	mov	lr, sl
 8000f5c:	e77f      	b.n	8000e5e <__udivmoddi4+0x1a6>
 8000f5e:	4463      	add	r3, ip
 8000f60:	3802      	subs	r0, #2
 8000f62:	e74d      	b.n	8000e00 <__udivmoddi4+0x148>
 8000f64:	4606      	mov	r6, r0
 8000f66:	4623      	mov	r3, r4
 8000f68:	4608      	mov	r0, r1
 8000f6a:	e70f      	b.n	8000d8c <__udivmoddi4+0xd4>
 8000f6c:	3e02      	subs	r6, #2
 8000f6e:	4463      	add	r3, ip
 8000f70:	e730      	b.n	8000dd4 <__udivmoddi4+0x11c>
 8000f72:	bf00      	nop

08000f74 <__aeabi_idiv0>:
 8000f74:	4770      	bx	lr
 8000f76:	bf00      	nop

08000f78 <FEB_CAN_Init>:
uint32_t FEB_CAN_Tx_Mailbox;
uint8_t setup = 0;

// **************************************** Functions ****************************************

void FEB_CAN_Init(void) {
 8000f78:	b580      	push	{r7, lr}
 8000f7a:	af00      	add	r7, sp, #0
	FEB_CAN_Filter_Config();
 8000f7c:	f000 f814 	bl	8000fa8 <FEB_CAN_Filter_Config>
	if (HAL_CAN_Start(&hcan1) != HAL_OK) {
 8000f80:	4807      	ldr	r0, [pc, #28]	@ (8000fa0 <FEB_CAN_Init+0x28>)
 8000f82:	f002 fb47 	bl	8003614 <HAL_CAN_Start>
 8000f86:	4603      	mov	r3, r0
 8000f88:	2b00      	cmp	r3, #0
 8000f8a:	d002      	beq.n	8000f92 <FEB_CAN_Init+0x1a>
		setup = 1;
 8000f8c:	4b05      	ldr	r3, [pc, #20]	@ (8000fa4 <FEB_CAN_Init+0x2c>)
 8000f8e:	2201      	movs	r2, #1
 8000f90:	701a      	strb	r2, [r3, #0]
        // Code Error - Shutdown
	}
	HAL_CAN_ActivateNotification(&hcan1, CAN_IT_RX_FIFO0_MSG_PENDING);
 8000f92:	2102      	movs	r1, #2
 8000f94:	4802      	ldr	r0, [pc, #8]	@ (8000fa0 <FEB_CAN_Init+0x28>)
 8000f96:	f002 fda8 	bl	8003aea <HAL_CAN_ActivateNotification>
}
 8000f9a:	bf00      	nop
 8000f9c:	bd80      	pop	{r7, pc}
 8000f9e:	bf00      	nop
 8000fa0:	200002b8 	.word	0x200002b8
 8000fa4:	2000024c 	.word	0x2000024c

08000fa8 <FEB_CAN_Filter_Config>:

void FEB_CAN_Filter_Config(void) {
 8000fa8:	b580      	push	{r7, lr}
 8000faa:	b082      	sub	sp, #8
 8000fac:	af00      	add	r7, sp, #0
	uint8_t filter_bank = 0;
 8000fae:	2300      	movs	r3, #0
 8000fb0:	71fb      	strb	r3, [r7, #7]
    filter_bank = FEB_CAN_ICS_Filter(&hcan1, CAN_RX_FIFO0, filter_bank);
 8000fb2:	79fb      	ldrb	r3, [r7, #7]
 8000fb4:	461a      	mov	r2, r3
 8000fb6:	2100      	movs	r1, #0
 8000fb8:	480c      	ldr	r0, [pc, #48]	@ (8000fec <FEB_CAN_Filter_Config+0x44>)
 8000fba:	f000 f8b3 	bl	8001124 <FEB_CAN_ICS_Filter>
 8000fbe:	4603      	mov	r3, r0
 8000fc0:	71fb      	strb	r3, [r7, #7]
    filter_bank = FEB_CAN_BMS_Filter_Config(&hcan1, CAN_RX_FIFO0,  filter_bank);
 8000fc2:	79fb      	ldrb	r3, [r7, #7]
 8000fc4:	461a      	mov	r2, r3
 8000fc6:	2100      	movs	r1, #0
 8000fc8:	4808      	ldr	r0, [pc, #32]	@ (8000fec <FEB_CAN_Filter_Config+0x44>)
 8000fca:	f000 f833 	bl	8001034 <FEB_CAN_BMS_Filter_Config>
 8000fce:	4603      	mov	r3, r0
 8000fd0:	71fb      	strb	r3, [r7, #7]
    filter_bank = FEB_CAN_RMS_Filter_Config(&hcan1, CAN_RX_FIFO0, filter_bank);
 8000fd2:	79fb      	ldrb	r3, [r7, #7]
 8000fd4:	461a      	mov	r2, r3
 8000fd6:	2100      	movs	r1, #0
 8000fd8:	4804      	ldr	r0, [pc, #16]	@ (8000fec <FEB_CAN_Filter_Config+0x44>)
 8000fda:	f000 fc6b 	bl	80018b4 <FEB_CAN_RMS_Filter_Config>
 8000fde:	4603      	mov	r3, r0
 8000fe0:	71fb      	strb	r3, [r7, #7]

	// Assign Filter
    // filter_bank = Function(&hcan1, CAN_RX_FIFO0, filter_bank);
}
 8000fe2:	bf00      	nop
 8000fe4:	3708      	adds	r7, #8
 8000fe6:	46bd      	mov	sp, r7
 8000fe8:	bd80      	pop	{r7, pc}
 8000fea:	bf00      	nop
 8000fec:	200002b8 	.word	0x200002b8

08000ff0 <HAL_CAN_RxFifo0MsgPendingCallback>:

void HAL_CAN_RxFifo0MsgPendingCallback(CAN_HandleTypeDef* hcan) {
 8000ff0:	b580      	push	{r7, lr}
 8000ff2:	b082      	sub	sp, #8
 8000ff4:	af00      	add	r7, sp, #0
 8000ff6:	6078      	str	r0, [r7, #4]
	if (HAL_CAN_GetRxMessage(hcan, CAN_RX_FIFO0, &FEB_CAN_Rx_Header, FEB_CAN_Rx_Data) == HAL_OK) {
 8000ff8:	4b0c      	ldr	r3, [pc, #48]	@ (800102c <HAL_CAN_RxFifo0MsgPendingCallback+0x3c>)
 8000ffa:	4a0d      	ldr	r2, [pc, #52]	@ (8001030 <HAL_CAN_RxFifo0MsgPendingCallback+0x40>)
 8000ffc:	2100      	movs	r1, #0
 8000ffe:	6878      	ldr	r0, [r7, #4]
 8001000:	f002 fc51 	bl	80038a6 <HAL_CAN_GetRxMessage>
 8001004:	4603      	mov	r3, r0
 8001006:	2b00      	cmp	r3, #0
 8001008:	d10b      	bne.n	8001022 <HAL_CAN_RxFifo0MsgPendingCallback+0x32>
		FEB_CAN_ICS_Store_Msg(&FEB_CAN_Rx_Header, FEB_CAN_Rx_Data);
 800100a:	4908      	ldr	r1, [pc, #32]	@ (800102c <HAL_CAN_RxFifo0MsgPendingCallback+0x3c>)
 800100c:	4808      	ldr	r0, [pc, #32]	@ (8001030 <HAL_CAN_RxFifo0MsgPendingCallback+0x40>)
 800100e:	f000 f8cb 	bl	80011a8 <FEB_CAN_ICS_Store_Msg>
		FEB_CAN_BMS_Store_Msg(&FEB_CAN_Rx_Header, FEB_CAN_Rx_Data);
 8001012:	4906      	ldr	r1, [pc, #24]	@ (800102c <HAL_CAN_RxFifo0MsgPendingCallback+0x3c>)
 8001014:	4806      	ldr	r0, [pc, #24]	@ (8001030 <HAL_CAN_RxFifo0MsgPendingCallback+0x40>)
 8001016:	f000 f851 	bl	80010bc <FEB_CAN_BMS_Store_Msg>
		FEB_CAN_RMS_Store_Msg(&FEB_CAN_Rx_Header, FEB_CAN_Rx_Data);
 800101a:	4904      	ldr	r1, [pc, #16]	@ (800102c <HAL_CAN_RxFifo0MsgPendingCallback+0x3c>)
 800101c:	4804      	ldr	r0, [pc, #16]	@ (8001030 <HAL_CAN_RxFifo0MsgPendingCallback+0x40>)
 800101e:	f000 fc8d 	bl	800193c <FEB_CAN_RMS_Store_Msg>

	}
}
 8001022:	bf00      	nop
 8001024:	3708      	adds	r7, #8
 8001026:	46bd      	mov	sp, r7
 8001028:	bd80      	pop	{r7, pc}
 800102a:	bf00      	nop
 800102c:	20000240 	.word	0x20000240
 8001030:	2000021c 	.word	0x2000021c

08001034 <FEB_CAN_BMS_Filter_Config>:



// ***** CAN FUNCTIONS ****

uint8_t FEB_CAN_BMS_Filter_Config(CAN_HandleTypeDef* hcan, uint8_t FIFO_assignment, uint8_t filter_bank) {
 8001034:	b580      	push	{r7, lr}
 8001036:	b08e      	sub	sp, #56	@ 0x38
 8001038:	af00      	add	r7, sp, #0
 800103a:	6078      	str	r0, [r7, #4]
 800103c:	460b      	mov	r3, r1
 800103e:	70fb      	strb	r3, [r7, #3]
 8001040:	4613      	mov	r3, r2
 8001042:	70bb      	strb	r3, [r7, #2]
	uint16_t ids[] = {FEB_CAN_ID_BMS_STATE,FEB_CAN_ID_BMS_TEMPERATURE};
 8001044:	2303      	movs	r3, #3
 8001046:	863b      	strh	r3, [r7, #48]	@ 0x30
 8001048:	2300      	movs	r3, #0
 800104a:	867b      	strh	r3, [r7, #50]	@ 0x32

	for (uint8_t i = 0; i < 1; i++) {
 800104c:	2300      	movs	r3, #0
 800104e:	f887 3037 	strb.w	r3, [r7, #55]	@ 0x37
 8001052:	e029      	b.n	80010a8 <FEB_CAN_BMS_Filter_Config+0x74>
		CAN_FilterTypeDef filter_config;

	    // Standard CAN - 2.0A - 11 bit
	    filter_config.FilterActivation = CAN_FILTER_ENABLE;
 8001054:	2301      	movs	r3, #1
 8001056:	62bb      	str	r3, [r7, #40]	@ 0x28
		filter_config.FilterBank = filter_bank;
 8001058:	78bb      	ldrb	r3, [r7, #2]
 800105a:	61fb      	str	r3, [r7, #28]
		filter_config.FilterFIFOAssignment = FIFO_assignment;
 800105c:	78fb      	ldrb	r3, [r7, #3]
 800105e:	61bb      	str	r3, [r7, #24]
		filter_config.FilterIdHigh = ids[i] << 5;
 8001060:	f897 3037 	ldrb.w	r3, [r7, #55]	@ 0x37
 8001064:	005b      	lsls	r3, r3, #1
 8001066:	3338      	adds	r3, #56	@ 0x38
 8001068:	443b      	add	r3, r7
 800106a:	f833 3c08 	ldrh.w	r3, [r3, #-8]
 800106e:	015b      	lsls	r3, r3, #5
 8001070:	60bb      	str	r3, [r7, #8]
		filter_config.FilterIdLow = 0;
 8001072:	2300      	movs	r3, #0
 8001074:	60fb      	str	r3, [r7, #12]
		filter_config.FilterMaskIdHigh = 0xFFE0;
 8001076:	f64f 73e0 	movw	r3, #65504	@ 0xffe0
 800107a:	613b      	str	r3, [r7, #16]
		filter_config.FilterMaskIdLow = 0;
 800107c:	2300      	movs	r3, #0
 800107e:	617b      	str	r3, [r7, #20]
		filter_config.FilterMode = CAN_FILTERMODE_IDMASK;
 8001080:	2300      	movs	r3, #0
 8001082:	623b      	str	r3, [r7, #32]
		filter_config.FilterScale = CAN_FILTERSCALE_32BIT;
 8001084:	2301      	movs	r3, #1
 8001086:	627b      	str	r3, [r7, #36]	@ 0x24
		filter_config.SlaveStartFilterBank = 27;
 8001088:	231b      	movs	r3, #27
 800108a:	62fb      	str	r3, [r7, #44]	@ 0x2c
	    filter_bank++;
 800108c:	78bb      	ldrb	r3, [r7, #2]
 800108e:	3301      	adds	r3, #1
 8001090:	70bb      	strb	r3, [r7, #2]

		if (HAL_CAN_ConfigFilter(hcan, &filter_config) != HAL_OK) {
 8001092:	f107 0308 	add.w	r3, r7, #8
 8001096:	4619      	mov	r1, r3
 8001098:	6878      	ldr	r0, [r7, #4]
 800109a:	f002 f9db 	bl	8003454 <HAL_CAN_ConfigFilter>
	for (uint8_t i = 0; i < 1; i++) {
 800109e:	f897 3037 	ldrb.w	r3, [r7, #55]	@ 0x37
 80010a2:	3301      	adds	r3, #1
 80010a4:	f887 3037 	strb.w	r3, [r7, #55]	@ 0x37
 80010a8:	f897 3037 	ldrb.w	r3, [r7, #55]	@ 0x37
 80010ac:	2b00      	cmp	r3, #0
 80010ae:	d0d1      	beq.n	8001054 <FEB_CAN_BMS_Filter_Config+0x20>
			//Code Error - shutdown
		}
	}

	return filter_bank;
 80010b0:	78bb      	ldrb	r3, [r7, #2]
}
 80010b2:	4618      	mov	r0, r3
 80010b4:	3738      	adds	r7, #56	@ 0x38
 80010b6:	46bd      	mov	sp, r7
 80010b8:	bd80      	pop	{r7, pc}
	...

080010bc <FEB_CAN_BMS_Store_Msg>:

void FEB_CAN_BMS_Store_Msg(CAN_RxHeaderTypeDef* pHeader, uint8_t *RxData) {
 80010bc:	b480      	push	{r7}
 80010be:	b083      	sub	sp, #12
 80010c0:	af00      	add	r7, sp, #0
 80010c2:	6078      	str	r0, [r7, #4]
 80010c4:	6039      	str	r1, [r7, #0]
    switch (pHeader -> StdId){
 80010c6:	687b      	ldr	r3, [r7, #4]
 80010c8:	681b      	ldr	r3, [r3, #0]
 80010ca:	2b00      	cmp	r3, #0
 80010cc:	d002      	beq.n	80010d4 <FEB_CAN_BMS_Store_Msg+0x18>
 80010ce:	2b03      	cmp	r3, #3
 80010d0:	d00f      	beq.n	80010f2 <FEB_CAN_BMS_Store_Msg+0x36>

        case FEB_CAN_ID_BMS_STATE:
            BMS_MESSAGE.status = RxData[0];
            break;
    }
}
 80010d2:	e013      	b.n	80010fc <FEB_CAN_BMS_Store_Msg+0x40>
        	BMS_MESSAGE.temp = RxData[2] << 8 | RxData[3];
 80010d4:	683b      	ldr	r3, [r7, #0]
 80010d6:	3302      	adds	r3, #2
 80010d8:	781b      	ldrb	r3, [r3, #0]
 80010da:	021b      	lsls	r3, r3, #8
 80010dc:	b21a      	sxth	r2, r3
 80010de:	683b      	ldr	r3, [r7, #0]
 80010e0:	3303      	adds	r3, #3
 80010e2:	781b      	ldrb	r3, [r3, #0]
 80010e4:	b21b      	sxth	r3, r3
 80010e6:	4313      	orrs	r3, r2
 80010e8:	b21b      	sxth	r3, r3
 80010ea:	b29a      	uxth	r2, r3
 80010ec:	4b06      	ldr	r3, [pc, #24]	@ (8001108 <FEB_CAN_BMS_Store_Msg+0x4c>)
 80010ee:	801a      	strh	r2, [r3, #0]
            break;
 80010f0:	e004      	b.n	80010fc <FEB_CAN_BMS_Store_Msg+0x40>
            BMS_MESSAGE.status = RxData[0];
 80010f2:	683b      	ldr	r3, [r7, #0]
 80010f4:	781a      	ldrb	r2, [r3, #0]
 80010f6:	4b04      	ldr	r3, [pc, #16]	@ (8001108 <FEB_CAN_BMS_Store_Msg+0x4c>)
 80010f8:	709a      	strb	r2, [r3, #2]
            break;
 80010fa:	bf00      	nop
}
 80010fc:	bf00      	nop
 80010fe:	370c      	adds	r7, #12
 8001100:	46bd      	mov	sp, r7
 8001102:	f85d 7b04 	ldr.w	r7, [sp], #4
 8001106:	4770      	bx	lr
 8001108:	20000250 	.word	0x20000250

0800110c <FEB_CAN_BMS_getState>:

FEB_SM_ST_t FEB_CAN_BMS_getState(){
 800110c:	b480      	push	{r7}
 800110e:	af00      	add	r7, sp, #0
	return BMS_MESSAGE.status;
 8001110:	4b03      	ldr	r3, [pc, #12]	@ (8001120 <FEB_CAN_BMS_getState+0x14>)
 8001112:	789b      	ldrb	r3, [r3, #2]

}
 8001114:	4618      	mov	r0, r3
 8001116:	46bd      	mov	sp, r7
 8001118:	f85d 7b04 	ldr.w	r7, [sp], #4
 800111c:	4770      	bx	lr
 800111e:	bf00      	nop
 8001120:	20000250 	.word	0x20000250

08001124 <FEB_CAN_ICS_Filter>:
// ******************************** Variables ********************************
bool READY_TO_DRIVE = 0;

// **************************************** Functions ****************************************

uint8_t FEB_CAN_ICS_Filter(CAN_HandleTypeDef* hcan, uint8_t FIFO_assignment, uint8_t filter_bank) {
 8001124:	b580      	push	{r7, lr}
 8001126:	b08e      	sub	sp, #56	@ 0x38
 8001128:	af00      	add	r7, sp, #0
 800112a:	6078      	str	r0, [r7, #4]
 800112c:	460b      	mov	r3, r1
 800112e:	70fb      	strb	r3, [r7, #3]
 8001130:	4613      	mov	r3, r2
 8001132:	70bb      	strb	r3, [r7, #2]
    // For multiple filters, create array of filter IDs and loop over IDs.

	uint16_t ids[] = {FEB_CAN_ID_ICS_BUTTON_STATE};
 8001134:	2307      	movs	r3, #7
 8001136:	86bb      	strh	r3, [r7, #52]	@ 0x34

	for (uint8_t i = 0; i < 1; i++) {
 8001138:	2300      	movs	r3, #0
 800113a:	f887 3037 	strb.w	r3, [r7, #55]	@ 0x37
 800113e:	e029      	b.n	8001194 <FEB_CAN_ICS_Filter+0x70>
		CAN_FilterTypeDef filter_config;

	    // Standard CAN - 2.0A - 11 bit
	    filter_config.FilterActivation = CAN_FILTER_ENABLE;
 8001140:	2301      	movs	r3, #1
 8001142:	62fb      	str	r3, [r7, #44]	@ 0x2c
		filter_config.FilterBank = filter_bank;
 8001144:	78bb      	ldrb	r3, [r7, #2]
 8001146:	623b      	str	r3, [r7, #32]
		filter_config.FilterFIFOAssignment = FIFO_assignment;
 8001148:	78fb      	ldrb	r3, [r7, #3]
 800114a:	61fb      	str	r3, [r7, #28]
		filter_config.FilterIdHigh = ids[i] << 5;
 800114c:	f897 3037 	ldrb.w	r3, [r7, #55]	@ 0x37
 8001150:	005b      	lsls	r3, r3, #1
 8001152:	3338      	adds	r3, #56	@ 0x38
 8001154:	443b      	add	r3, r7
 8001156:	f833 3c04 	ldrh.w	r3, [r3, #-4]
 800115a:	015b      	lsls	r3, r3, #5
 800115c:	60fb      	str	r3, [r7, #12]
		filter_config.FilterIdLow = 0;
 800115e:	2300      	movs	r3, #0
 8001160:	613b      	str	r3, [r7, #16]
		filter_config.FilterMaskIdHigh = 0xFFE0;
 8001162:	f64f 73e0 	movw	r3, #65504	@ 0xffe0
 8001166:	617b      	str	r3, [r7, #20]
		filter_config.FilterMaskIdLow = 0;
 8001168:	2300      	movs	r3, #0
 800116a:	61bb      	str	r3, [r7, #24]
		filter_config.FilterMode = CAN_FILTERMODE_IDMASK;
 800116c:	2300      	movs	r3, #0
 800116e:	627b      	str	r3, [r7, #36]	@ 0x24
		filter_config.FilterScale = CAN_FILTERSCALE_32BIT;
 8001170:	2301      	movs	r3, #1
 8001172:	62bb      	str	r3, [r7, #40]	@ 0x28
		filter_config.SlaveStartFilterBank = 27;
 8001174:	231b      	movs	r3, #27
 8001176:	633b      	str	r3, [r7, #48]	@ 0x30
	    filter_bank++;
 8001178:	78bb      	ldrb	r3, [r7, #2]
 800117a:	3301      	adds	r3, #1
 800117c:	70bb      	strb	r3, [r7, #2]

		if (HAL_CAN_ConfigFilter(hcan, &filter_config) != HAL_OK) {
 800117e:	f107 030c 	add.w	r3, r7, #12
 8001182:	4619      	mov	r1, r3
 8001184:	6878      	ldr	r0, [r7, #4]
 8001186:	f002 f965 	bl	8003454 <HAL_CAN_ConfigFilter>
	for (uint8_t i = 0; i < 1; i++) {
 800118a:	f897 3037 	ldrb.w	r3, [r7, #55]	@ 0x37
 800118e:	3301      	adds	r3, #1
 8001190:	f887 3037 	strb.w	r3, [r7, #55]	@ 0x37
 8001194:	f897 3037 	ldrb.w	r3, [r7, #55]	@ 0x37
 8001198:	2b00      	cmp	r3, #0
 800119a:	d0d1      	beq.n	8001140 <FEB_CAN_ICS_Filter+0x1c>
			// Shutdown
		}
	}

	return filter_bank;
 800119c:	78bb      	ldrb	r3, [r7, #2]
}
 800119e:	4618      	mov	r0, r3
 80011a0:	3738      	adds	r7, #56	@ 0x38
 80011a2:	46bd      	mov	sp, r7
 80011a4:	bd80      	pop	{r7, pc}
	...

080011a8 <FEB_CAN_ICS_Store_Msg>:

void FEB_CAN_ICS_Store_Msg(CAN_RxHeaderTypeDef *rx_header, uint8_t rx_data[]) {
 80011a8:	b480      	push	{r7}
 80011aa:	b083      	sub	sp, #12
 80011ac:	af00      	add	r7, sp, #0
 80011ae:	6078      	str	r0, [r7, #4]
 80011b0:	6039      	str	r1, [r7, #0]
	switch(rx_header->StdId) {
 80011b2:	687b      	ldr	r3, [r7, #4]
 80011b4:	681b      	ldr	r3, [r3, #0]
 80011b6:	2b07      	cmp	r3, #7
 80011b8:	d10c      	bne.n	80011d4 <FEB_CAN_ICS_Store_Msg+0x2c>
		case FEB_CAN_ID_ICS_BUTTON_STATE:
				READY_TO_DRIVE = ((rx_data[0] | 0b11111101) == 0b11111111);
 80011ba:	683b      	ldr	r3, [r7, #0]
 80011bc:	781b      	ldrb	r3, [r3, #0]
 80011be:	f063 0302 	orn	r3, r3, #2
 80011c2:	b2db      	uxtb	r3, r3
 80011c4:	2bff      	cmp	r3, #255	@ 0xff
 80011c6:	bf0c      	ite	eq
 80011c8:	2301      	moveq	r3, #1
 80011ca:	2300      	movne	r3, #0
 80011cc:	b2da      	uxtb	r2, r3
 80011ce:	4b04      	ldr	r3, [pc, #16]	@ (80011e0 <FEB_CAN_ICS_Store_Msg+0x38>)
 80011d0:	701a      	strb	r2, [r3, #0]
				break;
 80011d2:	bf00      	nop
	}
}
 80011d4:	bf00      	nop
 80011d6:	370c      	adds	r7, #12
 80011d8:	46bd      	mov	sp, r7
 80011da:	f85d 7b04 	ldr.w	r7, [sp], #4
 80011de:	4770      	bx	lr
 80011e0:	20000254 	.word	0x20000254

080011e4 <FEB_Ready_To_Drive>:

bool FEB_Ready_To_Drive() {
 80011e4:	b480      	push	{r7}
 80011e6:	af00      	add	r7, sp, #0
	return READY_TO_DRIVE;
 80011e8:	4b03      	ldr	r3, [pc, #12]	@ (80011f8 <FEB_Ready_To_Drive+0x14>)
 80011ea:	781b      	ldrb	r3, [r3, #0]
}
 80011ec:	4618      	mov	r0, r3
 80011ee:	46bd      	mov	sp, r7
 80011f0:	f85d 7b04 	ldr.w	r7, [sp], #4
 80011f4:	4770      	bx	lr
 80011f6:	bf00      	nop
 80011f8:	20000254 	.word	0x20000254

080011fc <FEB_CAN_RMS_Setup>:

// ********************************** Functions **********************************

// ***** SET UP ****

void FEB_CAN_RMS_Setup(void){
 80011fc:	b480      	push	{r7}
 80011fe:	af00      	add	r7, sp, #0
	 RMSControl.enabled = 0;
 8001200:	4b05      	ldr	r3, [pc, #20]	@ (8001218 <FEB_CAN_RMS_Setup+0x1c>)
 8001202:	2200      	movs	r2, #0
 8001204:	709a      	strb	r2, [r3, #2]
	 RMSControl.torque= 0.0;
 8001206:	4b04      	ldr	r3, [pc, #16]	@ (8001218 <FEB_CAN_RMS_Setup+0x1c>)
 8001208:	2200      	movs	r2, #0
 800120a:	801a      	strh	r2, [r3, #0]
}
 800120c:	bf00      	nop
 800120e:	46bd      	mov	sp, r7
 8001210:	f85d 7b04 	ldr.w	r7, [sp], #4
 8001214:	4770      	bx	lr
 8001216:	bf00      	nop
 8001218:	20000258 	.word	0x20000258

0800121c <FEB_CAN_RMS_Process>:

void FEB_CAN_RMS_Process(void){
 800121c:	b480      	push	{r7}
 800121e:	af00      	add	r7, sp, #0
	if (!RMSControl.enabled){
 8001220:	4b05      	ldr	r3, [pc, #20]	@ (8001238 <FEB_CAN_RMS_Process+0x1c>)
 8001222:	789b      	ldrb	r3, [r3, #2]
 8001224:	2b00      	cmp	r3, #0
 8001226:	d102      	bne.n	800122e <FEB_CAN_RMS_Process+0x12>
//		FEB_CAN_RMS_Init();
		RMSControl.enabled = 1;
 8001228:	4b03      	ldr	r3, [pc, #12]	@ (8001238 <FEB_CAN_RMS_Process+0x1c>)
 800122a:	2201      	movs	r2, #1
 800122c:	709a      	strb	r2, [r3, #2]
	}
}
 800122e:	bf00      	nop
 8001230:	46bd      	mov	sp, r7
 8001232:	f85d 7b04 	ldr.w	r7, [sp], #4
 8001236:	4770      	bx	lr
 8001238:	20000258 	.word	0x20000258

0800123c <FEB_CAN_RMS_Disable>:

void FEB_CAN_RMS_Disable(void){
 800123c:	b480      	push	{r7}
 800123e:	af00      	add	r7, sp, #0
	RMSControl.enabled = 0;
 8001240:	4b03      	ldr	r3, [pc, #12]	@ (8001250 <FEB_CAN_RMS_Disable+0x14>)
 8001242:	2200      	movs	r2, #0
 8001244:	709a      	strb	r2, [r3, #2]
}
 8001246:	bf00      	nop
 8001248:	46bd      	mov	sp, r7
 800124a:	f85d 7b04 	ldr.w	r7, [sp], #4
 800124e:	4770      	bx	lr
 8001250:	20000258 	.word	0x20000258
 8001254:	00000000 	.word	0x00000000

08001258 <FEB_getElecMaxRegenTorque>:

// ****** REGEN FUNCTIONS ****

// Returns maximum torque available within 20A limit of the cells
// V_acc * 20 * efficiency = torque / w
float FEB_getElecMaxRegenTorque(){
 8001258:	b5b0      	push	{r4, r5, r7, lr}
 800125a:	b084      	sub	sp, #16
 800125c:	af00      	add	r7, sp, #0
	float accumulator_voltage = min(INIT_VOLTAGE, (RMS_MESSAGE.HV_Bus_Voltage-50) / 10); // TODO: consider reading from IVT
 800125e:	4b3e      	ldr	r3, [pc, #248]	@ (8001358 <FEB_getElecMaxRegenTorque+0x100>)
 8001260:	f9b3 3000 	ldrsh.w	r3, [r3]
 8001264:	f241 22fb 	movw	r2, #4859	@ 0x12fb
 8001268:	4293      	cmp	r3, r2
 800126a:	dc0e      	bgt.n	800128a <FEB_getElecMaxRegenTorque+0x32>
 800126c:	4b3a      	ldr	r3, [pc, #232]	@ (8001358 <FEB_getElecMaxRegenTorque+0x100>)
 800126e:	f9b3 3000 	ldrsh.w	r3, [r3]
 8001272:	3b32      	subs	r3, #50	@ 0x32
 8001274:	4a39      	ldr	r2, [pc, #228]	@ (800135c <FEB_getElecMaxRegenTorque+0x104>)
 8001276:	fb82 1203 	smull	r1, r2, r2, r3
 800127a:	1092      	asrs	r2, r2, #2
 800127c:	17db      	asrs	r3, r3, #31
 800127e:	1ad3      	subs	r3, r2, r3
 8001280:	ee07 3a90 	vmov	s15, r3
 8001284:	eef8 7ae7 	vcvt.f32.s32	s15, s15
 8001288:	e001      	b.n	800128e <FEB_getElecMaxRegenTorque+0x36>
 800128a:	eddf 7a35 	vldr	s15, [pc, #212]	@ 8001360 <FEB_getElecMaxRegenTorque+0x108>
 800128e:	edc7 7a03 	vstr	s15, [r7, #12]
	float motor_speed_rads = RMS_MESSAGE.Motor_Speed * RPM_TO_RAD_S;
 8001292:	4b31      	ldr	r3, [pc, #196]	@ (8001358 <FEB_getElecMaxRegenTorque+0x100>)
 8001294:	f9b3 3002 	ldrsh.w	r3, [r3, #2]
 8001298:	4618      	mov	r0, r3
 800129a:	f7ff f963 	bl	8000564 <__aeabi_i2d>
 800129e:	a32a      	add	r3, pc, #168	@ (adr r3, 8001348 <FEB_getElecMaxRegenTorque+0xf0>)
 80012a0:	e9d3 2300 	ldrd	r2, r3, [r3]
 80012a4:	f7ff f9c8 	bl	8000638 <__aeabi_dmul>
 80012a8:	4602      	mov	r2, r0
 80012aa:	460b      	mov	r3, r1
 80012ac:	4610      	mov	r0, r2
 80012ae:	4619      	mov	r1, r3
 80012b0:	f7ff fc9a 	bl	8000be8 <__aeabi_d2f>
 80012b4:	4603      	mov	r3, r0
 80012b6:	60bb      	str	r3, [r7, #8]

	float maxTorque = min(MAX_TORQUE_REGEN, (accumulator_voltage * PEAK_CURRENT_REGEN) / motor_speed_rads);
 80012b8:	68f8      	ldr	r0, [r7, #12]
 80012ba:	f7ff f965 	bl	8000588 <__aeabi_f2d>
 80012be:	f04f 0200 	mov.w	r2, #0
 80012c2:	4b28      	ldr	r3, [pc, #160]	@ (8001364 <FEB_getElecMaxRegenTorque+0x10c>)
 80012c4:	f7ff f9b8 	bl	8000638 <__aeabi_dmul>
 80012c8:	4602      	mov	r2, r0
 80012ca:	460b      	mov	r3, r1
 80012cc:	4614      	mov	r4, r2
 80012ce:	461d      	mov	r5, r3
 80012d0:	68b8      	ldr	r0, [r7, #8]
 80012d2:	f7ff f959 	bl	8000588 <__aeabi_f2d>
 80012d6:	4602      	mov	r2, r0
 80012d8:	460b      	mov	r3, r1
 80012da:	4620      	mov	r0, r4
 80012dc:	4629      	mov	r1, r5
 80012de:	f7ff fad5 	bl	800088c <__aeabi_ddiv>
 80012e2:	4602      	mov	r2, r0
 80012e4:	460b      	mov	r3, r1
 80012e6:	4610      	mov	r0, r2
 80012e8:	4619      	mov	r1, r3
 80012ea:	a319      	add	r3, pc, #100	@ (adr r3, 8001350 <FEB_getElecMaxRegenTorque+0xf8>)
 80012ec:	e9d3 2300 	ldrd	r2, r3, [r3]
 80012f0:	f7ff fc32 	bl	8000b58 <__aeabi_dcmpgt>
 80012f4:	4603      	mov	r3, r0
 80012f6:	2b00      	cmp	r3, #0
 80012f8:	d001      	beq.n	80012fe <FEB_getElecMaxRegenTorque+0xa6>
 80012fa:	4b1b      	ldr	r3, [pc, #108]	@ (8001368 <FEB_getElecMaxRegenTorque+0x110>)
 80012fc:	e01b      	b.n	8001336 <FEB_getElecMaxRegenTorque+0xde>
 80012fe:	68f8      	ldr	r0, [r7, #12]
 8001300:	f7ff f942 	bl	8000588 <__aeabi_f2d>
 8001304:	f04f 0200 	mov.w	r2, #0
 8001308:	4b16      	ldr	r3, [pc, #88]	@ (8001364 <FEB_getElecMaxRegenTorque+0x10c>)
 800130a:	f7ff f995 	bl	8000638 <__aeabi_dmul>
 800130e:	4602      	mov	r2, r0
 8001310:	460b      	mov	r3, r1
 8001312:	4614      	mov	r4, r2
 8001314:	461d      	mov	r5, r3
 8001316:	68b8      	ldr	r0, [r7, #8]
 8001318:	f7ff f936 	bl	8000588 <__aeabi_f2d>
 800131c:	4602      	mov	r2, r0
 800131e:	460b      	mov	r3, r1
 8001320:	4620      	mov	r0, r4
 8001322:	4629      	mov	r1, r5
 8001324:	f7ff fab2 	bl	800088c <__aeabi_ddiv>
 8001328:	4602      	mov	r2, r0
 800132a:	460b      	mov	r3, r1
 800132c:	4610      	mov	r0, r2
 800132e:	4619      	mov	r1, r3
 8001330:	f7ff fc5a 	bl	8000be8 <__aeabi_d2f>
 8001334:	4603      	mov	r3, r0
 8001336:	607b      	str	r3, [r7, #4]
	return maxTorque;
 8001338:	687b      	ldr	r3, [r7, #4]
 800133a:	ee07 3a90 	vmov	s15, r3
}
 800133e:	eeb0 0a67 	vmov.f32	s0, s15
 8001342:	3710      	adds	r7, #16
 8001344:	46bd      	mov	sp, r7
 8001346:	bdb0      	pop	{r4, r5, r7, pc}
 8001348:	0f3cb3e5 	.word	0x0f3cb3e5
 800134c:	3fbaceee 	.word	0x3fbaceee
 8001350:	00000000 	.word	0x00000000
 8001354:	40945000 	.word	0x40945000
 8001358:	2000025c 	.word	0x2000025c
 800135c:	66666667 	.word	0x66666667
 8001360:	43f00000 	.word	0x43f00000
 8001364:	40320000 	.word	0x40320000
 8001368:	44a28000 	.word	0x44a28000

0800136c <FEB_regen_filter_Speed>:

// Step function at from 0 to 1 at FADE_SPEED
float FEB_regen_filter_Speed(float unfiltered_regen_torque){
 800136c:	b480      	push	{r7}
 800136e:	b085      	sub	sp, #20
 8001370:	af00      	add	r7, sp, #0
 8001372:	ed87 0a01 	vstr	s0, [r7, #4]
    float motor_speed_rpm = RMS_MESSAGE.Motor_Speed; 
 8001376:	4b0f      	ldr	r3, [pc, #60]	@ (80013b4 <FEB_regen_filter_Speed+0x48>)
 8001378:	f9b3 3002 	ldrsh.w	r3, [r3, #2]
 800137c:	ee07 3a90 	vmov	s15, r3
 8001380:	eef8 7ae7 	vcvt.f32.s32	s15, s15
 8001384:	edc7 7a03 	vstr	s15, [r7, #12]

    if (motor_speed_rpm < FADE_SPEED_RPM)
 8001388:	edd7 7a03 	vldr	s15, [r7, #12]
 800138c:	ed9f 7a0a 	vldr	s14, [pc, #40]	@ 80013b8 <FEB_regen_filter_Speed+0x4c>
 8001390:	eef4 7ac7 	vcmpe.f32	s15, s14
 8001394:	eef1 fa10 	vmrs	APSR_nzcv, fpscr
 8001398:	d502      	bpl.n	80013a0 <FEB_regen_filter_Speed+0x34>
    {
        return 0;
 800139a:	f04f 0300 	mov.w	r3, #0
 800139e:	e000      	b.n	80013a2 <FEB_regen_filter_Speed+0x36>
    }
    else
    {
        return unfiltered_regen_torque;
 80013a0:	687b      	ldr	r3, [r7, #4]
    }
}
 80013a2:	ee07 3a90 	vmov	s15, r3
 80013a6:	eeb0 0a67 	vmov.f32	s0, s15
 80013aa:	3714      	adds	r7, #20
 80013ac:	46bd      	mov	sp, r7
 80013ae:	f85d 7b04 	ldr.w	r7, [sp], #4
 80013b2:	4770      	bx	lr
 80013b4:	2000025c 	.word	0x2000025c
 80013b8:	43480000 	.word	0x43480000
 80013bc:	00000000 	.word	0x00000000

080013c0 <FEB_regen_filter_SOC>:

// Saturated linear function between
// (START_REGEN_SOC, 0) and (MAX_REGEN_SOC, 1)
float FEB_regen_filter_SOC(float unfiltered_regen_torque){
 80013c0:	b5b0      	push	{r4, r5, r7, lr}
 80013c2:	b086      	sub	sp, #24
 80013c4:	af00      	add	r7, sp, #0
 80013c6:	ed87 0a01 	vstr	s0, [r7, #4]
	float state_of_charge = 1; // FEB_BMS_getSOC(); // TODO for Evan, uncomment and use SOC
 80013ca:	f04f 537e 	mov.w	r3, #1065353216	@ 0x3f800000
 80013ce:	613b      	str	r3, [r7, #16]

	// m = (y_1 - y_0) / (x_1 - x_0)
	float slope = (1 - 0) / (MAX_REGEN_SOC - START_REGEN_SOC);
 80013d0:	4b21      	ldr	r3, [pc, #132]	@ (8001458 <FEB_regen_filter_SOC+0x98>)
 80013d2:	60fb      	str	r3, [r7, #12]
	// y - y_0 = m (x - x_0)
	float k_SOC = slope * (state_of_charge - START_REGEN_SOC);
 80013d4:	68f8      	ldr	r0, [r7, #12]
 80013d6:	f7ff f8d7 	bl	8000588 <__aeabi_f2d>
 80013da:	4604      	mov	r4, r0
 80013dc:	460d      	mov	r5, r1
 80013de:	6938      	ldr	r0, [r7, #16]
 80013e0:	f7ff f8d2 	bl	8000588 <__aeabi_f2d>
 80013e4:	a31a      	add	r3, pc, #104	@ (adr r3, 8001450 <FEB_regen_filter_SOC+0x90>)
 80013e6:	e9d3 2300 	ldrd	r2, r3, [r3]
 80013ea:	f7fe ff6d 	bl	80002c8 <__aeabi_dsub>
 80013ee:	4602      	mov	r2, r0
 80013f0:	460b      	mov	r3, r1
 80013f2:	4620      	mov	r0, r4
 80013f4:	4629      	mov	r1, r5
 80013f6:	f7ff f91f 	bl	8000638 <__aeabi_dmul>
 80013fa:	4602      	mov	r2, r0
 80013fc:	460b      	mov	r3, r1
 80013fe:	4610      	mov	r0, r2
 8001400:	4619      	mov	r1, r3
 8001402:	f7ff fbf1 	bl	8000be8 <__aeabi_d2f>
 8001406:	4603      	mov	r3, r0
 8001408:	617b      	str	r3, [r7, #20]
    
	// Saturate between 0 and 1
	if (k_SOC > 1)
 800140a:	edd7 7a05 	vldr	s15, [r7, #20]
 800140e:	eeb7 7a00 	vmov.f32	s14, #112	@ 0x3f800000  1.0
 8001412:	eef4 7ac7 	vcmpe.f32	s15, s14
 8001416:	eef1 fa10 	vmrs	APSR_nzcv, fpscr
 800141a:	dd02      	ble.n	8001422 <FEB_regen_filter_SOC+0x62>
	{
		k_SOC = 1;
 800141c:	f04f 537e 	mov.w	r3, #1065353216	@ 0x3f800000
 8001420:	617b      	str	r3, [r7, #20]
	}
	if (k_SOC < 0)
 8001422:	edd7 7a05 	vldr	s15, [r7, #20]
 8001426:	eef5 7ac0 	vcmpe.f32	s15, #0.0
 800142a:	eef1 fa10 	vmrs	APSR_nzcv, fpscr
 800142e:	d502      	bpl.n	8001436 <FEB_regen_filter_SOC+0x76>
	{
		return 0;
 8001430:	eddf 7a0a 	vldr	s15, [pc, #40]	@ 800145c <FEB_regen_filter_SOC+0x9c>
 8001434:	e005      	b.n	8001442 <FEB_regen_filter_SOC+0x82>
	}
	return k_SOC * unfiltered_regen_torque; // be wary of typing (float vs int)
 8001436:	ed97 7a05 	vldr	s14, [r7, #20]
 800143a:	edd7 7a01 	vldr	s15, [r7, #4]
 800143e:	ee67 7a27 	vmul.f32	s15, s14, s15
}
 8001442:	eeb0 0a67 	vmov.f32	s0, s15
 8001446:	3718      	adds	r7, #24
 8001448:	46bd      	mov	sp, r7
 800144a:	bdb0      	pop	{r4, r5, r7, pc}
 800144c:	f3af 8000 	nop.w
 8001450:	66666666 	.word	0x66666666
 8001454:	3fee6666 	.word	0x3fee6666
 8001458:	c0d55555 	.word	0xc0d55555
 800145c:	00000000 	.word	0x00000000

08001460 <FEB_regen_filter_Temp>:

// Consider linear function similar to the above if driver doesn't like the exponential
// This will depend on how fast cells heat up
// Function with a vertical asymptote at 45 deg C
float FEB_regen_filter_Temp(float unfiltered_regen_torque){
 8001460:	b5b0      	push	{r4, r5, r7, lr}
 8001462:	b086      	sub	sp, #24
 8001464:	af00      	add	r7, sp, #0
 8001466:	ed87 0a01 	vstr	s0, [r7, #4]
	float hottest_cell_temp_C = 25; //(); // TODO
 800146a:	4b20      	ldr	r3, [pc, #128]	@ (80014ec <FEB_regen_filter_Temp+0x8c>)
 800146c:	617b      	str	r3, [r7, #20]
	float e = 2.71828;
 800146e:	4b20      	ldr	r3, [pc, #128]	@ (80014f0 <FEB_regen_filter_Temp+0x90>)
 8001470:	613b      	str	r3, [r7, #16]
	float exponent = TEMP_FILTER_SHARPNESS * (hottest_cell_temp_C - MAX_CELL_TEMP);
 8001472:	edd7 7a05 	vldr	s15, [r7, #20]
 8001476:	ed9f 7a1f 	vldr	s14, [pc, #124]	@ 80014f4 <FEB_regen_filter_Temp+0x94>
 800147a:	ee77 7ac7 	vsub.f32	s15, s15, s14
 800147e:	edc7 7a03 	vstr	s15, [r7, #12]
	float k_temp = 1 - pow(e, exponent);
 8001482:	6938      	ldr	r0, [r7, #16]
 8001484:	f7ff f880 	bl	8000588 <__aeabi_f2d>
 8001488:	4604      	mov	r4, r0
 800148a:	460d      	mov	r5, r1
 800148c:	68f8      	ldr	r0, [r7, #12]
 800148e:	f7ff f87b 	bl	8000588 <__aeabi_f2d>
 8001492:	4602      	mov	r2, r0
 8001494:	460b      	mov	r3, r1
 8001496:	ec43 2b11 	vmov	d1, r2, r3
 800149a:	ec45 4b10 	vmov	d0, r4, r5
 800149e:	f007 fa09 	bl	80088b4 <pow>
 80014a2:	ec53 2b10 	vmov	r2, r3, d0
 80014a6:	f04f 0000 	mov.w	r0, #0
 80014aa:	4913      	ldr	r1, [pc, #76]	@ (80014f8 <FEB_regen_filter_Temp+0x98>)
 80014ac:	f7fe ff0c 	bl	80002c8 <__aeabi_dsub>
 80014b0:	4602      	mov	r2, r0
 80014b2:	460b      	mov	r3, r1
 80014b4:	4610      	mov	r0, r2
 80014b6:	4619      	mov	r1, r3
 80014b8:	f7ff fb96 	bl	8000be8 <__aeabi_d2f>
 80014bc:	4603      	mov	r3, r0
 80014be:	60bb      	str	r3, [r7, #8]
	if (k_temp < 0)
 80014c0:	edd7 7a02 	vldr	s15, [r7, #8]
 80014c4:	eef5 7ac0 	vcmpe.f32	s15, #0.0
 80014c8:	eef1 fa10 	vmrs	APSR_nzcv, fpscr
 80014cc:	d502      	bpl.n	80014d4 <FEB_regen_filter_Temp+0x74>
	{
		return 0;
 80014ce:	eddf 7a0b 	vldr	s15, [pc, #44]	@ 80014fc <FEB_regen_filter_Temp+0x9c>
 80014d2:	e005      	b.n	80014e0 <FEB_regen_filter_Temp+0x80>
	}
	return k_temp * unfiltered_regen_torque;
 80014d4:	ed97 7a02 	vldr	s14, [r7, #8]
 80014d8:	edd7 7a01 	vldr	s15, [r7, #4]
 80014dc:	ee67 7a27 	vmul.f32	s15, s14, s15
}
 80014e0:	eeb0 0a67 	vmov.f32	s0, s15
 80014e4:	3718      	adds	r7, #24
 80014e6:	46bd      	mov	sp, r7
 80014e8:	bdb0      	pop	{r4, r5, r7, pc}
 80014ea:	bf00      	nop
 80014ec:	41c80000 	.word	0x41c80000
 80014f0:	402df84d 	.word	0x402df84d
 80014f4:	42340000 	.word	0x42340000
 80014f8:	3ff00000 	.word	0x3ff00000
 80014fc:	00000000 	.word	0x00000000

08001500 <FEB_regen_filter>:

// Wrapper function for various filters
float FEB_regen_filter(float regen_torque_max){
 8001500:	b580      	push	{r7, lr}
 8001502:	b084      	sub	sp, #16
 8001504:	af00      	add	r7, sp, #0
 8001506:	ed87 0a01 	vstr	s0, [r7, #4]
	float filtered_regen_torque = regen_torque_max;
 800150a:	687b      	ldr	r3, [r7, #4]
 800150c:	60fb      	str	r3, [r7, #12]
	filtered_regen_torque = FEB_regen_filter_Speed(filtered_regen_torque);
 800150e:	ed97 0a03 	vldr	s0, [r7, #12]
 8001512:	f7ff ff2b 	bl	800136c <FEB_regen_filter_Speed>
 8001516:	ed87 0a03 	vstr	s0, [r7, #12]
	filtered_regen_torque = FEB_regen_filter_SOC(filtered_regen_torque);
 800151a:	ed97 0a03 	vldr	s0, [r7, #12]
 800151e:	f7ff ff4f 	bl	80013c0 <FEB_regen_filter_SOC>
 8001522:	ed87 0a03 	vstr	s0, [r7, #12]
	filtered_regen_torque = FEB_regen_filter_Temp(filtered_regen_torque);
 8001526:	ed97 0a03 	vldr	s0, [r7, #12]
 800152a:	f7ff ff99 	bl	8001460 <FEB_regen_filter_Temp>
 800152e:	ed87 0a03 	vstr	s0, [r7, #12]
	return filtered_regen_torque * USER_REGEN_FILTER;
 8001532:	edd7 7a03 	vldr	s15, [r7, #12]
 8001536:	ed9f 7a04 	vldr	s14, [pc, #16]	@ 8001548 <FEB_regen_filter+0x48>
 800153a:	ee67 7a87 	vmul.f32	s15, s15, s14
}
 800153e:	eeb0 0a67 	vmov.f32	s0, s15
 8001542:	3710      	adds	r7, #16
 8001544:	46bd      	mov	sp, r7
 8001546:	bd80      	pop	{r7, pc}
 8001548:	00000000 	.word	0x00000000

0800154c <FEB_CAN_RMS_getFilteredTorque_Regen>:

// **** TORQUE FUNCTIONS****

// Returns MAGNITUDE of regen torque
float FEB_CAN_RMS_getFilteredTorque_Regen(void){
 800154c:	b580      	push	{r7, lr}
 800154e:	b082      	sub	sp, #8
 8001550:	af00      	add	r7, sp, #0
	float present_regen_max = FEB_getElecMaxRegenTorque();
 8001552:	f7ff fe81 	bl	8001258 <FEB_getElecMaxRegenTorque>
 8001556:	ed87 0a01 	vstr	s0, [r7, #4]
	return FEB_regen_filter(present_regen_max);
 800155a:	ed97 0a01 	vldr	s0, [r7, #4]
 800155e:	f7ff ffcf 	bl	8001500 <FEB_regen_filter>
 8001562:	eef0 7a40 	vmov.f32	s15, s0
}
 8001566:	eeb0 0a67 	vmov.f32	s0, s15
 800156a:	3708      	adds	r7, #8
 800156c:	46bd      	mov	sp, r7
 800156e:	bd80      	pop	{r7, pc}

08001570 <FEB_get_peak_current_delimiter>:
// This means we will assume the pack resistance is about 1 Ohm
// Note this will likely be steeper as we approach lower SOC, but these cell dynamics are hopefully
// negligible due to the heavy current limiting and the ohmic losses of the accumulator
// Linear interpolation between (460V, 60/60A) and (410V, 10/60A), where PEAK_CURRENT is 60A
float FEB_get_peak_current_delimiter()
{
 8001570:	b580      	push	{r7, lr}
 8001572:	b086      	sub	sp, #24
 8001574:	af00      	add	r7, sp, #0
	float accumulator_voltage = (RMS_MESSAGE.HV_Bus_Voltage-50.0) / 10.0;
 8001576:	4b38      	ldr	r3, [pc, #224]	@ (8001658 <FEB_get_peak_current_delimiter+0xe8>)
 8001578:	f9b3 3000 	ldrsh.w	r3, [r3]
 800157c:	4618      	mov	r0, r3
 800157e:	f7fe fff1 	bl	8000564 <__aeabi_i2d>
 8001582:	f04f 0200 	mov.w	r2, #0
 8001586:	4b35      	ldr	r3, [pc, #212]	@ (800165c <FEB_get_peak_current_delimiter+0xec>)
 8001588:	f7fe fe9e 	bl	80002c8 <__aeabi_dsub>
 800158c:	4602      	mov	r2, r0
 800158e:	460b      	mov	r3, r1
 8001590:	4610      	mov	r0, r2
 8001592:	4619      	mov	r1, r3
 8001594:	f04f 0200 	mov.w	r2, #0
 8001598:	4b31      	ldr	r3, [pc, #196]	@ (8001660 <FEB_get_peak_current_delimiter+0xf0>)
 800159a:	f7ff f977 	bl	800088c <__aeabi_ddiv>
 800159e:	4602      	mov	r2, r0
 80015a0:	460b      	mov	r3, r1
 80015a2:	4610      	mov	r0, r2
 80015a4:	4619      	mov	r1, r3
 80015a6:	f7ff fb1f 	bl	8000be8 <__aeabi_d2f>
 80015aa:	4603      	mov	r3, r0
 80015ac:	617b      	str	r3, [r7, #20]
	float estimated_voltage_drop_at_peak = PEAK_CURRENT;
 80015ae:	4b2d      	ldr	r3, [pc, #180]	@ (8001664 <FEB_get_peak_current_delimiter+0xf4>)
 80015b0:	613b      	str	r3, [r7, #16]
	float start_derating_voltage = 400.0 + PEAK_CURRENT; // Assume R_acc = 1ohm
 80015b2:	4b2d      	ldr	r3, [pc, #180]	@ (8001668 <FEB_get_peak_current_delimiter+0xf8>)
 80015b4:	60fb      	str	r3, [r7, #12]
	// Note: Comments are based on start_derating_voltage = 460V and PEAK_CURRENT = 60

	// Saturate outside of 460 and 410
	if (accumulator_voltage > start_derating_voltage)
 80015b6:	ed97 7a05 	vldr	s14, [r7, #20]
 80015ba:	edd7 7a03 	vldr	s15, [r7, #12]
 80015be:	eeb4 7ae7 	vcmpe.f32	s14, s15
 80015c2:	eef1 fa10 	vmrs	APSR_nzcv, fpscr
 80015c6:	dd02      	ble.n	80015ce <FEB_get_peak_current_delimiter+0x5e>
	{
		return 1;
 80015c8:	f04f 537e 	mov.w	r3, #1065353216	@ 0x3f800000
 80015cc:	e034      	b.n	8001638 <FEB_get_peak_current_delimiter+0xc8>
	}
	if (accumulator_voltage <= 410)
 80015ce:	edd7 7a05 	vldr	s15, [r7, #20]
 80015d2:	ed9f 7a26 	vldr	s14, [pc, #152]	@ 800166c <FEB_get_peak_current_delimiter+0xfc>
 80015d6:	eef4 7ac7 	vcmpe.f32	s15, s14
 80015da:	eef1 fa10 	vmrs	APSR_nzcv, fpscr
 80015de:	d801      	bhi.n	80015e4 <FEB_get_peak_current_delimiter+0x74>
	{
		return (10.0 / PEAK_CURRENT); // limit to only 10A 
 80015e0:	4b23      	ldr	r3, [pc, #140]	@ (8001670 <FEB_get_peak_current_delimiter+0x100>)
 80015e2:	e029      	b.n	8001638 <FEB_get_peak_current_delimiter+0xc8>

	//   x0    y0            x1    y1
	// (460V, 60/60A) and (410V, 10/60A)

	//      m   = (        y_1           -              y_0)              / (x_1 -          x_0)
	float slope = ((10.0 / PEAK_CURRENT) - (PEAK_CURRENT / PEAK_CURRENT)) / (410.0 - (start_derating_voltage));
 80015e4:	68f8      	ldr	r0, [r7, #12]
 80015e6:	f7fe ffcf 	bl	8000588 <__aeabi_f2d>
 80015ea:	4602      	mov	r2, r0
 80015ec:	460b      	mov	r3, r1
 80015ee:	a116      	add	r1, pc, #88	@ (adr r1, 8001648 <FEB_get_peak_current_delimiter+0xd8>)
 80015f0:	e9d1 0100 	ldrd	r0, r1, [r1]
 80015f4:	f7fe fe68 	bl	80002c8 <__aeabi_dsub>
 80015f8:	4602      	mov	r2, r0
 80015fa:	460b      	mov	r3, r1
 80015fc:	a114      	add	r1, pc, #80	@ (adr r1, 8001650 <FEB_get_peak_current_delimiter+0xe0>)
 80015fe:	e9d1 0100 	ldrd	r0, r1, [r1]
 8001602:	f7ff f943 	bl	800088c <__aeabi_ddiv>
 8001606:	4602      	mov	r2, r0
 8001608:	460b      	mov	r3, r1
 800160a:	4610      	mov	r0, r2
 800160c:	4619      	mov	r1, r3
 800160e:	f7ff faeb 	bl	8000be8 <__aeabi_d2f>
 8001612:	4603      	mov	r3, r0
 8001614:	60bb      	str	r3, [r7, #8]
	//      y     =   m     (       x            -          x_0          ) + y_0
	float derater = slope * (accumulator_voltage - start_derating_voltage) + 1.0;
 8001616:	ed97 7a05 	vldr	s14, [r7, #20]
 800161a:	edd7 7a03 	vldr	s15, [r7, #12]
 800161e:	ee37 7a67 	vsub.f32	s14, s14, s15
 8001622:	edd7 7a02 	vldr	s15, [r7, #8]
 8001626:	ee67 7a27 	vmul.f32	s15, s14, s15
 800162a:	eeb7 7a00 	vmov.f32	s14, #112	@ 0x3f800000  1.0
 800162e:	ee77 7a87 	vadd.f32	s15, s15, s14
 8001632:	edc7 7a01 	vstr	s15, [r7, #4]

	return derater;   
 8001636:	687b      	ldr	r3, [r7, #4]
}
 8001638:	ee07 3a90 	vmov	s15, r3
 800163c:	eeb0 0a67 	vmov.f32	s0, s15
 8001640:	3718      	adds	r7, #24
 8001642:	46bd      	mov	sp, r7
 8001644:	bd80      	pop	{r7, pc}
 8001646:	bf00      	nop
 8001648:	00000000 	.word	0x00000000
 800164c:	4079a000 	.word	0x4079a000
 8001650:	89d89d8a 	.word	0x89d89d8a
 8001654:	bfe9d89d 	.word	0xbfe9d89d
 8001658:	2000025c 	.word	0x2000025c
 800165c:	40490000 	.word	0x40490000
 8001660:	40240000 	.word	0x40240000
 8001664:	42500000 	.word	0x42500000
 8001668:	43e20000 	.word	0x43e20000
 800166c:	43cd0000 	.word	0x43cd0000
 8001670:	3e44ec4f 	.word	0x3e44ec4f
 8001674:	00000000 	.word	0x00000000

08001678 <FEB_CAN_RMS_getMaxTorque>:

float FEB_CAN_RMS_getMaxTorque(void){
 8001678:	b580      	push	{r7, lr}
 800167a:	b084      	sub	sp, #16
 800167c:	af00      	add	r7, sp, #0
	// float accumulator_voltage = min(INIT_VOLTAGE, (RMS_MESSAGE.HV_Bus_Voltage-50) / 10); // TODO: consider reading from IVT
	float motor_speed = RMS_MESSAGE.Motor_Speed * RPM_TO_RAD_S;
 800167e:	4b30      	ldr	r3, [pc, #192]	@ (8001740 <FEB_CAN_RMS_getMaxTorque+0xc8>)
 8001680:	f9b3 3002 	ldrsh.w	r3, [r3, #2]
 8001684:	4618      	mov	r0, r3
 8001686:	f7fe ff6d 	bl	8000564 <__aeabi_i2d>
 800168a:	a32b      	add	r3, pc, #172	@ (adr r3, 8001738 <FEB_CAN_RMS_getMaxTorque+0xc0>)
 800168c:	e9d3 2300 	ldrd	r2, r3, [r3]
 8001690:	f7fe ffd2 	bl	8000638 <__aeabi_dmul>
 8001694:	4602      	mov	r2, r0
 8001696:	460b      	mov	r3, r1
 8001698:	4610      	mov	r0, r2
 800169a:	4619      	mov	r1, r3
 800169c:	f7ff faa4 	bl	8000be8 <__aeabi_d2f>
 80016a0:	4603      	mov	r3, r0
 80016a2:	60fb      	str	r3, [r7, #12]
	float peak_current_limited = PEAK_CURRENT * FEB_get_peak_current_delimiter();
 80016a4:	f7ff ff64 	bl	8001570 <FEB_get_peak_current_delimiter>
 80016a8:	ee10 3a10 	vmov	r3, s0
 80016ac:	4618      	mov	r0, r3
 80016ae:	f7fe ff6b 	bl	8000588 <__aeabi_f2d>
 80016b2:	f04f 0200 	mov.w	r2, #0
 80016b6:	4b23      	ldr	r3, [pc, #140]	@ (8001744 <FEB_CAN_RMS_getMaxTorque+0xcc>)
 80016b8:	f7fe ffbe 	bl	8000638 <__aeabi_dmul>
 80016bc:	4602      	mov	r2, r0
 80016be:	460b      	mov	r3, r1
 80016c0:	4610      	mov	r0, r2
 80016c2:	4619      	mov	r1, r3
 80016c4:	f7ff fa90 	bl	8000be8 <__aeabi_d2f>
 80016c8:	4603      	mov	r3, r0
 80016ca:	60bb      	str	r3, [r7, #8]
	float power_capped = peak_current_limited * 400.0; // Cap power to 24kW (i.e. our min voltage)
 80016cc:	edd7 7a02 	vldr	s15, [r7, #8]
 80016d0:	ed9f 7a1d 	vldr	s14, [pc, #116]	@ 8001748 <FEB_CAN_RMS_getMaxTorque+0xd0>
 80016d4:	ee67 7a87 	vmul.f32	s15, s15, s14
 80016d8:	edc7 7a01 	vstr	s15, [r7, #4]
 	// If speed is less than 15, we should command max torque
  	// This catches divide by 0 errors and also negative speeds (which may create very high negative torque values)
	if (motor_speed < 15) {
 80016dc:	edd7 7a03 	vldr	s15, [r7, #12]
 80016e0:	eeb2 7a0e 	vmov.f32	s14, #46	@ 0x41700000  15.0
 80016e4:	eef4 7ac7 	vcmpe.f32	s15, s14
 80016e8:	eef1 fa10 	vmrs	APSR_nzcv, fpscr
 80016ec:	d501      	bpl.n	80016f2 <FEB_CAN_RMS_getMaxTorque+0x7a>
		return MAX_TORQUE;
 80016ee:	4b17      	ldr	r3, [pc, #92]	@ (800174c <FEB_CAN_RMS_getMaxTorque+0xd4>)
 80016f0:	e018      	b.n	8001724 <FEB_CAN_RMS_getMaxTorque+0xac>
	}
	float maxTorque = min(MAX_TORQUE, (power_capped) / motor_speed);
 80016f2:	edd7 6a01 	vldr	s13, [r7, #4]
 80016f6:	ed97 7a03 	vldr	s14, [r7, #12]
 80016fa:	eec6 7a87 	vdiv.f32	s15, s13, s14
 80016fe:	ed9f 7a14 	vldr	s14, [pc, #80]	@ 8001750 <FEB_CAN_RMS_getMaxTorque+0xd8>
 8001702:	eef4 7ac7 	vcmpe.f32	s15, s14
 8001706:	eef1 fa10 	vmrs	APSR_nzcv, fpscr
 800170a:	dd02      	ble.n	8001712 <FEB_CAN_RMS_getMaxTorque+0x9a>
 800170c:	eddf 7a10 	vldr	s15, [pc, #64]	@ 8001750 <FEB_CAN_RMS_getMaxTorque+0xd8>
 8001710:	e005      	b.n	800171e <FEB_CAN_RMS_getMaxTorque+0xa6>
 8001712:	edd7 6a01 	vldr	s13, [r7, #4]
 8001716:	ed97 7a03 	vldr	s14, [r7, #12]
 800171a:	eec6 7a87 	vdiv.f32	s15, s13, s14
 800171e:	edc7 7a00 	vstr	s15, [r7]
	return maxTorque;
 8001722:	683b      	ldr	r3, [r7, #0]
}
 8001724:	ee07 3a90 	vmov	s15, r3
 8001728:	eeb0 0a67 	vmov.f32	s0, s15
 800172c:	3710      	adds	r7, #16
 800172e:	46bd      	mov	sp, r7
 8001730:	bd80      	pop	{r7, pc}
 8001732:	bf00      	nop
 8001734:	f3af 8000 	nop.w
 8001738:	0f3cb3e5 	.word	0x0f3cb3e5
 800173c:	3fbaceee 	.word	0x3fbaceee
 8001740:	2000025c 	.word	0x2000025c
 8001744:	404a0000 	.word	0x404a0000
 8001748:	43c80000 	.word	0x43c80000
 800174c:	43660000 	.word	0x43660000
 8001750:	43660000 	.word	0x43660000
 8001754:	00000000 	.word	0x00000000

08001758 <FEB_CAN_RMS_Torque>:

void FEB_CAN_RMS_Torque(void){
 8001758:	b580      	push	{r7, lr}
 800175a:	ed2d 8b02 	vpush	{d8}
 800175e:	b084      	sub	sp, #16
 8001760:	af00      	add	r7, sp, #0
	FEB_SM_ST_t current_BMS_state = FEB_CAN_BMS_getState(); // TODO: FOR ALEX
 8001762:	f7ff fcd3 	bl	800110c <FEB_CAN_BMS_getState>
 8001766:	4603      	mov	r3, r0
 8001768:	73fb      	strb	r3, [r7, #15]
	float accPos = FEB_Normalized_Acc_Pedals();
 800176a:	f000 fa21 	bl	8001bb0 <FEB_Normalized_Acc_Pedals>
 800176e:	ed87 0a02 	vstr	s0, [r7, #8]
	float brkPos = FEB_Normalized_getBrake();
 8001772:	f000 fb35 	bl	8001de0 <FEB_Normalized_getBrake>
 8001776:	ed87 0a01 	vstr	s0, [r7, #4]
	if (brkPos > BRAKE_POSITION_THRESH) // brake identified
 800177a:	6878      	ldr	r0, [r7, #4]
 800177c:	f7fe ff04 	bl	8000588 <__aeabi_f2d>
 8001780:	a324      	add	r3, pc, #144	@ (adr r3, 8001814 <FEB_CAN_RMS_Torque+0xbc>)
 8001782:	e9d3 2300 	ldrd	r2, r3, [r3]
 8001786:	f7ff f9e7 	bl	8000b58 <__aeabi_dcmpgt>
 800178a:	4603      	mov	r3, r0
 800178c:	2b00      	cmp	r3, #0
 800178e:	d01a      	beq.n	80017c6 <FEB_CAN_RMS_Torque+0x6e>
	{
		if ((current_BMS_state == FEB_SM_ST_DRIVE_REGEN))
 8001790:	7bfb      	ldrb	r3, [r7, #15]
 8001792:	2b07      	cmp	r3, #7
 8001794:	d113      	bne.n	80017be <FEB_CAN_RMS_Torque+0x66>
		{
		    // Brake detected, regen allowed
			// Multiply by -1 to regen (opposite direction)
			RMSControl.torque = -1 * 10 * brkPos * FEB_CAN_RMS_getFilteredTorque_Regen();
 8001796:	edd7 7a01 	vldr	s15, [r7, #4]
 800179a:	eeba 7a04 	vmov.f32	s14, #164	@ 0xc1200000 -10.0
 800179e:	ee27 8a87 	vmul.f32	s16, s15, s14
 80017a2:	f7ff fed3 	bl	800154c <FEB_CAN_RMS_getFilteredTorque_Regen>
 80017a6:	eef0 7a40 	vmov.f32	s15, s0
 80017aa:	ee68 7a27 	vmul.f32	s15, s16, s15
 80017ae:	eefd 7ae7 	vcvt.s32.f32	s15, s15
 80017b2:	ee17 3a90 	vmov	r3, s15
 80017b6:	b21a      	sxth	r2, r3
 80017b8:	4b15      	ldr	r3, [pc, #84]	@ (8001810 <FEB_CAN_RMS_Torque+0xb8>)
 80017ba:	801a      	strh	r2, [r3, #0]
 80017bc:	e020      	b.n	8001800 <FEB_CAN_RMS_Torque+0xa8>
		}
		else
		{
			// Brake detected, but regen not allowed -> command 0 torque
			RMSControl.torque = 0;
 80017be:	4b14      	ldr	r3, [pc, #80]	@ (8001810 <FEB_CAN_RMS_Torque+0xb8>)
 80017c0:	2200      	movs	r2, #0
 80017c2:	801a      	strh	r2, [r3, #0]
 80017c4:	e01c      	b.n	8001800 <FEB_CAN_RMS_Torque+0xa8>
		}
	}
	else
	{
	    if ((current_BMS_state == FEB_SM_ST_DRIVE) ||
 80017c6:	7bfb      	ldrb	r3, [r7, #15]
 80017c8:	2b06      	cmp	r3, #6
 80017ca:	d002      	beq.n	80017d2 <FEB_CAN_RMS_Torque+0x7a>
 80017cc:	7bfb      	ldrb	r3, [r7, #15]
 80017ce:	2b07      	cmp	r3, #7
 80017d0:	d113      	bne.n	80017fa <FEB_CAN_RMS_Torque+0xa2>
	        (current_BMS_state == FEB_SM_ST_DRIVE_REGEN))
	    {
	        // No braking detected, send throttle command
    		RMSControl.torque = 10 * accPos * FEB_CAN_RMS_getMaxTorque();
 80017d2:	edd7 7a02 	vldr	s15, [r7, #8]
 80017d6:	eeb2 7a04 	vmov.f32	s14, #36	@ 0x41200000  10.0
 80017da:	ee27 8a87 	vmul.f32	s16, s15, s14
 80017de:	f7ff ff4b 	bl	8001678 <FEB_CAN_RMS_getMaxTorque>
 80017e2:	eef0 7a40 	vmov.f32	s15, s0
 80017e6:	ee68 7a27 	vmul.f32	s15, s16, s15
 80017ea:	eefd 7ae7 	vcvt.s32.f32	s15, s15
 80017ee:	ee17 3a90 	vmov	r3, s15
 80017f2:	b21a      	sxth	r2, r3
 80017f4:	4b06      	ldr	r3, [pc, #24]	@ (8001810 <FEB_CAN_RMS_Torque+0xb8>)
 80017f6:	801a      	strh	r2, [r3, #0]
 80017f8:	e002      	b.n	8001800 <FEB_CAN_RMS_Torque+0xa8>
	    }
	    else
	    {
	        // No braking detected, but driving not allowed by BMS state
	        RMSControl.torque = 0;
 80017fa:	4b05      	ldr	r3, [pc, #20]	@ (8001810 <FEB_CAN_RMS_Torque+0xb8>)
 80017fc:	2200      	movs	r2, #0
 80017fe:	801a      	strh	r2, [r3, #0]
//	sprintf(buf, "Torque: %d\n", max_torque);
//	HAL_UART_Transmit(&huart2, buf, strlen(buf), 100);
//
//	RMSControl.torque= max_torque;

	FEB_CAN_RMS_Transmit_updateTorque();
 8001800:	f000 f80c 	bl	800181c <FEB_CAN_RMS_Transmit_updateTorque>
}
 8001804:	bf00      	nop
 8001806:	3710      	adds	r7, #16
 8001808:	46bd      	mov	sp, r7
 800180a:	ecbd 8b02 	vpop	{d8}
 800180e:	bd80      	pop	{r7, pc}
 8001810:	20000258 	.word	0x20000258
 8001814:	33333333 	.word	0x33333333
 8001818:	3fc33333 	.word	0x3fc33333

0800181c <FEB_CAN_RMS_Transmit_updateTorque>:

	// Select CAN msg to broadcast
	FEB_CAN_RMS_Transmit_paramBroadcast();
}

void FEB_CAN_RMS_Transmit_updateTorque(void) { //TODO: Create Custom Transmit function and update below call
 800181c:	b580      	push	{r7, lr}
 800181e:	af00      	add	r7, sp, #0
  //uint8_t message_data[8] = {RMSControl.torque & 0xFF, RMSControl.torque >> 8, 0, 0, 0, RMSControl.enabled, 0, 0};
	FEB_CAN_Tx_Header.DLC = 8;
 8001820:	4b1f      	ldr	r3, [pc, #124]	@ (80018a0 <FEB_CAN_RMS_Transmit_updateTorque+0x84>)
 8001822:	2208      	movs	r2, #8
 8001824:	611a      	str	r2, [r3, #16]
	FEB_CAN_Tx_Header.StdId = 0x0C0; //ID for sending paramater messages for RMS
 8001826:	4b1e      	ldr	r3, [pc, #120]	@ (80018a0 <FEB_CAN_RMS_Transmit_updateTorque+0x84>)
 8001828:	22c0      	movs	r2, #192	@ 0xc0
 800182a:	601a      	str	r2, [r3, #0]
	FEB_CAN_Tx_Header.IDE = CAN_ID_STD;
 800182c:	4b1c      	ldr	r3, [pc, #112]	@ (80018a0 <FEB_CAN_RMS_Transmit_updateTorque+0x84>)
 800182e:	2200      	movs	r2, #0
 8001830:	609a      	str	r2, [r3, #8]
	FEB_CAN_Tx_Header.RTR = CAN_RTR_DATA;
 8001832:	4b1b      	ldr	r3, [pc, #108]	@ (80018a0 <FEB_CAN_RMS_Transmit_updateTorque+0x84>)
 8001834:	2200      	movs	r2, #0
 8001836:	60da      	str	r2, [r3, #12]
	FEB_CAN_Tx_Header.TransmitGlobalTime = DISABLE;
 8001838:	4b19      	ldr	r3, [pc, #100]	@ (80018a0 <FEB_CAN_RMS_Transmit_updateTorque+0x84>)
 800183a:	2200      	movs	r2, #0
 800183c:	751a      	strb	r2, [r3, #20]

	// Copy data to Tx buffer
	FEB_CAN_Tx_Data[0] = (uint8_t)RMSControl.torque & 0xFF;
 800183e:	4b19      	ldr	r3, [pc, #100]	@ (80018a4 <FEB_CAN_RMS_Transmit_updateTorque+0x88>)
 8001840:	f9b3 3000 	ldrsh.w	r3, [r3]
 8001844:	b2da      	uxtb	r2, r3
 8001846:	4b18      	ldr	r3, [pc, #96]	@ (80018a8 <FEB_CAN_RMS_Transmit_updateTorque+0x8c>)
 8001848:	701a      	strb	r2, [r3, #0]
	FEB_CAN_Tx_Data[1] = (uint8_t)(RMSControl.torque >> 8) & 0xFF;
 800184a:	4b16      	ldr	r3, [pc, #88]	@ (80018a4 <FEB_CAN_RMS_Transmit_updateTorque+0x88>)
 800184c:	f9b3 3000 	ldrsh.w	r3, [r3]
 8001850:	121b      	asrs	r3, r3, #8
 8001852:	b21b      	sxth	r3, r3
 8001854:	b2da      	uxtb	r2, r3
 8001856:	4b14      	ldr	r3, [pc, #80]	@ (80018a8 <FEB_CAN_RMS_Transmit_updateTorque+0x8c>)
 8001858:	705a      	strb	r2, [r3, #1]
	FEB_CAN_Tx_Data[2] = 0;
 800185a:	4b13      	ldr	r3, [pc, #76]	@ (80018a8 <FEB_CAN_RMS_Transmit_updateTorque+0x8c>)
 800185c:	2200      	movs	r2, #0
 800185e:	709a      	strb	r2, [r3, #2]
	FEB_CAN_Tx_Data[3] = 0;
 8001860:	4b11      	ldr	r3, [pc, #68]	@ (80018a8 <FEB_CAN_RMS_Transmit_updateTorque+0x8c>)
 8001862:	2200      	movs	r2, #0
 8001864:	70da      	strb	r2, [r3, #3]
	FEB_CAN_Tx_Data[4] = 1;
 8001866:	4b10      	ldr	r3, [pc, #64]	@ (80018a8 <FEB_CAN_RMS_Transmit_updateTorque+0x8c>)
 8001868:	2201      	movs	r2, #1
 800186a:	711a      	strb	r2, [r3, #4]
	FEB_CAN_Tx_Data[5] = RMSControl.enabled;
 800186c:	4b0d      	ldr	r3, [pc, #52]	@ (80018a4 <FEB_CAN_RMS_Transmit_updateTorque+0x88>)
 800186e:	789a      	ldrb	r2, [r3, #2]
 8001870:	4b0d      	ldr	r3, [pc, #52]	@ (80018a8 <FEB_CAN_RMS_Transmit_updateTorque+0x8c>)
 8001872:	715a      	strb	r2, [r3, #5]
	FEB_CAN_Tx_Data[6] = 0;
 8001874:	4b0c      	ldr	r3, [pc, #48]	@ (80018a8 <FEB_CAN_RMS_Transmit_updateTorque+0x8c>)
 8001876:	2200      	movs	r2, #0
 8001878:	719a      	strb	r2, [r3, #6]
	FEB_CAN_Tx_Data[7] = 0;
 800187a:	4b0b      	ldr	r3, [pc, #44]	@ (80018a8 <FEB_CAN_RMS_Transmit_updateTorque+0x8c>)
 800187c:	2200      	movs	r2, #0
 800187e:	71da      	strb	r2, [r3, #7]

	// Delay until mailbox available
	while (HAL_CAN_GetTxMailboxesFreeLevel(&hcan1) == 0) {}
 8001880:	bf00      	nop
 8001882:	480a      	ldr	r0, [pc, #40]	@ (80018ac <FEB_CAN_RMS_Transmit_updateTorque+0x90>)
 8001884:	f001 ffda 	bl	800383c <HAL_CAN_GetTxMailboxesFreeLevel>
 8001888:	4603      	mov	r3, r0
 800188a:	2b00      	cmp	r3, #0
 800188c:	d0f9      	beq.n	8001882 <FEB_CAN_RMS_Transmit_updateTorque+0x66>

	// Add Tx data to mailbox
	if (HAL_CAN_AddTxMessage(&hcan1, &FEB_CAN_Tx_Header, FEB_CAN_Tx_Data, &FEB_CAN_Tx_Mailbox) != HAL_OK) {
 800188e:	4b08      	ldr	r3, [pc, #32]	@ (80018b0 <FEB_CAN_RMS_Transmit_updateTorque+0x94>)
 8001890:	4a05      	ldr	r2, [pc, #20]	@ (80018a8 <FEB_CAN_RMS_Transmit_updateTorque+0x8c>)
 8001892:	4903      	ldr	r1, [pc, #12]	@ (80018a0 <FEB_CAN_RMS_Transmit_updateTorque+0x84>)
 8001894:	4805      	ldr	r0, [pc, #20]	@ (80018ac <FEB_CAN_RMS_Transmit_updateTorque+0x90>)
 8001896:	f001 ff01 	bl	800369c <HAL_CAN_AddTxMessage>
		// Code Error - Shutdown
	}
}
 800189a:	bf00      	nop
 800189c:	bd80      	pop	{r7, pc}
 800189e:	bf00      	nop
 80018a0:	20000204 	.word	0x20000204
 80018a4:	20000258 	.word	0x20000258
 80018a8:	20000238 	.word	0x20000238
 80018ac:	200002b8 	.word	0x200002b8
 80018b0:	20000248 	.word	0x20000248

080018b4 <FEB_CAN_RMS_Filter_Config>:




uint8_t FEB_CAN_RMS_Filter_Config(CAN_HandleTypeDef* hcan, uint8_t FIFO_assignment, uint8_t filter_bank) {
 80018b4:	b580      	push	{r7, lr}
 80018b6:	b08e      	sub	sp, #56	@ 0x38
 80018b8:	af00      	add	r7, sp, #0
 80018ba:	6078      	str	r0, [r7, #4]
 80018bc:	460b      	mov	r3, r1
 80018be:	70fb      	strb	r3, [r7, #3]
 80018c0:	4613      	mov	r3, r2
 80018c2:	70bb      	strb	r3, [r7, #2]
	uint16_t ids[] = {FEB_CAN_ID_RMS_VOLTAGE, FEB_CAN_ID_RMS_MOTOR};
 80018c4:	4b1c      	ldr	r3, [pc, #112]	@ (8001938 <FEB_CAN_RMS_Filter_Config+0x84>)
 80018c6:	681b      	ldr	r3, [r3, #0]
 80018c8:	633b      	str	r3, [r7, #48]	@ 0x30

	for (uint8_t i = 0; i < 2; i++) {
 80018ca:	2300      	movs	r3, #0
 80018cc:	f887 3037 	strb.w	r3, [r7, #55]	@ 0x37
 80018d0:	e029      	b.n	8001926 <FEB_CAN_RMS_Filter_Config+0x72>
		CAN_FilterTypeDef filter_config;

	    // Standard CAN - 2.0A - 11 bit
	    filter_config.FilterActivation = CAN_FILTER_ENABLE;
 80018d2:	2301      	movs	r3, #1
 80018d4:	62bb      	str	r3, [r7, #40]	@ 0x28
		filter_config.FilterBank = filter_bank;
 80018d6:	78bb      	ldrb	r3, [r7, #2]
 80018d8:	61fb      	str	r3, [r7, #28]
		filter_config.FilterFIFOAssignment = FIFO_assignment;
 80018da:	78fb      	ldrb	r3, [r7, #3]
 80018dc:	61bb      	str	r3, [r7, #24]
		filter_config.FilterIdHigh = ids[i] << 5;
 80018de:	f897 3037 	ldrb.w	r3, [r7, #55]	@ 0x37
 80018e2:	005b      	lsls	r3, r3, #1
 80018e4:	3338      	adds	r3, #56	@ 0x38
 80018e6:	443b      	add	r3, r7
 80018e8:	f833 3c08 	ldrh.w	r3, [r3, #-8]
 80018ec:	015b      	lsls	r3, r3, #5
 80018ee:	60bb      	str	r3, [r7, #8]
		filter_config.FilterIdLow = 0;
 80018f0:	2300      	movs	r3, #0
 80018f2:	60fb      	str	r3, [r7, #12]
		filter_config.FilterMaskIdHigh = 0xFFE0;
 80018f4:	f64f 73e0 	movw	r3, #65504	@ 0xffe0
 80018f8:	613b      	str	r3, [r7, #16]
		filter_config.FilterMaskIdLow = 0;
 80018fa:	2300      	movs	r3, #0
 80018fc:	617b      	str	r3, [r7, #20]
		filter_config.FilterMode = CAN_FILTERMODE_IDMASK;
 80018fe:	2300      	movs	r3, #0
 8001900:	623b      	str	r3, [r7, #32]
		filter_config.FilterScale = CAN_FILTERSCALE_32BIT;
 8001902:	2301      	movs	r3, #1
 8001904:	627b      	str	r3, [r7, #36]	@ 0x24
		filter_config.SlaveStartFilterBank = 27;
 8001906:	231b      	movs	r3, #27
 8001908:	62fb      	str	r3, [r7, #44]	@ 0x2c
	    filter_bank++;
 800190a:	78bb      	ldrb	r3, [r7, #2]
 800190c:	3301      	adds	r3, #1
 800190e:	70bb      	strb	r3, [r7, #2]

		if (HAL_CAN_ConfigFilter(hcan, &filter_config) != HAL_OK) {
 8001910:	f107 0308 	add.w	r3, r7, #8
 8001914:	4619      	mov	r1, r3
 8001916:	6878      	ldr	r0, [r7, #4]
 8001918:	f001 fd9c 	bl	8003454 <HAL_CAN_ConfigFilter>
	for (uint8_t i = 0; i < 2; i++) {
 800191c:	f897 3037 	ldrb.w	r3, [r7, #55]	@ 0x37
 8001920:	3301      	adds	r3, #1
 8001922:	f887 3037 	strb.w	r3, [r7, #55]	@ 0x37
 8001926:	f897 3037 	ldrb.w	r3, [r7, #55]	@ 0x37
 800192a:	2b01      	cmp	r3, #1
 800192c:	d9d1      	bls.n	80018d2 <FEB_CAN_RMS_Filter_Config+0x1e>
			//Code Error - shutdown
		}
	}

	return filter_bank;
 800192e:	78bb      	ldrb	r3, [r7, #2]
}
 8001930:	4618      	mov	r0, r3
 8001932:	3738      	adds	r7, #56	@ 0x38
 8001934:	46bd      	mov	sp, r7
 8001936:	bd80      	pop	{r7, pc}
 8001938:	08009788 	.word	0x08009788

0800193c <FEB_CAN_RMS_Store_Msg>:
		// Code Error - Shutdown
	}
}


void FEB_CAN_RMS_Store_Msg(CAN_RxHeaderTypeDef* pHeader, uint8_t *RxData) {
 800193c:	b480      	push	{r7}
 800193e:	b083      	sub	sp, #12
 8001940:	af00      	add	r7, sp, #0
 8001942:	6078      	str	r0, [r7, #4]
 8001944:	6039      	str	r1, [r7, #0]
	switch (pHeader -> StdId){
 8001946:	687b      	ldr	r3, [r7, #4]
 8001948:	681b      	ldr	r3, [r3, #0]
 800194a:	2ba5      	cmp	r3, #165	@ 0xa5
 800194c:	d007      	beq.n	800195e <FEB_CAN_RMS_Store_Msg+0x22>
 800194e:	2ba7      	cmp	r3, #167	@ 0xa7
 8001950:	d10c      	bne.n	800196c <FEB_CAN_RMS_Store_Msg+0x30>
		case FEB_CAN_ID_RMS_VOLTAGE:
			memcpy(&(RMS_MESSAGE.HV_Bus_Voltage), RxData, 2);
 8001952:	683b      	ldr	r3, [r7, #0]
 8001954:	881b      	ldrh	r3, [r3, #0]
 8001956:	b29a      	uxth	r2, r3
 8001958:	4b07      	ldr	r3, [pc, #28]	@ (8001978 <FEB_CAN_RMS_Store_Msg+0x3c>)
 800195a:	801a      	strh	r2, [r3, #0]
			break;
 800195c:	e006      	b.n	800196c <FEB_CAN_RMS_Store_Msg+0x30>
		case FEB_CAN_ID_RMS_MOTOR:
			memcpy(&(RMS_MESSAGE.Motor_Speed), RxData+2, 2);
 800195e:	683b      	ldr	r3, [r7, #0]
 8001960:	3302      	adds	r3, #2
 8001962:	881b      	ldrh	r3, [r3, #0]
 8001964:	b29a      	uxth	r2, r3
 8001966:	4b04      	ldr	r3, [pc, #16]	@ (8001978 <FEB_CAN_RMS_Store_Msg+0x3c>)
 8001968:	805a      	strh	r2, [r3, #2]
			break;
 800196a:	bf00      	nop
	}
}
 800196c:	bf00      	nop
 800196e:	370c      	adds	r7, #12
 8001970:	46bd      	mov	sp, r7
 8001972:	f85d 7b04 	ldr.w	r7, [sp], #4
 8001976:	4770      	bx	lr
 8001978:	2000025c 	.word	0x2000025c

0800197c <FEB_Read_ADC1>:
bool currHigh = false;


// **************************************** Functions ****************************************

uint16_t FEB_Read_ADC1(uint32_t channel){
 800197c:	b580      	push	{r7, lr}
 800197e:	b086      	sub	sp, #24
 8001980:	af00      	add	r7, sp, #0
 8001982:	6078      	str	r0, [r7, #4]
	ADC_ChannelConfTypeDef sConfig={0};
 8001984:	f107 0308 	add.w	r3, r7, #8
 8001988:	2200      	movs	r2, #0
 800198a:	601a      	str	r2, [r3, #0]
 800198c:	605a      	str	r2, [r3, #4]
 800198e:	609a      	str	r2, [r3, #8]
 8001990:	60da      	str	r2, [r3, #12]
	sConfig.Channel = channel;
 8001992:	687b      	ldr	r3, [r7, #4]
 8001994:	60bb      	str	r3, [r7, #8]
	sConfig.Rank = 1;
 8001996:	2301      	movs	r3, #1
 8001998:	60fb      	str	r3, [r7, #12]
	sConfig.SamplingTime = ADC_SAMPLETIME_480CYCLES;
 800199a:	2307      	movs	r3, #7
 800199c:	613b      	str	r3, [r7, #16]

	if (HAL_ADC_ConfigChannel(&hadc1, &sConfig) != HAL_OK)
 800199e:	f107 0308 	add.w	r3, r7, #8
 80019a2:	4619      	mov	r1, r3
 80019a4:	480b      	ldr	r0, [pc, #44]	@ (80019d4 <FEB_Read_ADC1+0x58>)
 80019a6:	f001 f961 	bl	8002c6c <HAL_ADC_ConfigChannel>
 80019aa:	4603      	mov	r3, r0
 80019ac:	2b00      	cmp	r3, #0
 80019ae:	d001      	beq.n	80019b4 <FEB_Read_ADC1+0x38>
	{
	   Error_Handler();
 80019b0:	f000 fc5c 	bl	800226c <Error_Handler>
	}

	HAL_ADC_Start(&hadc1);
 80019b4:	4807      	ldr	r0, [pc, #28]	@ (80019d4 <FEB_Read_ADC1+0x58>)
 80019b6:	f000 ffef 	bl	8002998 <HAL_ADC_Start>
	HAL_ADC_PollForConversion(&hadc1, 100);
 80019ba:	2164      	movs	r1, #100	@ 0x64
 80019bc:	4805      	ldr	r0, [pc, #20]	@ (80019d4 <FEB_Read_ADC1+0x58>)
 80019be:	f001 f8bd 	bl	8002b3c <HAL_ADC_PollForConversion>
	return (uint16_t)HAL_ADC_GetValue(&hadc1);
 80019c2:	4804      	ldr	r0, [pc, #16]	@ (80019d4 <FEB_Read_ADC1+0x58>)
 80019c4:	f001 f945 	bl	8002c52 <HAL_ADC_GetValue>
 80019c8:	4603      	mov	r3, r0
 80019ca:	b29b      	uxth	r3, r3

}
 80019cc:	4618      	mov	r0, r3
 80019ce:	3718      	adds	r7, #24
 80019d0:	46bd      	mov	sp, r7
 80019d2:	bd80      	pop	{r7, pc}
 80019d4:	20000270 	.word	0x20000270

080019d8 <FEB_HECS_update>:

void FEB_HECS_update(){
 80019d8:	b580      	push	{r7, lr}
 80019da:	b0a2      	sub	sp, #136	@ 0x88
 80019dc:	af00      	add	r7, sp, #0
	uint16_t current_value = FEB_Read_ADC1(HECS_SIGNAL);
 80019de:	200b      	movs	r0, #11
 80019e0:	f7ff ffcc 	bl	800197c <FEB_Read_ADC1>
 80019e4:	4603      	mov	r3, r0
 80019e6:	f8a7 3086 	strh.w	r3, [r7, #134]	@ 0x86
	char buf[128];
	uint8_t buf_len;
	buf_len = sprintf(buf, "HECS Current:%d\n", current_value);
 80019ea:	f8b7 2086 	ldrh.w	r2, [r7, #134]	@ 0x86
 80019ee:	1d3b      	adds	r3, r7, #4
 80019f0:	4912      	ldr	r1, [pc, #72]	@ (8001a3c <FEB_HECS_update+0x64>)
 80019f2:	4618      	mov	r0, r3
 80019f4:	f004 fd6e 	bl	80064d4 <siprintf>
 80019f8:	4603      	mov	r3, r0
 80019fa:	f887 3085 	strb.w	r3, [r7, #133]	@ 0x85
	HAL_UART_Transmit(&huart2, buf, strlen(buf), HAL_MAX_DELAY);
 80019fe:	1d3b      	adds	r3, r7, #4
 8001a00:	4618      	mov	r0, r3
 8001a02:	f7fe fc55 	bl	80002b0 <strlen>
 8001a06:	4603      	mov	r3, r0
 8001a08:	b29a      	uxth	r2, r3
 8001a0a:	1d39      	adds	r1, r7, #4
 8001a0c:	f04f 33ff 	mov.w	r3, #4294967295	@ 0xffffffff
 8001a10:	480b      	ldr	r0, [pc, #44]	@ (8001a40 <FEB_HECS_update+0x68>)
 8001a12:	f003 fd4b 	bl	80054ac <HAL_UART_Transmit>

	if (current_value >= HECS_CURRENT){ //checks if current is above value (to be determined)
 8001a16:	f8b7 3086 	ldrh.w	r3, [r7, #134]	@ 0x86
 8001a1a:	f5b3 6f3d 	cmp.w	r3, #3024	@ 0xbd0
 8001a1e:	d903      	bls.n	8001a28 <FEB_HECS_update+0x50>
		currHigh = true;
 8001a20:	4b08      	ldr	r3, [pc, #32]	@ (8001a44 <FEB_HECS_update+0x6c>)
 8001a22:	2201      	movs	r2, #1
 8001a24:	701a      	strb	r2, [r3, #0]
 8001a26:	e002      	b.n	8001a2e <FEB_HECS_update+0x56>
	}else{
		currHigh = false;
 8001a28:	4b06      	ldr	r3, [pc, #24]	@ (8001a44 <FEB_HECS_update+0x6c>)
 8001a2a:	2200      	movs	r2, #0
 8001a2c:	701a      	strb	r2, [r3, #0]
	}
	FEB_HECS_indicate();
 8001a2e:	f000 f80b 	bl	8001a48 <FEB_HECS_indicate>
}
 8001a32:	bf00      	nop
 8001a34:	3788      	adds	r7, #136	@ 0x88
 8001a36:	46bd      	mov	sp, r7
 8001a38:	bd80      	pop	{r7, pc}
 8001a3a:	bf00      	nop
 8001a3c:	0800978c 	.word	0x0800978c
 8001a40:	20000334 	.word	0x20000334
 8001a44:	20000260 	.word	0x20000260

08001a48 <FEB_HECS_indicate>:

void FEB_HECS_indicate(){ //sends GPIO output to HECS Indicator
 8001a48:	b580      	push	{r7, lr}
 8001a4a:	af00      	add	r7, sp, #0
	if (currHigh == true){
 8001a4c:	4b08      	ldr	r3, [pc, #32]	@ (8001a70 <FEB_HECS_indicate+0x28>)
 8001a4e:	781b      	ldrb	r3, [r3, #0]
 8001a50:	2b00      	cmp	r3, #0
 8001a52:	d005      	beq.n	8001a60 <FEB_HECS_indicate+0x18>

		HAL_GPIO_WritePin(GPIOA, GPIO_PIN_5, GPIO_PIN_SET); // sets GPIO PA5 to high
 8001a54:	2201      	movs	r2, #1
 8001a56:	2120      	movs	r1, #32
 8001a58:	4806      	ldr	r0, [pc, #24]	@ (8001a74 <FEB_HECS_indicate+0x2c>)
 8001a5a:	f002 fd41 	bl	80044e0 <HAL_GPIO_WritePin>

	}else{
		HAL_GPIO_WritePin(GPIOA, GPIO_PIN_5, GPIO_PIN_RESET); //sets GPIPO PA5 to low
	}
//	HAL_Delay(1000);
}
 8001a5e:	e004      	b.n	8001a6a <FEB_HECS_indicate+0x22>
		HAL_GPIO_WritePin(GPIOA, GPIO_PIN_5, GPIO_PIN_RESET); //sets GPIPO PA5 to low
 8001a60:	2200      	movs	r2, #0
 8001a62:	2120      	movs	r1, #32
 8001a64:	4803      	ldr	r0, [pc, #12]	@ (8001a74 <FEB_HECS_indicate+0x2c>)
 8001a66:	f002 fd3b 	bl	80044e0 <HAL_GPIO_WritePin>
}
 8001a6a:	bf00      	nop
 8001a6c:	bd80      	pop	{r7, pc}
 8001a6e:	bf00      	nop
 8001a70:	20000260 	.word	0x20000260
 8001a74:	40020000 	.word	0x40020000

08001a78 <FEB_Main_Setup>:
char buf[128];
uint8_t buf_len; //stolen from Main_Setup (SN2)

// ********************************** Functions **********************************

void FEB_Main_Setup(void){
 8001a78:	b580      	push	{r7, lr}
 8001a7a:	af00      	add	r7, sp, #0
	HAL_ADCEx_InjectedStart(&hadc1); //@lovehate - where does this go
 8001a7c:	4804      	ldr	r0, [pc, #16]	@ (8001a90 <FEB_Main_Setup+0x18>)
 8001a7e:	f001 fb23 	bl	80030c8 <HAL_ADCEx_InjectedStart>
//	FEB_Timer_Init();
//	FEB_TPS2482_Setup();
	FEB_CAN_Init(); //FEB_CAN_Init() // The transceiver must be connected otherwise you get sent into an infinite loop
 8001a82:	f7ff fa79 	bl	8000f78 <FEB_CAN_Init>
	FEB_CAN_RMS_Setup();
 8001a86:	f7ff fbb9 	bl	80011fc <FEB_CAN_RMS_Setup>
}
 8001a8a:	bf00      	nop
 8001a8c:	bd80      	pop	{r7, pc}
 8001a8e:	bf00      	nop
 8001a90:	20000270 	.word	0x20000270

08001a94 <FEB_Main_While>:

void FEB_Main_While(void){
 8001a94:	b580      	push	{r7, lr}
 8001a96:	b082      	sub	sp, #8
 8001a98:	af00      	add	r7, sp, #0
//	FEB_CAN_ICS_Transmit();
//
	FEB_SM_ST_t bms_state = FEB_CAN_BMS_getState();
 8001a9a:	f7ff fb37 	bl	800110c <FEB_CAN_BMS_getState>
 8001a9e:	4603      	mov	r3, r0
 8001aa0:	71fb      	strb	r3, [r7, #7]


	if (FEB_Ready_To_Drive() && (bms_state == FEB_SM_ST_DRIVE || bms_state == FEB_SM_ST_DRIVE_REGEN)) {
 8001aa2:	f7ff fb9f 	bl	80011e4 <FEB_Ready_To_Drive>
 8001aa6:	4603      	mov	r3, r0
 8001aa8:	2b00      	cmp	r3, #0
 8001aaa:	d00a      	beq.n	8001ac2 <FEB_Main_While+0x2e>
 8001aac:	79fb      	ldrb	r3, [r7, #7]
 8001aae:	2b06      	cmp	r3, #6
 8001ab0:	d002      	beq.n	8001ab8 <FEB_Main_While+0x24>
 8001ab2:	79fb      	ldrb	r3, [r7, #7]
 8001ab4:	2b07      	cmp	r3, #7
 8001ab6:	d104      	bne.n	8001ac2 <FEB_Main_While+0x2e>
		FEB_Normalized_updateAcc();
 8001ab8:	f000 f84c 	bl	8001b54 <FEB_Normalized_updateAcc>
		FEB_CAN_RMS_Process();
 8001abc:	f7ff fbae 	bl	800121c <FEB_CAN_RMS_Process>
 8001ac0:	e003      	b.n	8001aca <FEB_Main_While+0x36>
	} else {
		FEB_Normalized_setAcc0();
 8001ac2:	f000 f839 	bl	8001b38 <FEB_Normalized_setAcc0>
		FEB_CAN_RMS_Disable();
 8001ac6:	f7ff fbb9 	bl	800123c <FEB_CAN_RMS_Disable>
	}
	FEB_HECS_update();
 8001aca:	f7ff ff85 	bl	80019d8 <FEB_HECS_update>

	FEB_CAN_RMS_Torque();
 8001ace:	f7ff fe43 	bl	8001758 <FEB_CAN_RMS_Torque>
	FEB_Normalized_CAN_sendBrake();
 8001ad2:	f000 f993 	bl	8001dfc <FEB_Normalized_CAN_sendBrake>

	HAL_Delay(10);
 8001ad6:	200a      	movs	r0, #10
 8001ad8:	f000 fef6 	bl	80028c8 <HAL_Delay>
}
 8001adc:	bf00      	nop
 8001ade:	3708      	adds	r7, #8
 8001ae0:	46bd      	mov	sp, r7
 8001ae2:	bd80      	pop	{r7, pc}

08001ae4 <FEB_Read_ADC>:
float normalized_brake;
bool isImpl = false;

// **************************************** Functions ****************************************

uint16_t FEB_Read_ADC(uint32_t channel){
 8001ae4:	b580      	push	{r7, lr}
 8001ae6:	b086      	sub	sp, #24
 8001ae8:	af00      	add	r7, sp, #0
 8001aea:	6078      	str	r0, [r7, #4]
	ADC_ChannelConfTypeDef sConfig={0};
 8001aec:	f107 0308 	add.w	r3, r7, #8
 8001af0:	2200      	movs	r2, #0
 8001af2:	601a      	str	r2, [r3, #0]
 8001af4:	605a      	str	r2, [r3, #4]
 8001af6:	609a      	str	r2, [r3, #8]
 8001af8:	60da      	str	r2, [r3, #12]
	sConfig.Channel = channel;
 8001afa:	687b      	ldr	r3, [r7, #4]
 8001afc:	60bb      	str	r3, [r7, #8]
	sConfig.Rank = 1;
 8001afe:	2301      	movs	r3, #1
 8001b00:	60fb      	str	r3, [r7, #12]
	sConfig.SamplingTime = ADC_SAMPLETIME_480CYCLES;
 8001b02:	2307      	movs	r3, #7
 8001b04:	613b      	str	r3, [r7, #16]

	if (HAL_ADC_ConfigChannel(&hadc1, &sConfig) != HAL_OK)
 8001b06:	f107 0308 	add.w	r3, r7, #8
 8001b0a:	4619      	mov	r1, r3
 8001b0c:	4809      	ldr	r0, [pc, #36]	@ (8001b34 <FEB_Read_ADC+0x50>)
 8001b0e:	f001 f8ad 	bl	8002c6c <HAL_ADC_ConfigChannel>
	{
//	   Error_Handler();
	}

	HAL_ADC_Start(&hadc1);
 8001b12:	4808      	ldr	r0, [pc, #32]	@ (8001b34 <FEB_Read_ADC+0x50>)
 8001b14:	f000 ff40 	bl	8002998 <HAL_ADC_Start>
	HAL_ADC_PollForConversion(&hadc1, 100);
 8001b18:	2164      	movs	r1, #100	@ 0x64
 8001b1a:	4806      	ldr	r0, [pc, #24]	@ (8001b34 <FEB_Read_ADC+0x50>)
 8001b1c:	f001 f80e 	bl	8002b3c <HAL_ADC_PollForConversion>
	return (uint16_t)HAL_ADC_GetValue(&hadc1);
 8001b20:	4804      	ldr	r0, [pc, #16]	@ (8001b34 <FEB_Read_ADC+0x50>)
 8001b22:	f001 f896 	bl	8002c52 <HAL_ADC_GetValue>
 8001b26:	4603      	mov	r3, r0
 8001b28:	b29b      	uxth	r3, r3

}
 8001b2a:	4618      	mov	r0, r3
 8001b2c:	3718      	adds	r7, #24
 8001b2e:	46bd      	mov	sp, r7
 8001b30:	bd80      	pop	{r7, pc}
 8001b32:	bf00      	nop
 8001b34:	20000270 	.word	0x20000270

08001b38 <FEB_Normalized_setAcc0>:

float FEB_Normalized_getAcc(){
	return normalized_acc;
}

void FEB_Normalized_setAcc0(){
 8001b38:	b480      	push	{r7}
 8001b3a:	af00      	add	r7, sp, #0
	normalized_acc = 0.0;
 8001b3c:	4b04      	ldr	r3, [pc, #16]	@ (8001b50 <FEB_Normalized_setAcc0+0x18>)
 8001b3e:	f04f 0200 	mov.w	r2, #0
 8001b42:	601a      	str	r2, [r3, #0]
}
 8001b44:	bf00      	nop
 8001b46:	46bd      	mov	sp, r7
 8001b48:	f85d 7b04 	ldr.w	r7, [sp], #4
 8001b4c:	4770      	bx	lr
 8001b4e:	bf00      	nop
 8001b50:	20000264 	.word	0x20000264

08001b54 <FEB_Normalized_updateAcc>:
	char buf1[128];
	sprintf(buf1, "[SENSOR] Brake Position: %d.%d%%\n", brake_pedal_position_int1, brake_pedal_position_int2);
	HAL_UART_Transmit(&huart2,(uint8_t *)buf1, strlen(buf1), HAL_MAX_DELAY);
}

void FEB_Normalized_updateAcc(){
 8001b54:	b580      	push	{r7, lr}
 8001b56:	b0a2      	sub	sp, #136	@ 0x88
 8001b58:	af00      	add	r7, sp, #0
	normalized_acc = FEB_Normalized_Acc_Pedals();
 8001b5a:	f000 f829 	bl	8001bb0 <FEB_Normalized_Acc_Pedals>
 8001b5e:	eef0 7a40 	vmov.f32	s15, s0
 8001b62:	4b0f      	ldr	r3, [pc, #60]	@ (8001ba0 <FEB_Normalized_updateAcc+0x4c>)
 8001b64:	edc3 7a00 	vstr	s15, [r3]

	char buf[128];
	uint8_t buf_len;
	buf_len = sprintf(buf, "normalized_acc: %f\n", normalized_acc);
 8001b68:	4b0d      	ldr	r3, [pc, #52]	@ (8001ba0 <FEB_Normalized_updateAcc+0x4c>)
 8001b6a:	681b      	ldr	r3, [r3, #0]
 8001b6c:	4618      	mov	r0, r3
 8001b6e:	f7fe fd0b 	bl	8000588 <__aeabi_f2d>
 8001b72:	4602      	mov	r2, r0
 8001b74:	460b      	mov	r3, r1
 8001b76:	1d38      	adds	r0, r7, #4
 8001b78:	490a      	ldr	r1, [pc, #40]	@ (8001ba4 <FEB_Normalized_updateAcc+0x50>)
 8001b7a:	f004 fcab 	bl	80064d4 <siprintf>
 8001b7e:	4603      	mov	r3, r0
 8001b80:	f887 3087 	strb.w	r3, [r7, #135]	@ 0x87
	HAL_UART_Transmit(&huart2,(uint8_t *)buf, buf_len, HAL_MAX_DELAY);
 8001b84:	f897 3087 	ldrb.w	r3, [r7, #135]	@ 0x87
 8001b88:	b29a      	uxth	r2, r3
 8001b8a:	1d39      	adds	r1, r7, #4
 8001b8c:	f04f 33ff 	mov.w	r3, #4294967295	@ 0xffffffff
 8001b90:	4805      	ldr	r0, [pc, #20]	@ (8001ba8 <FEB_Normalized_updateAcc+0x54>)
 8001b92:	f003 fc8b 	bl	80054ac <HAL_UART_Transmit>

}
 8001b96:	bf00      	nop
 8001b98:	3788      	adds	r7, #136	@ 0x88
 8001b9a:	46bd      	mov	sp, r7
 8001b9c:	bd80      	pop	{r7, pc}
 8001b9e:	bf00      	nop
 8001ba0:	20000264 	.word	0x20000264
 8001ba4:	08009898 	.word	0x08009898
 8001ba8:	20000334 	.word	0x20000334
 8001bac:	00000000 	.word	0x00000000

08001bb0 <FEB_Normalized_Acc_Pedals>:

float FEB_Normalized_Acc_Pedals() {
 8001bb0:	b580      	push	{r7, lr}
 8001bb2:	b0a6      	sub	sp, #152	@ 0x98
 8001bb4:	af00      	add	r7, sp, #0
	// raw ADC readings of the two acc pedal sensors
	uint16_t acc_pedal_1 = FEB_Read_ADC(ACC_PEDAL_1);
 8001bb6:	2001      	movs	r0, #1
 8001bb8:	f7ff ff94 	bl	8001ae4 <FEB_Read_ADC>
 8001bbc:	4603      	mov	r3, r0
 8001bbe:	f8a7 3096 	strh.w	r3, [r7, #150]	@ 0x96
	uint16_t acc_pedal_2 = FEB_Read_ADC(ACC_PEDAL_2);
 8001bc2:	2000      	movs	r0, #0
 8001bc4:	f7ff ff8e 	bl	8001ae4 <FEB_Read_ADC>
 8001bc8:	4603      	mov	r3, r0
 8001bca:	f8a7 3094 	strh.w	r3, [r7, #148]	@ 0x94
	char buf[128];
	uint8_t buf_len;
	buf_len = sprintf(buf, "acc1:%d acc2:%d\n", acc_pedal_1, acc_pedal_2);
 8001bce:	f8b7 2096 	ldrh.w	r2, [r7, #150]	@ 0x96
 8001bd2:	f8b7 3094 	ldrh.w	r3, [r7, #148]	@ 0x94
 8001bd6:	1d38      	adds	r0, r7, #4
 8001bd8:	497b      	ldr	r1, [pc, #492]	@ (8001dc8 <FEB_Normalized_Acc_Pedals+0x218>)
 8001bda:	f004 fc7b 	bl	80064d4 <siprintf>
 8001bde:	4603      	mov	r3, r0
 8001be0:	f887 3093 	strb.w	r3, [r7, #147]	@ 0x93
//	HAL_UART_Transmit(&huart2,(uint8_t *)buf, buf_len, HAL_MAX_DELAY);


	// check implausibility for shorting. TODO: check if this fulfills the short circuiting rules.
	if (acc_pedal_1 < ACC_PEDAL_1_END - 20 || acc_pedal_1 > ACC_PEDAL_1_START + 20
 8001be4:	f8b7 3096 	ldrh.w	r3, [r7, #150]	@ 0x96
 8001be8:	f240 5233 	movw	r2, #1331	@ 0x533
 8001bec:	4293      	cmp	r3, r2
 8001bee:	d910      	bls.n	8001c12 <FEB_Normalized_Acc_Pedals+0x62>
 8001bf0:	f8b7 3096 	ldrh.w	r3, [r7, #150]	@ 0x96
 8001bf4:	f240 6201 	movw	r2, #1537	@ 0x601
 8001bf8:	4293      	cmp	r3, r2
 8001bfa:	d80a      	bhi.n	8001c12 <FEB_Normalized_Acc_Pedals+0x62>
			|| acc_pedal_2 < ACC_PEDAL_2_START - 50 || acc_pedal_2 > ACC_PEDAL_2_END + 50) {
 8001bfc:	f8b7 3094 	ldrh.w	r3, [r7, #148]	@ 0x94
 8001c00:	f240 3201 	movw	r2, #769	@ 0x301
 8001c04:	4293      	cmp	r3, r2
 8001c06:	d904      	bls.n	8001c12 <FEB_Normalized_Acc_Pedals+0x62>
 8001c08:	f8b7 3094 	ldrh.w	r3, [r7, #148]	@ 0x94
 8001c0c:	f5b3 6fe8 	cmp.w	r3, #1856	@ 0x740
 8001c10:	d905      	bls.n	8001c1e <FEB_Normalized_Acc_Pedals+0x6e>
		isImpl = true;
 8001c12:	4b6e      	ldr	r3, [pc, #440]	@ (8001dcc <FEB_Normalized_Acc_Pedals+0x21c>)
 8001c14:	2201      	movs	r2, #1
 8001c16:	701a      	strb	r2, [r3, #0]
		return 0.0;
 8001c18:	f04f 0300 	mov.w	r3, #0
 8001c1c:	e0b7      	b.n	8001d8e <FEB_Normalized_Acc_Pedals+0x1de>
	}

	//convert to % travel
	// sensor 1 has positive slope
	float ped1_normalized = (acc_pedal_1 - ACC_PEDAL_1_START)/ (ACC_PEDAL_1_END - ACC_PEDAL_1_START);
 8001c1e:	f8b7 3096 	ldrh.w	r3, [r7, #150]	@ 0x96
 8001c22:	4618      	mov	r0, r3
 8001c24:	f7fe fc9e 	bl	8000564 <__aeabi_i2d>
 8001c28:	a35d      	add	r3, pc, #372	@ (adr r3, 8001da0 <FEB_Normalized_Acc_Pedals+0x1f0>)
 8001c2a:	e9d3 2300 	ldrd	r2, r3, [r3]
 8001c2e:	f7fe fb4b 	bl	80002c8 <__aeabi_dsub>
 8001c32:	4602      	mov	r2, r0
 8001c34:	460b      	mov	r3, r1
 8001c36:	4610      	mov	r0, r2
 8001c38:	4619      	mov	r1, r3
 8001c3a:	a35b      	add	r3, pc, #364	@ (adr r3, 8001da8 <FEB_Normalized_Acc_Pedals+0x1f8>)
 8001c3c:	e9d3 2300 	ldrd	r2, r3, [r3]
 8001c40:	f7fe fe24 	bl	800088c <__aeabi_ddiv>
 8001c44:	4602      	mov	r2, r0
 8001c46:	460b      	mov	r3, r1
 8001c48:	4610      	mov	r0, r2
 8001c4a:	4619      	mov	r1, r3
 8001c4c:	f7fe ffcc 	bl	8000be8 <__aeabi_d2f>
 8001c50:	4603      	mov	r3, r0
 8001c52:	f8c7 308c 	str.w	r3, [r7, #140]	@ 0x8c
	// sensor 2 has negative slope
	float ped2_normalized = (acc_pedal_2 - ACC_PEDAL_2_START) / (ACC_PEDAL_2_END - ACC_PEDAL_2_START);
 8001c56:	f8b7 3094 	ldrh.w	r3, [r7, #148]	@ 0x94
 8001c5a:	4618      	mov	r0, r3
 8001c5c:	f7fe fc82 	bl	8000564 <__aeabi_i2d>
 8001c60:	f04f 0200 	mov.w	r2, #0
 8001c64:	4b5a      	ldr	r3, [pc, #360]	@ (8001dd0 <FEB_Normalized_Acc_Pedals+0x220>)
 8001c66:	f7fe fb2f 	bl	80002c8 <__aeabi_dsub>
 8001c6a:	4602      	mov	r2, r0
 8001c6c:	460b      	mov	r3, r1
 8001c6e:	4610      	mov	r0, r2
 8001c70:	4619      	mov	r1, r3
 8001c72:	f04f 0200 	mov.w	r2, #0
 8001c76:	4b57      	ldr	r3, [pc, #348]	@ (8001dd4 <FEB_Normalized_Acc_Pedals+0x224>)
 8001c78:	f7fe fe08 	bl	800088c <__aeabi_ddiv>
 8001c7c:	4602      	mov	r2, r0
 8001c7e:	460b      	mov	r3, r1
 8001c80:	4610      	mov	r0, r2
 8001c82:	4619      	mov	r1, r3
 8001c84:	f7fe ffb0 	bl	8000be8 <__aeabi_d2f>
 8001c88:	4603      	mov	r3, r0
 8001c8a:	f8c7 3088 	str.w	r3, [r7, #136]	@ 0x88

	// sensor measurements mismatch by more than 10%
	if(abs(ped1_normalized - ped2_normalized) > 0.1 ){
 8001c8e:	ed97 7a23 	vldr	s14, [r7, #140]	@ 0x8c
 8001c92:	edd7 7a22 	vldr	s15, [r7, #136]	@ 0x88
 8001c96:	ee77 7a67 	vsub.f32	s15, s14, s15
 8001c9a:	eefd 7ae7 	vcvt.s32.f32	s15, s15
 8001c9e:	ee17 3a90 	vmov	r3, s15
 8001ca2:	2b00      	cmp	r3, #0
 8001ca4:	bfb8      	it	lt
 8001ca6:	425b      	neglt	r3, r3
 8001ca8:	2b00      	cmp	r3, #0
 8001caa:	dd05      	ble.n	8001cb8 <FEB_Normalized_Acc_Pedals+0x108>
		isImpl = true;
 8001cac:	4b47      	ldr	r3, [pc, #284]	@ (8001dcc <FEB_Normalized_Acc_Pedals+0x21c>)
 8001cae:	2201      	movs	r2, #1
 8001cb0:	701a      	strb	r2, [r3, #0]
		return 0.0;
 8001cb2:	f04f 0300 	mov.w	r3, #0
 8001cb6:	e06a      	b.n	8001d8e <FEB_Normalized_Acc_Pedals+0x1de>
	}

	float final_normalized = 0.5*(ped1_normalized + ped2_normalized);
 8001cb8:	ed97 7a23 	vldr	s14, [r7, #140]	@ 0x8c
 8001cbc:	edd7 7a22 	vldr	s15, [r7, #136]	@ 0x88
 8001cc0:	ee77 7a27 	vadd.f32	s15, s14, s15
 8001cc4:	eeb6 7a00 	vmov.f32	s14, #96	@ 0x3f000000  0.5
 8001cc8:	ee67 7a87 	vmul.f32	s15, s15, s14
 8001ccc:	edc7 7a21 	vstr	s15, [r7, #132]	@ 0x84


//	 Implausiblity check if both pedals are stepped
	if (normalized_brake > 0.2 && normalized_acc > 0.1) {
 8001cd0:	4b41      	ldr	r3, [pc, #260]	@ (8001dd8 <FEB_Normalized_Acc_Pedals+0x228>)
 8001cd2:	681b      	ldr	r3, [r3, #0]
 8001cd4:	4618      	mov	r0, r3
 8001cd6:	f7fe fc57 	bl	8000588 <__aeabi_f2d>
 8001cda:	a335      	add	r3, pc, #212	@ (adr r3, 8001db0 <FEB_Normalized_Acc_Pedals+0x200>)
 8001cdc:	e9d3 2300 	ldrd	r2, r3, [r3]
 8001ce0:	f7fe ff3a 	bl	8000b58 <__aeabi_dcmpgt>
 8001ce4:	4603      	mov	r3, r0
 8001ce6:	2b00      	cmp	r3, #0
 8001ce8:	d00f      	beq.n	8001d0a <FEB_Normalized_Acc_Pedals+0x15a>
 8001cea:	4b3c      	ldr	r3, [pc, #240]	@ (8001ddc <FEB_Normalized_Acc_Pedals+0x22c>)
 8001cec:	681b      	ldr	r3, [r3, #0]
 8001cee:	4618      	mov	r0, r3
 8001cf0:	f7fe fc4a 	bl	8000588 <__aeabi_f2d>
 8001cf4:	a330      	add	r3, pc, #192	@ (adr r3, 8001db8 <FEB_Normalized_Acc_Pedals+0x208>)
 8001cf6:	e9d3 2300 	ldrd	r2, r3, [r3]
 8001cfa:	f7fe ff2d 	bl	8000b58 <__aeabi_dcmpgt>
 8001cfe:	4603      	mov	r3, r0
 8001d00:	2b00      	cmp	r3, #0
 8001d02:	d002      	beq.n	8001d0a <FEB_Normalized_Acc_Pedals+0x15a>
		isImpl = true;
 8001d04:	4b31      	ldr	r3, [pc, #196]	@ (8001dcc <FEB_Normalized_Acc_Pedals+0x21c>)
 8001d06:	2201      	movs	r2, #1
 8001d08:	701a      	strb	r2, [r3, #0]
	}

	// recover from implausibility if acc pedal is not 5% less
	if (final_normalized < 0.05 && isImpl) {
 8001d0a:	f8d7 0084 	ldr.w	r0, [r7, #132]	@ 0x84
 8001d0e:	f7fe fc3b 	bl	8000588 <__aeabi_f2d>
 8001d12:	a32b      	add	r3, pc, #172	@ (adr r3, 8001dc0 <FEB_Normalized_Acc_Pedals+0x210>)
 8001d14:	e9d3 2300 	ldrd	r2, r3, [r3]
 8001d18:	f7fe ff00 	bl	8000b1c <__aeabi_dcmplt>
 8001d1c:	4603      	mov	r3, r0
 8001d1e:	2b00      	cmp	r3, #0
 8001d20:	d006      	beq.n	8001d30 <FEB_Normalized_Acc_Pedals+0x180>
 8001d22:	4b2a      	ldr	r3, [pc, #168]	@ (8001dcc <FEB_Normalized_Acc_Pedals+0x21c>)
 8001d24:	781b      	ldrb	r3, [r3, #0]
 8001d26:	2b00      	cmp	r3, #0
 8001d28:	d002      	beq.n	8001d30 <FEB_Normalized_Acc_Pedals+0x180>
		isImpl = false;
 8001d2a:	4b28      	ldr	r3, [pc, #160]	@ (8001dcc <FEB_Normalized_Acc_Pedals+0x21c>)
 8001d2c:	2200      	movs	r2, #0
 8001d2e:	701a      	strb	r2, [r3, #0]
	}

	if (!isImpl) {
 8001d30:	4b26      	ldr	r3, [pc, #152]	@ (8001dcc <FEB_Normalized_Acc_Pedals+0x21c>)
 8001d32:	781b      	ldrb	r3, [r3, #0]
 8001d34:	f083 0301 	eor.w	r3, r3, #1
 8001d38:	b2db      	uxtb	r3, r3
 8001d3a:	2b00      	cmp	r3, #0
 8001d3c:	d025      	beq.n	8001d8a <FEB_Normalized_Acc_Pedals+0x1da>
		final_normalized = final_normalized > 1 ? 1 : final_normalized;
 8001d3e:	edd7 7a21 	vldr	s15, [r7, #132]	@ 0x84
 8001d42:	eeb7 7a00 	vmov.f32	s14, #112	@ 0x3f800000  1.0
 8001d46:	eef4 7ac7 	vcmpe.f32	s15, s14
 8001d4a:	eef1 fa10 	vmrs	APSR_nzcv, fpscr
 8001d4e:	dd02      	ble.n	8001d56 <FEB_Normalized_Acc_Pedals+0x1a6>
 8001d50:	f04f 537e 	mov.w	r3, #1065353216	@ 0x3f800000
 8001d54:	e001      	b.n	8001d5a <FEB_Normalized_Acc_Pedals+0x1aa>
 8001d56:	f8d7 3084 	ldr.w	r3, [r7, #132]	@ 0x84
 8001d5a:	f8c7 3084 	str.w	r3, [r7, #132]	@ 0x84
		final_normalized = final_normalized < 0.05 ? 0 : final_normalized;
 8001d5e:	f8d7 0084 	ldr.w	r0, [r7, #132]	@ 0x84
 8001d62:	f7fe fc11 	bl	8000588 <__aeabi_f2d>
 8001d66:	a316      	add	r3, pc, #88	@ (adr r3, 8001dc0 <FEB_Normalized_Acc_Pedals+0x210>)
 8001d68:	e9d3 2300 	ldrd	r2, r3, [r3]
 8001d6c:	f7fe fed6 	bl	8000b1c <__aeabi_dcmplt>
 8001d70:	4603      	mov	r3, r0
 8001d72:	2b00      	cmp	r3, #0
 8001d74:	d002      	beq.n	8001d7c <FEB_Normalized_Acc_Pedals+0x1cc>
 8001d76:	f04f 0300 	mov.w	r3, #0
 8001d7a:	e001      	b.n	8001d80 <FEB_Normalized_Acc_Pedals+0x1d0>
 8001d7c:	f8d7 3084 	ldr.w	r3, [r7, #132]	@ 0x84
 8001d80:	f8c7 3084 	str.w	r3, [r7, #132]	@ 0x84
		return final_normalized;
 8001d84:	f8d7 3084 	ldr.w	r3, [r7, #132]	@ 0x84
 8001d88:	e001      	b.n	8001d8e <FEB_Normalized_Acc_Pedals+0x1de>
	} else {
		return 0.0;
 8001d8a:	f04f 0300 	mov.w	r3, #0
	}
}
 8001d8e:	ee07 3a90 	vmov	s15, r3
 8001d92:	eeb0 0a67 	vmov.f32	s0, s15
 8001d96:	3798      	adds	r7, #152	@ 0x98
 8001d98:	46bd      	mov	sp, r7
 8001d9a:	bd80      	pop	{r7, pc}
 8001d9c:	f3af 8000 	nop.w
 8001da0:	00000000 	.word	0x00000000
 8001da4:	4097b400 	.word	0x4097b400
 8001da8:	00000000 	.word	0x00000000
 8001dac:	c064a000 	.word	0xc064a000
 8001db0:	9999999a 	.word	0x9999999a
 8001db4:	3fc99999 	.word	0x3fc99999
 8001db8:	9999999a 	.word	0x9999999a
 8001dbc:	3fb99999 	.word	0x3fb99999
 8001dc0:	9999999a 	.word	0x9999999a
 8001dc4:	3fa99999 	.word	0x3fa99999
 8001dc8:	080098ac 	.word	0x080098ac
 8001dcc:	2000026c 	.word	0x2000026c
 8001dd0:	4089a000 	.word	0x4089a000
 8001dd4:	408ed000 	.word	0x408ed000
 8001dd8:	20000268 	.word	0x20000268
 8001ddc:	20000264 	.word	0x20000264

08001de0 <FEB_Normalized_getBrake>:

float FEB_Normalized_getBrake() {
 8001de0:	b480      	push	{r7}
 8001de2:	af00      	add	r7, sp, #0
	return normalized_brake;
 8001de4:	4b04      	ldr	r3, [pc, #16]	@ (8001df8 <FEB_Normalized_getBrake+0x18>)
 8001de6:	681b      	ldr	r3, [r3, #0]
 8001de8:	ee07 3a90 	vmov	s15, r3
}
 8001dec:	eeb0 0a67 	vmov.f32	s0, s15
 8001df0:	46bd      	mov	sp, r7
 8001df2:	f85d 7b04 	ldr.w	r7, [sp], #4
 8001df6:	4770      	bx	lr
 8001df8:	20000268 	.word	0x20000268

08001dfc <FEB_Normalized_CAN_sendBrake>:
	HAL_UART_Transmit(&huart2,(uint8_t *)buf, buf_len, HAL_MAX_DELAY);

	return final_normalized;
}

void FEB_Normalized_CAN_sendBrake() {
 8001dfc:	b580      	push	{r7, lr}
 8001dfe:	b0a4      	sub	sp, #144	@ 0x90
 8001e00:	af00      	add	r7, sp, #0
	// Initialize transmission header
	FEB_CAN_Tx_Header.DLC = 2;
 8001e02:	4b27      	ldr	r3, [pc, #156]	@ (8001ea0 <FEB_Normalized_CAN_sendBrake+0xa4>)
 8001e04:	2202      	movs	r2, #2
 8001e06:	611a      	str	r2, [r3, #16]
	FEB_CAN_Tx_Header.StdId = FEB_CAN_ID_APPS_BRAKE_PEDAL;
 8001e08:	4b25      	ldr	r3, [pc, #148]	@ (8001ea0 <FEB_Normalized_CAN_sendBrake+0xa4>)
 8001e0a:	2209      	movs	r2, #9
 8001e0c:	601a      	str	r2, [r3, #0]
	FEB_CAN_Tx_Header.IDE = CAN_ID_STD;
 8001e0e:	4b24      	ldr	r3, [pc, #144]	@ (8001ea0 <FEB_Normalized_CAN_sendBrake+0xa4>)
 8001e10:	2200      	movs	r2, #0
 8001e12:	609a      	str	r2, [r3, #8]
	FEB_CAN_Tx_Header.RTR = CAN_RTR_DATA;
 8001e14:	4b22      	ldr	r3, [pc, #136]	@ (8001ea0 <FEB_Normalized_CAN_sendBrake+0xa4>)
 8001e16:	2200      	movs	r2, #0
 8001e18:	60da      	str	r2, [r3, #12]
	FEB_CAN_Tx_Header.TransmitGlobalTime = DISABLE;
 8001e1a:	4b21      	ldr	r3, [pc, #132]	@ (8001ea0 <FEB_Normalized_CAN_sendBrake+0xa4>)
 8001e1c:	2200      	movs	r2, #0
 8001e1e:	751a      	strb	r2, [r3, #20]

	// Copy data to Tx buffer. This might be incorrect. It's possible you have to do some bit shifting
//	memcpy(FEB_CAN_Tx_Data, &normalized_brake, sizeof(float));
	uint8_t converted_brake_val = (uint8_t)(normalized_brake * 100);
 8001e20:	4b20      	ldr	r3, [pc, #128]	@ (8001ea4 <FEB_Normalized_CAN_sendBrake+0xa8>)
 8001e22:	edd3 7a00 	vldr	s15, [r3]
 8001e26:	ed9f 7a20 	vldr	s14, [pc, #128]	@ 8001ea8 <FEB_Normalized_CAN_sendBrake+0xac>
 8001e2a:	ee67 7a87 	vmul.f32	s15, s15, s14
 8001e2e:	eefc 7ae7 	vcvt.u32.f32	s15, s15
 8001e32:	edc7 7a01 	vstr	s15, [r7, #4]
 8001e36:	793b      	ldrb	r3, [r7, #4]
 8001e38:	f887 308f 	strb.w	r3, [r7, #143]	@ 0x8f

	FEB_CAN_Tx_Data[0] = converted_brake_val;
 8001e3c:	4a1b      	ldr	r2, [pc, #108]	@ (8001eac <FEB_Normalized_CAN_sendBrake+0xb0>)
 8001e3e:	f897 308f 	ldrb.w	r3, [r7, #143]	@ 0x8f
 8001e42:	7013      	strb	r3, [r2, #0]

	//Debug to see the position of the Brake position sensor


	// Delay until mailbox available
	while (HAL_CAN_GetTxMailboxesFreeLevel(&hcan1) == 0) {}
 8001e44:	bf00      	nop
 8001e46:	481a      	ldr	r0, [pc, #104]	@ (8001eb0 <FEB_Normalized_CAN_sendBrake+0xb4>)
 8001e48:	f001 fcf8 	bl	800383c <HAL_CAN_GetTxMailboxesFreeLevel>
 8001e4c:	4603      	mov	r3, r0
 8001e4e:	2b00      	cmp	r3, #0
 8001e50:	d0f9      	beq.n	8001e46 <FEB_Normalized_CAN_sendBrake+0x4a>
//
	// Add Tx data to mailbox
	if (HAL_CAN_AddTxMessage(&hcan1, &FEB_CAN_Tx_Header, FEB_CAN_Tx_Data, &FEB_CAN_Tx_Mailbox) != HAL_OK) {
 8001e52:	4b18      	ldr	r3, [pc, #96]	@ (8001eb4 <FEB_Normalized_CAN_sendBrake+0xb8>)
 8001e54:	4a15      	ldr	r2, [pc, #84]	@ (8001eac <FEB_Normalized_CAN_sendBrake+0xb0>)
 8001e56:	4912      	ldr	r1, [pc, #72]	@ (8001ea0 <FEB_Normalized_CAN_sendBrake+0xa4>)
 8001e58:	4815      	ldr	r0, [pc, #84]	@ (8001eb0 <FEB_Normalized_CAN_sendBrake+0xb4>)
 8001e5a:	f001 fc1f 	bl	800369c <HAL_CAN_AddTxMessage>
 8001e5e:	4603      	mov	r3, r0
 8001e60:	2b00      	cmp	r3, #0
 8001e62:	d018      	beq.n	8001e96 <FEB_Normalized_CAN_sendBrake+0x9a>
		//error - shutdown
		char buf[128];
		uint8_t buf_len;
		buf_len = sprintf(buf, "CAN MESSAGE FAIL TO SEND: %f\n", normalized_brake);
 8001e64:	4b0f      	ldr	r3, [pc, #60]	@ (8001ea4 <FEB_Normalized_CAN_sendBrake+0xa8>)
 8001e66:	681b      	ldr	r3, [r3, #0]
 8001e68:	4618      	mov	r0, r3
 8001e6a:	f7fe fb8d 	bl	8000588 <__aeabi_f2d>
 8001e6e:	4602      	mov	r2, r0
 8001e70:	460b      	mov	r3, r1
 8001e72:	f107 000c 	add.w	r0, r7, #12
 8001e76:	4910      	ldr	r1, [pc, #64]	@ (8001eb8 <FEB_Normalized_CAN_sendBrake+0xbc>)
 8001e78:	f004 fb2c 	bl	80064d4 <siprintf>
 8001e7c:	4603      	mov	r3, r0
 8001e7e:	f887 308e 	strb.w	r3, [r7, #142]	@ 0x8e
		HAL_UART_Transmit(&huart2,(uint8_t *)buf, buf_len, HAL_MAX_DELAY);
 8001e82:	f897 308e 	ldrb.w	r3, [r7, #142]	@ 0x8e
 8001e86:	b29a      	uxth	r2, r3
 8001e88:	f107 010c 	add.w	r1, r7, #12
 8001e8c:	f04f 33ff 	mov.w	r3, #4294967295	@ 0xffffffff
 8001e90:	480a      	ldr	r0, [pc, #40]	@ (8001ebc <FEB_Normalized_CAN_sendBrake+0xc0>)
 8001e92:	f003 fb0b 	bl	80054ac <HAL_UART_Transmit>
	}

}
 8001e96:	bf00      	nop
 8001e98:	3790      	adds	r7, #144	@ 0x90
 8001e9a:	46bd      	mov	sp, r7
 8001e9c:	bd80      	pop	{r7, pc}
 8001e9e:	bf00      	nop
 8001ea0:	20000204 	.word	0x20000204
 8001ea4:	20000268 	.word	0x20000268
 8001ea8:	42c80000 	.word	0x42c80000
 8001eac:	20000238 	.word	0x20000238
 8001eb0:	200002b8 	.word	0x200002b8
 8001eb4:	20000248 	.word	0x20000248
 8001eb8:	080098d0 	.word	0x080098d0
 8001ebc:	20000334 	.word	0x20000334

08001ec0 <main>:
/**
  * @brief  The application entry point.
  * @retval int
  */
int main(void)
{
 8001ec0:	b580      	push	{r7, lr}
 8001ec2:	af00      	add	r7, sp, #0
  /* USER CODE END 1 */

  /* MCU Configuration--------------------------------------------------------*/

  /* Reset of all peripherals, Initializes the Flash interface and the Systick. */
  HAL_Init();
 8001ec4:	f000 fc8e 	bl	80027e4 <HAL_Init>
  /* USER CODE BEGIN Init */

  /* USER CODE END Init */

  /* Configure the system clock */
  SystemClock_Config();
 8001ec8:	f000 f810 	bl	8001eec <SystemClock_Config>
  /* USER CODE BEGIN SysInit */

  /* USER CODE END SysInit */

  /* Initialize all configured peripherals */
  MX_GPIO_Init();
 8001ecc:	f000 f960 	bl	8002190 <MX_GPIO_Init>
  MX_USART2_UART_Init();
 8001ed0:	f000 f934 	bl	800213c <MX_USART2_UART_Init>
  MX_CAN1_Init();
 8001ed4:	f000 f8ce 	bl	8002074 <MX_CAN1_Init>
  MX_I2C1_Init();
 8001ed8:	f000 f902 	bl	80020e0 <MX_I2C1_Init>
  MX_ADC1_Init();
 8001edc:	f000 f878 	bl	8001fd0 <MX_ADC1_Init>
  /* USER CODE BEGIN 2 */
  FEB_Main_Setup();
 8001ee0:	f7ff fdca 	bl	8001a78 <FEB_Main_Setup>
  {
    /* USER CODE END WHILE */

    /* USER CODE BEGIN 3 */

	  FEB_Main_While();
 8001ee4:	f7ff fdd6 	bl	8001a94 <FEB_Main_While>
 8001ee8:	e7fc      	b.n	8001ee4 <main+0x24>
	...

08001eec <SystemClock_Config>:
/**
  * @brief System Clock Configuration
  * @retval None
  */
void SystemClock_Config(void)
{
 8001eec:	b580      	push	{r7, lr}
 8001eee:	b094      	sub	sp, #80	@ 0x50
 8001ef0:	af00      	add	r7, sp, #0
  RCC_OscInitTypeDef RCC_OscInitStruct = {0};
 8001ef2:	f107 031c 	add.w	r3, r7, #28
 8001ef6:	2234      	movs	r2, #52	@ 0x34
 8001ef8:	2100      	movs	r1, #0
 8001efa:	4618      	mov	r0, r3
 8001efc:	f004 fbcc 	bl	8006698 <memset>
  RCC_ClkInitTypeDef RCC_ClkInitStruct = {0};
 8001f00:	f107 0308 	add.w	r3, r7, #8
 8001f04:	2200      	movs	r2, #0
 8001f06:	601a      	str	r2, [r3, #0]
 8001f08:	605a      	str	r2, [r3, #4]
 8001f0a:	609a      	str	r2, [r3, #8]
 8001f0c:	60da      	str	r2, [r3, #12]
 8001f0e:	611a      	str	r2, [r3, #16]

  /** Configure the main internal regulator output voltage
  */
  __HAL_RCC_PWR_CLK_ENABLE();
 8001f10:	2300      	movs	r3, #0
 8001f12:	607b      	str	r3, [r7, #4]
 8001f14:	4b2c      	ldr	r3, [pc, #176]	@ (8001fc8 <SystemClock_Config+0xdc>)
 8001f16:	6c1b      	ldr	r3, [r3, #64]	@ 0x40
 8001f18:	4a2b      	ldr	r2, [pc, #172]	@ (8001fc8 <SystemClock_Config+0xdc>)
 8001f1a:	f043 5380 	orr.w	r3, r3, #268435456	@ 0x10000000
 8001f1e:	6413      	str	r3, [r2, #64]	@ 0x40
 8001f20:	4b29      	ldr	r3, [pc, #164]	@ (8001fc8 <SystemClock_Config+0xdc>)
 8001f22:	6c1b      	ldr	r3, [r3, #64]	@ 0x40
 8001f24:	f003 5380 	and.w	r3, r3, #268435456	@ 0x10000000
 8001f28:	607b      	str	r3, [r7, #4]
 8001f2a:	687b      	ldr	r3, [r7, #4]
  __HAL_PWR_VOLTAGESCALING_CONFIG(PWR_REGULATOR_VOLTAGE_SCALE1);
 8001f2c:	2300      	movs	r3, #0
 8001f2e:	603b      	str	r3, [r7, #0]
 8001f30:	4b26      	ldr	r3, [pc, #152]	@ (8001fcc <SystemClock_Config+0xe0>)
 8001f32:	681b      	ldr	r3, [r3, #0]
 8001f34:	4a25      	ldr	r2, [pc, #148]	@ (8001fcc <SystemClock_Config+0xe0>)
 8001f36:	f443 4340 	orr.w	r3, r3, #49152	@ 0xc000
 8001f3a:	6013      	str	r3, [r2, #0]
 8001f3c:	4b23      	ldr	r3, [pc, #140]	@ (8001fcc <SystemClock_Config+0xe0>)
 8001f3e:	681b      	ldr	r3, [r3, #0]
 8001f40:	f403 4340 	and.w	r3, r3, #49152	@ 0xc000
 8001f44:	603b      	str	r3, [r7, #0]
 8001f46:	683b      	ldr	r3, [r7, #0]

  /** Initializes the RCC Oscillators according to the specified parameters
  * in the RCC_OscInitTypeDef structure.
  */
  RCC_OscInitStruct.OscillatorType = RCC_OSCILLATORTYPE_HSE;
 8001f48:	2301      	movs	r3, #1
 8001f4a:	61fb      	str	r3, [r7, #28]
  RCC_OscInitStruct.HSEState = RCC_HSE_ON;
 8001f4c:	f44f 3380 	mov.w	r3, #65536	@ 0x10000
 8001f50:	623b      	str	r3, [r7, #32]
  RCC_OscInitStruct.PLL.PLLState = RCC_PLL_ON;
 8001f52:	2302      	movs	r3, #2
 8001f54:	637b      	str	r3, [r7, #52]	@ 0x34
  RCC_OscInitStruct.PLL.PLLSource = RCC_PLLSOURCE_HSE;
 8001f56:	f44f 0380 	mov.w	r3, #4194304	@ 0x400000
 8001f5a:	63bb      	str	r3, [r7, #56]	@ 0x38
  RCC_OscInitStruct.PLL.PLLM = 4;
 8001f5c:	2304      	movs	r3, #4
 8001f5e:	63fb      	str	r3, [r7, #60]	@ 0x3c
  RCC_OscInitStruct.PLL.PLLN = 180;
 8001f60:	23b4      	movs	r3, #180	@ 0xb4
 8001f62:	643b      	str	r3, [r7, #64]	@ 0x40
  RCC_OscInitStruct.PLL.PLLP = RCC_PLLP_DIV2;
 8001f64:	2302      	movs	r3, #2
 8001f66:	647b      	str	r3, [r7, #68]	@ 0x44
  RCC_OscInitStruct.PLL.PLLQ = 2;
 8001f68:	2302      	movs	r3, #2
 8001f6a:	64bb      	str	r3, [r7, #72]	@ 0x48
  RCC_OscInitStruct.PLL.PLLR = 2;
 8001f6c:	2302      	movs	r3, #2
 8001f6e:	64fb      	str	r3, [r7, #76]	@ 0x4c
  if (HAL_RCC_OscConfig(&RCC_OscInitStruct) != HAL_OK)
 8001f70:	f107 031c 	add.w	r3, r7, #28
 8001f74:	4618      	mov	r0, r3
 8001f76:	f002 ffab 	bl	8004ed0 <HAL_RCC_OscConfig>
 8001f7a:	4603      	mov	r3, r0
 8001f7c:	2b00      	cmp	r3, #0
 8001f7e:	d001      	beq.n	8001f84 <SystemClock_Config+0x98>
  {
    Error_Handler();
 8001f80:	f000 f974 	bl	800226c <Error_Handler>
  }

  /** Activate the Over-Drive mode
  */
  if (HAL_PWREx_EnableOverDrive() != HAL_OK)
 8001f84:	f002 fc0a 	bl	800479c <HAL_PWREx_EnableOverDrive>
 8001f88:	4603      	mov	r3, r0
 8001f8a:	2b00      	cmp	r3, #0
 8001f8c:	d001      	beq.n	8001f92 <SystemClock_Config+0xa6>
  {
    Error_Handler();
 8001f8e:	f000 f96d 	bl	800226c <Error_Handler>
  }

  /** Initializes the CPU, AHB and APB buses clocks
  */
  RCC_ClkInitStruct.ClockType = RCC_CLOCKTYPE_HCLK|RCC_CLOCKTYPE_SYSCLK
 8001f92:	230f      	movs	r3, #15
 8001f94:	60bb      	str	r3, [r7, #8]
                              |RCC_CLOCKTYPE_PCLK1|RCC_CLOCKTYPE_PCLK2;
  RCC_ClkInitStruct.SYSCLKSource = RCC_SYSCLKSOURCE_PLLCLK;
 8001f96:	2302      	movs	r3, #2
 8001f98:	60fb      	str	r3, [r7, #12]
  RCC_ClkInitStruct.AHBCLKDivider = RCC_SYSCLK_DIV1;
 8001f9a:	2300      	movs	r3, #0
 8001f9c:	613b      	str	r3, [r7, #16]
  RCC_ClkInitStruct.APB1CLKDivider = RCC_HCLK_DIV4;
 8001f9e:	f44f 53a0 	mov.w	r3, #5120	@ 0x1400
 8001fa2:	617b      	str	r3, [r7, #20]
  RCC_ClkInitStruct.APB2CLKDivider = RCC_HCLK_DIV2;
 8001fa4:	f44f 5380 	mov.w	r3, #4096	@ 0x1000
 8001fa8:	61bb      	str	r3, [r7, #24]

  if (HAL_RCC_ClockConfig(&RCC_ClkInitStruct, FLASH_LATENCY_5) != HAL_OK)
 8001faa:	f107 0308 	add.w	r3, r7, #8
 8001fae:	2105      	movs	r1, #5
 8001fb0:	4618      	mov	r0, r3
 8001fb2:	f002 fc43 	bl	800483c <HAL_RCC_ClockConfig>
 8001fb6:	4603      	mov	r3, r0
 8001fb8:	2b00      	cmp	r3, #0
 8001fba:	d001      	beq.n	8001fc0 <SystemClock_Config+0xd4>
  {
    Error_Handler();
 8001fbc:	f000 f956 	bl	800226c <Error_Handler>
  }
}
 8001fc0:	bf00      	nop
 8001fc2:	3750      	adds	r7, #80	@ 0x50
 8001fc4:	46bd      	mov	sp, r7
 8001fc6:	bd80      	pop	{r7, pc}
 8001fc8:	40023800 	.word	0x40023800
 8001fcc:	40007000 	.word	0x40007000

08001fd0 <MX_ADC1_Init>:
  * @brief ADC1 Initialization Function
  * @param None
  * @retval None
  */
static void MX_ADC1_Init(void)
{
 8001fd0:	b580      	push	{r7, lr}
 8001fd2:	b084      	sub	sp, #16
 8001fd4:	af00      	add	r7, sp, #0

  /* USER CODE BEGIN ADC1_Init 0 */

  /* USER CODE END ADC1_Init 0 */

  ADC_ChannelConfTypeDef sConfig = {0};
 8001fd6:	463b      	mov	r3, r7
 8001fd8:	2200      	movs	r2, #0
 8001fda:	601a      	str	r2, [r3, #0]
 8001fdc:	605a      	str	r2, [r3, #4]
 8001fde:	609a      	str	r2, [r3, #8]
 8001fe0:	60da      	str	r2, [r3, #12]

  /* USER CODE END ADC1_Init 1 */

  /** Configure the global features of the ADC (Clock, Resolution, Data Alignment and number of conversion)
  */
  hadc1.Instance = ADC1;
 8001fe2:	4b21      	ldr	r3, [pc, #132]	@ (8002068 <MX_ADC1_Init+0x98>)
 8001fe4:	4a21      	ldr	r2, [pc, #132]	@ (800206c <MX_ADC1_Init+0x9c>)
 8001fe6:	601a      	str	r2, [r3, #0]
  hadc1.Init.ClockPrescaler = ADC_CLOCK_SYNC_PCLK_DIV4;
 8001fe8:	4b1f      	ldr	r3, [pc, #124]	@ (8002068 <MX_ADC1_Init+0x98>)
 8001fea:	f44f 3280 	mov.w	r2, #65536	@ 0x10000
 8001fee:	605a      	str	r2, [r3, #4]
  hadc1.Init.Resolution = ADC_RESOLUTION_12B;
 8001ff0:	4b1d      	ldr	r3, [pc, #116]	@ (8002068 <MX_ADC1_Init+0x98>)
 8001ff2:	2200      	movs	r2, #0
 8001ff4:	609a      	str	r2, [r3, #8]
  hadc1.Init.ScanConvMode = DISABLE;
 8001ff6:	4b1c      	ldr	r3, [pc, #112]	@ (8002068 <MX_ADC1_Init+0x98>)
 8001ff8:	2200      	movs	r2, #0
 8001ffa:	611a      	str	r2, [r3, #16]
  hadc1.Init.ContinuousConvMode = DISABLE;
 8001ffc:	4b1a      	ldr	r3, [pc, #104]	@ (8002068 <MX_ADC1_Init+0x98>)
 8001ffe:	2200      	movs	r2, #0
 8002000:	761a      	strb	r2, [r3, #24]
  hadc1.Init.DiscontinuousConvMode = DISABLE;
 8002002:	4b19      	ldr	r3, [pc, #100]	@ (8002068 <MX_ADC1_Init+0x98>)
 8002004:	2200      	movs	r2, #0
 8002006:	f883 2020 	strb.w	r2, [r3, #32]
  hadc1.Init.ExternalTrigConvEdge = ADC_EXTERNALTRIGCONVEDGE_NONE;
 800200a:	4b17      	ldr	r3, [pc, #92]	@ (8002068 <MX_ADC1_Init+0x98>)
 800200c:	2200      	movs	r2, #0
 800200e:	62da      	str	r2, [r3, #44]	@ 0x2c
  hadc1.Init.ExternalTrigConv = ADC_SOFTWARE_START;
 8002010:	4b15      	ldr	r3, [pc, #84]	@ (8002068 <MX_ADC1_Init+0x98>)
 8002012:	4a17      	ldr	r2, [pc, #92]	@ (8002070 <MX_ADC1_Init+0xa0>)
 8002014:	629a      	str	r2, [r3, #40]	@ 0x28
  hadc1.Init.DataAlign = ADC_DATAALIGN_RIGHT;
 8002016:	4b14      	ldr	r3, [pc, #80]	@ (8002068 <MX_ADC1_Init+0x98>)
 8002018:	2200      	movs	r2, #0
 800201a:	60da      	str	r2, [r3, #12]
  hadc1.Init.NbrOfConversion = 1;
 800201c:	4b12      	ldr	r3, [pc, #72]	@ (8002068 <MX_ADC1_Init+0x98>)
 800201e:	2201      	movs	r2, #1
 8002020:	61da      	str	r2, [r3, #28]
  hadc1.Init.DMAContinuousRequests = DISABLE;
 8002022:	4b11      	ldr	r3, [pc, #68]	@ (8002068 <MX_ADC1_Init+0x98>)
 8002024:	2200      	movs	r2, #0
 8002026:	f883 2030 	strb.w	r2, [r3, #48]	@ 0x30
  hadc1.Init.EOCSelection = ADC_EOC_SINGLE_CONV;
 800202a:	4b0f      	ldr	r3, [pc, #60]	@ (8002068 <MX_ADC1_Init+0x98>)
 800202c:	2201      	movs	r2, #1
 800202e:	615a      	str	r2, [r3, #20]
  if (HAL_ADC_Init(&hadc1) != HAL_OK)
 8002030:	480d      	ldr	r0, [pc, #52]	@ (8002068 <MX_ADC1_Init+0x98>)
 8002032:	f000 fc6d 	bl	8002910 <HAL_ADC_Init>
 8002036:	4603      	mov	r3, r0
 8002038:	2b00      	cmp	r3, #0
 800203a:	d001      	beq.n	8002040 <MX_ADC1_Init+0x70>
  {
    Error_Handler();
 800203c:	f000 f916 	bl	800226c <Error_Handler>
  }

  /** Configure for the selected ADC regular channel its corresponding rank in the sequencer and its sample time.
  */
  sConfig.Channel = ADC_CHANNEL_0;
 8002040:	2300      	movs	r3, #0
 8002042:	603b      	str	r3, [r7, #0]
  sConfig.Rank = 1;
 8002044:	2301      	movs	r3, #1
 8002046:	607b      	str	r3, [r7, #4]
  sConfig.SamplingTime = ADC_SAMPLETIME_3CYCLES;
 8002048:	2300      	movs	r3, #0
 800204a:	60bb      	str	r3, [r7, #8]
  if (HAL_ADC_ConfigChannel(&hadc1, &sConfig) != HAL_OK)
 800204c:	463b      	mov	r3, r7
 800204e:	4619      	mov	r1, r3
 8002050:	4805      	ldr	r0, [pc, #20]	@ (8002068 <MX_ADC1_Init+0x98>)
 8002052:	f000 fe0b 	bl	8002c6c <HAL_ADC_ConfigChannel>
 8002056:	4603      	mov	r3, r0
 8002058:	2b00      	cmp	r3, #0
 800205a:	d001      	beq.n	8002060 <MX_ADC1_Init+0x90>
  {
    Error_Handler();
 800205c:	f000 f906 	bl	800226c <Error_Handler>
  }
  /* USER CODE BEGIN ADC1_Init 2 */

  /* USER CODE END ADC1_Init 2 */

}
 8002060:	bf00      	nop
 8002062:	3710      	adds	r7, #16
 8002064:	46bd      	mov	sp, r7
 8002066:	bd80      	pop	{r7, pc}
 8002068:	20000270 	.word	0x20000270
 800206c:	40012000 	.word	0x40012000
 8002070:	0f000001 	.word	0x0f000001

08002074 <MX_CAN1_Init>:
  * @brief CAN1 Initialization Function
  * @param None
  * @retval None
  */
static void MX_CAN1_Init(void)
{
 8002074:	b580      	push	{r7, lr}
 8002076:	af00      	add	r7, sp, #0
  /* USER CODE END CAN1_Init 0 */

  /* USER CODE BEGIN CAN1_Init 1 */

  /* USER CODE END CAN1_Init 1 */
  hcan1.Instance = CAN1;
 8002078:	4b17      	ldr	r3, [pc, #92]	@ (80020d8 <MX_CAN1_Init+0x64>)
 800207a:	4a18      	ldr	r2, [pc, #96]	@ (80020dc <MX_CAN1_Init+0x68>)
 800207c:	601a      	str	r2, [r3, #0]
  hcan1.Init.Prescaler = 18;
 800207e:	4b16      	ldr	r3, [pc, #88]	@ (80020d8 <MX_CAN1_Init+0x64>)
 8002080:	2212      	movs	r2, #18
 8002082:	605a      	str	r2, [r3, #4]
  hcan1.Init.Mode = CAN_MODE_NORMAL;
 8002084:	4b14      	ldr	r3, [pc, #80]	@ (80020d8 <MX_CAN1_Init+0x64>)
 8002086:	2200      	movs	r2, #0
 8002088:	609a      	str	r2, [r3, #8]
  hcan1.Init.SyncJumpWidth = CAN_SJW_1TQ;
 800208a:	4b13      	ldr	r3, [pc, #76]	@ (80020d8 <MX_CAN1_Init+0x64>)
 800208c:	2200      	movs	r2, #0
 800208e:	60da      	str	r2, [r3, #12]
  hcan1.Init.TimeSeg1 = CAN_BS1_3TQ;
 8002090:	4b11      	ldr	r3, [pc, #68]	@ (80020d8 <MX_CAN1_Init+0x64>)
 8002092:	f44f 3200 	mov.w	r2, #131072	@ 0x20000
 8002096:	611a      	str	r2, [r3, #16]
  hcan1.Init.TimeSeg2 = CAN_BS2_1TQ;
 8002098:	4b0f      	ldr	r3, [pc, #60]	@ (80020d8 <MX_CAN1_Init+0x64>)
 800209a:	2200      	movs	r2, #0
 800209c:	615a      	str	r2, [r3, #20]
  hcan1.Init.TimeTriggeredMode = DISABLE;
 800209e:	4b0e      	ldr	r3, [pc, #56]	@ (80020d8 <MX_CAN1_Init+0x64>)
 80020a0:	2200      	movs	r2, #0
 80020a2:	761a      	strb	r2, [r3, #24]
  hcan1.Init.AutoBusOff = DISABLE;
 80020a4:	4b0c      	ldr	r3, [pc, #48]	@ (80020d8 <MX_CAN1_Init+0x64>)
 80020a6:	2200      	movs	r2, #0
 80020a8:	765a      	strb	r2, [r3, #25]
  hcan1.Init.AutoWakeUp = DISABLE;
 80020aa:	4b0b      	ldr	r3, [pc, #44]	@ (80020d8 <MX_CAN1_Init+0x64>)
 80020ac:	2200      	movs	r2, #0
 80020ae:	769a      	strb	r2, [r3, #26]
  hcan1.Init.AutoRetransmission = DISABLE;
 80020b0:	4b09      	ldr	r3, [pc, #36]	@ (80020d8 <MX_CAN1_Init+0x64>)
 80020b2:	2200      	movs	r2, #0
 80020b4:	76da      	strb	r2, [r3, #27]
  hcan1.Init.ReceiveFifoLocked = DISABLE;
 80020b6:	4b08      	ldr	r3, [pc, #32]	@ (80020d8 <MX_CAN1_Init+0x64>)
 80020b8:	2200      	movs	r2, #0
 80020ba:	771a      	strb	r2, [r3, #28]
  hcan1.Init.TransmitFifoPriority = DISABLE;
 80020bc:	4b06      	ldr	r3, [pc, #24]	@ (80020d8 <MX_CAN1_Init+0x64>)
 80020be:	2200      	movs	r2, #0
 80020c0:	775a      	strb	r2, [r3, #29]
  if (HAL_CAN_Init(&hcan1) != HAL_OK)
 80020c2:	4805      	ldr	r0, [pc, #20]	@ (80020d8 <MX_CAN1_Init+0x64>)
 80020c4:	f001 f8ca 	bl	800325c <HAL_CAN_Init>
 80020c8:	4603      	mov	r3, r0
 80020ca:	2b00      	cmp	r3, #0
 80020cc:	d001      	beq.n	80020d2 <MX_CAN1_Init+0x5e>
  {
    Error_Handler();
 80020ce:	f000 f8cd 	bl	800226c <Error_Handler>
  }
  /* USER CODE BEGIN CAN1_Init 2 */

  /* USER CODE END CAN1_Init 2 */

}
 80020d2:	bf00      	nop
 80020d4:	bd80      	pop	{r7, pc}
 80020d6:	bf00      	nop
 80020d8:	200002b8 	.word	0x200002b8
 80020dc:	40006400 	.word	0x40006400

080020e0 <MX_I2C1_Init>:
  * @brief I2C1 Initialization Function
  * @param None
  * @retval None
  */
static void MX_I2C1_Init(void)
{
 80020e0:	b580      	push	{r7, lr}
 80020e2:	af00      	add	r7, sp, #0
  /* USER CODE END I2C1_Init 0 */

  /* USER CODE BEGIN I2C1_Init 1 */

  /* USER CODE END I2C1_Init 1 */
  hi2c1.Instance = I2C1;
 80020e4:	4b12      	ldr	r3, [pc, #72]	@ (8002130 <MX_I2C1_Init+0x50>)
 80020e6:	4a13      	ldr	r2, [pc, #76]	@ (8002134 <MX_I2C1_Init+0x54>)
 80020e8:	601a      	str	r2, [r3, #0]
  hi2c1.Init.ClockSpeed = 100000;
 80020ea:	4b11      	ldr	r3, [pc, #68]	@ (8002130 <MX_I2C1_Init+0x50>)
 80020ec:	4a12      	ldr	r2, [pc, #72]	@ (8002138 <MX_I2C1_Init+0x58>)
 80020ee:	605a      	str	r2, [r3, #4]
  hi2c1.Init.DutyCycle = I2C_DUTYCYCLE_2;
 80020f0:	4b0f      	ldr	r3, [pc, #60]	@ (8002130 <MX_I2C1_Init+0x50>)
 80020f2:	2200      	movs	r2, #0
 80020f4:	609a      	str	r2, [r3, #8]
  hi2c1.Init.OwnAddress1 = 0;
 80020f6:	4b0e      	ldr	r3, [pc, #56]	@ (8002130 <MX_I2C1_Init+0x50>)
 80020f8:	2200      	movs	r2, #0
 80020fa:	60da      	str	r2, [r3, #12]
  hi2c1.Init.AddressingMode = I2C_ADDRESSINGMODE_7BIT;
 80020fc:	4b0c      	ldr	r3, [pc, #48]	@ (8002130 <MX_I2C1_Init+0x50>)
 80020fe:	f44f 4280 	mov.w	r2, #16384	@ 0x4000
 8002102:	611a      	str	r2, [r3, #16]
  hi2c1.Init.DualAddressMode = I2C_DUALADDRESS_DISABLE;
 8002104:	4b0a      	ldr	r3, [pc, #40]	@ (8002130 <MX_I2C1_Init+0x50>)
 8002106:	2200      	movs	r2, #0
 8002108:	615a      	str	r2, [r3, #20]
  hi2c1.Init.OwnAddress2 = 0;
 800210a:	4b09      	ldr	r3, [pc, #36]	@ (8002130 <MX_I2C1_Init+0x50>)
 800210c:	2200      	movs	r2, #0
 800210e:	619a      	str	r2, [r3, #24]
  hi2c1.Init.GeneralCallMode = I2C_GENERALCALL_DISABLE;
 8002110:	4b07      	ldr	r3, [pc, #28]	@ (8002130 <MX_I2C1_Init+0x50>)
 8002112:	2200      	movs	r2, #0
 8002114:	61da      	str	r2, [r3, #28]
  hi2c1.Init.NoStretchMode = I2C_NOSTRETCH_DISABLE;
 8002116:	4b06      	ldr	r3, [pc, #24]	@ (8002130 <MX_I2C1_Init+0x50>)
 8002118:	2200      	movs	r2, #0
 800211a:	621a      	str	r2, [r3, #32]
  if (HAL_I2C_Init(&hi2c1) != HAL_OK)
 800211c:	4804      	ldr	r0, [pc, #16]	@ (8002130 <MX_I2C1_Init+0x50>)
 800211e:	f002 f9f9 	bl	8004514 <HAL_I2C_Init>
 8002122:	4603      	mov	r3, r0
 8002124:	2b00      	cmp	r3, #0
 8002126:	d001      	beq.n	800212c <MX_I2C1_Init+0x4c>
  {
    Error_Handler();
 8002128:	f000 f8a0 	bl	800226c <Error_Handler>
  }
  /* USER CODE BEGIN I2C1_Init 2 */

  /* USER CODE END I2C1_Init 2 */

}
 800212c:	bf00      	nop
 800212e:	bd80      	pop	{r7, pc}
 8002130:	200002e0 	.word	0x200002e0
 8002134:	40005400 	.word	0x40005400
 8002138:	000186a0 	.word	0x000186a0

0800213c <MX_USART2_UART_Init>:
  * @brief USART2 Initialization Function
  * @param None
  * @retval None
  */
static void MX_USART2_UART_Init(void)
{
 800213c:	b580      	push	{r7, lr}
 800213e:	af00      	add	r7, sp, #0
  /* USER CODE END USART2_Init 0 */

  /* USER CODE BEGIN USART2_Init 1 */

  /* USER CODE END USART2_Init 1 */
  huart2.Instance = USART2;
 8002140:	4b11      	ldr	r3, [pc, #68]	@ (8002188 <MX_USART2_UART_Init+0x4c>)
 8002142:	4a12      	ldr	r2, [pc, #72]	@ (800218c <MX_USART2_UART_Init+0x50>)
 8002144:	601a      	str	r2, [r3, #0]
  huart2.Init.BaudRate = 115200;
 8002146:	4b10      	ldr	r3, [pc, #64]	@ (8002188 <MX_USART2_UART_Init+0x4c>)
 8002148:	f44f 32e1 	mov.w	r2, #115200	@ 0x1c200
 800214c:	605a      	str	r2, [r3, #4]
  huart2.Init.WordLength = UART_WORDLENGTH_8B;
 800214e:	4b0e      	ldr	r3, [pc, #56]	@ (8002188 <MX_USART2_UART_Init+0x4c>)
 8002150:	2200      	movs	r2, #0
 8002152:	609a      	str	r2, [r3, #8]
  huart2.Init.StopBits = UART_STOPBITS_1;
 8002154:	4b0c      	ldr	r3, [pc, #48]	@ (8002188 <MX_USART2_UART_Init+0x4c>)
 8002156:	2200      	movs	r2, #0
 8002158:	60da      	str	r2, [r3, #12]
  huart2.Init.Parity = UART_PARITY_EVEN;
 800215a:	4b0b      	ldr	r3, [pc, #44]	@ (8002188 <MX_USART2_UART_Init+0x4c>)
 800215c:	f44f 6280 	mov.w	r2, #1024	@ 0x400
 8002160:	611a      	str	r2, [r3, #16]
  huart2.Init.Mode = UART_MODE_TX_RX;
 8002162:	4b09      	ldr	r3, [pc, #36]	@ (8002188 <MX_USART2_UART_Init+0x4c>)
 8002164:	220c      	movs	r2, #12
 8002166:	615a      	str	r2, [r3, #20]
  huart2.Init.HwFlowCtl = UART_HWCONTROL_NONE;
 8002168:	4b07      	ldr	r3, [pc, #28]	@ (8002188 <MX_USART2_UART_Init+0x4c>)
 800216a:	2200      	movs	r2, #0
 800216c:	619a      	str	r2, [r3, #24]
  huart2.Init.OverSampling = UART_OVERSAMPLING_16;
 800216e:	4b06      	ldr	r3, [pc, #24]	@ (8002188 <MX_USART2_UART_Init+0x4c>)
 8002170:	2200      	movs	r2, #0
 8002172:	61da      	str	r2, [r3, #28]
  if (HAL_UART_Init(&huart2) != HAL_OK)
 8002174:	4804      	ldr	r0, [pc, #16]	@ (8002188 <MX_USART2_UART_Init+0x4c>)
 8002176:	f003 f949 	bl	800540c <HAL_UART_Init>
 800217a:	4603      	mov	r3, r0
 800217c:	2b00      	cmp	r3, #0
 800217e:	d001      	beq.n	8002184 <MX_USART2_UART_Init+0x48>
  {
    Error_Handler();
 8002180:	f000 f874 	bl	800226c <Error_Handler>
  }
  /* USER CODE BEGIN USART2_Init 2 */

  /* USER CODE END USART2_Init 2 */

}
 8002184:	bf00      	nop
 8002186:	bd80      	pop	{r7, pc}
 8002188:	20000334 	.word	0x20000334
 800218c:	40004400 	.word	0x40004400

08002190 <MX_GPIO_Init>:
  * @brief GPIO Initialization Function
  * @param None
  * @retval None
  */
static void MX_GPIO_Init(void)
{
 8002190:	b580      	push	{r7, lr}
 8002192:	b08a      	sub	sp, #40	@ 0x28
 8002194:	af00      	add	r7, sp, #0
  GPIO_InitTypeDef GPIO_InitStruct = {0};
 8002196:	f107 0314 	add.w	r3, r7, #20
 800219a:	2200      	movs	r2, #0
 800219c:	601a      	str	r2, [r3, #0]
 800219e:	605a      	str	r2, [r3, #4]
 80021a0:	609a      	str	r2, [r3, #8]
 80021a2:	60da      	str	r2, [r3, #12]
 80021a4:	611a      	str	r2, [r3, #16]
/* USER CODE BEGIN MX_GPIO_Init_1 */
/* USER CODE END MX_GPIO_Init_1 */

  /* GPIO Ports Clock Enable */
  __HAL_RCC_GPIOC_CLK_ENABLE();
 80021a6:	2300      	movs	r3, #0
 80021a8:	613b      	str	r3, [r7, #16]
 80021aa:	4b2d      	ldr	r3, [pc, #180]	@ (8002260 <MX_GPIO_Init+0xd0>)
 80021ac:	6b1b      	ldr	r3, [r3, #48]	@ 0x30
 80021ae:	4a2c      	ldr	r2, [pc, #176]	@ (8002260 <MX_GPIO_Init+0xd0>)
 80021b0:	f043 0304 	orr.w	r3, r3, #4
 80021b4:	6313      	str	r3, [r2, #48]	@ 0x30
 80021b6:	4b2a      	ldr	r3, [pc, #168]	@ (8002260 <MX_GPIO_Init+0xd0>)
 80021b8:	6b1b      	ldr	r3, [r3, #48]	@ 0x30
 80021ba:	f003 0304 	and.w	r3, r3, #4
 80021be:	613b      	str	r3, [r7, #16]
 80021c0:	693b      	ldr	r3, [r7, #16]
  __HAL_RCC_GPIOH_CLK_ENABLE();
 80021c2:	2300      	movs	r3, #0
 80021c4:	60fb      	str	r3, [r7, #12]
 80021c6:	4b26      	ldr	r3, [pc, #152]	@ (8002260 <MX_GPIO_Init+0xd0>)
 80021c8:	6b1b      	ldr	r3, [r3, #48]	@ 0x30
 80021ca:	4a25      	ldr	r2, [pc, #148]	@ (8002260 <MX_GPIO_Init+0xd0>)
 80021cc:	f043 0380 	orr.w	r3, r3, #128	@ 0x80
 80021d0:	6313      	str	r3, [r2, #48]	@ 0x30
 80021d2:	4b23      	ldr	r3, [pc, #140]	@ (8002260 <MX_GPIO_Init+0xd0>)
 80021d4:	6b1b      	ldr	r3, [r3, #48]	@ 0x30
 80021d6:	f003 0380 	and.w	r3, r3, #128	@ 0x80
 80021da:	60fb      	str	r3, [r7, #12]
 80021dc:	68fb      	ldr	r3, [r7, #12]
  __HAL_RCC_GPIOA_CLK_ENABLE();
 80021de:	2300      	movs	r3, #0
 80021e0:	60bb      	str	r3, [r7, #8]
 80021e2:	4b1f      	ldr	r3, [pc, #124]	@ (8002260 <MX_GPIO_Init+0xd0>)
 80021e4:	6b1b      	ldr	r3, [r3, #48]	@ 0x30
 80021e6:	4a1e      	ldr	r2, [pc, #120]	@ (8002260 <MX_GPIO_Init+0xd0>)
 80021e8:	f043 0301 	orr.w	r3, r3, #1
 80021ec:	6313      	str	r3, [r2, #48]	@ 0x30
 80021ee:	4b1c      	ldr	r3, [pc, #112]	@ (8002260 <MX_GPIO_Init+0xd0>)
 80021f0:	6b1b      	ldr	r3, [r3, #48]	@ 0x30
 80021f2:	f003 0301 	and.w	r3, r3, #1
 80021f6:	60bb      	str	r3, [r7, #8]
 80021f8:	68bb      	ldr	r3, [r7, #8]
  __HAL_RCC_GPIOB_CLK_ENABLE();
 80021fa:	2300      	movs	r3, #0
 80021fc:	607b      	str	r3, [r7, #4]
 80021fe:	4b18      	ldr	r3, [pc, #96]	@ (8002260 <MX_GPIO_Init+0xd0>)
 8002200:	6b1b      	ldr	r3, [r3, #48]	@ 0x30
 8002202:	4a17      	ldr	r2, [pc, #92]	@ (8002260 <MX_GPIO_Init+0xd0>)
 8002204:	f043 0302 	orr.w	r3, r3, #2
 8002208:	6313      	str	r3, [r2, #48]	@ 0x30
 800220a:	4b15      	ldr	r3, [pc, #84]	@ (8002260 <MX_GPIO_Init+0xd0>)
 800220c:	6b1b      	ldr	r3, [r3, #48]	@ 0x30
 800220e:	f003 0302 	and.w	r3, r3, #2
 8002212:	607b      	str	r3, [r7, #4]
 8002214:	687b      	ldr	r3, [r7, #4]

  /*Configure GPIO pin Output Level */
  HAL_GPIO_WritePin(LD2_GPIO_Port, LD2_Pin, GPIO_PIN_RESET);
 8002216:	2200      	movs	r2, #0
 8002218:	2120      	movs	r1, #32
 800221a:	4812      	ldr	r0, [pc, #72]	@ (8002264 <MX_GPIO_Init+0xd4>)
 800221c:	f002 f960 	bl	80044e0 <HAL_GPIO_WritePin>

  /*Configure GPIO pin : B1_Pin */
  GPIO_InitStruct.Pin = B1_Pin;
 8002220:	f44f 5300 	mov.w	r3, #8192	@ 0x2000
 8002224:	617b      	str	r3, [r7, #20]
  GPIO_InitStruct.Mode = GPIO_MODE_IT_FALLING;
 8002226:	f44f 1304 	mov.w	r3, #2162688	@ 0x210000
 800222a:	61bb      	str	r3, [r7, #24]
  GPIO_InitStruct.Pull = GPIO_NOPULL;
 800222c:	2300      	movs	r3, #0
 800222e:	61fb      	str	r3, [r7, #28]
  HAL_GPIO_Init(B1_GPIO_Port, &GPIO_InitStruct);
 8002230:	f107 0314 	add.w	r3, r7, #20
 8002234:	4619      	mov	r1, r3
 8002236:	480c      	ldr	r0, [pc, #48]	@ (8002268 <MX_GPIO_Init+0xd8>)
 8002238:	f001 ffbe 	bl	80041b8 <HAL_GPIO_Init>

  /*Configure GPIO pin : LD2_Pin */
  GPIO_InitStruct.Pin = LD2_Pin;
 800223c:	2320      	movs	r3, #32
 800223e:	617b      	str	r3, [r7, #20]
  GPIO_InitStruct.Mode = GPIO_MODE_OUTPUT_PP;
 8002240:	2301      	movs	r3, #1
 8002242:	61bb      	str	r3, [r7, #24]
  GPIO_InitStruct.Pull = GPIO_NOPULL;
 8002244:	2300      	movs	r3, #0
 8002246:	61fb      	str	r3, [r7, #28]
  GPIO_InitStruct.Speed = GPIO_SPEED_FREQ_LOW;
 8002248:	2300      	movs	r3, #0
 800224a:	623b      	str	r3, [r7, #32]
  HAL_GPIO_Init(LD2_GPIO_Port, &GPIO_InitStruct);
 800224c:	f107 0314 	add.w	r3, r7, #20
 8002250:	4619      	mov	r1, r3
 8002252:	4804      	ldr	r0, [pc, #16]	@ (8002264 <MX_GPIO_Init+0xd4>)
 8002254:	f001 ffb0 	bl	80041b8 <HAL_GPIO_Init>

/* USER CODE BEGIN MX_GPIO_Init_2 */
/* USER CODE END MX_GPIO_Init_2 */
}
 8002258:	bf00      	nop
 800225a:	3728      	adds	r7, #40	@ 0x28
 800225c:	46bd      	mov	sp, r7
 800225e:	bd80      	pop	{r7, pc}
 8002260:	40023800 	.word	0x40023800
 8002264:	40020000 	.word	0x40020000
 8002268:	40020800 	.word	0x40020800

0800226c <Error_Handler>:
/**
  * @brief  This function is executed in case of error occurrence.
  * @retval None
  */
void Error_Handler(void)
{
 800226c:	b480      	push	{r7}
 800226e:	af00      	add	r7, sp, #0
  \details Disables IRQ interrupts by setting special-purpose register PRIMASK.
           Can only be executed in Privileged modes.
 */
__STATIC_FORCEINLINE void __disable_irq(void)
{
  __ASM volatile ("cpsid i" : : : "memory");
 8002270:	b672      	cpsid	i
}
 8002272:	bf00      	nop
  /* USER CODE BEGIN Error_Handler_Debug */
  /* User can add his own implementation to report the HAL error return state */
  __disable_irq();
  while (1)
 8002274:	bf00      	nop
 8002276:	e7fd      	b.n	8002274 <Error_Handler+0x8>

08002278 <HAL_MspInit>:
/* USER CODE END 0 */
/**
  * Initializes the Global MSP.
  */
void HAL_MspInit(void)
{
 8002278:	b580      	push	{r7, lr}
 800227a:	b082      	sub	sp, #8
 800227c:	af00      	add	r7, sp, #0

  /* USER CODE BEGIN MspInit 0 */

  /* USER CODE END MspInit 0 */

  __HAL_RCC_SYSCFG_CLK_ENABLE();
 800227e:	2300      	movs	r3, #0
 8002280:	607b      	str	r3, [r7, #4]
 8002282:	4b10      	ldr	r3, [pc, #64]	@ (80022c4 <HAL_MspInit+0x4c>)
 8002284:	6c5b      	ldr	r3, [r3, #68]	@ 0x44
 8002286:	4a0f      	ldr	r2, [pc, #60]	@ (80022c4 <HAL_MspInit+0x4c>)
 8002288:	f443 4380 	orr.w	r3, r3, #16384	@ 0x4000
 800228c:	6453      	str	r3, [r2, #68]	@ 0x44
 800228e:	4b0d      	ldr	r3, [pc, #52]	@ (80022c4 <HAL_MspInit+0x4c>)
 8002290:	6c5b      	ldr	r3, [r3, #68]	@ 0x44
 8002292:	f403 4380 	and.w	r3, r3, #16384	@ 0x4000
 8002296:	607b      	str	r3, [r7, #4]
 8002298:	687b      	ldr	r3, [r7, #4]
  __HAL_RCC_PWR_CLK_ENABLE();
 800229a:	2300      	movs	r3, #0
 800229c:	603b      	str	r3, [r7, #0]
 800229e:	4b09      	ldr	r3, [pc, #36]	@ (80022c4 <HAL_MspInit+0x4c>)
 80022a0:	6c1b      	ldr	r3, [r3, #64]	@ 0x40
 80022a2:	4a08      	ldr	r2, [pc, #32]	@ (80022c4 <HAL_MspInit+0x4c>)
 80022a4:	f043 5380 	orr.w	r3, r3, #268435456	@ 0x10000000
 80022a8:	6413      	str	r3, [r2, #64]	@ 0x40
 80022aa:	4b06      	ldr	r3, [pc, #24]	@ (80022c4 <HAL_MspInit+0x4c>)
 80022ac:	6c1b      	ldr	r3, [r3, #64]	@ 0x40
 80022ae:	f003 5380 	and.w	r3, r3, #268435456	@ 0x10000000
 80022b2:	603b      	str	r3, [r7, #0]
 80022b4:	683b      	ldr	r3, [r7, #0]

  HAL_NVIC_SetPriorityGrouping(NVIC_PRIORITYGROUP_0);
 80022b6:	2007      	movs	r0, #7
 80022b8:	f001 ff3c 	bl	8004134 <HAL_NVIC_SetPriorityGrouping>
  /* System interrupt init*/

  /* USER CODE BEGIN MspInit 1 */

  /* USER CODE END MspInit 1 */
}
 80022bc:	bf00      	nop
 80022be:	3708      	adds	r7, #8
 80022c0:	46bd      	mov	sp, r7
 80022c2:	bd80      	pop	{r7, pc}
 80022c4:	40023800 	.word	0x40023800

080022c8 <HAL_ADC_MspInit>:
* This function configures the hardware resources used in this example
* @param hadc: ADC handle pointer
* @retval None
*/
void HAL_ADC_MspInit(ADC_HandleTypeDef* hadc)
{
 80022c8:	b580      	push	{r7, lr}
 80022ca:	b08a      	sub	sp, #40	@ 0x28
 80022cc:	af00      	add	r7, sp, #0
 80022ce:	6078      	str	r0, [r7, #4]
  GPIO_InitTypeDef GPIO_InitStruct = {0};
 80022d0:	f107 0314 	add.w	r3, r7, #20
 80022d4:	2200      	movs	r2, #0
 80022d6:	601a      	str	r2, [r3, #0]
 80022d8:	605a      	str	r2, [r3, #4]
 80022da:	609a      	str	r2, [r3, #8]
 80022dc:	60da      	str	r2, [r3, #12]
 80022de:	611a      	str	r2, [r3, #16]
  if(hadc->Instance==ADC1)
 80022e0:	687b      	ldr	r3, [r7, #4]
 80022e2:	681b      	ldr	r3, [r3, #0]
 80022e4:	4a24      	ldr	r2, [pc, #144]	@ (8002378 <HAL_ADC_MspInit+0xb0>)
 80022e6:	4293      	cmp	r3, r2
 80022e8:	d141      	bne.n	800236e <HAL_ADC_MspInit+0xa6>
  {
  /* USER CODE BEGIN ADC1_MspInit 0 */

  /* USER CODE END ADC1_MspInit 0 */
    /* Peripheral clock enable */
    __HAL_RCC_ADC1_CLK_ENABLE();
 80022ea:	2300      	movs	r3, #0
 80022ec:	613b      	str	r3, [r7, #16]
 80022ee:	4b23      	ldr	r3, [pc, #140]	@ (800237c <HAL_ADC_MspInit+0xb4>)
 80022f0:	6c5b      	ldr	r3, [r3, #68]	@ 0x44
 80022f2:	4a22      	ldr	r2, [pc, #136]	@ (800237c <HAL_ADC_MspInit+0xb4>)
 80022f4:	f443 7380 	orr.w	r3, r3, #256	@ 0x100
 80022f8:	6453      	str	r3, [r2, #68]	@ 0x44
 80022fa:	4b20      	ldr	r3, [pc, #128]	@ (800237c <HAL_ADC_MspInit+0xb4>)
 80022fc:	6c5b      	ldr	r3, [r3, #68]	@ 0x44
 80022fe:	f403 7380 	and.w	r3, r3, #256	@ 0x100
 8002302:	613b      	str	r3, [r7, #16]
 8002304:	693b      	ldr	r3, [r7, #16]

    __HAL_RCC_GPIOC_CLK_ENABLE();
 8002306:	2300      	movs	r3, #0
 8002308:	60fb      	str	r3, [r7, #12]
 800230a:	4b1c      	ldr	r3, [pc, #112]	@ (800237c <HAL_ADC_MspInit+0xb4>)
 800230c:	6b1b      	ldr	r3, [r3, #48]	@ 0x30
 800230e:	4a1b      	ldr	r2, [pc, #108]	@ (800237c <HAL_ADC_MspInit+0xb4>)
 8002310:	f043 0304 	orr.w	r3, r3, #4
 8002314:	6313      	str	r3, [r2, #48]	@ 0x30
 8002316:	4b19      	ldr	r3, [pc, #100]	@ (800237c <HAL_ADC_MspInit+0xb4>)
 8002318:	6b1b      	ldr	r3, [r3, #48]	@ 0x30
 800231a:	f003 0304 	and.w	r3, r3, #4
 800231e:	60fb      	str	r3, [r7, #12]
 8002320:	68fb      	ldr	r3, [r7, #12]
    __HAL_RCC_GPIOA_CLK_ENABLE();
 8002322:	2300      	movs	r3, #0
 8002324:	60bb      	str	r3, [r7, #8]
 8002326:	4b15      	ldr	r3, [pc, #84]	@ (800237c <HAL_ADC_MspInit+0xb4>)
 8002328:	6b1b      	ldr	r3, [r3, #48]	@ 0x30
 800232a:	4a14      	ldr	r2, [pc, #80]	@ (800237c <HAL_ADC_MspInit+0xb4>)
 800232c:	f043 0301 	orr.w	r3, r3, #1
 8002330:	6313      	str	r3, [r2, #48]	@ 0x30
 8002332:	4b12      	ldr	r3, [pc, #72]	@ (800237c <HAL_ADC_MspInit+0xb4>)
 8002334:	6b1b      	ldr	r3, [r3, #48]	@ 0x30
 8002336:	f003 0301 	and.w	r3, r3, #1
 800233a:	60bb      	str	r3, [r7, #8]
 800233c:	68bb      	ldr	r3, [r7, #8]
    PA0-WKUP     ------> ADC1_IN0
    PA1     ------> ADC1_IN1
    PA6     ------> ADC1_IN6
    PA7     ------> ADC1_IN7
    */
    GPIO_InitStruct.Pin = GPIO_PIN_0|GPIO_PIN_1|GPIO_PIN_3;
 800233e:	230b      	movs	r3, #11
 8002340:	617b      	str	r3, [r7, #20]
    GPIO_InitStruct.Mode = GPIO_MODE_ANALOG;
 8002342:	2303      	movs	r3, #3
 8002344:	61bb      	str	r3, [r7, #24]
    GPIO_InitStruct.Pull = GPIO_NOPULL;
 8002346:	2300      	movs	r3, #0
 8002348:	61fb      	str	r3, [r7, #28]
    HAL_GPIO_Init(GPIOC, &GPIO_InitStruct);
 800234a:	f107 0314 	add.w	r3, r7, #20
 800234e:	4619      	mov	r1, r3
 8002350:	480b      	ldr	r0, [pc, #44]	@ (8002380 <HAL_ADC_MspInit+0xb8>)
 8002352:	f001 ff31 	bl	80041b8 <HAL_GPIO_Init>

    GPIO_InitStruct.Pin = GPIO_PIN_0|GPIO_PIN_1|GPIO_PIN_6|GPIO_PIN_7;
 8002356:	23c3      	movs	r3, #195	@ 0xc3
 8002358:	617b      	str	r3, [r7, #20]
    GPIO_InitStruct.Mode = GPIO_MODE_ANALOG;
 800235a:	2303      	movs	r3, #3
 800235c:	61bb      	str	r3, [r7, #24]
    GPIO_InitStruct.Pull = GPIO_NOPULL;
 800235e:	2300      	movs	r3, #0
 8002360:	61fb      	str	r3, [r7, #28]
    HAL_GPIO_Init(GPIOA, &GPIO_InitStruct);
 8002362:	f107 0314 	add.w	r3, r7, #20
 8002366:	4619      	mov	r1, r3
 8002368:	4806      	ldr	r0, [pc, #24]	@ (8002384 <HAL_ADC_MspInit+0xbc>)
 800236a:	f001 ff25 	bl	80041b8 <HAL_GPIO_Init>

  /* USER CODE END ADC1_MspInit 1 */

  }

}
 800236e:	bf00      	nop
 8002370:	3728      	adds	r7, #40	@ 0x28
 8002372:	46bd      	mov	sp, r7
 8002374:	bd80      	pop	{r7, pc}
 8002376:	bf00      	nop
 8002378:	40012000 	.word	0x40012000
 800237c:	40023800 	.word	0x40023800
 8002380:	40020800 	.word	0x40020800
 8002384:	40020000 	.word	0x40020000

08002388 <HAL_CAN_MspInit>:
* This function configures the hardware resources used in this example
* @param hcan: CAN handle pointer
* @retval None
*/
void HAL_CAN_MspInit(CAN_HandleTypeDef* hcan)
{
 8002388:	b580      	push	{r7, lr}
 800238a:	b08a      	sub	sp, #40	@ 0x28
 800238c:	af00      	add	r7, sp, #0
 800238e:	6078      	str	r0, [r7, #4]
  GPIO_InitTypeDef GPIO_InitStruct = {0};
 8002390:	f107 0314 	add.w	r3, r7, #20
 8002394:	2200      	movs	r2, #0
 8002396:	601a      	str	r2, [r3, #0]
 8002398:	605a      	str	r2, [r3, #4]
 800239a:	609a      	str	r2, [r3, #8]
 800239c:	60da      	str	r2, [r3, #12]
 800239e:	611a      	str	r2, [r3, #16]
  if(hcan->Instance==CAN1)
 80023a0:	687b      	ldr	r3, [r7, #4]
 80023a2:	681b      	ldr	r3, [r3, #0]
 80023a4:	4a21      	ldr	r2, [pc, #132]	@ (800242c <HAL_CAN_MspInit+0xa4>)
 80023a6:	4293      	cmp	r3, r2
 80023a8:	d13c      	bne.n	8002424 <HAL_CAN_MspInit+0x9c>
  {
  /* USER CODE BEGIN CAN1_MspInit 0 */

  /* USER CODE END CAN1_MspInit 0 */
    /* Peripheral clock enable */
    __HAL_RCC_CAN1_CLK_ENABLE();
 80023aa:	2300      	movs	r3, #0
 80023ac:	613b      	str	r3, [r7, #16]
 80023ae:	4b20      	ldr	r3, [pc, #128]	@ (8002430 <HAL_CAN_MspInit+0xa8>)
 80023b0:	6c1b      	ldr	r3, [r3, #64]	@ 0x40
 80023b2:	4a1f      	ldr	r2, [pc, #124]	@ (8002430 <HAL_CAN_MspInit+0xa8>)
 80023b4:	f043 7300 	orr.w	r3, r3, #33554432	@ 0x2000000
 80023b8:	6413      	str	r3, [r2, #64]	@ 0x40
 80023ba:	4b1d      	ldr	r3, [pc, #116]	@ (8002430 <HAL_CAN_MspInit+0xa8>)
 80023bc:	6c1b      	ldr	r3, [r3, #64]	@ 0x40
 80023be:	f003 7300 	and.w	r3, r3, #33554432	@ 0x2000000
 80023c2:	613b      	str	r3, [r7, #16]
 80023c4:	693b      	ldr	r3, [r7, #16]

    __HAL_RCC_GPIOA_CLK_ENABLE();
 80023c6:	2300      	movs	r3, #0
 80023c8:	60fb      	str	r3, [r7, #12]
 80023ca:	4b19      	ldr	r3, [pc, #100]	@ (8002430 <HAL_CAN_MspInit+0xa8>)
 80023cc:	6b1b      	ldr	r3, [r3, #48]	@ 0x30
 80023ce:	4a18      	ldr	r2, [pc, #96]	@ (8002430 <HAL_CAN_MspInit+0xa8>)
 80023d0:	f043 0301 	orr.w	r3, r3, #1
 80023d4:	6313      	str	r3, [r2, #48]	@ 0x30
 80023d6:	4b16      	ldr	r3, [pc, #88]	@ (8002430 <HAL_CAN_MspInit+0xa8>)
 80023d8:	6b1b      	ldr	r3, [r3, #48]	@ 0x30
 80023da:	f003 0301 	and.w	r3, r3, #1
 80023de:	60fb      	str	r3, [r7, #12]
 80023e0:	68fb      	ldr	r3, [r7, #12]
    /**CAN1 GPIO Configuration
    PA11     ------> CAN1_RX
    PA12     ------> CAN1_TX
    */
    GPIO_InitStruct.Pin = GPIO_PIN_11|GPIO_PIN_12;
 80023e2:	f44f 53c0 	mov.w	r3, #6144	@ 0x1800
 80023e6:	617b      	str	r3, [r7, #20]
    GPIO_InitStruct.Mode = GPIO_MODE_AF_PP;
 80023e8:	2302      	movs	r3, #2
 80023ea:	61bb      	str	r3, [r7, #24]
    GPIO_InitStruct.Pull = GPIO_NOPULL;
 80023ec:	2300      	movs	r3, #0
 80023ee:	61fb      	str	r3, [r7, #28]
    GPIO_InitStruct.Speed = GPIO_SPEED_FREQ_VERY_HIGH;
 80023f0:	2303      	movs	r3, #3
 80023f2:	623b      	str	r3, [r7, #32]
    GPIO_InitStruct.Alternate = GPIO_AF9_CAN1;
 80023f4:	2309      	movs	r3, #9
 80023f6:	627b      	str	r3, [r7, #36]	@ 0x24
    HAL_GPIO_Init(GPIOA, &GPIO_InitStruct);
 80023f8:	f107 0314 	add.w	r3, r7, #20
 80023fc:	4619      	mov	r1, r3
 80023fe:	480d      	ldr	r0, [pc, #52]	@ (8002434 <HAL_CAN_MspInit+0xac>)
 8002400:	f001 feda 	bl	80041b8 <HAL_GPIO_Init>

    /* CAN1 interrupt Init */
    HAL_NVIC_SetPriority(CAN1_RX0_IRQn, 0, 0);
 8002404:	2200      	movs	r2, #0
 8002406:	2100      	movs	r1, #0
 8002408:	2014      	movs	r0, #20
 800240a:	f001 fe9e 	bl	800414a <HAL_NVIC_SetPriority>
    HAL_NVIC_EnableIRQ(CAN1_RX0_IRQn);
 800240e:	2014      	movs	r0, #20
 8002410:	f001 feb7 	bl	8004182 <HAL_NVIC_EnableIRQ>
    HAL_NVIC_SetPriority(CAN1_RX1_IRQn, 0, 0);
 8002414:	2200      	movs	r2, #0
 8002416:	2100      	movs	r1, #0
 8002418:	2015      	movs	r0, #21
 800241a:	f001 fe96 	bl	800414a <HAL_NVIC_SetPriority>
    HAL_NVIC_EnableIRQ(CAN1_RX1_IRQn);
 800241e:	2015      	movs	r0, #21
 8002420:	f001 feaf 	bl	8004182 <HAL_NVIC_EnableIRQ>

  /* USER CODE END CAN1_MspInit 1 */

  }

}
 8002424:	bf00      	nop
 8002426:	3728      	adds	r7, #40	@ 0x28
 8002428:	46bd      	mov	sp, r7
 800242a:	bd80      	pop	{r7, pc}
 800242c:	40006400 	.word	0x40006400
 8002430:	40023800 	.word	0x40023800
 8002434:	40020000 	.word	0x40020000

08002438 <HAL_I2C_MspInit>:
* This function configures the hardware resources used in this example
* @param hi2c: I2C handle pointer
* @retval None
*/
void HAL_I2C_MspInit(I2C_HandleTypeDef* hi2c)
{
 8002438:	b580      	push	{r7, lr}
 800243a:	b08a      	sub	sp, #40	@ 0x28
 800243c:	af00      	add	r7, sp, #0
 800243e:	6078      	str	r0, [r7, #4]
  GPIO_InitTypeDef GPIO_InitStruct = {0};
 8002440:	f107 0314 	add.w	r3, r7, #20
 8002444:	2200      	movs	r2, #0
 8002446:	601a      	str	r2, [r3, #0]
 8002448:	605a      	str	r2, [r3, #4]
 800244a:	609a      	str	r2, [r3, #8]
 800244c:	60da      	str	r2, [r3, #12]
 800244e:	611a      	str	r2, [r3, #16]
  if(hi2c->Instance==I2C1)
 8002450:	687b      	ldr	r3, [r7, #4]
 8002452:	681b      	ldr	r3, [r3, #0]
 8002454:	4a19      	ldr	r2, [pc, #100]	@ (80024bc <HAL_I2C_MspInit+0x84>)
 8002456:	4293      	cmp	r3, r2
 8002458:	d12b      	bne.n	80024b2 <HAL_I2C_MspInit+0x7a>
  {
  /* USER CODE BEGIN I2C1_MspInit 0 */

  /* USER CODE END I2C1_MspInit 0 */

    __HAL_RCC_GPIOB_CLK_ENABLE();
 800245a:	2300      	movs	r3, #0
 800245c:	613b      	str	r3, [r7, #16]
 800245e:	4b18      	ldr	r3, [pc, #96]	@ (80024c0 <HAL_I2C_MspInit+0x88>)
 8002460:	6b1b      	ldr	r3, [r3, #48]	@ 0x30
 8002462:	4a17      	ldr	r2, [pc, #92]	@ (80024c0 <HAL_I2C_MspInit+0x88>)
 8002464:	f043 0302 	orr.w	r3, r3, #2
 8002468:	6313      	str	r3, [r2, #48]	@ 0x30
 800246a:	4b15      	ldr	r3, [pc, #84]	@ (80024c0 <HAL_I2C_MspInit+0x88>)
 800246c:	6b1b      	ldr	r3, [r3, #48]	@ 0x30
 800246e:	f003 0302 	and.w	r3, r3, #2
 8002472:	613b      	str	r3, [r7, #16]
 8002474:	693b      	ldr	r3, [r7, #16]
    /**I2C1 GPIO Configuration
    PB6     ------> I2C1_SCL
    PB7     ------> I2C1_SDA
    */
    GPIO_InitStruct.Pin = GPIO_PIN_6|GPIO_PIN_7;
 8002476:	23c0      	movs	r3, #192	@ 0xc0
 8002478:	617b      	str	r3, [r7, #20]
    GPIO_InitStruct.Mode = GPIO_MODE_AF_OD;
 800247a:	2312      	movs	r3, #18
 800247c:	61bb      	str	r3, [r7, #24]
    GPIO_InitStruct.Pull = GPIO_NOPULL;
 800247e:	2300      	movs	r3, #0
 8002480:	61fb      	str	r3, [r7, #28]
    GPIO_InitStruct.Speed = GPIO_SPEED_FREQ_VERY_HIGH;
 8002482:	2303      	movs	r3, #3
 8002484:	623b      	str	r3, [r7, #32]
    GPIO_InitStruct.Alternate = GPIO_AF4_I2C1;
 8002486:	2304      	movs	r3, #4
 8002488:	627b      	str	r3, [r7, #36]	@ 0x24
    HAL_GPIO_Init(GPIOB, &GPIO_InitStruct);
 800248a:	f107 0314 	add.w	r3, r7, #20
 800248e:	4619      	mov	r1, r3
 8002490:	480c      	ldr	r0, [pc, #48]	@ (80024c4 <HAL_I2C_MspInit+0x8c>)
 8002492:	f001 fe91 	bl	80041b8 <HAL_GPIO_Init>

    /* Peripheral clock enable */
    __HAL_RCC_I2C1_CLK_ENABLE();
 8002496:	2300      	movs	r3, #0
 8002498:	60fb      	str	r3, [r7, #12]
 800249a:	4b09      	ldr	r3, [pc, #36]	@ (80024c0 <HAL_I2C_MspInit+0x88>)
 800249c:	6c1b      	ldr	r3, [r3, #64]	@ 0x40
 800249e:	4a08      	ldr	r2, [pc, #32]	@ (80024c0 <HAL_I2C_MspInit+0x88>)
 80024a0:	f443 1300 	orr.w	r3, r3, #2097152	@ 0x200000
 80024a4:	6413      	str	r3, [r2, #64]	@ 0x40
 80024a6:	4b06      	ldr	r3, [pc, #24]	@ (80024c0 <HAL_I2C_MspInit+0x88>)
 80024a8:	6c1b      	ldr	r3, [r3, #64]	@ 0x40
 80024aa:	f403 1300 	and.w	r3, r3, #2097152	@ 0x200000
 80024ae:	60fb      	str	r3, [r7, #12]
 80024b0:	68fb      	ldr	r3, [r7, #12]

  /* USER CODE END I2C1_MspInit 1 */

  }

}
 80024b2:	bf00      	nop
 80024b4:	3728      	adds	r7, #40	@ 0x28
 80024b6:	46bd      	mov	sp, r7
 80024b8:	bd80      	pop	{r7, pc}
 80024ba:	bf00      	nop
 80024bc:	40005400 	.word	0x40005400
 80024c0:	40023800 	.word	0x40023800
 80024c4:	40020400 	.word	0x40020400

080024c8 <HAL_UART_MspInit>:
* This function configures the hardware resources used in this example
* @param huart: UART handle pointer
* @retval None
*/
void HAL_UART_MspInit(UART_HandleTypeDef* huart)
{
 80024c8:	b580      	push	{r7, lr}
 80024ca:	b08a      	sub	sp, #40	@ 0x28
 80024cc:	af00      	add	r7, sp, #0
 80024ce:	6078      	str	r0, [r7, #4]
  GPIO_InitTypeDef GPIO_InitStruct = {0};
 80024d0:	f107 0314 	add.w	r3, r7, #20
 80024d4:	2200      	movs	r2, #0
 80024d6:	601a      	str	r2, [r3, #0]
 80024d8:	605a      	str	r2, [r3, #4]
 80024da:	609a      	str	r2, [r3, #8]
 80024dc:	60da      	str	r2, [r3, #12]
 80024de:	611a      	str	r2, [r3, #16]
  if(huart->Instance==USART2)
 80024e0:	687b      	ldr	r3, [r7, #4]
 80024e2:	681b      	ldr	r3, [r3, #0]
 80024e4:	4a19      	ldr	r2, [pc, #100]	@ (800254c <HAL_UART_MspInit+0x84>)
 80024e6:	4293      	cmp	r3, r2
 80024e8:	d12b      	bne.n	8002542 <HAL_UART_MspInit+0x7a>
  {
  /* USER CODE BEGIN USART2_MspInit 0 */

  /* USER CODE END USART2_MspInit 0 */
    /* Peripheral clock enable */
    __HAL_RCC_USART2_CLK_ENABLE();
 80024ea:	2300      	movs	r3, #0
 80024ec:	613b      	str	r3, [r7, #16]
 80024ee:	4b18      	ldr	r3, [pc, #96]	@ (8002550 <HAL_UART_MspInit+0x88>)
 80024f0:	6c1b      	ldr	r3, [r3, #64]	@ 0x40
 80024f2:	4a17      	ldr	r2, [pc, #92]	@ (8002550 <HAL_UART_MspInit+0x88>)
 80024f4:	f443 3300 	orr.w	r3, r3, #131072	@ 0x20000
 80024f8:	6413      	str	r3, [r2, #64]	@ 0x40
 80024fa:	4b15      	ldr	r3, [pc, #84]	@ (8002550 <HAL_UART_MspInit+0x88>)
 80024fc:	6c1b      	ldr	r3, [r3, #64]	@ 0x40
 80024fe:	f403 3300 	and.w	r3, r3, #131072	@ 0x20000
 8002502:	613b      	str	r3, [r7, #16]
 8002504:	693b      	ldr	r3, [r7, #16]

    __HAL_RCC_GPIOA_CLK_ENABLE();
 8002506:	2300      	movs	r3, #0
 8002508:	60fb      	str	r3, [r7, #12]
 800250a:	4b11      	ldr	r3, [pc, #68]	@ (8002550 <HAL_UART_MspInit+0x88>)
 800250c:	6b1b      	ldr	r3, [r3, #48]	@ 0x30
 800250e:	4a10      	ldr	r2, [pc, #64]	@ (8002550 <HAL_UART_MspInit+0x88>)
 8002510:	f043 0301 	orr.w	r3, r3, #1
 8002514:	6313      	str	r3, [r2, #48]	@ 0x30
 8002516:	4b0e      	ldr	r3, [pc, #56]	@ (8002550 <HAL_UART_MspInit+0x88>)
 8002518:	6b1b      	ldr	r3, [r3, #48]	@ 0x30
 800251a:	f003 0301 	and.w	r3, r3, #1
 800251e:	60fb      	str	r3, [r7, #12]
 8002520:	68fb      	ldr	r3, [r7, #12]
    /**USART2 GPIO Configuration
    PA2     ------> USART2_TX
    PA3     ------> USART2_RX
    */
    GPIO_InitStruct.Pin = USART_TX_Pin|USART_RX_Pin;
 8002522:	230c      	movs	r3, #12
 8002524:	617b      	str	r3, [r7, #20]
    GPIO_InitStruct.Mode = GPIO_MODE_AF_PP;
 8002526:	2302      	movs	r3, #2
 8002528:	61bb      	str	r3, [r7, #24]
    GPIO_InitStruct.Pull = GPIO_NOPULL;
 800252a:	2300      	movs	r3, #0
 800252c:	61fb      	str	r3, [r7, #28]
    GPIO_InitStruct.Speed = GPIO_SPEED_FREQ_VERY_HIGH;
 800252e:	2303      	movs	r3, #3
 8002530:	623b      	str	r3, [r7, #32]
    GPIO_InitStruct.Alternate = GPIO_AF7_USART2;
 8002532:	2307      	movs	r3, #7
 8002534:	627b      	str	r3, [r7, #36]	@ 0x24
    HAL_GPIO_Init(GPIOA, &GPIO_InitStruct);
 8002536:	f107 0314 	add.w	r3, r7, #20
 800253a:	4619      	mov	r1, r3
 800253c:	4805      	ldr	r0, [pc, #20]	@ (8002554 <HAL_UART_MspInit+0x8c>)
 800253e:	f001 fe3b 	bl	80041b8 <HAL_GPIO_Init>

  /* USER CODE END USART2_MspInit 1 */

  }

}
 8002542:	bf00      	nop
 8002544:	3728      	adds	r7, #40	@ 0x28
 8002546:	46bd      	mov	sp, r7
 8002548:	bd80      	pop	{r7, pc}
 800254a:	bf00      	nop
 800254c:	40004400 	.word	0x40004400
 8002550:	40023800 	.word	0x40023800
 8002554:	40020000 	.word	0x40020000

08002558 <NMI_Handler>:
/******************************************************************************/
/**
  * @brief This function handles Non maskable interrupt.
  */
void NMI_Handler(void)
{
 8002558:	b480      	push	{r7}
 800255a:	af00      	add	r7, sp, #0
  /* USER CODE BEGIN NonMaskableInt_IRQn 0 */

  /* USER CODE END NonMaskableInt_IRQn 0 */
  /* USER CODE BEGIN NonMaskableInt_IRQn 1 */
   while (1)
 800255c:	bf00      	nop
 800255e:	e7fd      	b.n	800255c <NMI_Handler+0x4>

08002560 <HardFault_Handler>:

/**
  * @brief This function handles Hard fault interrupt.
  */
void HardFault_Handler(void)
{
 8002560:	b480      	push	{r7}
 8002562:	af00      	add	r7, sp, #0
  /* USER CODE BEGIN HardFault_IRQn 0 */

  /* USER CODE END HardFault_IRQn 0 */
  while (1)
 8002564:	bf00      	nop
 8002566:	e7fd      	b.n	8002564 <HardFault_Handler+0x4>

08002568 <MemManage_Handler>:

/**
  * @brief This function handles Memory management fault.
  */
void MemManage_Handler(void)
{
 8002568:	b480      	push	{r7}
 800256a:	af00      	add	r7, sp, #0
  /* USER CODE BEGIN MemoryManagement_IRQn 0 */

  /* USER CODE END MemoryManagement_IRQn 0 */
  while (1)
 800256c:	bf00      	nop
 800256e:	e7fd      	b.n	800256c <MemManage_Handler+0x4>

08002570 <BusFault_Handler>:

/**
  * @brief This function handles Pre-fetch fault, memory access fault.
  */
void BusFault_Handler(void)
{
 8002570:	b480      	push	{r7}
 8002572:	af00      	add	r7, sp, #0
  /* USER CODE BEGIN BusFault_IRQn 0 */

  /* USER CODE END BusFault_IRQn 0 */
  while (1)
 8002574:	bf00      	nop
 8002576:	e7fd      	b.n	8002574 <BusFault_Handler+0x4>

08002578 <UsageFault_Handler>:

/**
  * @brief This function handles Undefined instruction or illegal state.
  */
void UsageFault_Handler(void)
{
 8002578:	b480      	push	{r7}
 800257a:	af00      	add	r7, sp, #0
  /* USER CODE BEGIN UsageFault_IRQn 0 */

  /* USER CODE END UsageFault_IRQn 0 */
  while (1)
 800257c:	bf00      	nop
 800257e:	e7fd      	b.n	800257c <UsageFault_Handler+0x4>

08002580 <SVC_Handler>:

/**
  * @brief This function handles System service call via SWI instruction.
  */
void SVC_Handler(void)
{
 8002580:	b480      	push	{r7}
 8002582:	af00      	add	r7, sp, #0

  /* USER CODE END SVCall_IRQn 0 */
  /* USER CODE BEGIN SVCall_IRQn 1 */

  /* USER CODE END SVCall_IRQn 1 */
}
 8002584:	bf00      	nop
 8002586:	46bd      	mov	sp, r7
 8002588:	f85d 7b04 	ldr.w	r7, [sp], #4
 800258c:	4770      	bx	lr

0800258e <DebugMon_Handler>:

/**
  * @brief This function handles Debug monitor.
  */
void DebugMon_Handler(void)
{
 800258e:	b480      	push	{r7}
 8002590:	af00      	add	r7, sp, #0

  /* USER CODE END DebugMonitor_IRQn 0 */
  /* USER CODE BEGIN DebugMonitor_IRQn 1 */

  /* USER CODE END DebugMonitor_IRQn 1 */
}
 8002592:	bf00      	nop
 8002594:	46bd      	mov	sp, r7
 8002596:	f85d 7b04 	ldr.w	r7, [sp], #4
 800259a:	4770      	bx	lr

0800259c <PendSV_Handler>:

/**
  * @brief This function handles Pendable request for system service.
  */
void PendSV_Handler(void)
{
 800259c:	b480      	push	{r7}
 800259e:	af00      	add	r7, sp, #0

  /* USER CODE END PendSV_IRQn 0 */
  /* USER CODE BEGIN PendSV_IRQn 1 */

  /* USER CODE END PendSV_IRQn 1 */
}
 80025a0:	bf00      	nop
 80025a2:	46bd      	mov	sp, r7
 80025a4:	f85d 7b04 	ldr.w	r7, [sp], #4
 80025a8:	4770      	bx	lr

080025aa <SysTick_Handler>:

/**
  * @brief This function handles System tick timer.
  */
void SysTick_Handler(void)
{
 80025aa:	b580      	push	{r7, lr}
 80025ac:	af00      	add	r7, sp, #0
  /* USER CODE BEGIN SysTick_IRQn 0 */

  /* USER CODE END SysTick_IRQn 0 */
  HAL_IncTick();
 80025ae:	f000 f96b 	bl	8002888 <HAL_IncTick>
  /* USER CODE BEGIN SysTick_IRQn 1 */

  /* USER CODE END SysTick_IRQn 1 */
}
 80025b2:	bf00      	nop
 80025b4:	bd80      	pop	{r7, pc}
	...

080025b8 <CAN1_RX0_IRQHandler>:

/**
  * @brief This function handles CAN1 RX0 interrupt.
  */
void CAN1_RX0_IRQHandler(void)
{
 80025b8:	b580      	push	{r7, lr}
 80025ba:	af00      	add	r7, sp, #0
  /* USER CODE BEGIN CAN1_RX0_IRQn 0 */

  /* USER CODE END CAN1_RX0_IRQn 0 */
  HAL_CAN_IRQHandler(&hcan1);
 80025bc:	4802      	ldr	r0, [pc, #8]	@ (80025c8 <CAN1_RX0_IRQHandler+0x10>)
 80025be:	f001 faba 	bl	8003b36 <HAL_CAN_IRQHandler>
  /* USER CODE BEGIN CAN1_RX0_IRQn 1 */

  /* USER CODE END CAN1_RX0_IRQn 1 */
}
 80025c2:	bf00      	nop
 80025c4:	bd80      	pop	{r7, pc}
 80025c6:	bf00      	nop
 80025c8:	200002b8 	.word	0x200002b8

080025cc <CAN1_RX1_IRQHandler>:

/**
  * @brief This function handles CAN1 RX1 interrupt.
  */
void CAN1_RX1_IRQHandler(void)
{
 80025cc:	b580      	push	{r7, lr}
 80025ce:	af00      	add	r7, sp, #0
  /* USER CODE BEGIN CAN1_RX1_IRQn 0 */

  /* USER CODE END CAN1_RX1_IRQn 0 */
  HAL_CAN_IRQHandler(&hcan1);
 80025d0:	4802      	ldr	r0, [pc, #8]	@ (80025dc <CAN1_RX1_IRQHandler+0x10>)
 80025d2:	f001 fab0 	bl	8003b36 <HAL_CAN_IRQHandler>
  /* USER CODE BEGIN CAN1_RX1_IRQn 1 */

  /* USER CODE END CAN1_RX1_IRQn 1 */
}
 80025d6:	bf00      	nop
 80025d8:	bd80      	pop	{r7, pc}
 80025da:	bf00      	nop
 80025dc:	200002b8 	.word	0x200002b8

080025e0 <_getpid>:
void initialise_monitor_handles()
{
}

int _getpid(void)
{
 80025e0:	b480      	push	{r7}
 80025e2:	af00      	add	r7, sp, #0
  return 1;
 80025e4:	2301      	movs	r3, #1
}
 80025e6:	4618      	mov	r0, r3
 80025e8:	46bd      	mov	sp, r7
 80025ea:	f85d 7b04 	ldr.w	r7, [sp], #4
 80025ee:	4770      	bx	lr

080025f0 <_kill>:

int _kill(int pid, int sig)
{
 80025f0:	b580      	push	{r7, lr}
 80025f2:	b082      	sub	sp, #8
 80025f4:	af00      	add	r7, sp, #0
 80025f6:	6078      	str	r0, [r7, #4]
 80025f8:	6039      	str	r1, [r7, #0]
  (void)pid;
  (void)sig;
  errno = EINVAL;
 80025fa:	f004 f859 	bl	80066b0 <__errno>
 80025fe:	4603      	mov	r3, r0
 8002600:	2216      	movs	r2, #22
 8002602:	601a      	str	r2, [r3, #0]
  return -1;
 8002604:	f04f 33ff 	mov.w	r3, #4294967295	@ 0xffffffff
}
 8002608:	4618      	mov	r0, r3
 800260a:	3708      	adds	r7, #8
 800260c:	46bd      	mov	sp, r7
 800260e:	bd80      	pop	{r7, pc}

08002610 <_exit>:

void _exit (int status)
{
 8002610:	b580      	push	{r7, lr}
 8002612:	b082      	sub	sp, #8
 8002614:	af00      	add	r7, sp, #0
 8002616:	6078      	str	r0, [r7, #4]
  _kill(status, -1);
 8002618:	f04f 31ff 	mov.w	r1, #4294967295	@ 0xffffffff
 800261c:	6878      	ldr	r0, [r7, #4]
 800261e:	f7ff ffe7 	bl	80025f0 <_kill>
  while (1) {}    /* Make sure we hang here */
 8002622:	bf00      	nop
 8002624:	e7fd      	b.n	8002622 <_exit+0x12>

08002626 <_read>:
}

__attribute__((weak)) int _read(int file, char *ptr, int len)
{
 8002626:	b580      	push	{r7, lr}
 8002628:	b086      	sub	sp, #24
 800262a:	af00      	add	r7, sp, #0
 800262c:	60f8      	str	r0, [r7, #12]
 800262e:	60b9      	str	r1, [r7, #8]
 8002630:	607a      	str	r2, [r7, #4]
  (void)file;
  int DataIdx;

  for (DataIdx = 0; DataIdx < len; DataIdx++)
 8002632:	2300      	movs	r3, #0
 8002634:	617b      	str	r3, [r7, #20]
 8002636:	e00a      	b.n	800264e <_read+0x28>
  {
    *ptr++ = __io_getchar();
 8002638:	f3af 8000 	nop.w
 800263c:	4601      	mov	r1, r0
 800263e:	68bb      	ldr	r3, [r7, #8]
 8002640:	1c5a      	adds	r2, r3, #1
 8002642:	60ba      	str	r2, [r7, #8]
 8002644:	b2ca      	uxtb	r2, r1
 8002646:	701a      	strb	r2, [r3, #0]
  for (DataIdx = 0; DataIdx < len; DataIdx++)
 8002648:	697b      	ldr	r3, [r7, #20]
 800264a:	3301      	adds	r3, #1
 800264c:	617b      	str	r3, [r7, #20]
 800264e:	697a      	ldr	r2, [r7, #20]
 8002650:	687b      	ldr	r3, [r7, #4]
 8002652:	429a      	cmp	r2, r3
 8002654:	dbf0      	blt.n	8002638 <_read+0x12>
  }

  return len;
 8002656:	687b      	ldr	r3, [r7, #4]
}
 8002658:	4618      	mov	r0, r3
 800265a:	3718      	adds	r7, #24
 800265c:	46bd      	mov	sp, r7
 800265e:	bd80      	pop	{r7, pc}

08002660 <_write>:

__attribute__((weak)) int _write(int file, char *ptr, int len)
{
 8002660:	b580      	push	{r7, lr}
 8002662:	b086      	sub	sp, #24
 8002664:	af00      	add	r7, sp, #0
 8002666:	60f8      	str	r0, [r7, #12]
 8002668:	60b9      	str	r1, [r7, #8]
 800266a:	607a      	str	r2, [r7, #4]
  (void)file;
  int DataIdx;

  for (DataIdx = 0; DataIdx < len; DataIdx++)
 800266c:	2300      	movs	r3, #0
 800266e:	617b      	str	r3, [r7, #20]
 8002670:	e009      	b.n	8002686 <_write+0x26>
  {
    __io_putchar(*ptr++);
 8002672:	68bb      	ldr	r3, [r7, #8]
 8002674:	1c5a      	adds	r2, r3, #1
 8002676:	60ba      	str	r2, [r7, #8]
 8002678:	781b      	ldrb	r3, [r3, #0]
 800267a:	4618      	mov	r0, r3
 800267c:	f3af 8000 	nop.w
  for (DataIdx = 0; DataIdx < len; DataIdx++)
 8002680:	697b      	ldr	r3, [r7, #20]
 8002682:	3301      	adds	r3, #1
 8002684:	617b      	str	r3, [r7, #20]
 8002686:	697a      	ldr	r2, [r7, #20]
 8002688:	687b      	ldr	r3, [r7, #4]
 800268a:	429a      	cmp	r2, r3
 800268c:	dbf1      	blt.n	8002672 <_write+0x12>
  }
  return len;
 800268e:	687b      	ldr	r3, [r7, #4]
}
 8002690:	4618      	mov	r0, r3
 8002692:	3718      	adds	r7, #24
 8002694:	46bd      	mov	sp, r7
 8002696:	bd80      	pop	{r7, pc}

08002698 <_close>:

int _close(int file)
{
 8002698:	b480      	push	{r7}
 800269a:	b083      	sub	sp, #12
 800269c:	af00      	add	r7, sp, #0
 800269e:	6078      	str	r0, [r7, #4]
  (void)file;
  return -1;
 80026a0:	f04f 33ff 	mov.w	r3, #4294967295	@ 0xffffffff
}
 80026a4:	4618      	mov	r0, r3
 80026a6:	370c      	adds	r7, #12
 80026a8:	46bd      	mov	sp, r7
 80026aa:	f85d 7b04 	ldr.w	r7, [sp], #4
 80026ae:	4770      	bx	lr

080026b0 <_fstat>:


int _fstat(int file, struct stat *st)
{
 80026b0:	b480      	push	{r7}
 80026b2:	b083      	sub	sp, #12
 80026b4:	af00      	add	r7, sp, #0
 80026b6:	6078      	str	r0, [r7, #4]
 80026b8:	6039      	str	r1, [r7, #0]
  (void)file;
  st->st_mode = S_IFCHR;
 80026ba:	683b      	ldr	r3, [r7, #0]
 80026bc:	f44f 5200 	mov.w	r2, #8192	@ 0x2000
 80026c0:	605a      	str	r2, [r3, #4]
  return 0;
 80026c2:	2300      	movs	r3, #0
}
 80026c4:	4618      	mov	r0, r3
 80026c6:	370c      	adds	r7, #12
 80026c8:	46bd      	mov	sp, r7
 80026ca:	f85d 7b04 	ldr.w	r7, [sp], #4
 80026ce:	4770      	bx	lr

080026d0 <_isatty>:

int _isatty(int file)
{
 80026d0:	b480      	push	{r7}
 80026d2:	b083      	sub	sp, #12
 80026d4:	af00      	add	r7, sp, #0
 80026d6:	6078      	str	r0, [r7, #4]
  (void)file;
  return 1;
 80026d8:	2301      	movs	r3, #1
}
 80026da:	4618      	mov	r0, r3
 80026dc:	370c      	adds	r7, #12
 80026de:	46bd      	mov	sp, r7
 80026e0:	f85d 7b04 	ldr.w	r7, [sp], #4
 80026e4:	4770      	bx	lr

080026e6 <_lseek>:

int _lseek(int file, int ptr, int dir)
{
 80026e6:	b480      	push	{r7}
 80026e8:	b085      	sub	sp, #20
 80026ea:	af00      	add	r7, sp, #0
 80026ec:	60f8      	str	r0, [r7, #12]
 80026ee:	60b9      	str	r1, [r7, #8]
 80026f0:	607a      	str	r2, [r7, #4]
  (void)file;
  (void)ptr;
  (void)dir;
  return 0;
 80026f2:	2300      	movs	r3, #0
}
 80026f4:	4618      	mov	r0, r3
 80026f6:	3714      	adds	r7, #20
 80026f8:	46bd      	mov	sp, r7
 80026fa:	f85d 7b04 	ldr.w	r7, [sp], #4
 80026fe:	4770      	bx	lr

08002700 <_sbrk>:
 *
 * @param incr Memory size
 * @return Pointer to allocated memory
 */
void *_sbrk(ptrdiff_t incr)
{
 8002700:	b580      	push	{r7, lr}
 8002702:	b086      	sub	sp, #24
 8002704:	af00      	add	r7, sp, #0
 8002706:	6078      	str	r0, [r7, #4]
  extern uint8_t _end; /* Symbol defined in the linker script */
  extern uint8_t _estack; /* Symbol defined in the linker script */
  extern uint32_t _Min_Stack_Size; /* Symbol defined in the linker script */
  const uint32_t stack_limit = (uint32_t)&_estack - (uint32_t)&_Min_Stack_Size;
 8002708:	4a14      	ldr	r2, [pc, #80]	@ (800275c <_sbrk+0x5c>)
 800270a:	4b15      	ldr	r3, [pc, #84]	@ (8002760 <_sbrk+0x60>)
 800270c:	1ad3      	subs	r3, r2, r3
 800270e:	617b      	str	r3, [r7, #20]
  const uint8_t *max_heap = (uint8_t *)stack_limit;
 8002710:	697b      	ldr	r3, [r7, #20]
 8002712:	613b      	str	r3, [r7, #16]
  uint8_t *prev_heap_end;

  /* Initialize heap end at first call */
  if (NULL == __sbrk_heap_end)
 8002714:	4b13      	ldr	r3, [pc, #76]	@ (8002764 <_sbrk+0x64>)
 8002716:	681b      	ldr	r3, [r3, #0]
 8002718:	2b00      	cmp	r3, #0
 800271a:	d102      	bne.n	8002722 <_sbrk+0x22>
  {
    __sbrk_heap_end = &_end;
 800271c:	4b11      	ldr	r3, [pc, #68]	@ (8002764 <_sbrk+0x64>)
 800271e:	4a12      	ldr	r2, [pc, #72]	@ (8002768 <_sbrk+0x68>)
 8002720:	601a      	str	r2, [r3, #0]
  }

  /* Protect heap from growing into the reserved MSP stack */
  if (__sbrk_heap_end + incr > max_heap)
 8002722:	4b10      	ldr	r3, [pc, #64]	@ (8002764 <_sbrk+0x64>)
 8002724:	681a      	ldr	r2, [r3, #0]
 8002726:	687b      	ldr	r3, [r7, #4]
 8002728:	4413      	add	r3, r2
 800272a:	693a      	ldr	r2, [r7, #16]
 800272c:	429a      	cmp	r2, r3
 800272e:	d207      	bcs.n	8002740 <_sbrk+0x40>
  {
    errno = ENOMEM;
 8002730:	f003 ffbe 	bl	80066b0 <__errno>
 8002734:	4603      	mov	r3, r0
 8002736:	220c      	movs	r2, #12
 8002738:	601a      	str	r2, [r3, #0]
    return (void *)-1;
 800273a:	f04f 33ff 	mov.w	r3, #4294967295	@ 0xffffffff
 800273e:	e009      	b.n	8002754 <_sbrk+0x54>
  }

  prev_heap_end = __sbrk_heap_end;
 8002740:	4b08      	ldr	r3, [pc, #32]	@ (8002764 <_sbrk+0x64>)
 8002742:	681b      	ldr	r3, [r3, #0]
 8002744:	60fb      	str	r3, [r7, #12]
  __sbrk_heap_end += incr;
 8002746:	4b07      	ldr	r3, [pc, #28]	@ (8002764 <_sbrk+0x64>)
 8002748:	681a      	ldr	r2, [r3, #0]
 800274a:	687b      	ldr	r3, [r7, #4]
 800274c:	4413      	add	r3, r2
 800274e:	4a05      	ldr	r2, [pc, #20]	@ (8002764 <_sbrk+0x64>)
 8002750:	6013      	str	r3, [r2, #0]

  return (void *)prev_heap_end;
 8002752:	68fb      	ldr	r3, [r7, #12]
}
 8002754:	4618      	mov	r0, r3
 8002756:	3718      	adds	r7, #24
 8002758:	46bd      	mov	sp, r7
 800275a:	bd80      	pop	{r7, pc}
 800275c:	20020000 	.word	0x20020000
 8002760:	00000400 	.word	0x00000400
 8002764:	2000037c 	.word	0x2000037c
 8002768:	200004d0 	.word	0x200004d0

0800276c <SystemInit>:
  *         configuration.
  * @param  None
  * @retval None
  */
void SystemInit(void)
{
 800276c:	b480      	push	{r7}
 800276e:	af00      	add	r7, sp, #0
  /* FPU settings ------------------------------------------------------------*/
  #if (__FPU_PRESENT == 1) && (__FPU_USED == 1)
    SCB->CPACR |= ((3UL << 10*2)|(3UL << 11*2));  /* set CP10 and CP11 Full Access */
 8002770:	4b06      	ldr	r3, [pc, #24]	@ (800278c <SystemInit+0x20>)
 8002772:	f8d3 3088 	ldr.w	r3, [r3, #136]	@ 0x88
 8002776:	4a05      	ldr	r2, [pc, #20]	@ (800278c <SystemInit+0x20>)
 8002778:	f443 0370 	orr.w	r3, r3, #15728640	@ 0xf00000
 800277c:	f8c2 3088 	str.w	r3, [r2, #136]	@ 0x88

  /* Configure the Vector Table location -------------------------------------*/
#if defined(USER_VECT_TAB_ADDRESS)
  SCB->VTOR = VECT_TAB_BASE_ADDRESS | VECT_TAB_OFFSET; /* Vector Table Relocation in Internal SRAM */
#endif /* USER_VECT_TAB_ADDRESS */
}
 8002780:	bf00      	nop
 8002782:	46bd      	mov	sp, r7
 8002784:	f85d 7b04 	ldr.w	r7, [sp], #4
 8002788:	4770      	bx	lr
 800278a:	bf00      	nop
 800278c:	e000ed00 	.word	0xe000ed00

08002790 <Reset_Handler>:

    .section  .text.Reset_Handler
  .weak  Reset_Handler
  .type  Reset_Handler, %function
Reset_Handler:  
  ldr   sp, =_estack      /* set stack pointer */
 8002790:	f8df d034 	ldr.w	sp, [pc, #52]	@ 80027c8 <LoopFillZerobss+0xe>
  
/* Call the clock system initialization function.*/
  bl  SystemInit  
 8002794:	f7ff ffea 	bl	800276c <SystemInit>

/* Copy the data segment initializers from flash to SRAM */  
  ldr r0, =_sdata
 8002798:	480c      	ldr	r0, [pc, #48]	@ (80027cc <LoopFillZerobss+0x12>)
  ldr r1, =_edata
 800279a:	490d      	ldr	r1, [pc, #52]	@ (80027d0 <LoopFillZerobss+0x16>)
  ldr r2, =_sidata
 800279c:	4a0d      	ldr	r2, [pc, #52]	@ (80027d4 <LoopFillZerobss+0x1a>)
  movs r3, #0
 800279e:	2300      	movs	r3, #0
  b LoopCopyDataInit
 80027a0:	e002      	b.n	80027a8 <LoopCopyDataInit>

080027a2 <CopyDataInit>:

CopyDataInit:
  ldr r4, [r2, r3]
 80027a2:	58d4      	ldr	r4, [r2, r3]
  str r4, [r0, r3]
 80027a4:	50c4      	str	r4, [r0, r3]
  adds r3, r3, #4
 80027a6:	3304      	adds	r3, #4

080027a8 <LoopCopyDataInit>:

LoopCopyDataInit:
  adds r4, r0, r3
 80027a8:	18c4      	adds	r4, r0, r3
  cmp r4, r1
 80027aa:	428c      	cmp	r4, r1
  bcc CopyDataInit
 80027ac:	d3f9      	bcc.n	80027a2 <CopyDataInit>
  
/* Zero fill the bss segment. */
  ldr r2, =_sbss
 80027ae:	4a0a      	ldr	r2, [pc, #40]	@ (80027d8 <LoopFillZerobss+0x1e>)
  ldr r4, =_ebss
 80027b0:	4c0a      	ldr	r4, [pc, #40]	@ (80027dc <LoopFillZerobss+0x22>)
  movs r3, #0
 80027b2:	2300      	movs	r3, #0
  b LoopFillZerobss
 80027b4:	e001      	b.n	80027ba <LoopFillZerobss>

080027b6 <FillZerobss>:

FillZerobss:
  str  r3, [r2]
 80027b6:	6013      	str	r3, [r2, #0]
  adds r2, r2, #4
 80027b8:	3204      	adds	r2, #4

080027ba <LoopFillZerobss>:

LoopFillZerobss:
  cmp r2, r4
 80027ba:	42a2      	cmp	r2, r4
  bcc FillZerobss
 80027bc:	d3fb      	bcc.n	80027b6 <FillZerobss>
  
/* Call static constructors */
    bl __libc_init_array
 80027be:	f003 ff7d 	bl	80066bc <__libc_init_array>
/* Call the application's entry point.*/
  bl  main
 80027c2:	f7ff fb7d 	bl	8001ec0 <main>
  bx  lr    
 80027c6:	4770      	bx	lr
  ldr   sp, =_estack      /* set stack pointer */
 80027c8:	20020000 	.word	0x20020000
  ldr r0, =_sdata
 80027cc:	20000000 	.word	0x20000000
  ldr r1, =_edata
 80027d0:	200001e8 	.word	0x200001e8
  ldr r2, =_sidata
 80027d4:	08009cb8 	.word	0x08009cb8
  ldr r2, =_sbss
 80027d8:	200001e8 	.word	0x200001e8
  ldr r4, =_ebss
 80027dc:	200004d0 	.word	0x200004d0

080027e0 <ADC_IRQHandler>:
 * @retval None       
*/
    .section  .text.Default_Handler,"ax",%progbits
Default_Handler:
Infinite_Loop:
  b  Infinite_Loop
 80027e0:	e7fe      	b.n	80027e0 <ADC_IRQHandler>
	...

080027e4 <HAL_Init>:
  *         need to ensure that the SysTick time base is always set to 1 millisecond
  *         to have correct HAL operation.
  * @retval HAL status
  */
HAL_StatusTypeDef HAL_Init(void)
{
 80027e4:	b580      	push	{r7, lr}
 80027e6:	af00      	add	r7, sp, #0
  /* Configure Flash prefetch, Instruction cache, Data cache */ 
#if (INSTRUCTION_CACHE_ENABLE != 0U)
  __HAL_FLASH_INSTRUCTION_CACHE_ENABLE();
 80027e8:	4b0e      	ldr	r3, [pc, #56]	@ (8002824 <HAL_Init+0x40>)
 80027ea:	681b      	ldr	r3, [r3, #0]
 80027ec:	4a0d      	ldr	r2, [pc, #52]	@ (8002824 <HAL_Init+0x40>)
 80027ee:	f443 7300 	orr.w	r3, r3, #512	@ 0x200
 80027f2:	6013      	str	r3, [r2, #0]
#endif /* INSTRUCTION_CACHE_ENABLE */

#if (DATA_CACHE_ENABLE != 0U)
  __HAL_FLASH_DATA_CACHE_ENABLE();
 80027f4:	4b0b      	ldr	r3, [pc, #44]	@ (8002824 <HAL_Init+0x40>)
 80027f6:	681b      	ldr	r3, [r3, #0]
 80027f8:	4a0a      	ldr	r2, [pc, #40]	@ (8002824 <HAL_Init+0x40>)
 80027fa:	f443 6380 	orr.w	r3, r3, #1024	@ 0x400
 80027fe:	6013      	str	r3, [r2, #0]
#endif /* DATA_CACHE_ENABLE */

#if (PREFETCH_ENABLE != 0U)
  __HAL_FLASH_PREFETCH_BUFFER_ENABLE();
 8002800:	4b08      	ldr	r3, [pc, #32]	@ (8002824 <HAL_Init+0x40>)
 8002802:	681b      	ldr	r3, [r3, #0]
 8002804:	4a07      	ldr	r2, [pc, #28]	@ (8002824 <HAL_Init+0x40>)
 8002806:	f443 7380 	orr.w	r3, r3, #256	@ 0x100
 800280a:	6013      	str	r3, [r2, #0]
#endif /* PREFETCH_ENABLE */

  /* Set Interrupt Group Priority */
  HAL_NVIC_SetPriorityGrouping(NVIC_PRIORITYGROUP_4);
 800280c:	2003      	movs	r0, #3
 800280e:	f001 fc91 	bl	8004134 <HAL_NVIC_SetPriorityGrouping>

  /* Use systick as time base source and configure 1ms tick (default clock after Reset is HSI) */
  HAL_InitTick(TICK_INT_PRIORITY);
 8002812:	2000      	movs	r0, #0
 8002814:	f000 f808 	bl	8002828 <HAL_InitTick>

  /* Init the low level hardware */
  HAL_MspInit();
 8002818:	f7ff fd2e 	bl	8002278 <HAL_MspInit>

  /* Return function status */
  return HAL_OK;
 800281c:	2300      	movs	r3, #0
}
 800281e:	4618      	mov	r0, r3
 8002820:	bd80      	pop	{r7, pc}
 8002822:	bf00      	nop
 8002824:	40023c00 	.word	0x40023c00

08002828 <HAL_InitTick>:
  *       implementation  in user file.
  * @param TickPriority Tick interrupt priority.
  * @retval HAL status
  */
__weak HAL_StatusTypeDef HAL_InitTick(uint32_t TickPriority)
{
 8002828:	b580      	push	{r7, lr}
 800282a:	b082      	sub	sp, #8
 800282c:	af00      	add	r7, sp, #0
 800282e:	6078      	str	r0, [r7, #4]
  /* Configure the SysTick to have interrupt in 1ms time basis*/
  if (HAL_SYSTICK_Config(SystemCoreClock / (1000U / uwTickFreq)) > 0U)
 8002830:	4b12      	ldr	r3, [pc, #72]	@ (800287c <HAL_InitTick+0x54>)
 8002832:	681a      	ldr	r2, [r3, #0]
 8002834:	4b12      	ldr	r3, [pc, #72]	@ (8002880 <HAL_InitTick+0x58>)
 8002836:	781b      	ldrb	r3, [r3, #0]
 8002838:	4619      	mov	r1, r3
 800283a:	f44f 737a 	mov.w	r3, #1000	@ 0x3e8
 800283e:	fbb3 f3f1 	udiv	r3, r3, r1
 8002842:	fbb2 f3f3 	udiv	r3, r2, r3
 8002846:	4618      	mov	r0, r3
 8002848:	f001 fca9 	bl	800419e <HAL_SYSTICK_Config>
 800284c:	4603      	mov	r3, r0
 800284e:	2b00      	cmp	r3, #0
 8002850:	d001      	beq.n	8002856 <HAL_InitTick+0x2e>
  {
    return HAL_ERROR;
 8002852:	2301      	movs	r3, #1
 8002854:	e00e      	b.n	8002874 <HAL_InitTick+0x4c>
  }

  /* Configure the SysTick IRQ priority */
  if (TickPriority < (1UL << __NVIC_PRIO_BITS))
 8002856:	687b      	ldr	r3, [r7, #4]
 8002858:	2b0f      	cmp	r3, #15
 800285a:	d80a      	bhi.n	8002872 <HAL_InitTick+0x4a>
  {
    HAL_NVIC_SetPriority(SysTick_IRQn, TickPriority, 0U);
 800285c:	2200      	movs	r2, #0
 800285e:	6879      	ldr	r1, [r7, #4]
 8002860:	f04f 30ff 	mov.w	r0, #4294967295	@ 0xffffffff
 8002864:	f001 fc71 	bl	800414a <HAL_NVIC_SetPriority>
    uwTickPrio = TickPriority;
 8002868:	4a06      	ldr	r2, [pc, #24]	@ (8002884 <HAL_InitTick+0x5c>)
 800286a:	687b      	ldr	r3, [r7, #4]
 800286c:	6013      	str	r3, [r2, #0]
  {
    return HAL_ERROR;
  }

  /* Return function status */
  return HAL_OK;
 800286e:	2300      	movs	r3, #0
 8002870:	e000      	b.n	8002874 <HAL_InitTick+0x4c>
    return HAL_ERROR;
 8002872:	2301      	movs	r3, #1
}
 8002874:	4618      	mov	r0, r3
 8002876:	3708      	adds	r7, #8
 8002878:	46bd      	mov	sp, r7
 800287a:	bd80      	pop	{r7, pc}
 800287c:	20000000 	.word	0x20000000
 8002880:	20000008 	.word	0x20000008
 8002884:	20000004 	.word	0x20000004

08002888 <HAL_IncTick>:
 * @note This function is declared as __weak to be overwritten in case of other 
  *      implementations in user file.
  * @retval None
  */
__weak void HAL_IncTick(void)
{
 8002888:	b480      	push	{r7}
 800288a:	af00      	add	r7, sp, #0
  uwTick += uwTickFreq;
 800288c:	4b06      	ldr	r3, [pc, #24]	@ (80028a8 <HAL_IncTick+0x20>)
 800288e:	781b      	ldrb	r3, [r3, #0]
 8002890:	461a      	mov	r2, r3
 8002892:	4b06      	ldr	r3, [pc, #24]	@ (80028ac <HAL_IncTick+0x24>)
 8002894:	681b      	ldr	r3, [r3, #0]
 8002896:	4413      	add	r3, r2
 8002898:	4a04      	ldr	r2, [pc, #16]	@ (80028ac <HAL_IncTick+0x24>)
 800289a:	6013      	str	r3, [r2, #0]
}
 800289c:	bf00      	nop
 800289e:	46bd      	mov	sp, r7
 80028a0:	f85d 7b04 	ldr.w	r7, [sp], #4
 80028a4:	4770      	bx	lr
 80028a6:	bf00      	nop
 80028a8:	20000008 	.word	0x20000008
 80028ac:	20000380 	.word	0x20000380

080028b0 <HAL_GetTick>:
  * @note This function is declared as __weak to be overwritten in case of other 
  *       implementations in user file.
  * @retval tick value
  */
__weak uint32_t HAL_GetTick(void)
{
 80028b0:	b480      	push	{r7}
 80028b2:	af00      	add	r7, sp, #0
  return uwTick;
 80028b4:	4b03      	ldr	r3, [pc, #12]	@ (80028c4 <HAL_GetTick+0x14>)
 80028b6:	681b      	ldr	r3, [r3, #0]
}
 80028b8:	4618      	mov	r0, r3
 80028ba:	46bd      	mov	sp, r7
 80028bc:	f85d 7b04 	ldr.w	r7, [sp], #4
 80028c0:	4770      	bx	lr
 80028c2:	bf00      	nop
 80028c4:	20000380 	.word	0x20000380

080028c8 <HAL_Delay>:
  *       implementations in user file.
  * @param Delay specifies the delay time length, in milliseconds.
  * @retval None
  */
__weak void HAL_Delay(uint32_t Delay)
{
 80028c8:	b580      	push	{r7, lr}
 80028ca:	b084      	sub	sp, #16
 80028cc:	af00      	add	r7, sp, #0
 80028ce:	6078      	str	r0, [r7, #4]
  uint32_t tickstart = HAL_GetTick();
 80028d0:	f7ff ffee 	bl	80028b0 <HAL_GetTick>
 80028d4:	60b8      	str	r0, [r7, #8]
  uint32_t wait = Delay;
 80028d6:	687b      	ldr	r3, [r7, #4]
 80028d8:	60fb      	str	r3, [r7, #12]

  /* Add a freq to guarantee minimum wait */
  if (wait < HAL_MAX_DELAY)
 80028da:	68fb      	ldr	r3, [r7, #12]
 80028dc:	f1b3 3fff 	cmp.w	r3, #4294967295	@ 0xffffffff
 80028e0:	d005      	beq.n	80028ee <HAL_Delay+0x26>
  {
    wait += (uint32_t)(uwTickFreq);
 80028e2:	4b0a      	ldr	r3, [pc, #40]	@ (800290c <HAL_Delay+0x44>)
 80028e4:	781b      	ldrb	r3, [r3, #0]
 80028e6:	461a      	mov	r2, r3
 80028e8:	68fb      	ldr	r3, [r7, #12]
 80028ea:	4413      	add	r3, r2
 80028ec:	60fb      	str	r3, [r7, #12]
  }

  while((HAL_GetTick() - tickstart) < wait)
 80028ee:	bf00      	nop
 80028f0:	f7ff ffde 	bl	80028b0 <HAL_GetTick>
 80028f4:	4602      	mov	r2, r0
 80028f6:	68bb      	ldr	r3, [r7, #8]
 80028f8:	1ad3      	subs	r3, r2, r3
 80028fa:	68fa      	ldr	r2, [r7, #12]
 80028fc:	429a      	cmp	r2, r3
 80028fe:	d8f7      	bhi.n	80028f0 <HAL_Delay+0x28>
  {
  }
}
 8002900:	bf00      	nop
 8002902:	bf00      	nop
 8002904:	3710      	adds	r7, #16
 8002906:	46bd      	mov	sp, r7
 8002908:	bd80      	pop	{r7, pc}
 800290a:	bf00      	nop
 800290c:	20000008 	.word	0x20000008

08002910 <HAL_ADC_Init>:
  * @param  hadc pointer to a ADC_HandleTypeDef structure that contains
  *         the configuration information for the specified ADC.
  * @retval HAL status
  */
HAL_StatusTypeDef HAL_ADC_Init(ADC_HandleTypeDef *hadc)
{
 8002910:	b580      	push	{r7, lr}
 8002912:	b084      	sub	sp, #16
 8002914:	af00      	add	r7, sp, #0
 8002916:	6078      	str	r0, [r7, #4]
  HAL_StatusTypeDef tmp_hal_status = HAL_OK;
 8002918:	2300      	movs	r3, #0
 800291a:	73fb      	strb	r3, [r7, #15]

  /* Check ADC handle */
  if (hadc == NULL)
 800291c:	687b      	ldr	r3, [r7, #4]
 800291e:	2b00      	cmp	r3, #0
 8002920:	d101      	bne.n	8002926 <HAL_ADC_Init+0x16>
  {
    return HAL_ERROR;
 8002922:	2301      	movs	r3, #1
 8002924:	e033      	b.n	800298e <HAL_ADC_Init+0x7e>
  if (hadc->Init.ExternalTrigConv != ADC_SOFTWARE_START)
  {
    assert_param(IS_ADC_EXT_TRIG_EDGE(hadc->Init.ExternalTrigConvEdge));
  }

  if (hadc->State == HAL_ADC_STATE_RESET)
 8002926:	687b      	ldr	r3, [r7, #4]
 8002928:	6c1b      	ldr	r3, [r3, #64]	@ 0x40
 800292a:	2b00      	cmp	r3, #0
 800292c:	d109      	bne.n	8002942 <HAL_ADC_Init+0x32>

    /* Init the low level hardware */
    hadc->MspInitCallback(hadc);
#else
    /* Init the low level hardware */
    HAL_ADC_MspInit(hadc);
 800292e:	6878      	ldr	r0, [r7, #4]
 8002930:	f7ff fcca 	bl	80022c8 <HAL_ADC_MspInit>
#endif /* USE_HAL_ADC_REGISTER_CALLBACKS */

    /* Initialize ADC error code */
    ADC_CLEAR_ERRORCODE(hadc);
 8002934:	687b      	ldr	r3, [r7, #4]
 8002936:	2200      	movs	r2, #0
 8002938:	645a      	str	r2, [r3, #68]	@ 0x44

    /* Allocate lock resource and initialize it */
    hadc->Lock = HAL_UNLOCKED;
 800293a:	687b      	ldr	r3, [r7, #4]
 800293c:	2200      	movs	r2, #0
 800293e:	f883 203c 	strb.w	r2, [r3, #60]	@ 0x3c
  }

  /* Configuration of ADC parameters if previous preliminary actions are      */
  /* correctly completed.                                                     */
  if (HAL_IS_BIT_CLR(hadc->State, HAL_ADC_STATE_ERROR_INTERNAL))
 8002942:	687b      	ldr	r3, [r7, #4]
 8002944:	6c1b      	ldr	r3, [r3, #64]	@ 0x40
 8002946:	f003 0310 	and.w	r3, r3, #16
 800294a:	2b00      	cmp	r3, #0
 800294c:	d118      	bne.n	8002980 <HAL_ADC_Init+0x70>
  {
    /* Set ADC state */
    ADC_STATE_CLR_SET(hadc->State,
 800294e:	687b      	ldr	r3, [r7, #4]
 8002950:	6c1b      	ldr	r3, [r3, #64]	@ 0x40
 8002952:	f423 5388 	bic.w	r3, r3, #4352	@ 0x1100
 8002956:	f023 0302 	bic.w	r3, r3, #2
 800295a:	f043 0202 	orr.w	r2, r3, #2
 800295e:	687b      	ldr	r3, [r7, #4]
 8002960:	641a      	str	r2, [r3, #64]	@ 0x40
                      HAL_ADC_STATE_REG_BUSY | HAL_ADC_STATE_INJ_BUSY,
                      HAL_ADC_STATE_BUSY_INTERNAL);

    /* Set ADC parameters */
    ADC_Init(hadc);
 8002962:	6878      	ldr	r0, [r7, #4]
 8002964:	f000 fab4 	bl	8002ed0 <ADC_Init>

    /* Set ADC error code to none */
    ADC_CLEAR_ERRORCODE(hadc);
 8002968:	687b      	ldr	r3, [r7, #4]
 800296a:	2200      	movs	r2, #0
 800296c:	645a      	str	r2, [r3, #68]	@ 0x44

    /* Set the ADC state */
    ADC_STATE_CLR_SET(hadc->State,
 800296e:	687b      	ldr	r3, [r7, #4]
 8002970:	6c1b      	ldr	r3, [r3, #64]	@ 0x40
 8002972:	f023 0303 	bic.w	r3, r3, #3
 8002976:	f043 0201 	orr.w	r2, r3, #1
 800297a:	687b      	ldr	r3, [r7, #4]
 800297c:	641a      	str	r2, [r3, #64]	@ 0x40
 800297e:	e001      	b.n	8002984 <HAL_ADC_Init+0x74>
                      HAL_ADC_STATE_BUSY_INTERNAL,
                      HAL_ADC_STATE_READY);
  }
  else
  {
    tmp_hal_status = HAL_ERROR;
 8002980:	2301      	movs	r3, #1
 8002982:	73fb      	strb	r3, [r7, #15]
  }

  /* Release Lock */
  __HAL_UNLOCK(hadc);
 8002984:	687b      	ldr	r3, [r7, #4]
 8002986:	2200      	movs	r2, #0
 8002988:	f883 203c 	strb.w	r2, [r3, #60]	@ 0x3c

  /* Return function status */
  return tmp_hal_status;
 800298c:	7bfb      	ldrb	r3, [r7, #15]
}
 800298e:	4618      	mov	r0, r3
 8002990:	3710      	adds	r7, #16
 8002992:	46bd      	mov	sp, r7
 8002994:	bd80      	pop	{r7, pc}
	...

08002998 <HAL_ADC_Start>:
  * @param  hadc pointer to a ADC_HandleTypeDef structure that contains
  *         the configuration information for the specified ADC.
  * @retval HAL status
  */
HAL_StatusTypeDef HAL_ADC_Start(ADC_HandleTypeDef *hadc)
{
 8002998:	b480      	push	{r7}
 800299a:	b085      	sub	sp, #20
 800299c:	af00      	add	r7, sp, #0
 800299e:	6078      	str	r0, [r7, #4]
  __IO uint32_t counter = 0U;
 80029a0:	2300      	movs	r3, #0
 80029a2:	60bb      	str	r3, [r7, #8]
  /* Check the parameters */
  assert_param(IS_FUNCTIONAL_STATE(hadc->Init.ContinuousConvMode));
  assert_param(IS_ADC_EXT_TRIG_EDGE(hadc->Init.ExternalTrigConvEdge));

  /* Process locked */
  __HAL_LOCK(hadc);
 80029a4:	687b      	ldr	r3, [r7, #4]
 80029a6:	f893 303c 	ldrb.w	r3, [r3, #60]	@ 0x3c
 80029aa:	2b01      	cmp	r3, #1
 80029ac:	d101      	bne.n	80029b2 <HAL_ADC_Start+0x1a>
 80029ae:	2302      	movs	r3, #2
 80029b0:	e0b2      	b.n	8002b18 <HAL_ADC_Start+0x180>
 80029b2:	687b      	ldr	r3, [r7, #4]
 80029b4:	2201      	movs	r2, #1
 80029b6:	f883 203c 	strb.w	r2, [r3, #60]	@ 0x3c

  /* Enable the ADC peripheral */
  /* Check if ADC peripheral is disabled in order to enable it and wait during
  Tstab time the ADC's stabilization */
  if ((hadc->Instance->CR2 & ADC_CR2_ADON) != ADC_CR2_ADON)
 80029ba:	687b      	ldr	r3, [r7, #4]
 80029bc:	681b      	ldr	r3, [r3, #0]
 80029be:	689b      	ldr	r3, [r3, #8]
 80029c0:	f003 0301 	and.w	r3, r3, #1
 80029c4:	2b01      	cmp	r3, #1
 80029c6:	d018      	beq.n	80029fa <HAL_ADC_Start+0x62>
  {
    /* Enable the Peripheral */
    __HAL_ADC_ENABLE(hadc);
 80029c8:	687b      	ldr	r3, [r7, #4]
 80029ca:	681b      	ldr	r3, [r3, #0]
 80029cc:	689a      	ldr	r2, [r3, #8]
 80029ce:	687b      	ldr	r3, [r7, #4]
 80029d0:	681b      	ldr	r3, [r3, #0]
 80029d2:	f042 0201 	orr.w	r2, r2, #1
 80029d6:	609a      	str	r2, [r3, #8]

    /* Delay for ADC stabilization time */
    /* Compute number of CPU cycles to wait for */
    counter = (ADC_STAB_DELAY_US * (SystemCoreClock / 1000000U));
 80029d8:	4b52      	ldr	r3, [pc, #328]	@ (8002b24 <HAL_ADC_Start+0x18c>)
 80029da:	681b      	ldr	r3, [r3, #0]
 80029dc:	4a52      	ldr	r2, [pc, #328]	@ (8002b28 <HAL_ADC_Start+0x190>)
 80029de:	fba2 2303 	umull	r2, r3, r2, r3
 80029e2:	0c9a      	lsrs	r2, r3, #18
 80029e4:	4613      	mov	r3, r2
 80029e6:	005b      	lsls	r3, r3, #1
 80029e8:	4413      	add	r3, r2
 80029ea:	60bb      	str	r3, [r7, #8]
    while (counter != 0U)
 80029ec:	e002      	b.n	80029f4 <HAL_ADC_Start+0x5c>
    {
      counter--;
 80029ee:	68bb      	ldr	r3, [r7, #8]
 80029f0:	3b01      	subs	r3, #1
 80029f2:	60bb      	str	r3, [r7, #8]
    while (counter != 0U)
 80029f4:	68bb      	ldr	r3, [r7, #8]
 80029f6:	2b00      	cmp	r3, #0
 80029f8:	d1f9      	bne.n	80029ee <HAL_ADC_Start+0x56>
    }
  }

  /* Start conversion if ADC is effectively enabled */
  if (HAL_IS_BIT_SET(hadc->Instance->CR2, ADC_CR2_ADON))
 80029fa:	687b      	ldr	r3, [r7, #4]
 80029fc:	681b      	ldr	r3, [r3, #0]
 80029fe:	689b      	ldr	r3, [r3, #8]
 8002a00:	f003 0301 	and.w	r3, r3, #1
 8002a04:	2b01      	cmp	r3, #1
 8002a06:	d17a      	bne.n	8002afe <HAL_ADC_Start+0x166>
  {
    /* Set ADC state                                                          */
    /* - Clear state bitfield related to regular group conversion results     */
    /* - Set state bitfield related to regular group operation                */
    ADC_STATE_CLR_SET(hadc->State,
 8002a08:	687b      	ldr	r3, [r7, #4]
 8002a0a:	6c1b      	ldr	r3, [r3, #64]	@ 0x40
 8002a0c:	f423 63e0 	bic.w	r3, r3, #1792	@ 0x700
 8002a10:	f023 0301 	bic.w	r3, r3, #1
 8002a14:	f443 7280 	orr.w	r2, r3, #256	@ 0x100
 8002a18:	687b      	ldr	r3, [r7, #4]
 8002a1a:	641a      	str	r2, [r3, #64]	@ 0x40
                      HAL_ADC_STATE_READY | HAL_ADC_STATE_REG_EOC | HAL_ADC_STATE_REG_OVR,
                      HAL_ADC_STATE_REG_BUSY);

    /* If conversions on group regular are also triggering group injected,    */
    /* update ADC state.                                                      */
    if (READ_BIT(hadc->Instance->CR1, ADC_CR1_JAUTO) != RESET)
 8002a1c:	687b      	ldr	r3, [r7, #4]
 8002a1e:	681b      	ldr	r3, [r3, #0]
 8002a20:	685b      	ldr	r3, [r3, #4]
 8002a22:	f403 6380 	and.w	r3, r3, #1024	@ 0x400
 8002a26:	2b00      	cmp	r3, #0
 8002a28:	d007      	beq.n	8002a3a <HAL_ADC_Start+0xa2>
    {
      ADC_STATE_CLR_SET(hadc->State, HAL_ADC_STATE_INJ_EOC, HAL_ADC_STATE_INJ_BUSY);
 8002a2a:	687b      	ldr	r3, [r7, #4]
 8002a2c:	6c1b      	ldr	r3, [r3, #64]	@ 0x40
 8002a2e:	f423 5340 	bic.w	r3, r3, #12288	@ 0x3000
 8002a32:	f443 5280 	orr.w	r2, r3, #4096	@ 0x1000
 8002a36:	687b      	ldr	r3, [r7, #4]
 8002a38:	641a      	str	r2, [r3, #64]	@ 0x40
    }

    /* State machine update: Check if an injected conversion is ongoing */
    if (HAL_IS_BIT_SET(hadc->State, HAL_ADC_STATE_INJ_BUSY))
 8002a3a:	687b      	ldr	r3, [r7, #4]
 8002a3c:	6c1b      	ldr	r3, [r3, #64]	@ 0x40
 8002a3e:	f403 5380 	and.w	r3, r3, #4096	@ 0x1000
 8002a42:	f5b3 5f80 	cmp.w	r3, #4096	@ 0x1000
 8002a46:	d106      	bne.n	8002a56 <HAL_ADC_Start+0xbe>
    {
      /* Reset ADC error code fields related to conversions on group regular */
      CLEAR_BIT(hadc->ErrorCode, (HAL_ADC_ERROR_OVR | HAL_ADC_ERROR_DMA));
 8002a48:	687b      	ldr	r3, [r7, #4]
 8002a4a:	6c5b      	ldr	r3, [r3, #68]	@ 0x44
 8002a4c:	f023 0206 	bic.w	r2, r3, #6
 8002a50:	687b      	ldr	r3, [r7, #4]
 8002a52:	645a      	str	r2, [r3, #68]	@ 0x44
 8002a54:	e002      	b.n	8002a5c <HAL_ADC_Start+0xc4>
    }
    else
    {
      /* Reset ADC all error code fields */
      ADC_CLEAR_ERRORCODE(hadc);
 8002a56:	687b      	ldr	r3, [r7, #4]
 8002a58:	2200      	movs	r2, #0
 8002a5a:	645a      	str	r2, [r3, #68]	@ 0x44
    }

    /* Process unlocked */
    /* Unlock before starting ADC conversions: in case of potential           */
    /* interruption, to let the process to ADC IRQ Handler.                   */
    __HAL_UNLOCK(hadc);
 8002a5c:	687b      	ldr	r3, [r7, #4]
 8002a5e:	2200      	movs	r2, #0
 8002a60:	f883 203c 	strb.w	r2, [r3, #60]	@ 0x3c

    /* Pointer to the common control register to which is belonging hadc    */
    /* (Depending on STM32F4 product, there may be up to 3 ADCs and 1 common */
    /* control register)                                                    */
    tmpADC_Common = ADC_COMMON_REGISTER(hadc);
 8002a64:	4b31      	ldr	r3, [pc, #196]	@ (8002b2c <HAL_ADC_Start+0x194>)
 8002a66:	60fb      	str	r3, [r7, #12]

    /* Clear regular group conversion flag and overrun flag */
    /* (To ensure of no unknown state from potential previous ADC operations) */
    __HAL_ADC_CLEAR_FLAG(hadc, ADC_FLAG_EOC | ADC_FLAG_OVR);
 8002a68:	687b      	ldr	r3, [r7, #4]
 8002a6a:	681b      	ldr	r3, [r3, #0]
 8002a6c:	f06f 0222 	mvn.w	r2, #34	@ 0x22
 8002a70:	601a      	str	r2, [r3, #0]

    /* Check if Multimode enabled */
    if (HAL_IS_BIT_CLR(tmpADC_Common->CCR, ADC_CCR_MULTI))
 8002a72:	68fb      	ldr	r3, [r7, #12]
 8002a74:	685b      	ldr	r3, [r3, #4]
 8002a76:	f003 031f 	and.w	r3, r3, #31
 8002a7a:	2b00      	cmp	r3, #0
 8002a7c:	d12a      	bne.n	8002ad4 <HAL_ADC_Start+0x13c>
    {
#if defined(ADC2) && defined(ADC3)
      if ((hadc->Instance == ADC1) || ((hadc->Instance == ADC2) && ((ADC->CCR & ADC_CCR_MULTI_Msk) < ADC_CCR_MULTI_0)) \
 8002a7e:	687b      	ldr	r3, [r7, #4]
 8002a80:	681b      	ldr	r3, [r3, #0]
 8002a82:	4a2b      	ldr	r2, [pc, #172]	@ (8002b30 <HAL_ADC_Start+0x198>)
 8002a84:	4293      	cmp	r3, r2
 8002a86:	d015      	beq.n	8002ab4 <HAL_ADC_Start+0x11c>
 8002a88:	687b      	ldr	r3, [r7, #4]
 8002a8a:	681b      	ldr	r3, [r3, #0]
 8002a8c:	4a29      	ldr	r2, [pc, #164]	@ (8002b34 <HAL_ADC_Start+0x19c>)
 8002a8e:	4293      	cmp	r3, r2
 8002a90:	d105      	bne.n	8002a9e <HAL_ADC_Start+0x106>
 8002a92:	4b26      	ldr	r3, [pc, #152]	@ (8002b2c <HAL_ADC_Start+0x194>)
 8002a94:	685b      	ldr	r3, [r3, #4]
 8002a96:	f003 031f 	and.w	r3, r3, #31
 8002a9a:	2b00      	cmp	r3, #0
 8002a9c:	d00a      	beq.n	8002ab4 <HAL_ADC_Start+0x11c>
          || ((hadc->Instance == ADC3) && ((ADC->CCR & ADC_CCR_MULTI_Msk) < ADC_CCR_MULTI_4)))
 8002a9e:	687b      	ldr	r3, [r7, #4]
 8002aa0:	681b      	ldr	r3, [r3, #0]
 8002aa2:	4a25      	ldr	r2, [pc, #148]	@ (8002b38 <HAL_ADC_Start+0x1a0>)
 8002aa4:	4293      	cmp	r3, r2
 8002aa6:	d136      	bne.n	8002b16 <HAL_ADC_Start+0x17e>
 8002aa8:	4b20      	ldr	r3, [pc, #128]	@ (8002b2c <HAL_ADC_Start+0x194>)
 8002aaa:	685b      	ldr	r3, [r3, #4]
 8002aac:	f003 0310 	and.w	r3, r3, #16
 8002ab0:	2b00      	cmp	r3, #0
 8002ab2:	d130      	bne.n	8002b16 <HAL_ADC_Start+0x17e>
      {
#endif /* ADC2 || ADC3 */
        /* if no external trigger present enable software conversion of regular channels */
        if ((hadc->Instance->CR2 & ADC_CR2_EXTEN) == RESET)
 8002ab4:	687b      	ldr	r3, [r7, #4]
 8002ab6:	681b      	ldr	r3, [r3, #0]
 8002ab8:	689b      	ldr	r3, [r3, #8]
 8002aba:	f003 5340 	and.w	r3, r3, #805306368	@ 0x30000000
 8002abe:	2b00      	cmp	r3, #0
 8002ac0:	d129      	bne.n	8002b16 <HAL_ADC_Start+0x17e>
        {
          /* Enable the selected ADC software conversion for regular group */
          hadc->Instance->CR2 |= (uint32_t)ADC_CR2_SWSTART;
 8002ac2:	687b      	ldr	r3, [r7, #4]
 8002ac4:	681b      	ldr	r3, [r3, #0]
 8002ac6:	689a      	ldr	r2, [r3, #8]
 8002ac8:	687b      	ldr	r3, [r7, #4]
 8002aca:	681b      	ldr	r3, [r3, #0]
 8002acc:	f042 4280 	orr.w	r2, r2, #1073741824	@ 0x40000000
 8002ad0:	609a      	str	r2, [r3, #8]
 8002ad2:	e020      	b.n	8002b16 <HAL_ADC_Start+0x17e>
#endif /* ADC2 || ADC3 */
    }
    else
    {
      /* if instance of handle correspond to ADC1 and  no external trigger present enable software conversion of regular channels */
      if ((hadc->Instance == ADC1) && ((hadc->Instance->CR2 & ADC_CR2_EXTEN) == RESET))
 8002ad4:	687b      	ldr	r3, [r7, #4]
 8002ad6:	681b      	ldr	r3, [r3, #0]
 8002ad8:	4a15      	ldr	r2, [pc, #84]	@ (8002b30 <HAL_ADC_Start+0x198>)
 8002ada:	4293      	cmp	r3, r2
 8002adc:	d11b      	bne.n	8002b16 <HAL_ADC_Start+0x17e>
 8002ade:	687b      	ldr	r3, [r7, #4]
 8002ae0:	681b      	ldr	r3, [r3, #0]
 8002ae2:	689b      	ldr	r3, [r3, #8]
 8002ae4:	f003 5340 	and.w	r3, r3, #805306368	@ 0x30000000
 8002ae8:	2b00      	cmp	r3, #0
 8002aea:	d114      	bne.n	8002b16 <HAL_ADC_Start+0x17e>
      {
        /* Enable the selected ADC software conversion for regular group */
        hadc->Instance->CR2 |= (uint32_t)ADC_CR2_SWSTART;
 8002aec:	687b      	ldr	r3, [r7, #4]
 8002aee:	681b      	ldr	r3, [r3, #0]
 8002af0:	689a      	ldr	r2, [r3, #8]
 8002af2:	687b      	ldr	r3, [r7, #4]
 8002af4:	681b      	ldr	r3, [r3, #0]
 8002af6:	f042 4280 	orr.w	r2, r2, #1073741824	@ 0x40000000
 8002afa:	609a      	str	r2, [r3, #8]
 8002afc:	e00b      	b.n	8002b16 <HAL_ADC_Start+0x17e>
    }
  }
  else
  {
    /* Update ADC state machine to error */
    SET_BIT(hadc->State, HAL_ADC_STATE_ERROR_INTERNAL);
 8002afe:	687b      	ldr	r3, [r7, #4]
 8002b00:	6c1b      	ldr	r3, [r3, #64]	@ 0x40
 8002b02:	f043 0210 	orr.w	r2, r3, #16
 8002b06:	687b      	ldr	r3, [r7, #4]
 8002b08:	641a      	str	r2, [r3, #64]	@ 0x40

    /* Set ADC error code to ADC IP internal error */
    SET_BIT(hadc->ErrorCode, HAL_ADC_ERROR_INTERNAL);
 8002b0a:	687b      	ldr	r3, [r7, #4]
 8002b0c:	6c5b      	ldr	r3, [r3, #68]	@ 0x44
 8002b0e:	f043 0201 	orr.w	r2, r3, #1
 8002b12:	687b      	ldr	r3, [r7, #4]
 8002b14:	645a      	str	r2, [r3, #68]	@ 0x44
  }

  /* Return function status */
  return HAL_OK;
 8002b16:	2300      	movs	r3, #0
}
 8002b18:	4618      	mov	r0, r3
 8002b1a:	3714      	adds	r7, #20
 8002b1c:	46bd      	mov	sp, r7
 8002b1e:	f85d 7b04 	ldr.w	r7, [sp], #4
 8002b22:	4770      	bx	lr
 8002b24:	20000000 	.word	0x20000000
 8002b28:	431bde83 	.word	0x431bde83
 8002b2c:	40012300 	.word	0x40012300
 8002b30:	40012000 	.word	0x40012000
 8002b34:	40012100 	.word	0x40012100
 8002b38:	40012200 	.word	0x40012200

08002b3c <HAL_ADC_PollForConversion>:
  *         the configuration information for the specified ADC.
  * @param  Timeout Timeout value in millisecond.
  * @retval HAL status
  */
HAL_StatusTypeDef HAL_ADC_PollForConversion(ADC_HandleTypeDef *hadc, uint32_t Timeout)
{
 8002b3c:	b580      	push	{r7, lr}
 8002b3e:	b084      	sub	sp, #16
 8002b40:	af00      	add	r7, sp, #0
 8002b42:	6078      	str	r0, [r7, #4]
 8002b44:	6039      	str	r1, [r7, #0]
  uint32_t tickstart = 0U;
 8002b46:	2300      	movs	r3, #0
 8002b48:	60fb      	str	r3, [r7, #12]
  /* each conversion:                                                       */
  /* Particular case is ADC configured in DMA mode and ADC sequencer with   */
  /* several ranks and polling for end of each conversion.                  */
  /* For code simplicity sake, this particular case is generalized to       */
  /* ADC configured in DMA mode and polling for end of each conversion.     */
  if (HAL_IS_BIT_SET(hadc->Instance->CR2, ADC_CR2_EOCS) &&
 8002b4a:	687b      	ldr	r3, [r7, #4]
 8002b4c:	681b      	ldr	r3, [r3, #0]
 8002b4e:	689b      	ldr	r3, [r3, #8]
 8002b50:	f403 6380 	and.w	r3, r3, #1024	@ 0x400
 8002b54:	f5b3 6f80 	cmp.w	r3, #1024	@ 0x400
 8002b58:	d113      	bne.n	8002b82 <HAL_ADC_PollForConversion+0x46>
      HAL_IS_BIT_SET(hadc->Instance->CR2, ADC_CR2_DMA))
 8002b5a:	687b      	ldr	r3, [r7, #4]
 8002b5c:	681b      	ldr	r3, [r3, #0]
 8002b5e:	689b      	ldr	r3, [r3, #8]
 8002b60:	f403 7380 	and.w	r3, r3, #256	@ 0x100
  if (HAL_IS_BIT_SET(hadc->Instance->CR2, ADC_CR2_EOCS) &&
 8002b64:	f5b3 7f80 	cmp.w	r3, #256	@ 0x100
 8002b68:	d10b      	bne.n	8002b82 <HAL_ADC_PollForConversion+0x46>
  {
    /* Update ADC state machine to error */
    SET_BIT(hadc->State, HAL_ADC_STATE_ERROR_CONFIG);
 8002b6a:	687b      	ldr	r3, [r7, #4]
 8002b6c:	6c1b      	ldr	r3, [r3, #64]	@ 0x40
 8002b6e:	f043 0220 	orr.w	r2, r3, #32
 8002b72:	687b      	ldr	r3, [r7, #4]
 8002b74:	641a      	str	r2, [r3, #64]	@ 0x40

    /* Process unlocked */
    __HAL_UNLOCK(hadc);
 8002b76:	687b      	ldr	r3, [r7, #4]
 8002b78:	2200      	movs	r2, #0
 8002b7a:	f883 203c 	strb.w	r2, [r3, #60]	@ 0x3c

    return HAL_ERROR;
 8002b7e:	2301      	movs	r3, #1
 8002b80:	e063      	b.n	8002c4a <HAL_ADC_PollForConversion+0x10e>
  }

  /* Get tick */
  tickstart = HAL_GetTick();
 8002b82:	f7ff fe95 	bl	80028b0 <HAL_GetTick>
 8002b86:	60f8      	str	r0, [r7, #12]

  /* Check End of conversion flag */
  while (!(__HAL_ADC_GET_FLAG(hadc, ADC_FLAG_EOC)))
 8002b88:	e021      	b.n	8002bce <HAL_ADC_PollForConversion+0x92>
  {
    /* Check if timeout is disabled (set to infinite wait) */
    if (Timeout != HAL_MAX_DELAY)
 8002b8a:	683b      	ldr	r3, [r7, #0]
 8002b8c:	f1b3 3fff 	cmp.w	r3, #4294967295	@ 0xffffffff
 8002b90:	d01d      	beq.n	8002bce <HAL_ADC_PollForConversion+0x92>
    {
      if ((Timeout == 0U) || ((HAL_GetTick() - tickstart) > Timeout))
 8002b92:	683b      	ldr	r3, [r7, #0]
 8002b94:	2b00      	cmp	r3, #0
 8002b96:	d007      	beq.n	8002ba8 <HAL_ADC_PollForConversion+0x6c>
 8002b98:	f7ff fe8a 	bl	80028b0 <HAL_GetTick>
 8002b9c:	4602      	mov	r2, r0
 8002b9e:	68fb      	ldr	r3, [r7, #12]
 8002ba0:	1ad3      	subs	r3, r2, r3
 8002ba2:	683a      	ldr	r2, [r7, #0]
 8002ba4:	429a      	cmp	r2, r3
 8002ba6:	d212      	bcs.n	8002bce <HAL_ADC_PollForConversion+0x92>
      {
        /* New check to avoid false timeout detection in case of preemption */
        if (!(__HAL_ADC_GET_FLAG(hadc, ADC_FLAG_EOC)))
 8002ba8:	687b      	ldr	r3, [r7, #4]
 8002baa:	681b      	ldr	r3, [r3, #0]
 8002bac:	681b      	ldr	r3, [r3, #0]
 8002bae:	f003 0302 	and.w	r3, r3, #2
 8002bb2:	2b02      	cmp	r3, #2
 8002bb4:	d00b      	beq.n	8002bce <HAL_ADC_PollForConversion+0x92>
        {
          /* Update ADC state machine to timeout */
          SET_BIT(hadc->State, HAL_ADC_STATE_TIMEOUT);
 8002bb6:	687b      	ldr	r3, [r7, #4]
 8002bb8:	6c1b      	ldr	r3, [r3, #64]	@ 0x40
 8002bba:	f043 0204 	orr.w	r2, r3, #4
 8002bbe:	687b      	ldr	r3, [r7, #4]
 8002bc0:	641a      	str	r2, [r3, #64]	@ 0x40

          /* Process unlocked */
          __HAL_UNLOCK(hadc);
 8002bc2:	687b      	ldr	r3, [r7, #4]
 8002bc4:	2200      	movs	r2, #0
 8002bc6:	f883 203c 	strb.w	r2, [r3, #60]	@ 0x3c

          return HAL_TIMEOUT;
 8002bca:	2303      	movs	r3, #3
 8002bcc:	e03d      	b.n	8002c4a <HAL_ADC_PollForConversion+0x10e>
  while (!(__HAL_ADC_GET_FLAG(hadc, ADC_FLAG_EOC)))
 8002bce:	687b      	ldr	r3, [r7, #4]
 8002bd0:	681b      	ldr	r3, [r3, #0]
 8002bd2:	681b      	ldr	r3, [r3, #0]
 8002bd4:	f003 0302 	and.w	r3, r3, #2
 8002bd8:	2b02      	cmp	r3, #2
 8002bda:	d1d6      	bne.n	8002b8a <HAL_ADC_PollForConversion+0x4e>
      }
    }
  }

  /* Clear regular group conversion flag */
  __HAL_ADC_CLEAR_FLAG(hadc, ADC_FLAG_STRT | ADC_FLAG_EOC);
 8002bdc:	687b      	ldr	r3, [r7, #4]
 8002bde:	681b      	ldr	r3, [r3, #0]
 8002be0:	f06f 0212 	mvn.w	r2, #18
 8002be4:	601a      	str	r2, [r3, #0]

  /* Update ADC state machine */
  SET_BIT(hadc->State, HAL_ADC_STATE_REG_EOC);
 8002be6:	687b      	ldr	r3, [r7, #4]
 8002be8:	6c1b      	ldr	r3, [r3, #64]	@ 0x40
 8002bea:	f443 7200 	orr.w	r2, r3, #512	@ 0x200
 8002bee:	687b      	ldr	r3, [r7, #4]
 8002bf0:	641a      	str	r2, [r3, #64]	@ 0x40
  /* by external trigger, continuous mode or scan sequence on going.          */
  /* Note: On STM32F4, there is no independent flag of end of sequence.       */
  /*       The test of scan sequence on going is done either with scan        */
  /*       sequence disabled or with end of conversion flag set to            */
  /*       of end of sequence.                                                */
  if (ADC_IS_SOFTWARE_START_REGULAR(hadc)                   &&
 8002bf2:	687b      	ldr	r3, [r7, #4]
 8002bf4:	681b      	ldr	r3, [r3, #0]
 8002bf6:	689b      	ldr	r3, [r3, #8]
 8002bf8:	f003 5340 	and.w	r3, r3, #805306368	@ 0x30000000
 8002bfc:	2b00      	cmp	r3, #0
 8002bfe:	d123      	bne.n	8002c48 <HAL_ADC_PollForConversion+0x10c>
      (hadc->Init.ContinuousConvMode == DISABLE)            &&
 8002c00:	687b      	ldr	r3, [r7, #4]
 8002c02:	7e1b      	ldrb	r3, [r3, #24]
  if (ADC_IS_SOFTWARE_START_REGULAR(hadc)                   &&
 8002c04:	2b00      	cmp	r3, #0
 8002c06:	d11f      	bne.n	8002c48 <HAL_ADC_PollForConversion+0x10c>
      (HAL_IS_BIT_CLR(hadc->Instance->SQR1, ADC_SQR1_L) ||
 8002c08:	687b      	ldr	r3, [r7, #4]
 8002c0a:	681b      	ldr	r3, [r3, #0]
 8002c0c:	6adb      	ldr	r3, [r3, #44]	@ 0x2c
 8002c0e:	f403 0370 	and.w	r3, r3, #15728640	@ 0xf00000
      (hadc->Init.ContinuousConvMode == DISABLE)            &&
 8002c12:	2b00      	cmp	r3, #0
 8002c14:	d006      	beq.n	8002c24 <HAL_ADC_PollForConversion+0xe8>
       HAL_IS_BIT_CLR(hadc->Instance->CR2, ADC_CR2_EOCS)))
 8002c16:	687b      	ldr	r3, [r7, #4]
 8002c18:	681b      	ldr	r3, [r3, #0]
 8002c1a:	689b      	ldr	r3, [r3, #8]
 8002c1c:	f403 6380 	and.w	r3, r3, #1024	@ 0x400
      (HAL_IS_BIT_CLR(hadc->Instance->SQR1, ADC_SQR1_L) ||
 8002c20:	2b00      	cmp	r3, #0
 8002c22:	d111      	bne.n	8002c48 <HAL_ADC_PollForConversion+0x10c>
  {
    /* Set ADC state */
    CLEAR_BIT(hadc->State, HAL_ADC_STATE_REG_BUSY);
 8002c24:	687b      	ldr	r3, [r7, #4]
 8002c26:	6c1b      	ldr	r3, [r3, #64]	@ 0x40
 8002c28:	f423 7280 	bic.w	r2, r3, #256	@ 0x100
 8002c2c:	687b      	ldr	r3, [r7, #4]
 8002c2e:	641a      	str	r2, [r3, #64]	@ 0x40

    if (HAL_IS_BIT_CLR(hadc->State, HAL_ADC_STATE_INJ_BUSY))
 8002c30:	687b      	ldr	r3, [r7, #4]
 8002c32:	6c1b      	ldr	r3, [r3, #64]	@ 0x40
 8002c34:	f403 5380 	and.w	r3, r3, #4096	@ 0x1000
 8002c38:	2b00      	cmp	r3, #0
 8002c3a:	d105      	bne.n	8002c48 <HAL_ADC_PollForConversion+0x10c>
    {
      SET_BIT(hadc->State, HAL_ADC_STATE_READY);
 8002c3c:	687b      	ldr	r3, [r7, #4]
 8002c3e:	6c1b      	ldr	r3, [r3, #64]	@ 0x40
 8002c40:	f043 0201 	orr.w	r2, r3, #1
 8002c44:	687b      	ldr	r3, [r7, #4]
 8002c46:	641a      	str	r2, [r3, #64]	@ 0x40
    }
  }

  /* Return ADC state */
  return HAL_OK;
 8002c48:	2300      	movs	r3, #0
}
 8002c4a:	4618      	mov	r0, r3
 8002c4c:	3710      	adds	r7, #16
 8002c4e:	46bd      	mov	sp, r7
 8002c50:	bd80      	pop	{r7, pc}

08002c52 <HAL_ADC_GetValue>:
  * @param  hadc pointer to a ADC_HandleTypeDef structure that contains
  *         the configuration information for the specified ADC.
  * @retval Converted value
  */
uint32_t HAL_ADC_GetValue(ADC_HandleTypeDef *hadc)
{
 8002c52:	b480      	push	{r7}
 8002c54:	b083      	sub	sp, #12
 8002c56:	af00      	add	r7, sp, #0
 8002c58:	6078      	str	r0, [r7, #4]
  /* Return the selected ADC converted value */
  return hadc->Instance->DR;
 8002c5a:	687b      	ldr	r3, [r7, #4]
 8002c5c:	681b      	ldr	r3, [r3, #0]
 8002c5e:	6cdb      	ldr	r3, [r3, #76]	@ 0x4c
}
 8002c60:	4618      	mov	r0, r3
 8002c62:	370c      	adds	r7, #12
 8002c64:	46bd      	mov	sp, r7
 8002c66:	f85d 7b04 	ldr.w	r7, [sp], #4
 8002c6a:	4770      	bx	lr

08002c6c <HAL_ADC_ConfigChannel>:
*         the configuration information for the specified ADC.
* @param  sConfig ADC configuration structure.
* @retval HAL status
*/
HAL_StatusTypeDef HAL_ADC_ConfigChannel(ADC_HandleTypeDef *hadc, ADC_ChannelConfTypeDef *sConfig)
{
 8002c6c:	b480      	push	{r7}
 8002c6e:	b085      	sub	sp, #20
 8002c70:	af00      	add	r7, sp, #0
 8002c72:	6078      	str	r0, [r7, #4]
 8002c74:	6039      	str	r1, [r7, #0]
  __IO uint32_t counter = 0U;
 8002c76:	2300      	movs	r3, #0
 8002c78:	60bb      	str	r3, [r7, #8]
  assert_param(IS_ADC_CHANNEL(sConfig->Channel));
  assert_param(IS_ADC_REGULAR_RANK(sConfig->Rank));
  assert_param(IS_ADC_SAMPLE_TIME(sConfig->SamplingTime));

  /* Process locked */
  __HAL_LOCK(hadc);
 8002c7a:	687b      	ldr	r3, [r7, #4]
 8002c7c:	f893 303c 	ldrb.w	r3, [r3, #60]	@ 0x3c
 8002c80:	2b01      	cmp	r3, #1
 8002c82:	d101      	bne.n	8002c88 <HAL_ADC_ConfigChannel+0x1c>
 8002c84:	2302      	movs	r3, #2
 8002c86:	e113      	b.n	8002eb0 <HAL_ADC_ConfigChannel+0x244>
 8002c88:	687b      	ldr	r3, [r7, #4]
 8002c8a:	2201      	movs	r2, #1
 8002c8c:	f883 203c 	strb.w	r2, [r3, #60]	@ 0x3c

  /* if ADC_Channel_10 ... ADC_Channel_18 is selected */
  if (sConfig->Channel > ADC_CHANNEL_9)
 8002c90:	683b      	ldr	r3, [r7, #0]
 8002c92:	681b      	ldr	r3, [r3, #0]
 8002c94:	2b09      	cmp	r3, #9
 8002c96:	d925      	bls.n	8002ce4 <HAL_ADC_ConfigChannel+0x78>
  {
    /* Clear the old sample time */
    hadc->Instance->SMPR1 &= ~ADC_SMPR1(ADC_SMPR1_SMP10, sConfig->Channel);
 8002c98:	687b      	ldr	r3, [r7, #4]
 8002c9a:	681b      	ldr	r3, [r3, #0]
 8002c9c:	68d9      	ldr	r1, [r3, #12]
 8002c9e:	683b      	ldr	r3, [r7, #0]
 8002ca0:	681b      	ldr	r3, [r3, #0]
 8002ca2:	b29b      	uxth	r3, r3
 8002ca4:	461a      	mov	r2, r3
 8002ca6:	4613      	mov	r3, r2
 8002ca8:	005b      	lsls	r3, r3, #1
 8002caa:	4413      	add	r3, r2
 8002cac:	3b1e      	subs	r3, #30
 8002cae:	2207      	movs	r2, #7
 8002cb0:	fa02 f303 	lsl.w	r3, r2, r3
 8002cb4:	43da      	mvns	r2, r3
 8002cb6:	687b      	ldr	r3, [r7, #4]
 8002cb8:	681b      	ldr	r3, [r3, #0]
 8002cba:	400a      	ands	r2, r1
 8002cbc:	60da      	str	r2, [r3, #12]

    /* Set the new sample time */
    hadc->Instance->SMPR1 |= ADC_SMPR1(sConfig->SamplingTime, sConfig->Channel);
 8002cbe:	687b      	ldr	r3, [r7, #4]
 8002cc0:	681b      	ldr	r3, [r3, #0]
 8002cc2:	68d9      	ldr	r1, [r3, #12]
 8002cc4:	683b      	ldr	r3, [r7, #0]
 8002cc6:	689a      	ldr	r2, [r3, #8]
 8002cc8:	683b      	ldr	r3, [r7, #0]
 8002cca:	681b      	ldr	r3, [r3, #0]
 8002ccc:	b29b      	uxth	r3, r3
 8002cce:	4618      	mov	r0, r3
 8002cd0:	4603      	mov	r3, r0
 8002cd2:	005b      	lsls	r3, r3, #1
 8002cd4:	4403      	add	r3, r0
 8002cd6:	3b1e      	subs	r3, #30
 8002cd8:	409a      	lsls	r2, r3
 8002cda:	687b      	ldr	r3, [r7, #4]
 8002cdc:	681b      	ldr	r3, [r3, #0]
 8002cde:	430a      	orrs	r2, r1
 8002ce0:	60da      	str	r2, [r3, #12]
 8002ce2:	e022      	b.n	8002d2a <HAL_ADC_ConfigChannel+0xbe>
  }
  else /* ADC_Channel include in ADC_Channel_[0..9] */
  {
    /* Clear the old sample time */
    hadc->Instance->SMPR2 &= ~ADC_SMPR2(ADC_SMPR2_SMP0, sConfig->Channel);
 8002ce4:	687b      	ldr	r3, [r7, #4]
 8002ce6:	681b      	ldr	r3, [r3, #0]
 8002ce8:	6919      	ldr	r1, [r3, #16]
 8002cea:	683b      	ldr	r3, [r7, #0]
 8002cec:	681b      	ldr	r3, [r3, #0]
 8002cee:	b29b      	uxth	r3, r3
 8002cf0:	461a      	mov	r2, r3
 8002cf2:	4613      	mov	r3, r2
 8002cf4:	005b      	lsls	r3, r3, #1
 8002cf6:	4413      	add	r3, r2
 8002cf8:	2207      	movs	r2, #7
 8002cfa:	fa02 f303 	lsl.w	r3, r2, r3
 8002cfe:	43da      	mvns	r2, r3
 8002d00:	687b      	ldr	r3, [r7, #4]
 8002d02:	681b      	ldr	r3, [r3, #0]
 8002d04:	400a      	ands	r2, r1
 8002d06:	611a      	str	r2, [r3, #16]

    /* Set the new sample time */
    hadc->Instance->SMPR2 |= ADC_SMPR2(sConfig->SamplingTime, sConfig->Channel);
 8002d08:	687b      	ldr	r3, [r7, #4]
 8002d0a:	681b      	ldr	r3, [r3, #0]
 8002d0c:	6919      	ldr	r1, [r3, #16]
 8002d0e:	683b      	ldr	r3, [r7, #0]
 8002d10:	689a      	ldr	r2, [r3, #8]
 8002d12:	683b      	ldr	r3, [r7, #0]
 8002d14:	681b      	ldr	r3, [r3, #0]
 8002d16:	b29b      	uxth	r3, r3
 8002d18:	4618      	mov	r0, r3
 8002d1a:	4603      	mov	r3, r0
 8002d1c:	005b      	lsls	r3, r3, #1
 8002d1e:	4403      	add	r3, r0
 8002d20:	409a      	lsls	r2, r3
 8002d22:	687b      	ldr	r3, [r7, #4]
 8002d24:	681b      	ldr	r3, [r3, #0]
 8002d26:	430a      	orrs	r2, r1
 8002d28:	611a      	str	r2, [r3, #16]
  }

  /* For Rank 1 to 6 */
  if (sConfig->Rank < 7U)
 8002d2a:	683b      	ldr	r3, [r7, #0]
 8002d2c:	685b      	ldr	r3, [r3, #4]
 8002d2e:	2b06      	cmp	r3, #6
 8002d30:	d824      	bhi.n	8002d7c <HAL_ADC_ConfigChannel+0x110>
  {
    /* Clear the old SQx bits for the selected rank */
    hadc->Instance->SQR3 &= ~ADC_SQR3_RK(ADC_SQR3_SQ1, sConfig->Rank);
 8002d32:	687b      	ldr	r3, [r7, #4]
 8002d34:	681b      	ldr	r3, [r3, #0]
 8002d36:	6b59      	ldr	r1, [r3, #52]	@ 0x34
 8002d38:	683b      	ldr	r3, [r7, #0]
 8002d3a:	685a      	ldr	r2, [r3, #4]
 8002d3c:	4613      	mov	r3, r2
 8002d3e:	009b      	lsls	r3, r3, #2
 8002d40:	4413      	add	r3, r2
 8002d42:	3b05      	subs	r3, #5
 8002d44:	221f      	movs	r2, #31
 8002d46:	fa02 f303 	lsl.w	r3, r2, r3
 8002d4a:	43da      	mvns	r2, r3
 8002d4c:	687b      	ldr	r3, [r7, #4]
 8002d4e:	681b      	ldr	r3, [r3, #0]
 8002d50:	400a      	ands	r2, r1
 8002d52:	635a      	str	r2, [r3, #52]	@ 0x34

    /* Set the SQx bits for the selected rank */
    hadc->Instance->SQR3 |= ADC_SQR3_RK(sConfig->Channel, sConfig->Rank);
 8002d54:	687b      	ldr	r3, [r7, #4]
 8002d56:	681b      	ldr	r3, [r3, #0]
 8002d58:	6b59      	ldr	r1, [r3, #52]	@ 0x34
 8002d5a:	683b      	ldr	r3, [r7, #0]
 8002d5c:	681b      	ldr	r3, [r3, #0]
 8002d5e:	b29b      	uxth	r3, r3
 8002d60:	4618      	mov	r0, r3
 8002d62:	683b      	ldr	r3, [r7, #0]
 8002d64:	685a      	ldr	r2, [r3, #4]
 8002d66:	4613      	mov	r3, r2
 8002d68:	009b      	lsls	r3, r3, #2
 8002d6a:	4413      	add	r3, r2
 8002d6c:	3b05      	subs	r3, #5
 8002d6e:	fa00 f203 	lsl.w	r2, r0, r3
 8002d72:	687b      	ldr	r3, [r7, #4]
 8002d74:	681b      	ldr	r3, [r3, #0]
 8002d76:	430a      	orrs	r2, r1
 8002d78:	635a      	str	r2, [r3, #52]	@ 0x34
 8002d7a:	e04c      	b.n	8002e16 <HAL_ADC_ConfigChannel+0x1aa>
  }
  /* For Rank 7 to 12 */
  else if (sConfig->Rank < 13U)
 8002d7c:	683b      	ldr	r3, [r7, #0]
 8002d7e:	685b      	ldr	r3, [r3, #4]
 8002d80:	2b0c      	cmp	r3, #12
 8002d82:	d824      	bhi.n	8002dce <HAL_ADC_ConfigChannel+0x162>
  {
    /* Clear the old SQx bits for the selected rank */
    hadc->Instance->SQR2 &= ~ADC_SQR2_RK(ADC_SQR2_SQ7, sConfig->Rank);
 8002d84:	687b      	ldr	r3, [r7, #4]
 8002d86:	681b      	ldr	r3, [r3, #0]
 8002d88:	6b19      	ldr	r1, [r3, #48]	@ 0x30
 8002d8a:	683b      	ldr	r3, [r7, #0]
 8002d8c:	685a      	ldr	r2, [r3, #4]
 8002d8e:	4613      	mov	r3, r2
 8002d90:	009b      	lsls	r3, r3, #2
 8002d92:	4413      	add	r3, r2
 8002d94:	3b23      	subs	r3, #35	@ 0x23
 8002d96:	221f      	movs	r2, #31
 8002d98:	fa02 f303 	lsl.w	r3, r2, r3
 8002d9c:	43da      	mvns	r2, r3
 8002d9e:	687b      	ldr	r3, [r7, #4]
 8002da0:	681b      	ldr	r3, [r3, #0]
 8002da2:	400a      	ands	r2, r1
 8002da4:	631a      	str	r2, [r3, #48]	@ 0x30

    /* Set the SQx bits for the selected rank */
    hadc->Instance->SQR2 |= ADC_SQR2_RK(sConfig->Channel, sConfig->Rank);
 8002da6:	687b      	ldr	r3, [r7, #4]
 8002da8:	681b      	ldr	r3, [r3, #0]
 8002daa:	6b19      	ldr	r1, [r3, #48]	@ 0x30
 8002dac:	683b      	ldr	r3, [r7, #0]
 8002dae:	681b      	ldr	r3, [r3, #0]
 8002db0:	b29b      	uxth	r3, r3
 8002db2:	4618      	mov	r0, r3
 8002db4:	683b      	ldr	r3, [r7, #0]
 8002db6:	685a      	ldr	r2, [r3, #4]
 8002db8:	4613      	mov	r3, r2
 8002dba:	009b      	lsls	r3, r3, #2
 8002dbc:	4413      	add	r3, r2
 8002dbe:	3b23      	subs	r3, #35	@ 0x23
 8002dc0:	fa00 f203 	lsl.w	r2, r0, r3
 8002dc4:	687b      	ldr	r3, [r7, #4]
 8002dc6:	681b      	ldr	r3, [r3, #0]
 8002dc8:	430a      	orrs	r2, r1
 8002dca:	631a      	str	r2, [r3, #48]	@ 0x30
 8002dcc:	e023      	b.n	8002e16 <HAL_ADC_ConfigChannel+0x1aa>
  }
  /* For Rank 13 to 16 */
  else
  {
    /* Clear the old SQx bits for the selected rank */
    hadc->Instance->SQR1 &= ~ADC_SQR1_RK(ADC_SQR1_SQ13, sConfig->Rank);
 8002dce:	687b      	ldr	r3, [r7, #4]
 8002dd0:	681b      	ldr	r3, [r3, #0]
 8002dd2:	6ad9      	ldr	r1, [r3, #44]	@ 0x2c
 8002dd4:	683b      	ldr	r3, [r7, #0]
 8002dd6:	685a      	ldr	r2, [r3, #4]
 8002dd8:	4613      	mov	r3, r2
 8002dda:	009b      	lsls	r3, r3, #2
 8002ddc:	4413      	add	r3, r2
 8002dde:	3b41      	subs	r3, #65	@ 0x41
 8002de0:	221f      	movs	r2, #31
 8002de2:	fa02 f303 	lsl.w	r3, r2, r3
 8002de6:	43da      	mvns	r2, r3
 8002de8:	687b      	ldr	r3, [r7, #4]
 8002dea:	681b      	ldr	r3, [r3, #0]
 8002dec:	400a      	ands	r2, r1
 8002dee:	62da      	str	r2, [r3, #44]	@ 0x2c

    /* Set the SQx bits for the selected rank */
    hadc->Instance->SQR1 |= ADC_SQR1_RK(sConfig->Channel, sConfig->Rank);
 8002df0:	687b      	ldr	r3, [r7, #4]
 8002df2:	681b      	ldr	r3, [r3, #0]
 8002df4:	6ad9      	ldr	r1, [r3, #44]	@ 0x2c
 8002df6:	683b      	ldr	r3, [r7, #0]
 8002df8:	681b      	ldr	r3, [r3, #0]
 8002dfa:	b29b      	uxth	r3, r3
 8002dfc:	4618      	mov	r0, r3
 8002dfe:	683b      	ldr	r3, [r7, #0]
 8002e00:	685a      	ldr	r2, [r3, #4]
 8002e02:	4613      	mov	r3, r2
 8002e04:	009b      	lsls	r3, r3, #2
 8002e06:	4413      	add	r3, r2
 8002e08:	3b41      	subs	r3, #65	@ 0x41
 8002e0a:	fa00 f203 	lsl.w	r2, r0, r3
 8002e0e:	687b      	ldr	r3, [r7, #4]
 8002e10:	681b      	ldr	r3, [r3, #0]
 8002e12:	430a      	orrs	r2, r1
 8002e14:	62da      	str	r2, [r3, #44]	@ 0x2c
  }

  /* Pointer to the common control register to which is belonging hadc    */
  /* (Depending on STM32F4 product, there may be up to 3 ADCs and 1 common */
  /* control register)                                                    */
  tmpADC_Common = ADC_COMMON_REGISTER(hadc);
 8002e16:	4b29      	ldr	r3, [pc, #164]	@ (8002ebc <HAL_ADC_ConfigChannel+0x250>)
 8002e18:	60fb      	str	r3, [r7, #12]

  /* if ADC1 Channel_18 is selected for VBAT Channel ennable VBATE */
  if ((hadc->Instance == ADC1) && (sConfig->Channel == ADC_CHANNEL_VBAT))
 8002e1a:	687b      	ldr	r3, [r7, #4]
 8002e1c:	681b      	ldr	r3, [r3, #0]
 8002e1e:	4a28      	ldr	r2, [pc, #160]	@ (8002ec0 <HAL_ADC_ConfigChannel+0x254>)
 8002e20:	4293      	cmp	r3, r2
 8002e22:	d10f      	bne.n	8002e44 <HAL_ADC_ConfigChannel+0x1d8>
 8002e24:	683b      	ldr	r3, [r7, #0]
 8002e26:	681b      	ldr	r3, [r3, #0]
 8002e28:	2b12      	cmp	r3, #18
 8002e2a:	d10b      	bne.n	8002e44 <HAL_ADC_ConfigChannel+0x1d8>
  {
    /* Disable the TEMPSENSOR channel in case of using board with multiplixed ADC_CHANNEL_VBAT & ADC_CHANNEL_TEMPSENSOR*/
    if ((uint16_t)ADC_CHANNEL_TEMPSENSOR == (uint16_t)ADC_CHANNEL_VBAT)
    {
      tmpADC_Common->CCR &= ~ADC_CCR_TSVREFE;
 8002e2c:	68fb      	ldr	r3, [r7, #12]
 8002e2e:	685b      	ldr	r3, [r3, #4]
 8002e30:	f423 0200 	bic.w	r2, r3, #8388608	@ 0x800000
 8002e34:	68fb      	ldr	r3, [r7, #12]
 8002e36:	605a      	str	r2, [r3, #4]
    }
    /* Enable the VBAT channel*/
    tmpADC_Common->CCR |= ADC_CCR_VBATE;
 8002e38:	68fb      	ldr	r3, [r7, #12]
 8002e3a:	685b      	ldr	r3, [r3, #4]
 8002e3c:	f443 0280 	orr.w	r2, r3, #4194304	@ 0x400000
 8002e40:	68fb      	ldr	r3, [r7, #12]
 8002e42:	605a      	str	r2, [r3, #4]
  }

  /* if ADC1 Channel_16 or Channel_18 is selected for Temperature sensor or
     Channel_17 is selected for VREFINT enable TSVREFE */
  if ((hadc->Instance == ADC1) && ((sConfig->Channel == ADC_CHANNEL_TEMPSENSOR) || (sConfig->Channel == ADC_CHANNEL_VREFINT)))
 8002e44:	687b      	ldr	r3, [r7, #4]
 8002e46:	681b      	ldr	r3, [r3, #0]
 8002e48:	4a1d      	ldr	r2, [pc, #116]	@ (8002ec0 <HAL_ADC_ConfigChannel+0x254>)
 8002e4a:	4293      	cmp	r3, r2
 8002e4c:	d12b      	bne.n	8002ea6 <HAL_ADC_ConfigChannel+0x23a>
 8002e4e:	683b      	ldr	r3, [r7, #0]
 8002e50:	681b      	ldr	r3, [r3, #0]
 8002e52:	4a1c      	ldr	r2, [pc, #112]	@ (8002ec4 <HAL_ADC_ConfigChannel+0x258>)
 8002e54:	4293      	cmp	r3, r2
 8002e56:	d003      	beq.n	8002e60 <HAL_ADC_ConfigChannel+0x1f4>
 8002e58:	683b      	ldr	r3, [r7, #0]
 8002e5a:	681b      	ldr	r3, [r3, #0]
 8002e5c:	2b11      	cmp	r3, #17
 8002e5e:	d122      	bne.n	8002ea6 <HAL_ADC_ConfigChannel+0x23a>
  {
    /* Disable the VBAT channel in case of using board with multiplixed ADC_CHANNEL_VBAT & ADC_CHANNEL_TEMPSENSOR*/
    if ((uint16_t)ADC_CHANNEL_TEMPSENSOR == (uint16_t)ADC_CHANNEL_VBAT)
    {
      tmpADC_Common->CCR &= ~ADC_CCR_VBATE;
 8002e60:	68fb      	ldr	r3, [r7, #12]
 8002e62:	685b      	ldr	r3, [r3, #4]
 8002e64:	f423 0280 	bic.w	r2, r3, #4194304	@ 0x400000
 8002e68:	68fb      	ldr	r3, [r7, #12]
 8002e6a:	605a      	str	r2, [r3, #4]
    }
    /* Enable the Temperature sensor and VREFINT channel*/
    tmpADC_Common->CCR |= ADC_CCR_TSVREFE;
 8002e6c:	68fb      	ldr	r3, [r7, #12]
 8002e6e:	685b      	ldr	r3, [r3, #4]
 8002e70:	f443 0200 	orr.w	r2, r3, #8388608	@ 0x800000
 8002e74:	68fb      	ldr	r3, [r7, #12]
 8002e76:	605a      	str	r2, [r3, #4]

    if (sConfig->Channel == ADC_CHANNEL_TEMPSENSOR)
 8002e78:	683b      	ldr	r3, [r7, #0]
 8002e7a:	681b      	ldr	r3, [r3, #0]
 8002e7c:	4a11      	ldr	r2, [pc, #68]	@ (8002ec4 <HAL_ADC_ConfigChannel+0x258>)
 8002e7e:	4293      	cmp	r3, r2
 8002e80:	d111      	bne.n	8002ea6 <HAL_ADC_ConfigChannel+0x23a>
    {
      /* Delay for temperature sensor stabilization time */
      /* Compute number of CPU cycles to wait for */
      counter = (ADC_TEMPSENSOR_DELAY_US * (SystemCoreClock / 1000000U));
 8002e82:	4b11      	ldr	r3, [pc, #68]	@ (8002ec8 <HAL_ADC_ConfigChannel+0x25c>)
 8002e84:	681b      	ldr	r3, [r3, #0]
 8002e86:	4a11      	ldr	r2, [pc, #68]	@ (8002ecc <HAL_ADC_ConfigChannel+0x260>)
 8002e88:	fba2 2303 	umull	r2, r3, r2, r3
 8002e8c:	0c9a      	lsrs	r2, r3, #18
 8002e8e:	4613      	mov	r3, r2
 8002e90:	009b      	lsls	r3, r3, #2
 8002e92:	4413      	add	r3, r2
 8002e94:	005b      	lsls	r3, r3, #1
 8002e96:	60bb      	str	r3, [r7, #8]
      while (counter != 0U)
 8002e98:	e002      	b.n	8002ea0 <HAL_ADC_ConfigChannel+0x234>
      {
        counter--;
 8002e9a:	68bb      	ldr	r3, [r7, #8]
 8002e9c:	3b01      	subs	r3, #1
 8002e9e:	60bb      	str	r3, [r7, #8]
      while (counter != 0U)
 8002ea0:	68bb      	ldr	r3, [r7, #8]
 8002ea2:	2b00      	cmp	r3, #0
 8002ea4:	d1f9      	bne.n	8002e9a <HAL_ADC_ConfigChannel+0x22e>
      }
    }
  }

  /* Process unlocked */
  __HAL_UNLOCK(hadc);
 8002ea6:	687b      	ldr	r3, [r7, #4]
 8002ea8:	2200      	movs	r2, #0
 8002eaa:	f883 203c 	strb.w	r2, [r3, #60]	@ 0x3c

  /* Return function status */
  return HAL_OK;
 8002eae:	2300      	movs	r3, #0
}
 8002eb0:	4618      	mov	r0, r3
 8002eb2:	3714      	adds	r7, #20
 8002eb4:	46bd      	mov	sp, r7
 8002eb6:	f85d 7b04 	ldr.w	r7, [sp], #4
 8002eba:	4770      	bx	lr
 8002ebc:	40012300 	.word	0x40012300
 8002ec0:	40012000 	.word	0x40012000
 8002ec4:	10000012 	.word	0x10000012
 8002ec8:	20000000 	.word	0x20000000
 8002ecc:	431bde83 	.word	0x431bde83

08002ed0 <ADC_Init>:
  * @param  hadc pointer to a ADC_HandleTypeDef structure that contains
  *         the configuration information for the specified ADC.
  * @retval None
  */
static void ADC_Init(ADC_HandleTypeDef *hadc)
{
 8002ed0:	b480      	push	{r7}
 8002ed2:	b085      	sub	sp, #20
 8002ed4:	af00      	add	r7, sp, #0
 8002ed6:	6078      	str	r0, [r7, #4]

  /* Set ADC parameters */
  /* Pointer to the common control register to which is belonging hadc    */
  /* (Depending on STM32F4 product, there may be up to 3 ADCs and 1 common */
  /* control register)                                                    */
  tmpADC_Common = ADC_COMMON_REGISTER(hadc);
 8002ed8:	4b79      	ldr	r3, [pc, #484]	@ (80030c0 <ADC_Init+0x1f0>)
 8002eda:	60fb      	str	r3, [r7, #12]

  /* Set the ADC clock prescaler */
  tmpADC_Common->CCR &= ~(ADC_CCR_ADCPRE);
 8002edc:	68fb      	ldr	r3, [r7, #12]
 8002ede:	685b      	ldr	r3, [r3, #4]
 8002ee0:	f423 3240 	bic.w	r2, r3, #196608	@ 0x30000
 8002ee4:	68fb      	ldr	r3, [r7, #12]
 8002ee6:	605a      	str	r2, [r3, #4]
  tmpADC_Common->CCR |=  hadc->Init.ClockPrescaler;
 8002ee8:	68fb      	ldr	r3, [r7, #12]
 8002eea:	685a      	ldr	r2, [r3, #4]
 8002eec:	687b      	ldr	r3, [r7, #4]
 8002eee:	685b      	ldr	r3, [r3, #4]
 8002ef0:	431a      	orrs	r2, r3
 8002ef2:	68fb      	ldr	r3, [r7, #12]
 8002ef4:	605a      	str	r2, [r3, #4]

  /* Set ADC scan mode */
  hadc->Instance->CR1 &= ~(ADC_CR1_SCAN);
 8002ef6:	687b      	ldr	r3, [r7, #4]
 8002ef8:	681b      	ldr	r3, [r3, #0]
 8002efa:	685a      	ldr	r2, [r3, #4]
 8002efc:	687b      	ldr	r3, [r7, #4]
 8002efe:	681b      	ldr	r3, [r3, #0]
 8002f00:	f422 7280 	bic.w	r2, r2, #256	@ 0x100
 8002f04:	605a      	str	r2, [r3, #4]
  hadc->Instance->CR1 |=  ADC_CR1_SCANCONV(hadc->Init.ScanConvMode);
 8002f06:	687b      	ldr	r3, [r7, #4]
 8002f08:	681b      	ldr	r3, [r3, #0]
 8002f0a:	6859      	ldr	r1, [r3, #4]
 8002f0c:	687b      	ldr	r3, [r7, #4]
 8002f0e:	691b      	ldr	r3, [r3, #16]
 8002f10:	021a      	lsls	r2, r3, #8
 8002f12:	687b      	ldr	r3, [r7, #4]
 8002f14:	681b      	ldr	r3, [r3, #0]
 8002f16:	430a      	orrs	r2, r1
 8002f18:	605a      	str	r2, [r3, #4]

  /* Set ADC resolution */
  hadc->Instance->CR1 &= ~(ADC_CR1_RES);
 8002f1a:	687b      	ldr	r3, [r7, #4]
 8002f1c:	681b      	ldr	r3, [r3, #0]
 8002f1e:	685a      	ldr	r2, [r3, #4]
 8002f20:	687b      	ldr	r3, [r7, #4]
 8002f22:	681b      	ldr	r3, [r3, #0]
 8002f24:	f022 7240 	bic.w	r2, r2, #50331648	@ 0x3000000
 8002f28:	605a      	str	r2, [r3, #4]
  hadc->Instance->CR1 |=  hadc->Init.Resolution;
 8002f2a:	687b      	ldr	r3, [r7, #4]
 8002f2c:	681b      	ldr	r3, [r3, #0]
 8002f2e:	6859      	ldr	r1, [r3, #4]
 8002f30:	687b      	ldr	r3, [r7, #4]
 8002f32:	689a      	ldr	r2, [r3, #8]
 8002f34:	687b      	ldr	r3, [r7, #4]
 8002f36:	681b      	ldr	r3, [r3, #0]
 8002f38:	430a      	orrs	r2, r1
 8002f3a:	605a      	str	r2, [r3, #4]

  /* Set ADC data alignment */
  hadc->Instance->CR2 &= ~(ADC_CR2_ALIGN);
 8002f3c:	687b      	ldr	r3, [r7, #4]
 8002f3e:	681b      	ldr	r3, [r3, #0]
 8002f40:	689a      	ldr	r2, [r3, #8]
 8002f42:	687b      	ldr	r3, [r7, #4]
 8002f44:	681b      	ldr	r3, [r3, #0]
 8002f46:	f422 6200 	bic.w	r2, r2, #2048	@ 0x800
 8002f4a:	609a      	str	r2, [r3, #8]
  hadc->Instance->CR2 |= hadc->Init.DataAlign;
 8002f4c:	687b      	ldr	r3, [r7, #4]
 8002f4e:	681b      	ldr	r3, [r3, #0]
 8002f50:	6899      	ldr	r1, [r3, #8]
 8002f52:	687b      	ldr	r3, [r7, #4]
 8002f54:	68da      	ldr	r2, [r3, #12]
 8002f56:	687b      	ldr	r3, [r7, #4]
 8002f58:	681b      	ldr	r3, [r3, #0]
 8002f5a:	430a      	orrs	r2, r1
 8002f5c:	609a      	str	r2, [r3, #8]
  /* Enable external trigger if trigger selection is different of software  */
  /* start.                                                                 */
  /* Note: This configuration keeps the hardware feature of parameter       */
  /*       ExternalTrigConvEdge "trigger edge none" equivalent to           */
  /*       software start.                                                  */
  if (hadc->Init.ExternalTrigConv != ADC_SOFTWARE_START)
 8002f5e:	687b      	ldr	r3, [r7, #4]
 8002f60:	6a9b      	ldr	r3, [r3, #40]	@ 0x28
 8002f62:	4a58      	ldr	r2, [pc, #352]	@ (80030c4 <ADC_Init+0x1f4>)
 8002f64:	4293      	cmp	r3, r2
 8002f66:	d022      	beq.n	8002fae <ADC_Init+0xde>
  {
    /* Select external trigger to start conversion */
    hadc->Instance->CR2 &= ~(ADC_CR2_EXTSEL);
 8002f68:	687b      	ldr	r3, [r7, #4]
 8002f6a:	681b      	ldr	r3, [r3, #0]
 8002f6c:	689a      	ldr	r2, [r3, #8]
 8002f6e:	687b      	ldr	r3, [r7, #4]
 8002f70:	681b      	ldr	r3, [r3, #0]
 8002f72:	f022 6270 	bic.w	r2, r2, #251658240	@ 0xf000000
 8002f76:	609a      	str	r2, [r3, #8]
    hadc->Instance->CR2 |= hadc->Init.ExternalTrigConv;
 8002f78:	687b      	ldr	r3, [r7, #4]
 8002f7a:	681b      	ldr	r3, [r3, #0]
 8002f7c:	6899      	ldr	r1, [r3, #8]
 8002f7e:	687b      	ldr	r3, [r7, #4]
 8002f80:	6a9a      	ldr	r2, [r3, #40]	@ 0x28
 8002f82:	687b      	ldr	r3, [r7, #4]
 8002f84:	681b      	ldr	r3, [r3, #0]
 8002f86:	430a      	orrs	r2, r1
 8002f88:	609a      	str	r2, [r3, #8]

    /* Select external trigger polarity */
    hadc->Instance->CR2 &= ~(ADC_CR2_EXTEN);
 8002f8a:	687b      	ldr	r3, [r7, #4]
 8002f8c:	681b      	ldr	r3, [r3, #0]
 8002f8e:	689a      	ldr	r2, [r3, #8]
 8002f90:	687b      	ldr	r3, [r7, #4]
 8002f92:	681b      	ldr	r3, [r3, #0]
 8002f94:	f022 5240 	bic.w	r2, r2, #805306368	@ 0x30000000
 8002f98:	609a      	str	r2, [r3, #8]
    hadc->Instance->CR2 |= hadc->Init.ExternalTrigConvEdge;
 8002f9a:	687b      	ldr	r3, [r7, #4]
 8002f9c:	681b      	ldr	r3, [r3, #0]
 8002f9e:	6899      	ldr	r1, [r3, #8]
 8002fa0:	687b      	ldr	r3, [r7, #4]
 8002fa2:	6ada      	ldr	r2, [r3, #44]	@ 0x2c
 8002fa4:	687b      	ldr	r3, [r7, #4]
 8002fa6:	681b      	ldr	r3, [r3, #0]
 8002fa8:	430a      	orrs	r2, r1
 8002faa:	609a      	str	r2, [r3, #8]
 8002fac:	e00f      	b.n	8002fce <ADC_Init+0xfe>
  }
  else
  {
    /* Reset the external trigger */
    hadc->Instance->CR2 &= ~(ADC_CR2_EXTSEL);
 8002fae:	687b      	ldr	r3, [r7, #4]
 8002fb0:	681b      	ldr	r3, [r3, #0]
 8002fb2:	689a      	ldr	r2, [r3, #8]
 8002fb4:	687b      	ldr	r3, [r7, #4]
 8002fb6:	681b      	ldr	r3, [r3, #0]
 8002fb8:	f022 6270 	bic.w	r2, r2, #251658240	@ 0xf000000
 8002fbc:	609a      	str	r2, [r3, #8]
    hadc->Instance->CR2 &= ~(ADC_CR2_EXTEN);
 8002fbe:	687b      	ldr	r3, [r7, #4]
 8002fc0:	681b      	ldr	r3, [r3, #0]
 8002fc2:	689a      	ldr	r2, [r3, #8]
 8002fc4:	687b      	ldr	r3, [r7, #4]
 8002fc6:	681b      	ldr	r3, [r3, #0]
 8002fc8:	f022 5240 	bic.w	r2, r2, #805306368	@ 0x30000000
 8002fcc:	609a      	str	r2, [r3, #8]
  }

  /* Enable or disable ADC continuous conversion mode */
  hadc->Instance->CR2 &= ~(ADC_CR2_CONT);
 8002fce:	687b      	ldr	r3, [r7, #4]
 8002fd0:	681b      	ldr	r3, [r3, #0]
 8002fd2:	689a      	ldr	r2, [r3, #8]
 8002fd4:	687b      	ldr	r3, [r7, #4]
 8002fd6:	681b      	ldr	r3, [r3, #0]
 8002fd8:	f022 0202 	bic.w	r2, r2, #2
 8002fdc:	609a      	str	r2, [r3, #8]
  hadc->Instance->CR2 |= ADC_CR2_CONTINUOUS((uint32_t)hadc->Init.ContinuousConvMode);
 8002fde:	687b      	ldr	r3, [r7, #4]
 8002fe0:	681b      	ldr	r3, [r3, #0]
 8002fe2:	6899      	ldr	r1, [r3, #8]
 8002fe4:	687b      	ldr	r3, [r7, #4]
 8002fe6:	7e1b      	ldrb	r3, [r3, #24]
 8002fe8:	005a      	lsls	r2, r3, #1
 8002fea:	687b      	ldr	r3, [r7, #4]
 8002fec:	681b      	ldr	r3, [r3, #0]
 8002fee:	430a      	orrs	r2, r1
 8002ff0:	609a      	str	r2, [r3, #8]

  if (hadc->Init.DiscontinuousConvMode != DISABLE)
 8002ff2:	687b      	ldr	r3, [r7, #4]
 8002ff4:	f893 3020 	ldrb.w	r3, [r3, #32]
 8002ff8:	2b00      	cmp	r3, #0
 8002ffa:	d01b      	beq.n	8003034 <ADC_Init+0x164>
  {
    assert_param(IS_ADC_REGULAR_DISC_NUMBER(hadc->Init.NbrOfDiscConversion));

    /* Enable the selected ADC regular discontinuous mode */
    hadc->Instance->CR1 |= (uint32_t)ADC_CR1_DISCEN;
 8002ffc:	687b      	ldr	r3, [r7, #4]
 8002ffe:	681b      	ldr	r3, [r3, #0]
 8003000:	685a      	ldr	r2, [r3, #4]
 8003002:	687b      	ldr	r3, [r7, #4]
 8003004:	681b      	ldr	r3, [r3, #0]
 8003006:	f442 6200 	orr.w	r2, r2, #2048	@ 0x800
 800300a:	605a      	str	r2, [r3, #4]

    /* Set the number of channels to be converted in discontinuous mode */
    hadc->Instance->CR1 &= ~(ADC_CR1_DISCNUM);
 800300c:	687b      	ldr	r3, [r7, #4]
 800300e:	681b      	ldr	r3, [r3, #0]
 8003010:	685a      	ldr	r2, [r3, #4]
 8003012:	687b      	ldr	r3, [r7, #4]
 8003014:	681b      	ldr	r3, [r3, #0]
 8003016:	f422 4260 	bic.w	r2, r2, #57344	@ 0xe000
 800301a:	605a      	str	r2, [r3, #4]
    hadc->Instance->CR1 |=  ADC_CR1_DISCONTINUOUS(hadc->Init.NbrOfDiscConversion);
 800301c:	687b      	ldr	r3, [r7, #4]
 800301e:	681b      	ldr	r3, [r3, #0]
 8003020:	6859      	ldr	r1, [r3, #4]
 8003022:	687b      	ldr	r3, [r7, #4]
 8003024:	6a5b      	ldr	r3, [r3, #36]	@ 0x24
 8003026:	3b01      	subs	r3, #1
 8003028:	035a      	lsls	r2, r3, #13
 800302a:	687b      	ldr	r3, [r7, #4]
 800302c:	681b      	ldr	r3, [r3, #0]
 800302e:	430a      	orrs	r2, r1
 8003030:	605a      	str	r2, [r3, #4]
 8003032:	e007      	b.n	8003044 <ADC_Init+0x174>
  }
  else
  {
    /* Disable the selected ADC regular discontinuous mode */
    hadc->Instance->CR1 &= ~(ADC_CR1_DISCEN);
 8003034:	687b      	ldr	r3, [r7, #4]
 8003036:	681b      	ldr	r3, [r3, #0]
 8003038:	685a      	ldr	r2, [r3, #4]
 800303a:	687b      	ldr	r3, [r7, #4]
 800303c:	681b      	ldr	r3, [r3, #0]
 800303e:	f422 6200 	bic.w	r2, r2, #2048	@ 0x800
 8003042:	605a      	str	r2, [r3, #4]
  }

  /* Set ADC number of conversion */
  hadc->Instance->SQR1 &= ~(ADC_SQR1_L);
 8003044:	687b      	ldr	r3, [r7, #4]
 8003046:	681b      	ldr	r3, [r3, #0]
 8003048:	6ada      	ldr	r2, [r3, #44]	@ 0x2c
 800304a:	687b      	ldr	r3, [r7, #4]
 800304c:	681b      	ldr	r3, [r3, #0]
 800304e:	f422 0270 	bic.w	r2, r2, #15728640	@ 0xf00000
 8003052:	62da      	str	r2, [r3, #44]	@ 0x2c
  hadc->Instance->SQR1 |=  ADC_SQR1(hadc->Init.NbrOfConversion);
 8003054:	687b      	ldr	r3, [r7, #4]
 8003056:	681b      	ldr	r3, [r3, #0]
 8003058:	6ad9      	ldr	r1, [r3, #44]	@ 0x2c
 800305a:	687b      	ldr	r3, [r7, #4]
 800305c:	69db      	ldr	r3, [r3, #28]
 800305e:	3b01      	subs	r3, #1
 8003060:	051a      	lsls	r2, r3, #20
 8003062:	687b      	ldr	r3, [r7, #4]
 8003064:	681b      	ldr	r3, [r3, #0]
 8003066:	430a      	orrs	r2, r1
 8003068:	62da      	str	r2, [r3, #44]	@ 0x2c

  /* Enable or disable ADC DMA continuous request */
  hadc->Instance->CR2 &= ~(ADC_CR2_DDS);
 800306a:	687b      	ldr	r3, [r7, #4]
 800306c:	681b      	ldr	r3, [r3, #0]
 800306e:	689a      	ldr	r2, [r3, #8]
 8003070:	687b      	ldr	r3, [r7, #4]
 8003072:	681b      	ldr	r3, [r3, #0]
 8003074:	f422 7200 	bic.w	r2, r2, #512	@ 0x200
 8003078:	609a      	str	r2, [r3, #8]
  hadc->Instance->CR2 |= ADC_CR2_DMAContReq((uint32_t)hadc->Init.DMAContinuousRequests);
 800307a:	687b      	ldr	r3, [r7, #4]
 800307c:	681b      	ldr	r3, [r3, #0]
 800307e:	6899      	ldr	r1, [r3, #8]
 8003080:	687b      	ldr	r3, [r7, #4]
 8003082:	f893 3030 	ldrb.w	r3, [r3, #48]	@ 0x30
 8003086:	025a      	lsls	r2, r3, #9
 8003088:	687b      	ldr	r3, [r7, #4]
 800308a:	681b      	ldr	r3, [r3, #0]
 800308c:	430a      	orrs	r2, r1
 800308e:	609a      	str	r2, [r3, #8]

  /* Enable or disable ADC end of conversion selection */
  hadc->Instance->CR2 &= ~(ADC_CR2_EOCS);
 8003090:	687b      	ldr	r3, [r7, #4]
 8003092:	681b      	ldr	r3, [r3, #0]
 8003094:	689a      	ldr	r2, [r3, #8]
 8003096:	687b      	ldr	r3, [r7, #4]
 8003098:	681b      	ldr	r3, [r3, #0]
 800309a:	f422 6280 	bic.w	r2, r2, #1024	@ 0x400
 800309e:	609a      	str	r2, [r3, #8]
  hadc->Instance->CR2 |= ADC_CR2_EOCSelection(hadc->Init.EOCSelection);
 80030a0:	687b      	ldr	r3, [r7, #4]
 80030a2:	681b      	ldr	r3, [r3, #0]
 80030a4:	6899      	ldr	r1, [r3, #8]
 80030a6:	687b      	ldr	r3, [r7, #4]
 80030a8:	695b      	ldr	r3, [r3, #20]
 80030aa:	029a      	lsls	r2, r3, #10
 80030ac:	687b      	ldr	r3, [r7, #4]
 80030ae:	681b      	ldr	r3, [r3, #0]
 80030b0:	430a      	orrs	r2, r1
 80030b2:	609a      	str	r2, [r3, #8]
}
 80030b4:	bf00      	nop
 80030b6:	3714      	adds	r7, #20
 80030b8:	46bd      	mov	sp, r7
 80030ba:	f85d 7b04 	ldr.w	r7, [sp], #4
 80030be:	4770      	bx	lr
 80030c0:	40012300 	.word	0x40012300
 80030c4:	0f000001 	.word	0x0f000001

080030c8 <HAL_ADCEx_InjectedStart>:
  * @param  hadc pointer to a ADC_HandleTypeDef structure that contains
  *         the configuration information for the specified ADC.
  * @retval HAL status
  */
HAL_StatusTypeDef HAL_ADCEx_InjectedStart(ADC_HandleTypeDef *hadc)
{
 80030c8:	b480      	push	{r7}
 80030ca:	b087      	sub	sp, #28
 80030cc:	af00      	add	r7, sp, #0
 80030ce:	6078      	str	r0, [r7, #4]
  __IO uint32_t counter = 0U;
 80030d0:	2300      	movs	r3, #0
 80030d2:	60bb      	str	r3, [r7, #8]
  uint32_t tmp1 = 0U, tmp2 = 0U;
 80030d4:	2300      	movs	r3, #0
 80030d6:	617b      	str	r3, [r7, #20]
 80030d8:	2300      	movs	r3, #0
 80030da:	613b      	str	r3, [r7, #16]
  ADC_Common_TypeDef *tmpADC_Common;

  /* Process locked */
  __HAL_LOCK(hadc);
 80030dc:	687b      	ldr	r3, [r7, #4]
 80030de:	f893 303c 	ldrb.w	r3, [r3, #60]	@ 0x3c
 80030e2:	2b01      	cmp	r3, #1
 80030e4:	d101      	bne.n	80030ea <HAL_ADCEx_InjectedStart+0x22>
 80030e6:	2302      	movs	r3, #2
 80030e8:	e0aa      	b.n	8003240 <HAL_ADCEx_InjectedStart+0x178>
 80030ea:	687b      	ldr	r3, [r7, #4]
 80030ec:	2201      	movs	r2, #1
 80030ee:	f883 203c 	strb.w	r2, [r3, #60]	@ 0x3c

  /* Enable the ADC peripheral */

  /* Check if ADC peripheral is disabled in order to enable it and wait during
     Tstab time the ADC's stabilization */
  if ((hadc->Instance->CR2 & ADC_CR2_ADON) != ADC_CR2_ADON)
 80030f2:	687b      	ldr	r3, [r7, #4]
 80030f4:	681b      	ldr	r3, [r3, #0]
 80030f6:	689b      	ldr	r3, [r3, #8]
 80030f8:	f003 0301 	and.w	r3, r3, #1
 80030fc:	2b01      	cmp	r3, #1
 80030fe:	d018      	beq.n	8003132 <HAL_ADCEx_InjectedStart+0x6a>
  {
    /* Enable the Peripheral */
    __HAL_ADC_ENABLE(hadc);
 8003100:	687b      	ldr	r3, [r7, #4]
 8003102:	681b      	ldr	r3, [r3, #0]
 8003104:	689a      	ldr	r2, [r3, #8]
 8003106:	687b      	ldr	r3, [r7, #4]
 8003108:	681b      	ldr	r3, [r3, #0]
 800310a:	f042 0201 	orr.w	r2, r2, #1
 800310e:	609a      	str	r2, [r3, #8]

    /* Delay for ADC stabilization time */
    /* Compute number of CPU cycles to wait for */
    counter = (ADC_STAB_DELAY_US * (SystemCoreClock / 1000000U));
 8003110:	4b4e      	ldr	r3, [pc, #312]	@ (800324c <HAL_ADCEx_InjectedStart+0x184>)
 8003112:	681b      	ldr	r3, [r3, #0]
 8003114:	4a4e      	ldr	r2, [pc, #312]	@ (8003250 <HAL_ADCEx_InjectedStart+0x188>)
 8003116:	fba2 2303 	umull	r2, r3, r2, r3
 800311a:	0c9a      	lsrs	r2, r3, #18
 800311c:	4613      	mov	r3, r2
 800311e:	005b      	lsls	r3, r3, #1
 8003120:	4413      	add	r3, r2
 8003122:	60bb      	str	r3, [r7, #8]
    while (counter != 0U)
 8003124:	e002      	b.n	800312c <HAL_ADCEx_InjectedStart+0x64>
    {
      counter--;
 8003126:	68bb      	ldr	r3, [r7, #8]
 8003128:	3b01      	subs	r3, #1
 800312a:	60bb      	str	r3, [r7, #8]
    while (counter != 0U)
 800312c:	68bb      	ldr	r3, [r7, #8]
 800312e:	2b00      	cmp	r3, #0
 8003130:	d1f9      	bne.n	8003126 <HAL_ADCEx_InjectedStart+0x5e>
    }
  }

  /* Start conversion if ADC is effectively enabled */
  if (HAL_IS_BIT_SET(hadc->Instance->CR2, ADC_CR2_ADON))
 8003132:	687b      	ldr	r3, [r7, #4]
 8003134:	681b      	ldr	r3, [r3, #0]
 8003136:	689b      	ldr	r3, [r3, #8]
 8003138:	f003 0301 	and.w	r3, r3, #1
 800313c:	2b01      	cmp	r3, #1
 800313e:	d172      	bne.n	8003226 <HAL_ADCEx_InjectedStart+0x15e>
  {
    /* Set ADC state                                                          */
    /* - Clear state bitfield related to injected group conversion results    */
    /* - Set state bitfield related to injected operation                     */
    ADC_STATE_CLR_SET(hadc->State,
 8003140:	687b      	ldr	r3, [r7, #4]
 8003142:	6c1b      	ldr	r3, [r3, #64]	@ 0x40
 8003144:	f423 5340 	bic.w	r3, r3, #12288	@ 0x3000
 8003148:	f023 0301 	bic.w	r3, r3, #1
 800314c:	f443 5280 	orr.w	r2, r3, #4096	@ 0x1000
 8003150:	687b      	ldr	r3, [r7, #4]
 8003152:	641a      	str	r2, [r3, #64]	@ 0x40

    /* Check if a regular conversion is ongoing */
    /* Note: On this device, there is no ADC error code fields related to     */
    /*       conversions on group injected only. In case of conversion on     */
    /*       going on group regular, no error code is reset.                  */
    if (HAL_IS_BIT_CLR(hadc->State, HAL_ADC_STATE_REG_BUSY))
 8003154:	687b      	ldr	r3, [r7, #4]
 8003156:	6c1b      	ldr	r3, [r3, #64]	@ 0x40
 8003158:	f403 7380 	and.w	r3, r3, #256	@ 0x100
 800315c:	2b00      	cmp	r3, #0
 800315e:	d102      	bne.n	8003166 <HAL_ADCEx_InjectedStart+0x9e>
    {
      /* Reset ADC all error code fields */
      ADC_CLEAR_ERRORCODE(hadc);
 8003160:	687b      	ldr	r3, [r7, #4]
 8003162:	2200      	movs	r2, #0
 8003164:	645a      	str	r2, [r3, #68]	@ 0x44
    }

    /* Process unlocked */
    /* Unlock before starting ADC conversions: in case of potential           */
    /* interruption, to let the process to ADC IRQ Handler.                   */
    __HAL_UNLOCK(hadc);
 8003166:	687b      	ldr	r3, [r7, #4]
 8003168:	2200      	movs	r2, #0
 800316a:	f883 203c 	strb.w	r2, [r3, #60]	@ 0x3c

    /* Clear injected group conversion flag */
    /* (To ensure of no unknown state from potential previous ADC operations) */
    __HAL_ADC_CLEAR_FLAG(hadc, ADC_FLAG_JEOC);
 800316e:	687b      	ldr	r3, [r7, #4]
 8003170:	681b      	ldr	r3, [r3, #0]
 8003172:	f06f 0204 	mvn.w	r2, #4
 8003176:	601a      	str	r2, [r3, #0]

    /* Pointer to the common control register to which is belonging hadc    */
    /* (Depending on STM32F4 product, there may be up to 3 ADC and 1 common */
    /* control register)                                                    */
    tmpADC_Common = ADC_COMMON_REGISTER(hadc);
 8003178:	4b36      	ldr	r3, [pc, #216]	@ (8003254 <HAL_ADCEx_InjectedStart+0x18c>)
 800317a:	60fb      	str	r3, [r7, #12]

    /* Check if Multimode enabled */
    if (HAL_IS_BIT_CLR(tmpADC_Common->CCR, ADC_CCR_MULTI))
 800317c:	68fb      	ldr	r3, [r7, #12]
 800317e:	685b      	ldr	r3, [r3, #4]
 8003180:	f003 031f 	and.w	r3, r3, #31
 8003184:	2b00      	cmp	r3, #0
 8003186:	d124      	bne.n	80031d2 <HAL_ADCEx_InjectedStart+0x10a>
    {
      tmp1 = HAL_IS_BIT_CLR(hadc->Instance->CR2, ADC_CR2_JEXTEN);
 8003188:	687b      	ldr	r3, [r7, #4]
 800318a:	681b      	ldr	r3, [r3, #0]
 800318c:	689b      	ldr	r3, [r3, #8]
 800318e:	f403 1340 	and.w	r3, r3, #3145728	@ 0x300000
 8003192:	2b00      	cmp	r3, #0
 8003194:	bf0c      	ite	eq
 8003196:	2301      	moveq	r3, #1
 8003198:	2300      	movne	r3, #0
 800319a:	b2db      	uxtb	r3, r3
 800319c:	617b      	str	r3, [r7, #20]
      tmp2 = HAL_IS_BIT_CLR(hadc->Instance->CR1, ADC_CR1_JAUTO);
 800319e:	687b      	ldr	r3, [r7, #4]
 80031a0:	681b      	ldr	r3, [r3, #0]
 80031a2:	685b      	ldr	r3, [r3, #4]
 80031a4:	f403 6380 	and.w	r3, r3, #1024	@ 0x400
 80031a8:	2b00      	cmp	r3, #0
 80031aa:	bf0c      	ite	eq
 80031ac:	2301      	moveq	r3, #1
 80031ae:	2300      	movne	r3, #0
 80031b0:	b2db      	uxtb	r3, r3
 80031b2:	613b      	str	r3, [r7, #16]
      if (tmp1 && tmp2)
 80031b4:	697b      	ldr	r3, [r7, #20]
 80031b6:	2b00      	cmp	r3, #0
 80031b8:	d041      	beq.n	800323e <HAL_ADCEx_InjectedStart+0x176>
 80031ba:	693b      	ldr	r3, [r7, #16]
 80031bc:	2b00      	cmp	r3, #0
 80031be:	d03e      	beq.n	800323e <HAL_ADCEx_InjectedStart+0x176>
      {
        /* Enable the selected ADC software conversion for injected group */
        hadc->Instance->CR2 |= ADC_CR2_JSWSTART;
 80031c0:	687b      	ldr	r3, [r7, #4]
 80031c2:	681b      	ldr	r3, [r3, #0]
 80031c4:	689a      	ldr	r2, [r3, #8]
 80031c6:	687b      	ldr	r3, [r7, #4]
 80031c8:	681b      	ldr	r3, [r3, #0]
 80031ca:	f442 0280 	orr.w	r2, r2, #4194304	@ 0x400000
 80031ce:	609a      	str	r2, [r3, #8]
 80031d0:	e035      	b.n	800323e <HAL_ADCEx_InjectedStart+0x176>
      }
    }
    else
    {
      tmp1 = HAL_IS_BIT_CLR(hadc->Instance->CR2, ADC_CR2_JEXTEN);
 80031d2:	687b      	ldr	r3, [r7, #4]
 80031d4:	681b      	ldr	r3, [r3, #0]
 80031d6:	689b      	ldr	r3, [r3, #8]
 80031d8:	f403 1340 	and.w	r3, r3, #3145728	@ 0x300000
 80031dc:	2b00      	cmp	r3, #0
 80031de:	bf0c      	ite	eq
 80031e0:	2301      	moveq	r3, #1
 80031e2:	2300      	movne	r3, #0
 80031e4:	b2db      	uxtb	r3, r3
 80031e6:	617b      	str	r3, [r7, #20]
      tmp2 = HAL_IS_BIT_CLR(hadc->Instance->CR1, ADC_CR1_JAUTO);
 80031e8:	687b      	ldr	r3, [r7, #4]
 80031ea:	681b      	ldr	r3, [r3, #0]
 80031ec:	685b      	ldr	r3, [r3, #4]
 80031ee:	f403 6380 	and.w	r3, r3, #1024	@ 0x400
 80031f2:	2b00      	cmp	r3, #0
 80031f4:	bf0c      	ite	eq
 80031f6:	2301      	moveq	r3, #1
 80031f8:	2300      	movne	r3, #0
 80031fa:	b2db      	uxtb	r3, r3
 80031fc:	613b      	str	r3, [r7, #16]
      if ((hadc->Instance == ADC1) && tmp1 && tmp2)
 80031fe:	687b      	ldr	r3, [r7, #4]
 8003200:	681b      	ldr	r3, [r3, #0]
 8003202:	4a15      	ldr	r2, [pc, #84]	@ (8003258 <HAL_ADCEx_InjectedStart+0x190>)
 8003204:	4293      	cmp	r3, r2
 8003206:	d11a      	bne.n	800323e <HAL_ADCEx_InjectedStart+0x176>
 8003208:	697b      	ldr	r3, [r7, #20]
 800320a:	2b00      	cmp	r3, #0
 800320c:	d017      	beq.n	800323e <HAL_ADCEx_InjectedStart+0x176>
 800320e:	693b      	ldr	r3, [r7, #16]
 8003210:	2b00      	cmp	r3, #0
 8003212:	d014      	beq.n	800323e <HAL_ADCEx_InjectedStart+0x176>
      {
        /* Enable the selected ADC software conversion for injected group */
        hadc->Instance->CR2 |= ADC_CR2_JSWSTART;
 8003214:	687b      	ldr	r3, [r7, #4]
 8003216:	681b      	ldr	r3, [r3, #0]
 8003218:	689a      	ldr	r2, [r3, #8]
 800321a:	687b      	ldr	r3, [r7, #4]
 800321c:	681b      	ldr	r3, [r3, #0]
 800321e:	f442 0280 	orr.w	r2, r2, #4194304	@ 0x400000
 8003222:	609a      	str	r2, [r3, #8]
 8003224:	e00b      	b.n	800323e <HAL_ADCEx_InjectedStart+0x176>
    }
  }
  else
  {
    /* Update ADC state machine to error */
    SET_BIT(hadc->State, HAL_ADC_STATE_ERROR_INTERNAL);
 8003226:	687b      	ldr	r3, [r7, #4]
 8003228:	6c1b      	ldr	r3, [r3, #64]	@ 0x40
 800322a:	f043 0210 	orr.w	r2, r3, #16
 800322e:	687b      	ldr	r3, [r7, #4]
 8003230:	641a      	str	r2, [r3, #64]	@ 0x40

    /* Set ADC error code to ADC IP internal error */
    SET_BIT(hadc->ErrorCode, HAL_ADC_ERROR_INTERNAL);
 8003232:	687b      	ldr	r3, [r7, #4]
 8003234:	6c5b      	ldr	r3, [r3, #68]	@ 0x44
 8003236:	f043 0201 	orr.w	r2, r3, #1
 800323a:	687b      	ldr	r3, [r7, #4]
 800323c:	645a      	str	r2, [r3, #68]	@ 0x44
  }

  /* Return function status */
  return HAL_OK;
 800323e:	2300      	movs	r3, #0
}
 8003240:	4618      	mov	r0, r3
 8003242:	371c      	adds	r7, #28
 8003244:	46bd      	mov	sp, r7
 8003246:	f85d 7b04 	ldr.w	r7, [sp], #4
 800324a:	4770      	bx	lr
 800324c:	20000000 	.word	0x20000000
 8003250:	431bde83 	.word	0x431bde83
 8003254:	40012300 	.word	0x40012300
 8003258:	40012000 	.word	0x40012000

0800325c <HAL_CAN_Init>:
  * @param  hcan pointer to a CAN_HandleTypeDef structure that contains
  *         the configuration information for the specified CAN.
  * @retval HAL status
  */
HAL_StatusTypeDef HAL_CAN_Init(CAN_HandleTypeDef *hcan)
{
 800325c:	b580      	push	{r7, lr}
 800325e:	b084      	sub	sp, #16
 8003260:	af00      	add	r7, sp, #0
 8003262:	6078      	str	r0, [r7, #4]
  uint32_t tickstart;

  /* Check CAN handle */
  if (hcan == NULL)
 8003264:	687b      	ldr	r3, [r7, #4]
 8003266:	2b00      	cmp	r3, #0
 8003268:	d101      	bne.n	800326e <HAL_CAN_Init+0x12>
  {
    return HAL_ERROR;
 800326a:	2301      	movs	r3, #1
 800326c:	e0ed      	b.n	800344a <HAL_CAN_Init+0x1ee>
    /* Init the low level hardware: CLOCK, NVIC */
    hcan->MspInitCallback(hcan);
  }

#else
  if (hcan->State == HAL_CAN_STATE_RESET)
 800326e:	687b      	ldr	r3, [r7, #4]
 8003270:	f893 3020 	ldrb.w	r3, [r3, #32]
 8003274:	b2db      	uxtb	r3, r3
 8003276:	2b00      	cmp	r3, #0
 8003278:	d102      	bne.n	8003280 <HAL_CAN_Init+0x24>
  {
    /* Init the low level hardware: CLOCK, NVIC */
    HAL_CAN_MspInit(hcan);
 800327a:	6878      	ldr	r0, [r7, #4]
 800327c:	f7ff f884 	bl	8002388 <HAL_CAN_MspInit>
  }
#endif /* USE_HAL_CAN_REGISTER_CALLBACKS */

  /* Request initialisation */
  SET_BIT(hcan->Instance->MCR, CAN_MCR_INRQ);
 8003280:	687b      	ldr	r3, [r7, #4]
 8003282:	681b      	ldr	r3, [r3, #0]
 8003284:	681a      	ldr	r2, [r3, #0]
 8003286:	687b      	ldr	r3, [r7, #4]
 8003288:	681b      	ldr	r3, [r3, #0]
 800328a:	f042 0201 	orr.w	r2, r2, #1
 800328e:	601a      	str	r2, [r3, #0]

  /* Get tick */
  tickstart = HAL_GetTick();
 8003290:	f7ff fb0e 	bl	80028b0 <HAL_GetTick>
 8003294:	60f8      	str	r0, [r7, #12]

  /* Wait initialisation acknowledge */
  while ((hcan->Instance->MSR & CAN_MSR_INAK) == 0U)
 8003296:	e012      	b.n	80032be <HAL_CAN_Init+0x62>
  {
    if ((HAL_GetTick() - tickstart) > CAN_TIMEOUT_VALUE)
 8003298:	f7ff fb0a 	bl	80028b0 <HAL_GetTick>
 800329c:	4602      	mov	r2, r0
 800329e:	68fb      	ldr	r3, [r7, #12]
 80032a0:	1ad3      	subs	r3, r2, r3
 80032a2:	2b0a      	cmp	r3, #10
 80032a4:	d90b      	bls.n	80032be <HAL_CAN_Init+0x62>
    {
      /* Update error code */
      hcan->ErrorCode |= HAL_CAN_ERROR_TIMEOUT;
 80032a6:	687b      	ldr	r3, [r7, #4]
 80032a8:	6a5b      	ldr	r3, [r3, #36]	@ 0x24
 80032aa:	f443 3200 	orr.w	r2, r3, #131072	@ 0x20000
 80032ae:	687b      	ldr	r3, [r7, #4]
 80032b0:	625a      	str	r2, [r3, #36]	@ 0x24

      /* Change CAN state */
      hcan->State = HAL_CAN_STATE_ERROR;
 80032b2:	687b      	ldr	r3, [r7, #4]
 80032b4:	2205      	movs	r2, #5
 80032b6:	f883 2020 	strb.w	r2, [r3, #32]

      return HAL_ERROR;
 80032ba:	2301      	movs	r3, #1
 80032bc:	e0c5      	b.n	800344a <HAL_CAN_Init+0x1ee>
  while ((hcan->Instance->MSR & CAN_MSR_INAK) == 0U)
 80032be:	687b      	ldr	r3, [r7, #4]
 80032c0:	681b      	ldr	r3, [r3, #0]
 80032c2:	685b      	ldr	r3, [r3, #4]
 80032c4:	f003 0301 	and.w	r3, r3, #1
 80032c8:	2b00      	cmp	r3, #0
 80032ca:	d0e5      	beq.n	8003298 <HAL_CAN_Init+0x3c>
    }
  }

  /* Exit from sleep mode */
  CLEAR_BIT(hcan->Instance->MCR, CAN_MCR_SLEEP);
 80032cc:	687b      	ldr	r3, [r7, #4]
 80032ce:	681b      	ldr	r3, [r3, #0]
 80032d0:	681a      	ldr	r2, [r3, #0]
 80032d2:	687b      	ldr	r3, [r7, #4]
 80032d4:	681b      	ldr	r3, [r3, #0]
 80032d6:	f022 0202 	bic.w	r2, r2, #2
 80032da:	601a      	str	r2, [r3, #0]

  /* Get tick */
  tickstart = HAL_GetTick();
 80032dc:	f7ff fae8 	bl	80028b0 <HAL_GetTick>
 80032e0:	60f8      	str	r0, [r7, #12]

  /* Check Sleep mode leave acknowledge */
  while ((hcan->Instance->MSR & CAN_MSR_SLAK) != 0U)
 80032e2:	e012      	b.n	800330a <HAL_CAN_Init+0xae>
  {
    if ((HAL_GetTick() - tickstart) > CAN_TIMEOUT_VALUE)
 80032e4:	f7ff fae4 	bl	80028b0 <HAL_GetTick>
 80032e8:	4602      	mov	r2, r0
 80032ea:	68fb      	ldr	r3, [r7, #12]
 80032ec:	1ad3      	subs	r3, r2, r3
 80032ee:	2b0a      	cmp	r3, #10
 80032f0:	d90b      	bls.n	800330a <HAL_CAN_Init+0xae>
    {
      /* Update error code */
      hcan->ErrorCode |= HAL_CAN_ERROR_TIMEOUT;
 80032f2:	687b      	ldr	r3, [r7, #4]
 80032f4:	6a5b      	ldr	r3, [r3, #36]	@ 0x24
 80032f6:	f443 3200 	orr.w	r2, r3, #131072	@ 0x20000
 80032fa:	687b      	ldr	r3, [r7, #4]
 80032fc:	625a      	str	r2, [r3, #36]	@ 0x24

      /* Change CAN state */
      hcan->State = HAL_CAN_STATE_ERROR;
 80032fe:	687b      	ldr	r3, [r7, #4]
 8003300:	2205      	movs	r2, #5
 8003302:	f883 2020 	strb.w	r2, [r3, #32]

      return HAL_ERROR;
 8003306:	2301      	movs	r3, #1
 8003308:	e09f      	b.n	800344a <HAL_CAN_Init+0x1ee>
  while ((hcan->Instance->MSR & CAN_MSR_SLAK) != 0U)
 800330a:	687b      	ldr	r3, [r7, #4]
 800330c:	681b      	ldr	r3, [r3, #0]
 800330e:	685b      	ldr	r3, [r3, #4]
 8003310:	f003 0302 	and.w	r3, r3, #2
 8003314:	2b00      	cmp	r3, #0
 8003316:	d1e5      	bne.n	80032e4 <HAL_CAN_Init+0x88>
    }
  }

  /* Set the time triggered communication mode */
  if (hcan->Init.TimeTriggeredMode == ENABLE)
 8003318:	687b      	ldr	r3, [r7, #4]
 800331a:	7e1b      	ldrb	r3, [r3, #24]
 800331c:	2b01      	cmp	r3, #1
 800331e:	d108      	bne.n	8003332 <HAL_CAN_Init+0xd6>
  {
    SET_BIT(hcan->Instance->MCR, CAN_MCR_TTCM);
 8003320:	687b      	ldr	r3, [r7, #4]
 8003322:	681b      	ldr	r3, [r3, #0]
 8003324:	681a      	ldr	r2, [r3, #0]
 8003326:	687b      	ldr	r3, [r7, #4]
 8003328:	681b      	ldr	r3, [r3, #0]
 800332a:	f042 0280 	orr.w	r2, r2, #128	@ 0x80
 800332e:	601a      	str	r2, [r3, #0]
 8003330:	e007      	b.n	8003342 <HAL_CAN_Init+0xe6>
  }
  else
  {
    CLEAR_BIT(hcan->Instance->MCR, CAN_MCR_TTCM);
 8003332:	687b      	ldr	r3, [r7, #4]
 8003334:	681b      	ldr	r3, [r3, #0]
 8003336:	681a      	ldr	r2, [r3, #0]
 8003338:	687b      	ldr	r3, [r7, #4]
 800333a:	681b      	ldr	r3, [r3, #0]
 800333c:	f022 0280 	bic.w	r2, r2, #128	@ 0x80
 8003340:	601a      	str	r2, [r3, #0]
  }

  /* Set the automatic bus-off management */
  if (hcan->Init.AutoBusOff == ENABLE)
 8003342:	687b      	ldr	r3, [r7, #4]
 8003344:	7e5b      	ldrb	r3, [r3, #25]
 8003346:	2b01      	cmp	r3, #1
 8003348:	d108      	bne.n	800335c <HAL_CAN_Init+0x100>
  {
    SET_BIT(hcan->Instance->MCR, CAN_MCR_ABOM);
 800334a:	687b      	ldr	r3, [r7, #4]
 800334c:	681b      	ldr	r3, [r3, #0]
 800334e:	681a      	ldr	r2, [r3, #0]
 8003350:	687b      	ldr	r3, [r7, #4]
 8003352:	681b      	ldr	r3, [r3, #0]
 8003354:	f042 0240 	orr.w	r2, r2, #64	@ 0x40
 8003358:	601a      	str	r2, [r3, #0]
 800335a:	e007      	b.n	800336c <HAL_CAN_Init+0x110>
  }
  else
  {
    CLEAR_BIT(hcan->Instance->MCR, CAN_MCR_ABOM);
 800335c:	687b      	ldr	r3, [r7, #4]
 800335e:	681b      	ldr	r3, [r3, #0]
 8003360:	681a      	ldr	r2, [r3, #0]
 8003362:	687b      	ldr	r3, [r7, #4]
 8003364:	681b      	ldr	r3, [r3, #0]
 8003366:	f022 0240 	bic.w	r2, r2, #64	@ 0x40
 800336a:	601a      	str	r2, [r3, #0]
  }

  /* Set the automatic wake-up mode */
  if (hcan->Init.AutoWakeUp == ENABLE)
 800336c:	687b      	ldr	r3, [r7, #4]
 800336e:	7e9b      	ldrb	r3, [r3, #26]
 8003370:	2b01      	cmp	r3, #1
 8003372:	d108      	bne.n	8003386 <HAL_CAN_Init+0x12a>
  {
    SET_BIT(hcan->Instance->MCR, CAN_MCR_AWUM);
 8003374:	687b      	ldr	r3, [r7, #4]
 8003376:	681b      	ldr	r3, [r3, #0]
 8003378:	681a      	ldr	r2, [r3, #0]
 800337a:	687b      	ldr	r3, [r7, #4]
 800337c:	681b      	ldr	r3, [r3, #0]
 800337e:	f042 0220 	orr.w	r2, r2, #32
 8003382:	601a      	str	r2, [r3, #0]
 8003384:	e007      	b.n	8003396 <HAL_CAN_Init+0x13a>
  }
  else
  {
    CLEAR_BIT(hcan->Instance->MCR, CAN_MCR_AWUM);
 8003386:	687b      	ldr	r3, [r7, #4]
 8003388:	681b      	ldr	r3, [r3, #0]
 800338a:	681a      	ldr	r2, [r3, #0]
 800338c:	687b      	ldr	r3, [r7, #4]
 800338e:	681b      	ldr	r3, [r3, #0]
 8003390:	f022 0220 	bic.w	r2, r2, #32
 8003394:	601a      	str	r2, [r3, #0]
  }

  /* Set the automatic retransmission */
  if (hcan->Init.AutoRetransmission == ENABLE)
 8003396:	687b      	ldr	r3, [r7, #4]
 8003398:	7edb      	ldrb	r3, [r3, #27]
 800339a:	2b01      	cmp	r3, #1
 800339c:	d108      	bne.n	80033b0 <HAL_CAN_Init+0x154>
  {
    CLEAR_BIT(hcan->Instance->MCR, CAN_MCR_NART);
 800339e:	687b      	ldr	r3, [r7, #4]
 80033a0:	681b      	ldr	r3, [r3, #0]
 80033a2:	681a      	ldr	r2, [r3, #0]
 80033a4:	687b      	ldr	r3, [r7, #4]
 80033a6:	681b      	ldr	r3, [r3, #0]
 80033a8:	f022 0210 	bic.w	r2, r2, #16
 80033ac:	601a      	str	r2, [r3, #0]
 80033ae:	e007      	b.n	80033c0 <HAL_CAN_Init+0x164>
  }
  else
  {
    SET_BIT(hcan->Instance->MCR, CAN_MCR_NART);
 80033b0:	687b      	ldr	r3, [r7, #4]
 80033b2:	681b      	ldr	r3, [r3, #0]
 80033b4:	681a      	ldr	r2, [r3, #0]
 80033b6:	687b      	ldr	r3, [r7, #4]
 80033b8:	681b      	ldr	r3, [r3, #0]
 80033ba:	f042 0210 	orr.w	r2, r2, #16
 80033be:	601a      	str	r2, [r3, #0]
  }

  /* Set the receive FIFO locked mode */
  if (hcan->Init.ReceiveFifoLocked == ENABLE)
 80033c0:	687b      	ldr	r3, [r7, #4]
 80033c2:	7f1b      	ldrb	r3, [r3, #28]
 80033c4:	2b01      	cmp	r3, #1
 80033c6:	d108      	bne.n	80033da <HAL_CAN_Init+0x17e>
  {
    SET_BIT(hcan->Instance->MCR, CAN_MCR_RFLM);
 80033c8:	687b      	ldr	r3, [r7, #4]
 80033ca:	681b      	ldr	r3, [r3, #0]
 80033cc:	681a      	ldr	r2, [r3, #0]
 80033ce:	687b      	ldr	r3, [r7, #4]
 80033d0:	681b      	ldr	r3, [r3, #0]
 80033d2:	f042 0208 	orr.w	r2, r2, #8
 80033d6:	601a      	str	r2, [r3, #0]
 80033d8:	e007      	b.n	80033ea <HAL_CAN_Init+0x18e>
  }
  else
  {
    CLEAR_BIT(hcan->Instance->MCR, CAN_MCR_RFLM);
 80033da:	687b      	ldr	r3, [r7, #4]
 80033dc:	681b      	ldr	r3, [r3, #0]
 80033de:	681a      	ldr	r2, [r3, #0]
 80033e0:	687b      	ldr	r3, [r7, #4]
 80033e2:	681b      	ldr	r3, [r3, #0]
 80033e4:	f022 0208 	bic.w	r2, r2, #8
 80033e8:	601a      	str	r2, [r3, #0]
  }

  /* Set the transmit FIFO priority */
  if (hcan->Init.TransmitFifoPriority == ENABLE)
 80033ea:	687b      	ldr	r3, [r7, #4]
 80033ec:	7f5b      	ldrb	r3, [r3, #29]
 80033ee:	2b01      	cmp	r3, #1
 80033f0:	d108      	bne.n	8003404 <HAL_CAN_Init+0x1a8>
  {
    SET_BIT(hcan->Instance->MCR, CAN_MCR_TXFP);
 80033f2:	687b      	ldr	r3, [r7, #4]
 80033f4:	681b      	ldr	r3, [r3, #0]
 80033f6:	681a      	ldr	r2, [r3, #0]
 80033f8:	687b      	ldr	r3, [r7, #4]
 80033fa:	681b      	ldr	r3, [r3, #0]
 80033fc:	f042 0204 	orr.w	r2, r2, #4
 8003400:	601a      	str	r2, [r3, #0]
 8003402:	e007      	b.n	8003414 <HAL_CAN_Init+0x1b8>
  }
  else
  {
    CLEAR_BIT(hcan->Instance->MCR, CAN_MCR_TXFP);
 8003404:	687b      	ldr	r3, [r7, #4]
 8003406:	681b      	ldr	r3, [r3, #0]
 8003408:	681a      	ldr	r2, [r3, #0]
 800340a:	687b      	ldr	r3, [r7, #4]
 800340c:	681b      	ldr	r3, [r3, #0]
 800340e:	f022 0204 	bic.w	r2, r2, #4
 8003412:	601a      	str	r2, [r3, #0]
  }

  /* Set the bit timing register */
  WRITE_REG(hcan->Instance->BTR, (uint32_t)(hcan->Init.Mode           |
 8003414:	687b      	ldr	r3, [r7, #4]
 8003416:	689a      	ldr	r2, [r3, #8]
 8003418:	687b      	ldr	r3, [r7, #4]
 800341a:	68db      	ldr	r3, [r3, #12]
 800341c:	431a      	orrs	r2, r3
 800341e:	687b      	ldr	r3, [r7, #4]
 8003420:	691b      	ldr	r3, [r3, #16]
 8003422:	431a      	orrs	r2, r3
 8003424:	687b      	ldr	r3, [r7, #4]
 8003426:	695b      	ldr	r3, [r3, #20]
 8003428:	ea42 0103 	orr.w	r1, r2, r3
 800342c:	687b      	ldr	r3, [r7, #4]
 800342e:	685b      	ldr	r3, [r3, #4]
 8003430:	1e5a      	subs	r2, r3, #1
 8003432:	687b      	ldr	r3, [r7, #4]
 8003434:	681b      	ldr	r3, [r3, #0]
 8003436:	430a      	orrs	r2, r1
 8003438:	61da      	str	r2, [r3, #28]
                                            hcan->Init.TimeSeg1       |
                                            hcan->Init.TimeSeg2       |
                                            (hcan->Init.Prescaler - 1U)));

  /* Initialize the error code */
  hcan->ErrorCode = HAL_CAN_ERROR_NONE;
 800343a:	687b      	ldr	r3, [r7, #4]
 800343c:	2200      	movs	r2, #0
 800343e:	625a      	str	r2, [r3, #36]	@ 0x24

  /* Initialize the CAN state */
  hcan->State = HAL_CAN_STATE_READY;
 8003440:	687b      	ldr	r3, [r7, #4]
 8003442:	2201      	movs	r2, #1
 8003444:	f883 2020 	strb.w	r2, [r3, #32]

  /* Return function status */
  return HAL_OK;
 8003448:	2300      	movs	r3, #0
}
 800344a:	4618      	mov	r0, r3
 800344c:	3710      	adds	r7, #16
 800344e:	46bd      	mov	sp, r7
 8003450:	bd80      	pop	{r7, pc}
	...

08003454 <HAL_CAN_ConfigFilter>:
  * @param  sFilterConfig pointer to a CAN_FilterTypeDef structure that
  *         contains the filter configuration information.
  * @retval None
  */
HAL_StatusTypeDef HAL_CAN_ConfigFilter(CAN_HandleTypeDef *hcan, const CAN_FilterTypeDef *sFilterConfig)
{
 8003454:	b480      	push	{r7}
 8003456:	b087      	sub	sp, #28
 8003458:	af00      	add	r7, sp, #0
 800345a:	6078      	str	r0, [r7, #4]
 800345c:	6039      	str	r1, [r7, #0]
  uint32_t filternbrbitpos;
  CAN_TypeDef *can_ip = hcan->Instance;
 800345e:	687b      	ldr	r3, [r7, #4]
 8003460:	681b      	ldr	r3, [r3, #0]
 8003462:	617b      	str	r3, [r7, #20]
  HAL_CAN_StateTypeDef state = hcan->State;
 8003464:	687b      	ldr	r3, [r7, #4]
 8003466:	f893 3020 	ldrb.w	r3, [r3, #32]
 800346a:	74fb      	strb	r3, [r7, #19]

  if ((state == HAL_CAN_STATE_READY) ||
 800346c:	7cfb      	ldrb	r3, [r7, #19]
 800346e:	2b01      	cmp	r3, #1
 8003470:	d003      	beq.n	800347a <HAL_CAN_ConfigFilter+0x26>
 8003472:	7cfb      	ldrb	r3, [r7, #19]
 8003474:	2b02      	cmp	r3, #2
 8003476:	f040 80be 	bne.w	80035f6 <HAL_CAN_ConfigFilter+0x1a2>
      assert_param(IS_CAN_FILTER_BANK_DUAL(sFilterConfig->SlaveStartFilterBank));
    }
#elif defined(CAN2)
    /* CAN1 and CAN2 are dual instances with 28 common filters banks */
    /* Select master instance to access the filter banks */
    can_ip = CAN1;
 800347a:	4b65      	ldr	r3, [pc, #404]	@ (8003610 <HAL_CAN_ConfigFilter+0x1bc>)
 800347c:	617b      	str	r3, [r7, #20]
    /* Check the parameters */
    assert_param(IS_CAN_FILTER_BANK_SINGLE(sFilterConfig->FilterBank));
#endif /* CAN3 */

    /* Initialisation mode for the filter */
    SET_BIT(can_ip->FMR, CAN_FMR_FINIT);
 800347e:	697b      	ldr	r3, [r7, #20]
 8003480:	f8d3 3200 	ldr.w	r3, [r3, #512]	@ 0x200
 8003484:	f043 0201 	orr.w	r2, r3, #1
 8003488:	697b      	ldr	r3, [r7, #20]
 800348a:	f8c3 2200 	str.w	r2, [r3, #512]	@ 0x200
      SET_BIT(can_ip->FMR, sFilterConfig->SlaveStartFilterBank << CAN_FMR_CAN2SB_Pos);
    }

#elif defined(CAN2)
    /* Select the start filter number of CAN2 slave instance */
    CLEAR_BIT(can_ip->FMR, CAN_FMR_CAN2SB);
 800348e:	697b      	ldr	r3, [r7, #20]
 8003490:	f8d3 3200 	ldr.w	r3, [r3, #512]	@ 0x200
 8003494:	f423 527c 	bic.w	r2, r3, #16128	@ 0x3f00
 8003498:	697b      	ldr	r3, [r7, #20]
 800349a:	f8c3 2200 	str.w	r2, [r3, #512]	@ 0x200
    SET_BIT(can_ip->FMR, sFilterConfig->SlaveStartFilterBank << CAN_FMR_CAN2SB_Pos);
 800349e:	697b      	ldr	r3, [r7, #20]
 80034a0:	f8d3 2200 	ldr.w	r2, [r3, #512]	@ 0x200
 80034a4:	683b      	ldr	r3, [r7, #0]
 80034a6:	6a5b      	ldr	r3, [r3, #36]	@ 0x24
 80034a8:	021b      	lsls	r3, r3, #8
 80034aa:	431a      	orrs	r2, r3
 80034ac:	697b      	ldr	r3, [r7, #20]
 80034ae:	f8c3 2200 	str.w	r2, [r3, #512]	@ 0x200

#endif /* CAN3 */
    /* Convert filter number into bit position */
    filternbrbitpos = (uint32_t)1 << (sFilterConfig->FilterBank & 0x1FU);
 80034b2:	683b      	ldr	r3, [r7, #0]
 80034b4:	695b      	ldr	r3, [r3, #20]
 80034b6:	f003 031f 	and.w	r3, r3, #31
 80034ba:	2201      	movs	r2, #1
 80034bc:	fa02 f303 	lsl.w	r3, r2, r3
 80034c0:	60fb      	str	r3, [r7, #12]

    /* Filter Deactivation */
    CLEAR_BIT(can_ip->FA1R, filternbrbitpos);
 80034c2:	697b      	ldr	r3, [r7, #20]
 80034c4:	f8d3 221c 	ldr.w	r2, [r3, #540]	@ 0x21c
 80034c8:	68fb      	ldr	r3, [r7, #12]
 80034ca:	43db      	mvns	r3, r3
 80034cc:	401a      	ands	r2, r3
 80034ce:	697b      	ldr	r3, [r7, #20]
 80034d0:	f8c3 221c 	str.w	r2, [r3, #540]	@ 0x21c

    /* Filter Scale */
    if (sFilterConfig->FilterScale == CAN_FILTERSCALE_16BIT)
 80034d4:	683b      	ldr	r3, [r7, #0]
 80034d6:	69db      	ldr	r3, [r3, #28]
 80034d8:	2b00      	cmp	r3, #0
 80034da:	d123      	bne.n	8003524 <HAL_CAN_ConfigFilter+0xd0>
    {
      /* 16-bit scale for the filter */
      CLEAR_BIT(can_ip->FS1R, filternbrbitpos);
 80034dc:	697b      	ldr	r3, [r7, #20]
 80034de:	f8d3 220c 	ldr.w	r2, [r3, #524]	@ 0x20c
 80034e2:	68fb      	ldr	r3, [r7, #12]
 80034e4:	43db      	mvns	r3, r3
 80034e6:	401a      	ands	r2, r3
 80034e8:	697b      	ldr	r3, [r7, #20]
 80034ea:	f8c3 220c 	str.w	r2, [r3, #524]	@ 0x20c

      /* First 16-bit identifier and First 16-bit mask */
      /* Or First 16-bit identifier and Second 16-bit identifier */
      can_ip->sFilterRegister[sFilterConfig->FilterBank].FR1 =
        ((0x0000FFFFU & (uint32_t)sFilterConfig->FilterMaskIdLow) << 16U) |
 80034ee:	683b      	ldr	r3, [r7, #0]
 80034f0:	68db      	ldr	r3, [r3, #12]
 80034f2:	0419      	lsls	r1, r3, #16
        (0x0000FFFFU & (uint32_t)sFilterConfig->FilterIdLow);
 80034f4:	683b      	ldr	r3, [r7, #0]
 80034f6:	685b      	ldr	r3, [r3, #4]
 80034f8:	b29b      	uxth	r3, r3
      can_ip->sFilterRegister[sFilterConfig->FilterBank].FR1 =
 80034fa:	683a      	ldr	r2, [r7, #0]
 80034fc:	6952      	ldr	r2, [r2, #20]
        ((0x0000FFFFU & (uint32_t)sFilterConfig->FilterMaskIdLow) << 16U) |
 80034fe:	4319      	orrs	r1, r3
      can_ip->sFilterRegister[sFilterConfig->FilterBank].FR1 =
 8003500:	697b      	ldr	r3, [r7, #20]
 8003502:	3248      	adds	r2, #72	@ 0x48
 8003504:	f843 1032 	str.w	r1, [r3, r2, lsl #3]

      /* Second 16-bit identifier and Second 16-bit mask */
      /* Or Third 16-bit identifier and Fourth 16-bit identifier */
      can_ip->sFilterRegister[sFilterConfig->FilterBank].FR2 =
        ((0x0000FFFFU & (uint32_t)sFilterConfig->FilterMaskIdHigh) << 16U) |
 8003508:	683b      	ldr	r3, [r7, #0]
 800350a:	689b      	ldr	r3, [r3, #8]
 800350c:	0419      	lsls	r1, r3, #16
        (0x0000FFFFU & (uint32_t)sFilterConfig->FilterIdHigh);
 800350e:	683b      	ldr	r3, [r7, #0]
 8003510:	681b      	ldr	r3, [r3, #0]
 8003512:	b29a      	uxth	r2, r3
      can_ip->sFilterRegister[sFilterConfig->FilterBank].FR2 =
 8003514:	683b      	ldr	r3, [r7, #0]
 8003516:	695b      	ldr	r3, [r3, #20]
        ((0x0000FFFFU & (uint32_t)sFilterConfig->FilterMaskIdHigh) << 16U) |
 8003518:	430a      	orrs	r2, r1
      can_ip->sFilterRegister[sFilterConfig->FilterBank].FR2 =
 800351a:	6979      	ldr	r1, [r7, #20]
 800351c:	3348      	adds	r3, #72	@ 0x48
 800351e:	00db      	lsls	r3, r3, #3
 8003520:	440b      	add	r3, r1
 8003522:	605a      	str	r2, [r3, #4]
    }

    if (sFilterConfig->FilterScale == CAN_FILTERSCALE_32BIT)
 8003524:	683b      	ldr	r3, [r7, #0]
 8003526:	69db      	ldr	r3, [r3, #28]
 8003528:	2b01      	cmp	r3, #1
 800352a:	d122      	bne.n	8003572 <HAL_CAN_ConfigFilter+0x11e>
    {
      /* 32-bit scale for the filter */
      SET_BIT(can_ip->FS1R, filternbrbitpos);
 800352c:	697b      	ldr	r3, [r7, #20]
 800352e:	f8d3 220c 	ldr.w	r2, [r3, #524]	@ 0x20c
 8003532:	68fb      	ldr	r3, [r7, #12]
 8003534:	431a      	orrs	r2, r3
 8003536:	697b      	ldr	r3, [r7, #20]
 8003538:	f8c3 220c 	str.w	r2, [r3, #524]	@ 0x20c

      /* 32-bit identifier or First 32-bit identifier */
      can_ip->sFilterRegister[sFilterConfig->FilterBank].FR1 =
        ((0x0000FFFFU & (uint32_t)sFilterConfig->FilterIdHigh) << 16U) |
 800353c:	683b      	ldr	r3, [r7, #0]
 800353e:	681b      	ldr	r3, [r3, #0]
 8003540:	0419      	lsls	r1, r3, #16
        (0x0000FFFFU & (uint32_t)sFilterConfig->FilterIdLow);
 8003542:	683b      	ldr	r3, [r7, #0]
 8003544:	685b      	ldr	r3, [r3, #4]
 8003546:	b29b      	uxth	r3, r3
      can_ip->sFilterRegister[sFilterConfig->FilterBank].FR1 =
 8003548:	683a      	ldr	r2, [r7, #0]
 800354a:	6952      	ldr	r2, [r2, #20]
        ((0x0000FFFFU & (uint32_t)sFilterConfig->FilterIdHigh) << 16U) |
 800354c:	4319      	orrs	r1, r3
      can_ip->sFilterRegister[sFilterConfig->FilterBank].FR1 =
 800354e:	697b      	ldr	r3, [r7, #20]
 8003550:	3248      	adds	r2, #72	@ 0x48
 8003552:	f843 1032 	str.w	r1, [r3, r2, lsl #3]

      /* 32-bit mask or Second 32-bit identifier */
      can_ip->sFilterRegister[sFilterConfig->FilterBank].FR2 =
        ((0x0000FFFFU & (uint32_t)sFilterConfig->FilterMaskIdHigh) << 16U) |
 8003556:	683b      	ldr	r3, [r7, #0]
 8003558:	689b      	ldr	r3, [r3, #8]
 800355a:	0419      	lsls	r1, r3, #16
        (0x0000FFFFU & (uint32_t)sFilterConfig->FilterMaskIdLow);
 800355c:	683b      	ldr	r3, [r7, #0]
 800355e:	68db      	ldr	r3, [r3, #12]
 8003560:	b29a      	uxth	r2, r3
      can_ip->sFilterRegister[sFilterConfig->FilterBank].FR2 =
 8003562:	683b      	ldr	r3, [r7, #0]
 8003564:	695b      	ldr	r3, [r3, #20]
        ((0x0000FFFFU & (uint32_t)sFilterConfig->FilterMaskIdHigh) << 16U) |
 8003566:	430a      	orrs	r2, r1
      can_ip->sFilterRegister[sFilterConfig->FilterBank].FR2 =
 8003568:	6979      	ldr	r1, [r7, #20]
 800356a:	3348      	adds	r3, #72	@ 0x48
 800356c:	00db      	lsls	r3, r3, #3
 800356e:	440b      	add	r3, r1
 8003570:	605a      	str	r2, [r3, #4]
    }

    /* Filter Mode */
    if (sFilterConfig->FilterMode == CAN_FILTERMODE_IDMASK)
 8003572:	683b      	ldr	r3, [r7, #0]
 8003574:	699b      	ldr	r3, [r3, #24]
 8003576:	2b00      	cmp	r3, #0
 8003578:	d109      	bne.n	800358e <HAL_CAN_ConfigFilter+0x13a>
    {
      /* Id/Mask mode for the filter*/
      CLEAR_BIT(can_ip->FM1R, filternbrbitpos);
 800357a:	697b      	ldr	r3, [r7, #20]
 800357c:	f8d3 2204 	ldr.w	r2, [r3, #516]	@ 0x204
 8003580:	68fb      	ldr	r3, [r7, #12]
 8003582:	43db      	mvns	r3, r3
 8003584:	401a      	ands	r2, r3
 8003586:	697b      	ldr	r3, [r7, #20]
 8003588:	f8c3 2204 	str.w	r2, [r3, #516]	@ 0x204
 800358c:	e007      	b.n	800359e <HAL_CAN_ConfigFilter+0x14a>
    }
    else /* CAN_FilterInitStruct->CAN_FilterMode == CAN_FilterMode_IdList */
    {
      /* Identifier list mode for the filter*/
      SET_BIT(can_ip->FM1R, filternbrbitpos);
 800358e:	697b      	ldr	r3, [r7, #20]
 8003590:	f8d3 2204 	ldr.w	r2, [r3, #516]	@ 0x204
 8003594:	68fb      	ldr	r3, [r7, #12]
 8003596:	431a      	orrs	r2, r3
 8003598:	697b      	ldr	r3, [r7, #20]
 800359a:	f8c3 2204 	str.w	r2, [r3, #516]	@ 0x204
    }

    /* Filter FIFO assignment */
    if (sFilterConfig->FilterFIFOAssignment == CAN_FILTER_FIFO0)
 800359e:	683b      	ldr	r3, [r7, #0]
 80035a0:	691b      	ldr	r3, [r3, #16]
 80035a2:	2b00      	cmp	r3, #0
 80035a4:	d109      	bne.n	80035ba <HAL_CAN_ConfigFilter+0x166>
    {
      /* FIFO 0 assignation for the filter */
      CLEAR_BIT(can_ip->FFA1R, filternbrbitpos);
 80035a6:	697b      	ldr	r3, [r7, #20]
 80035a8:	f8d3 2214 	ldr.w	r2, [r3, #532]	@ 0x214
 80035ac:	68fb      	ldr	r3, [r7, #12]
 80035ae:	43db      	mvns	r3, r3
 80035b0:	401a      	ands	r2, r3
 80035b2:	697b      	ldr	r3, [r7, #20]
 80035b4:	f8c3 2214 	str.w	r2, [r3, #532]	@ 0x214
 80035b8:	e007      	b.n	80035ca <HAL_CAN_ConfigFilter+0x176>
    }
    else
    {
      /* FIFO 1 assignation for the filter */
      SET_BIT(can_ip->FFA1R, filternbrbitpos);
 80035ba:	697b      	ldr	r3, [r7, #20]
 80035bc:	f8d3 2214 	ldr.w	r2, [r3, #532]	@ 0x214
 80035c0:	68fb      	ldr	r3, [r7, #12]
 80035c2:	431a      	orrs	r2, r3
 80035c4:	697b      	ldr	r3, [r7, #20]
 80035c6:	f8c3 2214 	str.w	r2, [r3, #532]	@ 0x214
    }

    /* Filter activation */
    if (sFilterConfig->FilterActivation == CAN_FILTER_ENABLE)
 80035ca:	683b      	ldr	r3, [r7, #0]
 80035cc:	6a1b      	ldr	r3, [r3, #32]
 80035ce:	2b01      	cmp	r3, #1
 80035d0:	d107      	bne.n	80035e2 <HAL_CAN_ConfigFilter+0x18e>
    {
      SET_BIT(can_ip->FA1R, filternbrbitpos);
 80035d2:	697b      	ldr	r3, [r7, #20]
 80035d4:	f8d3 221c 	ldr.w	r2, [r3, #540]	@ 0x21c
 80035d8:	68fb      	ldr	r3, [r7, #12]
 80035da:	431a      	orrs	r2, r3
 80035dc:	697b      	ldr	r3, [r7, #20]
 80035de:	f8c3 221c 	str.w	r2, [r3, #540]	@ 0x21c
    }

    /* Leave the initialisation mode for the filter */
    CLEAR_BIT(can_ip->FMR, CAN_FMR_FINIT);
 80035e2:	697b      	ldr	r3, [r7, #20]
 80035e4:	f8d3 3200 	ldr.w	r3, [r3, #512]	@ 0x200
 80035e8:	f023 0201 	bic.w	r2, r3, #1
 80035ec:	697b      	ldr	r3, [r7, #20]
 80035ee:	f8c3 2200 	str.w	r2, [r3, #512]	@ 0x200

    /* Return function status */
    return HAL_OK;
 80035f2:	2300      	movs	r3, #0
 80035f4:	e006      	b.n	8003604 <HAL_CAN_ConfigFilter+0x1b0>
  }
  else
  {
    /* Update error code */
    hcan->ErrorCode |= HAL_CAN_ERROR_NOT_INITIALIZED;
 80035f6:	687b      	ldr	r3, [r7, #4]
 80035f8:	6a5b      	ldr	r3, [r3, #36]	@ 0x24
 80035fa:	f443 2280 	orr.w	r2, r3, #262144	@ 0x40000
 80035fe:	687b      	ldr	r3, [r7, #4]
 8003600:	625a      	str	r2, [r3, #36]	@ 0x24

    return HAL_ERROR;
 8003602:	2301      	movs	r3, #1
  }
}
 8003604:	4618      	mov	r0, r3
 8003606:	371c      	adds	r7, #28
 8003608:	46bd      	mov	sp, r7
 800360a:	f85d 7b04 	ldr.w	r7, [sp], #4
 800360e:	4770      	bx	lr
 8003610:	40006400 	.word	0x40006400

08003614 <HAL_CAN_Start>:
  * @param  hcan pointer to an CAN_HandleTypeDef structure that contains
  *         the configuration information for the specified CAN.
  * @retval HAL status
  */
HAL_StatusTypeDef HAL_CAN_Start(CAN_HandleTypeDef *hcan)
{
 8003614:	b580      	push	{r7, lr}
 8003616:	b084      	sub	sp, #16
 8003618:	af00      	add	r7, sp, #0
 800361a:	6078      	str	r0, [r7, #4]
  uint32_t tickstart;

  if (hcan->State == HAL_CAN_STATE_READY)
 800361c:	687b      	ldr	r3, [r7, #4]
 800361e:	f893 3020 	ldrb.w	r3, [r3, #32]
 8003622:	b2db      	uxtb	r3, r3
 8003624:	2b01      	cmp	r3, #1
 8003626:	d12e      	bne.n	8003686 <HAL_CAN_Start+0x72>
  {
    /* Change CAN peripheral state */
    hcan->State = HAL_CAN_STATE_LISTENING;
 8003628:	687b      	ldr	r3, [r7, #4]
 800362a:	2202      	movs	r2, #2
 800362c:	f883 2020 	strb.w	r2, [r3, #32]

    /* Request leave initialisation */
    CLEAR_BIT(hcan->Instance->MCR, CAN_MCR_INRQ);
 8003630:	687b      	ldr	r3, [r7, #4]
 8003632:	681b      	ldr	r3, [r3, #0]
 8003634:	681a      	ldr	r2, [r3, #0]
 8003636:	687b      	ldr	r3, [r7, #4]
 8003638:	681b      	ldr	r3, [r3, #0]
 800363a:	f022 0201 	bic.w	r2, r2, #1
 800363e:	601a      	str	r2, [r3, #0]

    /* Get tick */
    tickstart = HAL_GetTick();
 8003640:	f7ff f936 	bl	80028b0 <HAL_GetTick>
 8003644:	60f8      	str	r0, [r7, #12]

    /* Wait the acknowledge */
    while ((hcan->Instance->MSR & CAN_MSR_INAK) != 0U)
 8003646:	e012      	b.n	800366e <HAL_CAN_Start+0x5a>
    {
      /* Check for the Timeout */
      if ((HAL_GetTick() - tickstart) > CAN_TIMEOUT_VALUE)
 8003648:	f7ff f932 	bl	80028b0 <HAL_GetTick>
 800364c:	4602      	mov	r2, r0
 800364e:	68fb      	ldr	r3, [r7, #12]
 8003650:	1ad3      	subs	r3, r2, r3
 8003652:	2b0a      	cmp	r3, #10
 8003654:	d90b      	bls.n	800366e <HAL_CAN_Start+0x5a>
      {
        /* Update error code */
        hcan->ErrorCode |= HAL_CAN_ERROR_TIMEOUT;
 8003656:	687b      	ldr	r3, [r7, #4]
 8003658:	6a5b      	ldr	r3, [r3, #36]	@ 0x24
 800365a:	f443 3200 	orr.w	r2, r3, #131072	@ 0x20000
 800365e:	687b      	ldr	r3, [r7, #4]
 8003660:	625a      	str	r2, [r3, #36]	@ 0x24

        /* Change CAN state */
        hcan->State = HAL_CAN_STATE_ERROR;
 8003662:	687b      	ldr	r3, [r7, #4]
 8003664:	2205      	movs	r2, #5
 8003666:	f883 2020 	strb.w	r2, [r3, #32]

        return HAL_ERROR;
 800366a:	2301      	movs	r3, #1
 800366c:	e012      	b.n	8003694 <HAL_CAN_Start+0x80>
    while ((hcan->Instance->MSR & CAN_MSR_INAK) != 0U)
 800366e:	687b      	ldr	r3, [r7, #4]
 8003670:	681b      	ldr	r3, [r3, #0]
 8003672:	685b      	ldr	r3, [r3, #4]
 8003674:	f003 0301 	and.w	r3, r3, #1
 8003678:	2b00      	cmp	r3, #0
 800367a:	d1e5      	bne.n	8003648 <HAL_CAN_Start+0x34>
      }
    }

    /* Reset the CAN ErrorCode */
    hcan->ErrorCode = HAL_CAN_ERROR_NONE;
 800367c:	687b      	ldr	r3, [r7, #4]
 800367e:	2200      	movs	r2, #0
 8003680:	625a      	str	r2, [r3, #36]	@ 0x24

    /* Return function status */
    return HAL_OK;
 8003682:	2300      	movs	r3, #0
 8003684:	e006      	b.n	8003694 <HAL_CAN_Start+0x80>
  }
  else
  {
    /* Update error code */
    hcan->ErrorCode |= HAL_CAN_ERROR_NOT_READY;
 8003686:	687b      	ldr	r3, [r7, #4]
 8003688:	6a5b      	ldr	r3, [r3, #36]	@ 0x24
 800368a:	f443 2200 	orr.w	r2, r3, #524288	@ 0x80000
 800368e:	687b      	ldr	r3, [r7, #4]
 8003690:	625a      	str	r2, [r3, #36]	@ 0x24

    return HAL_ERROR;
 8003692:	2301      	movs	r3, #1
  }
}
 8003694:	4618      	mov	r0, r3
 8003696:	3710      	adds	r7, #16
 8003698:	46bd      	mov	sp, r7
 800369a:	bd80      	pop	{r7, pc}

0800369c <HAL_CAN_AddTxMessage>:
  *         This parameter can be a value of @arg CAN_Tx_Mailboxes.
  * @retval HAL status
  */
HAL_StatusTypeDef HAL_CAN_AddTxMessage(CAN_HandleTypeDef *hcan, const CAN_TxHeaderTypeDef *pHeader,
                                       const uint8_t aData[], uint32_t *pTxMailbox)
{
 800369c:	b480      	push	{r7}
 800369e:	b089      	sub	sp, #36	@ 0x24
 80036a0:	af00      	add	r7, sp, #0
 80036a2:	60f8      	str	r0, [r7, #12]
 80036a4:	60b9      	str	r1, [r7, #8]
 80036a6:	607a      	str	r2, [r7, #4]
 80036a8:	603b      	str	r3, [r7, #0]
  uint32_t transmitmailbox;
  HAL_CAN_StateTypeDef state = hcan->State;
 80036aa:	68fb      	ldr	r3, [r7, #12]
 80036ac:	f893 3020 	ldrb.w	r3, [r3, #32]
 80036b0:	77fb      	strb	r3, [r7, #31]
  uint32_t tsr = READ_REG(hcan->Instance->TSR);
 80036b2:	68fb      	ldr	r3, [r7, #12]
 80036b4:	681b      	ldr	r3, [r3, #0]
 80036b6:	689b      	ldr	r3, [r3, #8]
 80036b8:	61bb      	str	r3, [r7, #24]
  {
    assert_param(IS_CAN_EXTID(pHeader->ExtId));
  }
  assert_param(IS_FUNCTIONAL_STATE(pHeader->TransmitGlobalTime));

  if ((state == HAL_CAN_STATE_READY) ||
 80036ba:	7ffb      	ldrb	r3, [r7, #31]
 80036bc:	2b01      	cmp	r3, #1
 80036be:	d003      	beq.n	80036c8 <HAL_CAN_AddTxMessage+0x2c>
 80036c0:	7ffb      	ldrb	r3, [r7, #31]
 80036c2:	2b02      	cmp	r3, #2
 80036c4:	f040 80ad 	bne.w	8003822 <HAL_CAN_AddTxMessage+0x186>
      (state == HAL_CAN_STATE_LISTENING))
  {
    /* Check that all the Tx mailboxes are not full */
    if (((tsr & CAN_TSR_TME0) != 0U) ||
 80036c8:	69bb      	ldr	r3, [r7, #24]
 80036ca:	f003 6380 	and.w	r3, r3, #67108864	@ 0x4000000
 80036ce:	2b00      	cmp	r3, #0
 80036d0:	d10a      	bne.n	80036e8 <HAL_CAN_AddTxMessage+0x4c>
        ((tsr & CAN_TSR_TME1) != 0U) ||
 80036d2:	69bb      	ldr	r3, [r7, #24]
 80036d4:	f003 6300 	and.w	r3, r3, #134217728	@ 0x8000000
    if (((tsr & CAN_TSR_TME0) != 0U) ||
 80036d8:	2b00      	cmp	r3, #0
 80036da:	d105      	bne.n	80036e8 <HAL_CAN_AddTxMessage+0x4c>
        ((tsr & CAN_TSR_TME2) != 0U))
 80036dc:	69bb      	ldr	r3, [r7, #24]
 80036de:	f003 5380 	and.w	r3, r3, #268435456	@ 0x10000000
        ((tsr & CAN_TSR_TME1) != 0U) ||
 80036e2:	2b00      	cmp	r3, #0
 80036e4:	f000 8095 	beq.w	8003812 <HAL_CAN_AddTxMessage+0x176>
    {
      /* Select an empty transmit mailbox */
      transmitmailbox = (tsr & CAN_TSR_CODE) >> CAN_TSR_CODE_Pos;
 80036e8:	69bb      	ldr	r3, [r7, #24]
 80036ea:	0e1b      	lsrs	r3, r3, #24
 80036ec:	f003 0303 	and.w	r3, r3, #3
 80036f0:	617b      	str	r3, [r7, #20]

      /* Store the Tx mailbox */
      *pTxMailbox = (uint32_t)1 << transmitmailbox;
 80036f2:	2201      	movs	r2, #1
 80036f4:	697b      	ldr	r3, [r7, #20]
 80036f6:	409a      	lsls	r2, r3
 80036f8:	683b      	ldr	r3, [r7, #0]
 80036fa:	601a      	str	r2, [r3, #0]

      /* Set up the Id */
      if (pHeader->IDE == CAN_ID_STD)
 80036fc:	68bb      	ldr	r3, [r7, #8]
 80036fe:	689b      	ldr	r3, [r3, #8]
 8003700:	2b00      	cmp	r3, #0
 8003702:	d10d      	bne.n	8003720 <HAL_CAN_AddTxMessage+0x84>
      {
        hcan->Instance->sTxMailBox[transmitmailbox].TIR = ((pHeader->StdId << CAN_TI0R_STID_Pos) |
 8003704:	68bb      	ldr	r3, [r7, #8]
 8003706:	681b      	ldr	r3, [r3, #0]
 8003708:	055a      	lsls	r2, r3, #21
                                                           pHeader->RTR);
 800370a:	68bb      	ldr	r3, [r7, #8]
 800370c:	68db      	ldr	r3, [r3, #12]
        hcan->Instance->sTxMailBox[transmitmailbox].TIR = ((pHeader->StdId << CAN_TI0R_STID_Pos) |
 800370e:	68f9      	ldr	r1, [r7, #12]
 8003710:	6809      	ldr	r1, [r1, #0]
 8003712:	431a      	orrs	r2, r3
 8003714:	697b      	ldr	r3, [r7, #20]
 8003716:	3318      	adds	r3, #24
 8003718:	011b      	lsls	r3, r3, #4
 800371a:	440b      	add	r3, r1
 800371c:	601a      	str	r2, [r3, #0]
 800371e:	e00f      	b.n	8003740 <HAL_CAN_AddTxMessage+0xa4>
      }
      else
      {
        hcan->Instance->sTxMailBox[transmitmailbox].TIR = ((pHeader->ExtId << CAN_TI0R_EXID_Pos) |
 8003720:	68bb      	ldr	r3, [r7, #8]
 8003722:	685b      	ldr	r3, [r3, #4]
 8003724:	00da      	lsls	r2, r3, #3
                                                           pHeader->IDE |
 8003726:	68bb      	ldr	r3, [r7, #8]
 8003728:	689b      	ldr	r3, [r3, #8]
        hcan->Instance->sTxMailBox[transmitmailbox].TIR = ((pHeader->ExtId << CAN_TI0R_EXID_Pos) |
 800372a:	431a      	orrs	r2, r3
                                                           pHeader->RTR);
 800372c:	68bb      	ldr	r3, [r7, #8]
 800372e:	68db      	ldr	r3, [r3, #12]
        hcan->Instance->sTxMailBox[transmitmailbox].TIR = ((pHeader->ExtId << CAN_TI0R_EXID_Pos) |
 8003730:	68f9      	ldr	r1, [r7, #12]
 8003732:	6809      	ldr	r1, [r1, #0]
                                                           pHeader->IDE |
 8003734:	431a      	orrs	r2, r3
        hcan->Instance->sTxMailBox[transmitmailbox].TIR = ((pHeader->ExtId << CAN_TI0R_EXID_Pos) |
 8003736:	697b      	ldr	r3, [r7, #20]
 8003738:	3318      	adds	r3, #24
 800373a:	011b      	lsls	r3, r3, #4
 800373c:	440b      	add	r3, r1
 800373e:	601a      	str	r2, [r3, #0]
      }

      /* Set up the DLC */
      hcan->Instance->sTxMailBox[transmitmailbox].TDTR = (pHeader->DLC);
 8003740:	68fb      	ldr	r3, [r7, #12]
 8003742:	6819      	ldr	r1, [r3, #0]
 8003744:	68bb      	ldr	r3, [r7, #8]
 8003746:	691a      	ldr	r2, [r3, #16]
 8003748:	697b      	ldr	r3, [r7, #20]
 800374a:	3318      	adds	r3, #24
 800374c:	011b      	lsls	r3, r3, #4
 800374e:	440b      	add	r3, r1
 8003750:	3304      	adds	r3, #4
 8003752:	601a      	str	r2, [r3, #0]

      /* Set up the Transmit Global Time mode */
      if (pHeader->TransmitGlobalTime == ENABLE)
 8003754:	68bb      	ldr	r3, [r7, #8]
 8003756:	7d1b      	ldrb	r3, [r3, #20]
 8003758:	2b01      	cmp	r3, #1
 800375a:	d111      	bne.n	8003780 <HAL_CAN_AddTxMessage+0xe4>
      {
        SET_BIT(hcan->Instance->sTxMailBox[transmitmailbox].TDTR, CAN_TDT0R_TGT);
 800375c:	68fb      	ldr	r3, [r7, #12]
 800375e:	681a      	ldr	r2, [r3, #0]
 8003760:	697b      	ldr	r3, [r7, #20]
 8003762:	3318      	adds	r3, #24
 8003764:	011b      	lsls	r3, r3, #4
 8003766:	4413      	add	r3, r2
 8003768:	3304      	adds	r3, #4
 800376a:	681b      	ldr	r3, [r3, #0]
 800376c:	68fa      	ldr	r2, [r7, #12]
 800376e:	6811      	ldr	r1, [r2, #0]
 8003770:	f443 7280 	orr.w	r2, r3, #256	@ 0x100
 8003774:	697b      	ldr	r3, [r7, #20]
 8003776:	3318      	adds	r3, #24
 8003778:	011b      	lsls	r3, r3, #4
 800377a:	440b      	add	r3, r1
 800377c:	3304      	adds	r3, #4
 800377e:	601a      	str	r2, [r3, #0]
      }

      /* Set up the data field */
      WRITE_REG(hcan->Instance->sTxMailBox[transmitmailbox].TDHR,
 8003780:	687b      	ldr	r3, [r7, #4]
 8003782:	3307      	adds	r3, #7
 8003784:	781b      	ldrb	r3, [r3, #0]
 8003786:	061a      	lsls	r2, r3, #24
 8003788:	687b      	ldr	r3, [r7, #4]
 800378a:	3306      	adds	r3, #6
 800378c:	781b      	ldrb	r3, [r3, #0]
 800378e:	041b      	lsls	r3, r3, #16
 8003790:	431a      	orrs	r2, r3
 8003792:	687b      	ldr	r3, [r7, #4]
 8003794:	3305      	adds	r3, #5
 8003796:	781b      	ldrb	r3, [r3, #0]
 8003798:	021b      	lsls	r3, r3, #8
 800379a:	4313      	orrs	r3, r2
 800379c:	687a      	ldr	r2, [r7, #4]
 800379e:	3204      	adds	r2, #4
 80037a0:	7812      	ldrb	r2, [r2, #0]
 80037a2:	4610      	mov	r0, r2
 80037a4:	68fa      	ldr	r2, [r7, #12]
 80037a6:	6811      	ldr	r1, [r2, #0]
 80037a8:	ea43 0200 	orr.w	r2, r3, r0
 80037ac:	697b      	ldr	r3, [r7, #20]
 80037ae:	011b      	lsls	r3, r3, #4
 80037b0:	440b      	add	r3, r1
 80037b2:	f503 73c6 	add.w	r3, r3, #396	@ 0x18c
 80037b6:	601a      	str	r2, [r3, #0]
                ((uint32_t)aData[7] << CAN_TDH0R_DATA7_Pos) |
                ((uint32_t)aData[6] << CAN_TDH0R_DATA6_Pos) |
                ((uint32_t)aData[5] << CAN_TDH0R_DATA5_Pos) |
                ((uint32_t)aData[4] << CAN_TDH0R_DATA4_Pos));
      WRITE_REG(hcan->Instance->sTxMailBox[transmitmailbox].TDLR,
 80037b8:	687b      	ldr	r3, [r7, #4]
 80037ba:	3303      	adds	r3, #3
 80037bc:	781b      	ldrb	r3, [r3, #0]
 80037be:	061a      	lsls	r2, r3, #24
 80037c0:	687b      	ldr	r3, [r7, #4]
 80037c2:	3302      	adds	r3, #2
 80037c4:	781b      	ldrb	r3, [r3, #0]
 80037c6:	041b      	lsls	r3, r3, #16
 80037c8:	431a      	orrs	r2, r3
 80037ca:	687b      	ldr	r3, [r7, #4]
 80037cc:	3301      	adds	r3, #1
 80037ce:	781b      	ldrb	r3, [r3, #0]
 80037d0:	021b      	lsls	r3, r3, #8
 80037d2:	4313      	orrs	r3, r2
 80037d4:	687a      	ldr	r2, [r7, #4]
 80037d6:	7812      	ldrb	r2, [r2, #0]
 80037d8:	4610      	mov	r0, r2
 80037da:	68fa      	ldr	r2, [r7, #12]
 80037dc:	6811      	ldr	r1, [r2, #0]
 80037de:	ea43 0200 	orr.w	r2, r3, r0
 80037e2:	697b      	ldr	r3, [r7, #20]
 80037e4:	011b      	lsls	r3, r3, #4
 80037e6:	440b      	add	r3, r1
 80037e8:	f503 73c4 	add.w	r3, r3, #392	@ 0x188
 80037ec:	601a      	str	r2, [r3, #0]
                ((uint32_t)aData[2] << CAN_TDL0R_DATA2_Pos) |
                ((uint32_t)aData[1] << CAN_TDL0R_DATA1_Pos) |
                ((uint32_t)aData[0] << CAN_TDL0R_DATA0_Pos));

      /* Request transmission */
      SET_BIT(hcan->Instance->sTxMailBox[transmitmailbox].TIR, CAN_TI0R_TXRQ);
 80037ee:	68fb      	ldr	r3, [r7, #12]
 80037f0:	681a      	ldr	r2, [r3, #0]
 80037f2:	697b      	ldr	r3, [r7, #20]
 80037f4:	3318      	adds	r3, #24
 80037f6:	011b      	lsls	r3, r3, #4
 80037f8:	4413      	add	r3, r2
 80037fa:	681b      	ldr	r3, [r3, #0]
 80037fc:	68fa      	ldr	r2, [r7, #12]
 80037fe:	6811      	ldr	r1, [r2, #0]
 8003800:	f043 0201 	orr.w	r2, r3, #1
 8003804:	697b      	ldr	r3, [r7, #20]
 8003806:	3318      	adds	r3, #24
 8003808:	011b      	lsls	r3, r3, #4
 800380a:	440b      	add	r3, r1
 800380c:	601a      	str	r2, [r3, #0]

      /* Return function status */
      return HAL_OK;
 800380e:	2300      	movs	r3, #0
 8003810:	e00e      	b.n	8003830 <HAL_CAN_AddTxMessage+0x194>
    }
    else
    {
      /* Update error code */
      hcan->ErrorCode |= HAL_CAN_ERROR_PARAM;
 8003812:	68fb      	ldr	r3, [r7, #12]
 8003814:	6a5b      	ldr	r3, [r3, #36]	@ 0x24
 8003816:	f443 1200 	orr.w	r2, r3, #2097152	@ 0x200000
 800381a:	68fb      	ldr	r3, [r7, #12]
 800381c:	625a      	str	r2, [r3, #36]	@ 0x24

      return HAL_ERROR;
 800381e:	2301      	movs	r3, #1
 8003820:	e006      	b.n	8003830 <HAL_CAN_AddTxMessage+0x194>
    }
  }
  else
  {
    /* Update error code */
    hcan->ErrorCode |= HAL_CAN_ERROR_NOT_INITIALIZED;
 8003822:	68fb      	ldr	r3, [r7, #12]
 8003824:	6a5b      	ldr	r3, [r3, #36]	@ 0x24
 8003826:	f443 2280 	orr.w	r2, r3, #262144	@ 0x40000
 800382a:	68fb      	ldr	r3, [r7, #12]
 800382c:	625a      	str	r2, [r3, #36]	@ 0x24

    return HAL_ERROR;
 800382e:	2301      	movs	r3, #1
  }
}
 8003830:	4618      	mov	r0, r3
 8003832:	3724      	adds	r7, #36	@ 0x24
 8003834:	46bd      	mov	sp, r7
 8003836:	f85d 7b04 	ldr.w	r7, [sp], #4
 800383a:	4770      	bx	lr

0800383c <HAL_CAN_GetTxMailboxesFreeLevel>:
  * @param  hcan pointer to a CAN_HandleTypeDef structure that contains
  *         the configuration information for the specified CAN.
  * @retval Number of free Tx Mailboxes.
  */
uint32_t HAL_CAN_GetTxMailboxesFreeLevel(const CAN_HandleTypeDef *hcan)
{
 800383c:	b480      	push	{r7}
 800383e:	b085      	sub	sp, #20
 8003840:	af00      	add	r7, sp, #0
 8003842:	6078      	str	r0, [r7, #4]
  uint32_t freelevel = 0U;
 8003844:	2300      	movs	r3, #0
 8003846:	60fb      	str	r3, [r7, #12]
  HAL_CAN_StateTypeDef state = hcan->State;
 8003848:	687b      	ldr	r3, [r7, #4]
 800384a:	f893 3020 	ldrb.w	r3, [r3, #32]
 800384e:	72fb      	strb	r3, [r7, #11]

  if ((state == HAL_CAN_STATE_READY) ||
 8003850:	7afb      	ldrb	r3, [r7, #11]
 8003852:	2b01      	cmp	r3, #1
 8003854:	d002      	beq.n	800385c <HAL_CAN_GetTxMailboxesFreeLevel+0x20>
 8003856:	7afb      	ldrb	r3, [r7, #11]
 8003858:	2b02      	cmp	r3, #2
 800385a:	d11d      	bne.n	8003898 <HAL_CAN_GetTxMailboxesFreeLevel+0x5c>
      (state == HAL_CAN_STATE_LISTENING))
  {
    /* Check Tx Mailbox 0 status */
    if ((hcan->Instance->TSR & CAN_TSR_TME0) != 0U)
 800385c:	687b      	ldr	r3, [r7, #4]
 800385e:	681b      	ldr	r3, [r3, #0]
 8003860:	689b      	ldr	r3, [r3, #8]
 8003862:	f003 6380 	and.w	r3, r3, #67108864	@ 0x4000000
 8003866:	2b00      	cmp	r3, #0
 8003868:	d002      	beq.n	8003870 <HAL_CAN_GetTxMailboxesFreeLevel+0x34>
    {
      freelevel++;
 800386a:	68fb      	ldr	r3, [r7, #12]
 800386c:	3301      	adds	r3, #1
 800386e:	60fb      	str	r3, [r7, #12]
    }

    /* Check Tx Mailbox 1 status */
    if ((hcan->Instance->TSR & CAN_TSR_TME1) != 0U)
 8003870:	687b      	ldr	r3, [r7, #4]
 8003872:	681b      	ldr	r3, [r3, #0]
 8003874:	689b      	ldr	r3, [r3, #8]
 8003876:	f003 6300 	and.w	r3, r3, #134217728	@ 0x8000000
 800387a:	2b00      	cmp	r3, #0
 800387c:	d002      	beq.n	8003884 <HAL_CAN_GetTxMailboxesFreeLevel+0x48>
    {
      freelevel++;
 800387e:	68fb      	ldr	r3, [r7, #12]
 8003880:	3301      	adds	r3, #1
 8003882:	60fb      	str	r3, [r7, #12]
    }

    /* Check Tx Mailbox 2 status */
    if ((hcan->Instance->TSR & CAN_TSR_TME2) != 0U)
 8003884:	687b      	ldr	r3, [r7, #4]
 8003886:	681b      	ldr	r3, [r3, #0]
 8003888:	689b      	ldr	r3, [r3, #8]
 800388a:	f003 5380 	and.w	r3, r3, #268435456	@ 0x10000000
 800388e:	2b00      	cmp	r3, #0
 8003890:	d002      	beq.n	8003898 <HAL_CAN_GetTxMailboxesFreeLevel+0x5c>
    {
      freelevel++;
 8003892:	68fb      	ldr	r3, [r7, #12]
 8003894:	3301      	adds	r3, #1
 8003896:	60fb      	str	r3, [r7, #12]
    }
  }

  /* Return Tx Mailboxes free level */
  return freelevel;
 8003898:	68fb      	ldr	r3, [r7, #12]
}
 800389a:	4618      	mov	r0, r3
 800389c:	3714      	adds	r7, #20
 800389e:	46bd      	mov	sp, r7
 80038a0:	f85d 7b04 	ldr.w	r7, [sp], #4
 80038a4:	4770      	bx	lr

080038a6 <HAL_CAN_GetRxMessage>:
  * @param  aData array where the payload of the Rx frame will be stored.
  * @retval HAL status
  */
HAL_StatusTypeDef HAL_CAN_GetRxMessage(CAN_HandleTypeDef *hcan, uint32_t RxFifo,
                                       CAN_RxHeaderTypeDef *pHeader, uint8_t aData[])
{
 80038a6:	b480      	push	{r7}
 80038a8:	b087      	sub	sp, #28
 80038aa:	af00      	add	r7, sp, #0
 80038ac:	60f8      	str	r0, [r7, #12]
 80038ae:	60b9      	str	r1, [r7, #8]
 80038b0:	607a      	str	r2, [r7, #4]
 80038b2:	603b      	str	r3, [r7, #0]
  HAL_CAN_StateTypeDef state = hcan->State;
 80038b4:	68fb      	ldr	r3, [r7, #12]
 80038b6:	f893 3020 	ldrb.w	r3, [r3, #32]
 80038ba:	75fb      	strb	r3, [r7, #23]

  assert_param(IS_CAN_RX_FIFO(RxFifo));

  if ((state == HAL_CAN_STATE_READY) ||
 80038bc:	7dfb      	ldrb	r3, [r7, #23]
 80038be:	2b01      	cmp	r3, #1
 80038c0:	d003      	beq.n	80038ca <HAL_CAN_GetRxMessage+0x24>
 80038c2:	7dfb      	ldrb	r3, [r7, #23]
 80038c4:	2b02      	cmp	r3, #2
 80038c6:	f040 8103 	bne.w	8003ad0 <HAL_CAN_GetRxMessage+0x22a>
      (state == HAL_CAN_STATE_LISTENING))
  {
    /* Check the Rx FIFO */
    if (RxFifo == CAN_RX_FIFO0) /* Rx element is assigned to Rx FIFO 0 */
 80038ca:	68bb      	ldr	r3, [r7, #8]
 80038cc:	2b00      	cmp	r3, #0
 80038ce:	d10e      	bne.n	80038ee <HAL_CAN_GetRxMessage+0x48>
    {
      /* Check that the Rx FIFO 0 is not empty */
      if ((hcan->Instance->RF0R & CAN_RF0R_FMP0) == 0U)
 80038d0:	68fb      	ldr	r3, [r7, #12]
 80038d2:	681b      	ldr	r3, [r3, #0]
 80038d4:	68db      	ldr	r3, [r3, #12]
 80038d6:	f003 0303 	and.w	r3, r3, #3
 80038da:	2b00      	cmp	r3, #0
 80038dc:	d116      	bne.n	800390c <HAL_CAN_GetRxMessage+0x66>
      {
        /* Update error code */
        hcan->ErrorCode |= HAL_CAN_ERROR_PARAM;
 80038de:	68fb      	ldr	r3, [r7, #12]
 80038e0:	6a5b      	ldr	r3, [r3, #36]	@ 0x24
 80038e2:	f443 1200 	orr.w	r2, r3, #2097152	@ 0x200000
 80038e6:	68fb      	ldr	r3, [r7, #12]
 80038e8:	625a      	str	r2, [r3, #36]	@ 0x24

        return HAL_ERROR;
 80038ea:	2301      	movs	r3, #1
 80038ec:	e0f7      	b.n	8003ade <HAL_CAN_GetRxMessage+0x238>
      }
    }
    else /* Rx element is assigned to Rx FIFO 1 */
    {
      /* Check that the Rx FIFO 1 is not empty */
      if ((hcan->Instance->RF1R & CAN_RF1R_FMP1) == 0U)
 80038ee:	68fb      	ldr	r3, [r7, #12]
 80038f0:	681b      	ldr	r3, [r3, #0]
 80038f2:	691b      	ldr	r3, [r3, #16]
 80038f4:	f003 0303 	and.w	r3, r3, #3
 80038f8:	2b00      	cmp	r3, #0
 80038fa:	d107      	bne.n	800390c <HAL_CAN_GetRxMessage+0x66>
      {
        /* Update error code */
        hcan->ErrorCode |= HAL_CAN_ERROR_PARAM;
 80038fc:	68fb      	ldr	r3, [r7, #12]
 80038fe:	6a5b      	ldr	r3, [r3, #36]	@ 0x24
 8003900:	f443 1200 	orr.w	r2, r3, #2097152	@ 0x200000
 8003904:	68fb      	ldr	r3, [r7, #12]
 8003906:	625a      	str	r2, [r3, #36]	@ 0x24

        return HAL_ERROR;
 8003908:	2301      	movs	r3, #1
 800390a:	e0e8      	b.n	8003ade <HAL_CAN_GetRxMessage+0x238>
      }
    }

    /* Get the header */
    pHeader->IDE = CAN_RI0R_IDE & hcan->Instance->sFIFOMailBox[RxFifo].RIR;
 800390c:	68fb      	ldr	r3, [r7, #12]
 800390e:	681a      	ldr	r2, [r3, #0]
 8003910:	68bb      	ldr	r3, [r7, #8]
 8003912:	331b      	adds	r3, #27
 8003914:	011b      	lsls	r3, r3, #4
 8003916:	4413      	add	r3, r2
 8003918:	681b      	ldr	r3, [r3, #0]
 800391a:	f003 0204 	and.w	r2, r3, #4
 800391e:	687b      	ldr	r3, [r7, #4]
 8003920:	609a      	str	r2, [r3, #8]
    if (pHeader->IDE == CAN_ID_STD)
 8003922:	687b      	ldr	r3, [r7, #4]
 8003924:	689b      	ldr	r3, [r3, #8]
 8003926:	2b00      	cmp	r3, #0
 8003928:	d10c      	bne.n	8003944 <HAL_CAN_GetRxMessage+0x9e>
    {
      pHeader->StdId = (CAN_RI0R_STID & hcan->Instance->sFIFOMailBox[RxFifo].RIR) >> CAN_TI0R_STID_Pos;
 800392a:	68fb      	ldr	r3, [r7, #12]
 800392c:	681a      	ldr	r2, [r3, #0]
 800392e:	68bb      	ldr	r3, [r7, #8]
 8003930:	331b      	adds	r3, #27
 8003932:	011b      	lsls	r3, r3, #4
 8003934:	4413      	add	r3, r2
 8003936:	681b      	ldr	r3, [r3, #0]
 8003938:	0d5b      	lsrs	r3, r3, #21
 800393a:	f3c3 020a 	ubfx	r2, r3, #0, #11
 800393e:	687b      	ldr	r3, [r7, #4]
 8003940:	601a      	str	r2, [r3, #0]
 8003942:	e00b      	b.n	800395c <HAL_CAN_GetRxMessage+0xb6>
    }
    else
    {
      pHeader->ExtId = ((CAN_RI0R_EXID | CAN_RI0R_STID) &
                        hcan->Instance->sFIFOMailBox[RxFifo].RIR) >> CAN_RI0R_EXID_Pos;
 8003944:	68fb      	ldr	r3, [r7, #12]
 8003946:	681a      	ldr	r2, [r3, #0]
 8003948:	68bb      	ldr	r3, [r7, #8]
 800394a:	331b      	adds	r3, #27
 800394c:	011b      	lsls	r3, r3, #4
 800394e:	4413      	add	r3, r2
 8003950:	681b      	ldr	r3, [r3, #0]
 8003952:	08db      	lsrs	r3, r3, #3
 8003954:	f023 4260 	bic.w	r2, r3, #3758096384	@ 0xe0000000
      pHeader->ExtId = ((CAN_RI0R_EXID | CAN_RI0R_STID) &
 8003958:	687b      	ldr	r3, [r7, #4]
 800395a:	605a      	str	r2, [r3, #4]
    }
    pHeader->RTR = (CAN_RI0R_RTR & hcan->Instance->sFIFOMailBox[RxFifo].RIR);
 800395c:	68fb      	ldr	r3, [r7, #12]
 800395e:	681a      	ldr	r2, [r3, #0]
 8003960:	68bb      	ldr	r3, [r7, #8]
 8003962:	331b      	adds	r3, #27
 8003964:	011b      	lsls	r3, r3, #4
 8003966:	4413      	add	r3, r2
 8003968:	681b      	ldr	r3, [r3, #0]
 800396a:	f003 0202 	and.w	r2, r3, #2
 800396e:	687b      	ldr	r3, [r7, #4]
 8003970:	60da      	str	r2, [r3, #12]
    if (((CAN_RDT0R_DLC & hcan->Instance->sFIFOMailBox[RxFifo].RDTR) >> CAN_RDT0R_DLC_Pos) >= 8U)
 8003972:	68fb      	ldr	r3, [r7, #12]
 8003974:	681a      	ldr	r2, [r3, #0]
 8003976:	68bb      	ldr	r3, [r7, #8]
 8003978:	331b      	adds	r3, #27
 800397a:	011b      	lsls	r3, r3, #4
 800397c:	4413      	add	r3, r2
 800397e:	3304      	adds	r3, #4
 8003980:	681b      	ldr	r3, [r3, #0]
 8003982:	f003 0308 	and.w	r3, r3, #8
 8003986:	2b00      	cmp	r3, #0
 8003988:	d003      	beq.n	8003992 <HAL_CAN_GetRxMessage+0xec>
    {
      /* Truncate DLC to 8 if received field is over range */
      pHeader->DLC = 8U;
 800398a:	687b      	ldr	r3, [r7, #4]
 800398c:	2208      	movs	r2, #8
 800398e:	611a      	str	r2, [r3, #16]
 8003990:	e00b      	b.n	80039aa <HAL_CAN_GetRxMessage+0x104>
    }
    else
    {
      pHeader->DLC = (CAN_RDT0R_DLC & hcan->Instance->sFIFOMailBox[RxFifo].RDTR) >> CAN_RDT0R_DLC_Pos;
 8003992:	68fb      	ldr	r3, [r7, #12]
 8003994:	681a      	ldr	r2, [r3, #0]
 8003996:	68bb      	ldr	r3, [r7, #8]
 8003998:	331b      	adds	r3, #27
 800399a:	011b      	lsls	r3, r3, #4
 800399c:	4413      	add	r3, r2
 800399e:	3304      	adds	r3, #4
 80039a0:	681b      	ldr	r3, [r3, #0]
 80039a2:	f003 020f 	and.w	r2, r3, #15
 80039a6:	687b      	ldr	r3, [r7, #4]
 80039a8:	611a      	str	r2, [r3, #16]
    }
    pHeader->FilterMatchIndex = (CAN_RDT0R_FMI & hcan->Instance->sFIFOMailBox[RxFifo].RDTR) >> CAN_RDT0R_FMI_Pos;
 80039aa:	68fb      	ldr	r3, [r7, #12]
 80039ac:	681a      	ldr	r2, [r3, #0]
 80039ae:	68bb      	ldr	r3, [r7, #8]
 80039b0:	331b      	adds	r3, #27
 80039b2:	011b      	lsls	r3, r3, #4
 80039b4:	4413      	add	r3, r2
 80039b6:	3304      	adds	r3, #4
 80039b8:	681b      	ldr	r3, [r3, #0]
 80039ba:	0a1b      	lsrs	r3, r3, #8
 80039bc:	b2da      	uxtb	r2, r3
 80039be:	687b      	ldr	r3, [r7, #4]
 80039c0:	619a      	str	r2, [r3, #24]
    pHeader->Timestamp = (CAN_RDT0R_TIME & hcan->Instance->sFIFOMailBox[RxFifo].RDTR) >> CAN_RDT0R_TIME_Pos;
 80039c2:	68fb      	ldr	r3, [r7, #12]
 80039c4:	681a      	ldr	r2, [r3, #0]
 80039c6:	68bb      	ldr	r3, [r7, #8]
 80039c8:	331b      	adds	r3, #27
 80039ca:	011b      	lsls	r3, r3, #4
 80039cc:	4413      	add	r3, r2
 80039ce:	3304      	adds	r3, #4
 80039d0:	681b      	ldr	r3, [r3, #0]
 80039d2:	0c1b      	lsrs	r3, r3, #16
 80039d4:	b29a      	uxth	r2, r3
 80039d6:	687b      	ldr	r3, [r7, #4]
 80039d8:	615a      	str	r2, [r3, #20]

    /* Get the data */
    aData[0] = (uint8_t)((CAN_RDL0R_DATA0 & hcan->Instance->sFIFOMailBox[RxFifo].RDLR) >> CAN_RDL0R_DATA0_Pos);
 80039da:	68fb      	ldr	r3, [r7, #12]
 80039dc:	681a      	ldr	r2, [r3, #0]
 80039de:	68bb      	ldr	r3, [r7, #8]
 80039e0:	011b      	lsls	r3, r3, #4
 80039e2:	4413      	add	r3, r2
 80039e4:	f503 73dc 	add.w	r3, r3, #440	@ 0x1b8
 80039e8:	681b      	ldr	r3, [r3, #0]
 80039ea:	b2da      	uxtb	r2, r3
 80039ec:	683b      	ldr	r3, [r7, #0]
 80039ee:	701a      	strb	r2, [r3, #0]
    aData[1] = (uint8_t)((CAN_RDL0R_DATA1 & hcan->Instance->sFIFOMailBox[RxFifo].RDLR) >> CAN_RDL0R_DATA1_Pos);
 80039f0:	68fb      	ldr	r3, [r7, #12]
 80039f2:	681a      	ldr	r2, [r3, #0]
 80039f4:	68bb      	ldr	r3, [r7, #8]
 80039f6:	011b      	lsls	r3, r3, #4
 80039f8:	4413      	add	r3, r2
 80039fa:	f503 73dc 	add.w	r3, r3, #440	@ 0x1b8
 80039fe:	681b      	ldr	r3, [r3, #0]
 8003a00:	0a1a      	lsrs	r2, r3, #8
 8003a02:	683b      	ldr	r3, [r7, #0]
 8003a04:	3301      	adds	r3, #1
 8003a06:	b2d2      	uxtb	r2, r2
 8003a08:	701a      	strb	r2, [r3, #0]
    aData[2] = (uint8_t)((CAN_RDL0R_DATA2 & hcan->Instance->sFIFOMailBox[RxFifo].RDLR) >> CAN_RDL0R_DATA2_Pos);
 8003a0a:	68fb      	ldr	r3, [r7, #12]
 8003a0c:	681a      	ldr	r2, [r3, #0]
 8003a0e:	68bb      	ldr	r3, [r7, #8]
 8003a10:	011b      	lsls	r3, r3, #4
 8003a12:	4413      	add	r3, r2
 8003a14:	f503 73dc 	add.w	r3, r3, #440	@ 0x1b8
 8003a18:	681b      	ldr	r3, [r3, #0]
 8003a1a:	0c1a      	lsrs	r2, r3, #16
 8003a1c:	683b      	ldr	r3, [r7, #0]
 8003a1e:	3302      	adds	r3, #2
 8003a20:	b2d2      	uxtb	r2, r2
 8003a22:	701a      	strb	r2, [r3, #0]
    aData[3] = (uint8_t)((CAN_RDL0R_DATA3 & hcan->Instance->sFIFOMailBox[RxFifo].RDLR) >> CAN_RDL0R_DATA3_Pos);
 8003a24:	68fb      	ldr	r3, [r7, #12]
 8003a26:	681a      	ldr	r2, [r3, #0]
 8003a28:	68bb      	ldr	r3, [r7, #8]
 8003a2a:	011b      	lsls	r3, r3, #4
 8003a2c:	4413      	add	r3, r2
 8003a2e:	f503 73dc 	add.w	r3, r3, #440	@ 0x1b8
 8003a32:	681b      	ldr	r3, [r3, #0]
 8003a34:	0e1a      	lsrs	r2, r3, #24
 8003a36:	683b      	ldr	r3, [r7, #0]
 8003a38:	3303      	adds	r3, #3
 8003a3a:	b2d2      	uxtb	r2, r2
 8003a3c:	701a      	strb	r2, [r3, #0]
    aData[4] = (uint8_t)((CAN_RDH0R_DATA4 & hcan->Instance->sFIFOMailBox[RxFifo].RDHR) >> CAN_RDH0R_DATA4_Pos);
 8003a3e:	68fb      	ldr	r3, [r7, #12]
 8003a40:	681a      	ldr	r2, [r3, #0]
 8003a42:	68bb      	ldr	r3, [r7, #8]
 8003a44:	011b      	lsls	r3, r3, #4
 8003a46:	4413      	add	r3, r2
 8003a48:	f503 73de 	add.w	r3, r3, #444	@ 0x1bc
 8003a4c:	681a      	ldr	r2, [r3, #0]
 8003a4e:	683b      	ldr	r3, [r7, #0]
 8003a50:	3304      	adds	r3, #4
 8003a52:	b2d2      	uxtb	r2, r2
 8003a54:	701a      	strb	r2, [r3, #0]
    aData[5] = (uint8_t)((CAN_RDH0R_DATA5 & hcan->Instance->sFIFOMailBox[RxFifo].RDHR) >> CAN_RDH0R_DATA5_Pos);
 8003a56:	68fb      	ldr	r3, [r7, #12]
 8003a58:	681a      	ldr	r2, [r3, #0]
 8003a5a:	68bb      	ldr	r3, [r7, #8]
 8003a5c:	011b      	lsls	r3, r3, #4
 8003a5e:	4413      	add	r3, r2
 8003a60:	f503 73de 	add.w	r3, r3, #444	@ 0x1bc
 8003a64:	681b      	ldr	r3, [r3, #0]
 8003a66:	0a1a      	lsrs	r2, r3, #8
 8003a68:	683b      	ldr	r3, [r7, #0]
 8003a6a:	3305      	adds	r3, #5
 8003a6c:	b2d2      	uxtb	r2, r2
 8003a6e:	701a      	strb	r2, [r3, #0]
    aData[6] = (uint8_t)((CAN_RDH0R_DATA6 & hcan->Instance->sFIFOMailBox[RxFifo].RDHR) >> CAN_RDH0R_DATA6_Pos);
 8003a70:	68fb      	ldr	r3, [r7, #12]
 8003a72:	681a      	ldr	r2, [r3, #0]
 8003a74:	68bb      	ldr	r3, [r7, #8]
 8003a76:	011b      	lsls	r3, r3, #4
 8003a78:	4413      	add	r3, r2
 8003a7a:	f503 73de 	add.w	r3, r3, #444	@ 0x1bc
 8003a7e:	681b      	ldr	r3, [r3, #0]
 8003a80:	0c1a      	lsrs	r2, r3, #16
 8003a82:	683b      	ldr	r3, [r7, #0]
 8003a84:	3306      	adds	r3, #6
 8003a86:	b2d2      	uxtb	r2, r2
 8003a88:	701a      	strb	r2, [r3, #0]
    aData[7] = (uint8_t)((CAN_RDH0R_DATA7 & hcan->Instance->sFIFOMailBox[RxFifo].RDHR) >> CAN_RDH0R_DATA7_Pos);
 8003a8a:	68fb      	ldr	r3, [r7, #12]
 8003a8c:	681a      	ldr	r2, [r3, #0]
 8003a8e:	68bb      	ldr	r3, [r7, #8]
 8003a90:	011b      	lsls	r3, r3, #4
 8003a92:	4413      	add	r3, r2
 8003a94:	f503 73de 	add.w	r3, r3, #444	@ 0x1bc
 8003a98:	681b      	ldr	r3, [r3, #0]
 8003a9a:	0e1a      	lsrs	r2, r3, #24
 8003a9c:	683b      	ldr	r3, [r7, #0]
 8003a9e:	3307      	adds	r3, #7
 8003aa0:	b2d2      	uxtb	r2, r2
 8003aa2:	701a      	strb	r2, [r3, #0]

    /* Release the FIFO */
    if (RxFifo == CAN_RX_FIFO0) /* Rx element is assigned to Rx FIFO 0 */
 8003aa4:	68bb      	ldr	r3, [r7, #8]
 8003aa6:	2b00      	cmp	r3, #0
 8003aa8:	d108      	bne.n	8003abc <HAL_CAN_GetRxMessage+0x216>
    {
      /* Release RX FIFO 0 */
      SET_BIT(hcan->Instance->RF0R, CAN_RF0R_RFOM0);
 8003aaa:	68fb      	ldr	r3, [r7, #12]
 8003aac:	681b      	ldr	r3, [r3, #0]
 8003aae:	68da      	ldr	r2, [r3, #12]
 8003ab0:	68fb      	ldr	r3, [r7, #12]
 8003ab2:	681b      	ldr	r3, [r3, #0]
 8003ab4:	f042 0220 	orr.w	r2, r2, #32
 8003ab8:	60da      	str	r2, [r3, #12]
 8003aba:	e007      	b.n	8003acc <HAL_CAN_GetRxMessage+0x226>
    }
    else /* Rx element is assigned to Rx FIFO 1 */
    {
      /* Release RX FIFO 1 */
      SET_BIT(hcan->Instance->RF1R, CAN_RF1R_RFOM1);
 8003abc:	68fb      	ldr	r3, [r7, #12]
 8003abe:	681b      	ldr	r3, [r3, #0]
 8003ac0:	691a      	ldr	r2, [r3, #16]
 8003ac2:	68fb      	ldr	r3, [r7, #12]
 8003ac4:	681b      	ldr	r3, [r3, #0]
 8003ac6:	f042 0220 	orr.w	r2, r2, #32
 8003aca:	611a      	str	r2, [r3, #16]
    }

    /* Return function status */
    return HAL_OK;
 8003acc:	2300      	movs	r3, #0
 8003ace:	e006      	b.n	8003ade <HAL_CAN_GetRxMessage+0x238>
  }
  else
  {
    /* Update error code */
    hcan->ErrorCode |= HAL_CAN_ERROR_NOT_INITIALIZED;
 8003ad0:	68fb      	ldr	r3, [r7, #12]
 8003ad2:	6a5b      	ldr	r3, [r3, #36]	@ 0x24
 8003ad4:	f443 2280 	orr.w	r2, r3, #262144	@ 0x40000
 8003ad8:	68fb      	ldr	r3, [r7, #12]
 8003ada:	625a      	str	r2, [r3, #36]	@ 0x24

    return HAL_ERROR;
 8003adc:	2301      	movs	r3, #1
  }
}
 8003ade:	4618      	mov	r0, r3
 8003ae0:	371c      	adds	r7, #28
 8003ae2:	46bd      	mov	sp, r7
 8003ae4:	f85d 7b04 	ldr.w	r7, [sp], #4
 8003ae8:	4770      	bx	lr

08003aea <HAL_CAN_ActivateNotification>:
  * @param  ActiveITs indicates which interrupts will be enabled.
  *         This parameter can be any combination of @arg CAN_Interrupts.
  * @retval HAL status
  */
HAL_StatusTypeDef HAL_CAN_ActivateNotification(CAN_HandleTypeDef *hcan, uint32_t ActiveITs)
{
 8003aea:	b480      	push	{r7}
 8003aec:	b085      	sub	sp, #20
 8003aee:	af00      	add	r7, sp, #0
 8003af0:	6078      	str	r0, [r7, #4]
 8003af2:	6039      	str	r1, [r7, #0]
  HAL_CAN_StateTypeDef state = hcan->State;
 8003af4:	687b      	ldr	r3, [r7, #4]
 8003af6:	f893 3020 	ldrb.w	r3, [r3, #32]
 8003afa:	73fb      	strb	r3, [r7, #15]

  /* Check function parameters */
  assert_param(IS_CAN_IT(ActiveITs));

  if ((state == HAL_CAN_STATE_READY) ||
 8003afc:	7bfb      	ldrb	r3, [r7, #15]
 8003afe:	2b01      	cmp	r3, #1
 8003b00:	d002      	beq.n	8003b08 <HAL_CAN_ActivateNotification+0x1e>
 8003b02:	7bfb      	ldrb	r3, [r7, #15]
 8003b04:	2b02      	cmp	r3, #2
 8003b06:	d109      	bne.n	8003b1c <HAL_CAN_ActivateNotification+0x32>
      (state == HAL_CAN_STATE_LISTENING))
  {
    /* Enable the selected interrupts */
    __HAL_CAN_ENABLE_IT(hcan, ActiveITs);
 8003b08:	687b      	ldr	r3, [r7, #4]
 8003b0a:	681b      	ldr	r3, [r3, #0]
 8003b0c:	6959      	ldr	r1, [r3, #20]
 8003b0e:	687b      	ldr	r3, [r7, #4]
 8003b10:	681b      	ldr	r3, [r3, #0]
 8003b12:	683a      	ldr	r2, [r7, #0]
 8003b14:	430a      	orrs	r2, r1
 8003b16:	615a      	str	r2, [r3, #20]

    /* Return function status */
    return HAL_OK;
 8003b18:	2300      	movs	r3, #0
 8003b1a:	e006      	b.n	8003b2a <HAL_CAN_ActivateNotification+0x40>
  }
  else
  {
    /* Update error code */
    hcan->ErrorCode |= HAL_CAN_ERROR_NOT_INITIALIZED;
 8003b1c:	687b      	ldr	r3, [r7, #4]
 8003b1e:	6a5b      	ldr	r3, [r3, #36]	@ 0x24
 8003b20:	f443 2280 	orr.w	r2, r3, #262144	@ 0x40000
 8003b24:	687b      	ldr	r3, [r7, #4]
 8003b26:	625a      	str	r2, [r3, #36]	@ 0x24

    return HAL_ERROR;
 8003b28:	2301      	movs	r3, #1
  }
}
 8003b2a:	4618      	mov	r0, r3
 8003b2c:	3714      	adds	r7, #20
 8003b2e:	46bd      	mov	sp, r7
 8003b30:	f85d 7b04 	ldr.w	r7, [sp], #4
 8003b34:	4770      	bx	lr

08003b36 <HAL_CAN_IRQHandler>:
  * @param  hcan pointer to a CAN_HandleTypeDef structure that contains
  *         the configuration information for the specified CAN.
  * @retval None
  */
void HAL_CAN_IRQHandler(CAN_HandleTypeDef *hcan)
{
 8003b36:	b580      	push	{r7, lr}
 8003b38:	b08a      	sub	sp, #40	@ 0x28
 8003b3a:	af00      	add	r7, sp, #0
 8003b3c:	6078      	str	r0, [r7, #4]
  uint32_t errorcode = HAL_CAN_ERROR_NONE;
 8003b3e:	2300      	movs	r3, #0
 8003b40:	627b      	str	r3, [r7, #36]	@ 0x24
  uint32_t interrupts = READ_REG(hcan->Instance->IER);
 8003b42:	687b      	ldr	r3, [r7, #4]
 8003b44:	681b      	ldr	r3, [r3, #0]
 8003b46:	695b      	ldr	r3, [r3, #20]
 8003b48:	623b      	str	r3, [r7, #32]
  uint32_t msrflags = READ_REG(hcan->Instance->MSR);
 8003b4a:	687b      	ldr	r3, [r7, #4]
 8003b4c:	681b      	ldr	r3, [r3, #0]
 8003b4e:	685b      	ldr	r3, [r3, #4]
 8003b50:	61fb      	str	r3, [r7, #28]
  uint32_t tsrflags = READ_REG(hcan->Instance->TSR);
 8003b52:	687b      	ldr	r3, [r7, #4]
 8003b54:	681b      	ldr	r3, [r3, #0]
 8003b56:	689b      	ldr	r3, [r3, #8]
 8003b58:	61bb      	str	r3, [r7, #24]
  uint32_t rf0rflags = READ_REG(hcan->Instance->RF0R);
 8003b5a:	687b      	ldr	r3, [r7, #4]
 8003b5c:	681b      	ldr	r3, [r3, #0]
 8003b5e:	68db      	ldr	r3, [r3, #12]
 8003b60:	617b      	str	r3, [r7, #20]
  uint32_t rf1rflags = READ_REG(hcan->Instance->RF1R);
 8003b62:	687b      	ldr	r3, [r7, #4]
 8003b64:	681b      	ldr	r3, [r3, #0]
 8003b66:	691b      	ldr	r3, [r3, #16]
 8003b68:	613b      	str	r3, [r7, #16]
  uint32_t esrflags = READ_REG(hcan->Instance->ESR);
 8003b6a:	687b      	ldr	r3, [r7, #4]
 8003b6c:	681b      	ldr	r3, [r3, #0]
 8003b6e:	699b      	ldr	r3, [r3, #24]
 8003b70:	60fb      	str	r3, [r7, #12]

  /* Transmit Mailbox empty interrupt management *****************************/
  if ((interrupts & CAN_IT_TX_MAILBOX_EMPTY) != 0U)
 8003b72:	6a3b      	ldr	r3, [r7, #32]
 8003b74:	f003 0301 	and.w	r3, r3, #1
 8003b78:	2b00      	cmp	r3, #0
 8003b7a:	d07c      	beq.n	8003c76 <HAL_CAN_IRQHandler+0x140>
  {
    /* Transmit Mailbox 0 management *****************************************/
    if ((tsrflags & CAN_TSR_RQCP0) != 0U)
 8003b7c:	69bb      	ldr	r3, [r7, #24]
 8003b7e:	f003 0301 	and.w	r3, r3, #1
 8003b82:	2b00      	cmp	r3, #0
 8003b84:	d023      	beq.n	8003bce <HAL_CAN_IRQHandler+0x98>
    {
      /* Clear the Transmission Complete flag (and TXOK0,ALST0,TERR0 bits) */
      __HAL_CAN_CLEAR_FLAG(hcan, CAN_FLAG_RQCP0);
 8003b86:	687b      	ldr	r3, [r7, #4]
 8003b88:	681b      	ldr	r3, [r3, #0]
 8003b8a:	2201      	movs	r2, #1
 8003b8c:	609a      	str	r2, [r3, #8]

      if ((tsrflags & CAN_TSR_TXOK0) != 0U)
 8003b8e:	69bb      	ldr	r3, [r7, #24]
 8003b90:	f003 0302 	and.w	r3, r3, #2
 8003b94:	2b00      	cmp	r3, #0
 8003b96:	d003      	beq.n	8003ba0 <HAL_CAN_IRQHandler+0x6a>
#if USE_HAL_CAN_REGISTER_CALLBACKS == 1
        /* Call registered callback*/
        hcan->TxMailbox0CompleteCallback(hcan);
#else
        /* Call weak (surcharged) callback */
        HAL_CAN_TxMailbox0CompleteCallback(hcan);
 8003b98:	6878      	ldr	r0, [r7, #4]
 8003b9a:	f000 f983 	bl	8003ea4 <HAL_CAN_TxMailbox0CompleteCallback>
 8003b9e:	e016      	b.n	8003bce <HAL_CAN_IRQHandler+0x98>
#endif /* USE_HAL_CAN_REGISTER_CALLBACKS */
      }
      else
      {
        if ((tsrflags & CAN_TSR_ALST0) != 0U)
 8003ba0:	69bb      	ldr	r3, [r7, #24]
 8003ba2:	f003 0304 	and.w	r3, r3, #4
 8003ba6:	2b00      	cmp	r3, #0
 8003ba8:	d004      	beq.n	8003bb4 <HAL_CAN_IRQHandler+0x7e>
        {
          /* Update error code */
          errorcode |= HAL_CAN_ERROR_TX_ALST0;
 8003baa:	6a7b      	ldr	r3, [r7, #36]	@ 0x24
 8003bac:	f443 6300 	orr.w	r3, r3, #2048	@ 0x800
 8003bb0:	627b      	str	r3, [r7, #36]	@ 0x24
 8003bb2:	e00c      	b.n	8003bce <HAL_CAN_IRQHandler+0x98>
        }
        else if ((tsrflags & CAN_TSR_TERR0) != 0U)
 8003bb4:	69bb      	ldr	r3, [r7, #24]
 8003bb6:	f003 0308 	and.w	r3, r3, #8
 8003bba:	2b00      	cmp	r3, #0
 8003bbc:	d004      	beq.n	8003bc8 <HAL_CAN_IRQHandler+0x92>
        {
          /* Update error code */
          errorcode |= HAL_CAN_ERROR_TX_TERR0;
 8003bbe:	6a7b      	ldr	r3, [r7, #36]	@ 0x24
 8003bc0:	f443 5380 	orr.w	r3, r3, #4096	@ 0x1000
 8003bc4:	627b      	str	r3, [r7, #36]	@ 0x24
 8003bc6:	e002      	b.n	8003bce <HAL_CAN_IRQHandler+0x98>
#if USE_HAL_CAN_REGISTER_CALLBACKS == 1
          /* Call registered callback*/
          hcan->TxMailbox0AbortCallback(hcan);
#else
          /* Call weak (surcharged) callback */
          HAL_CAN_TxMailbox0AbortCallback(hcan);
 8003bc8:	6878      	ldr	r0, [r7, #4]
 8003bca:	f000 f989 	bl	8003ee0 <HAL_CAN_TxMailbox0AbortCallback>
        }
      }
    }

    /* Transmit Mailbox 1 management *****************************************/
    if ((tsrflags & CAN_TSR_RQCP1) != 0U)
 8003bce:	69bb      	ldr	r3, [r7, #24]
 8003bd0:	f403 7380 	and.w	r3, r3, #256	@ 0x100
 8003bd4:	2b00      	cmp	r3, #0
 8003bd6:	d024      	beq.n	8003c22 <HAL_CAN_IRQHandler+0xec>
    {
      /* Clear the Transmission Complete flag (and TXOK1,ALST1,TERR1 bits) */
      __HAL_CAN_CLEAR_FLAG(hcan, CAN_FLAG_RQCP1);
 8003bd8:	687b      	ldr	r3, [r7, #4]
 8003bda:	681b      	ldr	r3, [r3, #0]
 8003bdc:	f44f 7280 	mov.w	r2, #256	@ 0x100
 8003be0:	609a      	str	r2, [r3, #8]

      if ((tsrflags & CAN_TSR_TXOK1) != 0U)
 8003be2:	69bb      	ldr	r3, [r7, #24]
 8003be4:	f403 7300 	and.w	r3, r3, #512	@ 0x200
 8003be8:	2b00      	cmp	r3, #0
 8003bea:	d003      	beq.n	8003bf4 <HAL_CAN_IRQHandler+0xbe>
#if USE_HAL_CAN_REGISTER_CALLBACKS == 1
        /* Call registered callback*/
        hcan->TxMailbox1CompleteCallback(hcan);
#else
        /* Call weak (surcharged) callback */
        HAL_CAN_TxMailbox1CompleteCallback(hcan);
 8003bec:	6878      	ldr	r0, [r7, #4]
 8003bee:	f000 f963 	bl	8003eb8 <HAL_CAN_TxMailbox1CompleteCallback>
 8003bf2:	e016      	b.n	8003c22 <HAL_CAN_IRQHandler+0xec>
#endif /* USE_HAL_CAN_REGISTER_CALLBACKS */
      }
      else
      {
        if ((tsrflags & CAN_TSR_ALST1) != 0U)
 8003bf4:	69bb      	ldr	r3, [r7, #24]
 8003bf6:	f403 6380 	and.w	r3, r3, #1024	@ 0x400
 8003bfa:	2b00      	cmp	r3, #0
 8003bfc:	d004      	beq.n	8003c08 <HAL_CAN_IRQHandler+0xd2>
        {
          /* Update error code */
          errorcode |= HAL_CAN_ERROR_TX_ALST1;
 8003bfe:	6a7b      	ldr	r3, [r7, #36]	@ 0x24
 8003c00:	f443 5300 	orr.w	r3, r3, #8192	@ 0x2000
 8003c04:	627b      	str	r3, [r7, #36]	@ 0x24
 8003c06:	e00c      	b.n	8003c22 <HAL_CAN_IRQHandler+0xec>
        }
        else if ((tsrflags & CAN_TSR_TERR1) != 0U)
 8003c08:	69bb      	ldr	r3, [r7, #24]
 8003c0a:	f403 6300 	and.w	r3, r3, #2048	@ 0x800
 8003c0e:	2b00      	cmp	r3, #0
 8003c10:	d004      	beq.n	8003c1c <HAL_CAN_IRQHandler+0xe6>
        {
          /* Update error code */
          errorcode |= HAL_CAN_ERROR_TX_TERR1;
 8003c12:	6a7b      	ldr	r3, [r7, #36]	@ 0x24
 8003c14:	f443 4380 	orr.w	r3, r3, #16384	@ 0x4000
 8003c18:	627b      	str	r3, [r7, #36]	@ 0x24
 8003c1a:	e002      	b.n	8003c22 <HAL_CAN_IRQHandler+0xec>
#if USE_HAL_CAN_REGISTER_CALLBACKS == 1
          /* Call registered callback*/
          hcan->TxMailbox1AbortCallback(hcan);
#else
          /* Call weak (surcharged) callback */
          HAL_CAN_TxMailbox1AbortCallback(hcan);
 8003c1c:	6878      	ldr	r0, [r7, #4]
 8003c1e:	f000 f969 	bl	8003ef4 <HAL_CAN_TxMailbox1AbortCallback>
        }
      }
    }

    /* Transmit Mailbox 2 management *****************************************/
    if ((tsrflags & CAN_TSR_RQCP2) != 0U)
 8003c22:	69bb      	ldr	r3, [r7, #24]
 8003c24:	f403 3380 	and.w	r3, r3, #65536	@ 0x10000
 8003c28:	2b00      	cmp	r3, #0
 8003c2a:	d024      	beq.n	8003c76 <HAL_CAN_IRQHandler+0x140>
    {
      /* Clear the Transmission Complete flag (and TXOK2,ALST2,TERR2 bits) */
      __HAL_CAN_CLEAR_FLAG(hcan, CAN_FLAG_RQCP2);
 8003c2c:	687b      	ldr	r3, [r7, #4]
 8003c2e:	681b      	ldr	r3, [r3, #0]
 8003c30:	f44f 3280 	mov.w	r2, #65536	@ 0x10000
 8003c34:	609a      	str	r2, [r3, #8]

      if ((tsrflags & CAN_TSR_TXOK2) != 0U)
 8003c36:	69bb      	ldr	r3, [r7, #24]
 8003c38:	f403 3300 	and.w	r3, r3, #131072	@ 0x20000
 8003c3c:	2b00      	cmp	r3, #0
 8003c3e:	d003      	beq.n	8003c48 <HAL_CAN_IRQHandler+0x112>
#if USE_HAL_CAN_REGISTER_CALLBACKS == 1
        /* Call registered callback*/
        hcan->TxMailbox2CompleteCallback(hcan);
#else
        /* Call weak (surcharged) callback */
        HAL_CAN_TxMailbox2CompleteCallback(hcan);
 8003c40:	6878      	ldr	r0, [r7, #4]
 8003c42:	f000 f943 	bl	8003ecc <HAL_CAN_TxMailbox2CompleteCallback>
 8003c46:	e016      	b.n	8003c76 <HAL_CAN_IRQHandler+0x140>
#endif /* USE_HAL_CAN_REGISTER_CALLBACKS */
      }
      else
      {
        if ((tsrflags & CAN_TSR_ALST2) != 0U)
 8003c48:	69bb      	ldr	r3, [r7, #24]
 8003c4a:	f403 2380 	and.w	r3, r3, #262144	@ 0x40000
 8003c4e:	2b00      	cmp	r3, #0
 8003c50:	d004      	beq.n	8003c5c <HAL_CAN_IRQHandler+0x126>
        {
          /* Update error code */
          errorcode |= HAL_CAN_ERROR_TX_ALST2;
 8003c52:	6a7b      	ldr	r3, [r7, #36]	@ 0x24
 8003c54:	f443 4300 	orr.w	r3, r3, #32768	@ 0x8000
 8003c58:	627b      	str	r3, [r7, #36]	@ 0x24
 8003c5a:	e00c      	b.n	8003c76 <HAL_CAN_IRQHandler+0x140>
        }
        else if ((tsrflags & CAN_TSR_TERR2) != 0U)
 8003c5c:	69bb      	ldr	r3, [r7, #24]
 8003c5e:	f403 2300 	and.w	r3, r3, #524288	@ 0x80000
 8003c62:	2b00      	cmp	r3, #0
 8003c64:	d004      	beq.n	8003c70 <HAL_CAN_IRQHandler+0x13a>
        {
          /* Update error code */
          errorcode |= HAL_CAN_ERROR_TX_TERR2;
 8003c66:	6a7b      	ldr	r3, [r7, #36]	@ 0x24
 8003c68:	f443 3380 	orr.w	r3, r3, #65536	@ 0x10000
 8003c6c:	627b      	str	r3, [r7, #36]	@ 0x24
 8003c6e:	e002      	b.n	8003c76 <HAL_CAN_IRQHandler+0x140>
#if USE_HAL_CAN_REGISTER_CALLBACKS == 1
          /* Call registered callback*/
          hcan->TxMailbox2AbortCallback(hcan);
#else
          /* Call weak (surcharged) callback */
          HAL_CAN_TxMailbox2AbortCallback(hcan);
 8003c70:	6878      	ldr	r0, [r7, #4]
 8003c72:	f000 f949 	bl	8003f08 <HAL_CAN_TxMailbox2AbortCallback>
      }
    }
  }

  /* Receive FIFO 0 overrun interrupt management *****************************/
  if ((interrupts & CAN_IT_RX_FIFO0_OVERRUN) != 0U)
 8003c76:	6a3b      	ldr	r3, [r7, #32]
 8003c78:	f003 0308 	and.w	r3, r3, #8
 8003c7c:	2b00      	cmp	r3, #0
 8003c7e:	d00c      	beq.n	8003c9a <HAL_CAN_IRQHandler+0x164>
  {
    if ((rf0rflags & CAN_RF0R_FOVR0) != 0U)
 8003c80:	697b      	ldr	r3, [r7, #20]
 8003c82:	f003 0310 	and.w	r3, r3, #16
 8003c86:	2b00      	cmp	r3, #0
 8003c88:	d007      	beq.n	8003c9a <HAL_CAN_IRQHandler+0x164>
    {
      /* Set CAN error code to Rx Fifo 0 overrun error */
      errorcode |= HAL_CAN_ERROR_RX_FOV0;
 8003c8a:	6a7b      	ldr	r3, [r7, #36]	@ 0x24
 8003c8c:	f443 7300 	orr.w	r3, r3, #512	@ 0x200
 8003c90:	627b      	str	r3, [r7, #36]	@ 0x24

      /* Clear FIFO0 Overrun Flag */
      __HAL_CAN_CLEAR_FLAG(hcan, CAN_FLAG_FOV0);
 8003c92:	687b      	ldr	r3, [r7, #4]
 8003c94:	681b      	ldr	r3, [r3, #0]
 8003c96:	2210      	movs	r2, #16
 8003c98:	60da      	str	r2, [r3, #12]
    }
  }

  /* Receive FIFO 0 full interrupt management ********************************/
  if ((interrupts & CAN_IT_RX_FIFO0_FULL) != 0U)
 8003c9a:	6a3b      	ldr	r3, [r7, #32]
 8003c9c:	f003 0304 	and.w	r3, r3, #4
 8003ca0:	2b00      	cmp	r3, #0
 8003ca2:	d00b      	beq.n	8003cbc <HAL_CAN_IRQHandler+0x186>
  {
    if ((rf0rflags & CAN_RF0R_FULL0) != 0U)
 8003ca4:	697b      	ldr	r3, [r7, #20]
 8003ca6:	f003 0308 	and.w	r3, r3, #8
 8003caa:	2b00      	cmp	r3, #0
 8003cac:	d006      	beq.n	8003cbc <HAL_CAN_IRQHandler+0x186>
    {
      /* Clear FIFO 0 full Flag */
      __HAL_CAN_CLEAR_FLAG(hcan, CAN_FLAG_FF0);
 8003cae:	687b      	ldr	r3, [r7, #4]
 8003cb0:	681b      	ldr	r3, [r3, #0]
 8003cb2:	2208      	movs	r2, #8
 8003cb4:	60da      	str	r2, [r3, #12]
#if USE_HAL_CAN_REGISTER_CALLBACKS == 1
      /* Call registered callback*/
      hcan->RxFifo0FullCallback(hcan);
#else
      /* Call weak (surcharged) callback */
      HAL_CAN_RxFifo0FullCallback(hcan);
 8003cb6:	6878      	ldr	r0, [r7, #4]
 8003cb8:	f000 f930 	bl	8003f1c <HAL_CAN_RxFifo0FullCallback>
#endif /* USE_HAL_CAN_REGISTER_CALLBACKS */
    }
  }

  /* Receive FIFO 0 message pending interrupt management *********************/
  if ((interrupts & CAN_IT_RX_FIFO0_MSG_PENDING) != 0U)
 8003cbc:	6a3b      	ldr	r3, [r7, #32]
 8003cbe:	f003 0302 	and.w	r3, r3, #2
 8003cc2:	2b00      	cmp	r3, #0
 8003cc4:	d009      	beq.n	8003cda <HAL_CAN_IRQHandler+0x1a4>
  {
    /* Check if message is still pending */
    if ((hcan->Instance->RF0R & CAN_RF0R_FMP0) != 0U)
 8003cc6:	687b      	ldr	r3, [r7, #4]
 8003cc8:	681b      	ldr	r3, [r3, #0]
 8003cca:	68db      	ldr	r3, [r3, #12]
 8003ccc:	f003 0303 	and.w	r3, r3, #3
 8003cd0:	2b00      	cmp	r3, #0
 8003cd2:	d002      	beq.n	8003cda <HAL_CAN_IRQHandler+0x1a4>
#if USE_HAL_CAN_REGISTER_CALLBACKS == 1
      /* Call registered callback*/
      hcan->RxFifo0MsgPendingCallback(hcan);
#else
      /* Call weak (surcharged) callback */
      HAL_CAN_RxFifo0MsgPendingCallback(hcan);
 8003cd4:	6878      	ldr	r0, [r7, #4]
 8003cd6:	f7fd f98b 	bl	8000ff0 <HAL_CAN_RxFifo0MsgPendingCallback>
#endif /* USE_HAL_CAN_REGISTER_CALLBACKS */
    }
  }

  /* Receive FIFO 1 overrun interrupt management *****************************/
  if ((interrupts & CAN_IT_RX_FIFO1_OVERRUN) != 0U)
 8003cda:	6a3b      	ldr	r3, [r7, #32]
 8003cdc:	f003 0340 	and.w	r3, r3, #64	@ 0x40
 8003ce0:	2b00      	cmp	r3, #0
 8003ce2:	d00c      	beq.n	8003cfe <HAL_CAN_IRQHandler+0x1c8>
  {
    if ((rf1rflags & CAN_RF1R_FOVR1) != 0U)
 8003ce4:	693b      	ldr	r3, [r7, #16]
 8003ce6:	f003 0310 	and.w	r3, r3, #16
 8003cea:	2b00      	cmp	r3, #0
 8003cec:	d007      	beq.n	8003cfe <HAL_CAN_IRQHandler+0x1c8>
    {
      /* Set CAN error code to Rx Fifo 1 overrun error */
      errorcode |= HAL_CAN_ERROR_RX_FOV1;
 8003cee:	6a7b      	ldr	r3, [r7, #36]	@ 0x24
 8003cf0:	f443 6380 	orr.w	r3, r3, #1024	@ 0x400
 8003cf4:	627b      	str	r3, [r7, #36]	@ 0x24

      /* Clear FIFO1 Overrun Flag */
      __HAL_CAN_CLEAR_FLAG(hcan, CAN_FLAG_FOV1);
 8003cf6:	687b      	ldr	r3, [r7, #4]
 8003cf8:	681b      	ldr	r3, [r3, #0]
 8003cfa:	2210      	movs	r2, #16
 8003cfc:	611a      	str	r2, [r3, #16]
    }
  }

  /* Receive FIFO 1 full interrupt management ********************************/
  if ((interrupts & CAN_IT_RX_FIFO1_FULL) != 0U)
 8003cfe:	6a3b      	ldr	r3, [r7, #32]
 8003d00:	f003 0320 	and.w	r3, r3, #32
 8003d04:	2b00      	cmp	r3, #0
 8003d06:	d00b      	beq.n	8003d20 <HAL_CAN_IRQHandler+0x1ea>
  {
    if ((rf1rflags & CAN_RF1R_FULL1) != 0U)
 8003d08:	693b      	ldr	r3, [r7, #16]
 8003d0a:	f003 0308 	and.w	r3, r3, #8
 8003d0e:	2b00      	cmp	r3, #0
 8003d10:	d006      	beq.n	8003d20 <HAL_CAN_IRQHandler+0x1ea>
    {
      /* Clear FIFO 1 full Flag */
      __HAL_CAN_CLEAR_FLAG(hcan, CAN_FLAG_FF1);
 8003d12:	687b      	ldr	r3, [r7, #4]
 8003d14:	681b      	ldr	r3, [r3, #0]
 8003d16:	2208      	movs	r2, #8
 8003d18:	611a      	str	r2, [r3, #16]
#if USE_HAL_CAN_REGISTER_CALLBACKS == 1
      /* Call registered callback*/
      hcan->RxFifo1FullCallback(hcan);
#else
      /* Call weak (surcharged) callback */
      HAL_CAN_RxFifo1FullCallback(hcan);
 8003d1a:	6878      	ldr	r0, [r7, #4]
 8003d1c:	f000 f912 	bl	8003f44 <HAL_CAN_RxFifo1FullCallback>
#endif /* USE_HAL_CAN_REGISTER_CALLBACKS */
    }
  }

  /* Receive FIFO 1 message pending interrupt management *********************/
  if ((interrupts & CAN_IT_RX_FIFO1_MSG_PENDING) != 0U)
 8003d20:	6a3b      	ldr	r3, [r7, #32]
 8003d22:	f003 0310 	and.w	r3, r3, #16
 8003d26:	2b00      	cmp	r3, #0
 8003d28:	d009      	beq.n	8003d3e <HAL_CAN_IRQHandler+0x208>
  {
    /* Check if message is still pending */
    if ((hcan->Instance->RF1R & CAN_RF1R_FMP1) != 0U)
 8003d2a:	687b      	ldr	r3, [r7, #4]
 8003d2c:	681b      	ldr	r3, [r3, #0]
 8003d2e:	691b      	ldr	r3, [r3, #16]
 8003d30:	f003 0303 	and.w	r3, r3, #3
 8003d34:	2b00      	cmp	r3, #0
 8003d36:	d002      	beq.n	8003d3e <HAL_CAN_IRQHandler+0x208>
#if USE_HAL_CAN_REGISTER_CALLBACKS == 1
      /* Call registered callback*/
      hcan->RxFifo1MsgPendingCallback(hcan);
#else
      /* Call weak (surcharged) callback */
      HAL_CAN_RxFifo1MsgPendingCallback(hcan);
 8003d38:	6878      	ldr	r0, [r7, #4]
 8003d3a:	f000 f8f9 	bl	8003f30 <HAL_CAN_RxFifo1MsgPendingCallback>
#endif /* USE_HAL_CAN_REGISTER_CALLBACKS */
    }
  }

  /* Sleep interrupt management *********************************************/
  if ((interrupts & CAN_IT_SLEEP_ACK) != 0U)
 8003d3e:	6a3b      	ldr	r3, [r7, #32]
 8003d40:	f403 3300 	and.w	r3, r3, #131072	@ 0x20000
 8003d44:	2b00      	cmp	r3, #0
 8003d46:	d00b      	beq.n	8003d60 <HAL_CAN_IRQHandler+0x22a>
  {
    if ((msrflags & CAN_MSR_SLAKI) != 0U)
 8003d48:	69fb      	ldr	r3, [r7, #28]
 8003d4a:	f003 0310 	and.w	r3, r3, #16
 8003d4e:	2b00      	cmp	r3, #0
 8003d50:	d006      	beq.n	8003d60 <HAL_CAN_IRQHandler+0x22a>
    {
      /* Clear Sleep interrupt Flag */
      __HAL_CAN_CLEAR_FLAG(hcan, CAN_FLAG_SLAKI);
 8003d52:	687b      	ldr	r3, [r7, #4]
 8003d54:	681b      	ldr	r3, [r3, #0]
 8003d56:	2210      	movs	r2, #16
 8003d58:	605a      	str	r2, [r3, #4]
#if USE_HAL_CAN_REGISTER_CALLBACKS == 1
      /* Call registered callback*/
      hcan->SleepCallback(hcan);
#else
      /* Call weak (surcharged) callback */
      HAL_CAN_SleepCallback(hcan);
 8003d5a:	6878      	ldr	r0, [r7, #4]
 8003d5c:	f000 f8fc 	bl	8003f58 <HAL_CAN_SleepCallback>
#endif /* USE_HAL_CAN_REGISTER_CALLBACKS */
    }
  }

  /* WakeUp interrupt management *********************************************/
  if ((interrupts & CAN_IT_WAKEUP) != 0U)
 8003d60:	6a3b      	ldr	r3, [r7, #32]
 8003d62:	f403 3380 	and.w	r3, r3, #65536	@ 0x10000
 8003d66:	2b00      	cmp	r3, #0
 8003d68:	d00b      	beq.n	8003d82 <HAL_CAN_IRQHandler+0x24c>
  {
    if ((msrflags & CAN_MSR_WKUI) != 0U)
 8003d6a:	69fb      	ldr	r3, [r7, #28]
 8003d6c:	f003 0308 	and.w	r3, r3, #8
 8003d70:	2b00      	cmp	r3, #0
 8003d72:	d006      	beq.n	8003d82 <HAL_CAN_IRQHandler+0x24c>
    {
      /* Clear WakeUp Flag */
      __HAL_CAN_CLEAR_FLAG(hcan, CAN_FLAG_WKU);
 8003d74:	687b      	ldr	r3, [r7, #4]
 8003d76:	681b      	ldr	r3, [r3, #0]
 8003d78:	2208      	movs	r2, #8
 8003d7a:	605a      	str	r2, [r3, #4]
#if USE_HAL_CAN_REGISTER_CALLBACKS == 1
      /* Call registered callback*/
      hcan->WakeUpFromRxMsgCallback(hcan);
#else
      /* Call weak (surcharged) callback */
      HAL_CAN_WakeUpFromRxMsgCallback(hcan);
 8003d7c:	6878      	ldr	r0, [r7, #4]
 8003d7e:	f000 f8f5 	bl	8003f6c <HAL_CAN_WakeUpFromRxMsgCallback>
#endif /* USE_HAL_CAN_REGISTER_CALLBACKS */
    }
  }

  /* Error interrupts management *********************************************/
  if ((interrupts & CAN_IT_ERROR) != 0U)
 8003d82:	6a3b      	ldr	r3, [r7, #32]
 8003d84:	f403 4300 	and.w	r3, r3, #32768	@ 0x8000
 8003d88:	2b00      	cmp	r3, #0
 8003d8a:	d07b      	beq.n	8003e84 <HAL_CAN_IRQHandler+0x34e>
  {
    if ((msrflags & CAN_MSR_ERRI) != 0U)
 8003d8c:	69fb      	ldr	r3, [r7, #28]
 8003d8e:	f003 0304 	and.w	r3, r3, #4
 8003d92:	2b00      	cmp	r3, #0
 8003d94:	d072      	beq.n	8003e7c <HAL_CAN_IRQHandler+0x346>
    {
      /* Check Error Warning Flag */
      if (((interrupts & CAN_IT_ERROR_WARNING) != 0U) &&
 8003d96:	6a3b      	ldr	r3, [r7, #32]
 8003d98:	f403 7380 	and.w	r3, r3, #256	@ 0x100
 8003d9c:	2b00      	cmp	r3, #0
 8003d9e:	d008      	beq.n	8003db2 <HAL_CAN_IRQHandler+0x27c>
          ((esrflags & CAN_ESR_EWGF) != 0U))
 8003da0:	68fb      	ldr	r3, [r7, #12]
 8003da2:	f003 0301 	and.w	r3, r3, #1
      if (((interrupts & CAN_IT_ERROR_WARNING) != 0U) &&
 8003da6:	2b00      	cmp	r3, #0
 8003da8:	d003      	beq.n	8003db2 <HAL_CAN_IRQHandler+0x27c>
      {
        /* Set CAN error code to Error Warning */
        errorcode |= HAL_CAN_ERROR_EWG;
 8003daa:	6a7b      	ldr	r3, [r7, #36]	@ 0x24
 8003dac:	f043 0301 	orr.w	r3, r3, #1
 8003db0:	627b      	str	r3, [r7, #36]	@ 0x24

        /* No need for clear of Error Warning Flag as read-only */
      }

      /* Check Error Passive Flag */
      if (((interrupts & CAN_IT_ERROR_PASSIVE) != 0U) &&
 8003db2:	6a3b      	ldr	r3, [r7, #32]
 8003db4:	f403 7300 	and.w	r3, r3, #512	@ 0x200
 8003db8:	2b00      	cmp	r3, #0
 8003dba:	d008      	beq.n	8003dce <HAL_CAN_IRQHandler+0x298>
          ((esrflags & CAN_ESR_EPVF) != 0U))
 8003dbc:	68fb      	ldr	r3, [r7, #12]
 8003dbe:	f003 0302 	and.w	r3, r3, #2
      if (((interrupts & CAN_IT_ERROR_PASSIVE) != 0U) &&
 8003dc2:	2b00      	cmp	r3, #0
 8003dc4:	d003      	beq.n	8003dce <HAL_CAN_IRQHandler+0x298>
      {
        /* Set CAN error code to Error Passive */
        errorcode |= HAL_CAN_ERROR_EPV;
 8003dc6:	6a7b      	ldr	r3, [r7, #36]	@ 0x24
 8003dc8:	f043 0302 	orr.w	r3, r3, #2
 8003dcc:	627b      	str	r3, [r7, #36]	@ 0x24

        /* No need for clear of Error Passive Flag as read-only */
      }

      /* Check Bus-off Flag */
      if (((interrupts & CAN_IT_BUSOFF) != 0U) &&
 8003dce:	6a3b      	ldr	r3, [r7, #32]
 8003dd0:	f403 6380 	and.w	r3, r3, #1024	@ 0x400
 8003dd4:	2b00      	cmp	r3, #0
 8003dd6:	d008      	beq.n	8003dea <HAL_CAN_IRQHandler+0x2b4>
          ((esrflags & CAN_ESR_BOFF) != 0U))
 8003dd8:	68fb      	ldr	r3, [r7, #12]
 8003dda:	f003 0304 	and.w	r3, r3, #4
      if (((interrupts & CAN_IT_BUSOFF) != 0U) &&
 8003dde:	2b00      	cmp	r3, #0
 8003de0:	d003      	beq.n	8003dea <HAL_CAN_IRQHandler+0x2b4>
      {
        /* Set CAN error code to Bus-Off */
        errorcode |= HAL_CAN_ERROR_BOF;
 8003de2:	6a7b      	ldr	r3, [r7, #36]	@ 0x24
 8003de4:	f043 0304 	orr.w	r3, r3, #4
 8003de8:	627b      	str	r3, [r7, #36]	@ 0x24

        /* No need for clear of Error Bus-Off as read-only */
      }

      /* Check Last Error Code Flag */
      if (((interrupts & CAN_IT_LAST_ERROR_CODE) != 0U) &&
 8003dea:	6a3b      	ldr	r3, [r7, #32]
 8003dec:	f403 6300 	and.w	r3, r3, #2048	@ 0x800
 8003df0:	2b00      	cmp	r3, #0
 8003df2:	d043      	beq.n	8003e7c <HAL_CAN_IRQHandler+0x346>
          ((esrflags & CAN_ESR_LEC) != 0U))
 8003df4:	68fb      	ldr	r3, [r7, #12]
 8003df6:	f003 0370 	and.w	r3, r3, #112	@ 0x70
      if (((interrupts & CAN_IT_LAST_ERROR_CODE) != 0U) &&
 8003dfa:	2b00      	cmp	r3, #0
 8003dfc:	d03e      	beq.n	8003e7c <HAL_CAN_IRQHandler+0x346>
      {
        switch (esrflags & CAN_ESR_LEC)
 8003dfe:	68fb      	ldr	r3, [r7, #12]
 8003e00:	f003 0370 	and.w	r3, r3, #112	@ 0x70
 8003e04:	2b60      	cmp	r3, #96	@ 0x60
 8003e06:	d02b      	beq.n	8003e60 <HAL_CAN_IRQHandler+0x32a>
 8003e08:	2b60      	cmp	r3, #96	@ 0x60
 8003e0a:	d82e      	bhi.n	8003e6a <HAL_CAN_IRQHandler+0x334>
 8003e0c:	2b50      	cmp	r3, #80	@ 0x50
 8003e0e:	d022      	beq.n	8003e56 <HAL_CAN_IRQHandler+0x320>
 8003e10:	2b50      	cmp	r3, #80	@ 0x50
 8003e12:	d82a      	bhi.n	8003e6a <HAL_CAN_IRQHandler+0x334>
 8003e14:	2b40      	cmp	r3, #64	@ 0x40
 8003e16:	d019      	beq.n	8003e4c <HAL_CAN_IRQHandler+0x316>
 8003e18:	2b40      	cmp	r3, #64	@ 0x40
 8003e1a:	d826      	bhi.n	8003e6a <HAL_CAN_IRQHandler+0x334>
 8003e1c:	2b30      	cmp	r3, #48	@ 0x30
 8003e1e:	d010      	beq.n	8003e42 <HAL_CAN_IRQHandler+0x30c>
 8003e20:	2b30      	cmp	r3, #48	@ 0x30
 8003e22:	d822      	bhi.n	8003e6a <HAL_CAN_IRQHandler+0x334>
 8003e24:	2b10      	cmp	r3, #16
 8003e26:	d002      	beq.n	8003e2e <HAL_CAN_IRQHandler+0x2f8>
 8003e28:	2b20      	cmp	r3, #32
 8003e2a:	d005      	beq.n	8003e38 <HAL_CAN_IRQHandler+0x302>
          case (CAN_ESR_LEC_2 | CAN_ESR_LEC_1):
            /* Set CAN error code to CRC error */
            errorcode |= HAL_CAN_ERROR_CRC;
            break;
          default:
            break;
 8003e2c:	e01d      	b.n	8003e6a <HAL_CAN_IRQHandler+0x334>
            errorcode |= HAL_CAN_ERROR_STF;
 8003e2e:	6a7b      	ldr	r3, [r7, #36]	@ 0x24
 8003e30:	f043 0308 	orr.w	r3, r3, #8
 8003e34:	627b      	str	r3, [r7, #36]	@ 0x24
            break;
 8003e36:	e019      	b.n	8003e6c <HAL_CAN_IRQHandler+0x336>
            errorcode |= HAL_CAN_ERROR_FOR;
 8003e38:	6a7b      	ldr	r3, [r7, #36]	@ 0x24
 8003e3a:	f043 0310 	orr.w	r3, r3, #16
 8003e3e:	627b      	str	r3, [r7, #36]	@ 0x24
            break;
 8003e40:	e014      	b.n	8003e6c <HAL_CAN_IRQHandler+0x336>
            errorcode |= HAL_CAN_ERROR_ACK;
 8003e42:	6a7b      	ldr	r3, [r7, #36]	@ 0x24
 8003e44:	f043 0320 	orr.w	r3, r3, #32
 8003e48:	627b      	str	r3, [r7, #36]	@ 0x24
            break;
 8003e4a:	e00f      	b.n	8003e6c <HAL_CAN_IRQHandler+0x336>
            errorcode |= HAL_CAN_ERROR_BR;
 8003e4c:	6a7b      	ldr	r3, [r7, #36]	@ 0x24
 8003e4e:	f043 0340 	orr.w	r3, r3, #64	@ 0x40
 8003e52:	627b      	str	r3, [r7, #36]	@ 0x24
            break;
 8003e54:	e00a      	b.n	8003e6c <HAL_CAN_IRQHandler+0x336>
            errorcode |= HAL_CAN_ERROR_BD;
 8003e56:	6a7b      	ldr	r3, [r7, #36]	@ 0x24
 8003e58:	f043 0380 	orr.w	r3, r3, #128	@ 0x80
 8003e5c:	627b      	str	r3, [r7, #36]	@ 0x24
            break;
 8003e5e:	e005      	b.n	8003e6c <HAL_CAN_IRQHandler+0x336>
            errorcode |= HAL_CAN_ERROR_CRC;
 8003e60:	6a7b      	ldr	r3, [r7, #36]	@ 0x24
 8003e62:	f443 7380 	orr.w	r3, r3, #256	@ 0x100
 8003e66:	627b      	str	r3, [r7, #36]	@ 0x24
            break;
 8003e68:	e000      	b.n	8003e6c <HAL_CAN_IRQHandler+0x336>
            break;
 8003e6a:	bf00      	nop
        }

        /* Clear Last error code Flag */
        CLEAR_BIT(hcan->Instance->ESR, CAN_ESR_LEC);
 8003e6c:	687b      	ldr	r3, [r7, #4]
 8003e6e:	681b      	ldr	r3, [r3, #0]
 8003e70:	699a      	ldr	r2, [r3, #24]
 8003e72:	687b      	ldr	r3, [r7, #4]
 8003e74:	681b      	ldr	r3, [r3, #0]
 8003e76:	f022 0270 	bic.w	r2, r2, #112	@ 0x70
 8003e7a:	619a      	str	r2, [r3, #24]
      }
    }

    /* Clear ERRI Flag */
    __HAL_CAN_CLEAR_FLAG(hcan, CAN_FLAG_ERRI);
 8003e7c:	687b      	ldr	r3, [r7, #4]
 8003e7e:	681b      	ldr	r3, [r3, #0]
 8003e80:	2204      	movs	r2, #4
 8003e82:	605a      	str	r2, [r3, #4]
  }

  /* Call the Error call Back in case of Errors */
  if (errorcode != HAL_CAN_ERROR_NONE)
 8003e84:	6a7b      	ldr	r3, [r7, #36]	@ 0x24
 8003e86:	2b00      	cmp	r3, #0
 8003e88:	d008      	beq.n	8003e9c <HAL_CAN_IRQHandler+0x366>
  {
    /* Update error code in handle */
    hcan->ErrorCode |= errorcode;
 8003e8a:	687b      	ldr	r3, [r7, #4]
 8003e8c:	6a5a      	ldr	r2, [r3, #36]	@ 0x24
 8003e8e:	6a7b      	ldr	r3, [r7, #36]	@ 0x24
 8003e90:	431a      	orrs	r2, r3
 8003e92:	687b      	ldr	r3, [r7, #4]
 8003e94:	625a      	str	r2, [r3, #36]	@ 0x24
#if USE_HAL_CAN_REGISTER_CALLBACKS == 1
    /* Call registered callback*/
    hcan->ErrorCallback(hcan);
#else
    /* Call weak (surcharged) callback */
    HAL_CAN_ErrorCallback(hcan);
 8003e96:	6878      	ldr	r0, [r7, #4]
 8003e98:	f000 f872 	bl	8003f80 <HAL_CAN_ErrorCallback>
#endif /* USE_HAL_CAN_REGISTER_CALLBACKS */
  }
}
 8003e9c:	bf00      	nop
 8003e9e:	3728      	adds	r7, #40	@ 0x28
 8003ea0:	46bd      	mov	sp, r7
 8003ea2:	bd80      	pop	{r7, pc}

08003ea4 <HAL_CAN_TxMailbox0CompleteCallback>:
  * @param  hcan pointer to a CAN_HandleTypeDef structure that contains
  *         the configuration information for the specified CAN.
  * @retval None
  */
__weak void HAL_CAN_TxMailbox0CompleteCallback(CAN_HandleTypeDef *hcan)
{
 8003ea4:	b480      	push	{r7}
 8003ea6:	b083      	sub	sp, #12
 8003ea8:	af00      	add	r7, sp, #0
 8003eaa:	6078      	str	r0, [r7, #4]

  /* NOTE : This function Should not be modified, when the callback is needed,
            the HAL_CAN_TxMailbox0CompleteCallback could be implemented in the
            user file
   */
}
 8003eac:	bf00      	nop
 8003eae:	370c      	adds	r7, #12
 8003eb0:	46bd      	mov	sp, r7
 8003eb2:	f85d 7b04 	ldr.w	r7, [sp], #4
 8003eb6:	4770      	bx	lr

08003eb8 <HAL_CAN_TxMailbox1CompleteCallback>:
  * @param  hcan pointer to a CAN_HandleTypeDef structure that contains
  *         the configuration information for the specified CAN.
  * @retval None
  */
__weak void HAL_CAN_TxMailbox1CompleteCallback(CAN_HandleTypeDef *hcan)
{
 8003eb8:	b480      	push	{r7}
 8003eba:	b083      	sub	sp, #12
 8003ebc:	af00      	add	r7, sp, #0
 8003ebe:	6078      	str	r0, [r7, #4]

  /* NOTE : This function Should not be modified, when the callback is needed,
            the HAL_CAN_TxMailbox1CompleteCallback could be implemented in the
            user file
   */
}
 8003ec0:	bf00      	nop
 8003ec2:	370c      	adds	r7, #12
 8003ec4:	46bd      	mov	sp, r7
 8003ec6:	f85d 7b04 	ldr.w	r7, [sp], #4
 8003eca:	4770      	bx	lr

08003ecc <HAL_CAN_TxMailbox2CompleteCallback>:
  * @param  hcan pointer to a CAN_HandleTypeDef structure that contains
  *         the configuration information for the specified CAN.
  * @retval None
  */
__weak void HAL_CAN_TxMailbox2CompleteCallback(CAN_HandleTypeDef *hcan)
{
 8003ecc:	b480      	push	{r7}
 8003ece:	b083      	sub	sp, #12
 8003ed0:	af00      	add	r7, sp, #0
 8003ed2:	6078      	str	r0, [r7, #4]

  /* NOTE : This function Should not be modified, when the callback is needed,
            the HAL_CAN_TxMailbox2CompleteCallback could be implemented in the
            user file
   */
}
 8003ed4:	bf00      	nop
 8003ed6:	370c      	adds	r7, #12
 8003ed8:	46bd      	mov	sp, r7
 8003eda:	f85d 7b04 	ldr.w	r7, [sp], #4
 8003ede:	4770      	bx	lr

08003ee0 <HAL_CAN_TxMailbox0AbortCallback>:
  * @param  hcan pointer to an CAN_HandleTypeDef structure that contains
  *         the configuration information for the specified CAN.
  * @retval None
  */
__weak void HAL_CAN_TxMailbox0AbortCallback(CAN_HandleTypeDef *hcan)
{
 8003ee0:	b480      	push	{r7}
 8003ee2:	b083      	sub	sp, #12
 8003ee4:	af00      	add	r7, sp, #0
 8003ee6:	6078      	str	r0, [r7, #4]

  /* NOTE : This function Should not be modified, when the callback is needed,
            the HAL_CAN_TxMailbox0AbortCallback could be implemented in the
            user file
   */
}
 8003ee8:	bf00      	nop
 8003eea:	370c      	adds	r7, #12
 8003eec:	46bd      	mov	sp, r7
 8003eee:	f85d 7b04 	ldr.w	r7, [sp], #4
 8003ef2:	4770      	bx	lr

08003ef4 <HAL_CAN_TxMailbox1AbortCallback>:
  * @param  hcan pointer to an CAN_HandleTypeDef structure that contains
  *         the configuration information for the specified CAN.
  * @retval None
  */
__weak void HAL_CAN_TxMailbox1AbortCallback(CAN_HandleTypeDef *hcan)
{
 8003ef4:	b480      	push	{r7}
 8003ef6:	b083      	sub	sp, #12
 8003ef8:	af00      	add	r7, sp, #0
 8003efa:	6078      	str	r0, [r7, #4]

  /* NOTE : This function Should not be modified, when the callback is needed,
            the HAL_CAN_TxMailbox1AbortCallback could be implemented in the
            user file
   */
}
 8003efc:	bf00      	nop
 8003efe:	370c      	adds	r7, #12
 8003f00:	46bd      	mov	sp, r7
 8003f02:	f85d 7b04 	ldr.w	r7, [sp], #4
 8003f06:	4770      	bx	lr

08003f08 <HAL_CAN_TxMailbox2AbortCallback>:
  * @param  hcan pointer to an CAN_HandleTypeDef structure that contains
  *         the configuration information for the specified CAN.
  * @retval None
  */
__weak void HAL_CAN_TxMailbox2AbortCallback(CAN_HandleTypeDef *hcan)
{
 8003f08:	b480      	push	{r7}
 8003f0a:	b083      	sub	sp, #12
 8003f0c:	af00      	add	r7, sp, #0
 8003f0e:	6078      	str	r0, [r7, #4]

  /* NOTE : This function Should not be modified, when the callback is needed,
            the HAL_CAN_TxMailbox2AbortCallback could be implemented in the
            user file
   */
}
 8003f10:	bf00      	nop
 8003f12:	370c      	adds	r7, #12
 8003f14:	46bd      	mov	sp, r7
 8003f16:	f85d 7b04 	ldr.w	r7, [sp], #4
 8003f1a:	4770      	bx	lr

08003f1c <HAL_CAN_RxFifo0FullCallback>:
  * @param  hcan pointer to a CAN_HandleTypeDef structure that contains
  *         the configuration information for the specified CAN.
  * @retval None
  */
__weak void HAL_CAN_RxFifo0FullCallback(CAN_HandleTypeDef *hcan)
{
 8003f1c:	b480      	push	{r7}
 8003f1e:	b083      	sub	sp, #12
 8003f20:	af00      	add	r7, sp, #0
 8003f22:	6078      	str	r0, [r7, #4]

  /* NOTE : This function Should not be modified, when the callback is needed,
            the HAL_CAN_RxFifo0FullCallback could be implemented in the user
            file
   */
}
 8003f24:	bf00      	nop
 8003f26:	370c      	adds	r7, #12
 8003f28:	46bd      	mov	sp, r7
 8003f2a:	f85d 7b04 	ldr.w	r7, [sp], #4
 8003f2e:	4770      	bx	lr

08003f30 <HAL_CAN_RxFifo1MsgPendingCallback>:
  * @param  hcan pointer to a CAN_HandleTypeDef structure that contains
  *         the configuration information for the specified CAN.
  * @retval None
  */
__weak void HAL_CAN_RxFifo1MsgPendingCallback(CAN_HandleTypeDef *hcan)
{
 8003f30:	b480      	push	{r7}
 8003f32:	b083      	sub	sp, #12
 8003f34:	af00      	add	r7, sp, #0
 8003f36:	6078      	str	r0, [r7, #4]

  /* NOTE : This function Should not be modified, when the callback is needed,
            the HAL_CAN_RxFifo1MsgPendingCallback could be implemented in the
            user file
   */
}
 8003f38:	bf00      	nop
 8003f3a:	370c      	adds	r7, #12
 8003f3c:	46bd      	mov	sp, r7
 8003f3e:	f85d 7b04 	ldr.w	r7, [sp], #4
 8003f42:	4770      	bx	lr

08003f44 <HAL_CAN_RxFifo1FullCallback>:
  * @param  hcan pointer to a CAN_HandleTypeDef structure that contains
  *         the configuration information for the specified CAN.
  * @retval None
  */
__weak void HAL_CAN_RxFifo1FullCallback(CAN_HandleTypeDef *hcan)
{
 8003f44:	b480      	push	{r7}
 8003f46:	b083      	sub	sp, #12
 8003f48:	af00      	add	r7, sp, #0
 8003f4a:	6078      	str	r0, [r7, #4]

  /* NOTE : This function Should not be modified, when the callback is needed,
            the HAL_CAN_RxFifo1FullCallback could be implemented in the user
            file
   */
}
 8003f4c:	bf00      	nop
 8003f4e:	370c      	adds	r7, #12
 8003f50:	46bd      	mov	sp, r7
 8003f52:	f85d 7b04 	ldr.w	r7, [sp], #4
 8003f56:	4770      	bx	lr

08003f58 <HAL_CAN_SleepCallback>:
  * @param  hcan pointer to a CAN_HandleTypeDef structure that contains
  *         the configuration information for the specified CAN.
  * @retval None
  */
__weak void HAL_CAN_SleepCallback(CAN_HandleTypeDef *hcan)
{
 8003f58:	b480      	push	{r7}
 8003f5a:	b083      	sub	sp, #12
 8003f5c:	af00      	add	r7, sp, #0
 8003f5e:	6078      	str	r0, [r7, #4]
  UNUSED(hcan);

  /* NOTE : This function Should not be modified, when the callback is needed,
            the HAL_CAN_SleepCallback could be implemented in the user file
   */
}
 8003f60:	bf00      	nop
 8003f62:	370c      	adds	r7, #12
 8003f64:	46bd      	mov	sp, r7
 8003f66:	f85d 7b04 	ldr.w	r7, [sp], #4
 8003f6a:	4770      	bx	lr

08003f6c <HAL_CAN_WakeUpFromRxMsgCallback>:
  * @param  hcan pointer to a CAN_HandleTypeDef structure that contains
  *         the configuration information for the specified CAN.
  * @retval None
  */
__weak void HAL_CAN_WakeUpFromRxMsgCallback(CAN_HandleTypeDef *hcan)
{
 8003f6c:	b480      	push	{r7}
 8003f6e:	b083      	sub	sp, #12
 8003f70:	af00      	add	r7, sp, #0
 8003f72:	6078      	str	r0, [r7, #4]

  /* NOTE : This function Should not be modified, when the callback is needed,
            the HAL_CAN_WakeUpFromRxMsgCallback could be implemented in the
            user file
   */
}
 8003f74:	bf00      	nop
 8003f76:	370c      	adds	r7, #12
 8003f78:	46bd      	mov	sp, r7
 8003f7a:	f85d 7b04 	ldr.w	r7, [sp], #4
 8003f7e:	4770      	bx	lr

08003f80 <HAL_CAN_ErrorCallback>:
  * @param  hcan pointer to a CAN_HandleTypeDef structure that contains
  *         the configuration information for the specified CAN.
  * @retval None
  */
__weak void HAL_CAN_ErrorCallback(CAN_HandleTypeDef *hcan)
{
 8003f80:	b480      	push	{r7}
 8003f82:	b083      	sub	sp, #12
 8003f84:	af00      	add	r7, sp, #0
 8003f86:	6078      	str	r0, [r7, #4]
  UNUSED(hcan);

  /* NOTE : This function Should not be modified, when the callback is needed,
            the HAL_CAN_ErrorCallback could be implemented in the user file
   */
}
 8003f88:	bf00      	nop
 8003f8a:	370c      	adds	r7, #12
 8003f8c:	46bd      	mov	sp, r7
 8003f8e:	f85d 7b04 	ldr.w	r7, [sp], #4
 8003f92:	4770      	bx	lr

08003f94 <__NVIC_SetPriorityGrouping>:
           In case of a conflict between priority grouping and available
           priority bits (__NVIC_PRIO_BITS), the smallest possible priority group is set.
  \param [in]      PriorityGroup  Priority grouping field.
 */
__STATIC_INLINE void __NVIC_SetPriorityGrouping(uint32_t PriorityGroup)
{
 8003f94:	b480      	push	{r7}
 8003f96:	b085      	sub	sp, #20
 8003f98:	af00      	add	r7, sp, #0
 8003f9a:	6078      	str	r0, [r7, #4]
  uint32_t reg_value;
  uint32_t PriorityGroupTmp = (PriorityGroup & (uint32_t)0x07UL);             /* only values 0..7 are used          */
 8003f9c:	687b      	ldr	r3, [r7, #4]
 8003f9e:	f003 0307 	and.w	r3, r3, #7
 8003fa2:	60fb      	str	r3, [r7, #12]

  reg_value  =  SCB->AIRCR;                                                   /* read old register configuration    */
 8003fa4:	4b0c      	ldr	r3, [pc, #48]	@ (8003fd8 <__NVIC_SetPriorityGrouping+0x44>)
 8003fa6:	68db      	ldr	r3, [r3, #12]
 8003fa8:	60bb      	str	r3, [r7, #8]
  reg_value &= ~((uint32_t)(SCB_AIRCR_VECTKEY_Msk | SCB_AIRCR_PRIGROUP_Msk)); /* clear bits to change               */
 8003faa:	68ba      	ldr	r2, [r7, #8]
 8003fac:	f64f 03ff 	movw	r3, #63743	@ 0xf8ff
 8003fb0:	4013      	ands	r3, r2
 8003fb2:	60bb      	str	r3, [r7, #8]
  reg_value  =  (reg_value                                   |
                ((uint32_t)0x5FAUL << SCB_AIRCR_VECTKEY_Pos) |
                (PriorityGroupTmp << SCB_AIRCR_PRIGROUP_Pos)  );              /* Insert write key and priority group */
 8003fb4:	68fb      	ldr	r3, [r7, #12]
 8003fb6:	021a      	lsls	r2, r3, #8
                ((uint32_t)0x5FAUL << SCB_AIRCR_VECTKEY_Pos) |
 8003fb8:	68bb      	ldr	r3, [r7, #8]
 8003fba:	4313      	orrs	r3, r2
  reg_value  =  (reg_value                                   |
 8003fbc:	f043 63bf 	orr.w	r3, r3, #100139008	@ 0x5f80000
 8003fc0:	f443 3300 	orr.w	r3, r3, #131072	@ 0x20000
 8003fc4:	60bb      	str	r3, [r7, #8]
  SCB->AIRCR =  reg_value;
 8003fc6:	4a04      	ldr	r2, [pc, #16]	@ (8003fd8 <__NVIC_SetPriorityGrouping+0x44>)
 8003fc8:	68bb      	ldr	r3, [r7, #8]
 8003fca:	60d3      	str	r3, [r2, #12]
}
 8003fcc:	bf00      	nop
 8003fce:	3714      	adds	r7, #20
 8003fd0:	46bd      	mov	sp, r7
 8003fd2:	f85d 7b04 	ldr.w	r7, [sp], #4
 8003fd6:	4770      	bx	lr
 8003fd8:	e000ed00 	.word	0xe000ed00

08003fdc <__NVIC_GetPriorityGrouping>:
  \brief   Get Priority Grouping
  \details Reads the priority grouping field from the NVIC Interrupt Controller.
  \return                Priority grouping field (SCB->AIRCR [10:8] PRIGROUP field).
 */
__STATIC_INLINE uint32_t __NVIC_GetPriorityGrouping(void)
{
 8003fdc:	b480      	push	{r7}
 8003fde:	af00      	add	r7, sp, #0
  return ((uint32_t)((SCB->AIRCR & SCB_AIRCR_PRIGROUP_Msk) >> SCB_AIRCR_PRIGROUP_Pos));
 8003fe0:	4b04      	ldr	r3, [pc, #16]	@ (8003ff4 <__NVIC_GetPriorityGrouping+0x18>)
 8003fe2:	68db      	ldr	r3, [r3, #12]
 8003fe4:	0a1b      	lsrs	r3, r3, #8
 8003fe6:	f003 0307 	and.w	r3, r3, #7
}
 8003fea:	4618      	mov	r0, r3
 8003fec:	46bd      	mov	sp, r7
 8003fee:	f85d 7b04 	ldr.w	r7, [sp], #4
 8003ff2:	4770      	bx	lr
 8003ff4:	e000ed00 	.word	0xe000ed00

08003ff8 <__NVIC_EnableIRQ>:
  \details Enables a device specific interrupt in the NVIC interrupt controller.
  \param [in]      IRQn  Device specific interrupt number.
  \note    IRQn must not be negative.
 */
__STATIC_INLINE void __NVIC_EnableIRQ(IRQn_Type IRQn)
{
 8003ff8:	b480      	push	{r7}
 8003ffa:	b083      	sub	sp, #12
 8003ffc:	af00      	add	r7, sp, #0
 8003ffe:	4603      	mov	r3, r0
 8004000:	71fb      	strb	r3, [r7, #7]
  if ((int32_t)(IRQn) >= 0)
 8004002:	f997 3007 	ldrsb.w	r3, [r7, #7]
 8004006:	2b00      	cmp	r3, #0
 8004008:	db0b      	blt.n	8004022 <__NVIC_EnableIRQ+0x2a>
  {
    __COMPILER_BARRIER();
    NVIC->ISER[(((uint32_t)IRQn) >> 5UL)] = (uint32_t)(1UL << (((uint32_t)IRQn) & 0x1FUL));
 800400a:	79fb      	ldrb	r3, [r7, #7]
 800400c:	f003 021f 	and.w	r2, r3, #31
 8004010:	4907      	ldr	r1, [pc, #28]	@ (8004030 <__NVIC_EnableIRQ+0x38>)
 8004012:	f997 3007 	ldrsb.w	r3, [r7, #7]
 8004016:	095b      	lsrs	r3, r3, #5
 8004018:	2001      	movs	r0, #1
 800401a:	fa00 f202 	lsl.w	r2, r0, r2
 800401e:	f841 2023 	str.w	r2, [r1, r3, lsl #2]
    __COMPILER_BARRIER();
  }
}
 8004022:	bf00      	nop
 8004024:	370c      	adds	r7, #12
 8004026:	46bd      	mov	sp, r7
 8004028:	f85d 7b04 	ldr.w	r7, [sp], #4
 800402c:	4770      	bx	lr
 800402e:	bf00      	nop
 8004030:	e000e100 	.word	0xe000e100

08004034 <__NVIC_SetPriority>:
  \param [in]      IRQn  Interrupt number.
  \param [in]  priority  Priority to set.
  \note    The priority cannot be set for every processor exception.
 */
__STATIC_INLINE void __NVIC_SetPriority(IRQn_Type IRQn, uint32_t priority)
{
 8004034:	b480      	push	{r7}
 8004036:	b083      	sub	sp, #12
 8004038:	af00      	add	r7, sp, #0
 800403a:	4603      	mov	r3, r0
 800403c:	6039      	str	r1, [r7, #0]
 800403e:	71fb      	strb	r3, [r7, #7]
  if ((int32_t)(IRQn) >= 0)
 8004040:	f997 3007 	ldrsb.w	r3, [r7, #7]
 8004044:	2b00      	cmp	r3, #0
 8004046:	db0a      	blt.n	800405e <__NVIC_SetPriority+0x2a>
  {
    NVIC->IP[((uint32_t)IRQn)]               = (uint8_t)((priority << (8U - __NVIC_PRIO_BITS)) & (uint32_t)0xFFUL);
 8004048:	683b      	ldr	r3, [r7, #0]
 800404a:	b2da      	uxtb	r2, r3
 800404c:	490c      	ldr	r1, [pc, #48]	@ (8004080 <__NVIC_SetPriority+0x4c>)
 800404e:	f997 3007 	ldrsb.w	r3, [r7, #7]
 8004052:	0112      	lsls	r2, r2, #4
 8004054:	b2d2      	uxtb	r2, r2
 8004056:	440b      	add	r3, r1
 8004058:	f883 2300 	strb.w	r2, [r3, #768]	@ 0x300
  }
  else
  {
    SCB->SHP[(((uint32_t)IRQn) & 0xFUL)-4UL] = (uint8_t)((priority << (8U - __NVIC_PRIO_BITS)) & (uint32_t)0xFFUL);
  }
}
 800405c:	e00a      	b.n	8004074 <__NVIC_SetPriority+0x40>
    SCB->SHP[(((uint32_t)IRQn) & 0xFUL)-4UL] = (uint8_t)((priority << (8U - __NVIC_PRIO_BITS)) & (uint32_t)0xFFUL);
 800405e:	683b      	ldr	r3, [r7, #0]
 8004060:	b2da      	uxtb	r2, r3
 8004062:	4908      	ldr	r1, [pc, #32]	@ (8004084 <__NVIC_SetPriority+0x50>)
 8004064:	79fb      	ldrb	r3, [r7, #7]
 8004066:	f003 030f 	and.w	r3, r3, #15
 800406a:	3b04      	subs	r3, #4
 800406c:	0112      	lsls	r2, r2, #4
 800406e:	b2d2      	uxtb	r2, r2
 8004070:	440b      	add	r3, r1
 8004072:	761a      	strb	r2, [r3, #24]
}
 8004074:	bf00      	nop
 8004076:	370c      	adds	r7, #12
 8004078:	46bd      	mov	sp, r7
 800407a:	f85d 7b04 	ldr.w	r7, [sp], #4
 800407e:	4770      	bx	lr
 8004080:	e000e100 	.word	0xe000e100
 8004084:	e000ed00 	.word	0xe000ed00

08004088 <NVIC_EncodePriority>:
  \param [in]   PreemptPriority  Preemptive priority value (starting from 0).
  \param [in]       SubPriority  Subpriority value (starting from 0).
  \return                        Encoded priority. Value can be used in the function \ref NVIC_SetPriority().
 */
__STATIC_INLINE uint32_t NVIC_EncodePriority (uint32_t PriorityGroup, uint32_t PreemptPriority, uint32_t SubPriority)
{
 8004088:	b480      	push	{r7}
 800408a:	b089      	sub	sp, #36	@ 0x24
 800408c:	af00      	add	r7, sp, #0
 800408e:	60f8      	str	r0, [r7, #12]
 8004090:	60b9      	str	r1, [r7, #8]
 8004092:	607a      	str	r2, [r7, #4]
  uint32_t PriorityGroupTmp = (PriorityGroup & (uint32_t)0x07UL);   /* only values 0..7 are used          */
 8004094:	68fb      	ldr	r3, [r7, #12]
 8004096:	f003 0307 	and.w	r3, r3, #7
 800409a:	61fb      	str	r3, [r7, #28]
  uint32_t PreemptPriorityBits;
  uint32_t SubPriorityBits;

  PreemptPriorityBits = ((7UL - PriorityGroupTmp) > (uint32_t)(__NVIC_PRIO_BITS)) ? (uint32_t)(__NVIC_PRIO_BITS) : (uint32_t)(7UL - PriorityGroupTmp);
 800409c:	69fb      	ldr	r3, [r7, #28]
 800409e:	f1c3 0307 	rsb	r3, r3, #7
 80040a2:	2b04      	cmp	r3, #4
 80040a4:	bf28      	it	cs
 80040a6:	2304      	movcs	r3, #4
 80040a8:	61bb      	str	r3, [r7, #24]
  SubPriorityBits     = ((PriorityGroupTmp + (uint32_t)(__NVIC_PRIO_BITS)) < (uint32_t)7UL) ? (uint32_t)0UL : (uint32_t)((PriorityGroupTmp - 7UL) + (uint32_t)(__NVIC_PRIO_BITS));
 80040aa:	69fb      	ldr	r3, [r7, #28]
 80040ac:	3304      	adds	r3, #4
 80040ae:	2b06      	cmp	r3, #6
 80040b0:	d902      	bls.n	80040b8 <NVIC_EncodePriority+0x30>
 80040b2:	69fb      	ldr	r3, [r7, #28]
 80040b4:	3b03      	subs	r3, #3
 80040b6:	e000      	b.n	80040ba <NVIC_EncodePriority+0x32>
 80040b8:	2300      	movs	r3, #0
 80040ba:	617b      	str	r3, [r7, #20]

  return (
           ((PreemptPriority & (uint32_t)((1UL << (PreemptPriorityBits)) - 1UL)) << SubPriorityBits) |
 80040bc:	f04f 32ff 	mov.w	r2, #4294967295	@ 0xffffffff
 80040c0:	69bb      	ldr	r3, [r7, #24]
 80040c2:	fa02 f303 	lsl.w	r3, r2, r3
 80040c6:	43da      	mvns	r2, r3
 80040c8:	68bb      	ldr	r3, [r7, #8]
 80040ca:	401a      	ands	r2, r3
 80040cc:	697b      	ldr	r3, [r7, #20]
 80040ce:	409a      	lsls	r2, r3
           ((SubPriority     & (uint32_t)((1UL << (SubPriorityBits    )) - 1UL)))
 80040d0:	f04f 31ff 	mov.w	r1, #4294967295	@ 0xffffffff
 80040d4:	697b      	ldr	r3, [r7, #20]
 80040d6:	fa01 f303 	lsl.w	r3, r1, r3
 80040da:	43d9      	mvns	r1, r3
 80040dc:	687b      	ldr	r3, [r7, #4]
 80040de:	400b      	ands	r3, r1
           ((PreemptPriority & (uint32_t)((1UL << (PreemptPriorityBits)) - 1UL)) << SubPriorityBits) |
 80040e0:	4313      	orrs	r3, r2
         );
}
 80040e2:	4618      	mov	r0, r3
 80040e4:	3724      	adds	r7, #36	@ 0x24
 80040e6:	46bd      	mov	sp, r7
 80040e8:	f85d 7b04 	ldr.w	r7, [sp], #4
 80040ec:	4770      	bx	lr
	...

080040f0 <SysTick_Config>:
  \note    When the variable <b>__Vendor_SysTickConfig</b> is set to 1, then the
           function <b>SysTick_Config</b> is not included. In this case, the file <b><i>device</i>.h</b>
           must contain a vendor-specific implementation of this function.
 */
__STATIC_INLINE uint32_t SysTick_Config(uint32_t ticks)
{
 80040f0:	b580      	push	{r7, lr}
 80040f2:	b082      	sub	sp, #8
 80040f4:	af00      	add	r7, sp, #0
 80040f6:	6078      	str	r0, [r7, #4]
  if ((ticks - 1UL) > SysTick_LOAD_RELOAD_Msk)
 80040f8:	687b      	ldr	r3, [r7, #4]
 80040fa:	3b01      	subs	r3, #1
 80040fc:	f1b3 7f80 	cmp.w	r3, #16777216	@ 0x1000000
 8004100:	d301      	bcc.n	8004106 <SysTick_Config+0x16>
  {
    return (1UL);                                                   /* Reload value impossible */
 8004102:	2301      	movs	r3, #1
 8004104:	e00f      	b.n	8004126 <SysTick_Config+0x36>
  }

  SysTick->LOAD  = (uint32_t)(ticks - 1UL);                         /* set reload register */
 8004106:	4a0a      	ldr	r2, [pc, #40]	@ (8004130 <SysTick_Config+0x40>)
 8004108:	687b      	ldr	r3, [r7, #4]
 800410a:	3b01      	subs	r3, #1
 800410c:	6053      	str	r3, [r2, #4]
  NVIC_SetPriority (SysTick_IRQn, (1UL << __NVIC_PRIO_BITS) - 1UL); /* set Priority for Systick Interrupt */
 800410e:	210f      	movs	r1, #15
 8004110:	f04f 30ff 	mov.w	r0, #4294967295	@ 0xffffffff
 8004114:	f7ff ff8e 	bl	8004034 <__NVIC_SetPriority>
  SysTick->VAL   = 0UL;                                             /* Load the SysTick Counter Value */
 8004118:	4b05      	ldr	r3, [pc, #20]	@ (8004130 <SysTick_Config+0x40>)
 800411a:	2200      	movs	r2, #0
 800411c:	609a      	str	r2, [r3, #8]
  SysTick->CTRL  = SysTick_CTRL_CLKSOURCE_Msk |
 800411e:	4b04      	ldr	r3, [pc, #16]	@ (8004130 <SysTick_Config+0x40>)
 8004120:	2207      	movs	r2, #7
 8004122:	601a      	str	r2, [r3, #0]
                   SysTick_CTRL_TICKINT_Msk   |
                   SysTick_CTRL_ENABLE_Msk;                         /* Enable SysTick IRQ and SysTick Timer */
  return (0UL);                                                     /* Function successful */
 8004124:	2300      	movs	r3, #0
}
 8004126:	4618      	mov	r0, r3
 8004128:	3708      	adds	r7, #8
 800412a:	46bd      	mov	sp, r7
 800412c:	bd80      	pop	{r7, pc}
 800412e:	bf00      	nop
 8004130:	e000e010 	.word	0xe000e010

08004134 <HAL_NVIC_SetPriorityGrouping>:
  * @note   When the NVIC_PriorityGroup_0 is selected, IRQ preemption is no more possible. 
  *         The pending IRQ priority will be managed only by the subpriority. 
  * @retval None
  */
void HAL_NVIC_SetPriorityGrouping(uint32_t PriorityGroup)
{
 8004134:	b580      	push	{r7, lr}
 8004136:	b082      	sub	sp, #8
 8004138:	af00      	add	r7, sp, #0
 800413a:	6078      	str	r0, [r7, #4]
  /* Check the parameters */
  assert_param(IS_NVIC_PRIORITY_GROUP(PriorityGroup));
  
  /* Set the PRIGROUP[10:8] bits according to the PriorityGroup parameter value */
  NVIC_SetPriorityGrouping(PriorityGroup);
 800413c:	6878      	ldr	r0, [r7, #4]
 800413e:	f7ff ff29 	bl	8003f94 <__NVIC_SetPriorityGrouping>
}
 8004142:	bf00      	nop
 8004144:	3708      	adds	r7, #8
 8004146:	46bd      	mov	sp, r7
 8004148:	bd80      	pop	{r7, pc}

0800414a <HAL_NVIC_SetPriority>:
  *         This parameter can be a value between 0 and 15
  *         A lower priority value indicates a higher priority.          
  * @retval None
  */
void HAL_NVIC_SetPriority(IRQn_Type IRQn, uint32_t PreemptPriority, uint32_t SubPriority)
{ 
 800414a:	b580      	push	{r7, lr}
 800414c:	b086      	sub	sp, #24
 800414e:	af00      	add	r7, sp, #0
 8004150:	4603      	mov	r3, r0
 8004152:	60b9      	str	r1, [r7, #8]
 8004154:	607a      	str	r2, [r7, #4]
 8004156:	73fb      	strb	r3, [r7, #15]
  uint32_t prioritygroup = 0x00U;
 8004158:	2300      	movs	r3, #0
 800415a:	617b      	str	r3, [r7, #20]
  
  /* Check the parameters */
  assert_param(IS_NVIC_SUB_PRIORITY(SubPriority));
  assert_param(IS_NVIC_PREEMPTION_PRIORITY(PreemptPriority));
  
  prioritygroup = NVIC_GetPriorityGrouping();
 800415c:	f7ff ff3e 	bl	8003fdc <__NVIC_GetPriorityGrouping>
 8004160:	6178      	str	r0, [r7, #20]
  
  NVIC_SetPriority(IRQn, NVIC_EncodePriority(prioritygroup, PreemptPriority, SubPriority));
 8004162:	687a      	ldr	r2, [r7, #4]
 8004164:	68b9      	ldr	r1, [r7, #8]
 8004166:	6978      	ldr	r0, [r7, #20]
 8004168:	f7ff ff8e 	bl	8004088 <NVIC_EncodePriority>
 800416c:	4602      	mov	r2, r0
 800416e:	f997 300f 	ldrsb.w	r3, [r7, #15]
 8004172:	4611      	mov	r1, r2
 8004174:	4618      	mov	r0, r3
 8004176:	f7ff ff5d 	bl	8004034 <__NVIC_SetPriority>
}
 800417a:	bf00      	nop
 800417c:	3718      	adds	r7, #24
 800417e:	46bd      	mov	sp, r7
 8004180:	bd80      	pop	{r7, pc}

08004182 <HAL_NVIC_EnableIRQ>:
  *         This parameter can be an enumerator of IRQn_Type enumeration
  *         (For the complete STM32 Devices IRQ Channels list, please refer to the appropriate CMSIS device file (stm32f4xxxx.h))
  * @retval None
  */
void HAL_NVIC_EnableIRQ(IRQn_Type IRQn)
{
 8004182:	b580      	push	{r7, lr}
 8004184:	b082      	sub	sp, #8
 8004186:	af00      	add	r7, sp, #0
 8004188:	4603      	mov	r3, r0
 800418a:	71fb      	strb	r3, [r7, #7]
  /* Check the parameters */
  assert_param(IS_NVIC_DEVICE_IRQ(IRQn));
  
  /* Enable interrupt */
  NVIC_EnableIRQ(IRQn);
 800418c:	f997 3007 	ldrsb.w	r3, [r7, #7]
 8004190:	4618      	mov	r0, r3
 8004192:	f7ff ff31 	bl	8003ff8 <__NVIC_EnableIRQ>
}
 8004196:	bf00      	nop
 8004198:	3708      	adds	r7, #8
 800419a:	46bd      	mov	sp, r7
 800419c:	bd80      	pop	{r7, pc}

0800419e <HAL_SYSTICK_Config>:
  * @param  TicksNumb Specifies the ticks Number of ticks between two interrupts.
  * @retval status:  - 0  Function succeeded.
  *                  - 1  Function failed.
  */
uint32_t HAL_SYSTICK_Config(uint32_t TicksNumb)
{
 800419e:	b580      	push	{r7, lr}
 80041a0:	b082      	sub	sp, #8
 80041a2:	af00      	add	r7, sp, #0
 80041a4:	6078      	str	r0, [r7, #4]
   return SysTick_Config(TicksNumb);
 80041a6:	6878      	ldr	r0, [r7, #4]
 80041a8:	f7ff ffa2 	bl	80040f0 <SysTick_Config>
 80041ac:	4603      	mov	r3, r0
}
 80041ae:	4618      	mov	r0, r3
 80041b0:	3708      	adds	r7, #8
 80041b2:	46bd      	mov	sp, r7
 80041b4:	bd80      	pop	{r7, pc}
	...

080041b8 <HAL_GPIO_Init>:
  * @param  GPIO_Init pointer to a GPIO_InitTypeDef structure that contains
  *         the configuration information for the specified GPIO peripheral.
  * @retval None
  */
void HAL_GPIO_Init(GPIO_TypeDef  *GPIOx, GPIO_InitTypeDef *GPIO_Init)
{
 80041b8:	b480      	push	{r7}
 80041ba:	b089      	sub	sp, #36	@ 0x24
 80041bc:	af00      	add	r7, sp, #0
 80041be:	6078      	str	r0, [r7, #4]
 80041c0:	6039      	str	r1, [r7, #0]
  uint32_t position;
  uint32_t ioposition = 0x00U;
 80041c2:	2300      	movs	r3, #0
 80041c4:	617b      	str	r3, [r7, #20]
  uint32_t iocurrent = 0x00U;
 80041c6:	2300      	movs	r3, #0
 80041c8:	613b      	str	r3, [r7, #16]
  uint32_t temp = 0x00U;
 80041ca:	2300      	movs	r3, #0
 80041cc:	61bb      	str	r3, [r7, #24]
  assert_param(IS_GPIO_ALL_INSTANCE(GPIOx));
  assert_param(IS_GPIO_PIN(GPIO_Init->Pin));
  assert_param(IS_GPIO_MODE(GPIO_Init->Mode));

  /* Configure the port pins */
  for(position = 0U; position < GPIO_NUMBER; position++)
 80041ce:	2300      	movs	r3, #0
 80041d0:	61fb      	str	r3, [r7, #28]
 80041d2:	e165      	b.n	80044a0 <HAL_GPIO_Init+0x2e8>
  {
    /* Get the IO position */
    ioposition = 0x01U << position;
 80041d4:	2201      	movs	r2, #1
 80041d6:	69fb      	ldr	r3, [r7, #28]
 80041d8:	fa02 f303 	lsl.w	r3, r2, r3
 80041dc:	617b      	str	r3, [r7, #20]
    /* Get the current IO position */
    iocurrent = (uint32_t)(GPIO_Init->Pin) & ioposition;
 80041de:	683b      	ldr	r3, [r7, #0]
 80041e0:	681b      	ldr	r3, [r3, #0]
 80041e2:	697a      	ldr	r2, [r7, #20]
 80041e4:	4013      	ands	r3, r2
 80041e6:	613b      	str	r3, [r7, #16]

    if(iocurrent == ioposition)
 80041e8:	693a      	ldr	r2, [r7, #16]
 80041ea:	697b      	ldr	r3, [r7, #20]
 80041ec:	429a      	cmp	r2, r3
 80041ee:	f040 8154 	bne.w	800449a <HAL_GPIO_Init+0x2e2>
    {
      /*--------------------- GPIO Mode Configuration ------------------------*/
      /* In case of Output or Alternate function mode selection */
      if(((GPIO_Init->Mode & GPIO_MODE) == MODE_OUTPUT) || \
 80041f2:	683b      	ldr	r3, [r7, #0]
 80041f4:	685b      	ldr	r3, [r3, #4]
 80041f6:	f003 0303 	and.w	r3, r3, #3
 80041fa:	2b01      	cmp	r3, #1
 80041fc:	d005      	beq.n	800420a <HAL_GPIO_Init+0x52>
          (GPIO_Init->Mode & GPIO_MODE) == MODE_AF)
 80041fe:	683b      	ldr	r3, [r7, #0]
 8004200:	685b      	ldr	r3, [r3, #4]
 8004202:	f003 0303 	and.w	r3, r3, #3
      if(((GPIO_Init->Mode & GPIO_MODE) == MODE_OUTPUT) || \
 8004206:	2b02      	cmp	r3, #2
 8004208:	d130      	bne.n	800426c <HAL_GPIO_Init+0xb4>
      {
        /* Check the Speed parameter */
        assert_param(IS_GPIO_SPEED(GPIO_Init->Speed));
        /* Configure the IO Speed */
        temp = GPIOx->OSPEEDR; 
 800420a:	687b      	ldr	r3, [r7, #4]
 800420c:	689b      	ldr	r3, [r3, #8]
 800420e:	61bb      	str	r3, [r7, #24]
        temp &= ~(GPIO_OSPEEDER_OSPEEDR0 << (position * 2U));
 8004210:	69fb      	ldr	r3, [r7, #28]
 8004212:	005b      	lsls	r3, r3, #1
 8004214:	2203      	movs	r2, #3
 8004216:	fa02 f303 	lsl.w	r3, r2, r3
 800421a:	43db      	mvns	r3, r3
 800421c:	69ba      	ldr	r2, [r7, #24]
 800421e:	4013      	ands	r3, r2
 8004220:	61bb      	str	r3, [r7, #24]
        temp |= (GPIO_Init->Speed << (position * 2U));
 8004222:	683b      	ldr	r3, [r7, #0]
 8004224:	68da      	ldr	r2, [r3, #12]
 8004226:	69fb      	ldr	r3, [r7, #28]
 8004228:	005b      	lsls	r3, r3, #1
 800422a:	fa02 f303 	lsl.w	r3, r2, r3
 800422e:	69ba      	ldr	r2, [r7, #24]
 8004230:	4313      	orrs	r3, r2
 8004232:	61bb      	str	r3, [r7, #24]
        GPIOx->OSPEEDR = temp;
 8004234:	687b      	ldr	r3, [r7, #4]
 8004236:	69ba      	ldr	r2, [r7, #24]
 8004238:	609a      	str	r2, [r3, #8]

        /* Configure the IO Output Type */
        temp = GPIOx->OTYPER;
 800423a:	687b      	ldr	r3, [r7, #4]
 800423c:	685b      	ldr	r3, [r3, #4]
 800423e:	61bb      	str	r3, [r7, #24]
        temp &= ~(GPIO_OTYPER_OT_0 << position) ;
 8004240:	2201      	movs	r2, #1
 8004242:	69fb      	ldr	r3, [r7, #28]
 8004244:	fa02 f303 	lsl.w	r3, r2, r3
 8004248:	43db      	mvns	r3, r3
 800424a:	69ba      	ldr	r2, [r7, #24]
 800424c:	4013      	ands	r3, r2
 800424e:	61bb      	str	r3, [r7, #24]
        temp |= (((GPIO_Init->Mode & OUTPUT_TYPE) >> OUTPUT_TYPE_Pos) << position);
 8004250:	683b      	ldr	r3, [r7, #0]
 8004252:	685b      	ldr	r3, [r3, #4]
 8004254:	091b      	lsrs	r3, r3, #4
 8004256:	f003 0201 	and.w	r2, r3, #1
 800425a:	69fb      	ldr	r3, [r7, #28]
 800425c:	fa02 f303 	lsl.w	r3, r2, r3
 8004260:	69ba      	ldr	r2, [r7, #24]
 8004262:	4313      	orrs	r3, r2
 8004264:	61bb      	str	r3, [r7, #24]
        GPIOx->OTYPER = temp;
 8004266:	687b      	ldr	r3, [r7, #4]
 8004268:	69ba      	ldr	r2, [r7, #24]
 800426a:	605a      	str	r2, [r3, #4]
       }

      if((GPIO_Init->Mode & GPIO_MODE) != MODE_ANALOG)
 800426c:	683b      	ldr	r3, [r7, #0]
 800426e:	685b      	ldr	r3, [r3, #4]
 8004270:	f003 0303 	and.w	r3, r3, #3
 8004274:	2b03      	cmp	r3, #3
 8004276:	d017      	beq.n	80042a8 <HAL_GPIO_Init+0xf0>
      {
        /* Check the parameters */
        assert_param(IS_GPIO_PULL(GPIO_Init->Pull));
        
        /* Activate the Pull-up or Pull down resistor for the current IO */
        temp = GPIOx->PUPDR;
 8004278:	687b      	ldr	r3, [r7, #4]
 800427a:	68db      	ldr	r3, [r3, #12]
 800427c:	61bb      	str	r3, [r7, #24]
        temp &= ~(GPIO_PUPDR_PUPDR0 << (position * 2U));
 800427e:	69fb      	ldr	r3, [r7, #28]
 8004280:	005b      	lsls	r3, r3, #1
 8004282:	2203      	movs	r2, #3
 8004284:	fa02 f303 	lsl.w	r3, r2, r3
 8004288:	43db      	mvns	r3, r3
 800428a:	69ba      	ldr	r2, [r7, #24]
 800428c:	4013      	ands	r3, r2
 800428e:	61bb      	str	r3, [r7, #24]
        temp |= ((GPIO_Init->Pull) << (position * 2U));
 8004290:	683b      	ldr	r3, [r7, #0]
 8004292:	689a      	ldr	r2, [r3, #8]
 8004294:	69fb      	ldr	r3, [r7, #28]
 8004296:	005b      	lsls	r3, r3, #1
 8004298:	fa02 f303 	lsl.w	r3, r2, r3
 800429c:	69ba      	ldr	r2, [r7, #24]
 800429e:	4313      	orrs	r3, r2
 80042a0:	61bb      	str	r3, [r7, #24]
        GPIOx->PUPDR = temp;
 80042a2:	687b      	ldr	r3, [r7, #4]
 80042a4:	69ba      	ldr	r2, [r7, #24]
 80042a6:	60da      	str	r2, [r3, #12]
      }

      /* In case of Alternate function mode selection */
      if((GPIO_Init->Mode & GPIO_MODE) == MODE_AF)
 80042a8:	683b      	ldr	r3, [r7, #0]
 80042aa:	685b      	ldr	r3, [r3, #4]
 80042ac:	f003 0303 	and.w	r3, r3, #3
 80042b0:	2b02      	cmp	r3, #2
 80042b2:	d123      	bne.n	80042fc <HAL_GPIO_Init+0x144>
      {
        /* Check the Alternate function parameter */
        assert_param(IS_GPIO_AF(GPIO_Init->Alternate));
        /* Configure Alternate function mapped with the current IO */
        temp = GPIOx->AFR[position >> 3U];
 80042b4:	69fb      	ldr	r3, [r7, #28]
 80042b6:	08da      	lsrs	r2, r3, #3
 80042b8:	687b      	ldr	r3, [r7, #4]
 80042ba:	3208      	adds	r2, #8
 80042bc:	f853 3022 	ldr.w	r3, [r3, r2, lsl #2]
 80042c0:	61bb      	str	r3, [r7, #24]
        temp &= ~(0xFU << ((uint32_t)(position & 0x07U) * 4U)) ;
 80042c2:	69fb      	ldr	r3, [r7, #28]
 80042c4:	f003 0307 	and.w	r3, r3, #7
 80042c8:	009b      	lsls	r3, r3, #2
 80042ca:	220f      	movs	r2, #15
 80042cc:	fa02 f303 	lsl.w	r3, r2, r3
 80042d0:	43db      	mvns	r3, r3
 80042d2:	69ba      	ldr	r2, [r7, #24]
 80042d4:	4013      	ands	r3, r2
 80042d6:	61bb      	str	r3, [r7, #24]
        temp |= ((uint32_t)(GPIO_Init->Alternate) << (((uint32_t)position & 0x07U) * 4U));
 80042d8:	683b      	ldr	r3, [r7, #0]
 80042da:	691a      	ldr	r2, [r3, #16]
 80042dc:	69fb      	ldr	r3, [r7, #28]
 80042de:	f003 0307 	and.w	r3, r3, #7
 80042e2:	009b      	lsls	r3, r3, #2
 80042e4:	fa02 f303 	lsl.w	r3, r2, r3
 80042e8:	69ba      	ldr	r2, [r7, #24]
 80042ea:	4313      	orrs	r3, r2
 80042ec:	61bb      	str	r3, [r7, #24]
        GPIOx->AFR[position >> 3U] = temp;
 80042ee:	69fb      	ldr	r3, [r7, #28]
 80042f0:	08da      	lsrs	r2, r3, #3
 80042f2:	687b      	ldr	r3, [r7, #4]
 80042f4:	3208      	adds	r2, #8
 80042f6:	69b9      	ldr	r1, [r7, #24]
 80042f8:	f843 1022 	str.w	r1, [r3, r2, lsl #2]
      }

      /* Configure IO Direction mode (Input, Output, Alternate or Analog) */
      temp = GPIOx->MODER;
 80042fc:	687b      	ldr	r3, [r7, #4]
 80042fe:	681b      	ldr	r3, [r3, #0]
 8004300:	61bb      	str	r3, [r7, #24]
      temp &= ~(GPIO_MODER_MODER0 << (position * 2U));
 8004302:	69fb      	ldr	r3, [r7, #28]
 8004304:	005b      	lsls	r3, r3, #1
 8004306:	2203      	movs	r2, #3
 8004308:	fa02 f303 	lsl.w	r3, r2, r3
 800430c:	43db      	mvns	r3, r3
 800430e:	69ba      	ldr	r2, [r7, #24]
 8004310:	4013      	ands	r3, r2
 8004312:	61bb      	str	r3, [r7, #24]
      temp |= ((GPIO_Init->Mode & GPIO_MODE) << (position * 2U));
 8004314:	683b      	ldr	r3, [r7, #0]
 8004316:	685b      	ldr	r3, [r3, #4]
 8004318:	f003 0203 	and.w	r2, r3, #3
 800431c:	69fb      	ldr	r3, [r7, #28]
 800431e:	005b      	lsls	r3, r3, #1
 8004320:	fa02 f303 	lsl.w	r3, r2, r3
 8004324:	69ba      	ldr	r2, [r7, #24]
 8004326:	4313      	orrs	r3, r2
 8004328:	61bb      	str	r3, [r7, #24]
      GPIOx->MODER = temp;
 800432a:	687b      	ldr	r3, [r7, #4]
 800432c:	69ba      	ldr	r2, [r7, #24]
 800432e:	601a      	str	r2, [r3, #0]

      /*--------------------- EXTI Mode Configuration ------------------------*/
      /* Configure the External Interrupt or event for the current IO */
      if((GPIO_Init->Mode & EXTI_MODE) != 0x00U)
 8004330:	683b      	ldr	r3, [r7, #0]
 8004332:	685b      	ldr	r3, [r3, #4]
 8004334:	f403 3340 	and.w	r3, r3, #196608	@ 0x30000
 8004338:	2b00      	cmp	r3, #0
 800433a:	f000 80ae 	beq.w	800449a <HAL_GPIO_Init+0x2e2>
      {
        /* Enable SYSCFG Clock */
        __HAL_RCC_SYSCFG_CLK_ENABLE();
 800433e:	2300      	movs	r3, #0
 8004340:	60fb      	str	r3, [r7, #12]
 8004342:	4b5d      	ldr	r3, [pc, #372]	@ (80044b8 <HAL_GPIO_Init+0x300>)
 8004344:	6c5b      	ldr	r3, [r3, #68]	@ 0x44
 8004346:	4a5c      	ldr	r2, [pc, #368]	@ (80044b8 <HAL_GPIO_Init+0x300>)
 8004348:	f443 4380 	orr.w	r3, r3, #16384	@ 0x4000
 800434c:	6453      	str	r3, [r2, #68]	@ 0x44
 800434e:	4b5a      	ldr	r3, [pc, #360]	@ (80044b8 <HAL_GPIO_Init+0x300>)
 8004350:	6c5b      	ldr	r3, [r3, #68]	@ 0x44
 8004352:	f403 4380 	and.w	r3, r3, #16384	@ 0x4000
 8004356:	60fb      	str	r3, [r7, #12]
 8004358:	68fb      	ldr	r3, [r7, #12]

        temp = SYSCFG->EXTICR[position >> 2U];
 800435a:	4a58      	ldr	r2, [pc, #352]	@ (80044bc <HAL_GPIO_Init+0x304>)
 800435c:	69fb      	ldr	r3, [r7, #28]
 800435e:	089b      	lsrs	r3, r3, #2
 8004360:	3302      	adds	r3, #2
 8004362:	f852 3023 	ldr.w	r3, [r2, r3, lsl #2]
 8004366:	61bb      	str	r3, [r7, #24]
        temp &= ~(0x0FU << (4U * (position & 0x03U)));
 8004368:	69fb      	ldr	r3, [r7, #28]
 800436a:	f003 0303 	and.w	r3, r3, #3
 800436e:	009b      	lsls	r3, r3, #2
 8004370:	220f      	movs	r2, #15
 8004372:	fa02 f303 	lsl.w	r3, r2, r3
 8004376:	43db      	mvns	r3, r3
 8004378:	69ba      	ldr	r2, [r7, #24]
 800437a:	4013      	ands	r3, r2
 800437c:	61bb      	str	r3, [r7, #24]
        temp |= ((uint32_t)(GPIO_GET_INDEX(GPIOx)) << (4U * (position & 0x03U)));
 800437e:	687b      	ldr	r3, [r7, #4]
 8004380:	4a4f      	ldr	r2, [pc, #316]	@ (80044c0 <HAL_GPIO_Init+0x308>)
 8004382:	4293      	cmp	r3, r2
 8004384:	d025      	beq.n	80043d2 <HAL_GPIO_Init+0x21a>
 8004386:	687b      	ldr	r3, [r7, #4]
 8004388:	4a4e      	ldr	r2, [pc, #312]	@ (80044c4 <HAL_GPIO_Init+0x30c>)
 800438a:	4293      	cmp	r3, r2
 800438c:	d01f      	beq.n	80043ce <HAL_GPIO_Init+0x216>
 800438e:	687b      	ldr	r3, [r7, #4]
 8004390:	4a4d      	ldr	r2, [pc, #308]	@ (80044c8 <HAL_GPIO_Init+0x310>)
 8004392:	4293      	cmp	r3, r2
 8004394:	d019      	beq.n	80043ca <HAL_GPIO_Init+0x212>
 8004396:	687b      	ldr	r3, [r7, #4]
 8004398:	4a4c      	ldr	r2, [pc, #304]	@ (80044cc <HAL_GPIO_Init+0x314>)
 800439a:	4293      	cmp	r3, r2
 800439c:	d013      	beq.n	80043c6 <HAL_GPIO_Init+0x20e>
 800439e:	687b      	ldr	r3, [r7, #4]
 80043a0:	4a4b      	ldr	r2, [pc, #300]	@ (80044d0 <HAL_GPIO_Init+0x318>)
 80043a2:	4293      	cmp	r3, r2
 80043a4:	d00d      	beq.n	80043c2 <HAL_GPIO_Init+0x20a>
 80043a6:	687b      	ldr	r3, [r7, #4]
 80043a8:	4a4a      	ldr	r2, [pc, #296]	@ (80044d4 <HAL_GPIO_Init+0x31c>)
 80043aa:	4293      	cmp	r3, r2
 80043ac:	d007      	beq.n	80043be <HAL_GPIO_Init+0x206>
 80043ae:	687b      	ldr	r3, [r7, #4]
 80043b0:	4a49      	ldr	r2, [pc, #292]	@ (80044d8 <HAL_GPIO_Init+0x320>)
 80043b2:	4293      	cmp	r3, r2
 80043b4:	d101      	bne.n	80043ba <HAL_GPIO_Init+0x202>
 80043b6:	2306      	movs	r3, #6
 80043b8:	e00c      	b.n	80043d4 <HAL_GPIO_Init+0x21c>
 80043ba:	2307      	movs	r3, #7
 80043bc:	e00a      	b.n	80043d4 <HAL_GPIO_Init+0x21c>
 80043be:	2305      	movs	r3, #5
 80043c0:	e008      	b.n	80043d4 <HAL_GPIO_Init+0x21c>
 80043c2:	2304      	movs	r3, #4
 80043c4:	e006      	b.n	80043d4 <HAL_GPIO_Init+0x21c>
 80043c6:	2303      	movs	r3, #3
 80043c8:	e004      	b.n	80043d4 <HAL_GPIO_Init+0x21c>
 80043ca:	2302      	movs	r3, #2
 80043cc:	e002      	b.n	80043d4 <HAL_GPIO_Init+0x21c>
 80043ce:	2301      	movs	r3, #1
 80043d0:	e000      	b.n	80043d4 <HAL_GPIO_Init+0x21c>
 80043d2:	2300      	movs	r3, #0
 80043d4:	69fa      	ldr	r2, [r7, #28]
 80043d6:	f002 0203 	and.w	r2, r2, #3
 80043da:	0092      	lsls	r2, r2, #2
 80043dc:	4093      	lsls	r3, r2
 80043de:	69ba      	ldr	r2, [r7, #24]
 80043e0:	4313      	orrs	r3, r2
 80043e2:	61bb      	str	r3, [r7, #24]
        SYSCFG->EXTICR[position >> 2U] = temp;
 80043e4:	4935      	ldr	r1, [pc, #212]	@ (80044bc <HAL_GPIO_Init+0x304>)
 80043e6:	69fb      	ldr	r3, [r7, #28]
 80043e8:	089b      	lsrs	r3, r3, #2
 80043ea:	3302      	adds	r3, #2
 80043ec:	69ba      	ldr	r2, [r7, #24]
 80043ee:	f841 2023 	str.w	r2, [r1, r3, lsl #2]

        /* Clear Rising Falling edge configuration */
        temp = EXTI->RTSR;
 80043f2:	4b3a      	ldr	r3, [pc, #232]	@ (80044dc <HAL_GPIO_Init+0x324>)
 80043f4:	689b      	ldr	r3, [r3, #8]
 80043f6:	61bb      	str	r3, [r7, #24]
        temp &= ~((uint32_t)iocurrent);
 80043f8:	693b      	ldr	r3, [r7, #16]
 80043fa:	43db      	mvns	r3, r3
 80043fc:	69ba      	ldr	r2, [r7, #24]
 80043fe:	4013      	ands	r3, r2
 8004400:	61bb      	str	r3, [r7, #24]
        if((GPIO_Init->Mode & TRIGGER_RISING) != 0x00U)
 8004402:	683b      	ldr	r3, [r7, #0]
 8004404:	685b      	ldr	r3, [r3, #4]
 8004406:	f403 1380 	and.w	r3, r3, #1048576	@ 0x100000
 800440a:	2b00      	cmp	r3, #0
 800440c:	d003      	beq.n	8004416 <HAL_GPIO_Init+0x25e>
        {
          temp |= iocurrent;
 800440e:	69ba      	ldr	r2, [r7, #24]
 8004410:	693b      	ldr	r3, [r7, #16]
 8004412:	4313      	orrs	r3, r2
 8004414:	61bb      	str	r3, [r7, #24]
        }
        EXTI->RTSR = temp;
 8004416:	4a31      	ldr	r2, [pc, #196]	@ (80044dc <HAL_GPIO_Init+0x324>)
 8004418:	69bb      	ldr	r3, [r7, #24]
 800441a:	6093      	str	r3, [r2, #8]

        temp = EXTI->FTSR;
 800441c:	4b2f      	ldr	r3, [pc, #188]	@ (80044dc <HAL_GPIO_Init+0x324>)
 800441e:	68db      	ldr	r3, [r3, #12]
 8004420:	61bb      	str	r3, [r7, #24]
        temp &= ~((uint32_t)iocurrent);
 8004422:	693b      	ldr	r3, [r7, #16]
 8004424:	43db      	mvns	r3, r3
 8004426:	69ba      	ldr	r2, [r7, #24]
 8004428:	4013      	ands	r3, r2
 800442a:	61bb      	str	r3, [r7, #24]
        if((GPIO_Init->Mode & TRIGGER_FALLING) != 0x00U)
 800442c:	683b      	ldr	r3, [r7, #0]
 800442e:	685b      	ldr	r3, [r3, #4]
 8004430:	f403 1300 	and.w	r3, r3, #2097152	@ 0x200000
 8004434:	2b00      	cmp	r3, #0
 8004436:	d003      	beq.n	8004440 <HAL_GPIO_Init+0x288>
        {
          temp |= iocurrent;
 8004438:	69ba      	ldr	r2, [r7, #24]
 800443a:	693b      	ldr	r3, [r7, #16]
 800443c:	4313      	orrs	r3, r2
 800443e:	61bb      	str	r3, [r7, #24]
        }
        EXTI->FTSR = temp;
 8004440:	4a26      	ldr	r2, [pc, #152]	@ (80044dc <HAL_GPIO_Init+0x324>)
 8004442:	69bb      	ldr	r3, [r7, #24]
 8004444:	60d3      	str	r3, [r2, #12]

        temp = EXTI->EMR;
 8004446:	4b25      	ldr	r3, [pc, #148]	@ (80044dc <HAL_GPIO_Init+0x324>)
 8004448:	685b      	ldr	r3, [r3, #4]
 800444a:	61bb      	str	r3, [r7, #24]
        temp &= ~((uint32_t)iocurrent);
 800444c:	693b      	ldr	r3, [r7, #16]
 800444e:	43db      	mvns	r3, r3
 8004450:	69ba      	ldr	r2, [r7, #24]
 8004452:	4013      	ands	r3, r2
 8004454:	61bb      	str	r3, [r7, #24]
        if((GPIO_Init->Mode & EXTI_EVT) != 0x00U)
 8004456:	683b      	ldr	r3, [r7, #0]
 8004458:	685b      	ldr	r3, [r3, #4]
 800445a:	f403 3300 	and.w	r3, r3, #131072	@ 0x20000
 800445e:	2b00      	cmp	r3, #0
 8004460:	d003      	beq.n	800446a <HAL_GPIO_Init+0x2b2>
        {
          temp |= iocurrent;
 8004462:	69ba      	ldr	r2, [r7, #24]
 8004464:	693b      	ldr	r3, [r7, #16]
 8004466:	4313      	orrs	r3, r2
 8004468:	61bb      	str	r3, [r7, #24]
        }
        EXTI->EMR = temp;
 800446a:	4a1c      	ldr	r2, [pc, #112]	@ (80044dc <HAL_GPIO_Init+0x324>)
 800446c:	69bb      	ldr	r3, [r7, #24]
 800446e:	6053      	str	r3, [r2, #4]

        /* Clear EXTI line configuration */
        temp = EXTI->IMR;
 8004470:	4b1a      	ldr	r3, [pc, #104]	@ (80044dc <HAL_GPIO_Init+0x324>)
 8004472:	681b      	ldr	r3, [r3, #0]
 8004474:	61bb      	str	r3, [r7, #24]
        temp &= ~((uint32_t)iocurrent);
 8004476:	693b      	ldr	r3, [r7, #16]
 8004478:	43db      	mvns	r3, r3
 800447a:	69ba      	ldr	r2, [r7, #24]
 800447c:	4013      	ands	r3, r2
 800447e:	61bb      	str	r3, [r7, #24]
        if((GPIO_Init->Mode & EXTI_IT) != 0x00U)
 8004480:	683b      	ldr	r3, [r7, #0]
 8004482:	685b      	ldr	r3, [r3, #4]
 8004484:	f403 3380 	and.w	r3, r3, #65536	@ 0x10000
 8004488:	2b00      	cmp	r3, #0
 800448a:	d003      	beq.n	8004494 <HAL_GPIO_Init+0x2dc>
        {
          temp |= iocurrent;
 800448c:	69ba      	ldr	r2, [r7, #24]
 800448e:	693b      	ldr	r3, [r7, #16]
 8004490:	4313      	orrs	r3, r2
 8004492:	61bb      	str	r3, [r7, #24]
        }
        EXTI->IMR = temp;
 8004494:	4a11      	ldr	r2, [pc, #68]	@ (80044dc <HAL_GPIO_Init+0x324>)
 8004496:	69bb      	ldr	r3, [r7, #24]
 8004498:	6013      	str	r3, [r2, #0]
  for(position = 0U; position < GPIO_NUMBER; position++)
 800449a:	69fb      	ldr	r3, [r7, #28]
 800449c:	3301      	adds	r3, #1
 800449e:	61fb      	str	r3, [r7, #28]
 80044a0:	69fb      	ldr	r3, [r7, #28]
 80044a2:	2b0f      	cmp	r3, #15
 80044a4:	f67f ae96 	bls.w	80041d4 <HAL_GPIO_Init+0x1c>
      }
    }
  }
}
 80044a8:	bf00      	nop
 80044aa:	bf00      	nop
 80044ac:	3724      	adds	r7, #36	@ 0x24
 80044ae:	46bd      	mov	sp, r7
 80044b0:	f85d 7b04 	ldr.w	r7, [sp], #4
 80044b4:	4770      	bx	lr
 80044b6:	bf00      	nop
 80044b8:	40023800 	.word	0x40023800
 80044bc:	40013800 	.word	0x40013800
 80044c0:	40020000 	.word	0x40020000
 80044c4:	40020400 	.word	0x40020400
 80044c8:	40020800 	.word	0x40020800
 80044cc:	40020c00 	.word	0x40020c00
 80044d0:	40021000 	.word	0x40021000
 80044d4:	40021400 	.word	0x40021400
 80044d8:	40021800 	.word	0x40021800
 80044dc:	40013c00 	.word	0x40013c00

080044e0 <HAL_GPIO_WritePin>:
  *            @arg GPIO_PIN_RESET: to clear the port pin
  *            @arg GPIO_PIN_SET: to set the port pin
  * @retval None
  */
void HAL_GPIO_WritePin(GPIO_TypeDef* GPIOx, uint16_t GPIO_Pin, GPIO_PinState PinState)
{
 80044e0:	b480      	push	{r7}
 80044e2:	b083      	sub	sp, #12
 80044e4:	af00      	add	r7, sp, #0
 80044e6:	6078      	str	r0, [r7, #4]
 80044e8:	460b      	mov	r3, r1
 80044ea:	807b      	strh	r3, [r7, #2]
 80044ec:	4613      	mov	r3, r2
 80044ee:	707b      	strb	r3, [r7, #1]
  /* Check the parameters */
  assert_param(IS_GPIO_PIN(GPIO_Pin));
  assert_param(IS_GPIO_PIN_ACTION(PinState));

  if(PinState != GPIO_PIN_RESET)
 80044f0:	787b      	ldrb	r3, [r7, #1]
 80044f2:	2b00      	cmp	r3, #0
 80044f4:	d003      	beq.n	80044fe <HAL_GPIO_WritePin+0x1e>
  {
    GPIOx->BSRR = GPIO_Pin;
 80044f6:	887a      	ldrh	r2, [r7, #2]
 80044f8:	687b      	ldr	r3, [r7, #4]
 80044fa:	619a      	str	r2, [r3, #24]
  }
  else
  {
    GPIOx->BSRR = (uint32_t)GPIO_Pin << 16U;
  }
}
 80044fc:	e003      	b.n	8004506 <HAL_GPIO_WritePin+0x26>
    GPIOx->BSRR = (uint32_t)GPIO_Pin << 16U;
 80044fe:	887b      	ldrh	r3, [r7, #2]
 8004500:	041a      	lsls	r2, r3, #16
 8004502:	687b      	ldr	r3, [r7, #4]
 8004504:	619a      	str	r2, [r3, #24]
}
 8004506:	bf00      	nop
 8004508:	370c      	adds	r7, #12
 800450a:	46bd      	mov	sp, r7
 800450c:	f85d 7b04 	ldr.w	r7, [sp], #4
 8004510:	4770      	bx	lr
	...

08004514 <HAL_I2C_Init>:
  * @param  hi2c Pointer to a I2C_HandleTypeDef structure that contains
  *                the configuration information for the specified I2C.
  * @retval HAL status
  */
HAL_StatusTypeDef HAL_I2C_Init(I2C_HandleTypeDef *hi2c)
{
 8004514:	b580      	push	{r7, lr}
 8004516:	b084      	sub	sp, #16
 8004518:	af00      	add	r7, sp, #0
 800451a:	6078      	str	r0, [r7, #4]
  uint32_t freqrange;
  uint32_t pclk1;

  /* Check the I2C handle allocation */
  if (hi2c == NULL)
 800451c:	687b      	ldr	r3, [r7, #4]
 800451e:	2b00      	cmp	r3, #0
 8004520:	d101      	bne.n	8004526 <HAL_I2C_Init+0x12>
  {
    return HAL_ERROR;
 8004522:	2301      	movs	r3, #1
 8004524:	e12b      	b.n	800477e <HAL_I2C_Init+0x26a>
  assert_param(IS_I2C_DUAL_ADDRESS(hi2c->Init.DualAddressMode));
  assert_param(IS_I2C_OWN_ADDRESS2(hi2c->Init.OwnAddress2));
  assert_param(IS_I2C_GENERAL_CALL(hi2c->Init.GeneralCallMode));
  assert_param(IS_I2C_NO_STRETCH(hi2c->Init.NoStretchMode));

  if (hi2c->State == HAL_I2C_STATE_RESET)
 8004526:	687b      	ldr	r3, [r7, #4]
 8004528:	f893 303d 	ldrb.w	r3, [r3, #61]	@ 0x3d
 800452c:	b2db      	uxtb	r3, r3
 800452e:	2b00      	cmp	r3, #0
 8004530:	d106      	bne.n	8004540 <HAL_I2C_Init+0x2c>
  {
    /* Allocate lock resource and initialize it */
    hi2c->Lock = HAL_UNLOCKED;
 8004532:	687b      	ldr	r3, [r7, #4]
 8004534:	2200      	movs	r2, #0
 8004536:	f883 203c 	strb.w	r2, [r3, #60]	@ 0x3c

    /* Init the low level hardware : GPIO, CLOCK, NVIC */
    hi2c->MspInitCallback(hi2c);
#else
    /* Init the low level hardware : GPIO, CLOCK, NVIC */
    HAL_I2C_MspInit(hi2c);
 800453a:	6878      	ldr	r0, [r7, #4]
 800453c:	f7fd ff7c 	bl	8002438 <HAL_I2C_MspInit>
#endif /* USE_HAL_I2C_REGISTER_CALLBACKS */
  }

  hi2c->State = HAL_I2C_STATE_BUSY;
 8004540:	687b      	ldr	r3, [r7, #4]
 8004542:	2224      	movs	r2, #36	@ 0x24
 8004544:	f883 203d 	strb.w	r2, [r3, #61]	@ 0x3d

  /* Disable the selected I2C peripheral */
  __HAL_I2C_DISABLE(hi2c);
 8004548:	687b      	ldr	r3, [r7, #4]
 800454a:	681b      	ldr	r3, [r3, #0]
 800454c:	681a      	ldr	r2, [r3, #0]
 800454e:	687b      	ldr	r3, [r7, #4]
 8004550:	681b      	ldr	r3, [r3, #0]
 8004552:	f022 0201 	bic.w	r2, r2, #1
 8004556:	601a      	str	r2, [r3, #0]

  /*Reset I2C*/
  hi2c->Instance->CR1 |= I2C_CR1_SWRST;
 8004558:	687b      	ldr	r3, [r7, #4]
 800455a:	681b      	ldr	r3, [r3, #0]
 800455c:	681a      	ldr	r2, [r3, #0]
 800455e:	687b      	ldr	r3, [r7, #4]
 8004560:	681b      	ldr	r3, [r3, #0]
 8004562:	f442 4200 	orr.w	r2, r2, #32768	@ 0x8000
 8004566:	601a      	str	r2, [r3, #0]
  hi2c->Instance->CR1 &= ~I2C_CR1_SWRST;
 8004568:	687b      	ldr	r3, [r7, #4]
 800456a:	681b      	ldr	r3, [r3, #0]
 800456c:	681a      	ldr	r2, [r3, #0]
 800456e:	687b      	ldr	r3, [r7, #4]
 8004570:	681b      	ldr	r3, [r3, #0]
 8004572:	f422 4200 	bic.w	r2, r2, #32768	@ 0x8000
 8004576:	601a      	str	r2, [r3, #0]

  /* Get PCLK1 frequency */
  pclk1 = HAL_RCC_GetPCLK1Freq();
 8004578:	f000 fa52 	bl	8004a20 <HAL_RCC_GetPCLK1Freq>
 800457c:	60f8      	str	r0, [r7, #12]

  /* Check the minimum allowed PCLK1 frequency */
  if (I2C_MIN_PCLK_FREQ(pclk1, hi2c->Init.ClockSpeed) == 1U)
 800457e:	687b      	ldr	r3, [r7, #4]
 8004580:	685b      	ldr	r3, [r3, #4]
 8004582:	4a81      	ldr	r2, [pc, #516]	@ (8004788 <HAL_I2C_Init+0x274>)
 8004584:	4293      	cmp	r3, r2
 8004586:	d807      	bhi.n	8004598 <HAL_I2C_Init+0x84>
 8004588:	68fb      	ldr	r3, [r7, #12]
 800458a:	4a80      	ldr	r2, [pc, #512]	@ (800478c <HAL_I2C_Init+0x278>)
 800458c:	4293      	cmp	r3, r2
 800458e:	bf94      	ite	ls
 8004590:	2301      	movls	r3, #1
 8004592:	2300      	movhi	r3, #0
 8004594:	b2db      	uxtb	r3, r3
 8004596:	e006      	b.n	80045a6 <HAL_I2C_Init+0x92>
 8004598:	68fb      	ldr	r3, [r7, #12]
 800459a:	4a7d      	ldr	r2, [pc, #500]	@ (8004790 <HAL_I2C_Init+0x27c>)
 800459c:	4293      	cmp	r3, r2
 800459e:	bf94      	ite	ls
 80045a0:	2301      	movls	r3, #1
 80045a2:	2300      	movhi	r3, #0
 80045a4:	b2db      	uxtb	r3, r3
 80045a6:	2b00      	cmp	r3, #0
 80045a8:	d001      	beq.n	80045ae <HAL_I2C_Init+0x9a>
  {
    return HAL_ERROR;
 80045aa:	2301      	movs	r3, #1
 80045ac:	e0e7      	b.n	800477e <HAL_I2C_Init+0x26a>
  }

  /* Calculate frequency range */
  freqrange = I2C_FREQRANGE(pclk1);
 80045ae:	68fb      	ldr	r3, [r7, #12]
 80045b0:	4a78      	ldr	r2, [pc, #480]	@ (8004794 <HAL_I2C_Init+0x280>)
 80045b2:	fba2 2303 	umull	r2, r3, r2, r3
 80045b6:	0c9b      	lsrs	r3, r3, #18
 80045b8:	60bb      	str	r3, [r7, #8]

  /*---------------------------- I2Cx CR2 Configuration ----------------------*/
  /* Configure I2Cx: Frequency range */
  MODIFY_REG(hi2c->Instance->CR2, I2C_CR2_FREQ, freqrange);
 80045ba:	687b      	ldr	r3, [r7, #4]
 80045bc:	681b      	ldr	r3, [r3, #0]
 80045be:	685b      	ldr	r3, [r3, #4]
 80045c0:	f023 013f 	bic.w	r1, r3, #63	@ 0x3f
 80045c4:	687b      	ldr	r3, [r7, #4]
 80045c6:	681b      	ldr	r3, [r3, #0]
 80045c8:	68ba      	ldr	r2, [r7, #8]
 80045ca:	430a      	orrs	r2, r1
 80045cc:	605a      	str	r2, [r3, #4]

  /*---------------------------- I2Cx TRISE Configuration --------------------*/
  /* Configure I2Cx: Rise Time */
  MODIFY_REG(hi2c->Instance->TRISE, I2C_TRISE_TRISE, I2C_RISE_TIME(freqrange, hi2c->Init.ClockSpeed));
 80045ce:	687b      	ldr	r3, [r7, #4]
 80045d0:	681b      	ldr	r3, [r3, #0]
 80045d2:	6a1b      	ldr	r3, [r3, #32]
 80045d4:	f023 013f 	bic.w	r1, r3, #63	@ 0x3f
 80045d8:	687b      	ldr	r3, [r7, #4]
 80045da:	685b      	ldr	r3, [r3, #4]
 80045dc:	4a6a      	ldr	r2, [pc, #424]	@ (8004788 <HAL_I2C_Init+0x274>)
 80045de:	4293      	cmp	r3, r2
 80045e0:	d802      	bhi.n	80045e8 <HAL_I2C_Init+0xd4>
 80045e2:	68bb      	ldr	r3, [r7, #8]
 80045e4:	3301      	adds	r3, #1
 80045e6:	e009      	b.n	80045fc <HAL_I2C_Init+0xe8>
 80045e8:	68bb      	ldr	r3, [r7, #8]
 80045ea:	f44f 7296 	mov.w	r2, #300	@ 0x12c
 80045ee:	fb02 f303 	mul.w	r3, r2, r3
 80045f2:	4a69      	ldr	r2, [pc, #420]	@ (8004798 <HAL_I2C_Init+0x284>)
 80045f4:	fba2 2303 	umull	r2, r3, r2, r3
 80045f8:	099b      	lsrs	r3, r3, #6
 80045fa:	3301      	adds	r3, #1
 80045fc:	687a      	ldr	r2, [r7, #4]
 80045fe:	6812      	ldr	r2, [r2, #0]
 8004600:	430b      	orrs	r3, r1
 8004602:	6213      	str	r3, [r2, #32]

  /*---------------------------- I2Cx CCR Configuration ----------------------*/
  /* Configure I2Cx: Speed */
  MODIFY_REG(hi2c->Instance->CCR, (I2C_CCR_FS | I2C_CCR_DUTY | I2C_CCR_CCR), I2C_SPEED(pclk1, hi2c->Init.ClockSpeed, hi2c->Init.DutyCycle));
 8004604:	687b      	ldr	r3, [r7, #4]
 8004606:	681b      	ldr	r3, [r3, #0]
 8004608:	69db      	ldr	r3, [r3, #28]
 800460a:	f423 424f 	bic.w	r2, r3, #52992	@ 0xcf00
 800460e:	f022 02ff 	bic.w	r2, r2, #255	@ 0xff
 8004612:	687b      	ldr	r3, [r7, #4]
 8004614:	685b      	ldr	r3, [r3, #4]
 8004616:	495c      	ldr	r1, [pc, #368]	@ (8004788 <HAL_I2C_Init+0x274>)
 8004618:	428b      	cmp	r3, r1
 800461a:	d819      	bhi.n	8004650 <HAL_I2C_Init+0x13c>
 800461c:	68fb      	ldr	r3, [r7, #12]
 800461e:	1e59      	subs	r1, r3, #1
 8004620:	687b      	ldr	r3, [r7, #4]
 8004622:	685b      	ldr	r3, [r3, #4]
 8004624:	005b      	lsls	r3, r3, #1
 8004626:	fbb1 f3f3 	udiv	r3, r1, r3
 800462a:	1c59      	adds	r1, r3, #1
 800462c:	f640 73fc 	movw	r3, #4092	@ 0xffc
 8004630:	400b      	ands	r3, r1
 8004632:	2b00      	cmp	r3, #0
 8004634:	d00a      	beq.n	800464c <HAL_I2C_Init+0x138>
 8004636:	68fb      	ldr	r3, [r7, #12]
 8004638:	1e59      	subs	r1, r3, #1
 800463a:	687b      	ldr	r3, [r7, #4]
 800463c:	685b      	ldr	r3, [r3, #4]
 800463e:	005b      	lsls	r3, r3, #1
 8004640:	fbb1 f3f3 	udiv	r3, r1, r3
 8004644:	3301      	adds	r3, #1
 8004646:	f3c3 030b 	ubfx	r3, r3, #0, #12
 800464a:	e051      	b.n	80046f0 <HAL_I2C_Init+0x1dc>
 800464c:	2304      	movs	r3, #4
 800464e:	e04f      	b.n	80046f0 <HAL_I2C_Init+0x1dc>
 8004650:	687b      	ldr	r3, [r7, #4]
 8004652:	689b      	ldr	r3, [r3, #8]
 8004654:	2b00      	cmp	r3, #0
 8004656:	d111      	bne.n	800467c <HAL_I2C_Init+0x168>
 8004658:	68fb      	ldr	r3, [r7, #12]
 800465a:	1e58      	subs	r0, r3, #1
 800465c:	687b      	ldr	r3, [r7, #4]
 800465e:	6859      	ldr	r1, [r3, #4]
 8004660:	460b      	mov	r3, r1
 8004662:	005b      	lsls	r3, r3, #1
 8004664:	440b      	add	r3, r1
 8004666:	fbb0 f3f3 	udiv	r3, r0, r3
 800466a:	3301      	adds	r3, #1
 800466c:	f3c3 030b 	ubfx	r3, r3, #0, #12
 8004670:	2b00      	cmp	r3, #0
 8004672:	bf0c      	ite	eq
 8004674:	2301      	moveq	r3, #1
 8004676:	2300      	movne	r3, #0
 8004678:	b2db      	uxtb	r3, r3
 800467a:	e012      	b.n	80046a2 <HAL_I2C_Init+0x18e>
 800467c:	68fb      	ldr	r3, [r7, #12]
 800467e:	1e58      	subs	r0, r3, #1
 8004680:	687b      	ldr	r3, [r7, #4]
 8004682:	6859      	ldr	r1, [r3, #4]
 8004684:	460b      	mov	r3, r1
 8004686:	009b      	lsls	r3, r3, #2
 8004688:	440b      	add	r3, r1
 800468a:	0099      	lsls	r1, r3, #2
 800468c:	440b      	add	r3, r1
 800468e:	fbb0 f3f3 	udiv	r3, r0, r3
 8004692:	3301      	adds	r3, #1
 8004694:	f3c3 030b 	ubfx	r3, r3, #0, #12
 8004698:	2b00      	cmp	r3, #0
 800469a:	bf0c      	ite	eq
 800469c:	2301      	moveq	r3, #1
 800469e:	2300      	movne	r3, #0
 80046a0:	b2db      	uxtb	r3, r3
 80046a2:	2b00      	cmp	r3, #0
 80046a4:	d001      	beq.n	80046aa <HAL_I2C_Init+0x196>
 80046a6:	2301      	movs	r3, #1
 80046a8:	e022      	b.n	80046f0 <HAL_I2C_Init+0x1dc>
 80046aa:	687b      	ldr	r3, [r7, #4]
 80046ac:	689b      	ldr	r3, [r3, #8]
 80046ae:	2b00      	cmp	r3, #0
 80046b0:	d10e      	bne.n	80046d0 <HAL_I2C_Init+0x1bc>
 80046b2:	68fb      	ldr	r3, [r7, #12]
 80046b4:	1e58      	subs	r0, r3, #1
 80046b6:	687b      	ldr	r3, [r7, #4]
 80046b8:	6859      	ldr	r1, [r3, #4]
 80046ba:	460b      	mov	r3, r1
 80046bc:	005b      	lsls	r3, r3, #1
 80046be:	440b      	add	r3, r1
 80046c0:	fbb0 f3f3 	udiv	r3, r0, r3
 80046c4:	3301      	adds	r3, #1
 80046c6:	f3c3 030b 	ubfx	r3, r3, #0, #12
 80046ca:	f443 4300 	orr.w	r3, r3, #32768	@ 0x8000
 80046ce:	e00f      	b.n	80046f0 <HAL_I2C_Init+0x1dc>
 80046d0:	68fb      	ldr	r3, [r7, #12]
 80046d2:	1e58      	subs	r0, r3, #1
 80046d4:	687b      	ldr	r3, [r7, #4]
 80046d6:	6859      	ldr	r1, [r3, #4]
 80046d8:	460b      	mov	r3, r1
 80046da:	009b      	lsls	r3, r3, #2
 80046dc:	440b      	add	r3, r1
 80046de:	0099      	lsls	r1, r3, #2
 80046e0:	440b      	add	r3, r1
 80046e2:	fbb0 f3f3 	udiv	r3, r0, r3
 80046e6:	3301      	adds	r3, #1
 80046e8:	f3c3 030b 	ubfx	r3, r3, #0, #12
 80046ec:	f443 4340 	orr.w	r3, r3, #49152	@ 0xc000
 80046f0:	6879      	ldr	r1, [r7, #4]
 80046f2:	6809      	ldr	r1, [r1, #0]
 80046f4:	4313      	orrs	r3, r2
 80046f6:	61cb      	str	r3, [r1, #28]

  /*---------------------------- I2Cx CR1 Configuration ----------------------*/
  /* Configure I2Cx: Generalcall and NoStretch mode */
  MODIFY_REG(hi2c->Instance->CR1, (I2C_CR1_ENGC | I2C_CR1_NOSTRETCH), (hi2c->Init.GeneralCallMode | hi2c->Init.NoStretchMode));
 80046f8:	687b      	ldr	r3, [r7, #4]
 80046fa:	681b      	ldr	r3, [r3, #0]
 80046fc:	681b      	ldr	r3, [r3, #0]
 80046fe:	f023 01c0 	bic.w	r1, r3, #192	@ 0xc0
 8004702:	687b      	ldr	r3, [r7, #4]
 8004704:	69da      	ldr	r2, [r3, #28]
 8004706:	687b      	ldr	r3, [r7, #4]
 8004708:	6a1b      	ldr	r3, [r3, #32]
 800470a:	431a      	orrs	r2, r3
 800470c:	687b      	ldr	r3, [r7, #4]
 800470e:	681b      	ldr	r3, [r3, #0]
 8004710:	430a      	orrs	r2, r1
 8004712:	601a      	str	r2, [r3, #0]

  /*---------------------------- I2Cx OAR1 Configuration ---------------------*/
  /* Configure I2Cx: Own Address1 and addressing mode */
  MODIFY_REG(hi2c->Instance->OAR1, (I2C_OAR1_ADDMODE | I2C_OAR1_ADD8_9 | I2C_OAR1_ADD1_7 | I2C_OAR1_ADD0), (hi2c->Init.AddressingMode | hi2c->Init.OwnAddress1));
 8004714:	687b      	ldr	r3, [r7, #4]
 8004716:	681b      	ldr	r3, [r3, #0]
 8004718:	689b      	ldr	r3, [r3, #8]
 800471a:	f423 4303 	bic.w	r3, r3, #33536	@ 0x8300
 800471e:	f023 03ff 	bic.w	r3, r3, #255	@ 0xff
 8004722:	687a      	ldr	r2, [r7, #4]
 8004724:	6911      	ldr	r1, [r2, #16]
 8004726:	687a      	ldr	r2, [r7, #4]
 8004728:	68d2      	ldr	r2, [r2, #12]
 800472a:	4311      	orrs	r1, r2
 800472c:	687a      	ldr	r2, [r7, #4]
 800472e:	6812      	ldr	r2, [r2, #0]
 8004730:	430b      	orrs	r3, r1
 8004732:	6093      	str	r3, [r2, #8]

  /*---------------------------- I2Cx OAR2 Configuration ---------------------*/
  /* Configure I2Cx: Dual mode and Own Address2 */
  MODIFY_REG(hi2c->Instance->OAR2, (I2C_OAR2_ENDUAL | I2C_OAR2_ADD2), (hi2c->Init.DualAddressMode | hi2c->Init.OwnAddress2));
 8004734:	687b      	ldr	r3, [r7, #4]
 8004736:	681b      	ldr	r3, [r3, #0]
 8004738:	68db      	ldr	r3, [r3, #12]
 800473a:	f023 01ff 	bic.w	r1, r3, #255	@ 0xff
 800473e:	687b      	ldr	r3, [r7, #4]
 8004740:	695a      	ldr	r2, [r3, #20]
 8004742:	687b      	ldr	r3, [r7, #4]
 8004744:	699b      	ldr	r3, [r3, #24]
 8004746:	431a      	orrs	r2, r3
 8004748:	687b      	ldr	r3, [r7, #4]
 800474a:	681b      	ldr	r3, [r3, #0]
 800474c:	430a      	orrs	r2, r1
 800474e:	60da      	str	r2, [r3, #12]

  /* Enable the selected I2C peripheral */
  __HAL_I2C_ENABLE(hi2c);
 8004750:	687b      	ldr	r3, [r7, #4]
 8004752:	681b      	ldr	r3, [r3, #0]
 8004754:	681a      	ldr	r2, [r3, #0]
 8004756:	687b      	ldr	r3, [r7, #4]
 8004758:	681b      	ldr	r3, [r3, #0]
 800475a:	f042 0201 	orr.w	r2, r2, #1
 800475e:	601a      	str	r2, [r3, #0]

  hi2c->ErrorCode = HAL_I2C_ERROR_NONE;
 8004760:	687b      	ldr	r3, [r7, #4]
 8004762:	2200      	movs	r2, #0
 8004764:	641a      	str	r2, [r3, #64]	@ 0x40
  hi2c->State = HAL_I2C_STATE_READY;
 8004766:	687b      	ldr	r3, [r7, #4]
 8004768:	2220      	movs	r2, #32
 800476a:	f883 203d 	strb.w	r2, [r3, #61]	@ 0x3d
  hi2c->PreviousState = I2C_STATE_NONE;
 800476e:	687b      	ldr	r3, [r7, #4]
 8004770:	2200      	movs	r2, #0
 8004772:	631a      	str	r2, [r3, #48]	@ 0x30
  hi2c->Mode = HAL_I2C_MODE_NONE;
 8004774:	687b      	ldr	r3, [r7, #4]
 8004776:	2200      	movs	r2, #0
 8004778:	f883 203e 	strb.w	r2, [r3, #62]	@ 0x3e

  return HAL_OK;
 800477c:	2300      	movs	r3, #0
}
 800477e:	4618      	mov	r0, r3
 8004780:	3710      	adds	r7, #16
 8004782:	46bd      	mov	sp, r7
 8004784:	bd80      	pop	{r7, pc}
 8004786:	bf00      	nop
 8004788:	000186a0 	.word	0x000186a0
 800478c:	001e847f 	.word	0x001e847f
 8004790:	003d08ff 	.word	0x003d08ff
 8004794:	431bde83 	.word	0x431bde83
 8004798:	10624dd3 	.word	0x10624dd3

0800479c <HAL_PWREx_EnableOverDrive>:
  *         During the Over-drive switch activation, no peripheral clocks should be enabled.   
  *         The peripheral clocks must be enabled once the Over-drive mode is activated.   
  * @retval HAL status
  */
HAL_StatusTypeDef HAL_PWREx_EnableOverDrive(void)
{
 800479c:	b580      	push	{r7, lr}
 800479e:	b082      	sub	sp, #8
 80047a0:	af00      	add	r7, sp, #0
  uint32_t tickstart = 0U;
 80047a2:	2300      	movs	r3, #0
 80047a4:	607b      	str	r3, [r7, #4]

  __HAL_RCC_PWR_CLK_ENABLE();
 80047a6:	2300      	movs	r3, #0
 80047a8:	603b      	str	r3, [r7, #0]
 80047aa:	4b20      	ldr	r3, [pc, #128]	@ (800482c <HAL_PWREx_EnableOverDrive+0x90>)
 80047ac:	6c1b      	ldr	r3, [r3, #64]	@ 0x40
 80047ae:	4a1f      	ldr	r2, [pc, #124]	@ (800482c <HAL_PWREx_EnableOverDrive+0x90>)
 80047b0:	f043 5380 	orr.w	r3, r3, #268435456	@ 0x10000000
 80047b4:	6413      	str	r3, [r2, #64]	@ 0x40
 80047b6:	4b1d      	ldr	r3, [pc, #116]	@ (800482c <HAL_PWREx_EnableOverDrive+0x90>)
 80047b8:	6c1b      	ldr	r3, [r3, #64]	@ 0x40
 80047ba:	f003 5380 	and.w	r3, r3, #268435456	@ 0x10000000
 80047be:	603b      	str	r3, [r7, #0]
 80047c0:	683b      	ldr	r3, [r7, #0]
  
  /* Enable the Over-drive to extend the clock frequency to 180 Mhz */
  __HAL_PWR_OVERDRIVE_ENABLE();
 80047c2:	4b1b      	ldr	r3, [pc, #108]	@ (8004830 <HAL_PWREx_EnableOverDrive+0x94>)
 80047c4:	2201      	movs	r2, #1
 80047c6:	601a      	str	r2, [r3, #0]

  /* Get tick */
  tickstart = HAL_GetTick();
 80047c8:	f7fe f872 	bl	80028b0 <HAL_GetTick>
 80047cc:	6078      	str	r0, [r7, #4]

  while(!__HAL_PWR_GET_FLAG(PWR_FLAG_ODRDY))
 80047ce:	e009      	b.n	80047e4 <HAL_PWREx_EnableOverDrive+0x48>
  {
    if((HAL_GetTick() - tickstart) > PWR_OVERDRIVE_TIMEOUT_VALUE)
 80047d0:	f7fe f86e 	bl	80028b0 <HAL_GetTick>
 80047d4:	4602      	mov	r2, r0
 80047d6:	687b      	ldr	r3, [r7, #4]
 80047d8:	1ad3      	subs	r3, r2, r3
 80047da:	f5b3 7f7a 	cmp.w	r3, #1000	@ 0x3e8
 80047de:	d901      	bls.n	80047e4 <HAL_PWREx_EnableOverDrive+0x48>
    {
      return HAL_TIMEOUT;
 80047e0:	2303      	movs	r3, #3
 80047e2:	e01f      	b.n	8004824 <HAL_PWREx_EnableOverDrive+0x88>
  while(!__HAL_PWR_GET_FLAG(PWR_FLAG_ODRDY))
 80047e4:	4b13      	ldr	r3, [pc, #76]	@ (8004834 <HAL_PWREx_EnableOverDrive+0x98>)
 80047e6:	685b      	ldr	r3, [r3, #4]
 80047e8:	f403 3380 	and.w	r3, r3, #65536	@ 0x10000
 80047ec:	f5b3 3f80 	cmp.w	r3, #65536	@ 0x10000
 80047f0:	d1ee      	bne.n	80047d0 <HAL_PWREx_EnableOverDrive+0x34>
    }
  }
  
  /* Enable the Over-drive switch */
  __HAL_PWR_OVERDRIVESWITCHING_ENABLE();
 80047f2:	4b11      	ldr	r3, [pc, #68]	@ (8004838 <HAL_PWREx_EnableOverDrive+0x9c>)
 80047f4:	2201      	movs	r2, #1
 80047f6:	601a      	str	r2, [r3, #0]

  /* Get tick */
  tickstart = HAL_GetTick();
 80047f8:	f7fe f85a 	bl	80028b0 <HAL_GetTick>
 80047fc:	6078      	str	r0, [r7, #4]

  while(!__HAL_PWR_GET_FLAG(PWR_FLAG_ODSWRDY))
 80047fe:	e009      	b.n	8004814 <HAL_PWREx_EnableOverDrive+0x78>
  {
    if((HAL_GetTick() - tickstart ) > PWR_OVERDRIVE_TIMEOUT_VALUE)
 8004800:	f7fe f856 	bl	80028b0 <HAL_GetTick>
 8004804:	4602      	mov	r2, r0
 8004806:	687b      	ldr	r3, [r7, #4]
 8004808:	1ad3      	subs	r3, r2, r3
 800480a:	f5b3 7f7a 	cmp.w	r3, #1000	@ 0x3e8
 800480e:	d901      	bls.n	8004814 <HAL_PWREx_EnableOverDrive+0x78>
    {
      return HAL_TIMEOUT;
 8004810:	2303      	movs	r3, #3
 8004812:	e007      	b.n	8004824 <HAL_PWREx_EnableOverDrive+0x88>
  while(!__HAL_PWR_GET_FLAG(PWR_FLAG_ODSWRDY))
 8004814:	4b07      	ldr	r3, [pc, #28]	@ (8004834 <HAL_PWREx_EnableOverDrive+0x98>)
 8004816:	685b      	ldr	r3, [r3, #4]
 8004818:	f403 3300 	and.w	r3, r3, #131072	@ 0x20000
 800481c:	f5b3 3f00 	cmp.w	r3, #131072	@ 0x20000
 8004820:	d1ee      	bne.n	8004800 <HAL_PWREx_EnableOverDrive+0x64>
    }
  } 
  return HAL_OK;
 8004822:	2300      	movs	r3, #0
}
 8004824:	4618      	mov	r0, r3
 8004826:	3708      	adds	r7, #8
 8004828:	46bd      	mov	sp, r7
 800482a:	bd80      	pop	{r7, pc}
 800482c:	40023800 	.word	0x40023800
 8004830:	420e0040 	.word	0x420e0040
 8004834:	40007000 	.word	0x40007000
 8004838:	420e0044 	.word	0x420e0044

0800483c <HAL_RCC_ClockConfig>:
  *         HPRE[3:0] bits to ensure that HCLK not exceed the maximum allowed frequency
  *         (for more details refer to section above "Initialization/de-initialization functions")
  * @retval None
  */
HAL_StatusTypeDef HAL_RCC_ClockConfig(RCC_ClkInitTypeDef  *RCC_ClkInitStruct, uint32_t FLatency)
{
 800483c:	b580      	push	{r7, lr}
 800483e:	b084      	sub	sp, #16
 8004840:	af00      	add	r7, sp, #0
 8004842:	6078      	str	r0, [r7, #4]
 8004844:	6039      	str	r1, [r7, #0]
  uint32_t tickstart;

  /* Check Null pointer */
  if (RCC_ClkInitStruct == NULL)
 8004846:	687b      	ldr	r3, [r7, #4]
 8004848:	2b00      	cmp	r3, #0
 800484a:	d101      	bne.n	8004850 <HAL_RCC_ClockConfig+0x14>
  {
    return HAL_ERROR;
 800484c:	2301      	movs	r3, #1
 800484e:	e0cc      	b.n	80049ea <HAL_RCC_ClockConfig+0x1ae>
  /* To correctly read data from FLASH memory, the number of wait states (LATENCY)
    must be correctly programmed according to the frequency of the CPU clock
    (HCLK) and the supply voltage of the device. */

  /* Increasing the number of wait states because of higher CPU frequency */
  if (FLatency > __HAL_FLASH_GET_LATENCY())
 8004850:	4b68      	ldr	r3, [pc, #416]	@ (80049f4 <HAL_RCC_ClockConfig+0x1b8>)
 8004852:	681b      	ldr	r3, [r3, #0]
 8004854:	f003 030f 	and.w	r3, r3, #15
 8004858:	683a      	ldr	r2, [r7, #0]
 800485a:	429a      	cmp	r2, r3
 800485c:	d90c      	bls.n	8004878 <HAL_RCC_ClockConfig+0x3c>
  {
    /* Program the new number of wait states to the LATENCY bits in the FLASH_ACR register */
    __HAL_FLASH_SET_LATENCY(FLatency);
 800485e:	4b65      	ldr	r3, [pc, #404]	@ (80049f4 <HAL_RCC_ClockConfig+0x1b8>)
 8004860:	683a      	ldr	r2, [r7, #0]
 8004862:	b2d2      	uxtb	r2, r2
 8004864:	701a      	strb	r2, [r3, #0]

    /* Check that the new number of wait states is taken into account to access the Flash
    memory by reading the FLASH_ACR register */
    if (__HAL_FLASH_GET_LATENCY() != FLatency)
 8004866:	4b63      	ldr	r3, [pc, #396]	@ (80049f4 <HAL_RCC_ClockConfig+0x1b8>)
 8004868:	681b      	ldr	r3, [r3, #0]
 800486a:	f003 030f 	and.w	r3, r3, #15
 800486e:	683a      	ldr	r2, [r7, #0]
 8004870:	429a      	cmp	r2, r3
 8004872:	d001      	beq.n	8004878 <HAL_RCC_ClockConfig+0x3c>
    {
      return HAL_ERROR;
 8004874:	2301      	movs	r3, #1
 8004876:	e0b8      	b.n	80049ea <HAL_RCC_ClockConfig+0x1ae>
    }
  }

  /*-------------------------- HCLK Configuration --------------------------*/
  if (((RCC_ClkInitStruct->ClockType) & RCC_CLOCKTYPE_HCLK) == RCC_CLOCKTYPE_HCLK)
 8004878:	687b      	ldr	r3, [r7, #4]
 800487a:	681b      	ldr	r3, [r3, #0]
 800487c:	f003 0302 	and.w	r3, r3, #2
 8004880:	2b00      	cmp	r3, #0
 8004882:	d020      	beq.n	80048c6 <HAL_RCC_ClockConfig+0x8a>
  {
    /* Set the highest APBx dividers in order to ensure that we do not go through
       a non-spec phase whatever we decrease or increase HCLK. */
    if (((RCC_ClkInitStruct->ClockType) & RCC_CLOCKTYPE_PCLK1) == RCC_CLOCKTYPE_PCLK1)
 8004884:	687b      	ldr	r3, [r7, #4]
 8004886:	681b      	ldr	r3, [r3, #0]
 8004888:	f003 0304 	and.w	r3, r3, #4
 800488c:	2b00      	cmp	r3, #0
 800488e:	d005      	beq.n	800489c <HAL_RCC_ClockConfig+0x60>
    {
      MODIFY_REG(RCC->CFGR, RCC_CFGR_PPRE1, RCC_HCLK_DIV16);
 8004890:	4b59      	ldr	r3, [pc, #356]	@ (80049f8 <HAL_RCC_ClockConfig+0x1bc>)
 8004892:	689b      	ldr	r3, [r3, #8]
 8004894:	4a58      	ldr	r2, [pc, #352]	@ (80049f8 <HAL_RCC_ClockConfig+0x1bc>)
 8004896:	f443 53e0 	orr.w	r3, r3, #7168	@ 0x1c00
 800489a:	6093      	str	r3, [r2, #8]
    }

    if (((RCC_ClkInitStruct->ClockType) & RCC_CLOCKTYPE_PCLK2) == RCC_CLOCKTYPE_PCLK2)
 800489c:	687b      	ldr	r3, [r7, #4]
 800489e:	681b      	ldr	r3, [r3, #0]
 80048a0:	f003 0308 	and.w	r3, r3, #8
 80048a4:	2b00      	cmp	r3, #0
 80048a6:	d005      	beq.n	80048b4 <HAL_RCC_ClockConfig+0x78>
    {
      MODIFY_REG(RCC->CFGR, RCC_CFGR_PPRE2, (RCC_HCLK_DIV16 << 3));
 80048a8:	4b53      	ldr	r3, [pc, #332]	@ (80049f8 <HAL_RCC_ClockConfig+0x1bc>)
 80048aa:	689b      	ldr	r3, [r3, #8]
 80048ac:	4a52      	ldr	r2, [pc, #328]	@ (80049f8 <HAL_RCC_ClockConfig+0x1bc>)
 80048ae:	f443 4360 	orr.w	r3, r3, #57344	@ 0xe000
 80048b2:	6093      	str	r3, [r2, #8]
    }

    assert_param(IS_RCC_HCLK(RCC_ClkInitStruct->AHBCLKDivider));
    MODIFY_REG(RCC->CFGR, RCC_CFGR_HPRE, RCC_ClkInitStruct->AHBCLKDivider);
 80048b4:	4b50      	ldr	r3, [pc, #320]	@ (80049f8 <HAL_RCC_ClockConfig+0x1bc>)
 80048b6:	689b      	ldr	r3, [r3, #8]
 80048b8:	f023 02f0 	bic.w	r2, r3, #240	@ 0xf0
 80048bc:	687b      	ldr	r3, [r7, #4]
 80048be:	689b      	ldr	r3, [r3, #8]
 80048c0:	494d      	ldr	r1, [pc, #308]	@ (80049f8 <HAL_RCC_ClockConfig+0x1bc>)
 80048c2:	4313      	orrs	r3, r2
 80048c4:	608b      	str	r3, [r1, #8]
  }

  /*------------------------- SYSCLK Configuration ---------------------------*/
  if (((RCC_ClkInitStruct->ClockType) & RCC_CLOCKTYPE_SYSCLK) == RCC_CLOCKTYPE_SYSCLK)
 80048c6:	687b      	ldr	r3, [r7, #4]
 80048c8:	681b      	ldr	r3, [r3, #0]
 80048ca:	f003 0301 	and.w	r3, r3, #1
 80048ce:	2b00      	cmp	r3, #0
 80048d0:	d044      	beq.n	800495c <HAL_RCC_ClockConfig+0x120>
  {
    assert_param(IS_RCC_SYSCLKSOURCE(RCC_ClkInitStruct->SYSCLKSource));

    /* HSE is selected as System Clock Source */
    if (RCC_ClkInitStruct->SYSCLKSource == RCC_SYSCLKSOURCE_HSE)
 80048d2:	687b      	ldr	r3, [r7, #4]
 80048d4:	685b      	ldr	r3, [r3, #4]
 80048d6:	2b01      	cmp	r3, #1
 80048d8:	d107      	bne.n	80048ea <HAL_RCC_ClockConfig+0xae>
    {
      /* Check the HSE ready flag */
      if (__HAL_RCC_GET_FLAG(RCC_FLAG_HSERDY) == RESET)
 80048da:	4b47      	ldr	r3, [pc, #284]	@ (80049f8 <HAL_RCC_ClockConfig+0x1bc>)
 80048dc:	681b      	ldr	r3, [r3, #0]
 80048de:	f403 3300 	and.w	r3, r3, #131072	@ 0x20000
 80048e2:	2b00      	cmp	r3, #0
 80048e4:	d119      	bne.n	800491a <HAL_RCC_ClockConfig+0xde>
      {
        return HAL_ERROR;
 80048e6:	2301      	movs	r3, #1
 80048e8:	e07f      	b.n	80049ea <HAL_RCC_ClockConfig+0x1ae>
      }
    }
    /* PLL is selected as System Clock Source */
    else if ((RCC_ClkInitStruct->SYSCLKSource == RCC_SYSCLKSOURCE_PLLCLK)   ||
 80048ea:	687b      	ldr	r3, [r7, #4]
 80048ec:	685b      	ldr	r3, [r3, #4]
 80048ee:	2b02      	cmp	r3, #2
 80048f0:	d003      	beq.n	80048fa <HAL_RCC_ClockConfig+0xbe>
             (RCC_ClkInitStruct->SYSCLKSource == RCC_SYSCLKSOURCE_PLLRCLK))
 80048f2:	687b      	ldr	r3, [r7, #4]
 80048f4:	685b      	ldr	r3, [r3, #4]
    else if ((RCC_ClkInitStruct->SYSCLKSource == RCC_SYSCLKSOURCE_PLLCLK)   ||
 80048f6:	2b03      	cmp	r3, #3
 80048f8:	d107      	bne.n	800490a <HAL_RCC_ClockConfig+0xce>
    {
      /* Check the PLL ready flag */
      if (__HAL_RCC_GET_FLAG(RCC_FLAG_PLLRDY) == RESET)
 80048fa:	4b3f      	ldr	r3, [pc, #252]	@ (80049f8 <HAL_RCC_ClockConfig+0x1bc>)
 80048fc:	681b      	ldr	r3, [r3, #0]
 80048fe:	f003 7300 	and.w	r3, r3, #33554432	@ 0x2000000
 8004902:	2b00      	cmp	r3, #0
 8004904:	d109      	bne.n	800491a <HAL_RCC_ClockConfig+0xde>
      {
        return HAL_ERROR;
 8004906:	2301      	movs	r3, #1
 8004908:	e06f      	b.n	80049ea <HAL_RCC_ClockConfig+0x1ae>
    }
    /* HSI is selected as System Clock Source */
    else
    {
      /* Check the HSI ready flag */
      if (__HAL_RCC_GET_FLAG(RCC_FLAG_HSIRDY) == RESET)
 800490a:	4b3b      	ldr	r3, [pc, #236]	@ (80049f8 <HAL_RCC_ClockConfig+0x1bc>)
 800490c:	681b      	ldr	r3, [r3, #0]
 800490e:	f003 0302 	and.w	r3, r3, #2
 8004912:	2b00      	cmp	r3, #0
 8004914:	d101      	bne.n	800491a <HAL_RCC_ClockConfig+0xde>
      {
        return HAL_ERROR;
 8004916:	2301      	movs	r3, #1
 8004918:	e067      	b.n	80049ea <HAL_RCC_ClockConfig+0x1ae>
      }
    }

    __HAL_RCC_SYSCLK_CONFIG(RCC_ClkInitStruct->SYSCLKSource);
 800491a:	4b37      	ldr	r3, [pc, #220]	@ (80049f8 <HAL_RCC_ClockConfig+0x1bc>)
 800491c:	689b      	ldr	r3, [r3, #8]
 800491e:	f023 0203 	bic.w	r2, r3, #3
 8004922:	687b      	ldr	r3, [r7, #4]
 8004924:	685b      	ldr	r3, [r3, #4]
 8004926:	4934      	ldr	r1, [pc, #208]	@ (80049f8 <HAL_RCC_ClockConfig+0x1bc>)
 8004928:	4313      	orrs	r3, r2
 800492a:	608b      	str	r3, [r1, #8]

    /* Get Start Tick */
    tickstart = HAL_GetTick();
 800492c:	f7fd ffc0 	bl	80028b0 <HAL_GetTick>
 8004930:	60f8      	str	r0, [r7, #12]

    while (__HAL_RCC_GET_SYSCLK_SOURCE() != (RCC_ClkInitStruct->SYSCLKSource << RCC_CFGR_SWS_Pos))
 8004932:	e00a      	b.n	800494a <HAL_RCC_ClockConfig+0x10e>
    {
      if ((HAL_GetTick() - tickstart) > CLOCKSWITCH_TIMEOUT_VALUE)
 8004934:	f7fd ffbc 	bl	80028b0 <HAL_GetTick>
 8004938:	4602      	mov	r2, r0
 800493a:	68fb      	ldr	r3, [r7, #12]
 800493c:	1ad3      	subs	r3, r2, r3
 800493e:	f241 3288 	movw	r2, #5000	@ 0x1388
 8004942:	4293      	cmp	r3, r2
 8004944:	d901      	bls.n	800494a <HAL_RCC_ClockConfig+0x10e>
      {
        return HAL_TIMEOUT;
 8004946:	2303      	movs	r3, #3
 8004948:	e04f      	b.n	80049ea <HAL_RCC_ClockConfig+0x1ae>
    while (__HAL_RCC_GET_SYSCLK_SOURCE() != (RCC_ClkInitStruct->SYSCLKSource << RCC_CFGR_SWS_Pos))
 800494a:	4b2b      	ldr	r3, [pc, #172]	@ (80049f8 <HAL_RCC_ClockConfig+0x1bc>)
 800494c:	689b      	ldr	r3, [r3, #8]
 800494e:	f003 020c 	and.w	r2, r3, #12
 8004952:	687b      	ldr	r3, [r7, #4]
 8004954:	685b      	ldr	r3, [r3, #4]
 8004956:	009b      	lsls	r3, r3, #2
 8004958:	429a      	cmp	r2, r3
 800495a:	d1eb      	bne.n	8004934 <HAL_RCC_ClockConfig+0xf8>
      }
    }
  }

  /* Decreasing the number of wait states because of lower CPU frequency */
  if (FLatency < __HAL_FLASH_GET_LATENCY())
 800495c:	4b25      	ldr	r3, [pc, #148]	@ (80049f4 <HAL_RCC_ClockConfig+0x1b8>)
 800495e:	681b      	ldr	r3, [r3, #0]
 8004960:	f003 030f 	and.w	r3, r3, #15
 8004964:	683a      	ldr	r2, [r7, #0]
 8004966:	429a      	cmp	r2, r3
 8004968:	d20c      	bcs.n	8004984 <HAL_RCC_ClockConfig+0x148>
  {
    /* Program the new number of wait states to the LATENCY bits in the FLASH_ACR register */
    __HAL_FLASH_SET_LATENCY(FLatency);
 800496a:	4b22      	ldr	r3, [pc, #136]	@ (80049f4 <HAL_RCC_ClockConfig+0x1b8>)
 800496c:	683a      	ldr	r2, [r7, #0]
 800496e:	b2d2      	uxtb	r2, r2
 8004970:	701a      	strb	r2, [r3, #0]

    /* Check that the new number of wait states is taken into account to access the Flash
    memory by reading the FLASH_ACR register */
    if (__HAL_FLASH_GET_LATENCY() != FLatency)
 8004972:	4b20      	ldr	r3, [pc, #128]	@ (80049f4 <HAL_RCC_ClockConfig+0x1b8>)
 8004974:	681b      	ldr	r3, [r3, #0]
 8004976:	f003 030f 	and.w	r3, r3, #15
 800497a:	683a      	ldr	r2, [r7, #0]
 800497c:	429a      	cmp	r2, r3
 800497e:	d001      	beq.n	8004984 <HAL_RCC_ClockConfig+0x148>
    {
      return HAL_ERROR;
 8004980:	2301      	movs	r3, #1
 8004982:	e032      	b.n	80049ea <HAL_RCC_ClockConfig+0x1ae>
    }
  }

  /*-------------------------- PCLK1 Configuration ---------------------------*/
  if (((RCC_ClkInitStruct->ClockType) & RCC_CLOCKTYPE_PCLK1) == RCC_CLOCKTYPE_PCLK1)
 8004984:	687b      	ldr	r3, [r7, #4]
 8004986:	681b      	ldr	r3, [r3, #0]
 8004988:	f003 0304 	and.w	r3, r3, #4
 800498c:	2b00      	cmp	r3, #0
 800498e:	d008      	beq.n	80049a2 <HAL_RCC_ClockConfig+0x166>
  {
    assert_param(IS_RCC_PCLK(RCC_ClkInitStruct->APB1CLKDivider));
    MODIFY_REG(RCC->CFGR, RCC_CFGR_PPRE1, RCC_ClkInitStruct->APB1CLKDivider);
 8004990:	4b19      	ldr	r3, [pc, #100]	@ (80049f8 <HAL_RCC_ClockConfig+0x1bc>)
 8004992:	689b      	ldr	r3, [r3, #8]
 8004994:	f423 52e0 	bic.w	r2, r3, #7168	@ 0x1c00
 8004998:	687b      	ldr	r3, [r7, #4]
 800499a:	68db      	ldr	r3, [r3, #12]
 800499c:	4916      	ldr	r1, [pc, #88]	@ (80049f8 <HAL_RCC_ClockConfig+0x1bc>)
 800499e:	4313      	orrs	r3, r2
 80049a0:	608b      	str	r3, [r1, #8]
  }

  /*-------------------------- PCLK2 Configuration ---------------------------*/
  if (((RCC_ClkInitStruct->ClockType) & RCC_CLOCKTYPE_PCLK2) == RCC_CLOCKTYPE_PCLK2)
 80049a2:	687b      	ldr	r3, [r7, #4]
 80049a4:	681b      	ldr	r3, [r3, #0]
 80049a6:	f003 0308 	and.w	r3, r3, #8
 80049aa:	2b00      	cmp	r3, #0
 80049ac:	d009      	beq.n	80049c2 <HAL_RCC_ClockConfig+0x186>
  {
    assert_param(IS_RCC_PCLK(RCC_ClkInitStruct->APB2CLKDivider));
    MODIFY_REG(RCC->CFGR, RCC_CFGR_PPRE2, ((RCC_ClkInitStruct->APB2CLKDivider) << 3U));
 80049ae:	4b12      	ldr	r3, [pc, #72]	@ (80049f8 <HAL_RCC_ClockConfig+0x1bc>)
 80049b0:	689b      	ldr	r3, [r3, #8]
 80049b2:	f423 4260 	bic.w	r2, r3, #57344	@ 0xe000
 80049b6:	687b      	ldr	r3, [r7, #4]
 80049b8:	691b      	ldr	r3, [r3, #16]
 80049ba:	00db      	lsls	r3, r3, #3
 80049bc:	490e      	ldr	r1, [pc, #56]	@ (80049f8 <HAL_RCC_ClockConfig+0x1bc>)
 80049be:	4313      	orrs	r3, r2
 80049c0:	608b      	str	r3, [r1, #8]
  }

  /* Update the SystemCoreClock global variable */
  SystemCoreClock = HAL_RCC_GetSysClockFreq() >> AHBPrescTable[(RCC->CFGR & RCC_CFGR_HPRE) >> RCC_CFGR_HPRE_Pos];
 80049c2:	f000 f855 	bl	8004a70 <HAL_RCC_GetSysClockFreq>
 80049c6:	4602      	mov	r2, r0
 80049c8:	4b0b      	ldr	r3, [pc, #44]	@ (80049f8 <HAL_RCC_ClockConfig+0x1bc>)
 80049ca:	689b      	ldr	r3, [r3, #8]
 80049cc:	091b      	lsrs	r3, r3, #4
 80049ce:	f003 030f 	and.w	r3, r3, #15
 80049d2:	490a      	ldr	r1, [pc, #40]	@ (80049fc <HAL_RCC_ClockConfig+0x1c0>)
 80049d4:	5ccb      	ldrb	r3, [r1, r3]
 80049d6:	fa22 f303 	lsr.w	r3, r2, r3
 80049da:	4a09      	ldr	r2, [pc, #36]	@ (8004a00 <HAL_RCC_ClockConfig+0x1c4>)
 80049dc:	6013      	str	r3, [r2, #0]

  /* Configure the source of time base considering new system clocks settings */
  HAL_InitTick(uwTickPrio);
 80049de:	4b09      	ldr	r3, [pc, #36]	@ (8004a04 <HAL_RCC_ClockConfig+0x1c8>)
 80049e0:	681b      	ldr	r3, [r3, #0]
 80049e2:	4618      	mov	r0, r3
 80049e4:	f7fd ff20 	bl	8002828 <HAL_InitTick>

  return HAL_OK;
 80049e8:	2300      	movs	r3, #0
}
 80049ea:	4618      	mov	r0, r3
 80049ec:	3710      	adds	r7, #16
 80049ee:	46bd      	mov	sp, r7
 80049f0:	bd80      	pop	{r7, pc}
 80049f2:	bf00      	nop
 80049f4:	40023c00 	.word	0x40023c00
 80049f8:	40023800 	.word	0x40023800
 80049fc:	080098f0 	.word	0x080098f0
 8004a00:	20000000 	.word	0x20000000
 8004a04:	20000004 	.word	0x20000004

08004a08 <HAL_RCC_GetHCLKFreq>:
  * @note   The SystemCoreClock CMSIS variable is used to store System Clock Frequency
  *         and updated within this function
  * @retval HCLK frequency
  */
uint32_t HAL_RCC_GetHCLKFreq(void)
{
 8004a08:	b480      	push	{r7}
 8004a0a:	af00      	add	r7, sp, #0
  return SystemCoreClock;
 8004a0c:	4b03      	ldr	r3, [pc, #12]	@ (8004a1c <HAL_RCC_GetHCLKFreq+0x14>)
 8004a0e:	681b      	ldr	r3, [r3, #0]
}
 8004a10:	4618      	mov	r0, r3
 8004a12:	46bd      	mov	sp, r7
 8004a14:	f85d 7b04 	ldr.w	r7, [sp], #4
 8004a18:	4770      	bx	lr
 8004a1a:	bf00      	nop
 8004a1c:	20000000 	.word	0x20000000

08004a20 <HAL_RCC_GetPCLK1Freq>:
  * @note   Each time PCLK1 changes, this function must be called to update the
  *         right PCLK1 value. Otherwise, any configuration based on this function will be incorrect.
  * @retval PCLK1 frequency
  */
uint32_t HAL_RCC_GetPCLK1Freq(void)
{
 8004a20:	b580      	push	{r7, lr}
 8004a22:	af00      	add	r7, sp, #0
  /* Get HCLK source and Compute PCLK1 frequency ---------------------------*/
  return (HAL_RCC_GetHCLKFreq() >> APBPrescTable[(RCC->CFGR & RCC_CFGR_PPRE1) >> RCC_CFGR_PPRE1_Pos]);
 8004a24:	f7ff fff0 	bl	8004a08 <HAL_RCC_GetHCLKFreq>
 8004a28:	4602      	mov	r2, r0
 8004a2a:	4b05      	ldr	r3, [pc, #20]	@ (8004a40 <HAL_RCC_GetPCLK1Freq+0x20>)
 8004a2c:	689b      	ldr	r3, [r3, #8]
 8004a2e:	0a9b      	lsrs	r3, r3, #10
 8004a30:	f003 0307 	and.w	r3, r3, #7
 8004a34:	4903      	ldr	r1, [pc, #12]	@ (8004a44 <HAL_RCC_GetPCLK1Freq+0x24>)
 8004a36:	5ccb      	ldrb	r3, [r1, r3]
 8004a38:	fa22 f303 	lsr.w	r3, r2, r3
}
 8004a3c:	4618      	mov	r0, r3
 8004a3e:	bd80      	pop	{r7, pc}
 8004a40:	40023800 	.word	0x40023800
 8004a44:	08009900 	.word	0x08009900

08004a48 <HAL_RCC_GetPCLK2Freq>:
  * @note   Each time PCLK2 changes, this function must be called to update the
  *         right PCLK2 value. Otherwise, any configuration based on this function will be incorrect.
  * @retval PCLK2 frequency
  */
uint32_t HAL_RCC_GetPCLK2Freq(void)
{
 8004a48:	b580      	push	{r7, lr}
 8004a4a:	af00      	add	r7, sp, #0
  /* Get HCLK source and Compute PCLK2 frequency ---------------------------*/
  return (HAL_RCC_GetHCLKFreq() >> APBPrescTable[(RCC->CFGR & RCC_CFGR_PPRE2) >> RCC_CFGR_PPRE2_Pos]);
 8004a4c:	f7ff ffdc 	bl	8004a08 <HAL_RCC_GetHCLKFreq>
 8004a50:	4602      	mov	r2, r0
 8004a52:	4b05      	ldr	r3, [pc, #20]	@ (8004a68 <HAL_RCC_GetPCLK2Freq+0x20>)
 8004a54:	689b      	ldr	r3, [r3, #8]
 8004a56:	0b5b      	lsrs	r3, r3, #13
 8004a58:	f003 0307 	and.w	r3, r3, #7
 8004a5c:	4903      	ldr	r1, [pc, #12]	@ (8004a6c <HAL_RCC_GetPCLK2Freq+0x24>)
 8004a5e:	5ccb      	ldrb	r3, [r1, r3]
 8004a60:	fa22 f303 	lsr.w	r3, r2, r3
}
 8004a64:	4618      	mov	r0, r3
 8004a66:	bd80      	pop	{r7, pc}
 8004a68:	40023800 	.word	0x40023800
 8004a6c:	08009900 	.word	0x08009900

08004a70 <HAL_RCC_GetSysClockFreq>:
  *
  *
  * @retval SYSCLK frequency
  */
uint32_t HAL_RCC_GetSysClockFreq(void)
{
 8004a70:	e92d 4fb0 	stmdb	sp!, {r4, r5, r7, r8, r9, sl, fp, lr}
 8004a74:	b0ae      	sub	sp, #184	@ 0xb8
 8004a76:	af00      	add	r7, sp, #0
  uint32_t pllm = 0U;
 8004a78:	2300      	movs	r3, #0
 8004a7a:	f8c7 30ac 	str.w	r3, [r7, #172]	@ 0xac
  uint32_t pllvco = 0U;
 8004a7e:	2300      	movs	r3, #0
 8004a80:	f8c7 30b4 	str.w	r3, [r7, #180]	@ 0xb4
  uint32_t pllp = 0U;
 8004a84:	2300      	movs	r3, #0
 8004a86:	f8c7 30a8 	str.w	r3, [r7, #168]	@ 0xa8
  uint32_t pllr = 0U;
 8004a8a:	2300      	movs	r3, #0
 8004a8c:	f8c7 30a4 	str.w	r3, [r7, #164]	@ 0xa4
  uint32_t sysclockfreq = 0U;
 8004a90:	2300      	movs	r3, #0
 8004a92:	f8c7 30b0 	str.w	r3, [r7, #176]	@ 0xb0

  /* Get SYSCLK source -------------------------------------------------------*/
  switch (RCC->CFGR & RCC_CFGR_SWS)
 8004a96:	4bcb      	ldr	r3, [pc, #812]	@ (8004dc4 <HAL_RCC_GetSysClockFreq+0x354>)
 8004a98:	689b      	ldr	r3, [r3, #8]
 8004a9a:	f003 030c 	and.w	r3, r3, #12
 8004a9e:	2b0c      	cmp	r3, #12
 8004aa0:	f200 8206 	bhi.w	8004eb0 <HAL_RCC_GetSysClockFreq+0x440>
 8004aa4:	a201      	add	r2, pc, #4	@ (adr r2, 8004aac <HAL_RCC_GetSysClockFreq+0x3c>)
 8004aa6:	f852 f023 	ldr.w	pc, [r2, r3, lsl #2]
 8004aaa:	bf00      	nop
 8004aac:	08004ae1 	.word	0x08004ae1
 8004ab0:	08004eb1 	.word	0x08004eb1
 8004ab4:	08004eb1 	.word	0x08004eb1
 8004ab8:	08004eb1 	.word	0x08004eb1
 8004abc:	08004ae9 	.word	0x08004ae9
 8004ac0:	08004eb1 	.word	0x08004eb1
 8004ac4:	08004eb1 	.word	0x08004eb1
 8004ac8:	08004eb1 	.word	0x08004eb1
 8004acc:	08004af1 	.word	0x08004af1
 8004ad0:	08004eb1 	.word	0x08004eb1
 8004ad4:	08004eb1 	.word	0x08004eb1
 8004ad8:	08004eb1 	.word	0x08004eb1
 8004adc:	08004ce1 	.word	0x08004ce1
  {
    case RCC_CFGR_SWS_HSI:  /* HSI used as system clock source */
    {
      sysclockfreq = HSI_VALUE;
 8004ae0:	4bb9      	ldr	r3, [pc, #740]	@ (8004dc8 <HAL_RCC_GetSysClockFreq+0x358>)
 8004ae2:	f8c7 30b0 	str.w	r3, [r7, #176]	@ 0xb0
      break;
 8004ae6:	e1e7      	b.n	8004eb8 <HAL_RCC_GetSysClockFreq+0x448>
    }
    case RCC_CFGR_SWS_HSE:  /* HSE used as system clock  source */
    {
      sysclockfreq = HSE_VALUE;
 8004ae8:	4bb8      	ldr	r3, [pc, #736]	@ (8004dcc <HAL_RCC_GetSysClockFreq+0x35c>)
 8004aea:	f8c7 30b0 	str.w	r3, [r7, #176]	@ 0xb0
      break;
 8004aee:	e1e3      	b.n	8004eb8 <HAL_RCC_GetSysClockFreq+0x448>
    }
    case RCC_CFGR_SWS_PLL:  /* PLL/PLLP used as system clock  source */
    {
      /* PLL_VCO = (HSE_VALUE or HSI_VALUE / PLLM) * PLLN
      SYSCLK = PLL_VCO / PLLP */
      pllm = RCC->PLLCFGR & RCC_PLLCFGR_PLLM;
 8004af0:	4bb4      	ldr	r3, [pc, #720]	@ (8004dc4 <HAL_RCC_GetSysClockFreq+0x354>)
 8004af2:	685b      	ldr	r3, [r3, #4]
 8004af4:	f003 033f 	and.w	r3, r3, #63	@ 0x3f
 8004af8:	f8c7 30ac 	str.w	r3, [r7, #172]	@ 0xac
      if (__HAL_RCC_GET_PLL_OSCSOURCE() != RCC_PLLSOURCE_HSI)
 8004afc:	4bb1      	ldr	r3, [pc, #708]	@ (8004dc4 <HAL_RCC_GetSysClockFreq+0x354>)
 8004afe:	685b      	ldr	r3, [r3, #4]
 8004b00:	f403 0380 	and.w	r3, r3, #4194304	@ 0x400000
 8004b04:	2b00      	cmp	r3, #0
 8004b06:	d071      	beq.n	8004bec <HAL_RCC_GetSysClockFreq+0x17c>
      {
        /* HSE used as PLL clock source */
        pllvco = (uint32_t)((((uint64_t) HSE_VALUE * ((uint64_t)((RCC->PLLCFGR & RCC_PLLCFGR_PLLN) >> RCC_PLLCFGR_PLLN_Pos)))) / (uint64_t)pllm);
 8004b08:	4bae      	ldr	r3, [pc, #696]	@ (8004dc4 <HAL_RCC_GetSysClockFreq+0x354>)
 8004b0a:	685b      	ldr	r3, [r3, #4]
 8004b0c:	099b      	lsrs	r3, r3, #6
 8004b0e:	2200      	movs	r2, #0
 8004b10:	f8c7 3098 	str.w	r3, [r7, #152]	@ 0x98
 8004b14:	f8c7 209c 	str.w	r2, [r7, #156]	@ 0x9c
 8004b18:	f8d7 3098 	ldr.w	r3, [r7, #152]	@ 0x98
 8004b1c:	f3c3 0308 	ubfx	r3, r3, #0, #9
 8004b20:	f8c7 3090 	str.w	r3, [r7, #144]	@ 0x90
 8004b24:	2300      	movs	r3, #0
 8004b26:	f8c7 3094 	str.w	r3, [r7, #148]	@ 0x94
 8004b2a:	e9d7 4524 	ldrd	r4, r5, [r7, #144]	@ 0x90
 8004b2e:	4622      	mov	r2, r4
 8004b30:	462b      	mov	r3, r5
 8004b32:	f04f 0000 	mov.w	r0, #0
 8004b36:	f04f 0100 	mov.w	r1, #0
 8004b3a:	0159      	lsls	r1, r3, #5
 8004b3c:	ea41 61d2 	orr.w	r1, r1, r2, lsr #27
 8004b40:	0150      	lsls	r0, r2, #5
 8004b42:	4602      	mov	r2, r0
 8004b44:	460b      	mov	r3, r1
 8004b46:	4621      	mov	r1, r4
 8004b48:	1a51      	subs	r1, r2, r1
 8004b4a:	6439      	str	r1, [r7, #64]	@ 0x40
 8004b4c:	4629      	mov	r1, r5
 8004b4e:	eb63 0301 	sbc.w	r3, r3, r1
 8004b52:	647b      	str	r3, [r7, #68]	@ 0x44
 8004b54:	f04f 0200 	mov.w	r2, #0
 8004b58:	f04f 0300 	mov.w	r3, #0
 8004b5c:	e9d7 8910 	ldrd	r8, r9, [r7, #64]	@ 0x40
 8004b60:	4649      	mov	r1, r9
 8004b62:	018b      	lsls	r3, r1, #6
 8004b64:	4641      	mov	r1, r8
 8004b66:	ea43 6391 	orr.w	r3, r3, r1, lsr #26
 8004b6a:	4641      	mov	r1, r8
 8004b6c:	018a      	lsls	r2, r1, #6
 8004b6e:	4641      	mov	r1, r8
 8004b70:	1a51      	subs	r1, r2, r1
 8004b72:	63b9      	str	r1, [r7, #56]	@ 0x38
 8004b74:	4649      	mov	r1, r9
 8004b76:	eb63 0301 	sbc.w	r3, r3, r1
 8004b7a:	63fb      	str	r3, [r7, #60]	@ 0x3c
 8004b7c:	f04f 0200 	mov.w	r2, #0
 8004b80:	f04f 0300 	mov.w	r3, #0
 8004b84:	e9d7 890e 	ldrd	r8, r9, [r7, #56]	@ 0x38
 8004b88:	4649      	mov	r1, r9
 8004b8a:	00cb      	lsls	r3, r1, #3
 8004b8c:	4641      	mov	r1, r8
 8004b8e:	ea43 7351 	orr.w	r3, r3, r1, lsr #29
 8004b92:	4641      	mov	r1, r8
 8004b94:	00ca      	lsls	r2, r1, #3
 8004b96:	4610      	mov	r0, r2
 8004b98:	4619      	mov	r1, r3
 8004b9a:	4603      	mov	r3, r0
 8004b9c:	4622      	mov	r2, r4
 8004b9e:	189b      	adds	r3, r3, r2
 8004ba0:	633b      	str	r3, [r7, #48]	@ 0x30
 8004ba2:	462b      	mov	r3, r5
 8004ba4:	460a      	mov	r2, r1
 8004ba6:	eb42 0303 	adc.w	r3, r2, r3
 8004baa:	637b      	str	r3, [r7, #52]	@ 0x34
 8004bac:	f04f 0200 	mov.w	r2, #0
 8004bb0:	f04f 0300 	mov.w	r3, #0
 8004bb4:	e9d7 450c 	ldrd	r4, r5, [r7, #48]	@ 0x30
 8004bb8:	4629      	mov	r1, r5
 8004bba:	024b      	lsls	r3, r1, #9
 8004bbc:	4621      	mov	r1, r4
 8004bbe:	ea43 53d1 	orr.w	r3, r3, r1, lsr #23
 8004bc2:	4621      	mov	r1, r4
 8004bc4:	024a      	lsls	r2, r1, #9
 8004bc6:	4610      	mov	r0, r2
 8004bc8:	4619      	mov	r1, r3
 8004bca:	f8d7 30ac 	ldr.w	r3, [r7, #172]	@ 0xac
 8004bce:	2200      	movs	r2, #0
 8004bd0:	f8c7 3088 	str.w	r3, [r7, #136]	@ 0x88
 8004bd4:	f8c7 208c 	str.w	r2, [r7, #140]	@ 0x8c
 8004bd8:	e9d7 2322 	ldrd	r2, r3, [r7, #136]	@ 0x88
 8004bdc:	f7fc f854 	bl	8000c88 <__aeabi_uldivmod>
 8004be0:	4602      	mov	r2, r0
 8004be2:	460b      	mov	r3, r1
 8004be4:	4613      	mov	r3, r2
 8004be6:	f8c7 30b4 	str.w	r3, [r7, #180]	@ 0xb4
 8004bea:	e067      	b.n	8004cbc <HAL_RCC_GetSysClockFreq+0x24c>
      }
      else
      {
        /* HSI used as PLL clock source */
        pllvco = (uint32_t)((((uint64_t) HSI_VALUE * ((uint64_t)((RCC->PLLCFGR & RCC_PLLCFGR_PLLN) >> RCC_PLLCFGR_PLLN_Pos)))) / (uint64_t)pllm);
 8004bec:	4b75      	ldr	r3, [pc, #468]	@ (8004dc4 <HAL_RCC_GetSysClockFreq+0x354>)
 8004bee:	685b      	ldr	r3, [r3, #4]
 8004bf0:	099b      	lsrs	r3, r3, #6
 8004bf2:	2200      	movs	r2, #0
 8004bf4:	f8c7 3080 	str.w	r3, [r7, #128]	@ 0x80
 8004bf8:	f8c7 2084 	str.w	r2, [r7, #132]	@ 0x84
 8004bfc:	f8d7 3080 	ldr.w	r3, [r7, #128]	@ 0x80
 8004c00:	f3c3 0308 	ubfx	r3, r3, #0, #9
 8004c04:	67bb      	str	r3, [r7, #120]	@ 0x78
 8004c06:	2300      	movs	r3, #0
 8004c08:	67fb      	str	r3, [r7, #124]	@ 0x7c
 8004c0a:	e9d7 451e 	ldrd	r4, r5, [r7, #120]	@ 0x78
 8004c0e:	4622      	mov	r2, r4
 8004c10:	462b      	mov	r3, r5
 8004c12:	f04f 0000 	mov.w	r0, #0
 8004c16:	f04f 0100 	mov.w	r1, #0
 8004c1a:	0159      	lsls	r1, r3, #5
 8004c1c:	ea41 61d2 	orr.w	r1, r1, r2, lsr #27
 8004c20:	0150      	lsls	r0, r2, #5
 8004c22:	4602      	mov	r2, r0
 8004c24:	460b      	mov	r3, r1
 8004c26:	4621      	mov	r1, r4
 8004c28:	1a51      	subs	r1, r2, r1
 8004c2a:	62b9      	str	r1, [r7, #40]	@ 0x28
 8004c2c:	4629      	mov	r1, r5
 8004c2e:	eb63 0301 	sbc.w	r3, r3, r1
 8004c32:	62fb      	str	r3, [r7, #44]	@ 0x2c
 8004c34:	f04f 0200 	mov.w	r2, #0
 8004c38:	f04f 0300 	mov.w	r3, #0
 8004c3c:	e9d7 890a 	ldrd	r8, r9, [r7, #40]	@ 0x28
 8004c40:	4649      	mov	r1, r9
 8004c42:	018b      	lsls	r3, r1, #6
 8004c44:	4641      	mov	r1, r8
 8004c46:	ea43 6391 	orr.w	r3, r3, r1, lsr #26
 8004c4a:	4641      	mov	r1, r8
 8004c4c:	018a      	lsls	r2, r1, #6
 8004c4e:	4641      	mov	r1, r8
 8004c50:	ebb2 0a01 	subs.w	sl, r2, r1
 8004c54:	4649      	mov	r1, r9
 8004c56:	eb63 0b01 	sbc.w	fp, r3, r1
 8004c5a:	f04f 0200 	mov.w	r2, #0
 8004c5e:	f04f 0300 	mov.w	r3, #0
 8004c62:	ea4f 03cb 	mov.w	r3, fp, lsl #3
 8004c66:	ea43 735a 	orr.w	r3, r3, sl, lsr #29
 8004c6a:	ea4f 02ca 	mov.w	r2, sl, lsl #3
 8004c6e:	4692      	mov	sl, r2
 8004c70:	469b      	mov	fp, r3
 8004c72:	4623      	mov	r3, r4
 8004c74:	eb1a 0303 	adds.w	r3, sl, r3
 8004c78:	623b      	str	r3, [r7, #32]
 8004c7a:	462b      	mov	r3, r5
 8004c7c:	eb4b 0303 	adc.w	r3, fp, r3
 8004c80:	627b      	str	r3, [r7, #36]	@ 0x24
 8004c82:	f04f 0200 	mov.w	r2, #0
 8004c86:	f04f 0300 	mov.w	r3, #0
 8004c8a:	e9d7 4508 	ldrd	r4, r5, [r7, #32]
 8004c8e:	4629      	mov	r1, r5
 8004c90:	028b      	lsls	r3, r1, #10
 8004c92:	4621      	mov	r1, r4
 8004c94:	ea43 5391 	orr.w	r3, r3, r1, lsr #22
 8004c98:	4621      	mov	r1, r4
 8004c9a:	028a      	lsls	r2, r1, #10
 8004c9c:	4610      	mov	r0, r2
 8004c9e:	4619      	mov	r1, r3
 8004ca0:	f8d7 30ac 	ldr.w	r3, [r7, #172]	@ 0xac
 8004ca4:	2200      	movs	r2, #0
 8004ca6:	673b      	str	r3, [r7, #112]	@ 0x70
 8004ca8:	677a      	str	r2, [r7, #116]	@ 0x74
 8004caa:	e9d7 231c 	ldrd	r2, r3, [r7, #112]	@ 0x70
 8004cae:	f7fb ffeb 	bl	8000c88 <__aeabi_uldivmod>
 8004cb2:	4602      	mov	r2, r0
 8004cb4:	460b      	mov	r3, r1
 8004cb6:	4613      	mov	r3, r2
 8004cb8:	f8c7 30b4 	str.w	r3, [r7, #180]	@ 0xb4
      }
      pllp = ((((RCC->PLLCFGR & RCC_PLLCFGR_PLLP) >> RCC_PLLCFGR_PLLP_Pos) + 1U) * 2U);
 8004cbc:	4b41      	ldr	r3, [pc, #260]	@ (8004dc4 <HAL_RCC_GetSysClockFreq+0x354>)
 8004cbe:	685b      	ldr	r3, [r3, #4]
 8004cc0:	0c1b      	lsrs	r3, r3, #16
 8004cc2:	f003 0303 	and.w	r3, r3, #3
 8004cc6:	3301      	adds	r3, #1
 8004cc8:	005b      	lsls	r3, r3, #1
 8004cca:	f8c7 30a8 	str.w	r3, [r7, #168]	@ 0xa8

      sysclockfreq = pllvco / pllp;
 8004cce:	f8d7 20b4 	ldr.w	r2, [r7, #180]	@ 0xb4
 8004cd2:	f8d7 30a8 	ldr.w	r3, [r7, #168]	@ 0xa8
 8004cd6:	fbb2 f3f3 	udiv	r3, r2, r3
 8004cda:	f8c7 30b0 	str.w	r3, [r7, #176]	@ 0xb0
      break;
 8004cde:	e0eb      	b.n	8004eb8 <HAL_RCC_GetSysClockFreq+0x448>
    }
    case RCC_CFGR_SWS_PLLR:  /* PLL/PLLR used as system clock  source */
    {
      /* PLL_VCO = (HSE_VALUE or HSI_VALUE / PLLM) * PLLN
      SYSCLK = PLL_VCO / PLLR */
      pllm = RCC->PLLCFGR & RCC_PLLCFGR_PLLM;
 8004ce0:	4b38      	ldr	r3, [pc, #224]	@ (8004dc4 <HAL_RCC_GetSysClockFreq+0x354>)
 8004ce2:	685b      	ldr	r3, [r3, #4]
 8004ce4:	f003 033f 	and.w	r3, r3, #63	@ 0x3f
 8004ce8:	f8c7 30ac 	str.w	r3, [r7, #172]	@ 0xac
      if (__HAL_RCC_GET_PLL_OSCSOURCE() != RCC_PLLSOURCE_HSI)
 8004cec:	4b35      	ldr	r3, [pc, #212]	@ (8004dc4 <HAL_RCC_GetSysClockFreq+0x354>)
 8004cee:	685b      	ldr	r3, [r3, #4]
 8004cf0:	f403 0380 	and.w	r3, r3, #4194304	@ 0x400000
 8004cf4:	2b00      	cmp	r3, #0
 8004cf6:	d06b      	beq.n	8004dd0 <HAL_RCC_GetSysClockFreq+0x360>
      {
        /* HSE used as PLL clock source */
        pllvco = (uint32_t)((((uint64_t) HSE_VALUE * ((uint64_t)((RCC->PLLCFGR & RCC_PLLCFGR_PLLN) >> RCC_PLLCFGR_PLLN_Pos)))) / (uint64_t)pllm);
 8004cf8:	4b32      	ldr	r3, [pc, #200]	@ (8004dc4 <HAL_RCC_GetSysClockFreq+0x354>)
 8004cfa:	685b      	ldr	r3, [r3, #4]
 8004cfc:	099b      	lsrs	r3, r3, #6
 8004cfe:	2200      	movs	r2, #0
 8004d00:	66bb      	str	r3, [r7, #104]	@ 0x68
 8004d02:	66fa      	str	r2, [r7, #108]	@ 0x6c
 8004d04:	6ebb      	ldr	r3, [r7, #104]	@ 0x68
 8004d06:	f3c3 0308 	ubfx	r3, r3, #0, #9
 8004d0a:	663b      	str	r3, [r7, #96]	@ 0x60
 8004d0c:	2300      	movs	r3, #0
 8004d0e:	667b      	str	r3, [r7, #100]	@ 0x64
 8004d10:	e9d7 4518 	ldrd	r4, r5, [r7, #96]	@ 0x60
 8004d14:	4622      	mov	r2, r4
 8004d16:	462b      	mov	r3, r5
 8004d18:	f04f 0000 	mov.w	r0, #0
 8004d1c:	f04f 0100 	mov.w	r1, #0
 8004d20:	0159      	lsls	r1, r3, #5
 8004d22:	ea41 61d2 	orr.w	r1, r1, r2, lsr #27
 8004d26:	0150      	lsls	r0, r2, #5
 8004d28:	4602      	mov	r2, r0
 8004d2a:	460b      	mov	r3, r1
 8004d2c:	4621      	mov	r1, r4
 8004d2e:	1a51      	subs	r1, r2, r1
 8004d30:	61b9      	str	r1, [r7, #24]
 8004d32:	4629      	mov	r1, r5
 8004d34:	eb63 0301 	sbc.w	r3, r3, r1
 8004d38:	61fb      	str	r3, [r7, #28]
 8004d3a:	f04f 0200 	mov.w	r2, #0
 8004d3e:	f04f 0300 	mov.w	r3, #0
 8004d42:	e9d7 ab06 	ldrd	sl, fp, [r7, #24]
 8004d46:	4659      	mov	r1, fp
 8004d48:	018b      	lsls	r3, r1, #6
 8004d4a:	4651      	mov	r1, sl
 8004d4c:	ea43 6391 	orr.w	r3, r3, r1, lsr #26
 8004d50:	4651      	mov	r1, sl
 8004d52:	018a      	lsls	r2, r1, #6
 8004d54:	4651      	mov	r1, sl
 8004d56:	ebb2 0801 	subs.w	r8, r2, r1
 8004d5a:	4659      	mov	r1, fp
 8004d5c:	eb63 0901 	sbc.w	r9, r3, r1
 8004d60:	f04f 0200 	mov.w	r2, #0
 8004d64:	f04f 0300 	mov.w	r3, #0
 8004d68:	ea4f 03c9 	mov.w	r3, r9, lsl #3
 8004d6c:	ea43 7358 	orr.w	r3, r3, r8, lsr #29
 8004d70:	ea4f 02c8 	mov.w	r2, r8, lsl #3
 8004d74:	4690      	mov	r8, r2
 8004d76:	4699      	mov	r9, r3
 8004d78:	4623      	mov	r3, r4
 8004d7a:	eb18 0303 	adds.w	r3, r8, r3
 8004d7e:	613b      	str	r3, [r7, #16]
 8004d80:	462b      	mov	r3, r5
 8004d82:	eb49 0303 	adc.w	r3, r9, r3
 8004d86:	617b      	str	r3, [r7, #20]
 8004d88:	f04f 0200 	mov.w	r2, #0
 8004d8c:	f04f 0300 	mov.w	r3, #0
 8004d90:	e9d7 4504 	ldrd	r4, r5, [r7, #16]
 8004d94:	4629      	mov	r1, r5
 8004d96:	024b      	lsls	r3, r1, #9
 8004d98:	4621      	mov	r1, r4
 8004d9a:	ea43 53d1 	orr.w	r3, r3, r1, lsr #23
 8004d9e:	4621      	mov	r1, r4
 8004da0:	024a      	lsls	r2, r1, #9
 8004da2:	4610      	mov	r0, r2
 8004da4:	4619      	mov	r1, r3
 8004da6:	f8d7 30ac 	ldr.w	r3, [r7, #172]	@ 0xac
 8004daa:	2200      	movs	r2, #0
 8004dac:	65bb      	str	r3, [r7, #88]	@ 0x58
 8004dae:	65fa      	str	r2, [r7, #92]	@ 0x5c
 8004db0:	e9d7 2316 	ldrd	r2, r3, [r7, #88]	@ 0x58
 8004db4:	f7fb ff68 	bl	8000c88 <__aeabi_uldivmod>
 8004db8:	4602      	mov	r2, r0
 8004dba:	460b      	mov	r3, r1
 8004dbc:	4613      	mov	r3, r2
 8004dbe:	f8c7 30b4 	str.w	r3, [r7, #180]	@ 0xb4
 8004dc2:	e065      	b.n	8004e90 <HAL_RCC_GetSysClockFreq+0x420>
 8004dc4:	40023800 	.word	0x40023800
 8004dc8:	00f42400 	.word	0x00f42400
 8004dcc:	007a1200 	.word	0x007a1200
      }
      else
      {
        /* HSI used as PLL clock source */
        pllvco = (uint32_t)((((uint64_t) HSI_VALUE * ((uint64_t)((RCC->PLLCFGR & RCC_PLLCFGR_PLLN) >> RCC_PLLCFGR_PLLN_Pos)))) / (uint64_t)pllm);
 8004dd0:	4b3d      	ldr	r3, [pc, #244]	@ (8004ec8 <HAL_RCC_GetSysClockFreq+0x458>)
 8004dd2:	685b      	ldr	r3, [r3, #4]
 8004dd4:	099b      	lsrs	r3, r3, #6
 8004dd6:	2200      	movs	r2, #0
 8004dd8:	4618      	mov	r0, r3
 8004dda:	4611      	mov	r1, r2
 8004ddc:	f3c0 0308 	ubfx	r3, r0, #0, #9
 8004de0:	653b      	str	r3, [r7, #80]	@ 0x50
 8004de2:	2300      	movs	r3, #0
 8004de4:	657b      	str	r3, [r7, #84]	@ 0x54
 8004de6:	e9d7 8914 	ldrd	r8, r9, [r7, #80]	@ 0x50
 8004dea:	4642      	mov	r2, r8
 8004dec:	464b      	mov	r3, r9
 8004dee:	f04f 0000 	mov.w	r0, #0
 8004df2:	f04f 0100 	mov.w	r1, #0
 8004df6:	0159      	lsls	r1, r3, #5
 8004df8:	ea41 61d2 	orr.w	r1, r1, r2, lsr #27
 8004dfc:	0150      	lsls	r0, r2, #5
 8004dfe:	4602      	mov	r2, r0
 8004e00:	460b      	mov	r3, r1
 8004e02:	4641      	mov	r1, r8
 8004e04:	1a51      	subs	r1, r2, r1
 8004e06:	60b9      	str	r1, [r7, #8]
 8004e08:	4649      	mov	r1, r9
 8004e0a:	eb63 0301 	sbc.w	r3, r3, r1
 8004e0e:	60fb      	str	r3, [r7, #12]
 8004e10:	f04f 0200 	mov.w	r2, #0
 8004e14:	f04f 0300 	mov.w	r3, #0
 8004e18:	e9d7 ab02 	ldrd	sl, fp, [r7, #8]
 8004e1c:	4659      	mov	r1, fp
 8004e1e:	018b      	lsls	r3, r1, #6
 8004e20:	4651      	mov	r1, sl
 8004e22:	ea43 6391 	orr.w	r3, r3, r1, lsr #26
 8004e26:	4651      	mov	r1, sl
 8004e28:	018a      	lsls	r2, r1, #6
 8004e2a:	4651      	mov	r1, sl
 8004e2c:	1a54      	subs	r4, r2, r1
 8004e2e:	4659      	mov	r1, fp
 8004e30:	eb63 0501 	sbc.w	r5, r3, r1
 8004e34:	f04f 0200 	mov.w	r2, #0
 8004e38:	f04f 0300 	mov.w	r3, #0
 8004e3c:	00eb      	lsls	r3, r5, #3
 8004e3e:	ea43 7354 	orr.w	r3, r3, r4, lsr #29
 8004e42:	00e2      	lsls	r2, r4, #3
 8004e44:	4614      	mov	r4, r2
 8004e46:	461d      	mov	r5, r3
 8004e48:	4643      	mov	r3, r8
 8004e4a:	18e3      	adds	r3, r4, r3
 8004e4c:	603b      	str	r3, [r7, #0]
 8004e4e:	464b      	mov	r3, r9
 8004e50:	eb45 0303 	adc.w	r3, r5, r3
 8004e54:	607b      	str	r3, [r7, #4]
 8004e56:	f04f 0200 	mov.w	r2, #0
 8004e5a:	f04f 0300 	mov.w	r3, #0
 8004e5e:	e9d7 4500 	ldrd	r4, r5, [r7]
 8004e62:	4629      	mov	r1, r5
 8004e64:	028b      	lsls	r3, r1, #10
 8004e66:	4621      	mov	r1, r4
 8004e68:	ea43 5391 	orr.w	r3, r3, r1, lsr #22
 8004e6c:	4621      	mov	r1, r4
 8004e6e:	028a      	lsls	r2, r1, #10
 8004e70:	4610      	mov	r0, r2
 8004e72:	4619      	mov	r1, r3
 8004e74:	f8d7 30ac 	ldr.w	r3, [r7, #172]	@ 0xac
 8004e78:	2200      	movs	r2, #0
 8004e7a:	64bb      	str	r3, [r7, #72]	@ 0x48
 8004e7c:	64fa      	str	r2, [r7, #76]	@ 0x4c
 8004e7e:	e9d7 2312 	ldrd	r2, r3, [r7, #72]	@ 0x48
 8004e82:	f7fb ff01 	bl	8000c88 <__aeabi_uldivmod>
 8004e86:	4602      	mov	r2, r0
 8004e88:	460b      	mov	r3, r1
 8004e8a:	4613      	mov	r3, r2
 8004e8c:	f8c7 30b4 	str.w	r3, [r7, #180]	@ 0xb4
      }
      pllr = ((RCC->PLLCFGR & RCC_PLLCFGR_PLLR) >> RCC_PLLCFGR_PLLR_Pos);
 8004e90:	4b0d      	ldr	r3, [pc, #52]	@ (8004ec8 <HAL_RCC_GetSysClockFreq+0x458>)
 8004e92:	685b      	ldr	r3, [r3, #4]
 8004e94:	0f1b      	lsrs	r3, r3, #28
 8004e96:	f003 0307 	and.w	r3, r3, #7
 8004e9a:	f8c7 30a4 	str.w	r3, [r7, #164]	@ 0xa4

      sysclockfreq = pllvco / pllr;
 8004e9e:	f8d7 20b4 	ldr.w	r2, [r7, #180]	@ 0xb4
 8004ea2:	f8d7 30a4 	ldr.w	r3, [r7, #164]	@ 0xa4
 8004ea6:	fbb2 f3f3 	udiv	r3, r2, r3
 8004eaa:	f8c7 30b0 	str.w	r3, [r7, #176]	@ 0xb0
      break;
 8004eae:	e003      	b.n	8004eb8 <HAL_RCC_GetSysClockFreq+0x448>
    }
    default:
    {
      sysclockfreq = HSI_VALUE;
 8004eb0:	4b06      	ldr	r3, [pc, #24]	@ (8004ecc <HAL_RCC_GetSysClockFreq+0x45c>)
 8004eb2:	f8c7 30b0 	str.w	r3, [r7, #176]	@ 0xb0
      break;
 8004eb6:	bf00      	nop
    }
  }
  return sysclockfreq;
 8004eb8:	f8d7 30b0 	ldr.w	r3, [r7, #176]	@ 0xb0
}
 8004ebc:	4618      	mov	r0, r3
 8004ebe:	37b8      	adds	r7, #184	@ 0xb8
 8004ec0:	46bd      	mov	sp, r7
 8004ec2:	e8bd 8fb0 	ldmia.w	sp!, {r4, r5, r7, r8, r9, sl, fp, pc}
 8004ec6:	bf00      	nop
 8004ec8:	40023800 	.word	0x40023800
 8004ecc:	00f42400 	.word	0x00f42400

08004ed0 <HAL_RCC_OscConfig>:
  * @note   This function add the PLL/PLLR factor management during PLL configuration this feature
  *         is only available in STM32F410xx/STM32F446xx/STM32F469xx/STM32F479xx/STM32F412Zx/STM32F412Vx/STM32F412Rx/STM32F412Cx devices
  * @retval HAL status
  */
HAL_StatusTypeDef HAL_RCC_OscConfig(RCC_OscInitTypeDef  *RCC_OscInitStruct)
{
 8004ed0:	b580      	push	{r7, lr}
 8004ed2:	b086      	sub	sp, #24
 8004ed4:	af00      	add	r7, sp, #0
 8004ed6:	6078      	str	r0, [r7, #4]
  uint32_t tickstart;
  uint32_t pll_config;

  /* Check Null pointer */
  if (RCC_OscInitStruct == NULL)
 8004ed8:	687b      	ldr	r3, [r7, #4]
 8004eda:	2b00      	cmp	r3, #0
 8004edc:	d101      	bne.n	8004ee2 <HAL_RCC_OscConfig+0x12>
  {
    return HAL_ERROR;
 8004ede:	2301      	movs	r3, #1
 8004ee0:	e28d      	b.n	80053fe <HAL_RCC_OscConfig+0x52e>
  }

  /* Check the parameters */
  assert_param(IS_RCC_OSCILLATORTYPE(RCC_OscInitStruct->OscillatorType));
  /*------------------------------- HSE Configuration ------------------------*/
  if (((RCC_OscInitStruct->OscillatorType) & RCC_OSCILLATORTYPE_HSE) == RCC_OSCILLATORTYPE_HSE)
 8004ee2:	687b      	ldr	r3, [r7, #4]
 8004ee4:	681b      	ldr	r3, [r3, #0]
 8004ee6:	f003 0301 	and.w	r3, r3, #1
 8004eea:	2b00      	cmp	r3, #0
 8004eec:	f000 8083 	beq.w	8004ff6 <HAL_RCC_OscConfig+0x126>
  {
    /* Check the parameters */
    assert_param(IS_RCC_HSE(RCC_OscInitStruct->HSEState));
    /* When the HSE is used as system clock or clock source for PLL in these cases HSE will not disabled */
#if defined(STM32F446xx)
    if ((__HAL_RCC_GET_SYSCLK_SOURCE() == RCC_CFGR_SWS_HSE)
 8004ef0:	4b94      	ldr	r3, [pc, #592]	@ (8005144 <HAL_RCC_OscConfig+0x274>)
 8004ef2:	689b      	ldr	r3, [r3, #8]
 8004ef4:	f003 030c 	and.w	r3, r3, #12
 8004ef8:	2b04      	cmp	r3, #4
 8004efa:	d019      	beq.n	8004f30 <HAL_RCC_OscConfig+0x60>
        || \
        ((__HAL_RCC_GET_SYSCLK_SOURCE() == RCC_CFGR_SWS_PLL) && ((RCC->PLLCFGR & RCC_PLLCFGR_PLLSRC) == RCC_PLLCFGR_PLLSRC_HSE)) || \
 8004efc:	4b91      	ldr	r3, [pc, #580]	@ (8005144 <HAL_RCC_OscConfig+0x274>)
 8004efe:	689b      	ldr	r3, [r3, #8]
 8004f00:	f003 030c 	and.w	r3, r3, #12
        || \
 8004f04:	2b08      	cmp	r3, #8
 8004f06:	d106      	bne.n	8004f16 <HAL_RCC_OscConfig+0x46>
        ((__HAL_RCC_GET_SYSCLK_SOURCE() == RCC_CFGR_SWS_PLL) && ((RCC->PLLCFGR & RCC_PLLCFGR_PLLSRC) == RCC_PLLCFGR_PLLSRC_HSE)) || \
 8004f08:	4b8e      	ldr	r3, [pc, #568]	@ (8005144 <HAL_RCC_OscConfig+0x274>)
 8004f0a:	685b      	ldr	r3, [r3, #4]
 8004f0c:	f403 0380 	and.w	r3, r3, #4194304	@ 0x400000
 8004f10:	f5b3 0f80 	cmp.w	r3, #4194304	@ 0x400000
 8004f14:	d00c      	beq.n	8004f30 <HAL_RCC_OscConfig+0x60>
        ((__HAL_RCC_GET_SYSCLK_SOURCE() == RCC_CFGR_SWS_PLLR) && ((RCC->PLLCFGR & RCC_PLLCFGR_PLLSRC) == RCC_PLLCFGR_PLLSRC_HSE)))
 8004f16:	4b8b      	ldr	r3, [pc, #556]	@ (8005144 <HAL_RCC_OscConfig+0x274>)
 8004f18:	689b      	ldr	r3, [r3, #8]
 8004f1a:	f003 030c 	and.w	r3, r3, #12
        ((__HAL_RCC_GET_SYSCLK_SOURCE() == RCC_CFGR_SWS_PLL) && ((RCC->PLLCFGR & RCC_PLLCFGR_PLLSRC) == RCC_PLLCFGR_PLLSRC_HSE)) || \
 8004f1e:	2b0c      	cmp	r3, #12
 8004f20:	d112      	bne.n	8004f48 <HAL_RCC_OscConfig+0x78>
        ((__HAL_RCC_GET_SYSCLK_SOURCE() == RCC_CFGR_SWS_PLLR) && ((RCC->PLLCFGR & RCC_PLLCFGR_PLLSRC) == RCC_PLLCFGR_PLLSRC_HSE)))
 8004f22:	4b88      	ldr	r3, [pc, #544]	@ (8005144 <HAL_RCC_OscConfig+0x274>)
 8004f24:	685b      	ldr	r3, [r3, #4]
 8004f26:	f403 0380 	and.w	r3, r3, #4194304	@ 0x400000
 8004f2a:	f5b3 0f80 	cmp.w	r3, #4194304	@ 0x400000
 8004f2e:	d10b      	bne.n	8004f48 <HAL_RCC_OscConfig+0x78>
    if ((__HAL_RCC_GET_SYSCLK_SOURCE() == RCC_CFGR_SWS_HSE)
        || \
        ((__HAL_RCC_GET_SYSCLK_SOURCE() == RCC_CFGR_SWS_PLL) && ((RCC->PLLCFGR & RCC_PLLCFGR_PLLSRC) == RCC_PLLCFGR_PLLSRC_HSE)))
#endif /* STM32F446xx */
    {
      if ((__HAL_RCC_GET_FLAG(RCC_FLAG_HSERDY) != RESET) && (RCC_OscInitStruct->HSEState == RCC_HSE_OFF))
 8004f30:	4b84      	ldr	r3, [pc, #528]	@ (8005144 <HAL_RCC_OscConfig+0x274>)
 8004f32:	681b      	ldr	r3, [r3, #0]
 8004f34:	f403 3300 	and.w	r3, r3, #131072	@ 0x20000
 8004f38:	2b00      	cmp	r3, #0
 8004f3a:	d05b      	beq.n	8004ff4 <HAL_RCC_OscConfig+0x124>
 8004f3c:	687b      	ldr	r3, [r7, #4]
 8004f3e:	685b      	ldr	r3, [r3, #4]
 8004f40:	2b00      	cmp	r3, #0
 8004f42:	d157      	bne.n	8004ff4 <HAL_RCC_OscConfig+0x124>
      {
        return HAL_ERROR;
 8004f44:	2301      	movs	r3, #1
 8004f46:	e25a      	b.n	80053fe <HAL_RCC_OscConfig+0x52e>
      }
    }
    else
    {
      /* Set the new HSE configuration ---------------------------------------*/
      __HAL_RCC_HSE_CONFIG(RCC_OscInitStruct->HSEState);
 8004f48:	687b      	ldr	r3, [r7, #4]
 8004f4a:	685b      	ldr	r3, [r3, #4]
 8004f4c:	f5b3 3f80 	cmp.w	r3, #65536	@ 0x10000
 8004f50:	d106      	bne.n	8004f60 <HAL_RCC_OscConfig+0x90>
 8004f52:	4b7c      	ldr	r3, [pc, #496]	@ (8005144 <HAL_RCC_OscConfig+0x274>)
 8004f54:	681b      	ldr	r3, [r3, #0]
 8004f56:	4a7b      	ldr	r2, [pc, #492]	@ (8005144 <HAL_RCC_OscConfig+0x274>)
 8004f58:	f443 3380 	orr.w	r3, r3, #65536	@ 0x10000
 8004f5c:	6013      	str	r3, [r2, #0]
 8004f5e:	e01d      	b.n	8004f9c <HAL_RCC_OscConfig+0xcc>
 8004f60:	687b      	ldr	r3, [r7, #4]
 8004f62:	685b      	ldr	r3, [r3, #4]
 8004f64:	f5b3 2fa0 	cmp.w	r3, #327680	@ 0x50000
 8004f68:	d10c      	bne.n	8004f84 <HAL_RCC_OscConfig+0xb4>
 8004f6a:	4b76      	ldr	r3, [pc, #472]	@ (8005144 <HAL_RCC_OscConfig+0x274>)
 8004f6c:	681b      	ldr	r3, [r3, #0]
 8004f6e:	4a75      	ldr	r2, [pc, #468]	@ (8005144 <HAL_RCC_OscConfig+0x274>)
 8004f70:	f443 2380 	orr.w	r3, r3, #262144	@ 0x40000
 8004f74:	6013      	str	r3, [r2, #0]
 8004f76:	4b73      	ldr	r3, [pc, #460]	@ (8005144 <HAL_RCC_OscConfig+0x274>)
 8004f78:	681b      	ldr	r3, [r3, #0]
 8004f7a:	4a72      	ldr	r2, [pc, #456]	@ (8005144 <HAL_RCC_OscConfig+0x274>)
 8004f7c:	f443 3380 	orr.w	r3, r3, #65536	@ 0x10000
 8004f80:	6013      	str	r3, [r2, #0]
 8004f82:	e00b      	b.n	8004f9c <HAL_RCC_OscConfig+0xcc>
 8004f84:	4b6f      	ldr	r3, [pc, #444]	@ (8005144 <HAL_RCC_OscConfig+0x274>)
 8004f86:	681b      	ldr	r3, [r3, #0]
 8004f88:	4a6e      	ldr	r2, [pc, #440]	@ (8005144 <HAL_RCC_OscConfig+0x274>)
 8004f8a:	f423 3380 	bic.w	r3, r3, #65536	@ 0x10000
 8004f8e:	6013      	str	r3, [r2, #0]
 8004f90:	4b6c      	ldr	r3, [pc, #432]	@ (8005144 <HAL_RCC_OscConfig+0x274>)
 8004f92:	681b      	ldr	r3, [r3, #0]
 8004f94:	4a6b      	ldr	r2, [pc, #428]	@ (8005144 <HAL_RCC_OscConfig+0x274>)
 8004f96:	f423 2380 	bic.w	r3, r3, #262144	@ 0x40000
 8004f9a:	6013      	str	r3, [r2, #0]

      /* Check the HSE State */
      if ((RCC_OscInitStruct->HSEState) != RCC_HSE_OFF)
 8004f9c:	687b      	ldr	r3, [r7, #4]
 8004f9e:	685b      	ldr	r3, [r3, #4]
 8004fa0:	2b00      	cmp	r3, #0
 8004fa2:	d013      	beq.n	8004fcc <HAL_RCC_OscConfig+0xfc>
      {
        /* Get Start Tick*/
        tickstart = HAL_GetTick();
 8004fa4:	f7fd fc84 	bl	80028b0 <HAL_GetTick>
 8004fa8:	6138      	str	r0, [r7, #16]

        /* Wait till HSE is ready */
        while (__HAL_RCC_GET_FLAG(RCC_FLAG_HSERDY) == RESET)
 8004faa:	e008      	b.n	8004fbe <HAL_RCC_OscConfig+0xee>
        {
          if ((HAL_GetTick() - tickstart) > HSE_TIMEOUT_VALUE)
 8004fac:	f7fd fc80 	bl	80028b0 <HAL_GetTick>
 8004fb0:	4602      	mov	r2, r0
 8004fb2:	693b      	ldr	r3, [r7, #16]
 8004fb4:	1ad3      	subs	r3, r2, r3
 8004fb6:	2b64      	cmp	r3, #100	@ 0x64
 8004fb8:	d901      	bls.n	8004fbe <HAL_RCC_OscConfig+0xee>
          {
            return HAL_TIMEOUT;
 8004fba:	2303      	movs	r3, #3
 8004fbc:	e21f      	b.n	80053fe <HAL_RCC_OscConfig+0x52e>
        while (__HAL_RCC_GET_FLAG(RCC_FLAG_HSERDY) == RESET)
 8004fbe:	4b61      	ldr	r3, [pc, #388]	@ (8005144 <HAL_RCC_OscConfig+0x274>)
 8004fc0:	681b      	ldr	r3, [r3, #0]
 8004fc2:	f403 3300 	and.w	r3, r3, #131072	@ 0x20000
 8004fc6:	2b00      	cmp	r3, #0
 8004fc8:	d0f0      	beq.n	8004fac <HAL_RCC_OscConfig+0xdc>
 8004fca:	e014      	b.n	8004ff6 <HAL_RCC_OscConfig+0x126>
        }
      }
      else
      {
        /* Get Start Tick*/
        tickstart = HAL_GetTick();
 8004fcc:	f7fd fc70 	bl	80028b0 <HAL_GetTick>
 8004fd0:	6138      	str	r0, [r7, #16]

        /* Wait till HSE is bypassed or disabled */
        while (__HAL_RCC_GET_FLAG(RCC_FLAG_HSERDY) != RESET)
 8004fd2:	e008      	b.n	8004fe6 <HAL_RCC_OscConfig+0x116>
        {
          if ((HAL_GetTick() - tickstart) > HSE_TIMEOUT_VALUE)
 8004fd4:	f7fd fc6c 	bl	80028b0 <HAL_GetTick>
 8004fd8:	4602      	mov	r2, r0
 8004fda:	693b      	ldr	r3, [r7, #16]
 8004fdc:	1ad3      	subs	r3, r2, r3
 8004fde:	2b64      	cmp	r3, #100	@ 0x64
 8004fe0:	d901      	bls.n	8004fe6 <HAL_RCC_OscConfig+0x116>
          {
            return HAL_TIMEOUT;
 8004fe2:	2303      	movs	r3, #3
 8004fe4:	e20b      	b.n	80053fe <HAL_RCC_OscConfig+0x52e>
        while (__HAL_RCC_GET_FLAG(RCC_FLAG_HSERDY) != RESET)
 8004fe6:	4b57      	ldr	r3, [pc, #348]	@ (8005144 <HAL_RCC_OscConfig+0x274>)
 8004fe8:	681b      	ldr	r3, [r3, #0]
 8004fea:	f403 3300 	and.w	r3, r3, #131072	@ 0x20000
 8004fee:	2b00      	cmp	r3, #0
 8004ff0:	d1f0      	bne.n	8004fd4 <HAL_RCC_OscConfig+0x104>
 8004ff2:	e000      	b.n	8004ff6 <HAL_RCC_OscConfig+0x126>
      if ((__HAL_RCC_GET_FLAG(RCC_FLAG_HSERDY) != RESET) && (RCC_OscInitStruct->HSEState == RCC_HSE_OFF))
 8004ff4:	bf00      	nop
        }
      }
    }
  }
  /*----------------------------- HSI Configuration --------------------------*/
  if (((RCC_OscInitStruct->OscillatorType) & RCC_OSCILLATORTYPE_HSI) == RCC_OSCILLATORTYPE_HSI)
 8004ff6:	687b      	ldr	r3, [r7, #4]
 8004ff8:	681b      	ldr	r3, [r3, #0]
 8004ffa:	f003 0302 	and.w	r3, r3, #2
 8004ffe:	2b00      	cmp	r3, #0
 8005000:	d06f      	beq.n	80050e2 <HAL_RCC_OscConfig+0x212>
    assert_param(IS_RCC_HSI(RCC_OscInitStruct->HSIState));
    assert_param(IS_RCC_CALIBRATION_VALUE(RCC_OscInitStruct->HSICalibrationValue));

    /* Check if HSI is used as system clock or as PLL source when PLL is selected as system clock */
#if defined(STM32F446xx)
    if ((__HAL_RCC_GET_SYSCLK_SOURCE() == RCC_CFGR_SWS_HSI)
 8005002:	4b50      	ldr	r3, [pc, #320]	@ (8005144 <HAL_RCC_OscConfig+0x274>)
 8005004:	689b      	ldr	r3, [r3, #8]
 8005006:	f003 030c 	and.w	r3, r3, #12
 800500a:	2b00      	cmp	r3, #0
 800500c:	d017      	beq.n	800503e <HAL_RCC_OscConfig+0x16e>
        || \
        ((__HAL_RCC_GET_SYSCLK_SOURCE() == RCC_CFGR_SWS_PLL) && ((RCC->PLLCFGR & RCC_PLLCFGR_PLLSRC) == RCC_PLLCFGR_PLLSRC_HSI)) || \
 800500e:	4b4d      	ldr	r3, [pc, #308]	@ (8005144 <HAL_RCC_OscConfig+0x274>)
 8005010:	689b      	ldr	r3, [r3, #8]
 8005012:	f003 030c 	and.w	r3, r3, #12
        || \
 8005016:	2b08      	cmp	r3, #8
 8005018:	d105      	bne.n	8005026 <HAL_RCC_OscConfig+0x156>
        ((__HAL_RCC_GET_SYSCLK_SOURCE() == RCC_CFGR_SWS_PLL) && ((RCC->PLLCFGR & RCC_PLLCFGR_PLLSRC) == RCC_PLLCFGR_PLLSRC_HSI)) || \
 800501a:	4b4a      	ldr	r3, [pc, #296]	@ (8005144 <HAL_RCC_OscConfig+0x274>)
 800501c:	685b      	ldr	r3, [r3, #4]
 800501e:	f403 0380 	and.w	r3, r3, #4194304	@ 0x400000
 8005022:	2b00      	cmp	r3, #0
 8005024:	d00b      	beq.n	800503e <HAL_RCC_OscConfig+0x16e>
        ((__HAL_RCC_GET_SYSCLK_SOURCE() == RCC_CFGR_SWS_PLLR) && ((RCC->PLLCFGR & RCC_PLLCFGR_PLLSRC) == RCC_PLLCFGR_PLLSRC_HSI)))
 8005026:	4b47      	ldr	r3, [pc, #284]	@ (8005144 <HAL_RCC_OscConfig+0x274>)
 8005028:	689b      	ldr	r3, [r3, #8]
 800502a:	f003 030c 	and.w	r3, r3, #12
        ((__HAL_RCC_GET_SYSCLK_SOURCE() == RCC_CFGR_SWS_PLL) && ((RCC->PLLCFGR & RCC_PLLCFGR_PLLSRC) == RCC_PLLCFGR_PLLSRC_HSI)) || \
 800502e:	2b0c      	cmp	r3, #12
 8005030:	d11c      	bne.n	800506c <HAL_RCC_OscConfig+0x19c>
        ((__HAL_RCC_GET_SYSCLK_SOURCE() == RCC_CFGR_SWS_PLLR) && ((RCC->PLLCFGR & RCC_PLLCFGR_PLLSRC) == RCC_PLLCFGR_PLLSRC_HSI)))
 8005032:	4b44      	ldr	r3, [pc, #272]	@ (8005144 <HAL_RCC_OscConfig+0x274>)
 8005034:	685b      	ldr	r3, [r3, #4]
 8005036:	f403 0380 	and.w	r3, r3, #4194304	@ 0x400000
 800503a:	2b00      	cmp	r3, #0
 800503c:	d116      	bne.n	800506c <HAL_RCC_OscConfig+0x19c>
        || \
        ((__HAL_RCC_GET_SYSCLK_SOURCE() == RCC_CFGR_SWS_PLL) && ((RCC->PLLCFGR & RCC_PLLCFGR_PLLSRC) == RCC_PLLCFGR_PLLSRC_HSI)))
#endif /* STM32F446xx */
    {
      /* When HSI is used as system clock it will not disabled */
      if ((__HAL_RCC_GET_FLAG(RCC_FLAG_HSIRDY) != RESET) && (RCC_OscInitStruct->HSIState != RCC_HSI_ON))
 800503e:	4b41      	ldr	r3, [pc, #260]	@ (8005144 <HAL_RCC_OscConfig+0x274>)
 8005040:	681b      	ldr	r3, [r3, #0]
 8005042:	f003 0302 	and.w	r3, r3, #2
 8005046:	2b00      	cmp	r3, #0
 8005048:	d005      	beq.n	8005056 <HAL_RCC_OscConfig+0x186>
 800504a:	687b      	ldr	r3, [r7, #4]
 800504c:	68db      	ldr	r3, [r3, #12]
 800504e:	2b01      	cmp	r3, #1
 8005050:	d001      	beq.n	8005056 <HAL_RCC_OscConfig+0x186>
      {
        return HAL_ERROR;
 8005052:	2301      	movs	r3, #1
 8005054:	e1d3      	b.n	80053fe <HAL_RCC_OscConfig+0x52e>
      }
      /* Otherwise, just the calibration is allowed */
      else
      {
        /* Adjusts the Internal High Speed oscillator (HSI) calibration value.*/
        __HAL_RCC_HSI_CALIBRATIONVALUE_ADJUST(RCC_OscInitStruct->HSICalibrationValue);
 8005056:	4b3b      	ldr	r3, [pc, #236]	@ (8005144 <HAL_RCC_OscConfig+0x274>)
 8005058:	681b      	ldr	r3, [r3, #0]
 800505a:	f023 02f8 	bic.w	r2, r3, #248	@ 0xf8
 800505e:	687b      	ldr	r3, [r7, #4]
 8005060:	691b      	ldr	r3, [r3, #16]
 8005062:	00db      	lsls	r3, r3, #3
 8005064:	4937      	ldr	r1, [pc, #220]	@ (8005144 <HAL_RCC_OscConfig+0x274>)
 8005066:	4313      	orrs	r3, r2
 8005068:	600b      	str	r3, [r1, #0]
      if ((__HAL_RCC_GET_FLAG(RCC_FLAG_HSIRDY) != RESET) && (RCC_OscInitStruct->HSIState != RCC_HSI_ON))
 800506a:	e03a      	b.n	80050e2 <HAL_RCC_OscConfig+0x212>
      }
    }
    else
    {
      /* Check the HSI State */
      if ((RCC_OscInitStruct->HSIState) != RCC_HSI_OFF)
 800506c:	687b      	ldr	r3, [r7, #4]
 800506e:	68db      	ldr	r3, [r3, #12]
 8005070:	2b00      	cmp	r3, #0
 8005072:	d020      	beq.n	80050b6 <HAL_RCC_OscConfig+0x1e6>
      {
        /* Enable the Internal High Speed oscillator (HSI). */
        __HAL_RCC_HSI_ENABLE();
 8005074:	4b34      	ldr	r3, [pc, #208]	@ (8005148 <HAL_RCC_OscConfig+0x278>)
 8005076:	2201      	movs	r2, #1
 8005078:	601a      	str	r2, [r3, #0]

        /* Get Start Tick*/
        tickstart = HAL_GetTick();
 800507a:	f7fd fc19 	bl	80028b0 <HAL_GetTick>
 800507e:	6138      	str	r0, [r7, #16]

        /* Wait till HSI is ready */
        while (__HAL_RCC_GET_FLAG(RCC_FLAG_HSIRDY) == RESET)
 8005080:	e008      	b.n	8005094 <HAL_RCC_OscConfig+0x1c4>
        {
          if ((HAL_GetTick() - tickstart) > HSI_TIMEOUT_VALUE)
 8005082:	f7fd fc15 	bl	80028b0 <HAL_GetTick>
 8005086:	4602      	mov	r2, r0
 8005088:	693b      	ldr	r3, [r7, #16]
 800508a:	1ad3      	subs	r3, r2, r3
 800508c:	2b02      	cmp	r3, #2
 800508e:	d901      	bls.n	8005094 <HAL_RCC_OscConfig+0x1c4>
          {
            return HAL_TIMEOUT;
 8005090:	2303      	movs	r3, #3
 8005092:	e1b4      	b.n	80053fe <HAL_RCC_OscConfig+0x52e>
        while (__HAL_RCC_GET_FLAG(RCC_FLAG_HSIRDY) == RESET)
 8005094:	4b2b      	ldr	r3, [pc, #172]	@ (8005144 <HAL_RCC_OscConfig+0x274>)
 8005096:	681b      	ldr	r3, [r3, #0]
 8005098:	f003 0302 	and.w	r3, r3, #2
 800509c:	2b00      	cmp	r3, #0
 800509e:	d0f0      	beq.n	8005082 <HAL_RCC_OscConfig+0x1b2>
          }
        }

        /* Adjusts the Internal High Speed oscillator (HSI) calibration value.*/
        __HAL_RCC_HSI_CALIBRATIONVALUE_ADJUST(RCC_OscInitStruct->HSICalibrationValue);
 80050a0:	4b28      	ldr	r3, [pc, #160]	@ (8005144 <HAL_RCC_OscConfig+0x274>)
 80050a2:	681b      	ldr	r3, [r3, #0]
 80050a4:	f023 02f8 	bic.w	r2, r3, #248	@ 0xf8
 80050a8:	687b      	ldr	r3, [r7, #4]
 80050aa:	691b      	ldr	r3, [r3, #16]
 80050ac:	00db      	lsls	r3, r3, #3
 80050ae:	4925      	ldr	r1, [pc, #148]	@ (8005144 <HAL_RCC_OscConfig+0x274>)
 80050b0:	4313      	orrs	r3, r2
 80050b2:	600b      	str	r3, [r1, #0]
 80050b4:	e015      	b.n	80050e2 <HAL_RCC_OscConfig+0x212>
      }
      else
      {
        /* Disable the Internal High Speed oscillator (HSI). */
        __HAL_RCC_HSI_DISABLE();
 80050b6:	4b24      	ldr	r3, [pc, #144]	@ (8005148 <HAL_RCC_OscConfig+0x278>)
 80050b8:	2200      	movs	r2, #0
 80050ba:	601a      	str	r2, [r3, #0]

        /* Get Start Tick*/
        tickstart = HAL_GetTick();
 80050bc:	f7fd fbf8 	bl	80028b0 <HAL_GetTick>
 80050c0:	6138      	str	r0, [r7, #16]

        /* Wait till HSI is ready */
        while (__HAL_RCC_GET_FLAG(RCC_FLAG_HSIRDY) != RESET)
 80050c2:	e008      	b.n	80050d6 <HAL_RCC_OscConfig+0x206>
        {
          if ((HAL_GetTick() - tickstart) > HSI_TIMEOUT_VALUE)
 80050c4:	f7fd fbf4 	bl	80028b0 <HAL_GetTick>
 80050c8:	4602      	mov	r2, r0
 80050ca:	693b      	ldr	r3, [r7, #16]
 80050cc:	1ad3      	subs	r3, r2, r3
 80050ce:	2b02      	cmp	r3, #2
 80050d0:	d901      	bls.n	80050d6 <HAL_RCC_OscConfig+0x206>
          {
            return HAL_TIMEOUT;
 80050d2:	2303      	movs	r3, #3
 80050d4:	e193      	b.n	80053fe <HAL_RCC_OscConfig+0x52e>
        while (__HAL_RCC_GET_FLAG(RCC_FLAG_HSIRDY) != RESET)
 80050d6:	4b1b      	ldr	r3, [pc, #108]	@ (8005144 <HAL_RCC_OscConfig+0x274>)
 80050d8:	681b      	ldr	r3, [r3, #0]
 80050da:	f003 0302 	and.w	r3, r3, #2
 80050de:	2b00      	cmp	r3, #0
 80050e0:	d1f0      	bne.n	80050c4 <HAL_RCC_OscConfig+0x1f4>
        }
      }
    }
  }
  /*------------------------------ LSI Configuration -------------------------*/
  if (((RCC_OscInitStruct->OscillatorType) & RCC_OSCILLATORTYPE_LSI) == RCC_OSCILLATORTYPE_LSI)
 80050e2:	687b      	ldr	r3, [r7, #4]
 80050e4:	681b      	ldr	r3, [r3, #0]
 80050e6:	f003 0308 	and.w	r3, r3, #8
 80050ea:	2b00      	cmp	r3, #0
 80050ec:	d036      	beq.n	800515c <HAL_RCC_OscConfig+0x28c>
  {
    /* Check the parameters */
    assert_param(IS_RCC_LSI(RCC_OscInitStruct->LSIState));

    /* Check the LSI State */
    if ((RCC_OscInitStruct->LSIState) != RCC_LSI_OFF)
 80050ee:	687b      	ldr	r3, [r7, #4]
 80050f0:	695b      	ldr	r3, [r3, #20]
 80050f2:	2b00      	cmp	r3, #0
 80050f4:	d016      	beq.n	8005124 <HAL_RCC_OscConfig+0x254>
    {
      /* Enable the Internal Low Speed oscillator (LSI). */
      __HAL_RCC_LSI_ENABLE();
 80050f6:	4b15      	ldr	r3, [pc, #84]	@ (800514c <HAL_RCC_OscConfig+0x27c>)
 80050f8:	2201      	movs	r2, #1
 80050fa:	601a      	str	r2, [r3, #0]

      /* Get Start Tick*/
      tickstart = HAL_GetTick();
 80050fc:	f7fd fbd8 	bl	80028b0 <HAL_GetTick>
 8005100:	6138      	str	r0, [r7, #16]

      /* Wait till LSI is ready */
      while (__HAL_RCC_GET_FLAG(RCC_FLAG_LSIRDY) == RESET)
 8005102:	e008      	b.n	8005116 <HAL_RCC_OscConfig+0x246>
      {
        if ((HAL_GetTick() - tickstart) > LSI_TIMEOUT_VALUE)
 8005104:	f7fd fbd4 	bl	80028b0 <HAL_GetTick>
 8005108:	4602      	mov	r2, r0
 800510a:	693b      	ldr	r3, [r7, #16]
 800510c:	1ad3      	subs	r3, r2, r3
 800510e:	2b02      	cmp	r3, #2
 8005110:	d901      	bls.n	8005116 <HAL_RCC_OscConfig+0x246>
        {
          return HAL_TIMEOUT;
 8005112:	2303      	movs	r3, #3
 8005114:	e173      	b.n	80053fe <HAL_RCC_OscConfig+0x52e>
      while (__HAL_RCC_GET_FLAG(RCC_FLAG_LSIRDY) == RESET)
 8005116:	4b0b      	ldr	r3, [pc, #44]	@ (8005144 <HAL_RCC_OscConfig+0x274>)
 8005118:	6f5b      	ldr	r3, [r3, #116]	@ 0x74
 800511a:	f003 0302 	and.w	r3, r3, #2
 800511e:	2b00      	cmp	r3, #0
 8005120:	d0f0      	beq.n	8005104 <HAL_RCC_OscConfig+0x234>
 8005122:	e01b      	b.n	800515c <HAL_RCC_OscConfig+0x28c>
      }
    }
    else
    {
      /* Disable the Internal Low Speed oscillator (LSI). */
      __HAL_RCC_LSI_DISABLE();
 8005124:	4b09      	ldr	r3, [pc, #36]	@ (800514c <HAL_RCC_OscConfig+0x27c>)
 8005126:	2200      	movs	r2, #0
 8005128:	601a      	str	r2, [r3, #0]

      /* Get Start Tick*/
      tickstart = HAL_GetTick();
 800512a:	f7fd fbc1 	bl	80028b0 <HAL_GetTick>
 800512e:	6138      	str	r0, [r7, #16]

      /* Wait till LSI is ready */
      while (__HAL_RCC_GET_FLAG(RCC_FLAG_LSIRDY) != RESET)
 8005130:	e00e      	b.n	8005150 <HAL_RCC_OscConfig+0x280>
      {
        if ((HAL_GetTick() - tickstart) > LSI_TIMEOUT_VALUE)
 8005132:	f7fd fbbd 	bl	80028b0 <HAL_GetTick>
 8005136:	4602      	mov	r2, r0
 8005138:	693b      	ldr	r3, [r7, #16]
 800513a:	1ad3      	subs	r3, r2, r3
 800513c:	2b02      	cmp	r3, #2
 800513e:	d907      	bls.n	8005150 <HAL_RCC_OscConfig+0x280>
        {
          return HAL_TIMEOUT;
 8005140:	2303      	movs	r3, #3
 8005142:	e15c      	b.n	80053fe <HAL_RCC_OscConfig+0x52e>
 8005144:	40023800 	.word	0x40023800
 8005148:	42470000 	.word	0x42470000
 800514c:	42470e80 	.word	0x42470e80
      while (__HAL_RCC_GET_FLAG(RCC_FLAG_LSIRDY) != RESET)
 8005150:	4b8a      	ldr	r3, [pc, #552]	@ (800537c <HAL_RCC_OscConfig+0x4ac>)
 8005152:	6f5b      	ldr	r3, [r3, #116]	@ 0x74
 8005154:	f003 0302 	and.w	r3, r3, #2
 8005158:	2b00      	cmp	r3, #0
 800515a:	d1ea      	bne.n	8005132 <HAL_RCC_OscConfig+0x262>
        }
      }
    }
  }
  /*------------------------------ LSE Configuration -------------------------*/
  if (((RCC_OscInitStruct->OscillatorType) & RCC_OSCILLATORTYPE_LSE) == RCC_OSCILLATORTYPE_LSE)
 800515c:	687b      	ldr	r3, [r7, #4]
 800515e:	681b      	ldr	r3, [r3, #0]
 8005160:	f003 0304 	and.w	r3, r3, #4
 8005164:	2b00      	cmp	r3, #0
 8005166:	f000 8097 	beq.w	8005298 <HAL_RCC_OscConfig+0x3c8>
  {
    FlagStatus       pwrclkchanged = RESET;
 800516a:	2300      	movs	r3, #0
 800516c:	75fb      	strb	r3, [r7, #23]
    /* Check the parameters */
    assert_param(IS_RCC_LSE(RCC_OscInitStruct->LSEState));

    /* Update LSE configuration in Backup Domain control register    */
    /* Requires to enable write access to Backup Domain of necessary */
    if (__HAL_RCC_PWR_IS_CLK_DISABLED())
 800516e:	4b83      	ldr	r3, [pc, #524]	@ (800537c <HAL_RCC_OscConfig+0x4ac>)
 8005170:	6c1b      	ldr	r3, [r3, #64]	@ 0x40
 8005172:	f003 5380 	and.w	r3, r3, #268435456	@ 0x10000000
 8005176:	2b00      	cmp	r3, #0
 8005178:	d10f      	bne.n	800519a <HAL_RCC_OscConfig+0x2ca>
    {
      __HAL_RCC_PWR_CLK_ENABLE();
 800517a:	2300      	movs	r3, #0
 800517c:	60bb      	str	r3, [r7, #8]
 800517e:	4b7f      	ldr	r3, [pc, #508]	@ (800537c <HAL_RCC_OscConfig+0x4ac>)
 8005180:	6c1b      	ldr	r3, [r3, #64]	@ 0x40
 8005182:	4a7e      	ldr	r2, [pc, #504]	@ (800537c <HAL_RCC_OscConfig+0x4ac>)
 8005184:	f043 5380 	orr.w	r3, r3, #268435456	@ 0x10000000
 8005188:	6413      	str	r3, [r2, #64]	@ 0x40
 800518a:	4b7c      	ldr	r3, [pc, #496]	@ (800537c <HAL_RCC_OscConfig+0x4ac>)
 800518c:	6c1b      	ldr	r3, [r3, #64]	@ 0x40
 800518e:	f003 5380 	and.w	r3, r3, #268435456	@ 0x10000000
 8005192:	60bb      	str	r3, [r7, #8]
 8005194:	68bb      	ldr	r3, [r7, #8]
      pwrclkchanged = SET;
 8005196:	2301      	movs	r3, #1
 8005198:	75fb      	strb	r3, [r7, #23]
    }

    if (HAL_IS_BIT_CLR(PWR->CR, PWR_CR_DBP))
 800519a:	4b79      	ldr	r3, [pc, #484]	@ (8005380 <HAL_RCC_OscConfig+0x4b0>)
 800519c:	681b      	ldr	r3, [r3, #0]
 800519e:	f403 7380 	and.w	r3, r3, #256	@ 0x100
 80051a2:	2b00      	cmp	r3, #0
 80051a4:	d118      	bne.n	80051d8 <HAL_RCC_OscConfig+0x308>
    {
      /* Enable write access to Backup domain */
      SET_BIT(PWR->CR, PWR_CR_DBP);
 80051a6:	4b76      	ldr	r3, [pc, #472]	@ (8005380 <HAL_RCC_OscConfig+0x4b0>)
 80051a8:	681b      	ldr	r3, [r3, #0]
 80051aa:	4a75      	ldr	r2, [pc, #468]	@ (8005380 <HAL_RCC_OscConfig+0x4b0>)
 80051ac:	f443 7380 	orr.w	r3, r3, #256	@ 0x100
 80051b0:	6013      	str	r3, [r2, #0]

      /* Wait for Backup domain Write protection disable */
      tickstart = HAL_GetTick();
 80051b2:	f7fd fb7d 	bl	80028b0 <HAL_GetTick>
 80051b6:	6138      	str	r0, [r7, #16]

      while (HAL_IS_BIT_CLR(PWR->CR, PWR_CR_DBP))
 80051b8:	e008      	b.n	80051cc <HAL_RCC_OscConfig+0x2fc>
      {
        if ((HAL_GetTick() - tickstart) > RCC_DBP_TIMEOUT_VALUE)
 80051ba:	f7fd fb79 	bl	80028b0 <HAL_GetTick>
 80051be:	4602      	mov	r2, r0
 80051c0:	693b      	ldr	r3, [r7, #16]
 80051c2:	1ad3      	subs	r3, r2, r3
 80051c4:	2b02      	cmp	r3, #2
 80051c6:	d901      	bls.n	80051cc <HAL_RCC_OscConfig+0x2fc>
        {
          return HAL_TIMEOUT;
 80051c8:	2303      	movs	r3, #3
 80051ca:	e118      	b.n	80053fe <HAL_RCC_OscConfig+0x52e>
      while (HAL_IS_BIT_CLR(PWR->CR, PWR_CR_DBP))
 80051cc:	4b6c      	ldr	r3, [pc, #432]	@ (8005380 <HAL_RCC_OscConfig+0x4b0>)
 80051ce:	681b      	ldr	r3, [r3, #0]
 80051d0:	f403 7380 	and.w	r3, r3, #256	@ 0x100
 80051d4:	2b00      	cmp	r3, #0
 80051d6:	d0f0      	beq.n	80051ba <HAL_RCC_OscConfig+0x2ea>
        }
      }
    }

    /* Set the new LSE configuration -----------------------------------------*/
    __HAL_RCC_LSE_CONFIG(RCC_OscInitStruct->LSEState);
 80051d8:	687b      	ldr	r3, [r7, #4]
 80051da:	689b      	ldr	r3, [r3, #8]
 80051dc:	2b01      	cmp	r3, #1
 80051de:	d106      	bne.n	80051ee <HAL_RCC_OscConfig+0x31e>
 80051e0:	4b66      	ldr	r3, [pc, #408]	@ (800537c <HAL_RCC_OscConfig+0x4ac>)
 80051e2:	6f1b      	ldr	r3, [r3, #112]	@ 0x70
 80051e4:	4a65      	ldr	r2, [pc, #404]	@ (800537c <HAL_RCC_OscConfig+0x4ac>)
 80051e6:	f043 0301 	orr.w	r3, r3, #1
 80051ea:	6713      	str	r3, [r2, #112]	@ 0x70
 80051ec:	e01c      	b.n	8005228 <HAL_RCC_OscConfig+0x358>
 80051ee:	687b      	ldr	r3, [r7, #4]
 80051f0:	689b      	ldr	r3, [r3, #8]
 80051f2:	2b05      	cmp	r3, #5
 80051f4:	d10c      	bne.n	8005210 <HAL_RCC_OscConfig+0x340>
 80051f6:	4b61      	ldr	r3, [pc, #388]	@ (800537c <HAL_RCC_OscConfig+0x4ac>)
 80051f8:	6f1b      	ldr	r3, [r3, #112]	@ 0x70
 80051fa:	4a60      	ldr	r2, [pc, #384]	@ (800537c <HAL_RCC_OscConfig+0x4ac>)
 80051fc:	f043 0304 	orr.w	r3, r3, #4
 8005200:	6713      	str	r3, [r2, #112]	@ 0x70
 8005202:	4b5e      	ldr	r3, [pc, #376]	@ (800537c <HAL_RCC_OscConfig+0x4ac>)
 8005204:	6f1b      	ldr	r3, [r3, #112]	@ 0x70
 8005206:	4a5d      	ldr	r2, [pc, #372]	@ (800537c <HAL_RCC_OscConfig+0x4ac>)
 8005208:	f043 0301 	orr.w	r3, r3, #1
 800520c:	6713      	str	r3, [r2, #112]	@ 0x70
 800520e:	e00b      	b.n	8005228 <HAL_RCC_OscConfig+0x358>
 8005210:	4b5a      	ldr	r3, [pc, #360]	@ (800537c <HAL_RCC_OscConfig+0x4ac>)
 8005212:	6f1b      	ldr	r3, [r3, #112]	@ 0x70
 8005214:	4a59      	ldr	r2, [pc, #356]	@ (800537c <HAL_RCC_OscConfig+0x4ac>)
 8005216:	f023 0301 	bic.w	r3, r3, #1
 800521a:	6713      	str	r3, [r2, #112]	@ 0x70
 800521c:	4b57      	ldr	r3, [pc, #348]	@ (800537c <HAL_RCC_OscConfig+0x4ac>)
 800521e:	6f1b      	ldr	r3, [r3, #112]	@ 0x70
 8005220:	4a56      	ldr	r2, [pc, #344]	@ (800537c <HAL_RCC_OscConfig+0x4ac>)
 8005222:	f023 0304 	bic.w	r3, r3, #4
 8005226:	6713      	str	r3, [r2, #112]	@ 0x70
    /* Check the LSE State */
    if ((RCC_OscInitStruct->LSEState) != RCC_LSE_OFF)
 8005228:	687b      	ldr	r3, [r7, #4]
 800522a:	689b      	ldr	r3, [r3, #8]
 800522c:	2b00      	cmp	r3, #0
 800522e:	d015      	beq.n	800525c <HAL_RCC_OscConfig+0x38c>
    {
      /* Get Start Tick*/
      tickstart = HAL_GetTick();
 8005230:	f7fd fb3e 	bl	80028b0 <HAL_GetTick>
 8005234:	6138      	str	r0, [r7, #16]

      /* Wait till LSE is ready */
      while (__HAL_RCC_GET_FLAG(RCC_FLAG_LSERDY) == RESET)
 8005236:	e00a      	b.n	800524e <HAL_RCC_OscConfig+0x37e>
      {
        if ((HAL_GetTick() - tickstart) > RCC_LSE_TIMEOUT_VALUE)
 8005238:	f7fd fb3a 	bl	80028b0 <HAL_GetTick>
 800523c:	4602      	mov	r2, r0
 800523e:	693b      	ldr	r3, [r7, #16]
 8005240:	1ad3      	subs	r3, r2, r3
 8005242:	f241 3288 	movw	r2, #5000	@ 0x1388
 8005246:	4293      	cmp	r3, r2
 8005248:	d901      	bls.n	800524e <HAL_RCC_OscConfig+0x37e>
        {
          return HAL_TIMEOUT;
 800524a:	2303      	movs	r3, #3
 800524c:	e0d7      	b.n	80053fe <HAL_RCC_OscConfig+0x52e>
      while (__HAL_RCC_GET_FLAG(RCC_FLAG_LSERDY) == RESET)
 800524e:	4b4b      	ldr	r3, [pc, #300]	@ (800537c <HAL_RCC_OscConfig+0x4ac>)
 8005250:	6f1b      	ldr	r3, [r3, #112]	@ 0x70
 8005252:	f003 0302 	and.w	r3, r3, #2
 8005256:	2b00      	cmp	r3, #0
 8005258:	d0ee      	beq.n	8005238 <HAL_RCC_OscConfig+0x368>
 800525a:	e014      	b.n	8005286 <HAL_RCC_OscConfig+0x3b6>
      }
    }
    else
    {
      /* Get Start Tick*/
      tickstart = HAL_GetTick();
 800525c:	f7fd fb28 	bl	80028b0 <HAL_GetTick>
 8005260:	6138      	str	r0, [r7, #16]

      /* Wait till LSE is ready */
      while (__HAL_RCC_GET_FLAG(RCC_FLAG_LSERDY) != RESET)
 8005262:	e00a      	b.n	800527a <HAL_RCC_OscConfig+0x3aa>
      {
        if ((HAL_GetTick() - tickstart) > RCC_LSE_TIMEOUT_VALUE)
 8005264:	f7fd fb24 	bl	80028b0 <HAL_GetTick>
 8005268:	4602      	mov	r2, r0
 800526a:	693b      	ldr	r3, [r7, #16]
 800526c:	1ad3      	subs	r3, r2, r3
 800526e:	f241 3288 	movw	r2, #5000	@ 0x1388
 8005272:	4293      	cmp	r3, r2
 8005274:	d901      	bls.n	800527a <HAL_RCC_OscConfig+0x3aa>
        {
          return HAL_TIMEOUT;
 8005276:	2303      	movs	r3, #3
 8005278:	e0c1      	b.n	80053fe <HAL_RCC_OscConfig+0x52e>
      while (__HAL_RCC_GET_FLAG(RCC_FLAG_LSERDY) != RESET)
 800527a:	4b40      	ldr	r3, [pc, #256]	@ (800537c <HAL_RCC_OscConfig+0x4ac>)
 800527c:	6f1b      	ldr	r3, [r3, #112]	@ 0x70
 800527e:	f003 0302 	and.w	r3, r3, #2
 8005282:	2b00      	cmp	r3, #0
 8005284:	d1ee      	bne.n	8005264 <HAL_RCC_OscConfig+0x394>
        }
      }
    }

    /* Restore clock configuration if changed */
    if (pwrclkchanged == SET)
 8005286:	7dfb      	ldrb	r3, [r7, #23]
 8005288:	2b01      	cmp	r3, #1
 800528a:	d105      	bne.n	8005298 <HAL_RCC_OscConfig+0x3c8>
    {
      __HAL_RCC_PWR_CLK_DISABLE();
 800528c:	4b3b      	ldr	r3, [pc, #236]	@ (800537c <HAL_RCC_OscConfig+0x4ac>)
 800528e:	6c1b      	ldr	r3, [r3, #64]	@ 0x40
 8005290:	4a3a      	ldr	r2, [pc, #232]	@ (800537c <HAL_RCC_OscConfig+0x4ac>)
 8005292:	f023 5380 	bic.w	r3, r3, #268435456	@ 0x10000000
 8005296:	6413      	str	r3, [r2, #64]	@ 0x40
    }
  }
  /*-------------------------------- PLL Configuration -----------------------*/
  /* Check the parameters */
  assert_param(IS_RCC_PLL(RCC_OscInitStruct->PLL.PLLState));
  if ((RCC_OscInitStruct->PLL.PLLState) != RCC_PLL_NONE)
 8005298:	687b      	ldr	r3, [r7, #4]
 800529a:	699b      	ldr	r3, [r3, #24]
 800529c:	2b00      	cmp	r3, #0
 800529e:	f000 80ad 	beq.w	80053fc <HAL_RCC_OscConfig+0x52c>
  {
    /* Check if the PLL is used as system clock or not */
    if (__HAL_RCC_GET_SYSCLK_SOURCE() != RCC_CFGR_SWS_PLL)
 80052a2:	4b36      	ldr	r3, [pc, #216]	@ (800537c <HAL_RCC_OscConfig+0x4ac>)
 80052a4:	689b      	ldr	r3, [r3, #8]
 80052a6:	f003 030c 	and.w	r3, r3, #12
 80052aa:	2b08      	cmp	r3, #8
 80052ac:	d060      	beq.n	8005370 <HAL_RCC_OscConfig+0x4a0>
    {
      if ((RCC_OscInitStruct->PLL.PLLState) == RCC_PLL_ON)
 80052ae:	687b      	ldr	r3, [r7, #4]
 80052b0:	699b      	ldr	r3, [r3, #24]
 80052b2:	2b02      	cmp	r3, #2
 80052b4:	d145      	bne.n	8005342 <HAL_RCC_OscConfig+0x472>
        assert_param(IS_RCC_PLLP_VALUE(RCC_OscInitStruct->PLL.PLLP));
        assert_param(IS_RCC_PLLQ_VALUE(RCC_OscInitStruct->PLL.PLLQ));
        assert_param(IS_RCC_PLLR_VALUE(RCC_OscInitStruct->PLL.PLLR));

        /* Disable the main PLL. */
        __HAL_RCC_PLL_DISABLE();
 80052b6:	4b33      	ldr	r3, [pc, #204]	@ (8005384 <HAL_RCC_OscConfig+0x4b4>)
 80052b8:	2200      	movs	r2, #0
 80052ba:	601a      	str	r2, [r3, #0]

        /* Get Start Tick*/
        tickstart = HAL_GetTick();
 80052bc:	f7fd faf8 	bl	80028b0 <HAL_GetTick>
 80052c0:	6138      	str	r0, [r7, #16]

        /* Wait till PLL is ready */
        while (__HAL_RCC_GET_FLAG(RCC_FLAG_PLLRDY) != RESET)
 80052c2:	e008      	b.n	80052d6 <HAL_RCC_OscConfig+0x406>
        {
          if ((HAL_GetTick() - tickstart) > PLL_TIMEOUT_VALUE)
 80052c4:	f7fd faf4 	bl	80028b0 <HAL_GetTick>
 80052c8:	4602      	mov	r2, r0
 80052ca:	693b      	ldr	r3, [r7, #16]
 80052cc:	1ad3      	subs	r3, r2, r3
 80052ce:	2b02      	cmp	r3, #2
 80052d0:	d901      	bls.n	80052d6 <HAL_RCC_OscConfig+0x406>
          {
            return HAL_TIMEOUT;
 80052d2:	2303      	movs	r3, #3
 80052d4:	e093      	b.n	80053fe <HAL_RCC_OscConfig+0x52e>
        while (__HAL_RCC_GET_FLAG(RCC_FLAG_PLLRDY) != RESET)
 80052d6:	4b29      	ldr	r3, [pc, #164]	@ (800537c <HAL_RCC_OscConfig+0x4ac>)
 80052d8:	681b      	ldr	r3, [r3, #0]
 80052da:	f003 7300 	and.w	r3, r3, #33554432	@ 0x2000000
 80052de:	2b00      	cmp	r3, #0
 80052e0:	d1f0      	bne.n	80052c4 <HAL_RCC_OscConfig+0x3f4>
          }
        }

        /* Configure the main PLL clock source, multiplication and division factors. */
        WRITE_REG(RCC->PLLCFGR, (RCC_OscInitStruct->PLL.PLLSource                                            | \
 80052e2:	687b      	ldr	r3, [r7, #4]
 80052e4:	69da      	ldr	r2, [r3, #28]
 80052e6:	687b      	ldr	r3, [r7, #4]
 80052e8:	6a1b      	ldr	r3, [r3, #32]
 80052ea:	431a      	orrs	r2, r3
 80052ec:	687b      	ldr	r3, [r7, #4]
 80052ee:	6a5b      	ldr	r3, [r3, #36]	@ 0x24
 80052f0:	019b      	lsls	r3, r3, #6
 80052f2:	431a      	orrs	r2, r3
 80052f4:	687b      	ldr	r3, [r7, #4]
 80052f6:	6a9b      	ldr	r3, [r3, #40]	@ 0x28
 80052f8:	085b      	lsrs	r3, r3, #1
 80052fa:	3b01      	subs	r3, #1
 80052fc:	041b      	lsls	r3, r3, #16
 80052fe:	431a      	orrs	r2, r3
 8005300:	687b      	ldr	r3, [r7, #4]
 8005302:	6adb      	ldr	r3, [r3, #44]	@ 0x2c
 8005304:	061b      	lsls	r3, r3, #24
 8005306:	431a      	orrs	r2, r3
 8005308:	687b      	ldr	r3, [r7, #4]
 800530a:	6b1b      	ldr	r3, [r3, #48]	@ 0x30
 800530c:	071b      	lsls	r3, r3, #28
 800530e:	491b      	ldr	r1, [pc, #108]	@ (800537c <HAL_RCC_OscConfig+0x4ac>)
 8005310:	4313      	orrs	r3, r2
 8005312:	604b      	str	r3, [r1, #4]
                                 (RCC_OscInitStruct->PLL.PLLN << RCC_PLLCFGR_PLLN_Pos)                       | \
                                 (((RCC_OscInitStruct->PLL.PLLP >> 1U) - 1U) << RCC_PLLCFGR_PLLP_Pos)        | \
                                 (RCC_OscInitStruct->PLL.PLLQ << RCC_PLLCFGR_PLLQ_Pos)                       | \
                                 (RCC_OscInitStruct->PLL.PLLR << RCC_PLLCFGR_PLLR_Pos)));
        /* Enable the main PLL. */
        __HAL_RCC_PLL_ENABLE();
 8005314:	4b1b      	ldr	r3, [pc, #108]	@ (8005384 <HAL_RCC_OscConfig+0x4b4>)
 8005316:	2201      	movs	r2, #1
 8005318:	601a      	str	r2, [r3, #0]

        /* Get Start Tick*/
        tickstart = HAL_GetTick();
 800531a:	f7fd fac9 	bl	80028b0 <HAL_GetTick>
 800531e:	6138      	str	r0, [r7, #16]

        /* Wait till PLL is ready */
        while (__HAL_RCC_GET_FLAG(RCC_FLAG_PLLRDY) == RESET)
 8005320:	e008      	b.n	8005334 <HAL_RCC_OscConfig+0x464>
        {
          if ((HAL_GetTick() - tickstart) > PLL_TIMEOUT_VALUE)
 8005322:	f7fd fac5 	bl	80028b0 <HAL_GetTick>
 8005326:	4602      	mov	r2, r0
 8005328:	693b      	ldr	r3, [r7, #16]
 800532a:	1ad3      	subs	r3, r2, r3
 800532c:	2b02      	cmp	r3, #2
 800532e:	d901      	bls.n	8005334 <HAL_RCC_OscConfig+0x464>
          {
            return HAL_TIMEOUT;
 8005330:	2303      	movs	r3, #3
 8005332:	e064      	b.n	80053fe <HAL_RCC_OscConfig+0x52e>
        while (__HAL_RCC_GET_FLAG(RCC_FLAG_PLLRDY) == RESET)
 8005334:	4b11      	ldr	r3, [pc, #68]	@ (800537c <HAL_RCC_OscConfig+0x4ac>)
 8005336:	681b      	ldr	r3, [r3, #0]
 8005338:	f003 7300 	and.w	r3, r3, #33554432	@ 0x2000000
 800533c:	2b00      	cmp	r3, #0
 800533e:	d0f0      	beq.n	8005322 <HAL_RCC_OscConfig+0x452>
 8005340:	e05c      	b.n	80053fc <HAL_RCC_OscConfig+0x52c>
        }
      }
      else
      {
        /* Disable the main PLL. */
        __HAL_RCC_PLL_DISABLE();
 8005342:	4b10      	ldr	r3, [pc, #64]	@ (8005384 <HAL_RCC_OscConfig+0x4b4>)
 8005344:	2200      	movs	r2, #0
 8005346:	601a      	str	r2, [r3, #0]

        /* Get Start Tick*/
        tickstart = HAL_GetTick();
 8005348:	f7fd fab2 	bl	80028b0 <HAL_GetTick>
 800534c:	6138      	str	r0, [r7, #16]

        /* Wait till PLL is ready */
        while (__HAL_RCC_GET_FLAG(RCC_FLAG_PLLRDY) != RESET)
 800534e:	e008      	b.n	8005362 <HAL_RCC_OscConfig+0x492>
        {
          if ((HAL_GetTick() - tickstart) > PLL_TIMEOUT_VALUE)
 8005350:	f7fd faae 	bl	80028b0 <HAL_GetTick>
 8005354:	4602      	mov	r2, r0
 8005356:	693b      	ldr	r3, [r7, #16]
 8005358:	1ad3      	subs	r3, r2, r3
 800535a:	2b02      	cmp	r3, #2
 800535c:	d901      	bls.n	8005362 <HAL_RCC_OscConfig+0x492>
          {
            return HAL_TIMEOUT;
 800535e:	2303      	movs	r3, #3
 8005360:	e04d      	b.n	80053fe <HAL_RCC_OscConfig+0x52e>
        while (__HAL_RCC_GET_FLAG(RCC_FLAG_PLLRDY) != RESET)
 8005362:	4b06      	ldr	r3, [pc, #24]	@ (800537c <HAL_RCC_OscConfig+0x4ac>)
 8005364:	681b      	ldr	r3, [r3, #0]
 8005366:	f003 7300 	and.w	r3, r3, #33554432	@ 0x2000000
 800536a:	2b00      	cmp	r3, #0
 800536c:	d1f0      	bne.n	8005350 <HAL_RCC_OscConfig+0x480>
 800536e:	e045      	b.n	80053fc <HAL_RCC_OscConfig+0x52c>
      }
    }
    else
    {
      /* Check if there is a request to disable the PLL used as System clock source */
      if ((RCC_OscInitStruct->PLL.PLLState) == RCC_PLL_OFF)
 8005370:	687b      	ldr	r3, [r7, #4]
 8005372:	699b      	ldr	r3, [r3, #24]
 8005374:	2b01      	cmp	r3, #1
 8005376:	d107      	bne.n	8005388 <HAL_RCC_OscConfig+0x4b8>
      {
        return HAL_ERROR;
 8005378:	2301      	movs	r3, #1
 800537a:	e040      	b.n	80053fe <HAL_RCC_OscConfig+0x52e>
 800537c:	40023800 	.word	0x40023800
 8005380:	40007000 	.word	0x40007000
 8005384:	42470060 	.word	0x42470060
      }
      else
      {
        /* Do not return HAL_ERROR if request repeats the current configuration */
        pll_config = RCC->PLLCFGR;
 8005388:	4b1f      	ldr	r3, [pc, #124]	@ (8005408 <HAL_RCC_OscConfig+0x538>)
 800538a:	685b      	ldr	r3, [r3, #4]
 800538c:	60fb      	str	r3, [r7, #12]
#if defined (RCC_PLLCFGR_PLLR)
        if (((RCC_OscInitStruct->PLL.PLLState) == RCC_PLL_OFF) ||
 800538e:	687b      	ldr	r3, [r7, #4]
 8005390:	699b      	ldr	r3, [r3, #24]
 8005392:	2b01      	cmp	r3, #1
 8005394:	d030      	beq.n	80053f8 <HAL_RCC_OscConfig+0x528>
            (READ_BIT(pll_config, RCC_PLLCFGR_PLLSRC) != RCC_OscInitStruct->PLL.PLLSource) ||
 8005396:	68fb      	ldr	r3, [r7, #12]
 8005398:	f403 0280 	and.w	r2, r3, #4194304	@ 0x400000
 800539c:	687b      	ldr	r3, [r7, #4]
 800539e:	69db      	ldr	r3, [r3, #28]
        if (((RCC_OscInitStruct->PLL.PLLState) == RCC_PLL_OFF) ||
 80053a0:	429a      	cmp	r2, r3
 80053a2:	d129      	bne.n	80053f8 <HAL_RCC_OscConfig+0x528>
            (READ_BIT(pll_config, RCC_PLLCFGR_PLLM) != (RCC_OscInitStruct->PLL.PLLM) << RCC_PLLCFGR_PLLM_Pos) ||
 80053a4:	68fb      	ldr	r3, [r7, #12]
 80053a6:	f003 023f 	and.w	r2, r3, #63	@ 0x3f
 80053aa:	687b      	ldr	r3, [r7, #4]
 80053ac:	6a1b      	ldr	r3, [r3, #32]
            (READ_BIT(pll_config, RCC_PLLCFGR_PLLSRC) != RCC_OscInitStruct->PLL.PLLSource) ||
 80053ae:	429a      	cmp	r2, r3
 80053b0:	d122      	bne.n	80053f8 <HAL_RCC_OscConfig+0x528>
            (READ_BIT(pll_config, RCC_PLLCFGR_PLLN) != (RCC_OscInitStruct->PLL.PLLN) << RCC_PLLCFGR_PLLN_Pos) ||
 80053b2:	68fa      	ldr	r2, [r7, #12]
 80053b4:	f647 73c0 	movw	r3, #32704	@ 0x7fc0
 80053b8:	4013      	ands	r3, r2
 80053ba:	687a      	ldr	r2, [r7, #4]
 80053bc:	6a52      	ldr	r2, [r2, #36]	@ 0x24
 80053be:	0192      	lsls	r2, r2, #6
            (READ_BIT(pll_config, RCC_PLLCFGR_PLLM) != (RCC_OscInitStruct->PLL.PLLM) << RCC_PLLCFGR_PLLM_Pos) ||
 80053c0:	4293      	cmp	r3, r2
 80053c2:	d119      	bne.n	80053f8 <HAL_RCC_OscConfig+0x528>
            (READ_BIT(pll_config, RCC_PLLCFGR_PLLP) != (((RCC_OscInitStruct->PLL.PLLP >> 1U) - 1U)) << RCC_PLLCFGR_PLLP_Pos) ||
 80053c4:	68fb      	ldr	r3, [r7, #12]
 80053c6:	f403 3240 	and.w	r2, r3, #196608	@ 0x30000
 80053ca:	687b      	ldr	r3, [r7, #4]
 80053cc:	6a9b      	ldr	r3, [r3, #40]	@ 0x28
 80053ce:	085b      	lsrs	r3, r3, #1
 80053d0:	3b01      	subs	r3, #1
 80053d2:	041b      	lsls	r3, r3, #16
            (READ_BIT(pll_config, RCC_PLLCFGR_PLLN) != (RCC_OscInitStruct->PLL.PLLN) << RCC_PLLCFGR_PLLN_Pos) ||
 80053d4:	429a      	cmp	r2, r3
 80053d6:	d10f      	bne.n	80053f8 <HAL_RCC_OscConfig+0x528>
            (READ_BIT(pll_config, RCC_PLLCFGR_PLLQ) != (RCC_OscInitStruct->PLL.PLLQ << RCC_PLLCFGR_PLLQ_Pos)) ||
 80053d8:	68fb      	ldr	r3, [r7, #12]
 80053da:	f003 6270 	and.w	r2, r3, #251658240	@ 0xf000000
 80053de:	687b      	ldr	r3, [r7, #4]
 80053e0:	6adb      	ldr	r3, [r3, #44]	@ 0x2c
 80053e2:	061b      	lsls	r3, r3, #24
            (READ_BIT(pll_config, RCC_PLLCFGR_PLLP) != (((RCC_OscInitStruct->PLL.PLLP >> 1U) - 1U)) << RCC_PLLCFGR_PLLP_Pos) ||
 80053e4:	429a      	cmp	r2, r3
 80053e6:	d107      	bne.n	80053f8 <HAL_RCC_OscConfig+0x528>
            (READ_BIT(pll_config, RCC_PLLCFGR_PLLR) != (RCC_OscInitStruct->PLL.PLLR << RCC_PLLCFGR_PLLR_Pos)))
 80053e8:	68fb      	ldr	r3, [r7, #12]
 80053ea:	f003 42e0 	and.w	r2, r3, #1879048192	@ 0x70000000
 80053ee:	687b      	ldr	r3, [r7, #4]
 80053f0:	6b1b      	ldr	r3, [r3, #48]	@ 0x30
 80053f2:	071b      	lsls	r3, r3, #28
            (READ_BIT(pll_config, RCC_PLLCFGR_PLLQ) != (RCC_OscInitStruct->PLL.PLLQ << RCC_PLLCFGR_PLLQ_Pos)) ||
 80053f4:	429a      	cmp	r2, r3
 80053f6:	d001      	beq.n	80053fc <HAL_RCC_OscConfig+0x52c>
            (READ_BIT(pll_config, RCC_PLLCFGR_PLLN) != (RCC_OscInitStruct->PLL.PLLN) << RCC_PLLCFGR_PLLN_Pos) ||
            (READ_BIT(pll_config, RCC_PLLCFGR_PLLP) != (((RCC_OscInitStruct->PLL.PLLP >> 1U) - 1U)) << RCC_PLLCFGR_PLLP_Pos) ||
            (READ_BIT(pll_config, RCC_PLLCFGR_PLLQ) != (RCC_OscInitStruct->PLL.PLLQ << RCC_PLLCFGR_PLLQ_Pos)))
#endif /* RCC_PLLCFGR_PLLR */
        {
          return HAL_ERROR;
 80053f8:	2301      	movs	r3, #1
 80053fa:	e000      	b.n	80053fe <HAL_RCC_OscConfig+0x52e>
        }
      }
    }
  }
  return HAL_OK;
 80053fc:	2300      	movs	r3, #0
}
 80053fe:	4618      	mov	r0, r3
 8005400:	3718      	adds	r7, #24
 8005402:	46bd      	mov	sp, r7
 8005404:	bd80      	pop	{r7, pc}
 8005406:	bf00      	nop
 8005408:	40023800 	.word	0x40023800

0800540c <HAL_UART_Init>:
  * @param  huart  Pointer to a UART_HandleTypeDef structure that contains
  *                the configuration information for the specified UART module.
  * @retval HAL status
  */
HAL_StatusTypeDef HAL_UART_Init(UART_HandleTypeDef *huart)
{
 800540c:	b580      	push	{r7, lr}
 800540e:	b082      	sub	sp, #8
 8005410:	af00      	add	r7, sp, #0
 8005412:	6078      	str	r0, [r7, #4]
  /* Check the UART handle allocation */
  if (huart == NULL)
 8005414:	687b      	ldr	r3, [r7, #4]
 8005416:	2b00      	cmp	r3, #0
 8005418:	d101      	bne.n	800541e <HAL_UART_Init+0x12>
  {
    return HAL_ERROR;
 800541a:	2301      	movs	r3, #1
 800541c:	e042      	b.n	80054a4 <HAL_UART_Init+0x98>
    assert_param(IS_UART_INSTANCE(huart->Instance));
  }
  assert_param(IS_UART_WORD_LENGTH(huart->Init.WordLength));
  assert_param(IS_UART_OVERSAMPLING(huart->Init.OverSampling));

  if (huart->gState == HAL_UART_STATE_RESET)
 800541e:	687b      	ldr	r3, [r7, #4]
 8005420:	f893 3041 	ldrb.w	r3, [r3, #65]	@ 0x41
 8005424:	b2db      	uxtb	r3, r3
 8005426:	2b00      	cmp	r3, #0
 8005428:	d106      	bne.n	8005438 <HAL_UART_Init+0x2c>
  {
    /* Allocate lock resource and initialize it */
    huart->Lock = HAL_UNLOCKED;
 800542a:	687b      	ldr	r3, [r7, #4]
 800542c:	2200      	movs	r2, #0
 800542e:	f883 2040 	strb.w	r2, [r3, #64]	@ 0x40

    /* Init the low level hardware */
    huart->MspInitCallback(huart);
#else
    /* Init the low level hardware : GPIO, CLOCK */
    HAL_UART_MspInit(huart);
 8005432:	6878      	ldr	r0, [r7, #4]
 8005434:	f7fd f848 	bl	80024c8 <HAL_UART_MspInit>
#endif /* (USE_HAL_UART_REGISTER_CALLBACKS) */
  }

  huart->gState = HAL_UART_STATE_BUSY;
 8005438:	687b      	ldr	r3, [r7, #4]
 800543a:	2224      	movs	r2, #36	@ 0x24
 800543c:	f883 2041 	strb.w	r2, [r3, #65]	@ 0x41

  /* Disable the peripheral */
  __HAL_UART_DISABLE(huart);
 8005440:	687b      	ldr	r3, [r7, #4]
 8005442:	681b      	ldr	r3, [r3, #0]
 8005444:	68da      	ldr	r2, [r3, #12]
 8005446:	687b      	ldr	r3, [r7, #4]
 8005448:	681b      	ldr	r3, [r3, #0]
 800544a:	f422 5200 	bic.w	r2, r2, #8192	@ 0x2000
 800544e:	60da      	str	r2, [r3, #12]

  /* Set the UART Communication parameters */
  UART_SetConfig(huart);
 8005450:	6878      	ldr	r0, [r7, #4]
 8005452:	f000 f973 	bl	800573c <UART_SetConfig>

  /* In asynchronous mode, the following bits must be kept cleared:
     - LINEN and CLKEN bits in the USART_CR2 register,
     - SCEN, HDSEL and IREN  bits in the USART_CR3 register.*/
  CLEAR_BIT(huart->Instance->CR2, (USART_CR2_LINEN | USART_CR2_CLKEN));
 8005456:	687b      	ldr	r3, [r7, #4]
 8005458:	681b      	ldr	r3, [r3, #0]
 800545a:	691a      	ldr	r2, [r3, #16]
 800545c:	687b      	ldr	r3, [r7, #4]
 800545e:	681b      	ldr	r3, [r3, #0]
 8005460:	f422 4290 	bic.w	r2, r2, #18432	@ 0x4800
 8005464:	611a      	str	r2, [r3, #16]
  CLEAR_BIT(huart->Instance->CR3, (USART_CR3_SCEN | USART_CR3_HDSEL | USART_CR3_IREN));
 8005466:	687b      	ldr	r3, [r7, #4]
 8005468:	681b      	ldr	r3, [r3, #0]
 800546a:	695a      	ldr	r2, [r3, #20]
 800546c:	687b      	ldr	r3, [r7, #4]
 800546e:	681b      	ldr	r3, [r3, #0]
 8005470:	f022 022a 	bic.w	r2, r2, #42	@ 0x2a
 8005474:	615a      	str	r2, [r3, #20]

  /* Enable the peripheral */
  __HAL_UART_ENABLE(huart);
 8005476:	687b      	ldr	r3, [r7, #4]
 8005478:	681b      	ldr	r3, [r3, #0]
 800547a:	68da      	ldr	r2, [r3, #12]
 800547c:	687b      	ldr	r3, [r7, #4]
 800547e:	681b      	ldr	r3, [r3, #0]
 8005480:	f442 5200 	orr.w	r2, r2, #8192	@ 0x2000
 8005484:	60da      	str	r2, [r3, #12]

  /* Initialize the UART state */
  huart->ErrorCode = HAL_UART_ERROR_NONE;
 8005486:	687b      	ldr	r3, [r7, #4]
 8005488:	2200      	movs	r2, #0
 800548a:	645a      	str	r2, [r3, #68]	@ 0x44
  huart->gState = HAL_UART_STATE_READY;
 800548c:	687b      	ldr	r3, [r7, #4]
 800548e:	2220      	movs	r2, #32
 8005490:	f883 2041 	strb.w	r2, [r3, #65]	@ 0x41
  huart->RxState = HAL_UART_STATE_READY;
 8005494:	687b      	ldr	r3, [r7, #4]
 8005496:	2220      	movs	r2, #32
 8005498:	f883 2042 	strb.w	r2, [r3, #66]	@ 0x42
  huart->RxEventType = HAL_UART_RXEVENT_TC;
 800549c:	687b      	ldr	r3, [r7, #4]
 800549e:	2200      	movs	r2, #0
 80054a0:	635a      	str	r2, [r3, #52]	@ 0x34

  return HAL_OK;
 80054a2:	2300      	movs	r3, #0
}
 80054a4:	4618      	mov	r0, r3
 80054a6:	3708      	adds	r7, #8
 80054a8:	46bd      	mov	sp, r7
 80054aa:	bd80      	pop	{r7, pc}

080054ac <HAL_UART_Transmit>:
  * @param  Size  Amount of data elements (u8 or u16) to be sent
  * @param  Timeout Timeout duration
  * @retval HAL status
  */
HAL_StatusTypeDef HAL_UART_Transmit(UART_HandleTypeDef *huart, const uint8_t *pData, uint16_t Size, uint32_t Timeout)
{
 80054ac:	b580      	push	{r7, lr}
 80054ae:	b08a      	sub	sp, #40	@ 0x28
 80054b0:	af02      	add	r7, sp, #8
 80054b2:	60f8      	str	r0, [r7, #12]
 80054b4:	60b9      	str	r1, [r7, #8]
 80054b6:	603b      	str	r3, [r7, #0]
 80054b8:	4613      	mov	r3, r2
 80054ba:	80fb      	strh	r3, [r7, #6]
  const uint8_t  *pdata8bits;
  const uint16_t *pdata16bits;
  uint32_t tickstart = 0U;
 80054bc:	2300      	movs	r3, #0
 80054be:	617b      	str	r3, [r7, #20]

  /* Check that a Tx process is not already ongoing */
  if (huart->gState == HAL_UART_STATE_READY)
 80054c0:	68fb      	ldr	r3, [r7, #12]
 80054c2:	f893 3041 	ldrb.w	r3, [r3, #65]	@ 0x41
 80054c6:	b2db      	uxtb	r3, r3
 80054c8:	2b20      	cmp	r3, #32
 80054ca:	d175      	bne.n	80055b8 <HAL_UART_Transmit+0x10c>
  {
    if ((pData == NULL) || (Size == 0U))
 80054cc:	68bb      	ldr	r3, [r7, #8]
 80054ce:	2b00      	cmp	r3, #0
 80054d0:	d002      	beq.n	80054d8 <HAL_UART_Transmit+0x2c>
 80054d2:	88fb      	ldrh	r3, [r7, #6]
 80054d4:	2b00      	cmp	r3, #0
 80054d6:	d101      	bne.n	80054dc <HAL_UART_Transmit+0x30>
    {
      return  HAL_ERROR;
 80054d8:	2301      	movs	r3, #1
 80054da:	e06e      	b.n	80055ba <HAL_UART_Transmit+0x10e>
    }

    huart->ErrorCode = HAL_UART_ERROR_NONE;
 80054dc:	68fb      	ldr	r3, [r7, #12]
 80054de:	2200      	movs	r2, #0
 80054e0:	645a      	str	r2, [r3, #68]	@ 0x44
    huart->gState = HAL_UART_STATE_BUSY_TX;
 80054e2:	68fb      	ldr	r3, [r7, #12]
 80054e4:	2221      	movs	r2, #33	@ 0x21
 80054e6:	f883 2041 	strb.w	r2, [r3, #65]	@ 0x41

    /* Init tickstart for timeout management */
    tickstart = HAL_GetTick();
 80054ea:	f7fd f9e1 	bl	80028b0 <HAL_GetTick>
 80054ee:	6178      	str	r0, [r7, #20]

    huart->TxXferSize = Size;
 80054f0:	68fb      	ldr	r3, [r7, #12]
 80054f2:	88fa      	ldrh	r2, [r7, #6]
 80054f4:	849a      	strh	r2, [r3, #36]	@ 0x24
    huart->TxXferCount = Size;
 80054f6:	68fb      	ldr	r3, [r7, #12]
 80054f8:	88fa      	ldrh	r2, [r7, #6]
 80054fa:	84da      	strh	r2, [r3, #38]	@ 0x26

    /* In case of 9bits/No Parity transfer, pData needs to be handled as a uint16_t pointer */
    if ((huart->Init.WordLength == UART_WORDLENGTH_9B) && (huart->Init.Parity == UART_PARITY_NONE))
 80054fc:	68fb      	ldr	r3, [r7, #12]
 80054fe:	689b      	ldr	r3, [r3, #8]
 8005500:	f5b3 5f80 	cmp.w	r3, #4096	@ 0x1000
 8005504:	d108      	bne.n	8005518 <HAL_UART_Transmit+0x6c>
 8005506:	68fb      	ldr	r3, [r7, #12]
 8005508:	691b      	ldr	r3, [r3, #16]
 800550a:	2b00      	cmp	r3, #0
 800550c:	d104      	bne.n	8005518 <HAL_UART_Transmit+0x6c>
    {
      pdata8bits  = NULL;
 800550e:	2300      	movs	r3, #0
 8005510:	61fb      	str	r3, [r7, #28]
      pdata16bits = (const uint16_t *) pData;
 8005512:	68bb      	ldr	r3, [r7, #8]
 8005514:	61bb      	str	r3, [r7, #24]
 8005516:	e003      	b.n	8005520 <HAL_UART_Transmit+0x74>
    }
    else
    {
      pdata8bits  = pData;
 8005518:	68bb      	ldr	r3, [r7, #8]
 800551a:	61fb      	str	r3, [r7, #28]
      pdata16bits = NULL;
 800551c:	2300      	movs	r3, #0
 800551e:	61bb      	str	r3, [r7, #24]
    }

    while (huart->TxXferCount > 0U)
 8005520:	e02e      	b.n	8005580 <HAL_UART_Transmit+0xd4>
    {
      if (UART_WaitOnFlagUntilTimeout(huart, UART_FLAG_TXE, RESET, tickstart, Timeout) != HAL_OK)
 8005522:	683b      	ldr	r3, [r7, #0]
 8005524:	9300      	str	r3, [sp, #0]
 8005526:	697b      	ldr	r3, [r7, #20]
 8005528:	2200      	movs	r2, #0
 800552a:	2180      	movs	r1, #128	@ 0x80
 800552c:	68f8      	ldr	r0, [r7, #12]
 800552e:	f000 f848 	bl	80055c2 <UART_WaitOnFlagUntilTimeout>
 8005532:	4603      	mov	r3, r0
 8005534:	2b00      	cmp	r3, #0
 8005536:	d005      	beq.n	8005544 <HAL_UART_Transmit+0x98>
      {
        huart->gState = HAL_UART_STATE_READY;
 8005538:	68fb      	ldr	r3, [r7, #12]
 800553a:	2220      	movs	r2, #32
 800553c:	f883 2041 	strb.w	r2, [r3, #65]	@ 0x41

        return HAL_TIMEOUT;
 8005540:	2303      	movs	r3, #3
 8005542:	e03a      	b.n	80055ba <HAL_UART_Transmit+0x10e>
      }
      if (pdata8bits == NULL)
 8005544:	69fb      	ldr	r3, [r7, #28]
 8005546:	2b00      	cmp	r3, #0
 8005548:	d10b      	bne.n	8005562 <HAL_UART_Transmit+0xb6>
      {
        huart->Instance->DR = (uint16_t)(*pdata16bits & 0x01FFU);
 800554a:	69bb      	ldr	r3, [r7, #24]
 800554c:	881b      	ldrh	r3, [r3, #0]
 800554e:	461a      	mov	r2, r3
 8005550:	68fb      	ldr	r3, [r7, #12]
 8005552:	681b      	ldr	r3, [r3, #0]
 8005554:	f3c2 0208 	ubfx	r2, r2, #0, #9
 8005558:	605a      	str	r2, [r3, #4]
        pdata16bits++;
 800555a:	69bb      	ldr	r3, [r7, #24]
 800555c:	3302      	adds	r3, #2
 800555e:	61bb      	str	r3, [r7, #24]
 8005560:	e007      	b.n	8005572 <HAL_UART_Transmit+0xc6>
      }
      else
      {
        huart->Instance->DR = (uint8_t)(*pdata8bits & 0xFFU);
 8005562:	69fb      	ldr	r3, [r7, #28]
 8005564:	781a      	ldrb	r2, [r3, #0]
 8005566:	68fb      	ldr	r3, [r7, #12]
 8005568:	681b      	ldr	r3, [r3, #0]
 800556a:	605a      	str	r2, [r3, #4]
        pdata8bits++;
 800556c:	69fb      	ldr	r3, [r7, #28]
 800556e:	3301      	adds	r3, #1
 8005570:	61fb      	str	r3, [r7, #28]
      }
      huart->TxXferCount--;
 8005572:	68fb      	ldr	r3, [r7, #12]
 8005574:	8cdb      	ldrh	r3, [r3, #38]	@ 0x26
 8005576:	b29b      	uxth	r3, r3
 8005578:	3b01      	subs	r3, #1
 800557a:	b29a      	uxth	r2, r3
 800557c:	68fb      	ldr	r3, [r7, #12]
 800557e:	84da      	strh	r2, [r3, #38]	@ 0x26
    while (huart->TxXferCount > 0U)
 8005580:	68fb      	ldr	r3, [r7, #12]
 8005582:	8cdb      	ldrh	r3, [r3, #38]	@ 0x26
 8005584:	b29b      	uxth	r3, r3
 8005586:	2b00      	cmp	r3, #0
 8005588:	d1cb      	bne.n	8005522 <HAL_UART_Transmit+0x76>
    }

    if (UART_WaitOnFlagUntilTimeout(huart, UART_FLAG_TC, RESET, tickstart, Timeout) != HAL_OK)
 800558a:	683b      	ldr	r3, [r7, #0]
 800558c:	9300      	str	r3, [sp, #0]
 800558e:	697b      	ldr	r3, [r7, #20]
 8005590:	2200      	movs	r2, #0
 8005592:	2140      	movs	r1, #64	@ 0x40
 8005594:	68f8      	ldr	r0, [r7, #12]
 8005596:	f000 f814 	bl	80055c2 <UART_WaitOnFlagUntilTimeout>
 800559a:	4603      	mov	r3, r0
 800559c:	2b00      	cmp	r3, #0
 800559e:	d005      	beq.n	80055ac <HAL_UART_Transmit+0x100>
    {
      huart->gState = HAL_UART_STATE_READY;
 80055a0:	68fb      	ldr	r3, [r7, #12]
 80055a2:	2220      	movs	r2, #32
 80055a4:	f883 2041 	strb.w	r2, [r3, #65]	@ 0x41

      return HAL_TIMEOUT;
 80055a8:	2303      	movs	r3, #3
 80055aa:	e006      	b.n	80055ba <HAL_UART_Transmit+0x10e>
    }

    /* At end of Tx process, restore huart->gState to Ready */
    huart->gState = HAL_UART_STATE_READY;
 80055ac:	68fb      	ldr	r3, [r7, #12]
 80055ae:	2220      	movs	r2, #32
 80055b0:	f883 2041 	strb.w	r2, [r3, #65]	@ 0x41

    return HAL_OK;
 80055b4:	2300      	movs	r3, #0
 80055b6:	e000      	b.n	80055ba <HAL_UART_Transmit+0x10e>
  }
  else
  {
    return HAL_BUSY;
 80055b8:	2302      	movs	r3, #2
  }
}
 80055ba:	4618      	mov	r0, r3
 80055bc:	3720      	adds	r7, #32
 80055be:	46bd      	mov	sp, r7
 80055c0:	bd80      	pop	{r7, pc}

080055c2 <UART_WaitOnFlagUntilTimeout>:
  * @param  Timeout Timeout duration
  * @retval HAL status
  */
static HAL_StatusTypeDef UART_WaitOnFlagUntilTimeout(UART_HandleTypeDef *huart, uint32_t Flag, FlagStatus Status,
                                                     uint32_t Tickstart, uint32_t Timeout)
{
 80055c2:	b580      	push	{r7, lr}
 80055c4:	b086      	sub	sp, #24
 80055c6:	af00      	add	r7, sp, #0
 80055c8:	60f8      	str	r0, [r7, #12]
 80055ca:	60b9      	str	r1, [r7, #8]
 80055cc:	603b      	str	r3, [r7, #0]
 80055ce:	4613      	mov	r3, r2
 80055d0:	71fb      	strb	r3, [r7, #7]
  /* Wait until flag is set */
  while ((__HAL_UART_GET_FLAG(huart, Flag) ? SET : RESET) == Status)
 80055d2:	e03b      	b.n	800564c <UART_WaitOnFlagUntilTimeout+0x8a>
  {
    /* Check for the Timeout */
    if (Timeout != HAL_MAX_DELAY)
 80055d4:	6a3b      	ldr	r3, [r7, #32]
 80055d6:	f1b3 3fff 	cmp.w	r3, #4294967295	@ 0xffffffff
 80055da:	d037      	beq.n	800564c <UART_WaitOnFlagUntilTimeout+0x8a>
    {
      if (((HAL_GetTick() - Tickstart) > Timeout) || (Timeout == 0U))
 80055dc:	f7fd f968 	bl	80028b0 <HAL_GetTick>
 80055e0:	4602      	mov	r2, r0
 80055e2:	683b      	ldr	r3, [r7, #0]
 80055e4:	1ad3      	subs	r3, r2, r3
 80055e6:	6a3a      	ldr	r2, [r7, #32]
 80055e8:	429a      	cmp	r2, r3
 80055ea:	d302      	bcc.n	80055f2 <UART_WaitOnFlagUntilTimeout+0x30>
 80055ec:	6a3b      	ldr	r3, [r7, #32]
 80055ee:	2b00      	cmp	r3, #0
 80055f0:	d101      	bne.n	80055f6 <UART_WaitOnFlagUntilTimeout+0x34>
      {

        return HAL_TIMEOUT;
 80055f2:	2303      	movs	r3, #3
 80055f4:	e03a      	b.n	800566c <UART_WaitOnFlagUntilTimeout+0xaa>
      }

      if ((READ_BIT(huart->Instance->CR1, USART_CR1_RE) != 0U) && (Flag != UART_FLAG_TXE) && (Flag != UART_FLAG_TC))
 80055f6:	68fb      	ldr	r3, [r7, #12]
 80055f8:	681b      	ldr	r3, [r3, #0]
 80055fa:	68db      	ldr	r3, [r3, #12]
 80055fc:	f003 0304 	and.w	r3, r3, #4
 8005600:	2b00      	cmp	r3, #0
 8005602:	d023      	beq.n	800564c <UART_WaitOnFlagUntilTimeout+0x8a>
 8005604:	68bb      	ldr	r3, [r7, #8]
 8005606:	2b80      	cmp	r3, #128	@ 0x80
 8005608:	d020      	beq.n	800564c <UART_WaitOnFlagUntilTimeout+0x8a>
 800560a:	68bb      	ldr	r3, [r7, #8]
 800560c:	2b40      	cmp	r3, #64	@ 0x40
 800560e:	d01d      	beq.n	800564c <UART_WaitOnFlagUntilTimeout+0x8a>
      {
        if (__HAL_UART_GET_FLAG(huart, UART_FLAG_ORE) == SET)
 8005610:	68fb      	ldr	r3, [r7, #12]
 8005612:	681b      	ldr	r3, [r3, #0]
 8005614:	681b      	ldr	r3, [r3, #0]
 8005616:	f003 0308 	and.w	r3, r3, #8
 800561a:	2b08      	cmp	r3, #8
 800561c:	d116      	bne.n	800564c <UART_WaitOnFlagUntilTimeout+0x8a>
        {
          /* Clear Overrun Error flag*/
          __HAL_UART_CLEAR_OREFLAG(huart);
 800561e:	2300      	movs	r3, #0
 8005620:	617b      	str	r3, [r7, #20]
 8005622:	68fb      	ldr	r3, [r7, #12]
 8005624:	681b      	ldr	r3, [r3, #0]
 8005626:	681b      	ldr	r3, [r3, #0]
 8005628:	617b      	str	r3, [r7, #20]
 800562a:	68fb      	ldr	r3, [r7, #12]
 800562c:	681b      	ldr	r3, [r3, #0]
 800562e:	685b      	ldr	r3, [r3, #4]
 8005630:	617b      	str	r3, [r7, #20]
 8005632:	697b      	ldr	r3, [r7, #20]

          /* Blocking error : transfer is aborted
          Set the UART state ready to be able to start again the process,
          Disable Rx Interrupts if ongoing */
          UART_EndRxTransfer(huart);
 8005634:	68f8      	ldr	r0, [r7, #12]
 8005636:	f000 f81d 	bl	8005674 <UART_EndRxTransfer>

          huart->ErrorCode = HAL_UART_ERROR_ORE;
 800563a:	68fb      	ldr	r3, [r7, #12]
 800563c:	2208      	movs	r2, #8
 800563e:	645a      	str	r2, [r3, #68]	@ 0x44

          /* Process Unlocked */
          __HAL_UNLOCK(huart);
 8005640:	68fb      	ldr	r3, [r7, #12]
 8005642:	2200      	movs	r2, #0
 8005644:	f883 2040 	strb.w	r2, [r3, #64]	@ 0x40

          return HAL_ERROR;
 8005648:	2301      	movs	r3, #1
 800564a:	e00f      	b.n	800566c <UART_WaitOnFlagUntilTimeout+0xaa>
  while ((__HAL_UART_GET_FLAG(huart, Flag) ? SET : RESET) == Status)
 800564c:	68fb      	ldr	r3, [r7, #12]
 800564e:	681b      	ldr	r3, [r3, #0]
 8005650:	681a      	ldr	r2, [r3, #0]
 8005652:	68bb      	ldr	r3, [r7, #8]
 8005654:	4013      	ands	r3, r2
 8005656:	68ba      	ldr	r2, [r7, #8]
 8005658:	429a      	cmp	r2, r3
 800565a:	bf0c      	ite	eq
 800565c:	2301      	moveq	r3, #1
 800565e:	2300      	movne	r3, #0
 8005660:	b2db      	uxtb	r3, r3
 8005662:	461a      	mov	r2, r3
 8005664:	79fb      	ldrb	r3, [r7, #7]
 8005666:	429a      	cmp	r2, r3
 8005668:	d0b4      	beq.n	80055d4 <UART_WaitOnFlagUntilTimeout+0x12>
        }
      }
    }
  }
  return HAL_OK;
 800566a:	2300      	movs	r3, #0
}
 800566c:	4618      	mov	r0, r3
 800566e:	3718      	adds	r7, #24
 8005670:	46bd      	mov	sp, r7
 8005672:	bd80      	pop	{r7, pc}

08005674 <UART_EndRxTransfer>:
  * @brief  End ongoing Rx transfer on UART peripheral (following error detection or Reception completion).
  * @param  huart UART handle.
  * @retval None
  */
static void UART_EndRxTransfer(UART_HandleTypeDef *huart)
{
 8005674:	b480      	push	{r7}
 8005676:	b095      	sub	sp, #84	@ 0x54
 8005678:	af00      	add	r7, sp, #0
 800567a:	6078      	str	r0, [r7, #4]
  /* Disable RXNE, PE and ERR (Frame error, noise error, overrun error) interrupts */
  ATOMIC_CLEAR_BIT(huart->Instance->CR1, (USART_CR1_RXNEIE | USART_CR1_PEIE));
 800567c:	687b      	ldr	r3, [r7, #4]
 800567e:	681b      	ldr	r3, [r3, #0]
 8005680:	330c      	adds	r3, #12
 8005682:	637b      	str	r3, [r7, #52]	@ 0x34
   __ASM volatile ("ldrex %0, %1" : "=r" (result) : "Q" (*addr) );
 8005684:	6b7b      	ldr	r3, [r7, #52]	@ 0x34
 8005686:	e853 3f00 	ldrex	r3, [r3]
 800568a:	633b      	str	r3, [r7, #48]	@ 0x30
   return(result);
 800568c:	6b3b      	ldr	r3, [r7, #48]	@ 0x30
 800568e:	f423 7390 	bic.w	r3, r3, #288	@ 0x120
 8005692:	64fb      	str	r3, [r7, #76]	@ 0x4c
 8005694:	687b      	ldr	r3, [r7, #4]
 8005696:	681b      	ldr	r3, [r3, #0]
 8005698:	330c      	adds	r3, #12
 800569a:	6cfa      	ldr	r2, [r7, #76]	@ 0x4c
 800569c:	643a      	str	r2, [r7, #64]	@ 0x40
 800569e:	63fb      	str	r3, [r7, #60]	@ 0x3c
   __ASM volatile ("strex %0, %2, %1" : "=&r" (result), "=Q" (*addr) : "r" (value) );
 80056a0:	6bf9      	ldr	r1, [r7, #60]	@ 0x3c
 80056a2:	6c3a      	ldr	r2, [r7, #64]	@ 0x40
 80056a4:	e841 2300 	strex	r3, r2, [r1]
 80056a8:	63bb      	str	r3, [r7, #56]	@ 0x38
   return(result);
 80056aa:	6bbb      	ldr	r3, [r7, #56]	@ 0x38
 80056ac:	2b00      	cmp	r3, #0
 80056ae:	d1e5      	bne.n	800567c <UART_EndRxTransfer+0x8>
  ATOMIC_CLEAR_BIT(huart->Instance->CR3, USART_CR3_EIE);
 80056b0:	687b      	ldr	r3, [r7, #4]
 80056b2:	681b      	ldr	r3, [r3, #0]
 80056b4:	3314      	adds	r3, #20
 80056b6:	623b      	str	r3, [r7, #32]
   __ASM volatile ("ldrex %0, %1" : "=r" (result) : "Q" (*addr) );
 80056b8:	6a3b      	ldr	r3, [r7, #32]
 80056ba:	e853 3f00 	ldrex	r3, [r3]
 80056be:	61fb      	str	r3, [r7, #28]
   return(result);
 80056c0:	69fb      	ldr	r3, [r7, #28]
 80056c2:	f023 0301 	bic.w	r3, r3, #1
 80056c6:	64bb      	str	r3, [r7, #72]	@ 0x48
 80056c8:	687b      	ldr	r3, [r7, #4]
 80056ca:	681b      	ldr	r3, [r3, #0]
 80056cc:	3314      	adds	r3, #20
 80056ce:	6cba      	ldr	r2, [r7, #72]	@ 0x48
 80056d0:	62fa      	str	r2, [r7, #44]	@ 0x2c
 80056d2:	62bb      	str	r3, [r7, #40]	@ 0x28
   __ASM volatile ("strex %0, %2, %1" : "=&r" (result), "=Q" (*addr) : "r" (value) );
 80056d4:	6ab9      	ldr	r1, [r7, #40]	@ 0x28
 80056d6:	6afa      	ldr	r2, [r7, #44]	@ 0x2c
 80056d8:	e841 2300 	strex	r3, r2, [r1]
 80056dc:	627b      	str	r3, [r7, #36]	@ 0x24
   return(result);
 80056de:	6a7b      	ldr	r3, [r7, #36]	@ 0x24
 80056e0:	2b00      	cmp	r3, #0
 80056e2:	d1e5      	bne.n	80056b0 <UART_EndRxTransfer+0x3c>

  /* In case of reception waiting for IDLE event, disable also the IDLE IE interrupt source */
  if (huart->ReceptionType == HAL_UART_RECEPTION_TOIDLE)
 80056e4:	687b      	ldr	r3, [r7, #4]
 80056e6:	6b1b      	ldr	r3, [r3, #48]	@ 0x30
 80056e8:	2b01      	cmp	r3, #1
 80056ea:	d119      	bne.n	8005720 <UART_EndRxTransfer+0xac>
  {
    ATOMIC_CLEAR_BIT(huart->Instance->CR1, USART_CR1_IDLEIE);
 80056ec:	687b      	ldr	r3, [r7, #4]
 80056ee:	681b      	ldr	r3, [r3, #0]
 80056f0:	330c      	adds	r3, #12
 80056f2:	60fb      	str	r3, [r7, #12]
   __ASM volatile ("ldrex %0, %1" : "=r" (result) : "Q" (*addr) );
 80056f4:	68fb      	ldr	r3, [r7, #12]
 80056f6:	e853 3f00 	ldrex	r3, [r3]
 80056fa:	60bb      	str	r3, [r7, #8]
   return(result);
 80056fc:	68bb      	ldr	r3, [r7, #8]
 80056fe:	f023 0310 	bic.w	r3, r3, #16
 8005702:	647b      	str	r3, [r7, #68]	@ 0x44
 8005704:	687b      	ldr	r3, [r7, #4]
 8005706:	681b      	ldr	r3, [r3, #0]
 8005708:	330c      	adds	r3, #12
 800570a:	6c7a      	ldr	r2, [r7, #68]	@ 0x44
 800570c:	61ba      	str	r2, [r7, #24]
 800570e:	617b      	str	r3, [r7, #20]
   __ASM volatile ("strex %0, %2, %1" : "=&r" (result), "=Q" (*addr) : "r" (value) );
 8005710:	6979      	ldr	r1, [r7, #20]
 8005712:	69ba      	ldr	r2, [r7, #24]
 8005714:	e841 2300 	strex	r3, r2, [r1]
 8005718:	613b      	str	r3, [r7, #16]
   return(result);
 800571a:	693b      	ldr	r3, [r7, #16]
 800571c:	2b00      	cmp	r3, #0
 800571e:	d1e5      	bne.n	80056ec <UART_EndRxTransfer+0x78>
  }

  /* At end of Rx process, restore huart->RxState to Ready */
  huart->RxState = HAL_UART_STATE_READY;
 8005720:	687b      	ldr	r3, [r7, #4]
 8005722:	2220      	movs	r2, #32
 8005724:	f883 2042 	strb.w	r2, [r3, #66]	@ 0x42
  huart->ReceptionType = HAL_UART_RECEPTION_STANDARD;
 8005728:	687b      	ldr	r3, [r7, #4]
 800572a:	2200      	movs	r2, #0
 800572c:	631a      	str	r2, [r3, #48]	@ 0x30
}
 800572e:	bf00      	nop
 8005730:	3754      	adds	r7, #84	@ 0x54
 8005732:	46bd      	mov	sp, r7
 8005734:	f85d 7b04 	ldr.w	r7, [sp], #4
 8005738:	4770      	bx	lr
	...

0800573c <UART_SetConfig>:
  * @param  huart  Pointer to a UART_HandleTypeDef structure that contains
  *                the configuration information for the specified UART module.
  * @retval None
  */
static void UART_SetConfig(UART_HandleTypeDef *huart)
{
 800573c:	e92d 4fb0 	stmdb	sp!, {r4, r5, r7, r8, r9, sl, fp, lr}
 8005740:	b0c0      	sub	sp, #256	@ 0x100
 8005742:	af00      	add	r7, sp, #0
 8005744:	f8c7 00f4 	str.w	r0, [r7, #244]	@ 0xf4
  assert_param(IS_UART_MODE(huart->Init.Mode));

  /*-------------------------- USART CR2 Configuration -----------------------*/
  /* Configure the UART Stop Bits: Set STOP[13:12] bits
     according to huart->Init.StopBits value */
  MODIFY_REG(huart->Instance->CR2, USART_CR2_STOP, huart->Init.StopBits);
 8005748:	f8d7 30f4 	ldr.w	r3, [r7, #244]	@ 0xf4
 800574c:	681b      	ldr	r3, [r3, #0]
 800574e:	691b      	ldr	r3, [r3, #16]
 8005750:	f423 5040 	bic.w	r0, r3, #12288	@ 0x3000
 8005754:	f8d7 30f4 	ldr.w	r3, [r7, #244]	@ 0xf4
 8005758:	68d9      	ldr	r1, [r3, #12]
 800575a:	f8d7 30f4 	ldr.w	r3, [r7, #244]	@ 0xf4
 800575e:	681a      	ldr	r2, [r3, #0]
 8005760:	ea40 0301 	orr.w	r3, r0, r1
 8005764:	6113      	str	r3, [r2, #16]
     Set the M bits according to huart->Init.WordLength value
     Set PCE and PS bits according to huart->Init.Parity value
     Set TE and RE bits according to huart->Init.Mode value
     Set OVER8 bit according to huart->Init.OverSampling value */

  tmpreg = (uint32_t)huart->Init.WordLength | huart->Init.Parity | huart->Init.Mode | huart->Init.OverSampling;
 8005766:	f8d7 30f4 	ldr.w	r3, [r7, #244]	@ 0xf4
 800576a:	689a      	ldr	r2, [r3, #8]
 800576c:	f8d7 30f4 	ldr.w	r3, [r7, #244]	@ 0xf4
 8005770:	691b      	ldr	r3, [r3, #16]
 8005772:	431a      	orrs	r2, r3
 8005774:	f8d7 30f4 	ldr.w	r3, [r7, #244]	@ 0xf4
 8005778:	695b      	ldr	r3, [r3, #20]
 800577a:	431a      	orrs	r2, r3
 800577c:	f8d7 30f4 	ldr.w	r3, [r7, #244]	@ 0xf4
 8005780:	69db      	ldr	r3, [r3, #28]
 8005782:	4313      	orrs	r3, r2
 8005784:	f8c7 30f8 	str.w	r3, [r7, #248]	@ 0xf8
  MODIFY_REG(huart->Instance->CR1,
 8005788:	f8d7 30f4 	ldr.w	r3, [r7, #244]	@ 0xf4
 800578c:	681b      	ldr	r3, [r3, #0]
 800578e:	68db      	ldr	r3, [r3, #12]
 8005790:	f423 4116 	bic.w	r1, r3, #38400	@ 0x9600
 8005794:	f021 010c 	bic.w	r1, r1, #12
 8005798:	f8d7 30f4 	ldr.w	r3, [r7, #244]	@ 0xf4
 800579c:	681a      	ldr	r2, [r3, #0]
 800579e:	f8d7 30f8 	ldr.w	r3, [r7, #248]	@ 0xf8
 80057a2:	430b      	orrs	r3, r1
 80057a4:	60d3      	str	r3, [r2, #12]
             (uint32_t)(USART_CR1_M | USART_CR1_PCE | USART_CR1_PS | USART_CR1_TE | USART_CR1_RE | USART_CR1_OVER8),
             tmpreg);

  /*-------------------------- USART CR3 Configuration -----------------------*/
  /* Configure the UART HFC: Set CTSE and RTSE bits according to huart->Init.HwFlowCtl value */
  MODIFY_REG(huart->Instance->CR3, (USART_CR3_RTSE | USART_CR3_CTSE), huart->Init.HwFlowCtl);
 80057a6:	f8d7 30f4 	ldr.w	r3, [r7, #244]	@ 0xf4
 80057aa:	681b      	ldr	r3, [r3, #0]
 80057ac:	695b      	ldr	r3, [r3, #20]
 80057ae:	f423 7040 	bic.w	r0, r3, #768	@ 0x300
 80057b2:	f8d7 30f4 	ldr.w	r3, [r7, #244]	@ 0xf4
 80057b6:	6999      	ldr	r1, [r3, #24]
 80057b8:	f8d7 30f4 	ldr.w	r3, [r7, #244]	@ 0xf4
 80057bc:	681a      	ldr	r2, [r3, #0]
 80057be:	ea40 0301 	orr.w	r3, r0, r1
 80057c2:	6153      	str	r3, [r2, #20]
    if ((huart->Instance == USART1) || (huart->Instance == USART6) || (huart->Instance == UART9) || (huart->Instance == UART10))
    {
      pclk = HAL_RCC_GetPCLK2Freq();
    }
#elif defined(USART6)
    if ((huart->Instance == USART1) || (huart->Instance == USART6))
 80057c4:	f8d7 30f4 	ldr.w	r3, [r7, #244]	@ 0xf4
 80057c8:	681a      	ldr	r2, [r3, #0]
 80057ca:	4b8f      	ldr	r3, [pc, #572]	@ (8005a08 <UART_SetConfig+0x2cc>)
 80057cc:	429a      	cmp	r2, r3
 80057ce:	d005      	beq.n	80057dc <UART_SetConfig+0xa0>
 80057d0:	f8d7 30f4 	ldr.w	r3, [r7, #244]	@ 0xf4
 80057d4:	681a      	ldr	r2, [r3, #0]
 80057d6:	4b8d      	ldr	r3, [pc, #564]	@ (8005a0c <UART_SetConfig+0x2d0>)
 80057d8:	429a      	cmp	r2, r3
 80057da:	d104      	bne.n	80057e6 <UART_SetConfig+0xaa>
    {
      pclk = HAL_RCC_GetPCLK2Freq();
 80057dc:	f7ff f934 	bl	8004a48 <HAL_RCC_GetPCLK2Freq>
 80057e0:	f8c7 00fc 	str.w	r0, [r7, #252]	@ 0xfc
 80057e4:	e003      	b.n	80057ee <UART_SetConfig+0xb2>
      pclk = HAL_RCC_GetPCLK2Freq();
    }
#endif /* USART6 */
    else
    {
      pclk = HAL_RCC_GetPCLK1Freq();
 80057e6:	f7ff f91b 	bl	8004a20 <HAL_RCC_GetPCLK1Freq>
 80057ea:	f8c7 00fc 	str.w	r0, [r7, #252]	@ 0xfc
    }
  /*-------------------------- USART BRR Configuration ---------------------*/
  if (huart->Init.OverSampling == UART_OVERSAMPLING_8)
 80057ee:	f8d7 30f4 	ldr.w	r3, [r7, #244]	@ 0xf4
 80057f2:	69db      	ldr	r3, [r3, #28]
 80057f4:	f5b3 4f00 	cmp.w	r3, #32768	@ 0x8000
 80057f8:	f040 810c 	bne.w	8005a14 <UART_SetConfig+0x2d8>
  {
    huart->Instance->BRR = UART_BRR_SAMPLING8(pclk, huart->Init.BaudRate);
 80057fc:	f8d7 30fc 	ldr.w	r3, [r7, #252]	@ 0xfc
 8005800:	2200      	movs	r2, #0
 8005802:	f8c7 30e8 	str.w	r3, [r7, #232]	@ 0xe8
 8005806:	f8c7 20ec 	str.w	r2, [r7, #236]	@ 0xec
 800580a:	e9d7 453a 	ldrd	r4, r5, [r7, #232]	@ 0xe8
 800580e:	4622      	mov	r2, r4
 8005810:	462b      	mov	r3, r5
 8005812:	1891      	adds	r1, r2, r2
 8005814:	65b9      	str	r1, [r7, #88]	@ 0x58
 8005816:	415b      	adcs	r3, r3
 8005818:	65fb      	str	r3, [r7, #92]	@ 0x5c
 800581a:	e9d7 2316 	ldrd	r2, r3, [r7, #88]	@ 0x58
 800581e:	4621      	mov	r1, r4
 8005820:	eb12 0801 	adds.w	r8, r2, r1
 8005824:	4629      	mov	r1, r5
 8005826:	eb43 0901 	adc.w	r9, r3, r1
 800582a:	f04f 0200 	mov.w	r2, #0
 800582e:	f04f 0300 	mov.w	r3, #0
 8005832:	ea4f 03c9 	mov.w	r3, r9, lsl #3
 8005836:	ea43 7358 	orr.w	r3, r3, r8, lsr #29
 800583a:	ea4f 02c8 	mov.w	r2, r8, lsl #3
 800583e:	4690      	mov	r8, r2
 8005840:	4699      	mov	r9, r3
 8005842:	4623      	mov	r3, r4
 8005844:	eb18 0303 	adds.w	r3, r8, r3
 8005848:	f8c7 30e0 	str.w	r3, [r7, #224]	@ 0xe0
 800584c:	462b      	mov	r3, r5
 800584e:	eb49 0303 	adc.w	r3, r9, r3
 8005852:	f8c7 30e4 	str.w	r3, [r7, #228]	@ 0xe4
 8005856:	f8d7 30f4 	ldr.w	r3, [r7, #244]	@ 0xf4
 800585a:	685b      	ldr	r3, [r3, #4]
 800585c:	2200      	movs	r2, #0
 800585e:	f8c7 30d8 	str.w	r3, [r7, #216]	@ 0xd8
 8005862:	f8c7 20dc 	str.w	r2, [r7, #220]	@ 0xdc
 8005866:	e9d7 1236 	ldrd	r1, r2, [r7, #216]	@ 0xd8
 800586a:	460b      	mov	r3, r1
 800586c:	18db      	adds	r3, r3, r3
 800586e:	653b      	str	r3, [r7, #80]	@ 0x50
 8005870:	4613      	mov	r3, r2
 8005872:	eb42 0303 	adc.w	r3, r2, r3
 8005876:	657b      	str	r3, [r7, #84]	@ 0x54
 8005878:	e9d7 2314 	ldrd	r2, r3, [r7, #80]	@ 0x50
 800587c:	e9d7 0138 	ldrd	r0, r1, [r7, #224]	@ 0xe0
 8005880:	f7fb fa02 	bl	8000c88 <__aeabi_uldivmod>
 8005884:	4602      	mov	r2, r0
 8005886:	460b      	mov	r3, r1
 8005888:	4b61      	ldr	r3, [pc, #388]	@ (8005a10 <UART_SetConfig+0x2d4>)
 800588a:	fba3 2302 	umull	r2, r3, r3, r2
 800588e:	095b      	lsrs	r3, r3, #5
 8005890:	011c      	lsls	r4, r3, #4
 8005892:	f8d7 30fc 	ldr.w	r3, [r7, #252]	@ 0xfc
 8005896:	2200      	movs	r2, #0
 8005898:	f8c7 30d0 	str.w	r3, [r7, #208]	@ 0xd0
 800589c:	f8c7 20d4 	str.w	r2, [r7, #212]	@ 0xd4
 80058a0:	e9d7 8934 	ldrd	r8, r9, [r7, #208]	@ 0xd0
 80058a4:	4642      	mov	r2, r8
 80058a6:	464b      	mov	r3, r9
 80058a8:	1891      	adds	r1, r2, r2
 80058aa:	64b9      	str	r1, [r7, #72]	@ 0x48
 80058ac:	415b      	adcs	r3, r3
 80058ae:	64fb      	str	r3, [r7, #76]	@ 0x4c
 80058b0:	e9d7 2312 	ldrd	r2, r3, [r7, #72]	@ 0x48
 80058b4:	4641      	mov	r1, r8
 80058b6:	eb12 0a01 	adds.w	sl, r2, r1
 80058ba:	4649      	mov	r1, r9
 80058bc:	eb43 0b01 	adc.w	fp, r3, r1
 80058c0:	f04f 0200 	mov.w	r2, #0
 80058c4:	f04f 0300 	mov.w	r3, #0
 80058c8:	ea4f 03cb 	mov.w	r3, fp, lsl #3
 80058cc:	ea43 735a 	orr.w	r3, r3, sl, lsr #29
 80058d0:	ea4f 02ca 	mov.w	r2, sl, lsl #3
 80058d4:	4692      	mov	sl, r2
 80058d6:	469b      	mov	fp, r3
 80058d8:	4643      	mov	r3, r8
 80058da:	eb1a 0303 	adds.w	r3, sl, r3
 80058de:	f8c7 30c8 	str.w	r3, [r7, #200]	@ 0xc8
 80058e2:	464b      	mov	r3, r9
 80058e4:	eb4b 0303 	adc.w	r3, fp, r3
 80058e8:	f8c7 30cc 	str.w	r3, [r7, #204]	@ 0xcc
 80058ec:	f8d7 30f4 	ldr.w	r3, [r7, #244]	@ 0xf4
 80058f0:	685b      	ldr	r3, [r3, #4]
 80058f2:	2200      	movs	r2, #0
 80058f4:	f8c7 30c0 	str.w	r3, [r7, #192]	@ 0xc0
 80058f8:	f8c7 20c4 	str.w	r2, [r7, #196]	@ 0xc4
 80058fc:	e9d7 1230 	ldrd	r1, r2, [r7, #192]	@ 0xc0
 8005900:	460b      	mov	r3, r1
 8005902:	18db      	adds	r3, r3, r3
 8005904:	643b      	str	r3, [r7, #64]	@ 0x40
 8005906:	4613      	mov	r3, r2
 8005908:	eb42 0303 	adc.w	r3, r2, r3
 800590c:	647b      	str	r3, [r7, #68]	@ 0x44
 800590e:	e9d7 2310 	ldrd	r2, r3, [r7, #64]	@ 0x40
 8005912:	e9d7 0132 	ldrd	r0, r1, [r7, #200]	@ 0xc8
 8005916:	f7fb f9b7 	bl	8000c88 <__aeabi_uldivmod>
 800591a:	4602      	mov	r2, r0
 800591c:	460b      	mov	r3, r1
 800591e:	4611      	mov	r1, r2
 8005920:	4b3b      	ldr	r3, [pc, #236]	@ (8005a10 <UART_SetConfig+0x2d4>)
 8005922:	fba3 2301 	umull	r2, r3, r3, r1
 8005926:	095b      	lsrs	r3, r3, #5
 8005928:	2264      	movs	r2, #100	@ 0x64
 800592a:	fb02 f303 	mul.w	r3, r2, r3
 800592e:	1acb      	subs	r3, r1, r3
 8005930:	00db      	lsls	r3, r3, #3
 8005932:	f103 0232 	add.w	r2, r3, #50	@ 0x32
 8005936:	4b36      	ldr	r3, [pc, #216]	@ (8005a10 <UART_SetConfig+0x2d4>)
 8005938:	fba3 2302 	umull	r2, r3, r3, r2
 800593c:	095b      	lsrs	r3, r3, #5
 800593e:	005b      	lsls	r3, r3, #1
 8005940:	f403 73f8 	and.w	r3, r3, #496	@ 0x1f0
 8005944:	441c      	add	r4, r3
 8005946:	f8d7 30fc 	ldr.w	r3, [r7, #252]	@ 0xfc
 800594a:	2200      	movs	r2, #0
 800594c:	f8c7 30b8 	str.w	r3, [r7, #184]	@ 0xb8
 8005950:	f8c7 20bc 	str.w	r2, [r7, #188]	@ 0xbc
 8005954:	e9d7 892e 	ldrd	r8, r9, [r7, #184]	@ 0xb8
 8005958:	4642      	mov	r2, r8
 800595a:	464b      	mov	r3, r9
 800595c:	1891      	adds	r1, r2, r2
 800595e:	63b9      	str	r1, [r7, #56]	@ 0x38
 8005960:	415b      	adcs	r3, r3
 8005962:	63fb      	str	r3, [r7, #60]	@ 0x3c
 8005964:	e9d7 230e 	ldrd	r2, r3, [r7, #56]	@ 0x38
 8005968:	4641      	mov	r1, r8
 800596a:	1851      	adds	r1, r2, r1
 800596c:	6339      	str	r1, [r7, #48]	@ 0x30
 800596e:	4649      	mov	r1, r9
 8005970:	414b      	adcs	r3, r1
 8005972:	637b      	str	r3, [r7, #52]	@ 0x34
 8005974:	f04f 0200 	mov.w	r2, #0
 8005978:	f04f 0300 	mov.w	r3, #0
 800597c:	e9d7 ab0c 	ldrd	sl, fp, [r7, #48]	@ 0x30
 8005980:	4659      	mov	r1, fp
 8005982:	00cb      	lsls	r3, r1, #3
 8005984:	4651      	mov	r1, sl
 8005986:	ea43 7351 	orr.w	r3, r3, r1, lsr #29
 800598a:	4651      	mov	r1, sl
 800598c:	00ca      	lsls	r2, r1, #3
 800598e:	4610      	mov	r0, r2
 8005990:	4619      	mov	r1, r3
 8005992:	4603      	mov	r3, r0
 8005994:	4642      	mov	r2, r8
 8005996:	189b      	adds	r3, r3, r2
 8005998:	f8c7 30b0 	str.w	r3, [r7, #176]	@ 0xb0
 800599c:	464b      	mov	r3, r9
 800599e:	460a      	mov	r2, r1
 80059a0:	eb42 0303 	adc.w	r3, r2, r3
 80059a4:	f8c7 30b4 	str.w	r3, [r7, #180]	@ 0xb4
 80059a8:	f8d7 30f4 	ldr.w	r3, [r7, #244]	@ 0xf4
 80059ac:	685b      	ldr	r3, [r3, #4]
 80059ae:	2200      	movs	r2, #0
 80059b0:	f8c7 30a8 	str.w	r3, [r7, #168]	@ 0xa8
 80059b4:	f8c7 20ac 	str.w	r2, [r7, #172]	@ 0xac
 80059b8:	e9d7 122a 	ldrd	r1, r2, [r7, #168]	@ 0xa8
 80059bc:	460b      	mov	r3, r1
 80059be:	18db      	adds	r3, r3, r3
 80059c0:	62bb      	str	r3, [r7, #40]	@ 0x28
 80059c2:	4613      	mov	r3, r2
 80059c4:	eb42 0303 	adc.w	r3, r2, r3
 80059c8:	62fb      	str	r3, [r7, #44]	@ 0x2c
 80059ca:	e9d7 230a 	ldrd	r2, r3, [r7, #40]	@ 0x28
 80059ce:	e9d7 012c 	ldrd	r0, r1, [r7, #176]	@ 0xb0
 80059d2:	f7fb f959 	bl	8000c88 <__aeabi_uldivmod>
 80059d6:	4602      	mov	r2, r0
 80059d8:	460b      	mov	r3, r1
 80059da:	4b0d      	ldr	r3, [pc, #52]	@ (8005a10 <UART_SetConfig+0x2d4>)
 80059dc:	fba3 1302 	umull	r1, r3, r3, r2
 80059e0:	095b      	lsrs	r3, r3, #5
 80059e2:	2164      	movs	r1, #100	@ 0x64
 80059e4:	fb01 f303 	mul.w	r3, r1, r3
 80059e8:	1ad3      	subs	r3, r2, r3
 80059ea:	00db      	lsls	r3, r3, #3
 80059ec:	3332      	adds	r3, #50	@ 0x32
 80059ee:	4a08      	ldr	r2, [pc, #32]	@ (8005a10 <UART_SetConfig+0x2d4>)
 80059f0:	fba2 2303 	umull	r2, r3, r2, r3
 80059f4:	095b      	lsrs	r3, r3, #5
 80059f6:	f003 0207 	and.w	r2, r3, #7
 80059fa:	f8d7 30f4 	ldr.w	r3, [r7, #244]	@ 0xf4
 80059fe:	681b      	ldr	r3, [r3, #0]
 8005a00:	4422      	add	r2, r4
 8005a02:	609a      	str	r2, [r3, #8]
  }
  else
  {
    huart->Instance->BRR = UART_BRR_SAMPLING16(pclk, huart->Init.BaudRate);
  }
}
 8005a04:	e106      	b.n	8005c14 <UART_SetConfig+0x4d8>
 8005a06:	bf00      	nop
 8005a08:	40011000 	.word	0x40011000
 8005a0c:	40011400 	.word	0x40011400
 8005a10:	51eb851f 	.word	0x51eb851f
    huart->Instance->BRR = UART_BRR_SAMPLING16(pclk, huart->Init.BaudRate);
 8005a14:	f8d7 30fc 	ldr.w	r3, [r7, #252]	@ 0xfc
 8005a18:	2200      	movs	r2, #0
 8005a1a:	f8c7 30a0 	str.w	r3, [r7, #160]	@ 0xa0
 8005a1e:	f8c7 20a4 	str.w	r2, [r7, #164]	@ 0xa4
 8005a22:	e9d7 8928 	ldrd	r8, r9, [r7, #160]	@ 0xa0
 8005a26:	4642      	mov	r2, r8
 8005a28:	464b      	mov	r3, r9
 8005a2a:	1891      	adds	r1, r2, r2
 8005a2c:	6239      	str	r1, [r7, #32]
 8005a2e:	415b      	adcs	r3, r3
 8005a30:	627b      	str	r3, [r7, #36]	@ 0x24
 8005a32:	e9d7 2308 	ldrd	r2, r3, [r7, #32]
 8005a36:	4641      	mov	r1, r8
 8005a38:	1854      	adds	r4, r2, r1
 8005a3a:	4649      	mov	r1, r9
 8005a3c:	eb43 0501 	adc.w	r5, r3, r1
 8005a40:	f04f 0200 	mov.w	r2, #0
 8005a44:	f04f 0300 	mov.w	r3, #0
 8005a48:	00eb      	lsls	r3, r5, #3
 8005a4a:	ea43 7354 	orr.w	r3, r3, r4, lsr #29
 8005a4e:	00e2      	lsls	r2, r4, #3
 8005a50:	4614      	mov	r4, r2
 8005a52:	461d      	mov	r5, r3
 8005a54:	4643      	mov	r3, r8
 8005a56:	18e3      	adds	r3, r4, r3
 8005a58:	f8c7 3098 	str.w	r3, [r7, #152]	@ 0x98
 8005a5c:	464b      	mov	r3, r9
 8005a5e:	eb45 0303 	adc.w	r3, r5, r3
 8005a62:	f8c7 309c 	str.w	r3, [r7, #156]	@ 0x9c
 8005a66:	f8d7 30f4 	ldr.w	r3, [r7, #244]	@ 0xf4
 8005a6a:	685b      	ldr	r3, [r3, #4]
 8005a6c:	2200      	movs	r2, #0
 8005a6e:	f8c7 3090 	str.w	r3, [r7, #144]	@ 0x90
 8005a72:	f8c7 2094 	str.w	r2, [r7, #148]	@ 0x94
 8005a76:	f04f 0200 	mov.w	r2, #0
 8005a7a:	f04f 0300 	mov.w	r3, #0
 8005a7e:	e9d7 4524 	ldrd	r4, r5, [r7, #144]	@ 0x90
 8005a82:	4629      	mov	r1, r5
 8005a84:	008b      	lsls	r3, r1, #2
 8005a86:	4621      	mov	r1, r4
 8005a88:	ea43 7391 	orr.w	r3, r3, r1, lsr #30
 8005a8c:	4621      	mov	r1, r4
 8005a8e:	008a      	lsls	r2, r1, #2
 8005a90:	e9d7 0126 	ldrd	r0, r1, [r7, #152]	@ 0x98
 8005a94:	f7fb f8f8 	bl	8000c88 <__aeabi_uldivmod>
 8005a98:	4602      	mov	r2, r0
 8005a9a:	460b      	mov	r3, r1
 8005a9c:	4b60      	ldr	r3, [pc, #384]	@ (8005c20 <UART_SetConfig+0x4e4>)
 8005a9e:	fba3 2302 	umull	r2, r3, r3, r2
 8005aa2:	095b      	lsrs	r3, r3, #5
 8005aa4:	011c      	lsls	r4, r3, #4
 8005aa6:	f8d7 30fc 	ldr.w	r3, [r7, #252]	@ 0xfc
 8005aaa:	2200      	movs	r2, #0
 8005aac:	f8c7 3088 	str.w	r3, [r7, #136]	@ 0x88
 8005ab0:	f8c7 208c 	str.w	r2, [r7, #140]	@ 0x8c
 8005ab4:	e9d7 8922 	ldrd	r8, r9, [r7, #136]	@ 0x88
 8005ab8:	4642      	mov	r2, r8
 8005aba:	464b      	mov	r3, r9
 8005abc:	1891      	adds	r1, r2, r2
 8005abe:	61b9      	str	r1, [r7, #24]
 8005ac0:	415b      	adcs	r3, r3
 8005ac2:	61fb      	str	r3, [r7, #28]
 8005ac4:	e9d7 2306 	ldrd	r2, r3, [r7, #24]
 8005ac8:	4641      	mov	r1, r8
 8005aca:	1851      	adds	r1, r2, r1
 8005acc:	6139      	str	r1, [r7, #16]
 8005ace:	4649      	mov	r1, r9
 8005ad0:	414b      	adcs	r3, r1
 8005ad2:	617b      	str	r3, [r7, #20]
 8005ad4:	f04f 0200 	mov.w	r2, #0
 8005ad8:	f04f 0300 	mov.w	r3, #0
 8005adc:	e9d7 ab04 	ldrd	sl, fp, [r7, #16]
 8005ae0:	4659      	mov	r1, fp
 8005ae2:	00cb      	lsls	r3, r1, #3
 8005ae4:	4651      	mov	r1, sl
 8005ae6:	ea43 7351 	orr.w	r3, r3, r1, lsr #29
 8005aea:	4651      	mov	r1, sl
 8005aec:	00ca      	lsls	r2, r1, #3
 8005aee:	4610      	mov	r0, r2
 8005af0:	4619      	mov	r1, r3
 8005af2:	4603      	mov	r3, r0
 8005af4:	4642      	mov	r2, r8
 8005af6:	189b      	adds	r3, r3, r2
 8005af8:	f8c7 3080 	str.w	r3, [r7, #128]	@ 0x80
 8005afc:	464b      	mov	r3, r9
 8005afe:	460a      	mov	r2, r1
 8005b00:	eb42 0303 	adc.w	r3, r2, r3
 8005b04:	f8c7 3084 	str.w	r3, [r7, #132]	@ 0x84
 8005b08:	f8d7 30f4 	ldr.w	r3, [r7, #244]	@ 0xf4
 8005b0c:	685b      	ldr	r3, [r3, #4]
 8005b0e:	2200      	movs	r2, #0
 8005b10:	67bb      	str	r3, [r7, #120]	@ 0x78
 8005b12:	67fa      	str	r2, [r7, #124]	@ 0x7c
 8005b14:	f04f 0200 	mov.w	r2, #0
 8005b18:	f04f 0300 	mov.w	r3, #0
 8005b1c:	e9d7 891e 	ldrd	r8, r9, [r7, #120]	@ 0x78
 8005b20:	4649      	mov	r1, r9
 8005b22:	008b      	lsls	r3, r1, #2
 8005b24:	4641      	mov	r1, r8
 8005b26:	ea43 7391 	orr.w	r3, r3, r1, lsr #30
 8005b2a:	4641      	mov	r1, r8
 8005b2c:	008a      	lsls	r2, r1, #2
 8005b2e:	e9d7 0120 	ldrd	r0, r1, [r7, #128]	@ 0x80
 8005b32:	f7fb f8a9 	bl	8000c88 <__aeabi_uldivmod>
 8005b36:	4602      	mov	r2, r0
 8005b38:	460b      	mov	r3, r1
 8005b3a:	4611      	mov	r1, r2
 8005b3c:	4b38      	ldr	r3, [pc, #224]	@ (8005c20 <UART_SetConfig+0x4e4>)
 8005b3e:	fba3 2301 	umull	r2, r3, r3, r1
 8005b42:	095b      	lsrs	r3, r3, #5
 8005b44:	2264      	movs	r2, #100	@ 0x64
 8005b46:	fb02 f303 	mul.w	r3, r2, r3
 8005b4a:	1acb      	subs	r3, r1, r3
 8005b4c:	011b      	lsls	r3, r3, #4
 8005b4e:	3332      	adds	r3, #50	@ 0x32
 8005b50:	4a33      	ldr	r2, [pc, #204]	@ (8005c20 <UART_SetConfig+0x4e4>)
 8005b52:	fba2 2303 	umull	r2, r3, r2, r3
 8005b56:	095b      	lsrs	r3, r3, #5
 8005b58:	f003 03f0 	and.w	r3, r3, #240	@ 0xf0
 8005b5c:	441c      	add	r4, r3
 8005b5e:	f8d7 30fc 	ldr.w	r3, [r7, #252]	@ 0xfc
 8005b62:	2200      	movs	r2, #0
 8005b64:	673b      	str	r3, [r7, #112]	@ 0x70
 8005b66:	677a      	str	r2, [r7, #116]	@ 0x74
 8005b68:	e9d7 891c 	ldrd	r8, r9, [r7, #112]	@ 0x70
 8005b6c:	4642      	mov	r2, r8
 8005b6e:	464b      	mov	r3, r9
 8005b70:	1891      	adds	r1, r2, r2
 8005b72:	60b9      	str	r1, [r7, #8]
 8005b74:	415b      	adcs	r3, r3
 8005b76:	60fb      	str	r3, [r7, #12]
 8005b78:	e9d7 2302 	ldrd	r2, r3, [r7, #8]
 8005b7c:	4641      	mov	r1, r8
 8005b7e:	1851      	adds	r1, r2, r1
 8005b80:	6039      	str	r1, [r7, #0]
 8005b82:	4649      	mov	r1, r9
 8005b84:	414b      	adcs	r3, r1
 8005b86:	607b      	str	r3, [r7, #4]
 8005b88:	f04f 0200 	mov.w	r2, #0
 8005b8c:	f04f 0300 	mov.w	r3, #0
 8005b90:	e9d7 ab00 	ldrd	sl, fp, [r7]
 8005b94:	4659      	mov	r1, fp
 8005b96:	00cb      	lsls	r3, r1, #3
 8005b98:	4651      	mov	r1, sl
 8005b9a:	ea43 7351 	orr.w	r3, r3, r1, lsr #29
 8005b9e:	4651      	mov	r1, sl
 8005ba0:	00ca      	lsls	r2, r1, #3
 8005ba2:	4610      	mov	r0, r2
 8005ba4:	4619      	mov	r1, r3
 8005ba6:	4603      	mov	r3, r0
 8005ba8:	4642      	mov	r2, r8
 8005baa:	189b      	adds	r3, r3, r2
 8005bac:	66bb      	str	r3, [r7, #104]	@ 0x68
 8005bae:	464b      	mov	r3, r9
 8005bb0:	460a      	mov	r2, r1
 8005bb2:	eb42 0303 	adc.w	r3, r2, r3
 8005bb6:	66fb      	str	r3, [r7, #108]	@ 0x6c
 8005bb8:	f8d7 30f4 	ldr.w	r3, [r7, #244]	@ 0xf4
 8005bbc:	685b      	ldr	r3, [r3, #4]
 8005bbe:	2200      	movs	r2, #0
 8005bc0:	663b      	str	r3, [r7, #96]	@ 0x60
 8005bc2:	667a      	str	r2, [r7, #100]	@ 0x64
 8005bc4:	f04f 0200 	mov.w	r2, #0
 8005bc8:	f04f 0300 	mov.w	r3, #0
 8005bcc:	e9d7 8918 	ldrd	r8, r9, [r7, #96]	@ 0x60
 8005bd0:	4649      	mov	r1, r9
 8005bd2:	008b      	lsls	r3, r1, #2
 8005bd4:	4641      	mov	r1, r8
 8005bd6:	ea43 7391 	orr.w	r3, r3, r1, lsr #30
 8005bda:	4641      	mov	r1, r8
 8005bdc:	008a      	lsls	r2, r1, #2
 8005bde:	e9d7 011a 	ldrd	r0, r1, [r7, #104]	@ 0x68
 8005be2:	f7fb f851 	bl	8000c88 <__aeabi_uldivmod>
 8005be6:	4602      	mov	r2, r0
 8005be8:	460b      	mov	r3, r1
 8005bea:	4b0d      	ldr	r3, [pc, #52]	@ (8005c20 <UART_SetConfig+0x4e4>)
 8005bec:	fba3 1302 	umull	r1, r3, r3, r2
 8005bf0:	095b      	lsrs	r3, r3, #5
 8005bf2:	2164      	movs	r1, #100	@ 0x64
 8005bf4:	fb01 f303 	mul.w	r3, r1, r3
 8005bf8:	1ad3      	subs	r3, r2, r3
 8005bfa:	011b      	lsls	r3, r3, #4
 8005bfc:	3332      	adds	r3, #50	@ 0x32
 8005bfe:	4a08      	ldr	r2, [pc, #32]	@ (8005c20 <UART_SetConfig+0x4e4>)
 8005c00:	fba2 2303 	umull	r2, r3, r2, r3
 8005c04:	095b      	lsrs	r3, r3, #5
 8005c06:	f003 020f 	and.w	r2, r3, #15
 8005c0a:	f8d7 30f4 	ldr.w	r3, [r7, #244]	@ 0xf4
 8005c0e:	681b      	ldr	r3, [r3, #0]
 8005c10:	4422      	add	r2, r4
 8005c12:	609a      	str	r2, [r3, #8]
}
 8005c14:	bf00      	nop
 8005c16:	f507 7780 	add.w	r7, r7, #256	@ 0x100
 8005c1a:	46bd      	mov	sp, r7
 8005c1c:	e8bd 8fb0 	ldmia.w	sp!, {r4, r5, r7, r8, r9, sl, fp, pc}
 8005c20:	51eb851f 	.word	0x51eb851f

08005c24 <__cvt>:
 8005c24:	e92d 47ff 	stmdb	sp!, {r0, r1, r2, r3, r4, r5, r6, r7, r8, r9, sl, lr}
 8005c28:	ec57 6b10 	vmov	r6, r7, d0
 8005c2c:	2f00      	cmp	r7, #0
 8005c2e:	460c      	mov	r4, r1
 8005c30:	4619      	mov	r1, r3
 8005c32:	463b      	mov	r3, r7
 8005c34:	bfbb      	ittet	lt
 8005c36:	f107 4300 	addlt.w	r3, r7, #2147483648	@ 0x80000000
 8005c3a:	461f      	movlt	r7, r3
 8005c3c:	2300      	movge	r3, #0
 8005c3e:	232d      	movlt	r3, #45	@ 0x2d
 8005c40:	700b      	strb	r3, [r1, #0]
 8005c42:	9b0d      	ldr	r3, [sp, #52]	@ 0x34
 8005c44:	f8dd a030 	ldr.w	sl, [sp, #48]	@ 0x30
 8005c48:	4691      	mov	r9, r2
 8005c4a:	f023 0820 	bic.w	r8, r3, #32
 8005c4e:	bfbc      	itt	lt
 8005c50:	4632      	movlt	r2, r6
 8005c52:	4616      	movlt	r6, r2
 8005c54:	f1b8 0f46 	cmp.w	r8, #70	@ 0x46
 8005c58:	d005      	beq.n	8005c66 <__cvt+0x42>
 8005c5a:	f1b8 0f45 	cmp.w	r8, #69	@ 0x45
 8005c5e:	d100      	bne.n	8005c62 <__cvt+0x3e>
 8005c60:	3401      	adds	r4, #1
 8005c62:	2102      	movs	r1, #2
 8005c64:	e000      	b.n	8005c68 <__cvt+0x44>
 8005c66:	2103      	movs	r1, #3
 8005c68:	ab03      	add	r3, sp, #12
 8005c6a:	9301      	str	r3, [sp, #4]
 8005c6c:	ab02      	add	r3, sp, #8
 8005c6e:	9300      	str	r3, [sp, #0]
 8005c70:	ec47 6b10 	vmov	d0, r6, r7
 8005c74:	4653      	mov	r3, sl
 8005c76:	4622      	mov	r2, r4
 8005c78:	f000 fdd2 	bl	8006820 <_dtoa_r>
 8005c7c:	f1b8 0f47 	cmp.w	r8, #71	@ 0x47
 8005c80:	4605      	mov	r5, r0
 8005c82:	d119      	bne.n	8005cb8 <__cvt+0x94>
 8005c84:	f019 0f01 	tst.w	r9, #1
 8005c88:	d00e      	beq.n	8005ca8 <__cvt+0x84>
 8005c8a:	eb00 0904 	add.w	r9, r0, r4
 8005c8e:	2200      	movs	r2, #0
 8005c90:	2300      	movs	r3, #0
 8005c92:	4630      	mov	r0, r6
 8005c94:	4639      	mov	r1, r7
 8005c96:	f7fa ff37 	bl	8000b08 <__aeabi_dcmpeq>
 8005c9a:	b108      	cbz	r0, 8005ca0 <__cvt+0x7c>
 8005c9c:	f8cd 900c 	str.w	r9, [sp, #12]
 8005ca0:	2230      	movs	r2, #48	@ 0x30
 8005ca2:	9b03      	ldr	r3, [sp, #12]
 8005ca4:	454b      	cmp	r3, r9
 8005ca6:	d31e      	bcc.n	8005ce6 <__cvt+0xc2>
 8005ca8:	9b03      	ldr	r3, [sp, #12]
 8005caa:	9a0e      	ldr	r2, [sp, #56]	@ 0x38
 8005cac:	1b5b      	subs	r3, r3, r5
 8005cae:	4628      	mov	r0, r5
 8005cb0:	6013      	str	r3, [r2, #0]
 8005cb2:	b004      	add	sp, #16
 8005cb4:	e8bd 87f0 	ldmia.w	sp!, {r4, r5, r6, r7, r8, r9, sl, pc}
 8005cb8:	f1b8 0f46 	cmp.w	r8, #70	@ 0x46
 8005cbc:	eb00 0904 	add.w	r9, r0, r4
 8005cc0:	d1e5      	bne.n	8005c8e <__cvt+0x6a>
 8005cc2:	7803      	ldrb	r3, [r0, #0]
 8005cc4:	2b30      	cmp	r3, #48	@ 0x30
 8005cc6:	d10a      	bne.n	8005cde <__cvt+0xba>
 8005cc8:	2200      	movs	r2, #0
 8005cca:	2300      	movs	r3, #0
 8005ccc:	4630      	mov	r0, r6
 8005cce:	4639      	mov	r1, r7
 8005cd0:	f7fa ff1a 	bl	8000b08 <__aeabi_dcmpeq>
 8005cd4:	b918      	cbnz	r0, 8005cde <__cvt+0xba>
 8005cd6:	f1c4 0401 	rsb	r4, r4, #1
 8005cda:	f8ca 4000 	str.w	r4, [sl]
 8005cde:	f8da 3000 	ldr.w	r3, [sl]
 8005ce2:	4499      	add	r9, r3
 8005ce4:	e7d3      	b.n	8005c8e <__cvt+0x6a>
 8005ce6:	1c59      	adds	r1, r3, #1
 8005ce8:	9103      	str	r1, [sp, #12]
 8005cea:	701a      	strb	r2, [r3, #0]
 8005cec:	e7d9      	b.n	8005ca2 <__cvt+0x7e>

08005cee <__exponent>:
 8005cee:	b5f7      	push	{r0, r1, r2, r4, r5, r6, r7, lr}
 8005cf0:	2900      	cmp	r1, #0
 8005cf2:	bfba      	itte	lt
 8005cf4:	4249      	neglt	r1, r1
 8005cf6:	232d      	movlt	r3, #45	@ 0x2d
 8005cf8:	232b      	movge	r3, #43	@ 0x2b
 8005cfa:	2909      	cmp	r1, #9
 8005cfc:	7002      	strb	r2, [r0, #0]
 8005cfe:	7043      	strb	r3, [r0, #1]
 8005d00:	dd29      	ble.n	8005d56 <__exponent+0x68>
 8005d02:	f10d 0307 	add.w	r3, sp, #7
 8005d06:	461d      	mov	r5, r3
 8005d08:	270a      	movs	r7, #10
 8005d0a:	461a      	mov	r2, r3
 8005d0c:	fbb1 f6f7 	udiv	r6, r1, r7
 8005d10:	fb07 1416 	mls	r4, r7, r6, r1
 8005d14:	3430      	adds	r4, #48	@ 0x30
 8005d16:	f802 4c01 	strb.w	r4, [r2, #-1]
 8005d1a:	460c      	mov	r4, r1
 8005d1c:	2c63      	cmp	r4, #99	@ 0x63
 8005d1e:	f103 33ff 	add.w	r3, r3, #4294967295	@ 0xffffffff
 8005d22:	4631      	mov	r1, r6
 8005d24:	dcf1      	bgt.n	8005d0a <__exponent+0x1c>
 8005d26:	3130      	adds	r1, #48	@ 0x30
 8005d28:	1e94      	subs	r4, r2, #2
 8005d2a:	f803 1c01 	strb.w	r1, [r3, #-1]
 8005d2e:	1c41      	adds	r1, r0, #1
 8005d30:	4623      	mov	r3, r4
 8005d32:	42ab      	cmp	r3, r5
 8005d34:	d30a      	bcc.n	8005d4c <__exponent+0x5e>
 8005d36:	f10d 0309 	add.w	r3, sp, #9
 8005d3a:	1a9b      	subs	r3, r3, r2
 8005d3c:	42ac      	cmp	r4, r5
 8005d3e:	bf88      	it	hi
 8005d40:	2300      	movhi	r3, #0
 8005d42:	3302      	adds	r3, #2
 8005d44:	4403      	add	r3, r0
 8005d46:	1a18      	subs	r0, r3, r0
 8005d48:	b003      	add	sp, #12
 8005d4a:	bdf0      	pop	{r4, r5, r6, r7, pc}
 8005d4c:	f813 6b01 	ldrb.w	r6, [r3], #1
 8005d50:	f801 6f01 	strb.w	r6, [r1, #1]!
 8005d54:	e7ed      	b.n	8005d32 <__exponent+0x44>
 8005d56:	2330      	movs	r3, #48	@ 0x30
 8005d58:	3130      	adds	r1, #48	@ 0x30
 8005d5a:	7083      	strb	r3, [r0, #2]
 8005d5c:	70c1      	strb	r1, [r0, #3]
 8005d5e:	1d03      	adds	r3, r0, #4
 8005d60:	e7f1      	b.n	8005d46 <__exponent+0x58>
	...

08005d64 <_printf_float>:
 8005d64:	e92d 4ff0 	stmdb	sp!, {r4, r5, r6, r7, r8, r9, sl, fp, lr}
 8005d68:	b08d      	sub	sp, #52	@ 0x34
 8005d6a:	460c      	mov	r4, r1
 8005d6c:	f8dd 8058 	ldr.w	r8, [sp, #88]	@ 0x58
 8005d70:	4616      	mov	r6, r2
 8005d72:	461f      	mov	r7, r3
 8005d74:	4605      	mov	r5, r0
 8005d76:	f000 fc97 	bl	80066a8 <_localeconv_r>
 8005d7a:	6803      	ldr	r3, [r0, #0]
 8005d7c:	9304      	str	r3, [sp, #16]
 8005d7e:	4618      	mov	r0, r3
 8005d80:	f7fa fa96 	bl	80002b0 <strlen>
 8005d84:	2300      	movs	r3, #0
 8005d86:	930a      	str	r3, [sp, #40]	@ 0x28
 8005d88:	f8d8 3000 	ldr.w	r3, [r8]
 8005d8c:	9005      	str	r0, [sp, #20]
 8005d8e:	3307      	adds	r3, #7
 8005d90:	f023 0307 	bic.w	r3, r3, #7
 8005d94:	f103 0208 	add.w	r2, r3, #8
 8005d98:	f894 a018 	ldrb.w	sl, [r4, #24]
 8005d9c:	f8d4 b000 	ldr.w	fp, [r4]
 8005da0:	f8c8 2000 	str.w	r2, [r8]
 8005da4:	e9d3 8900 	ldrd	r8, r9, [r3]
 8005da8:	f029 4300 	bic.w	r3, r9, #2147483648	@ 0x80000000
 8005dac:	9307      	str	r3, [sp, #28]
 8005dae:	f8cd 8018 	str.w	r8, [sp, #24]
 8005db2:	e9c4 8912 	strd	r8, r9, [r4, #72]	@ 0x48
 8005db6:	e9dd 0106 	ldrd	r0, r1, [sp, #24]
 8005dba:	4b9c      	ldr	r3, [pc, #624]	@ (800602c <_printf_float+0x2c8>)
 8005dbc:	f04f 32ff 	mov.w	r2, #4294967295	@ 0xffffffff
 8005dc0:	f7fa fed4 	bl	8000b6c <__aeabi_dcmpun>
 8005dc4:	bb70      	cbnz	r0, 8005e24 <_printf_float+0xc0>
 8005dc6:	e9dd 0106 	ldrd	r0, r1, [sp, #24]
 8005dca:	4b98      	ldr	r3, [pc, #608]	@ (800602c <_printf_float+0x2c8>)
 8005dcc:	f04f 32ff 	mov.w	r2, #4294967295	@ 0xffffffff
 8005dd0:	f7fa feae 	bl	8000b30 <__aeabi_dcmple>
 8005dd4:	bb30      	cbnz	r0, 8005e24 <_printf_float+0xc0>
 8005dd6:	2200      	movs	r2, #0
 8005dd8:	2300      	movs	r3, #0
 8005dda:	4640      	mov	r0, r8
 8005ddc:	4649      	mov	r1, r9
 8005dde:	f7fa fe9d 	bl	8000b1c <__aeabi_dcmplt>
 8005de2:	b110      	cbz	r0, 8005dea <_printf_float+0x86>
 8005de4:	232d      	movs	r3, #45	@ 0x2d
 8005de6:	f884 3043 	strb.w	r3, [r4, #67]	@ 0x43
 8005dea:	4a91      	ldr	r2, [pc, #580]	@ (8006030 <_printf_float+0x2cc>)
 8005dec:	4b91      	ldr	r3, [pc, #580]	@ (8006034 <_printf_float+0x2d0>)
 8005dee:	f1ba 0f47 	cmp.w	sl, #71	@ 0x47
 8005df2:	bf94      	ite	ls
 8005df4:	4690      	movls	r8, r2
 8005df6:	4698      	movhi	r8, r3
 8005df8:	2303      	movs	r3, #3
 8005dfa:	6123      	str	r3, [r4, #16]
 8005dfc:	f02b 0304 	bic.w	r3, fp, #4
 8005e00:	6023      	str	r3, [r4, #0]
 8005e02:	f04f 0900 	mov.w	r9, #0
 8005e06:	9700      	str	r7, [sp, #0]
 8005e08:	4633      	mov	r3, r6
 8005e0a:	aa0b      	add	r2, sp, #44	@ 0x2c
 8005e0c:	4621      	mov	r1, r4
 8005e0e:	4628      	mov	r0, r5
 8005e10:	f000 f9d2 	bl	80061b8 <_printf_common>
 8005e14:	3001      	adds	r0, #1
 8005e16:	f040 808d 	bne.w	8005f34 <_printf_float+0x1d0>
 8005e1a:	f04f 30ff 	mov.w	r0, #4294967295	@ 0xffffffff
 8005e1e:	b00d      	add	sp, #52	@ 0x34
 8005e20:	e8bd 8ff0 	ldmia.w	sp!, {r4, r5, r6, r7, r8, r9, sl, fp, pc}
 8005e24:	4642      	mov	r2, r8
 8005e26:	464b      	mov	r3, r9
 8005e28:	4640      	mov	r0, r8
 8005e2a:	4649      	mov	r1, r9
 8005e2c:	f7fa fe9e 	bl	8000b6c <__aeabi_dcmpun>
 8005e30:	b140      	cbz	r0, 8005e44 <_printf_float+0xe0>
 8005e32:	464b      	mov	r3, r9
 8005e34:	2b00      	cmp	r3, #0
 8005e36:	bfbc      	itt	lt
 8005e38:	232d      	movlt	r3, #45	@ 0x2d
 8005e3a:	f884 3043 	strblt.w	r3, [r4, #67]	@ 0x43
 8005e3e:	4a7e      	ldr	r2, [pc, #504]	@ (8006038 <_printf_float+0x2d4>)
 8005e40:	4b7e      	ldr	r3, [pc, #504]	@ (800603c <_printf_float+0x2d8>)
 8005e42:	e7d4      	b.n	8005dee <_printf_float+0x8a>
 8005e44:	6863      	ldr	r3, [r4, #4]
 8005e46:	f00a 02df 	and.w	r2, sl, #223	@ 0xdf
 8005e4a:	9206      	str	r2, [sp, #24]
 8005e4c:	1c5a      	adds	r2, r3, #1
 8005e4e:	d13b      	bne.n	8005ec8 <_printf_float+0x164>
 8005e50:	2306      	movs	r3, #6
 8005e52:	6063      	str	r3, [r4, #4]
 8005e54:	f44b 6280 	orr.w	r2, fp, #1024	@ 0x400
 8005e58:	2300      	movs	r3, #0
 8005e5a:	6022      	str	r2, [r4, #0]
 8005e5c:	9303      	str	r3, [sp, #12]
 8005e5e:	ab0a      	add	r3, sp, #40	@ 0x28
 8005e60:	e9cd a301 	strd	sl, r3, [sp, #4]
 8005e64:	ab09      	add	r3, sp, #36	@ 0x24
 8005e66:	9300      	str	r3, [sp, #0]
 8005e68:	6861      	ldr	r1, [r4, #4]
 8005e6a:	ec49 8b10 	vmov	d0, r8, r9
 8005e6e:	f10d 0323 	add.w	r3, sp, #35	@ 0x23
 8005e72:	4628      	mov	r0, r5
 8005e74:	f7ff fed6 	bl	8005c24 <__cvt>
 8005e78:	9b06      	ldr	r3, [sp, #24]
 8005e7a:	9909      	ldr	r1, [sp, #36]	@ 0x24
 8005e7c:	2b47      	cmp	r3, #71	@ 0x47
 8005e7e:	4680      	mov	r8, r0
 8005e80:	d129      	bne.n	8005ed6 <_printf_float+0x172>
 8005e82:	1cc8      	adds	r0, r1, #3
 8005e84:	db02      	blt.n	8005e8c <_printf_float+0x128>
 8005e86:	6863      	ldr	r3, [r4, #4]
 8005e88:	4299      	cmp	r1, r3
 8005e8a:	dd41      	ble.n	8005f10 <_printf_float+0x1ac>
 8005e8c:	f1aa 0a02 	sub.w	sl, sl, #2
 8005e90:	fa5f fa8a 	uxtb.w	sl, sl
 8005e94:	3901      	subs	r1, #1
 8005e96:	4652      	mov	r2, sl
 8005e98:	f104 0050 	add.w	r0, r4, #80	@ 0x50
 8005e9c:	9109      	str	r1, [sp, #36]	@ 0x24
 8005e9e:	f7ff ff26 	bl	8005cee <__exponent>
 8005ea2:	9a0a      	ldr	r2, [sp, #40]	@ 0x28
 8005ea4:	1813      	adds	r3, r2, r0
 8005ea6:	2a01      	cmp	r2, #1
 8005ea8:	4681      	mov	r9, r0
 8005eaa:	6123      	str	r3, [r4, #16]
 8005eac:	dc02      	bgt.n	8005eb4 <_printf_float+0x150>
 8005eae:	6822      	ldr	r2, [r4, #0]
 8005eb0:	07d2      	lsls	r2, r2, #31
 8005eb2:	d501      	bpl.n	8005eb8 <_printf_float+0x154>
 8005eb4:	3301      	adds	r3, #1
 8005eb6:	6123      	str	r3, [r4, #16]
 8005eb8:	f89d 3023 	ldrb.w	r3, [sp, #35]	@ 0x23
 8005ebc:	2b00      	cmp	r3, #0
 8005ebe:	d0a2      	beq.n	8005e06 <_printf_float+0xa2>
 8005ec0:	232d      	movs	r3, #45	@ 0x2d
 8005ec2:	f884 3043 	strb.w	r3, [r4, #67]	@ 0x43
 8005ec6:	e79e      	b.n	8005e06 <_printf_float+0xa2>
 8005ec8:	9a06      	ldr	r2, [sp, #24]
 8005eca:	2a47      	cmp	r2, #71	@ 0x47
 8005ecc:	d1c2      	bne.n	8005e54 <_printf_float+0xf0>
 8005ece:	2b00      	cmp	r3, #0
 8005ed0:	d1c0      	bne.n	8005e54 <_printf_float+0xf0>
 8005ed2:	2301      	movs	r3, #1
 8005ed4:	e7bd      	b.n	8005e52 <_printf_float+0xee>
 8005ed6:	f1ba 0f65 	cmp.w	sl, #101	@ 0x65
 8005eda:	d9db      	bls.n	8005e94 <_printf_float+0x130>
 8005edc:	f1ba 0f66 	cmp.w	sl, #102	@ 0x66
 8005ee0:	d118      	bne.n	8005f14 <_printf_float+0x1b0>
 8005ee2:	2900      	cmp	r1, #0
 8005ee4:	6863      	ldr	r3, [r4, #4]
 8005ee6:	dd0b      	ble.n	8005f00 <_printf_float+0x19c>
 8005ee8:	6121      	str	r1, [r4, #16]
 8005eea:	b913      	cbnz	r3, 8005ef2 <_printf_float+0x18e>
 8005eec:	6822      	ldr	r2, [r4, #0]
 8005eee:	07d0      	lsls	r0, r2, #31
 8005ef0:	d502      	bpl.n	8005ef8 <_printf_float+0x194>
 8005ef2:	3301      	adds	r3, #1
 8005ef4:	440b      	add	r3, r1
 8005ef6:	6123      	str	r3, [r4, #16]
 8005ef8:	65a1      	str	r1, [r4, #88]	@ 0x58
 8005efa:	f04f 0900 	mov.w	r9, #0
 8005efe:	e7db      	b.n	8005eb8 <_printf_float+0x154>
 8005f00:	b913      	cbnz	r3, 8005f08 <_printf_float+0x1a4>
 8005f02:	6822      	ldr	r2, [r4, #0]
 8005f04:	07d2      	lsls	r2, r2, #31
 8005f06:	d501      	bpl.n	8005f0c <_printf_float+0x1a8>
 8005f08:	3302      	adds	r3, #2
 8005f0a:	e7f4      	b.n	8005ef6 <_printf_float+0x192>
 8005f0c:	2301      	movs	r3, #1
 8005f0e:	e7f2      	b.n	8005ef6 <_printf_float+0x192>
 8005f10:	f04f 0a67 	mov.w	sl, #103	@ 0x67
 8005f14:	9b0a      	ldr	r3, [sp, #40]	@ 0x28
 8005f16:	4299      	cmp	r1, r3
 8005f18:	db05      	blt.n	8005f26 <_printf_float+0x1c2>
 8005f1a:	6823      	ldr	r3, [r4, #0]
 8005f1c:	6121      	str	r1, [r4, #16]
 8005f1e:	07d8      	lsls	r0, r3, #31
 8005f20:	d5ea      	bpl.n	8005ef8 <_printf_float+0x194>
 8005f22:	1c4b      	adds	r3, r1, #1
 8005f24:	e7e7      	b.n	8005ef6 <_printf_float+0x192>
 8005f26:	2900      	cmp	r1, #0
 8005f28:	bfd4      	ite	le
 8005f2a:	f1c1 0202 	rsble	r2, r1, #2
 8005f2e:	2201      	movgt	r2, #1
 8005f30:	4413      	add	r3, r2
 8005f32:	e7e0      	b.n	8005ef6 <_printf_float+0x192>
 8005f34:	6823      	ldr	r3, [r4, #0]
 8005f36:	055a      	lsls	r2, r3, #21
 8005f38:	d407      	bmi.n	8005f4a <_printf_float+0x1e6>
 8005f3a:	6923      	ldr	r3, [r4, #16]
 8005f3c:	4642      	mov	r2, r8
 8005f3e:	4631      	mov	r1, r6
 8005f40:	4628      	mov	r0, r5
 8005f42:	47b8      	blx	r7
 8005f44:	3001      	adds	r0, #1
 8005f46:	d12b      	bne.n	8005fa0 <_printf_float+0x23c>
 8005f48:	e767      	b.n	8005e1a <_printf_float+0xb6>
 8005f4a:	f1ba 0f65 	cmp.w	sl, #101	@ 0x65
 8005f4e:	f240 80dd 	bls.w	800610c <_printf_float+0x3a8>
 8005f52:	e9d4 0112 	ldrd	r0, r1, [r4, #72]	@ 0x48
 8005f56:	2200      	movs	r2, #0
 8005f58:	2300      	movs	r3, #0
 8005f5a:	f7fa fdd5 	bl	8000b08 <__aeabi_dcmpeq>
 8005f5e:	2800      	cmp	r0, #0
 8005f60:	d033      	beq.n	8005fca <_printf_float+0x266>
 8005f62:	4a37      	ldr	r2, [pc, #220]	@ (8006040 <_printf_float+0x2dc>)
 8005f64:	2301      	movs	r3, #1
 8005f66:	4631      	mov	r1, r6
 8005f68:	4628      	mov	r0, r5
 8005f6a:	47b8      	blx	r7
 8005f6c:	3001      	adds	r0, #1
 8005f6e:	f43f af54 	beq.w	8005e1a <_printf_float+0xb6>
 8005f72:	e9dd 3809 	ldrd	r3, r8, [sp, #36]	@ 0x24
 8005f76:	4543      	cmp	r3, r8
 8005f78:	db02      	blt.n	8005f80 <_printf_float+0x21c>
 8005f7a:	6823      	ldr	r3, [r4, #0]
 8005f7c:	07d8      	lsls	r0, r3, #31
 8005f7e:	d50f      	bpl.n	8005fa0 <_printf_float+0x23c>
 8005f80:	e9dd 2304 	ldrd	r2, r3, [sp, #16]
 8005f84:	4631      	mov	r1, r6
 8005f86:	4628      	mov	r0, r5
 8005f88:	47b8      	blx	r7
 8005f8a:	3001      	adds	r0, #1
 8005f8c:	f43f af45 	beq.w	8005e1a <_printf_float+0xb6>
 8005f90:	f04f 0900 	mov.w	r9, #0
 8005f94:	f108 38ff 	add.w	r8, r8, #4294967295	@ 0xffffffff
 8005f98:	f104 0a1a 	add.w	sl, r4, #26
 8005f9c:	45c8      	cmp	r8, r9
 8005f9e:	dc09      	bgt.n	8005fb4 <_printf_float+0x250>
 8005fa0:	6823      	ldr	r3, [r4, #0]
 8005fa2:	079b      	lsls	r3, r3, #30
 8005fa4:	f100 8103 	bmi.w	80061ae <_printf_float+0x44a>
 8005fa8:	68e0      	ldr	r0, [r4, #12]
 8005faa:	9b0b      	ldr	r3, [sp, #44]	@ 0x2c
 8005fac:	4298      	cmp	r0, r3
 8005fae:	bfb8      	it	lt
 8005fb0:	4618      	movlt	r0, r3
 8005fb2:	e734      	b.n	8005e1e <_printf_float+0xba>
 8005fb4:	2301      	movs	r3, #1
 8005fb6:	4652      	mov	r2, sl
 8005fb8:	4631      	mov	r1, r6
 8005fba:	4628      	mov	r0, r5
 8005fbc:	47b8      	blx	r7
 8005fbe:	3001      	adds	r0, #1
 8005fc0:	f43f af2b 	beq.w	8005e1a <_printf_float+0xb6>
 8005fc4:	f109 0901 	add.w	r9, r9, #1
 8005fc8:	e7e8      	b.n	8005f9c <_printf_float+0x238>
 8005fca:	9b09      	ldr	r3, [sp, #36]	@ 0x24
 8005fcc:	2b00      	cmp	r3, #0
 8005fce:	dc39      	bgt.n	8006044 <_printf_float+0x2e0>
 8005fd0:	4a1b      	ldr	r2, [pc, #108]	@ (8006040 <_printf_float+0x2dc>)
 8005fd2:	2301      	movs	r3, #1
 8005fd4:	4631      	mov	r1, r6
 8005fd6:	4628      	mov	r0, r5
 8005fd8:	47b8      	blx	r7
 8005fda:	3001      	adds	r0, #1
 8005fdc:	f43f af1d 	beq.w	8005e1a <_printf_float+0xb6>
 8005fe0:	e9dd 3909 	ldrd	r3, r9, [sp, #36]	@ 0x24
 8005fe4:	ea59 0303 	orrs.w	r3, r9, r3
 8005fe8:	d102      	bne.n	8005ff0 <_printf_float+0x28c>
 8005fea:	6823      	ldr	r3, [r4, #0]
 8005fec:	07d9      	lsls	r1, r3, #31
 8005fee:	d5d7      	bpl.n	8005fa0 <_printf_float+0x23c>
 8005ff0:	e9dd 2304 	ldrd	r2, r3, [sp, #16]
 8005ff4:	4631      	mov	r1, r6
 8005ff6:	4628      	mov	r0, r5
 8005ff8:	47b8      	blx	r7
 8005ffa:	3001      	adds	r0, #1
 8005ffc:	f43f af0d 	beq.w	8005e1a <_printf_float+0xb6>
 8006000:	f04f 0a00 	mov.w	sl, #0
 8006004:	f104 0b1a 	add.w	fp, r4, #26
 8006008:	9b09      	ldr	r3, [sp, #36]	@ 0x24
 800600a:	425b      	negs	r3, r3
 800600c:	4553      	cmp	r3, sl
 800600e:	dc01      	bgt.n	8006014 <_printf_float+0x2b0>
 8006010:	464b      	mov	r3, r9
 8006012:	e793      	b.n	8005f3c <_printf_float+0x1d8>
 8006014:	2301      	movs	r3, #1
 8006016:	465a      	mov	r2, fp
 8006018:	4631      	mov	r1, r6
 800601a:	4628      	mov	r0, r5
 800601c:	47b8      	blx	r7
 800601e:	3001      	adds	r0, #1
 8006020:	f43f aefb 	beq.w	8005e1a <_printf_float+0xb6>
 8006024:	f10a 0a01 	add.w	sl, sl, #1
 8006028:	e7ee      	b.n	8006008 <_printf_float+0x2a4>
 800602a:	bf00      	nop
 800602c:	7fefffff 	.word	0x7fefffff
 8006030:	08009908 	.word	0x08009908
 8006034:	0800990c 	.word	0x0800990c
 8006038:	08009910 	.word	0x08009910
 800603c:	08009914 	.word	0x08009914
 8006040:	08009918 	.word	0x08009918
 8006044:	6da3      	ldr	r3, [r4, #88]	@ 0x58
 8006046:	f8dd a028 	ldr.w	sl, [sp, #40]	@ 0x28
 800604a:	4553      	cmp	r3, sl
 800604c:	bfa8      	it	ge
 800604e:	4653      	movge	r3, sl
 8006050:	2b00      	cmp	r3, #0
 8006052:	4699      	mov	r9, r3
 8006054:	dc36      	bgt.n	80060c4 <_printf_float+0x360>
 8006056:	f04f 0b00 	mov.w	fp, #0
 800605a:	ea29 79e9 	bic.w	r9, r9, r9, asr #31
 800605e:	f104 021a 	add.w	r2, r4, #26
 8006062:	6da3      	ldr	r3, [r4, #88]	@ 0x58
 8006064:	9306      	str	r3, [sp, #24]
 8006066:	eba3 0309 	sub.w	r3, r3, r9
 800606a:	455b      	cmp	r3, fp
 800606c:	dc31      	bgt.n	80060d2 <_printf_float+0x36e>
 800606e:	9b09      	ldr	r3, [sp, #36]	@ 0x24
 8006070:	459a      	cmp	sl, r3
 8006072:	dc3a      	bgt.n	80060ea <_printf_float+0x386>
 8006074:	6823      	ldr	r3, [r4, #0]
 8006076:	07da      	lsls	r2, r3, #31
 8006078:	d437      	bmi.n	80060ea <_printf_float+0x386>
 800607a:	9b09      	ldr	r3, [sp, #36]	@ 0x24
 800607c:	ebaa 0903 	sub.w	r9, sl, r3
 8006080:	9b06      	ldr	r3, [sp, #24]
 8006082:	ebaa 0303 	sub.w	r3, sl, r3
 8006086:	4599      	cmp	r9, r3
 8006088:	bfa8      	it	ge
 800608a:	4699      	movge	r9, r3
 800608c:	f1b9 0f00 	cmp.w	r9, #0
 8006090:	dc33      	bgt.n	80060fa <_printf_float+0x396>
 8006092:	f04f 0800 	mov.w	r8, #0
 8006096:	ea29 79e9 	bic.w	r9, r9, r9, asr #31
 800609a:	f104 0b1a 	add.w	fp, r4, #26
 800609e:	9b09      	ldr	r3, [sp, #36]	@ 0x24
 80060a0:	ebaa 0303 	sub.w	r3, sl, r3
 80060a4:	eba3 0309 	sub.w	r3, r3, r9
 80060a8:	4543      	cmp	r3, r8
 80060aa:	f77f af79 	ble.w	8005fa0 <_printf_float+0x23c>
 80060ae:	2301      	movs	r3, #1
 80060b0:	465a      	mov	r2, fp
 80060b2:	4631      	mov	r1, r6
 80060b4:	4628      	mov	r0, r5
 80060b6:	47b8      	blx	r7
 80060b8:	3001      	adds	r0, #1
 80060ba:	f43f aeae 	beq.w	8005e1a <_printf_float+0xb6>
 80060be:	f108 0801 	add.w	r8, r8, #1
 80060c2:	e7ec      	b.n	800609e <_printf_float+0x33a>
 80060c4:	4642      	mov	r2, r8
 80060c6:	4631      	mov	r1, r6
 80060c8:	4628      	mov	r0, r5
 80060ca:	47b8      	blx	r7
 80060cc:	3001      	adds	r0, #1
 80060ce:	d1c2      	bne.n	8006056 <_printf_float+0x2f2>
 80060d0:	e6a3      	b.n	8005e1a <_printf_float+0xb6>
 80060d2:	2301      	movs	r3, #1
 80060d4:	4631      	mov	r1, r6
 80060d6:	4628      	mov	r0, r5
 80060d8:	9206      	str	r2, [sp, #24]
 80060da:	47b8      	blx	r7
 80060dc:	3001      	adds	r0, #1
 80060de:	f43f ae9c 	beq.w	8005e1a <_printf_float+0xb6>
 80060e2:	9a06      	ldr	r2, [sp, #24]
 80060e4:	f10b 0b01 	add.w	fp, fp, #1
 80060e8:	e7bb      	b.n	8006062 <_printf_float+0x2fe>
 80060ea:	e9dd 2304 	ldrd	r2, r3, [sp, #16]
 80060ee:	4631      	mov	r1, r6
 80060f0:	4628      	mov	r0, r5
 80060f2:	47b8      	blx	r7
 80060f4:	3001      	adds	r0, #1
 80060f6:	d1c0      	bne.n	800607a <_printf_float+0x316>
 80060f8:	e68f      	b.n	8005e1a <_printf_float+0xb6>
 80060fa:	9a06      	ldr	r2, [sp, #24]
 80060fc:	464b      	mov	r3, r9
 80060fe:	4442      	add	r2, r8
 8006100:	4631      	mov	r1, r6
 8006102:	4628      	mov	r0, r5
 8006104:	47b8      	blx	r7
 8006106:	3001      	adds	r0, #1
 8006108:	d1c3      	bne.n	8006092 <_printf_float+0x32e>
 800610a:	e686      	b.n	8005e1a <_printf_float+0xb6>
 800610c:	f8dd a028 	ldr.w	sl, [sp, #40]	@ 0x28
 8006110:	f1ba 0f01 	cmp.w	sl, #1
 8006114:	dc01      	bgt.n	800611a <_printf_float+0x3b6>
 8006116:	07db      	lsls	r3, r3, #31
 8006118:	d536      	bpl.n	8006188 <_printf_float+0x424>
 800611a:	2301      	movs	r3, #1
 800611c:	4642      	mov	r2, r8
 800611e:	4631      	mov	r1, r6
 8006120:	4628      	mov	r0, r5
 8006122:	47b8      	blx	r7
 8006124:	3001      	adds	r0, #1
 8006126:	f43f ae78 	beq.w	8005e1a <_printf_float+0xb6>
 800612a:	e9dd 2304 	ldrd	r2, r3, [sp, #16]
 800612e:	4631      	mov	r1, r6
 8006130:	4628      	mov	r0, r5
 8006132:	47b8      	blx	r7
 8006134:	3001      	adds	r0, #1
 8006136:	f43f ae70 	beq.w	8005e1a <_printf_float+0xb6>
 800613a:	e9d4 0112 	ldrd	r0, r1, [r4, #72]	@ 0x48
 800613e:	2200      	movs	r2, #0
 8006140:	2300      	movs	r3, #0
 8006142:	f10a 3aff 	add.w	sl, sl, #4294967295	@ 0xffffffff
 8006146:	f7fa fcdf 	bl	8000b08 <__aeabi_dcmpeq>
 800614a:	b9c0      	cbnz	r0, 800617e <_printf_float+0x41a>
 800614c:	4653      	mov	r3, sl
 800614e:	f108 0201 	add.w	r2, r8, #1
 8006152:	4631      	mov	r1, r6
 8006154:	4628      	mov	r0, r5
 8006156:	47b8      	blx	r7
 8006158:	3001      	adds	r0, #1
 800615a:	d10c      	bne.n	8006176 <_printf_float+0x412>
 800615c:	e65d      	b.n	8005e1a <_printf_float+0xb6>
 800615e:	2301      	movs	r3, #1
 8006160:	465a      	mov	r2, fp
 8006162:	4631      	mov	r1, r6
 8006164:	4628      	mov	r0, r5
 8006166:	47b8      	blx	r7
 8006168:	3001      	adds	r0, #1
 800616a:	f43f ae56 	beq.w	8005e1a <_printf_float+0xb6>
 800616e:	f108 0801 	add.w	r8, r8, #1
 8006172:	45d0      	cmp	r8, sl
 8006174:	dbf3      	blt.n	800615e <_printf_float+0x3fa>
 8006176:	464b      	mov	r3, r9
 8006178:	f104 0250 	add.w	r2, r4, #80	@ 0x50
 800617c:	e6df      	b.n	8005f3e <_printf_float+0x1da>
 800617e:	f04f 0800 	mov.w	r8, #0
 8006182:	f104 0b1a 	add.w	fp, r4, #26
 8006186:	e7f4      	b.n	8006172 <_printf_float+0x40e>
 8006188:	2301      	movs	r3, #1
 800618a:	4642      	mov	r2, r8
 800618c:	e7e1      	b.n	8006152 <_printf_float+0x3ee>
 800618e:	2301      	movs	r3, #1
 8006190:	464a      	mov	r2, r9
 8006192:	4631      	mov	r1, r6
 8006194:	4628      	mov	r0, r5
 8006196:	47b8      	blx	r7
 8006198:	3001      	adds	r0, #1
 800619a:	f43f ae3e 	beq.w	8005e1a <_printf_float+0xb6>
 800619e:	f108 0801 	add.w	r8, r8, #1
 80061a2:	68e3      	ldr	r3, [r4, #12]
 80061a4:	990b      	ldr	r1, [sp, #44]	@ 0x2c
 80061a6:	1a5b      	subs	r3, r3, r1
 80061a8:	4543      	cmp	r3, r8
 80061aa:	dcf0      	bgt.n	800618e <_printf_float+0x42a>
 80061ac:	e6fc      	b.n	8005fa8 <_printf_float+0x244>
 80061ae:	f04f 0800 	mov.w	r8, #0
 80061b2:	f104 0919 	add.w	r9, r4, #25
 80061b6:	e7f4      	b.n	80061a2 <_printf_float+0x43e>

080061b8 <_printf_common>:
 80061b8:	e92d 47f0 	stmdb	sp!, {r4, r5, r6, r7, r8, r9, sl, lr}
 80061bc:	4616      	mov	r6, r2
 80061be:	4698      	mov	r8, r3
 80061c0:	688a      	ldr	r2, [r1, #8]
 80061c2:	690b      	ldr	r3, [r1, #16]
 80061c4:	f8dd 9020 	ldr.w	r9, [sp, #32]
 80061c8:	4293      	cmp	r3, r2
 80061ca:	bfb8      	it	lt
 80061cc:	4613      	movlt	r3, r2
 80061ce:	6033      	str	r3, [r6, #0]
 80061d0:	f891 2043 	ldrb.w	r2, [r1, #67]	@ 0x43
 80061d4:	4607      	mov	r7, r0
 80061d6:	460c      	mov	r4, r1
 80061d8:	b10a      	cbz	r2, 80061de <_printf_common+0x26>
 80061da:	3301      	adds	r3, #1
 80061dc:	6033      	str	r3, [r6, #0]
 80061de:	6823      	ldr	r3, [r4, #0]
 80061e0:	0699      	lsls	r1, r3, #26
 80061e2:	bf42      	ittt	mi
 80061e4:	6833      	ldrmi	r3, [r6, #0]
 80061e6:	3302      	addmi	r3, #2
 80061e8:	6033      	strmi	r3, [r6, #0]
 80061ea:	6825      	ldr	r5, [r4, #0]
 80061ec:	f015 0506 	ands.w	r5, r5, #6
 80061f0:	d106      	bne.n	8006200 <_printf_common+0x48>
 80061f2:	f104 0a19 	add.w	sl, r4, #25
 80061f6:	68e3      	ldr	r3, [r4, #12]
 80061f8:	6832      	ldr	r2, [r6, #0]
 80061fa:	1a9b      	subs	r3, r3, r2
 80061fc:	42ab      	cmp	r3, r5
 80061fe:	dc26      	bgt.n	800624e <_printf_common+0x96>
 8006200:	f894 3043 	ldrb.w	r3, [r4, #67]	@ 0x43
 8006204:	6822      	ldr	r2, [r4, #0]
 8006206:	3b00      	subs	r3, #0
 8006208:	bf18      	it	ne
 800620a:	2301      	movne	r3, #1
 800620c:	0692      	lsls	r2, r2, #26
 800620e:	d42b      	bmi.n	8006268 <_printf_common+0xb0>
 8006210:	f104 0243 	add.w	r2, r4, #67	@ 0x43
 8006214:	4641      	mov	r1, r8
 8006216:	4638      	mov	r0, r7
 8006218:	47c8      	blx	r9
 800621a:	3001      	adds	r0, #1
 800621c:	d01e      	beq.n	800625c <_printf_common+0xa4>
 800621e:	6823      	ldr	r3, [r4, #0]
 8006220:	6922      	ldr	r2, [r4, #16]
 8006222:	f003 0306 	and.w	r3, r3, #6
 8006226:	2b04      	cmp	r3, #4
 8006228:	bf02      	ittt	eq
 800622a:	68e5      	ldreq	r5, [r4, #12]
 800622c:	6833      	ldreq	r3, [r6, #0]
 800622e:	1aed      	subeq	r5, r5, r3
 8006230:	68a3      	ldr	r3, [r4, #8]
 8006232:	bf0c      	ite	eq
 8006234:	ea25 75e5 	biceq.w	r5, r5, r5, asr #31
 8006238:	2500      	movne	r5, #0
 800623a:	4293      	cmp	r3, r2
 800623c:	bfc4      	itt	gt
 800623e:	1a9b      	subgt	r3, r3, r2
 8006240:	18ed      	addgt	r5, r5, r3
 8006242:	2600      	movs	r6, #0
 8006244:	341a      	adds	r4, #26
 8006246:	42b5      	cmp	r5, r6
 8006248:	d11a      	bne.n	8006280 <_printf_common+0xc8>
 800624a:	2000      	movs	r0, #0
 800624c:	e008      	b.n	8006260 <_printf_common+0xa8>
 800624e:	2301      	movs	r3, #1
 8006250:	4652      	mov	r2, sl
 8006252:	4641      	mov	r1, r8
 8006254:	4638      	mov	r0, r7
 8006256:	47c8      	blx	r9
 8006258:	3001      	adds	r0, #1
 800625a:	d103      	bne.n	8006264 <_printf_common+0xac>
 800625c:	f04f 30ff 	mov.w	r0, #4294967295	@ 0xffffffff
 8006260:	e8bd 87f0 	ldmia.w	sp!, {r4, r5, r6, r7, r8, r9, sl, pc}
 8006264:	3501      	adds	r5, #1
 8006266:	e7c6      	b.n	80061f6 <_printf_common+0x3e>
 8006268:	18e1      	adds	r1, r4, r3
 800626a:	1c5a      	adds	r2, r3, #1
 800626c:	2030      	movs	r0, #48	@ 0x30
 800626e:	f881 0043 	strb.w	r0, [r1, #67]	@ 0x43
 8006272:	4422      	add	r2, r4
 8006274:	f894 1045 	ldrb.w	r1, [r4, #69]	@ 0x45
 8006278:	f882 1043 	strb.w	r1, [r2, #67]	@ 0x43
 800627c:	3302      	adds	r3, #2
 800627e:	e7c7      	b.n	8006210 <_printf_common+0x58>
 8006280:	2301      	movs	r3, #1
 8006282:	4622      	mov	r2, r4
 8006284:	4641      	mov	r1, r8
 8006286:	4638      	mov	r0, r7
 8006288:	47c8      	blx	r9
 800628a:	3001      	adds	r0, #1
 800628c:	d0e6      	beq.n	800625c <_printf_common+0xa4>
 800628e:	3601      	adds	r6, #1
 8006290:	e7d9      	b.n	8006246 <_printf_common+0x8e>
	...

08006294 <_printf_i>:
 8006294:	e92d 47ff 	stmdb	sp!, {r0, r1, r2, r3, r4, r5, r6, r7, r8, r9, sl, lr}
 8006298:	7e0f      	ldrb	r7, [r1, #24]
 800629a:	9e0c      	ldr	r6, [sp, #48]	@ 0x30
 800629c:	2f78      	cmp	r7, #120	@ 0x78
 800629e:	4691      	mov	r9, r2
 80062a0:	4680      	mov	r8, r0
 80062a2:	460c      	mov	r4, r1
 80062a4:	469a      	mov	sl, r3
 80062a6:	f101 0243 	add.w	r2, r1, #67	@ 0x43
 80062aa:	d807      	bhi.n	80062bc <_printf_i+0x28>
 80062ac:	2f62      	cmp	r7, #98	@ 0x62
 80062ae:	d80a      	bhi.n	80062c6 <_printf_i+0x32>
 80062b0:	2f00      	cmp	r7, #0
 80062b2:	f000 80d2 	beq.w	800645a <_printf_i+0x1c6>
 80062b6:	2f58      	cmp	r7, #88	@ 0x58
 80062b8:	f000 80b9 	beq.w	800642e <_printf_i+0x19a>
 80062bc:	f104 0642 	add.w	r6, r4, #66	@ 0x42
 80062c0:	f884 7042 	strb.w	r7, [r4, #66]	@ 0x42
 80062c4:	e03a      	b.n	800633c <_printf_i+0xa8>
 80062c6:	f1a7 0363 	sub.w	r3, r7, #99	@ 0x63
 80062ca:	2b15      	cmp	r3, #21
 80062cc:	d8f6      	bhi.n	80062bc <_printf_i+0x28>
 80062ce:	a101      	add	r1, pc, #4	@ (adr r1, 80062d4 <_printf_i+0x40>)
 80062d0:	f851 f023 	ldr.w	pc, [r1, r3, lsl #2]
 80062d4:	0800632d 	.word	0x0800632d
 80062d8:	08006341 	.word	0x08006341
 80062dc:	080062bd 	.word	0x080062bd
 80062e0:	080062bd 	.word	0x080062bd
 80062e4:	080062bd 	.word	0x080062bd
 80062e8:	080062bd 	.word	0x080062bd
 80062ec:	08006341 	.word	0x08006341
 80062f0:	080062bd 	.word	0x080062bd
 80062f4:	080062bd 	.word	0x080062bd
 80062f8:	080062bd 	.word	0x080062bd
 80062fc:	080062bd 	.word	0x080062bd
 8006300:	08006441 	.word	0x08006441
 8006304:	0800636b 	.word	0x0800636b
 8006308:	080063fb 	.word	0x080063fb
 800630c:	080062bd 	.word	0x080062bd
 8006310:	080062bd 	.word	0x080062bd
 8006314:	08006463 	.word	0x08006463
 8006318:	080062bd 	.word	0x080062bd
 800631c:	0800636b 	.word	0x0800636b
 8006320:	080062bd 	.word	0x080062bd
 8006324:	080062bd 	.word	0x080062bd
 8006328:	08006403 	.word	0x08006403
 800632c:	6833      	ldr	r3, [r6, #0]
 800632e:	1d1a      	adds	r2, r3, #4
 8006330:	681b      	ldr	r3, [r3, #0]
 8006332:	6032      	str	r2, [r6, #0]
 8006334:	f104 0642 	add.w	r6, r4, #66	@ 0x42
 8006338:	f884 3042 	strb.w	r3, [r4, #66]	@ 0x42
 800633c:	2301      	movs	r3, #1
 800633e:	e09d      	b.n	800647c <_printf_i+0x1e8>
 8006340:	6833      	ldr	r3, [r6, #0]
 8006342:	6820      	ldr	r0, [r4, #0]
 8006344:	1d19      	adds	r1, r3, #4
 8006346:	6031      	str	r1, [r6, #0]
 8006348:	0606      	lsls	r6, r0, #24
 800634a:	d501      	bpl.n	8006350 <_printf_i+0xbc>
 800634c:	681d      	ldr	r5, [r3, #0]
 800634e:	e003      	b.n	8006358 <_printf_i+0xc4>
 8006350:	0645      	lsls	r5, r0, #25
 8006352:	d5fb      	bpl.n	800634c <_printf_i+0xb8>
 8006354:	f9b3 5000 	ldrsh.w	r5, [r3]
 8006358:	2d00      	cmp	r5, #0
 800635a:	da03      	bge.n	8006364 <_printf_i+0xd0>
 800635c:	232d      	movs	r3, #45	@ 0x2d
 800635e:	426d      	negs	r5, r5
 8006360:	f884 3043 	strb.w	r3, [r4, #67]	@ 0x43
 8006364:	4859      	ldr	r0, [pc, #356]	@ (80064cc <_printf_i+0x238>)
 8006366:	230a      	movs	r3, #10
 8006368:	e011      	b.n	800638e <_printf_i+0xfa>
 800636a:	6821      	ldr	r1, [r4, #0]
 800636c:	6833      	ldr	r3, [r6, #0]
 800636e:	0608      	lsls	r0, r1, #24
 8006370:	f853 5b04 	ldr.w	r5, [r3], #4
 8006374:	d402      	bmi.n	800637c <_printf_i+0xe8>
 8006376:	0649      	lsls	r1, r1, #25
 8006378:	bf48      	it	mi
 800637a:	b2ad      	uxthmi	r5, r5
 800637c:	2f6f      	cmp	r7, #111	@ 0x6f
 800637e:	4853      	ldr	r0, [pc, #332]	@ (80064cc <_printf_i+0x238>)
 8006380:	6033      	str	r3, [r6, #0]
 8006382:	bf14      	ite	ne
 8006384:	230a      	movne	r3, #10
 8006386:	2308      	moveq	r3, #8
 8006388:	2100      	movs	r1, #0
 800638a:	f884 1043 	strb.w	r1, [r4, #67]	@ 0x43
 800638e:	6866      	ldr	r6, [r4, #4]
 8006390:	60a6      	str	r6, [r4, #8]
 8006392:	2e00      	cmp	r6, #0
 8006394:	bfa2      	ittt	ge
 8006396:	6821      	ldrge	r1, [r4, #0]
 8006398:	f021 0104 	bicge.w	r1, r1, #4
 800639c:	6021      	strge	r1, [r4, #0]
 800639e:	b90d      	cbnz	r5, 80063a4 <_printf_i+0x110>
 80063a0:	2e00      	cmp	r6, #0
 80063a2:	d04b      	beq.n	800643c <_printf_i+0x1a8>
 80063a4:	4616      	mov	r6, r2
 80063a6:	fbb5 f1f3 	udiv	r1, r5, r3
 80063aa:	fb03 5711 	mls	r7, r3, r1, r5
 80063ae:	5dc7      	ldrb	r7, [r0, r7]
 80063b0:	f806 7d01 	strb.w	r7, [r6, #-1]!
 80063b4:	462f      	mov	r7, r5
 80063b6:	42bb      	cmp	r3, r7
 80063b8:	460d      	mov	r5, r1
 80063ba:	d9f4      	bls.n	80063a6 <_printf_i+0x112>
 80063bc:	2b08      	cmp	r3, #8
 80063be:	d10b      	bne.n	80063d8 <_printf_i+0x144>
 80063c0:	6823      	ldr	r3, [r4, #0]
 80063c2:	07df      	lsls	r7, r3, #31
 80063c4:	d508      	bpl.n	80063d8 <_printf_i+0x144>
 80063c6:	6923      	ldr	r3, [r4, #16]
 80063c8:	6861      	ldr	r1, [r4, #4]
 80063ca:	4299      	cmp	r1, r3
 80063cc:	bfde      	ittt	le
 80063ce:	2330      	movle	r3, #48	@ 0x30
 80063d0:	f806 3c01 	strble.w	r3, [r6, #-1]
 80063d4:	f106 36ff 	addle.w	r6, r6, #4294967295	@ 0xffffffff
 80063d8:	1b92      	subs	r2, r2, r6
 80063da:	6122      	str	r2, [r4, #16]
 80063dc:	f8cd a000 	str.w	sl, [sp]
 80063e0:	464b      	mov	r3, r9
 80063e2:	aa03      	add	r2, sp, #12
 80063e4:	4621      	mov	r1, r4
 80063e6:	4640      	mov	r0, r8
 80063e8:	f7ff fee6 	bl	80061b8 <_printf_common>
 80063ec:	3001      	adds	r0, #1
 80063ee:	d14a      	bne.n	8006486 <_printf_i+0x1f2>
 80063f0:	f04f 30ff 	mov.w	r0, #4294967295	@ 0xffffffff
 80063f4:	b004      	add	sp, #16
 80063f6:	e8bd 87f0 	ldmia.w	sp!, {r4, r5, r6, r7, r8, r9, sl, pc}
 80063fa:	6823      	ldr	r3, [r4, #0]
 80063fc:	f043 0320 	orr.w	r3, r3, #32
 8006400:	6023      	str	r3, [r4, #0]
 8006402:	4833      	ldr	r0, [pc, #204]	@ (80064d0 <_printf_i+0x23c>)
 8006404:	2778      	movs	r7, #120	@ 0x78
 8006406:	f884 7045 	strb.w	r7, [r4, #69]	@ 0x45
 800640a:	6823      	ldr	r3, [r4, #0]
 800640c:	6831      	ldr	r1, [r6, #0]
 800640e:	061f      	lsls	r7, r3, #24
 8006410:	f851 5b04 	ldr.w	r5, [r1], #4
 8006414:	d402      	bmi.n	800641c <_printf_i+0x188>
 8006416:	065f      	lsls	r7, r3, #25
 8006418:	bf48      	it	mi
 800641a:	b2ad      	uxthmi	r5, r5
 800641c:	6031      	str	r1, [r6, #0]
 800641e:	07d9      	lsls	r1, r3, #31
 8006420:	bf44      	itt	mi
 8006422:	f043 0320 	orrmi.w	r3, r3, #32
 8006426:	6023      	strmi	r3, [r4, #0]
 8006428:	b11d      	cbz	r5, 8006432 <_printf_i+0x19e>
 800642a:	2310      	movs	r3, #16
 800642c:	e7ac      	b.n	8006388 <_printf_i+0xf4>
 800642e:	4827      	ldr	r0, [pc, #156]	@ (80064cc <_printf_i+0x238>)
 8006430:	e7e9      	b.n	8006406 <_printf_i+0x172>
 8006432:	6823      	ldr	r3, [r4, #0]
 8006434:	f023 0320 	bic.w	r3, r3, #32
 8006438:	6023      	str	r3, [r4, #0]
 800643a:	e7f6      	b.n	800642a <_printf_i+0x196>
 800643c:	4616      	mov	r6, r2
 800643e:	e7bd      	b.n	80063bc <_printf_i+0x128>
 8006440:	6833      	ldr	r3, [r6, #0]
 8006442:	6825      	ldr	r5, [r4, #0]
 8006444:	6961      	ldr	r1, [r4, #20]
 8006446:	1d18      	adds	r0, r3, #4
 8006448:	6030      	str	r0, [r6, #0]
 800644a:	062e      	lsls	r6, r5, #24
 800644c:	681b      	ldr	r3, [r3, #0]
 800644e:	d501      	bpl.n	8006454 <_printf_i+0x1c0>
 8006450:	6019      	str	r1, [r3, #0]
 8006452:	e002      	b.n	800645a <_printf_i+0x1c6>
 8006454:	0668      	lsls	r0, r5, #25
 8006456:	d5fb      	bpl.n	8006450 <_printf_i+0x1bc>
 8006458:	8019      	strh	r1, [r3, #0]
 800645a:	2300      	movs	r3, #0
 800645c:	6123      	str	r3, [r4, #16]
 800645e:	4616      	mov	r6, r2
 8006460:	e7bc      	b.n	80063dc <_printf_i+0x148>
 8006462:	6833      	ldr	r3, [r6, #0]
 8006464:	1d1a      	adds	r2, r3, #4
 8006466:	6032      	str	r2, [r6, #0]
 8006468:	681e      	ldr	r6, [r3, #0]
 800646a:	6862      	ldr	r2, [r4, #4]
 800646c:	2100      	movs	r1, #0
 800646e:	4630      	mov	r0, r6
 8006470:	f7f9 fece 	bl	8000210 <memchr>
 8006474:	b108      	cbz	r0, 800647a <_printf_i+0x1e6>
 8006476:	1b80      	subs	r0, r0, r6
 8006478:	6060      	str	r0, [r4, #4]
 800647a:	6863      	ldr	r3, [r4, #4]
 800647c:	6123      	str	r3, [r4, #16]
 800647e:	2300      	movs	r3, #0
 8006480:	f884 3043 	strb.w	r3, [r4, #67]	@ 0x43
 8006484:	e7aa      	b.n	80063dc <_printf_i+0x148>
 8006486:	6923      	ldr	r3, [r4, #16]
 8006488:	4632      	mov	r2, r6
 800648a:	4649      	mov	r1, r9
 800648c:	4640      	mov	r0, r8
 800648e:	47d0      	blx	sl
 8006490:	3001      	adds	r0, #1
 8006492:	d0ad      	beq.n	80063f0 <_printf_i+0x15c>
 8006494:	6823      	ldr	r3, [r4, #0]
 8006496:	079b      	lsls	r3, r3, #30
 8006498:	d413      	bmi.n	80064c2 <_printf_i+0x22e>
 800649a:	68e0      	ldr	r0, [r4, #12]
 800649c:	9b03      	ldr	r3, [sp, #12]
 800649e:	4298      	cmp	r0, r3
 80064a0:	bfb8      	it	lt
 80064a2:	4618      	movlt	r0, r3
 80064a4:	e7a6      	b.n	80063f4 <_printf_i+0x160>
 80064a6:	2301      	movs	r3, #1
 80064a8:	4632      	mov	r2, r6
 80064aa:	4649      	mov	r1, r9
 80064ac:	4640      	mov	r0, r8
 80064ae:	47d0      	blx	sl
 80064b0:	3001      	adds	r0, #1
 80064b2:	d09d      	beq.n	80063f0 <_printf_i+0x15c>
 80064b4:	3501      	adds	r5, #1
 80064b6:	68e3      	ldr	r3, [r4, #12]
 80064b8:	9903      	ldr	r1, [sp, #12]
 80064ba:	1a5b      	subs	r3, r3, r1
 80064bc:	42ab      	cmp	r3, r5
 80064be:	dcf2      	bgt.n	80064a6 <_printf_i+0x212>
 80064c0:	e7eb      	b.n	800649a <_printf_i+0x206>
 80064c2:	2500      	movs	r5, #0
 80064c4:	f104 0619 	add.w	r6, r4, #25
 80064c8:	e7f5      	b.n	80064b6 <_printf_i+0x222>
 80064ca:	bf00      	nop
 80064cc:	0800991a 	.word	0x0800991a
 80064d0:	0800992b 	.word	0x0800992b

080064d4 <siprintf>:
 80064d4:	b40e      	push	{r1, r2, r3}
 80064d6:	b500      	push	{lr}
 80064d8:	b09c      	sub	sp, #112	@ 0x70
 80064da:	ab1d      	add	r3, sp, #116	@ 0x74
 80064dc:	9002      	str	r0, [sp, #8]
 80064de:	9006      	str	r0, [sp, #24]
 80064e0:	f06f 4100 	mvn.w	r1, #2147483648	@ 0x80000000
 80064e4:	4809      	ldr	r0, [pc, #36]	@ (800650c <siprintf+0x38>)
 80064e6:	9107      	str	r1, [sp, #28]
 80064e8:	9104      	str	r1, [sp, #16]
 80064ea:	4909      	ldr	r1, [pc, #36]	@ (8006510 <siprintf+0x3c>)
 80064ec:	f853 2b04 	ldr.w	r2, [r3], #4
 80064f0:	9105      	str	r1, [sp, #20]
 80064f2:	6800      	ldr	r0, [r0, #0]
 80064f4:	9301      	str	r3, [sp, #4]
 80064f6:	a902      	add	r1, sp, #8
 80064f8:	f000 ffb2 	bl	8007460 <_svfiprintf_r>
 80064fc:	9b02      	ldr	r3, [sp, #8]
 80064fe:	2200      	movs	r2, #0
 8006500:	701a      	strb	r2, [r3, #0]
 8006502:	b01c      	add	sp, #112	@ 0x70
 8006504:	f85d eb04 	ldr.w	lr, [sp], #4
 8006508:	b003      	add	sp, #12
 800650a:	4770      	bx	lr
 800650c:	20000018 	.word	0x20000018
 8006510:	ffff0208 	.word	0xffff0208

08006514 <std>:
 8006514:	2300      	movs	r3, #0
 8006516:	b510      	push	{r4, lr}
 8006518:	4604      	mov	r4, r0
 800651a:	e9c0 3300 	strd	r3, r3, [r0]
 800651e:	e9c0 3304 	strd	r3, r3, [r0, #16]
 8006522:	6083      	str	r3, [r0, #8]
 8006524:	8181      	strh	r1, [r0, #12]
 8006526:	6643      	str	r3, [r0, #100]	@ 0x64
 8006528:	81c2      	strh	r2, [r0, #14]
 800652a:	6183      	str	r3, [r0, #24]
 800652c:	4619      	mov	r1, r3
 800652e:	2208      	movs	r2, #8
 8006530:	305c      	adds	r0, #92	@ 0x5c
 8006532:	f000 f8b1 	bl	8006698 <memset>
 8006536:	4b0d      	ldr	r3, [pc, #52]	@ (800656c <std+0x58>)
 8006538:	6263      	str	r3, [r4, #36]	@ 0x24
 800653a:	4b0d      	ldr	r3, [pc, #52]	@ (8006570 <std+0x5c>)
 800653c:	62a3      	str	r3, [r4, #40]	@ 0x28
 800653e:	4b0d      	ldr	r3, [pc, #52]	@ (8006574 <std+0x60>)
 8006540:	62e3      	str	r3, [r4, #44]	@ 0x2c
 8006542:	4b0d      	ldr	r3, [pc, #52]	@ (8006578 <std+0x64>)
 8006544:	6323      	str	r3, [r4, #48]	@ 0x30
 8006546:	4b0d      	ldr	r3, [pc, #52]	@ (800657c <std+0x68>)
 8006548:	6224      	str	r4, [r4, #32]
 800654a:	429c      	cmp	r4, r3
 800654c:	d006      	beq.n	800655c <std+0x48>
 800654e:	f103 0268 	add.w	r2, r3, #104	@ 0x68
 8006552:	4294      	cmp	r4, r2
 8006554:	d002      	beq.n	800655c <std+0x48>
 8006556:	33d0      	adds	r3, #208	@ 0xd0
 8006558:	429c      	cmp	r4, r3
 800655a:	d105      	bne.n	8006568 <std+0x54>
 800655c:	f104 0058 	add.w	r0, r4, #88	@ 0x58
 8006560:	e8bd 4010 	ldmia.w	sp!, {r4, lr}
 8006564:	f000 b8ce 	b.w	8006704 <__retarget_lock_init_recursive>
 8006568:	bd10      	pop	{r4, pc}
 800656a:	bf00      	nop
 800656c:	08008021 	.word	0x08008021
 8006570:	08008043 	.word	0x08008043
 8006574:	0800807b 	.word	0x0800807b
 8006578:	0800809f 	.word	0x0800809f
 800657c:	20000384 	.word	0x20000384

08006580 <stdio_exit_handler>:
 8006580:	4a02      	ldr	r2, [pc, #8]	@ (800658c <stdio_exit_handler+0xc>)
 8006582:	4903      	ldr	r1, [pc, #12]	@ (8006590 <stdio_exit_handler+0x10>)
 8006584:	4803      	ldr	r0, [pc, #12]	@ (8006594 <stdio_exit_handler+0x14>)
 8006586:	f000 b869 	b.w	800665c <_fwalk_sglue>
 800658a:	bf00      	nop
 800658c:	2000000c 	.word	0x2000000c
 8006590:	080078b5 	.word	0x080078b5
 8006594:	2000001c 	.word	0x2000001c

08006598 <cleanup_stdio>:
 8006598:	6841      	ldr	r1, [r0, #4]
 800659a:	4b0c      	ldr	r3, [pc, #48]	@ (80065cc <cleanup_stdio+0x34>)
 800659c:	4299      	cmp	r1, r3
 800659e:	b510      	push	{r4, lr}
 80065a0:	4604      	mov	r4, r0
 80065a2:	d001      	beq.n	80065a8 <cleanup_stdio+0x10>
 80065a4:	f001 f986 	bl	80078b4 <_fflush_r>
 80065a8:	68a1      	ldr	r1, [r4, #8]
 80065aa:	4b09      	ldr	r3, [pc, #36]	@ (80065d0 <cleanup_stdio+0x38>)
 80065ac:	4299      	cmp	r1, r3
 80065ae:	d002      	beq.n	80065b6 <cleanup_stdio+0x1e>
 80065b0:	4620      	mov	r0, r4
 80065b2:	f001 f97f 	bl	80078b4 <_fflush_r>
 80065b6:	68e1      	ldr	r1, [r4, #12]
 80065b8:	4b06      	ldr	r3, [pc, #24]	@ (80065d4 <cleanup_stdio+0x3c>)
 80065ba:	4299      	cmp	r1, r3
 80065bc:	d004      	beq.n	80065c8 <cleanup_stdio+0x30>
 80065be:	4620      	mov	r0, r4
 80065c0:	e8bd 4010 	ldmia.w	sp!, {r4, lr}
 80065c4:	f001 b976 	b.w	80078b4 <_fflush_r>
 80065c8:	bd10      	pop	{r4, pc}
 80065ca:	bf00      	nop
 80065cc:	20000384 	.word	0x20000384
 80065d0:	200003ec 	.word	0x200003ec
 80065d4:	20000454 	.word	0x20000454

080065d8 <global_stdio_init.part.0>:
 80065d8:	b510      	push	{r4, lr}
 80065da:	4b0b      	ldr	r3, [pc, #44]	@ (8006608 <global_stdio_init.part.0+0x30>)
 80065dc:	4c0b      	ldr	r4, [pc, #44]	@ (800660c <global_stdio_init.part.0+0x34>)
 80065de:	4a0c      	ldr	r2, [pc, #48]	@ (8006610 <global_stdio_init.part.0+0x38>)
 80065e0:	601a      	str	r2, [r3, #0]
 80065e2:	4620      	mov	r0, r4
 80065e4:	2200      	movs	r2, #0
 80065e6:	2104      	movs	r1, #4
 80065e8:	f7ff ff94 	bl	8006514 <std>
 80065ec:	f104 0068 	add.w	r0, r4, #104	@ 0x68
 80065f0:	2201      	movs	r2, #1
 80065f2:	2109      	movs	r1, #9
 80065f4:	f7ff ff8e 	bl	8006514 <std>
 80065f8:	f104 00d0 	add.w	r0, r4, #208	@ 0xd0
 80065fc:	2202      	movs	r2, #2
 80065fe:	e8bd 4010 	ldmia.w	sp!, {r4, lr}
 8006602:	2112      	movs	r1, #18
 8006604:	f7ff bf86 	b.w	8006514 <std>
 8006608:	200004bc 	.word	0x200004bc
 800660c:	20000384 	.word	0x20000384
 8006610:	08006581 	.word	0x08006581

08006614 <__sfp_lock_acquire>:
 8006614:	4801      	ldr	r0, [pc, #4]	@ (800661c <__sfp_lock_acquire+0x8>)
 8006616:	f000 b876 	b.w	8006706 <__retarget_lock_acquire_recursive>
 800661a:	bf00      	nop
 800661c:	200004c1 	.word	0x200004c1

08006620 <__sfp_lock_release>:
 8006620:	4801      	ldr	r0, [pc, #4]	@ (8006628 <__sfp_lock_release+0x8>)
 8006622:	f000 b871 	b.w	8006708 <__retarget_lock_release_recursive>
 8006626:	bf00      	nop
 8006628:	200004c1 	.word	0x200004c1

0800662c <__sinit>:
 800662c:	b510      	push	{r4, lr}
 800662e:	4604      	mov	r4, r0
 8006630:	f7ff fff0 	bl	8006614 <__sfp_lock_acquire>
 8006634:	6a23      	ldr	r3, [r4, #32]
 8006636:	b11b      	cbz	r3, 8006640 <__sinit+0x14>
 8006638:	e8bd 4010 	ldmia.w	sp!, {r4, lr}
 800663c:	f7ff bff0 	b.w	8006620 <__sfp_lock_release>
 8006640:	4b04      	ldr	r3, [pc, #16]	@ (8006654 <__sinit+0x28>)
 8006642:	6223      	str	r3, [r4, #32]
 8006644:	4b04      	ldr	r3, [pc, #16]	@ (8006658 <__sinit+0x2c>)
 8006646:	681b      	ldr	r3, [r3, #0]
 8006648:	2b00      	cmp	r3, #0
 800664a:	d1f5      	bne.n	8006638 <__sinit+0xc>
 800664c:	f7ff ffc4 	bl	80065d8 <global_stdio_init.part.0>
 8006650:	e7f2      	b.n	8006638 <__sinit+0xc>
 8006652:	bf00      	nop
 8006654:	08006599 	.word	0x08006599
 8006658:	200004bc 	.word	0x200004bc

0800665c <_fwalk_sglue>:
 800665c:	e92d 43f8 	stmdb	sp!, {r3, r4, r5, r6, r7, r8, r9, lr}
 8006660:	4607      	mov	r7, r0
 8006662:	4688      	mov	r8, r1
 8006664:	4614      	mov	r4, r2
 8006666:	2600      	movs	r6, #0
 8006668:	e9d4 9501 	ldrd	r9, r5, [r4, #4]
 800666c:	f1b9 0901 	subs.w	r9, r9, #1
 8006670:	d505      	bpl.n	800667e <_fwalk_sglue+0x22>
 8006672:	6824      	ldr	r4, [r4, #0]
 8006674:	2c00      	cmp	r4, #0
 8006676:	d1f7      	bne.n	8006668 <_fwalk_sglue+0xc>
 8006678:	4630      	mov	r0, r6
 800667a:	e8bd 83f8 	ldmia.w	sp!, {r3, r4, r5, r6, r7, r8, r9, pc}
 800667e:	89ab      	ldrh	r3, [r5, #12]
 8006680:	2b01      	cmp	r3, #1
 8006682:	d907      	bls.n	8006694 <_fwalk_sglue+0x38>
 8006684:	f9b5 300e 	ldrsh.w	r3, [r5, #14]
 8006688:	3301      	adds	r3, #1
 800668a:	d003      	beq.n	8006694 <_fwalk_sglue+0x38>
 800668c:	4629      	mov	r1, r5
 800668e:	4638      	mov	r0, r7
 8006690:	47c0      	blx	r8
 8006692:	4306      	orrs	r6, r0
 8006694:	3568      	adds	r5, #104	@ 0x68
 8006696:	e7e9      	b.n	800666c <_fwalk_sglue+0x10>

08006698 <memset>:
 8006698:	4402      	add	r2, r0
 800669a:	4603      	mov	r3, r0
 800669c:	4293      	cmp	r3, r2
 800669e:	d100      	bne.n	80066a2 <memset+0xa>
 80066a0:	4770      	bx	lr
 80066a2:	f803 1b01 	strb.w	r1, [r3], #1
 80066a6:	e7f9      	b.n	800669c <memset+0x4>

080066a8 <_localeconv_r>:
 80066a8:	4800      	ldr	r0, [pc, #0]	@ (80066ac <_localeconv_r+0x4>)
 80066aa:	4770      	bx	lr
 80066ac:	20000158 	.word	0x20000158

080066b0 <__errno>:
 80066b0:	4b01      	ldr	r3, [pc, #4]	@ (80066b8 <__errno+0x8>)
 80066b2:	6818      	ldr	r0, [r3, #0]
 80066b4:	4770      	bx	lr
 80066b6:	bf00      	nop
 80066b8:	20000018 	.word	0x20000018

080066bc <__libc_init_array>:
 80066bc:	b570      	push	{r4, r5, r6, lr}
 80066be:	4d0d      	ldr	r5, [pc, #52]	@ (80066f4 <__libc_init_array+0x38>)
 80066c0:	4c0d      	ldr	r4, [pc, #52]	@ (80066f8 <__libc_init_array+0x3c>)
 80066c2:	1b64      	subs	r4, r4, r5
 80066c4:	10a4      	asrs	r4, r4, #2
 80066c6:	2600      	movs	r6, #0
 80066c8:	42a6      	cmp	r6, r4
 80066ca:	d109      	bne.n	80066e0 <__libc_init_array+0x24>
 80066cc:	4d0b      	ldr	r5, [pc, #44]	@ (80066fc <__libc_init_array+0x40>)
 80066ce:	4c0c      	ldr	r4, [pc, #48]	@ (8006700 <__libc_init_array+0x44>)
 80066d0:	f003 f84e 	bl	8009770 <_init>
 80066d4:	1b64      	subs	r4, r4, r5
 80066d6:	10a4      	asrs	r4, r4, #2
 80066d8:	2600      	movs	r6, #0
 80066da:	42a6      	cmp	r6, r4
 80066dc:	d105      	bne.n	80066ea <__libc_init_array+0x2e>
 80066de:	bd70      	pop	{r4, r5, r6, pc}
 80066e0:	f855 3b04 	ldr.w	r3, [r5], #4
 80066e4:	4798      	blx	r3
 80066e6:	3601      	adds	r6, #1
 80066e8:	e7ee      	b.n	80066c8 <__libc_init_array+0xc>
 80066ea:	f855 3b04 	ldr.w	r3, [r5], #4
 80066ee:	4798      	blx	r3
 80066f0:	3601      	adds	r6, #1
 80066f2:	e7f2      	b.n	80066da <__libc_init_array+0x1e>
 80066f4:	08009cb0 	.word	0x08009cb0
 80066f8:	08009cb0 	.word	0x08009cb0
 80066fc:	08009cb0 	.word	0x08009cb0
 8006700:	08009cb4 	.word	0x08009cb4

08006704 <__retarget_lock_init_recursive>:
 8006704:	4770      	bx	lr

08006706 <__retarget_lock_acquire_recursive>:
 8006706:	4770      	bx	lr

08006708 <__retarget_lock_release_recursive>:
 8006708:	4770      	bx	lr

0800670a <quorem>:
 800670a:	e92d 4ff7 	stmdb	sp!, {r0, r1, r2, r4, r5, r6, r7, r8, r9, sl, fp, lr}
 800670e:	6903      	ldr	r3, [r0, #16]
 8006710:	690c      	ldr	r4, [r1, #16]
 8006712:	42a3      	cmp	r3, r4
 8006714:	4607      	mov	r7, r0
 8006716:	db7e      	blt.n	8006816 <quorem+0x10c>
 8006718:	3c01      	subs	r4, #1
 800671a:	f101 0814 	add.w	r8, r1, #20
 800671e:	00a3      	lsls	r3, r4, #2
 8006720:	f100 0514 	add.w	r5, r0, #20
 8006724:	9300      	str	r3, [sp, #0]
 8006726:	eb05 0384 	add.w	r3, r5, r4, lsl #2
 800672a:	9301      	str	r3, [sp, #4]
 800672c:	f858 3024 	ldr.w	r3, [r8, r4, lsl #2]
 8006730:	f855 2024 	ldr.w	r2, [r5, r4, lsl #2]
 8006734:	3301      	adds	r3, #1
 8006736:	429a      	cmp	r2, r3
 8006738:	eb08 0984 	add.w	r9, r8, r4, lsl #2
 800673c:	fbb2 f6f3 	udiv	r6, r2, r3
 8006740:	d32e      	bcc.n	80067a0 <quorem+0x96>
 8006742:	f04f 0a00 	mov.w	sl, #0
 8006746:	46c4      	mov	ip, r8
 8006748:	46ae      	mov	lr, r5
 800674a:	46d3      	mov	fp, sl
 800674c:	f85c 3b04 	ldr.w	r3, [ip], #4
 8006750:	b298      	uxth	r0, r3
 8006752:	fb06 a000 	mla	r0, r6, r0, sl
 8006756:	0c02      	lsrs	r2, r0, #16
 8006758:	0c1b      	lsrs	r3, r3, #16
 800675a:	fb06 2303 	mla	r3, r6, r3, r2
 800675e:	f8de 2000 	ldr.w	r2, [lr]
 8006762:	b280      	uxth	r0, r0
 8006764:	b292      	uxth	r2, r2
 8006766:	1a12      	subs	r2, r2, r0
 8006768:	445a      	add	r2, fp
 800676a:	f8de 0000 	ldr.w	r0, [lr]
 800676e:	ea4f 4a13 	mov.w	sl, r3, lsr #16
 8006772:	b29b      	uxth	r3, r3
 8006774:	ebc3 4322 	rsb	r3, r3, r2, asr #16
 8006778:	eb03 4310 	add.w	r3, r3, r0, lsr #16
 800677c:	b292      	uxth	r2, r2
 800677e:	ea42 4203 	orr.w	r2, r2, r3, lsl #16
 8006782:	45e1      	cmp	r9, ip
 8006784:	f84e 2b04 	str.w	r2, [lr], #4
 8006788:	ea4f 4b23 	mov.w	fp, r3, asr #16
 800678c:	d2de      	bcs.n	800674c <quorem+0x42>
 800678e:	9b00      	ldr	r3, [sp, #0]
 8006790:	58eb      	ldr	r3, [r5, r3]
 8006792:	b92b      	cbnz	r3, 80067a0 <quorem+0x96>
 8006794:	9b01      	ldr	r3, [sp, #4]
 8006796:	3b04      	subs	r3, #4
 8006798:	429d      	cmp	r5, r3
 800679a:	461a      	mov	r2, r3
 800679c:	d32f      	bcc.n	80067fe <quorem+0xf4>
 800679e:	613c      	str	r4, [r7, #16]
 80067a0:	4638      	mov	r0, r7
 80067a2:	f001 fb35 	bl	8007e10 <__mcmp>
 80067a6:	2800      	cmp	r0, #0
 80067a8:	db25      	blt.n	80067f6 <quorem+0xec>
 80067aa:	4629      	mov	r1, r5
 80067ac:	2000      	movs	r0, #0
 80067ae:	f858 2b04 	ldr.w	r2, [r8], #4
 80067b2:	f8d1 c000 	ldr.w	ip, [r1]
 80067b6:	fa1f fe82 	uxth.w	lr, r2
 80067ba:	fa1f f38c 	uxth.w	r3, ip
 80067be:	eba3 030e 	sub.w	r3, r3, lr
 80067c2:	4403      	add	r3, r0
 80067c4:	0c12      	lsrs	r2, r2, #16
 80067c6:	ebc2 4223 	rsb	r2, r2, r3, asr #16
 80067ca:	eb02 421c 	add.w	r2, r2, ip, lsr #16
 80067ce:	b29b      	uxth	r3, r3
 80067d0:	ea43 4302 	orr.w	r3, r3, r2, lsl #16
 80067d4:	45c1      	cmp	r9, r8
 80067d6:	f841 3b04 	str.w	r3, [r1], #4
 80067da:	ea4f 4022 	mov.w	r0, r2, asr #16
 80067de:	d2e6      	bcs.n	80067ae <quorem+0xa4>
 80067e0:	f855 2024 	ldr.w	r2, [r5, r4, lsl #2]
 80067e4:	eb05 0384 	add.w	r3, r5, r4, lsl #2
 80067e8:	b922      	cbnz	r2, 80067f4 <quorem+0xea>
 80067ea:	3b04      	subs	r3, #4
 80067ec:	429d      	cmp	r5, r3
 80067ee:	461a      	mov	r2, r3
 80067f0:	d30b      	bcc.n	800680a <quorem+0x100>
 80067f2:	613c      	str	r4, [r7, #16]
 80067f4:	3601      	adds	r6, #1
 80067f6:	4630      	mov	r0, r6
 80067f8:	b003      	add	sp, #12
 80067fa:	e8bd 8ff0 	ldmia.w	sp!, {r4, r5, r6, r7, r8, r9, sl, fp, pc}
 80067fe:	6812      	ldr	r2, [r2, #0]
 8006800:	3b04      	subs	r3, #4
 8006802:	2a00      	cmp	r2, #0
 8006804:	d1cb      	bne.n	800679e <quorem+0x94>
 8006806:	3c01      	subs	r4, #1
 8006808:	e7c6      	b.n	8006798 <quorem+0x8e>
 800680a:	6812      	ldr	r2, [r2, #0]
 800680c:	3b04      	subs	r3, #4
 800680e:	2a00      	cmp	r2, #0
 8006810:	d1ef      	bne.n	80067f2 <quorem+0xe8>
 8006812:	3c01      	subs	r4, #1
 8006814:	e7ea      	b.n	80067ec <quorem+0xe2>
 8006816:	2000      	movs	r0, #0
 8006818:	e7ee      	b.n	80067f8 <quorem+0xee>
 800681a:	0000      	movs	r0, r0
 800681c:	0000      	movs	r0, r0
	...

08006820 <_dtoa_r>:
 8006820:	e92d 4ff0 	stmdb	sp!, {r4, r5, r6, r7, r8, r9, sl, fp, lr}
 8006824:	69c7      	ldr	r7, [r0, #28]
 8006826:	b099      	sub	sp, #100	@ 0x64
 8006828:	ed8d 0b02 	vstr	d0, [sp, #8]
 800682c:	ec55 4b10 	vmov	r4, r5, d0
 8006830:	9e22      	ldr	r6, [sp, #136]	@ 0x88
 8006832:	9109      	str	r1, [sp, #36]	@ 0x24
 8006834:	4683      	mov	fp, r0
 8006836:	920e      	str	r2, [sp, #56]	@ 0x38
 8006838:	9313      	str	r3, [sp, #76]	@ 0x4c
 800683a:	b97f      	cbnz	r7, 800685c <_dtoa_r+0x3c>
 800683c:	2010      	movs	r0, #16
 800683e:	f000 ff0b 	bl	8007658 <malloc>
 8006842:	4602      	mov	r2, r0
 8006844:	f8cb 001c 	str.w	r0, [fp, #28]
 8006848:	b920      	cbnz	r0, 8006854 <_dtoa_r+0x34>
 800684a:	4ba7      	ldr	r3, [pc, #668]	@ (8006ae8 <_dtoa_r+0x2c8>)
 800684c:	21ef      	movs	r1, #239	@ 0xef
 800684e:	48a7      	ldr	r0, [pc, #668]	@ (8006aec <_dtoa_r+0x2cc>)
 8006850:	f001 fcd6 	bl	8008200 <__assert_func>
 8006854:	e9c0 7701 	strd	r7, r7, [r0, #4]
 8006858:	6007      	str	r7, [r0, #0]
 800685a:	60c7      	str	r7, [r0, #12]
 800685c:	f8db 301c 	ldr.w	r3, [fp, #28]
 8006860:	6819      	ldr	r1, [r3, #0]
 8006862:	b159      	cbz	r1, 800687c <_dtoa_r+0x5c>
 8006864:	685a      	ldr	r2, [r3, #4]
 8006866:	604a      	str	r2, [r1, #4]
 8006868:	2301      	movs	r3, #1
 800686a:	4093      	lsls	r3, r2
 800686c:	608b      	str	r3, [r1, #8]
 800686e:	4658      	mov	r0, fp
 8006870:	f001 f894 	bl	800799c <_Bfree>
 8006874:	f8db 301c 	ldr.w	r3, [fp, #28]
 8006878:	2200      	movs	r2, #0
 800687a:	601a      	str	r2, [r3, #0]
 800687c:	1e2b      	subs	r3, r5, #0
 800687e:	bfb9      	ittee	lt
 8006880:	f023 4300 	biclt.w	r3, r3, #2147483648	@ 0x80000000
 8006884:	9303      	strlt	r3, [sp, #12]
 8006886:	2300      	movge	r3, #0
 8006888:	6033      	strge	r3, [r6, #0]
 800688a:	9f03      	ldr	r7, [sp, #12]
 800688c:	4b98      	ldr	r3, [pc, #608]	@ (8006af0 <_dtoa_r+0x2d0>)
 800688e:	bfbc      	itt	lt
 8006890:	2201      	movlt	r2, #1
 8006892:	6032      	strlt	r2, [r6, #0]
 8006894:	43bb      	bics	r3, r7
 8006896:	d112      	bne.n	80068be <_dtoa_r+0x9e>
 8006898:	9a13      	ldr	r2, [sp, #76]	@ 0x4c
 800689a:	f242 730f 	movw	r3, #9999	@ 0x270f
 800689e:	6013      	str	r3, [r2, #0]
 80068a0:	f3c7 0313 	ubfx	r3, r7, #0, #20
 80068a4:	4323      	orrs	r3, r4
 80068a6:	f000 854d 	beq.w	8007344 <_dtoa_r+0xb24>
 80068aa:	9b23      	ldr	r3, [sp, #140]	@ 0x8c
 80068ac:	f8df a254 	ldr.w	sl, [pc, #596]	@ 8006b04 <_dtoa_r+0x2e4>
 80068b0:	2b00      	cmp	r3, #0
 80068b2:	f000 854f 	beq.w	8007354 <_dtoa_r+0xb34>
 80068b6:	f10a 0303 	add.w	r3, sl, #3
 80068ba:	f000 bd49 	b.w	8007350 <_dtoa_r+0xb30>
 80068be:	ed9d 7b02 	vldr	d7, [sp, #8]
 80068c2:	2200      	movs	r2, #0
 80068c4:	ec51 0b17 	vmov	r0, r1, d7
 80068c8:	2300      	movs	r3, #0
 80068ca:	ed8d 7b0c 	vstr	d7, [sp, #48]	@ 0x30
 80068ce:	f7fa f91b 	bl	8000b08 <__aeabi_dcmpeq>
 80068d2:	4680      	mov	r8, r0
 80068d4:	b158      	cbz	r0, 80068ee <_dtoa_r+0xce>
 80068d6:	9a13      	ldr	r2, [sp, #76]	@ 0x4c
 80068d8:	2301      	movs	r3, #1
 80068da:	6013      	str	r3, [r2, #0]
 80068dc:	9b23      	ldr	r3, [sp, #140]	@ 0x8c
 80068de:	b113      	cbz	r3, 80068e6 <_dtoa_r+0xc6>
 80068e0:	9a23      	ldr	r2, [sp, #140]	@ 0x8c
 80068e2:	4b84      	ldr	r3, [pc, #528]	@ (8006af4 <_dtoa_r+0x2d4>)
 80068e4:	6013      	str	r3, [r2, #0]
 80068e6:	f8df a220 	ldr.w	sl, [pc, #544]	@ 8006b08 <_dtoa_r+0x2e8>
 80068ea:	f000 bd33 	b.w	8007354 <_dtoa_r+0xb34>
 80068ee:	ed9d 0b0c 	vldr	d0, [sp, #48]	@ 0x30
 80068f2:	aa16      	add	r2, sp, #88	@ 0x58
 80068f4:	a917      	add	r1, sp, #92	@ 0x5c
 80068f6:	4658      	mov	r0, fp
 80068f8:	f001 fb3a 	bl	8007f70 <__d2b>
 80068fc:	f3c7 560a 	ubfx	r6, r7, #20, #11
 8006900:	4681      	mov	r9, r0
 8006902:	2e00      	cmp	r6, #0
 8006904:	d077      	beq.n	80069f6 <_dtoa_r+0x1d6>
 8006906:	9b0d      	ldr	r3, [sp, #52]	@ 0x34
 8006908:	f8cd 8050 	str.w	r8, [sp, #80]	@ 0x50
 800690c:	f3c3 0313 	ubfx	r3, r3, #0, #20
 8006910:	e9dd 010c 	ldrd	r0, r1, [sp, #48]	@ 0x30
 8006914:	f043 537f 	orr.w	r3, r3, #1069547520	@ 0x3fc00000
 8006918:	f443 1340 	orr.w	r3, r3, #3145728	@ 0x300000
 800691c:	f2a6 36ff 	subw	r6, r6, #1023	@ 0x3ff
 8006920:	4619      	mov	r1, r3
 8006922:	2200      	movs	r2, #0
 8006924:	4b74      	ldr	r3, [pc, #464]	@ (8006af8 <_dtoa_r+0x2d8>)
 8006926:	f7f9 fccf 	bl	80002c8 <__aeabi_dsub>
 800692a:	a369      	add	r3, pc, #420	@ (adr r3, 8006ad0 <_dtoa_r+0x2b0>)
 800692c:	e9d3 2300 	ldrd	r2, r3, [r3]
 8006930:	f7f9 fe82 	bl	8000638 <__aeabi_dmul>
 8006934:	a368      	add	r3, pc, #416	@ (adr r3, 8006ad8 <_dtoa_r+0x2b8>)
 8006936:	e9d3 2300 	ldrd	r2, r3, [r3]
 800693a:	f7f9 fcc7 	bl	80002cc <__adddf3>
 800693e:	4604      	mov	r4, r0
 8006940:	4630      	mov	r0, r6
 8006942:	460d      	mov	r5, r1
 8006944:	f7f9 fe0e 	bl	8000564 <__aeabi_i2d>
 8006948:	a365      	add	r3, pc, #404	@ (adr r3, 8006ae0 <_dtoa_r+0x2c0>)
 800694a:	e9d3 2300 	ldrd	r2, r3, [r3]
 800694e:	f7f9 fe73 	bl	8000638 <__aeabi_dmul>
 8006952:	4602      	mov	r2, r0
 8006954:	460b      	mov	r3, r1
 8006956:	4620      	mov	r0, r4
 8006958:	4629      	mov	r1, r5
 800695a:	f7f9 fcb7 	bl	80002cc <__adddf3>
 800695e:	4604      	mov	r4, r0
 8006960:	460d      	mov	r5, r1
 8006962:	f7fa f919 	bl	8000b98 <__aeabi_d2iz>
 8006966:	2200      	movs	r2, #0
 8006968:	4607      	mov	r7, r0
 800696a:	2300      	movs	r3, #0
 800696c:	4620      	mov	r0, r4
 800696e:	4629      	mov	r1, r5
 8006970:	f7fa f8d4 	bl	8000b1c <__aeabi_dcmplt>
 8006974:	b140      	cbz	r0, 8006988 <_dtoa_r+0x168>
 8006976:	4638      	mov	r0, r7
 8006978:	f7f9 fdf4 	bl	8000564 <__aeabi_i2d>
 800697c:	4622      	mov	r2, r4
 800697e:	462b      	mov	r3, r5
 8006980:	f7fa f8c2 	bl	8000b08 <__aeabi_dcmpeq>
 8006984:	b900      	cbnz	r0, 8006988 <_dtoa_r+0x168>
 8006986:	3f01      	subs	r7, #1
 8006988:	2f16      	cmp	r7, #22
 800698a:	d851      	bhi.n	8006a30 <_dtoa_r+0x210>
 800698c:	4b5b      	ldr	r3, [pc, #364]	@ (8006afc <_dtoa_r+0x2dc>)
 800698e:	eb03 03c7 	add.w	r3, r3, r7, lsl #3
 8006992:	e9d3 2300 	ldrd	r2, r3, [r3]
 8006996:	e9dd 010c 	ldrd	r0, r1, [sp, #48]	@ 0x30
 800699a:	f7fa f8bf 	bl	8000b1c <__aeabi_dcmplt>
 800699e:	2800      	cmp	r0, #0
 80069a0:	d048      	beq.n	8006a34 <_dtoa_r+0x214>
 80069a2:	3f01      	subs	r7, #1
 80069a4:	2300      	movs	r3, #0
 80069a6:	9312      	str	r3, [sp, #72]	@ 0x48
 80069a8:	9b16      	ldr	r3, [sp, #88]	@ 0x58
 80069aa:	1b9b      	subs	r3, r3, r6
 80069ac:	1e5a      	subs	r2, r3, #1
 80069ae:	bf44      	itt	mi
 80069b0:	f1c3 0801 	rsbmi	r8, r3, #1
 80069b4:	2300      	movmi	r3, #0
 80069b6:	9208      	str	r2, [sp, #32]
 80069b8:	bf54      	ite	pl
 80069ba:	f04f 0800 	movpl.w	r8, #0
 80069be:	9308      	strmi	r3, [sp, #32]
 80069c0:	2f00      	cmp	r7, #0
 80069c2:	db39      	blt.n	8006a38 <_dtoa_r+0x218>
 80069c4:	9b08      	ldr	r3, [sp, #32]
 80069c6:	970f      	str	r7, [sp, #60]	@ 0x3c
 80069c8:	443b      	add	r3, r7
 80069ca:	9308      	str	r3, [sp, #32]
 80069cc:	2300      	movs	r3, #0
 80069ce:	930a      	str	r3, [sp, #40]	@ 0x28
 80069d0:	9b09      	ldr	r3, [sp, #36]	@ 0x24
 80069d2:	2b09      	cmp	r3, #9
 80069d4:	d864      	bhi.n	8006aa0 <_dtoa_r+0x280>
 80069d6:	2b05      	cmp	r3, #5
 80069d8:	bfc4      	itt	gt
 80069da:	3b04      	subgt	r3, #4
 80069dc:	9309      	strgt	r3, [sp, #36]	@ 0x24
 80069de:	9b09      	ldr	r3, [sp, #36]	@ 0x24
 80069e0:	f1a3 0302 	sub.w	r3, r3, #2
 80069e4:	bfcc      	ite	gt
 80069e6:	2400      	movgt	r4, #0
 80069e8:	2401      	movle	r4, #1
 80069ea:	2b03      	cmp	r3, #3
 80069ec:	d863      	bhi.n	8006ab6 <_dtoa_r+0x296>
 80069ee:	e8df f003 	tbb	[pc, r3]
 80069f2:	372a      	.short	0x372a
 80069f4:	5535      	.short	0x5535
 80069f6:	e9dd 6316 	ldrd	r6, r3, [sp, #88]	@ 0x58
 80069fa:	441e      	add	r6, r3
 80069fc:	f206 4332 	addw	r3, r6, #1074	@ 0x432
 8006a00:	2b20      	cmp	r3, #32
 8006a02:	bfc1      	itttt	gt
 8006a04:	f1c3 0340 	rsbgt	r3, r3, #64	@ 0x40
 8006a08:	409f      	lslgt	r7, r3
 8006a0a:	f206 4312 	addwgt	r3, r6, #1042	@ 0x412
 8006a0e:	fa24 f303 	lsrgt.w	r3, r4, r3
 8006a12:	bfd6      	itet	le
 8006a14:	f1c3 0320 	rsble	r3, r3, #32
 8006a18:	ea47 0003 	orrgt.w	r0, r7, r3
 8006a1c:	fa04 f003 	lslle.w	r0, r4, r3
 8006a20:	f7f9 fd90 	bl	8000544 <__aeabi_ui2d>
 8006a24:	2201      	movs	r2, #1
 8006a26:	f1a1 73f8 	sub.w	r3, r1, #32505856	@ 0x1f00000
 8006a2a:	3e01      	subs	r6, #1
 8006a2c:	9214      	str	r2, [sp, #80]	@ 0x50
 8006a2e:	e777      	b.n	8006920 <_dtoa_r+0x100>
 8006a30:	2301      	movs	r3, #1
 8006a32:	e7b8      	b.n	80069a6 <_dtoa_r+0x186>
 8006a34:	9012      	str	r0, [sp, #72]	@ 0x48
 8006a36:	e7b7      	b.n	80069a8 <_dtoa_r+0x188>
 8006a38:	427b      	negs	r3, r7
 8006a3a:	930a      	str	r3, [sp, #40]	@ 0x28
 8006a3c:	2300      	movs	r3, #0
 8006a3e:	eba8 0807 	sub.w	r8, r8, r7
 8006a42:	930f      	str	r3, [sp, #60]	@ 0x3c
 8006a44:	e7c4      	b.n	80069d0 <_dtoa_r+0x1b0>
 8006a46:	2300      	movs	r3, #0
 8006a48:	930b      	str	r3, [sp, #44]	@ 0x2c
 8006a4a:	9b0e      	ldr	r3, [sp, #56]	@ 0x38
 8006a4c:	2b00      	cmp	r3, #0
 8006a4e:	dc35      	bgt.n	8006abc <_dtoa_r+0x29c>
 8006a50:	2301      	movs	r3, #1
 8006a52:	9300      	str	r3, [sp, #0]
 8006a54:	9307      	str	r3, [sp, #28]
 8006a56:	461a      	mov	r2, r3
 8006a58:	920e      	str	r2, [sp, #56]	@ 0x38
 8006a5a:	e00b      	b.n	8006a74 <_dtoa_r+0x254>
 8006a5c:	2301      	movs	r3, #1
 8006a5e:	e7f3      	b.n	8006a48 <_dtoa_r+0x228>
 8006a60:	2300      	movs	r3, #0
 8006a62:	930b      	str	r3, [sp, #44]	@ 0x2c
 8006a64:	9b0e      	ldr	r3, [sp, #56]	@ 0x38
 8006a66:	18fb      	adds	r3, r7, r3
 8006a68:	9300      	str	r3, [sp, #0]
 8006a6a:	3301      	adds	r3, #1
 8006a6c:	2b01      	cmp	r3, #1
 8006a6e:	9307      	str	r3, [sp, #28]
 8006a70:	bfb8      	it	lt
 8006a72:	2301      	movlt	r3, #1
 8006a74:	f8db 001c 	ldr.w	r0, [fp, #28]
 8006a78:	2100      	movs	r1, #0
 8006a7a:	2204      	movs	r2, #4
 8006a7c:	f102 0514 	add.w	r5, r2, #20
 8006a80:	429d      	cmp	r5, r3
 8006a82:	d91f      	bls.n	8006ac4 <_dtoa_r+0x2a4>
 8006a84:	6041      	str	r1, [r0, #4]
 8006a86:	4658      	mov	r0, fp
 8006a88:	f000 ff48 	bl	800791c <_Balloc>
 8006a8c:	4682      	mov	sl, r0
 8006a8e:	2800      	cmp	r0, #0
 8006a90:	d13c      	bne.n	8006b0c <_dtoa_r+0x2ec>
 8006a92:	4b1b      	ldr	r3, [pc, #108]	@ (8006b00 <_dtoa_r+0x2e0>)
 8006a94:	4602      	mov	r2, r0
 8006a96:	f240 11af 	movw	r1, #431	@ 0x1af
 8006a9a:	e6d8      	b.n	800684e <_dtoa_r+0x2e>
 8006a9c:	2301      	movs	r3, #1
 8006a9e:	e7e0      	b.n	8006a62 <_dtoa_r+0x242>
 8006aa0:	2401      	movs	r4, #1
 8006aa2:	2300      	movs	r3, #0
 8006aa4:	9309      	str	r3, [sp, #36]	@ 0x24
 8006aa6:	940b      	str	r4, [sp, #44]	@ 0x2c
 8006aa8:	f04f 33ff 	mov.w	r3, #4294967295	@ 0xffffffff
 8006aac:	9300      	str	r3, [sp, #0]
 8006aae:	9307      	str	r3, [sp, #28]
 8006ab0:	2200      	movs	r2, #0
 8006ab2:	2312      	movs	r3, #18
 8006ab4:	e7d0      	b.n	8006a58 <_dtoa_r+0x238>
 8006ab6:	2301      	movs	r3, #1
 8006ab8:	930b      	str	r3, [sp, #44]	@ 0x2c
 8006aba:	e7f5      	b.n	8006aa8 <_dtoa_r+0x288>
 8006abc:	9b0e      	ldr	r3, [sp, #56]	@ 0x38
 8006abe:	9300      	str	r3, [sp, #0]
 8006ac0:	9307      	str	r3, [sp, #28]
 8006ac2:	e7d7      	b.n	8006a74 <_dtoa_r+0x254>
 8006ac4:	3101      	adds	r1, #1
 8006ac6:	0052      	lsls	r2, r2, #1
 8006ac8:	e7d8      	b.n	8006a7c <_dtoa_r+0x25c>
 8006aca:	bf00      	nop
 8006acc:	f3af 8000 	nop.w
 8006ad0:	636f4361 	.word	0x636f4361
 8006ad4:	3fd287a7 	.word	0x3fd287a7
 8006ad8:	8b60c8b3 	.word	0x8b60c8b3
 8006adc:	3fc68a28 	.word	0x3fc68a28
 8006ae0:	509f79fb 	.word	0x509f79fb
 8006ae4:	3fd34413 	.word	0x3fd34413
 8006ae8:	08009949 	.word	0x08009949
 8006aec:	08009960 	.word	0x08009960
 8006af0:	7ff00000 	.word	0x7ff00000
 8006af4:	08009919 	.word	0x08009919
 8006af8:	3ff80000 	.word	0x3ff80000
 8006afc:	08009a68 	.word	0x08009a68
 8006b00:	080099b8 	.word	0x080099b8
 8006b04:	08009945 	.word	0x08009945
 8006b08:	08009918 	.word	0x08009918
 8006b0c:	f8db 301c 	ldr.w	r3, [fp, #28]
 8006b10:	6018      	str	r0, [r3, #0]
 8006b12:	9b07      	ldr	r3, [sp, #28]
 8006b14:	2b0e      	cmp	r3, #14
 8006b16:	f200 80a4 	bhi.w	8006c62 <_dtoa_r+0x442>
 8006b1a:	2c00      	cmp	r4, #0
 8006b1c:	f000 80a1 	beq.w	8006c62 <_dtoa_r+0x442>
 8006b20:	2f00      	cmp	r7, #0
 8006b22:	dd33      	ble.n	8006b8c <_dtoa_r+0x36c>
 8006b24:	4bad      	ldr	r3, [pc, #692]	@ (8006ddc <_dtoa_r+0x5bc>)
 8006b26:	f007 020f 	and.w	r2, r7, #15
 8006b2a:	eb03 03c2 	add.w	r3, r3, r2, lsl #3
 8006b2e:	ed93 7b00 	vldr	d7, [r3]
 8006b32:	05f8      	lsls	r0, r7, #23
 8006b34:	ed8d 7b04 	vstr	d7, [sp, #16]
 8006b38:	ea4f 1427 	mov.w	r4, r7, asr #4
 8006b3c:	d516      	bpl.n	8006b6c <_dtoa_r+0x34c>
 8006b3e:	4ba8      	ldr	r3, [pc, #672]	@ (8006de0 <_dtoa_r+0x5c0>)
 8006b40:	e9dd 010c 	ldrd	r0, r1, [sp, #48]	@ 0x30
 8006b44:	e9d3 2308 	ldrd	r2, r3, [r3, #32]
 8006b48:	f7f9 fea0 	bl	800088c <__aeabi_ddiv>
 8006b4c:	e9cd 0102 	strd	r0, r1, [sp, #8]
 8006b50:	f004 040f 	and.w	r4, r4, #15
 8006b54:	2603      	movs	r6, #3
 8006b56:	4da2      	ldr	r5, [pc, #648]	@ (8006de0 <_dtoa_r+0x5c0>)
 8006b58:	b954      	cbnz	r4, 8006b70 <_dtoa_r+0x350>
 8006b5a:	e9dd 2304 	ldrd	r2, r3, [sp, #16]
 8006b5e:	e9dd 0102 	ldrd	r0, r1, [sp, #8]
 8006b62:	f7f9 fe93 	bl	800088c <__aeabi_ddiv>
 8006b66:	e9cd 0102 	strd	r0, r1, [sp, #8]
 8006b6a:	e028      	b.n	8006bbe <_dtoa_r+0x39e>
 8006b6c:	2602      	movs	r6, #2
 8006b6e:	e7f2      	b.n	8006b56 <_dtoa_r+0x336>
 8006b70:	07e1      	lsls	r1, r4, #31
 8006b72:	d508      	bpl.n	8006b86 <_dtoa_r+0x366>
 8006b74:	e9dd 0104 	ldrd	r0, r1, [sp, #16]
 8006b78:	e9d5 2300 	ldrd	r2, r3, [r5]
 8006b7c:	f7f9 fd5c 	bl	8000638 <__aeabi_dmul>
 8006b80:	e9cd 0104 	strd	r0, r1, [sp, #16]
 8006b84:	3601      	adds	r6, #1
 8006b86:	1064      	asrs	r4, r4, #1
 8006b88:	3508      	adds	r5, #8
 8006b8a:	e7e5      	b.n	8006b58 <_dtoa_r+0x338>
 8006b8c:	f000 80d2 	beq.w	8006d34 <_dtoa_r+0x514>
 8006b90:	427c      	negs	r4, r7
 8006b92:	4b92      	ldr	r3, [pc, #584]	@ (8006ddc <_dtoa_r+0x5bc>)
 8006b94:	4d92      	ldr	r5, [pc, #584]	@ (8006de0 <_dtoa_r+0x5c0>)
 8006b96:	f004 020f 	and.w	r2, r4, #15
 8006b9a:	eb03 03c2 	add.w	r3, r3, r2, lsl #3
 8006b9e:	e9d3 2300 	ldrd	r2, r3, [r3]
 8006ba2:	e9dd 010c 	ldrd	r0, r1, [sp, #48]	@ 0x30
 8006ba6:	f7f9 fd47 	bl	8000638 <__aeabi_dmul>
 8006baa:	e9cd 0102 	strd	r0, r1, [sp, #8]
 8006bae:	1124      	asrs	r4, r4, #4
 8006bb0:	2300      	movs	r3, #0
 8006bb2:	2602      	movs	r6, #2
 8006bb4:	2c00      	cmp	r4, #0
 8006bb6:	f040 80b2 	bne.w	8006d1e <_dtoa_r+0x4fe>
 8006bba:	2b00      	cmp	r3, #0
 8006bbc:	d1d3      	bne.n	8006b66 <_dtoa_r+0x346>
 8006bbe:	9b12      	ldr	r3, [sp, #72]	@ 0x48
 8006bc0:	e9dd 4502 	ldrd	r4, r5, [sp, #8]
 8006bc4:	2b00      	cmp	r3, #0
 8006bc6:	f000 80b7 	beq.w	8006d38 <_dtoa_r+0x518>
 8006bca:	4b86      	ldr	r3, [pc, #536]	@ (8006de4 <_dtoa_r+0x5c4>)
 8006bcc:	2200      	movs	r2, #0
 8006bce:	4620      	mov	r0, r4
 8006bd0:	4629      	mov	r1, r5
 8006bd2:	f7f9 ffa3 	bl	8000b1c <__aeabi_dcmplt>
 8006bd6:	2800      	cmp	r0, #0
 8006bd8:	f000 80ae 	beq.w	8006d38 <_dtoa_r+0x518>
 8006bdc:	9b07      	ldr	r3, [sp, #28]
 8006bde:	2b00      	cmp	r3, #0
 8006be0:	f000 80aa 	beq.w	8006d38 <_dtoa_r+0x518>
 8006be4:	9b00      	ldr	r3, [sp, #0]
 8006be6:	2b00      	cmp	r3, #0
 8006be8:	dd37      	ble.n	8006c5a <_dtoa_r+0x43a>
 8006bea:	1e7b      	subs	r3, r7, #1
 8006bec:	9304      	str	r3, [sp, #16]
 8006bee:	4620      	mov	r0, r4
 8006bf0:	4b7d      	ldr	r3, [pc, #500]	@ (8006de8 <_dtoa_r+0x5c8>)
 8006bf2:	2200      	movs	r2, #0
 8006bf4:	4629      	mov	r1, r5
 8006bf6:	f7f9 fd1f 	bl	8000638 <__aeabi_dmul>
 8006bfa:	e9cd 0102 	strd	r0, r1, [sp, #8]
 8006bfe:	9c00      	ldr	r4, [sp, #0]
 8006c00:	3601      	adds	r6, #1
 8006c02:	4630      	mov	r0, r6
 8006c04:	f7f9 fcae 	bl	8000564 <__aeabi_i2d>
 8006c08:	e9dd 2302 	ldrd	r2, r3, [sp, #8]
 8006c0c:	f7f9 fd14 	bl	8000638 <__aeabi_dmul>
 8006c10:	4b76      	ldr	r3, [pc, #472]	@ (8006dec <_dtoa_r+0x5cc>)
 8006c12:	2200      	movs	r2, #0
 8006c14:	f7f9 fb5a 	bl	80002cc <__adddf3>
 8006c18:	4605      	mov	r5, r0
 8006c1a:	f1a1 7650 	sub.w	r6, r1, #54525952	@ 0x3400000
 8006c1e:	2c00      	cmp	r4, #0
 8006c20:	f040 808d 	bne.w	8006d3e <_dtoa_r+0x51e>
 8006c24:	e9dd 0102 	ldrd	r0, r1, [sp, #8]
 8006c28:	4b71      	ldr	r3, [pc, #452]	@ (8006df0 <_dtoa_r+0x5d0>)
 8006c2a:	2200      	movs	r2, #0
 8006c2c:	f7f9 fb4c 	bl	80002c8 <__aeabi_dsub>
 8006c30:	4602      	mov	r2, r0
 8006c32:	460b      	mov	r3, r1
 8006c34:	e9cd 2302 	strd	r2, r3, [sp, #8]
 8006c38:	462a      	mov	r2, r5
 8006c3a:	4633      	mov	r3, r6
 8006c3c:	f7f9 ff8c 	bl	8000b58 <__aeabi_dcmpgt>
 8006c40:	2800      	cmp	r0, #0
 8006c42:	f040 828b 	bne.w	800715c <_dtoa_r+0x93c>
 8006c46:	e9dd 0102 	ldrd	r0, r1, [sp, #8]
 8006c4a:	462a      	mov	r2, r5
 8006c4c:	f106 4300 	add.w	r3, r6, #2147483648	@ 0x80000000
 8006c50:	f7f9 ff64 	bl	8000b1c <__aeabi_dcmplt>
 8006c54:	2800      	cmp	r0, #0
 8006c56:	f040 8128 	bne.w	8006eaa <_dtoa_r+0x68a>
 8006c5a:	e9dd 340c 	ldrd	r3, r4, [sp, #48]	@ 0x30
 8006c5e:	e9cd 3402 	strd	r3, r4, [sp, #8]
 8006c62:	9b17      	ldr	r3, [sp, #92]	@ 0x5c
 8006c64:	2b00      	cmp	r3, #0
 8006c66:	f2c0 815a 	blt.w	8006f1e <_dtoa_r+0x6fe>
 8006c6a:	2f0e      	cmp	r7, #14
 8006c6c:	f300 8157 	bgt.w	8006f1e <_dtoa_r+0x6fe>
 8006c70:	4b5a      	ldr	r3, [pc, #360]	@ (8006ddc <_dtoa_r+0x5bc>)
 8006c72:	eb03 03c7 	add.w	r3, r3, r7, lsl #3
 8006c76:	ed93 7b00 	vldr	d7, [r3]
 8006c7a:	9b0e      	ldr	r3, [sp, #56]	@ 0x38
 8006c7c:	2b00      	cmp	r3, #0
 8006c7e:	ed8d 7b00 	vstr	d7, [sp]
 8006c82:	da03      	bge.n	8006c8c <_dtoa_r+0x46c>
 8006c84:	9b07      	ldr	r3, [sp, #28]
 8006c86:	2b00      	cmp	r3, #0
 8006c88:	f340 8101 	ble.w	8006e8e <_dtoa_r+0x66e>
 8006c8c:	e9dd 4502 	ldrd	r4, r5, [sp, #8]
 8006c90:	4656      	mov	r6, sl
 8006c92:	e9dd 2300 	ldrd	r2, r3, [sp]
 8006c96:	4620      	mov	r0, r4
 8006c98:	4629      	mov	r1, r5
 8006c9a:	f7f9 fdf7 	bl	800088c <__aeabi_ddiv>
 8006c9e:	f7f9 ff7b 	bl	8000b98 <__aeabi_d2iz>
 8006ca2:	4680      	mov	r8, r0
 8006ca4:	f7f9 fc5e 	bl	8000564 <__aeabi_i2d>
 8006ca8:	e9dd 2300 	ldrd	r2, r3, [sp]
 8006cac:	f7f9 fcc4 	bl	8000638 <__aeabi_dmul>
 8006cb0:	4602      	mov	r2, r0
 8006cb2:	460b      	mov	r3, r1
 8006cb4:	4620      	mov	r0, r4
 8006cb6:	4629      	mov	r1, r5
 8006cb8:	f108 0430 	add.w	r4, r8, #48	@ 0x30
 8006cbc:	f7f9 fb04 	bl	80002c8 <__aeabi_dsub>
 8006cc0:	f806 4b01 	strb.w	r4, [r6], #1
 8006cc4:	9d07      	ldr	r5, [sp, #28]
 8006cc6:	eba6 040a 	sub.w	r4, r6, sl
 8006cca:	42a5      	cmp	r5, r4
 8006ccc:	4602      	mov	r2, r0
 8006cce:	460b      	mov	r3, r1
 8006cd0:	f040 8117 	bne.w	8006f02 <_dtoa_r+0x6e2>
 8006cd4:	f7f9 fafa 	bl	80002cc <__adddf3>
 8006cd8:	e9dd 2300 	ldrd	r2, r3, [sp]
 8006cdc:	4604      	mov	r4, r0
 8006cde:	460d      	mov	r5, r1
 8006ce0:	f7f9 ff3a 	bl	8000b58 <__aeabi_dcmpgt>
 8006ce4:	2800      	cmp	r0, #0
 8006ce6:	f040 80f9 	bne.w	8006edc <_dtoa_r+0x6bc>
 8006cea:	e9dd 2300 	ldrd	r2, r3, [sp]
 8006cee:	4620      	mov	r0, r4
 8006cf0:	4629      	mov	r1, r5
 8006cf2:	f7f9 ff09 	bl	8000b08 <__aeabi_dcmpeq>
 8006cf6:	b118      	cbz	r0, 8006d00 <_dtoa_r+0x4e0>
 8006cf8:	f018 0f01 	tst.w	r8, #1
 8006cfc:	f040 80ee 	bne.w	8006edc <_dtoa_r+0x6bc>
 8006d00:	4649      	mov	r1, r9
 8006d02:	4658      	mov	r0, fp
 8006d04:	f000 fe4a 	bl	800799c <_Bfree>
 8006d08:	2300      	movs	r3, #0
 8006d0a:	7033      	strb	r3, [r6, #0]
 8006d0c:	9b13      	ldr	r3, [sp, #76]	@ 0x4c
 8006d0e:	3701      	adds	r7, #1
 8006d10:	601f      	str	r7, [r3, #0]
 8006d12:	9b23      	ldr	r3, [sp, #140]	@ 0x8c
 8006d14:	2b00      	cmp	r3, #0
 8006d16:	f000 831d 	beq.w	8007354 <_dtoa_r+0xb34>
 8006d1a:	601e      	str	r6, [r3, #0]
 8006d1c:	e31a      	b.n	8007354 <_dtoa_r+0xb34>
 8006d1e:	07e2      	lsls	r2, r4, #31
 8006d20:	d505      	bpl.n	8006d2e <_dtoa_r+0x50e>
 8006d22:	e9d5 2300 	ldrd	r2, r3, [r5]
 8006d26:	f7f9 fc87 	bl	8000638 <__aeabi_dmul>
 8006d2a:	3601      	adds	r6, #1
 8006d2c:	2301      	movs	r3, #1
 8006d2e:	1064      	asrs	r4, r4, #1
 8006d30:	3508      	adds	r5, #8
 8006d32:	e73f      	b.n	8006bb4 <_dtoa_r+0x394>
 8006d34:	2602      	movs	r6, #2
 8006d36:	e742      	b.n	8006bbe <_dtoa_r+0x39e>
 8006d38:	9c07      	ldr	r4, [sp, #28]
 8006d3a:	9704      	str	r7, [sp, #16]
 8006d3c:	e761      	b.n	8006c02 <_dtoa_r+0x3e2>
 8006d3e:	4b27      	ldr	r3, [pc, #156]	@ (8006ddc <_dtoa_r+0x5bc>)
 8006d40:	990b      	ldr	r1, [sp, #44]	@ 0x2c
 8006d42:	eb03 03c4 	add.w	r3, r3, r4, lsl #3
 8006d46:	e953 2302 	ldrd	r2, r3, [r3, #-8]
 8006d4a:	4454      	add	r4, sl
 8006d4c:	2900      	cmp	r1, #0
 8006d4e:	d053      	beq.n	8006df8 <_dtoa_r+0x5d8>
 8006d50:	4928      	ldr	r1, [pc, #160]	@ (8006df4 <_dtoa_r+0x5d4>)
 8006d52:	2000      	movs	r0, #0
 8006d54:	f7f9 fd9a 	bl	800088c <__aeabi_ddiv>
 8006d58:	4633      	mov	r3, r6
 8006d5a:	462a      	mov	r2, r5
 8006d5c:	f7f9 fab4 	bl	80002c8 <__aeabi_dsub>
 8006d60:	e9cd 0110 	strd	r0, r1, [sp, #64]	@ 0x40
 8006d64:	4656      	mov	r6, sl
 8006d66:	e9dd 0102 	ldrd	r0, r1, [sp, #8]
 8006d6a:	f7f9 ff15 	bl	8000b98 <__aeabi_d2iz>
 8006d6e:	4605      	mov	r5, r0
 8006d70:	f7f9 fbf8 	bl	8000564 <__aeabi_i2d>
 8006d74:	4602      	mov	r2, r0
 8006d76:	460b      	mov	r3, r1
 8006d78:	e9dd 0102 	ldrd	r0, r1, [sp, #8]
 8006d7c:	f7f9 faa4 	bl	80002c8 <__aeabi_dsub>
 8006d80:	3530      	adds	r5, #48	@ 0x30
 8006d82:	4602      	mov	r2, r0
 8006d84:	460b      	mov	r3, r1
 8006d86:	e9cd 2302 	strd	r2, r3, [sp, #8]
 8006d8a:	f806 5b01 	strb.w	r5, [r6], #1
 8006d8e:	e9dd 2310 	ldrd	r2, r3, [sp, #64]	@ 0x40
 8006d92:	f7f9 fec3 	bl	8000b1c <__aeabi_dcmplt>
 8006d96:	2800      	cmp	r0, #0
 8006d98:	d171      	bne.n	8006e7e <_dtoa_r+0x65e>
 8006d9a:	e9dd 2302 	ldrd	r2, r3, [sp, #8]
 8006d9e:	4911      	ldr	r1, [pc, #68]	@ (8006de4 <_dtoa_r+0x5c4>)
 8006da0:	2000      	movs	r0, #0
 8006da2:	f7f9 fa91 	bl	80002c8 <__aeabi_dsub>
 8006da6:	e9dd 2310 	ldrd	r2, r3, [sp, #64]	@ 0x40
 8006daa:	f7f9 feb7 	bl	8000b1c <__aeabi_dcmplt>
 8006dae:	2800      	cmp	r0, #0
 8006db0:	f040 8095 	bne.w	8006ede <_dtoa_r+0x6be>
 8006db4:	42a6      	cmp	r6, r4
 8006db6:	f43f af50 	beq.w	8006c5a <_dtoa_r+0x43a>
 8006dba:	e9dd 0110 	ldrd	r0, r1, [sp, #64]	@ 0x40
 8006dbe:	4b0a      	ldr	r3, [pc, #40]	@ (8006de8 <_dtoa_r+0x5c8>)
 8006dc0:	2200      	movs	r2, #0
 8006dc2:	f7f9 fc39 	bl	8000638 <__aeabi_dmul>
 8006dc6:	4b08      	ldr	r3, [pc, #32]	@ (8006de8 <_dtoa_r+0x5c8>)
 8006dc8:	e9cd 0110 	strd	r0, r1, [sp, #64]	@ 0x40
 8006dcc:	2200      	movs	r2, #0
 8006dce:	e9dd 0102 	ldrd	r0, r1, [sp, #8]
 8006dd2:	f7f9 fc31 	bl	8000638 <__aeabi_dmul>
 8006dd6:	e9cd 0102 	strd	r0, r1, [sp, #8]
 8006dda:	e7c4      	b.n	8006d66 <_dtoa_r+0x546>
 8006ddc:	08009a68 	.word	0x08009a68
 8006de0:	08009a40 	.word	0x08009a40
 8006de4:	3ff00000 	.word	0x3ff00000
 8006de8:	40240000 	.word	0x40240000
 8006dec:	401c0000 	.word	0x401c0000
 8006df0:	40140000 	.word	0x40140000
 8006df4:	3fe00000 	.word	0x3fe00000
 8006df8:	4631      	mov	r1, r6
 8006dfa:	4628      	mov	r0, r5
 8006dfc:	f7f9 fc1c 	bl	8000638 <__aeabi_dmul>
 8006e00:	e9cd 0110 	strd	r0, r1, [sp, #64]	@ 0x40
 8006e04:	9415      	str	r4, [sp, #84]	@ 0x54
 8006e06:	4656      	mov	r6, sl
 8006e08:	e9dd 0102 	ldrd	r0, r1, [sp, #8]
 8006e0c:	f7f9 fec4 	bl	8000b98 <__aeabi_d2iz>
 8006e10:	4605      	mov	r5, r0
 8006e12:	f7f9 fba7 	bl	8000564 <__aeabi_i2d>
 8006e16:	4602      	mov	r2, r0
 8006e18:	460b      	mov	r3, r1
 8006e1a:	e9dd 0102 	ldrd	r0, r1, [sp, #8]
 8006e1e:	f7f9 fa53 	bl	80002c8 <__aeabi_dsub>
 8006e22:	3530      	adds	r5, #48	@ 0x30
 8006e24:	f806 5b01 	strb.w	r5, [r6], #1
 8006e28:	4602      	mov	r2, r0
 8006e2a:	460b      	mov	r3, r1
 8006e2c:	42a6      	cmp	r6, r4
 8006e2e:	e9cd 2302 	strd	r2, r3, [sp, #8]
 8006e32:	f04f 0200 	mov.w	r2, #0
 8006e36:	d124      	bne.n	8006e82 <_dtoa_r+0x662>
 8006e38:	4bac      	ldr	r3, [pc, #688]	@ (80070ec <_dtoa_r+0x8cc>)
 8006e3a:	e9dd 0110 	ldrd	r0, r1, [sp, #64]	@ 0x40
 8006e3e:	f7f9 fa45 	bl	80002cc <__adddf3>
 8006e42:	4602      	mov	r2, r0
 8006e44:	460b      	mov	r3, r1
 8006e46:	e9dd 0102 	ldrd	r0, r1, [sp, #8]
 8006e4a:	f7f9 fe85 	bl	8000b58 <__aeabi_dcmpgt>
 8006e4e:	2800      	cmp	r0, #0
 8006e50:	d145      	bne.n	8006ede <_dtoa_r+0x6be>
 8006e52:	e9dd 2310 	ldrd	r2, r3, [sp, #64]	@ 0x40
 8006e56:	49a5      	ldr	r1, [pc, #660]	@ (80070ec <_dtoa_r+0x8cc>)
 8006e58:	2000      	movs	r0, #0
 8006e5a:	f7f9 fa35 	bl	80002c8 <__aeabi_dsub>
 8006e5e:	4602      	mov	r2, r0
 8006e60:	460b      	mov	r3, r1
 8006e62:	e9dd 0102 	ldrd	r0, r1, [sp, #8]
 8006e66:	f7f9 fe59 	bl	8000b1c <__aeabi_dcmplt>
 8006e6a:	2800      	cmp	r0, #0
 8006e6c:	f43f aef5 	beq.w	8006c5a <_dtoa_r+0x43a>
 8006e70:	9e15      	ldr	r6, [sp, #84]	@ 0x54
 8006e72:	1e73      	subs	r3, r6, #1
 8006e74:	9315      	str	r3, [sp, #84]	@ 0x54
 8006e76:	f816 3c01 	ldrb.w	r3, [r6, #-1]
 8006e7a:	2b30      	cmp	r3, #48	@ 0x30
 8006e7c:	d0f8      	beq.n	8006e70 <_dtoa_r+0x650>
 8006e7e:	9f04      	ldr	r7, [sp, #16]
 8006e80:	e73e      	b.n	8006d00 <_dtoa_r+0x4e0>
 8006e82:	4b9b      	ldr	r3, [pc, #620]	@ (80070f0 <_dtoa_r+0x8d0>)
 8006e84:	f7f9 fbd8 	bl	8000638 <__aeabi_dmul>
 8006e88:	e9cd 0102 	strd	r0, r1, [sp, #8]
 8006e8c:	e7bc      	b.n	8006e08 <_dtoa_r+0x5e8>
 8006e8e:	d10c      	bne.n	8006eaa <_dtoa_r+0x68a>
 8006e90:	4b98      	ldr	r3, [pc, #608]	@ (80070f4 <_dtoa_r+0x8d4>)
 8006e92:	2200      	movs	r2, #0
 8006e94:	e9dd 0100 	ldrd	r0, r1, [sp]
 8006e98:	f7f9 fbce 	bl	8000638 <__aeabi_dmul>
 8006e9c:	e9dd 2302 	ldrd	r2, r3, [sp, #8]
 8006ea0:	f7f9 fe50 	bl	8000b44 <__aeabi_dcmpge>
 8006ea4:	2800      	cmp	r0, #0
 8006ea6:	f000 8157 	beq.w	8007158 <_dtoa_r+0x938>
 8006eaa:	2400      	movs	r4, #0
 8006eac:	4625      	mov	r5, r4
 8006eae:	9b0e      	ldr	r3, [sp, #56]	@ 0x38
 8006eb0:	43db      	mvns	r3, r3
 8006eb2:	9304      	str	r3, [sp, #16]
 8006eb4:	4656      	mov	r6, sl
 8006eb6:	2700      	movs	r7, #0
 8006eb8:	4621      	mov	r1, r4
 8006eba:	4658      	mov	r0, fp
 8006ebc:	f000 fd6e 	bl	800799c <_Bfree>
 8006ec0:	2d00      	cmp	r5, #0
 8006ec2:	d0dc      	beq.n	8006e7e <_dtoa_r+0x65e>
 8006ec4:	b12f      	cbz	r7, 8006ed2 <_dtoa_r+0x6b2>
 8006ec6:	42af      	cmp	r7, r5
 8006ec8:	d003      	beq.n	8006ed2 <_dtoa_r+0x6b2>
 8006eca:	4639      	mov	r1, r7
 8006ecc:	4658      	mov	r0, fp
 8006ece:	f000 fd65 	bl	800799c <_Bfree>
 8006ed2:	4629      	mov	r1, r5
 8006ed4:	4658      	mov	r0, fp
 8006ed6:	f000 fd61 	bl	800799c <_Bfree>
 8006eda:	e7d0      	b.n	8006e7e <_dtoa_r+0x65e>
 8006edc:	9704      	str	r7, [sp, #16]
 8006ede:	4633      	mov	r3, r6
 8006ee0:	461e      	mov	r6, r3
 8006ee2:	f813 2d01 	ldrb.w	r2, [r3, #-1]!
 8006ee6:	2a39      	cmp	r2, #57	@ 0x39
 8006ee8:	d107      	bne.n	8006efa <_dtoa_r+0x6da>
 8006eea:	459a      	cmp	sl, r3
 8006eec:	d1f8      	bne.n	8006ee0 <_dtoa_r+0x6c0>
 8006eee:	9a04      	ldr	r2, [sp, #16]
 8006ef0:	3201      	adds	r2, #1
 8006ef2:	9204      	str	r2, [sp, #16]
 8006ef4:	2230      	movs	r2, #48	@ 0x30
 8006ef6:	f88a 2000 	strb.w	r2, [sl]
 8006efa:	781a      	ldrb	r2, [r3, #0]
 8006efc:	3201      	adds	r2, #1
 8006efe:	701a      	strb	r2, [r3, #0]
 8006f00:	e7bd      	b.n	8006e7e <_dtoa_r+0x65e>
 8006f02:	4b7b      	ldr	r3, [pc, #492]	@ (80070f0 <_dtoa_r+0x8d0>)
 8006f04:	2200      	movs	r2, #0
 8006f06:	f7f9 fb97 	bl	8000638 <__aeabi_dmul>
 8006f0a:	2200      	movs	r2, #0
 8006f0c:	2300      	movs	r3, #0
 8006f0e:	4604      	mov	r4, r0
 8006f10:	460d      	mov	r5, r1
 8006f12:	f7f9 fdf9 	bl	8000b08 <__aeabi_dcmpeq>
 8006f16:	2800      	cmp	r0, #0
 8006f18:	f43f aebb 	beq.w	8006c92 <_dtoa_r+0x472>
 8006f1c:	e6f0      	b.n	8006d00 <_dtoa_r+0x4e0>
 8006f1e:	9a0b      	ldr	r2, [sp, #44]	@ 0x2c
 8006f20:	2a00      	cmp	r2, #0
 8006f22:	f000 80db 	beq.w	80070dc <_dtoa_r+0x8bc>
 8006f26:	9a09      	ldr	r2, [sp, #36]	@ 0x24
 8006f28:	2a01      	cmp	r2, #1
 8006f2a:	f300 80bf 	bgt.w	80070ac <_dtoa_r+0x88c>
 8006f2e:	9a14      	ldr	r2, [sp, #80]	@ 0x50
 8006f30:	2a00      	cmp	r2, #0
 8006f32:	f000 80b7 	beq.w	80070a4 <_dtoa_r+0x884>
 8006f36:	f203 4333 	addw	r3, r3, #1075	@ 0x433
 8006f3a:	9c0a      	ldr	r4, [sp, #40]	@ 0x28
 8006f3c:	4646      	mov	r6, r8
 8006f3e:	9a08      	ldr	r2, [sp, #32]
 8006f40:	2101      	movs	r1, #1
 8006f42:	441a      	add	r2, r3
 8006f44:	4658      	mov	r0, fp
 8006f46:	4498      	add	r8, r3
 8006f48:	9208      	str	r2, [sp, #32]
 8006f4a:	f000 fddb 	bl	8007b04 <__i2b>
 8006f4e:	4605      	mov	r5, r0
 8006f50:	b15e      	cbz	r6, 8006f6a <_dtoa_r+0x74a>
 8006f52:	9b08      	ldr	r3, [sp, #32]
 8006f54:	2b00      	cmp	r3, #0
 8006f56:	dd08      	ble.n	8006f6a <_dtoa_r+0x74a>
 8006f58:	42b3      	cmp	r3, r6
 8006f5a:	9a08      	ldr	r2, [sp, #32]
 8006f5c:	bfa8      	it	ge
 8006f5e:	4633      	movge	r3, r6
 8006f60:	eba8 0803 	sub.w	r8, r8, r3
 8006f64:	1af6      	subs	r6, r6, r3
 8006f66:	1ad3      	subs	r3, r2, r3
 8006f68:	9308      	str	r3, [sp, #32]
 8006f6a:	9b0a      	ldr	r3, [sp, #40]	@ 0x28
 8006f6c:	b1f3      	cbz	r3, 8006fac <_dtoa_r+0x78c>
 8006f6e:	9b0b      	ldr	r3, [sp, #44]	@ 0x2c
 8006f70:	2b00      	cmp	r3, #0
 8006f72:	f000 80b7 	beq.w	80070e4 <_dtoa_r+0x8c4>
 8006f76:	b18c      	cbz	r4, 8006f9c <_dtoa_r+0x77c>
 8006f78:	4629      	mov	r1, r5
 8006f7a:	4622      	mov	r2, r4
 8006f7c:	4658      	mov	r0, fp
 8006f7e:	f000 fe81 	bl	8007c84 <__pow5mult>
 8006f82:	464a      	mov	r2, r9
 8006f84:	4601      	mov	r1, r0
 8006f86:	4605      	mov	r5, r0
 8006f88:	4658      	mov	r0, fp
 8006f8a:	f000 fdd1 	bl	8007b30 <__multiply>
 8006f8e:	4649      	mov	r1, r9
 8006f90:	9004      	str	r0, [sp, #16]
 8006f92:	4658      	mov	r0, fp
 8006f94:	f000 fd02 	bl	800799c <_Bfree>
 8006f98:	9b04      	ldr	r3, [sp, #16]
 8006f9a:	4699      	mov	r9, r3
 8006f9c:	9b0a      	ldr	r3, [sp, #40]	@ 0x28
 8006f9e:	1b1a      	subs	r2, r3, r4
 8006fa0:	d004      	beq.n	8006fac <_dtoa_r+0x78c>
 8006fa2:	4649      	mov	r1, r9
 8006fa4:	4658      	mov	r0, fp
 8006fa6:	f000 fe6d 	bl	8007c84 <__pow5mult>
 8006faa:	4681      	mov	r9, r0
 8006fac:	2101      	movs	r1, #1
 8006fae:	4658      	mov	r0, fp
 8006fb0:	f000 fda8 	bl	8007b04 <__i2b>
 8006fb4:	9b0f      	ldr	r3, [sp, #60]	@ 0x3c
 8006fb6:	4604      	mov	r4, r0
 8006fb8:	2b00      	cmp	r3, #0
 8006fba:	f000 81cf 	beq.w	800735c <_dtoa_r+0xb3c>
 8006fbe:	461a      	mov	r2, r3
 8006fc0:	4601      	mov	r1, r0
 8006fc2:	4658      	mov	r0, fp
 8006fc4:	f000 fe5e 	bl	8007c84 <__pow5mult>
 8006fc8:	9b09      	ldr	r3, [sp, #36]	@ 0x24
 8006fca:	2b01      	cmp	r3, #1
 8006fcc:	4604      	mov	r4, r0
 8006fce:	f300 8095 	bgt.w	80070fc <_dtoa_r+0x8dc>
 8006fd2:	9b02      	ldr	r3, [sp, #8]
 8006fd4:	2b00      	cmp	r3, #0
 8006fd6:	f040 8087 	bne.w	80070e8 <_dtoa_r+0x8c8>
 8006fda:	9b03      	ldr	r3, [sp, #12]
 8006fdc:	f3c3 0313 	ubfx	r3, r3, #0, #20
 8006fe0:	2b00      	cmp	r3, #0
 8006fe2:	f040 8089 	bne.w	80070f8 <_dtoa_r+0x8d8>
 8006fe6:	9b03      	ldr	r3, [sp, #12]
 8006fe8:	f023 4300 	bic.w	r3, r3, #2147483648	@ 0x80000000
 8006fec:	0d1b      	lsrs	r3, r3, #20
 8006fee:	051b      	lsls	r3, r3, #20
 8006ff0:	b12b      	cbz	r3, 8006ffe <_dtoa_r+0x7de>
 8006ff2:	9b08      	ldr	r3, [sp, #32]
 8006ff4:	3301      	adds	r3, #1
 8006ff6:	9308      	str	r3, [sp, #32]
 8006ff8:	f108 0801 	add.w	r8, r8, #1
 8006ffc:	2301      	movs	r3, #1
 8006ffe:	930a      	str	r3, [sp, #40]	@ 0x28
 8007000:	9b0f      	ldr	r3, [sp, #60]	@ 0x3c
 8007002:	2b00      	cmp	r3, #0
 8007004:	f000 81b0 	beq.w	8007368 <_dtoa_r+0xb48>
 8007008:	6923      	ldr	r3, [r4, #16]
 800700a:	eb04 0383 	add.w	r3, r4, r3, lsl #2
 800700e:	6918      	ldr	r0, [r3, #16]
 8007010:	f000 fd2c 	bl	8007a6c <__hi0bits>
 8007014:	f1c0 0020 	rsb	r0, r0, #32
 8007018:	9b08      	ldr	r3, [sp, #32]
 800701a:	4418      	add	r0, r3
 800701c:	f010 001f 	ands.w	r0, r0, #31
 8007020:	d077      	beq.n	8007112 <_dtoa_r+0x8f2>
 8007022:	f1c0 0320 	rsb	r3, r0, #32
 8007026:	2b04      	cmp	r3, #4
 8007028:	dd6b      	ble.n	8007102 <_dtoa_r+0x8e2>
 800702a:	9b08      	ldr	r3, [sp, #32]
 800702c:	f1c0 001c 	rsb	r0, r0, #28
 8007030:	4403      	add	r3, r0
 8007032:	4480      	add	r8, r0
 8007034:	4406      	add	r6, r0
 8007036:	9308      	str	r3, [sp, #32]
 8007038:	f1b8 0f00 	cmp.w	r8, #0
 800703c:	dd05      	ble.n	800704a <_dtoa_r+0x82a>
 800703e:	4649      	mov	r1, r9
 8007040:	4642      	mov	r2, r8
 8007042:	4658      	mov	r0, fp
 8007044:	f000 fe78 	bl	8007d38 <__lshift>
 8007048:	4681      	mov	r9, r0
 800704a:	9b08      	ldr	r3, [sp, #32]
 800704c:	2b00      	cmp	r3, #0
 800704e:	dd05      	ble.n	800705c <_dtoa_r+0x83c>
 8007050:	4621      	mov	r1, r4
 8007052:	461a      	mov	r2, r3
 8007054:	4658      	mov	r0, fp
 8007056:	f000 fe6f 	bl	8007d38 <__lshift>
 800705a:	4604      	mov	r4, r0
 800705c:	9b12      	ldr	r3, [sp, #72]	@ 0x48
 800705e:	2b00      	cmp	r3, #0
 8007060:	d059      	beq.n	8007116 <_dtoa_r+0x8f6>
 8007062:	4621      	mov	r1, r4
 8007064:	4648      	mov	r0, r9
 8007066:	f000 fed3 	bl	8007e10 <__mcmp>
 800706a:	2800      	cmp	r0, #0
 800706c:	da53      	bge.n	8007116 <_dtoa_r+0x8f6>
 800706e:	1e7b      	subs	r3, r7, #1
 8007070:	9304      	str	r3, [sp, #16]
 8007072:	4649      	mov	r1, r9
 8007074:	2300      	movs	r3, #0
 8007076:	220a      	movs	r2, #10
 8007078:	4658      	mov	r0, fp
 800707a:	f000 fcb1 	bl	80079e0 <__multadd>
 800707e:	9b0b      	ldr	r3, [sp, #44]	@ 0x2c
 8007080:	4681      	mov	r9, r0
 8007082:	2b00      	cmp	r3, #0
 8007084:	f000 8172 	beq.w	800736c <_dtoa_r+0xb4c>
 8007088:	2300      	movs	r3, #0
 800708a:	4629      	mov	r1, r5
 800708c:	220a      	movs	r2, #10
 800708e:	4658      	mov	r0, fp
 8007090:	f000 fca6 	bl	80079e0 <__multadd>
 8007094:	9b00      	ldr	r3, [sp, #0]
 8007096:	2b00      	cmp	r3, #0
 8007098:	4605      	mov	r5, r0
 800709a:	dc67      	bgt.n	800716c <_dtoa_r+0x94c>
 800709c:	9b09      	ldr	r3, [sp, #36]	@ 0x24
 800709e:	2b02      	cmp	r3, #2
 80070a0:	dc41      	bgt.n	8007126 <_dtoa_r+0x906>
 80070a2:	e063      	b.n	800716c <_dtoa_r+0x94c>
 80070a4:	9b16      	ldr	r3, [sp, #88]	@ 0x58
 80070a6:	f1c3 0336 	rsb	r3, r3, #54	@ 0x36
 80070aa:	e746      	b.n	8006f3a <_dtoa_r+0x71a>
 80070ac:	9b07      	ldr	r3, [sp, #28]
 80070ae:	1e5c      	subs	r4, r3, #1
 80070b0:	9b0a      	ldr	r3, [sp, #40]	@ 0x28
 80070b2:	42a3      	cmp	r3, r4
 80070b4:	bfbf      	itttt	lt
 80070b6:	9b0a      	ldrlt	r3, [sp, #40]	@ 0x28
 80070b8:	9a0f      	ldrlt	r2, [sp, #60]	@ 0x3c
 80070ba:	940a      	strlt	r4, [sp, #40]	@ 0x28
 80070bc:	1ae3      	sublt	r3, r4, r3
 80070be:	bfb4      	ite	lt
 80070c0:	18d2      	addlt	r2, r2, r3
 80070c2:	1b1c      	subge	r4, r3, r4
 80070c4:	9b07      	ldr	r3, [sp, #28]
 80070c6:	bfbc      	itt	lt
 80070c8:	920f      	strlt	r2, [sp, #60]	@ 0x3c
 80070ca:	2400      	movlt	r4, #0
 80070cc:	2b00      	cmp	r3, #0
 80070ce:	bfb5      	itete	lt
 80070d0:	eba8 0603 	sublt.w	r6, r8, r3
 80070d4:	9b07      	ldrge	r3, [sp, #28]
 80070d6:	2300      	movlt	r3, #0
 80070d8:	4646      	movge	r6, r8
 80070da:	e730      	b.n	8006f3e <_dtoa_r+0x71e>
 80070dc:	9c0a      	ldr	r4, [sp, #40]	@ 0x28
 80070de:	9d0b      	ldr	r5, [sp, #44]	@ 0x2c
 80070e0:	4646      	mov	r6, r8
 80070e2:	e735      	b.n	8006f50 <_dtoa_r+0x730>
 80070e4:	9a0a      	ldr	r2, [sp, #40]	@ 0x28
 80070e6:	e75c      	b.n	8006fa2 <_dtoa_r+0x782>
 80070e8:	2300      	movs	r3, #0
 80070ea:	e788      	b.n	8006ffe <_dtoa_r+0x7de>
 80070ec:	3fe00000 	.word	0x3fe00000
 80070f0:	40240000 	.word	0x40240000
 80070f4:	40140000 	.word	0x40140000
 80070f8:	9b02      	ldr	r3, [sp, #8]
 80070fa:	e780      	b.n	8006ffe <_dtoa_r+0x7de>
 80070fc:	2300      	movs	r3, #0
 80070fe:	930a      	str	r3, [sp, #40]	@ 0x28
 8007100:	e782      	b.n	8007008 <_dtoa_r+0x7e8>
 8007102:	d099      	beq.n	8007038 <_dtoa_r+0x818>
 8007104:	9a08      	ldr	r2, [sp, #32]
 8007106:	331c      	adds	r3, #28
 8007108:	441a      	add	r2, r3
 800710a:	4498      	add	r8, r3
 800710c:	441e      	add	r6, r3
 800710e:	9208      	str	r2, [sp, #32]
 8007110:	e792      	b.n	8007038 <_dtoa_r+0x818>
 8007112:	4603      	mov	r3, r0
 8007114:	e7f6      	b.n	8007104 <_dtoa_r+0x8e4>
 8007116:	9b07      	ldr	r3, [sp, #28]
 8007118:	9704      	str	r7, [sp, #16]
 800711a:	2b00      	cmp	r3, #0
 800711c:	dc20      	bgt.n	8007160 <_dtoa_r+0x940>
 800711e:	9300      	str	r3, [sp, #0]
 8007120:	9b09      	ldr	r3, [sp, #36]	@ 0x24
 8007122:	2b02      	cmp	r3, #2
 8007124:	dd1e      	ble.n	8007164 <_dtoa_r+0x944>
 8007126:	9b00      	ldr	r3, [sp, #0]
 8007128:	2b00      	cmp	r3, #0
 800712a:	f47f aec0 	bne.w	8006eae <_dtoa_r+0x68e>
 800712e:	4621      	mov	r1, r4
 8007130:	2205      	movs	r2, #5
 8007132:	4658      	mov	r0, fp
 8007134:	f000 fc54 	bl	80079e0 <__multadd>
 8007138:	4601      	mov	r1, r0
 800713a:	4604      	mov	r4, r0
 800713c:	4648      	mov	r0, r9
 800713e:	f000 fe67 	bl	8007e10 <__mcmp>
 8007142:	2800      	cmp	r0, #0
 8007144:	f77f aeb3 	ble.w	8006eae <_dtoa_r+0x68e>
 8007148:	4656      	mov	r6, sl
 800714a:	2331      	movs	r3, #49	@ 0x31
 800714c:	f806 3b01 	strb.w	r3, [r6], #1
 8007150:	9b04      	ldr	r3, [sp, #16]
 8007152:	3301      	adds	r3, #1
 8007154:	9304      	str	r3, [sp, #16]
 8007156:	e6ae      	b.n	8006eb6 <_dtoa_r+0x696>
 8007158:	9c07      	ldr	r4, [sp, #28]
 800715a:	9704      	str	r7, [sp, #16]
 800715c:	4625      	mov	r5, r4
 800715e:	e7f3      	b.n	8007148 <_dtoa_r+0x928>
 8007160:	9b07      	ldr	r3, [sp, #28]
 8007162:	9300      	str	r3, [sp, #0]
 8007164:	9b0b      	ldr	r3, [sp, #44]	@ 0x2c
 8007166:	2b00      	cmp	r3, #0
 8007168:	f000 8104 	beq.w	8007374 <_dtoa_r+0xb54>
 800716c:	2e00      	cmp	r6, #0
 800716e:	dd05      	ble.n	800717c <_dtoa_r+0x95c>
 8007170:	4629      	mov	r1, r5
 8007172:	4632      	mov	r2, r6
 8007174:	4658      	mov	r0, fp
 8007176:	f000 fddf 	bl	8007d38 <__lshift>
 800717a:	4605      	mov	r5, r0
 800717c:	9b0a      	ldr	r3, [sp, #40]	@ 0x28
 800717e:	2b00      	cmp	r3, #0
 8007180:	d05a      	beq.n	8007238 <_dtoa_r+0xa18>
 8007182:	6869      	ldr	r1, [r5, #4]
 8007184:	4658      	mov	r0, fp
 8007186:	f000 fbc9 	bl	800791c <_Balloc>
 800718a:	4606      	mov	r6, r0
 800718c:	b928      	cbnz	r0, 800719a <_dtoa_r+0x97a>
 800718e:	4b84      	ldr	r3, [pc, #528]	@ (80073a0 <_dtoa_r+0xb80>)
 8007190:	4602      	mov	r2, r0
 8007192:	f240 21ef 	movw	r1, #751	@ 0x2ef
 8007196:	f7ff bb5a 	b.w	800684e <_dtoa_r+0x2e>
 800719a:	692a      	ldr	r2, [r5, #16]
 800719c:	3202      	adds	r2, #2
 800719e:	0092      	lsls	r2, r2, #2
 80071a0:	f105 010c 	add.w	r1, r5, #12
 80071a4:	300c      	adds	r0, #12
 80071a6:	f001 f81d 	bl	80081e4 <memcpy>
 80071aa:	2201      	movs	r2, #1
 80071ac:	4631      	mov	r1, r6
 80071ae:	4658      	mov	r0, fp
 80071b0:	f000 fdc2 	bl	8007d38 <__lshift>
 80071b4:	f10a 0301 	add.w	r3, sl, #1
 80071b8:	9307      	str	r3, [sp, #28]
 80071ba:	9b00      	ldr	r3, [sp, #0]
 80071bc:	4453      	add	r3, sl
 80071be:	930b      	str	r3, [sp, #44]	@ 0x2c
 80071c0:	9b02      	ldr	r3, [sp, #8]
 80071c2:	f003 0301 	and.w	r3, r3, #1
 80071c6:	462f      	mov	r7, r5
 80071c8:	930a      	str	r3, [sp, #40]	@ 0x28
 80071ca:	4605      	mov	r5, r0
 80071cc:	9b07      	ldr	r3, [sp, #28]
 80071ce:	4621      	mov	r1, r4
 80071d0:	3b01      	subs	r3, #1
 80071d2:	4648      	mov	r0, r9
 80071d4:	9300      	str	r3, [sp, #0]
 80071d6:	f7ff fa98 	bl	800670a <quorem>
 80071da:	4639      	mov	r1, r7
 80071dc:	9002      	str	r0, [sp, #8]
 80071de:	f100 0830 	add.w	r8, r0, #48	@ 0x30
 80071e2:	4648      	mov	r0, r9
 80071e4:	f000 fe14 	bl	8007e10 <__mcmp>
 80071e8:	462a      	mov	r2, r5
 80071ea:	9008      	str	r0, [sp, #32]
 80071ec:	4621      	mov	r1, r4
 80071ee:	4658      	mov	r0, fp
 80071f0:	f000 fe2a 	bl	8007e48 <__mdiff>
 80071f4:	68c2      	ldr	r2, [r0, #12]
 80071f6:	4606      	mov	r6, r0
 80071f8:	bb02      	cbnz	r2, 800723c <_dtoa_r+0xa1c>
 80071fa:	4601      	mov	r1, r0
 80071fc:	4648      	mov	r0, r9
 80071fe:	f000 fe07 	bl	8007e10 <__mcmp>
 8007202:	4602      	mov	r2, r0
 8007204:	4631      	mov	r1, r6
 8007206:	4658      	mov	r0, fp
 8007208:	920e      	str	r2, [sp, #56]	@ 0x38
 800720a:	f000 fbc7 	bl	800799c <_Bfree>
 800720e:	9b09      	ldr	r3, [sp, #36]	@ 0x24
 8007210:	9a0e      	ldr	r2, [sp, #56]	@ 0x38
 8007212:	9e07      	ldr	r6, [sp, #28]
 8007214:	ea43 0102 	orr.w	r1, r3, r2
 8007218:	9b0a      	ldr	r3, [sp, #40]	@ 0x28
 800721a:	4319      	orrs	r1, r3
 800721c:	d110      	bne.n	8007240 <_dtoa_r+0xa20>
 800721e:	f1b8 0f39 	cmp.w	r8, #57	@ 0x39
 8007222:	d029      	beq.n	8007278 <_dtoa_r+0xa58>
 8007224:	9b08      	ldr	r3, [sp, #32]
 8007226:	2b00      	cmp	r3, #0
 8007228:	dd02      	ble.n	8007230 <_dtoa_r+0xa10>
 800722a:	9b02      	ldr	r3, [sp, #8]
 800722c:	f103 0831 	add.w	r8, r3, #49	@ 0x31
 8007230:	9b00      	ldr	r3, [sp, #0]
 8007232:	f883 8000 	strb.w	r8, [r3]
 8007236:	e63f      	b.n	8006eb8 <_dtoa_r+0x698>
 8007238:	4628      	mov	r0, r5
 800723a:	e7bb      	b.n	80071b4 <_dtoa_r+0x994>
 800723c:	2201      	movs	r2, #1
 800723e:	e7e1      	b.n	8007204 <_dtoa_r+0x9e4>
 8007240:	9b08      	ldr	r3, [sp, #32]
 8007242:	2b00      	cmp	r3, #0
 8007244:	db04      	blt.n	8007250 <_dtoa_r+0xa30>
 8007246:	9909      	ldr	r1, [sp, #36]	@ 0x24
 8007248:	430b      	orrs	r3, r1
 800724a:	990a      	ldr	r1, [sp, #40]	@ 0x28
 800724c:	430b      	orrs	r3, r1
 800724e:	d120      	bne.n	8007292 <_dtoa_r+0xa72>
 8007250:	2a00      	cmp	r2, #0
 8007252:	dded      	ble.n	8007230 <_dtoa_r+0xa10>
 8007254:	4649      	mov	r1, r9
 8007256:	2201      	movs	r2, #1
 8007258:	4658      	mov	r0, fp
 800725a:	f000 fd6d 	bl	8007d38 <__lshift>
 800725e:	4621      	mov	r1, r4
 8007260:	4681      	mov	r9, r0
 8007262:	f000 fdd5 	bl	8007e10 <__mcmp>
 8007266:	2800      	cmp	r0, #0
 8007268:	dc03      	bgt.n	8007272 <_dtoa_r+0xa52>
 800726a:	d1e1      	bne.n	8007230 <_dtoa_r+0xa10>
 800726c:	f018 0f01 	tst.w	r8, #1
 8007270:	d0de      	beq.n	8007230 <_dtoa_r+0xa10>
 8007272:	f1b8 0f39 	cmp.w	r8, #57	@ 0x39
 8007276:	d1d8      	bne.n	800722a <_dtoa_r+0xa0a>
 8007278:	9a00      	ldr	r2, [sp, #0]
 800727a:	2339      	movs	r3, #57	@ 0x39
 800727c:	7013      	strb	r3, [r2, #0]
 800727e:	4633      	mov	r3, r6
 8007280:	461e      	mov	r6, r3
 8007282:	3b01      	subs	r3, #1
 8007284:	f816 2c01 	ldrb.w	r2, [r6, #-1]
 8007288:	2a39      	cmp	r2, #57	@ 0x39
 800728a:	d052      	beq.n	8007332 <_dtoa_r+0xb12>
 800728c:	3201      	adds	r2, #1
 800728e:	701a      	strb	r2, [r3, #0]
 8007290:	e612      	b.n	8006eb8 <_dtoa_r+0x698>
 8007292:	2a00      	cmp	r2, #0
 8007294:	dd07      	ble.n	80072a6 <_dtoa_r+0xa86>
 8007296:	f1b8 0f39 	cmp.w	r8, #57	@ 0x39
 800729a:	d0ed      	beq.n	8007278 <_dtoa_r+0xa58>
 800729c:	9a00      	ldr	r2, [sp, #0]
 800729e:	f108 0301 	add.w	r3, r8, #1
 80072a2:	7013      	strb	r3, [r2, #0]
 80072a4:	e608      	b.n	8006eb8 <_dtoa_r+0x698>
 80072a6:	9b07      	ldr	r3, [sp, #28]
 80072a8:	9a07      	ldr	r2, [sp, #28]
 80072aa:	f803 8c01 	strb.w	r8, [r3, #-1]
 80072ae:	9b0b      	ldr	r3, [sp, #44]	@ 0x2c
 80072b0:	4293      	cmp	r3, r2
 80072b2:	d028      	beq.n	8007306 <_dtoa_r+0xae6>
 80072b4:	4649      	mov	r1, r9
 80072b6:	2300      	movs	r3, #0
 80072b8:	220a      	movs	r2, #10
 80072ba:	4658      	mov	r0, fp
 80072bc:	f000 fb90 	bl	80079e0 <__multadd>
 80072c0:	42af      	cmp	r7, r5
 80072c2:	4681      	mov	r9, r0
 80072c4:	f04f 0300 	mov.w	r3, #0
 80072c8:	f04f 020a 	mov.w	r2, #10
 80072cc:	4639      	mov	r1, r7
 80072ce:	4658      	mov	r0, fp
 80072d0:	d107      	bne.n	80072e2 <_dtoa_r+0xac2>
 80072d2:	f000 fb85 	bl	80079e0 <__multadd>
 80072d6:	4607      	mov	r7, r0
 80072d8:	4605      	mov	r5, r0
 80072da:	9b07      	ldr	r3, [sp, #28]
 80072dc:	3301      	adds	r3, #1
 80072de:	9307      	str	r3, [sp, #28]
 80072e0:	e774      	b.n	80071cc <_dtoa_r+0x9ac>
 80072e2:	f000 fb7d 	bl	80079e0 <__multadd>
 80072e6:	4629      	mov	r1, r5
 80072e8:	4607      	mov	r7, r0
 80072ea:	2300      	movs	r3, #0
 80072ec:	220a      	movs	r2, #10
 80072ee:	4658      	mov	r0, fp
 80072f0:	f000 fb76 	bl	80079e0 <__multadd>
 80072f4:	4605      	mov	r5, r0
 80072f6:	e7f0      	b.n	80072da <_dtoa_r+0xaba>
 80072f8:	9b00      	ldr	r3, [sp, #0]
 80072fa:	2b00      	cmp	r3, #0
 80072fc:	bfcc      	ite	gt
 80072fe:	461e      	movgt	r6, r3
 8007300:	2601      	movle	r6, #1
 8007302:	4456      	add	r6, sl
 8007304:	2700      	movs	r7, #0
 8007306:	4649      	mov	r1, r9
 8007308:	2201      	movs	r2, #1
 800730a:	4658      	mov	r0, fp
 800730c:	f000 fd14 	bl	8007d38 <__lshift>
 8007310:	4621      	mov	r1, r4
 8007312:	4681      	mov	r9, r0
 8007314:	f000 fd7c 	bl	8007e10 <__mcmp>
 8007318:	2800      	cmp	r0, #0
 800731a:	dcb0      	bgt.n	800727e <_dtoa_r+0xa5e>
 800731c:	d102      	bne.n	8007324 <_dtoa_r+0xb04>
 800731e:	f018 0f01 	tst.w	r8, #1
 8007322:	d1ac      	bne.n	800727e <_dtoa_r+0xa5e>
 8007324:	4633      	mov	r3, r6
 8007326:	461e      	mov	r6, r3
 8007328:	f813 2d01 	ldrb.w	r2, [r3, #-1]!
 800732c:	2a30      	cmp	r2, #48	@ 0x30
 800732e:	d0fa      	beq.n	8007326 <_dtoa_r+0xb06>
 8007330:	e5c2      	b.n	8006eb8 <_dtoa_r+0x698>
 8007332:	459a      	cmp	sl, r3
 8007334:	d1a4      	bne.n	8007280 <_dtoa_r+0xa60>
 8007336:	9b04      	ldr	r3, [sp, #16]
 8007338:	3301      	adds	r3, #1
 800733a:	9304      	str	r3, [sp, #16]
 800733c:	2331      	movs	r3, #49	@ 0x31
 800733e:	f88a 3000 	strb.w	r3, [sl]
 8007342:	e5b9      	b.n	8006eb8 <_dtoa_r+0x698>
 8007344:	9b23      	ldr	r3, [sp, #140]	@ 0x8c
 8007346:	f8df a05c 	ldr.w	sl, [pc, #92]	@ 80073a4 <_dtoa_r+0xb84>
 800734a:	b11b      	cbz	r3, 8007354 <_dtoa_r+0xb34>
 800734c:	f10a 0308 	add.w	r3, sl, #8
 8007350:	9a23      	ldr	r2, [sp, #140]	@ 0x8c
 8007352:	6013      	str	r3, [r2, #0]
 8007354:	4650      	mov	r0, sl
 8007356:	b019      	add	sp, #100	@ 0x64
 8007358:	e8bd 8ff0 	ldmia.w	sp!, {r4, r5, r6, r7, r8, r9, sl, fp, pc}
 800735c:	9b09      	ldr	r3, [sp, #36]	@ 0x24
 800735e:	2b01      	cmp	r3, #1
 8007360:	f77f ae37 	ble.w	8006fd2 <_dtoa_r+0x7b2>
 8007364:	9b0f      	ldr	r3, [sp, #60]	@ 0x3c
 8007366:	930a      	str	r3, [sp, #40]	@ 0x28
 8007368:	2001      	movs	r0, #1
 800736a:	e655      	b.n	8007018 <_dtoa_r+0x7f8>
 800736c:	9b00      	ldr	r3, [sp, #0]
 800736e:	2b00      	cmp	r3, #0
 8007370:	f77f aed6 	ble.w	8007120 <_dtoa_r+0x900>
 8007374:	4656      	mov	r6, sl
 8007376:	4621      	mov	r1, r4
 8007378:	4648      	mov	r0, r9
 800737a:	f7ff f9c6 	bl	800670a <quorem>
 800737e:	f100 0830 	add.w	r8, r0, #48	@ 0x30
 8007382:	f806 8b01 	strb.w	r8, [r6], #1
 8007386:	9b00      	ldr	r3, [sp, #0]
 8007388:	eba6 020a 	sub.w	r2, r6, sl
 800738c:	4293      	cmp	r3, r2
 800738e:	ddb3      	ble.n	80072f8 <_dtoa_r+0xad8>
 8007390:	4649      	mov	r1, r9
 8007392:	2300      	movs	r3, #0
 8007394:	220a      	movs	r2, #10
 8007396:	4658      	mov	r0, fp
 8007398:	f000 fb22 	bl	80079e0 <__multadd>
 800739c:	4681      	mov	r9, r0
 800739e:	e7ea      	b.n	8007376 <_dtoa_r+0xb56>
 80073a0:	080099b8 	.word	0x080099b8
 80073a4:	0800993c 	.word	0x0800993c

080073a8 <__ssputs_r>:
 80073a8:	e92d 47f0 	stmdb	sp!, {r4, r5, r6, r7, r8, r9, sl, lr}
 80073ac:	688e      	ldr	r6, [r1, #8]
 80073ae:	461f      	mov	r7, r3
 80073b0:	42be      	cmp	r6, r7
 80073b2:	680b      	ldr	r3, [r1, #0]
 80073b4:	4682      	mov	sl, r0
 80073b6:	460c      	mov	r4, r1
 80073b8:	4690      	mov	r8, r2
 80073ba:	d82d      	bhi.n	8007418 <__ssputs_r+0x70>
 80073bc:	f9b1 200c 	ldrsh.w	r2, [r1, #12]
 80073c0:	f412 6f90 	tst.w	r2, #1152	@ 0x480
 80073c4:	d026      	beq.n	8007414 <__ssputs_r+0x6c>
 80073c6:	6965      	ldr	r5, [r4, #20]
 80073c8:	6909      	ldr	r1, [r1, #16]
 80073ca:	eb05 0545 	add.w	r5, r5, r5, lsl #1
 80073ce:	eba3 0901 	sub.w	r9, r3, r1
 80073d2:	eb05 75d5 	add.w	r5, r5, r5, lsr #31
 80073d6:	1c7b      	adds	r3, r7, #1
 80073d8:	444b      	add	r3, r9
 80073da:	106d      	asrs	r5, r5, #1
 80073dc:	429d      	cmp	r5, r3
 80073de:	bf38      	it	cc
 80073e0:	461d      	movcc	r5, r3
 80073e2:	0553      	lsls	r3, r2, #21
 80073e4:	d527      	bpl.n	8007436 <__ssputs_r+0x8e>
 80073e6:	4629      	mov	r1, r5
 80073e8:	f000 f960 	bl	80076ac <_malloc_r>
 80073ec:	4606      	mov	r6, r0
 80073ee:	b360      	cbz	r0, 800744a <__ssputs_r+0xa2>
 80073f0:	6921      	ldr	r1, [r4, #16]
 80073f2:	464a      	mov	r2, r9
 80073f4:	f000 fef6 	bl	80081e4 <memcpy>
 80073f8:	89a3      	ldrh	r3, [r4, #12]
 80073fa:	f423 6390 	bic.w	r3, r3, #1152	@ 0x480
 80073fe:	f043 0380 	orr.w	r3, r3, #128	@ 0x80
 8007402:	81a3      	strh	r3, [r4, #12]
 8007404:	6126      	str	r6, [r4, #16]
 8007406:	6165      	str	r5, [r4, #20]
 8007408:	444e      	add	r6, r9
 800740a:	eba5 0509 	sub.w	r5, r5, r9
 800740e:	6026      	str	r6, [r4, #0]
 8007410:	60a5      	str	r5, [r4, #8]
 8007412:	463e      	mov	r6, r7
 8007414:	42be      	cmp	r6, r7
 8007416:	d900      	bls.n	800741a <__ssputs_r+0x72>
 8007418:	463e      	mov	r6, r7
 800741a:	6820      	ldr	r0, [r4, #0]
 800741c:	4632      	mov	r2, r6
 800741e:	4641      	mov	r1, r8
 8007420:	f000 fe6f 	bl	8008102 <memmove>
 8007424:	68a3      	ldr	r3, [r4, #8]
 8007426:	1b9b      	subs	r3, r3, r6
 8007428:	60a3      	str	r3, [r4, #8]
 800742a:	6823      	ldr	r3, [r4, #0]
 800742c:	4433      	add	r3, r6
 800742e:	6023      	str	r3, [r4, #0]
 8007430:	2000      	movs	r0, #0
 8007432:	e8bd 87f0 	ldmia.w	sp!, {r4, r5, r6, r7, r8, r9, sl, pc}
 8007436:	462a      	mov	r2, r5
 8007438:	f000 fe35 	bl	80080a6 <_realloc_r>
 800743c:	4606      	mov	r6, r0
 800743e:	2800      	cmp	r0, #0
 8007440:	d1e0      	bne.n	8007404 <__ssputs_r+0x5c>
 8007442:	6921      	ldr	r1, [r4, #16]
 8007444:	4650      	mov	r0, sl
 8007446:	f000 ff0d 	bl	8008264 <_free_r>
 800744a:	230c      	movs	r3, #12
 800744c:	f8ca 3000 	str.w	r3, [sl]
 8007450:	89a3      	ldrh	r3, [r4, #12]
 8007452:	f043 0340 	orr.w	r3, r3, #64	@ 0x40
 8007456:	81a3      	strh	r3, [r4, #12]
 8007458:	f04f 30ff 	mov.w	r0, #4294967295	@ 0xffffffff
 800745c:	e7e9      	b.n	8007432 <__ssputs_r+0x8a>
	...

08007460 <_svfiprintf_r>:
 8007460:	e92d 4ff0 	stmdb	sp!, {r4, r5, r6, r7, r8, r9, sl, fp, lr}
 8007464:	4698      	mov	r8, r3
 8007466:	898b      	ldrh	r3, [r1, #12]
 8007468:	061b      	lsls	r3, r3, #24
 800746a:	b09d      	sub	sp, #116	@ 0x74
 800746c:	4607      	mov	r7, r0
 800746e:	460d      	mov	r5, r1
 8007470:	4614      	mov	r4, r2
 8007472:	d510      	bpl.n	8007496 <_svfiprintf_r+0x36>
 8007474:	690b      	ldr	r3, [r1, #16]
 8007476:	b973      	cbnz	r3, 8007496 <_svfiprintf_r+0x36>
 8007478:	2140      	movs	r1, #64	@ 0x40
 800747a:	f000 f917 	bl	80076ac <_malloc_r>
 800747e:	6028      	str	r0, [r5, #0]
 8007480:	6128      	str	r0, [r5, #16]
 8007482:	b930      	cbnz	r0, 8007492 <_svfiprintf_r+0x32>
 8007484:	230c      	movs	r3, #12
 8007486:	603b      	str	r3, [r7, #0]
 8007488:	f04f 30ff 	mov.w	r0, #4294967295	@ 0xffffffff
 800748c:	b01d      	add	sp, #116	@ 0x74
 800748e:	e8bd 8ff0 	ldmia.w	sp!, {r4, r5, r6, r7, r8, r9, sl, fp, pc}
 8007492:	2340      	movs	r3, #64	@ 0x40
 8007494:	616b      	str	r3, [r5, #20]
 8007496:	2300      	movs	r3, #0
 8007498:	9309      	str	r3, [sp, #36]	@ 0x24
 800749a:	2320      	movs	r3, #32
 800749c:	f88d 3029 	strb.w	r3, [sp, #41]	@ 0x29
 80074a0:	f8cd 800c 	str.w	r8, [sp, #12]
 80074a4:	2330      	movs	r3, #48	@ 0x30
 80074a6:	f8df 819c 	ldr.w	r8, [pc, #412]	@ 8007644 <_svfiprintf_r+0x1e4>
 80074aa:	f88d 302a 	strb.w	r3, [sp, #42]	@ 0x2a
 80074ae:	f04f 0901 	mov.w	r9, #1
 80074b2:	4623      	mov	r3, r4
 80074b4:	469a      	mov	sl, r3
 80074b6:	f813 2b01 	ldrb.w	r2, [r3], #1
 80074ba:	b10a      	cbz	r2, 80074c0 <_svfiprintf_r+0x60>
 80074bc:	2a25      	cmp	r2, #37	@ 0x25
 80074be:	d1f9      	bne.n	80074b4 <_svfiprintf_r+0x54>
 80074c0:	ebba 0b04 	subs.w	fp, sl, r4
 80074c4:	d00b      	beq.n	80074de <_svfiprintf_r+0x7e>
 80074c6:	465b      	mov	r3, fp
 80074c8:	4622      	mov	r2, r4
 80074ca:	4629      	mov	r1, r5
 80074cc:	4638      	mov	r0, r7
 80074ce:	f7ff ff6b 	bl	80073a8 <__ssputs_r>
 80074d2:	3001      	adds	r0, #1
 80074d4:	f000 80a7 	beq.w	8007626 <_svfiprintf_r+0x1c6>
 80074d8:	9a09      	ldr	r2, [sp, #36]	@ 0x24
 80074da:	445a      	add	r2, fp
 80074dc:	9209      	str	r2, [sp, #36]	@ 0x24
 80074de:	f89a 3000 	ldrb.w	r3, [sl]
 80074e2:	2b00      	cmp	r3, #0
 80074e4:	f000 809f 	beq.w	8007626 <_svfiprintf_r+0x1c6>
 80074e8:	2300      	movs	r3, #0
 80074ea:	f04f 32ff 	mov.w	r2, #4294967295	@ 0xffffffff
 80074ee:	e9cd 2305 	strd	r2, r3, [sp, #20]
 80074f2:	f10a 0a01 	add.w	sl, sl, #1
 80074f6:	9304      	str	r3, [sp, #16]
 80074f8:	9307      	str	r3, [sp, #28]
 80074fa:	f88d 3053 	strb.w	r3, [sp, #83]	@ 0x53
 80074fe:	931a      	str	r3, [sp, #104]	@ 0x68
 8007500:	4654      	mov	r4, sl
 8007502:	2205      	movs	r2, #5
 8007504:	f814 1b01 	ldrb.w	r1, [r4], #1
 8007508:	484e      	ldr	r0, [pc, #312]	@ (8007644 <_svfiprintf_r+0x1e4>)
 800750a:	f7f8 fe81 	bl	8000210 <memchr>
 800750e:	9a04      	ldr	r2, [sp, #16]
 8007510:	b9d8      	cbnz	r0, 800754a <_svfiprintf_r+0xea>
 8007512:	06d0      	lsls	r0, r2, #27
 8007514:	bf44      	itt	mi
 8007516:	2320      	movmi	r3, #32
 8007518:	f88d 3053 	strbmi.w	r3, [sp, #83]	@ 0x53
 800751c:	0711      	lsls	r1, r2, #28
 800751e:	bf44      	itt	mi
 8007520:	232b      	movmi	r3, #43	@ 0x2b
 8007522:	f88d 3053 	strbmi.w	r3, [sp, #83]	@ 0x53
 8007526:	f89a 3000 	ldrb.w	r3, [sl]
 800752a:	2b2a      	cmp	r3, #42	@ 0x2a
 800752c:	d015      	beq.n	800755a <_svfiprintf_r+0xfa>
 800752e:	9a07      	ldr	r2, [sp, #28]
 8007530:	4654      	mov	r4, sl
 8007532:	2000      	movs	r0, #0
 8007534:	f04f 0c0a 	mov.w	ip, #10
 8007538:	4621      	mov	r1, r4
 800753a:	f811 3b01 	ldrb.w	r3, [r1], #1
 800753e:	3b30      	subs	r3, #48	@ 0x30
 8007540:	2b09      	cmp	r3, #9
 8007542:	d94b      	bls.n	80075dc <_svfiprintf_r+0x17c>
 8007544:	b1b0      	cbz	r0, 8007574 <_svfiprintf_r+0x114>
 8007546:	9207      	str	r2, [sp, #28]
 8007548:	e014      	b.n	8007574 <_svfiprintf_r+0x114>
 800754a:	eba0 0308 	sub.w	r3, r0, r8
 800754e:	fa09 f303 	lsl.w	r3, r9, r3
 8007552:	4313      	orrs	r3, r2
 8007554:	9304      	str	r3, [sp, #16]
 8007556:	46a2      	mov	sl, r4
 8007558:	e7d2      	b.n	8007500 <_svfiprintf_r+0xa0>
 800755a:	9b03      	ldr	r3, [sp, #12]
 800755c:	1d19      	adds	r1, r3, #4
 800755e:	681b      	ldr	r3, [r3, #0]
 8007560:	9103      	str	r1, [sp, #12]
 8007562:	2b00      	cmp	r3, #0
 8007564:	bfbb      	ittet	lt
 8007566:	425b      	neglt	r3, r3
 8007568:	f042 0202 	orrlt.w	r2, r2, #2
 800756c:	9307      	strge	r3, [sp, #28]
 800756e:	9307      	strlt	r3, [sp, #28]
 8007570:	bfb8      	it	lt
 8007572:	9204      	strlt	r2, [sp, #16]
 8007574:	7823      	ldrb	r3, [r4, #0]
 8007576:	2b2e      	cmp	r3, #46	@ 0x2e
 8007578:	d10a      	bne.n	8007590 <_svfiprintf_r+0x130>
 800757a:	7863      	ldrb	r3, [r4, #1]
 800757c:	2b2a      	cmp	r3, #42	@ 0x2a
 800757e:	d132      	bne.n	80075e6 <_svfiprintf_r+0x186>
 8007580:	9b03      	ldr	r3, [sp, #12]
 8007582:	1d1a      	adds	r2, r3, #4
 8007584:	681b      	ldr	r3, [r3, #0]
 8007586:	9203      	str	r2, [sp, #12]
 8007588:	ea43 73e3 	orr.w	r3, r3, r3, asr #31
 800758c:	3402      	adds	r4, #2
 800758e:	9305      	str	r3, [sp, #20]
 8007590:	f8df a0c0 	ldr.w	sl, [pc, #192]	@ 8007654 <_svfiprintf_r+0x1f4>
 8007594:	7821      	ldrb	r1, [r4, #0]
 8007596:	2203      	movs	r2, #3
 8007598:	4650      	mov	r0, sl
 800759a:	f7f8 fe39 	bl	8000210 <memchr>
 800759e:	b138      	cbz	r0, 80075b0 <_svfiprintf_r+0x150>
 80075a0:	9b04      	ldr	r3, [sp, #16]
 80075a2:	eba0 000a 	sub.w	r0, r0, sl
 80075a6:	2240      	movs	r2, #64	@ 0x40
 80075a8:	4082      	lsls	r2, r0
 80075aa:	4313      	orrs	r3, r2
 80075ac:	3401      	adds	r4, #1
 80075ae:	9304      	str	r3, [sp, #16]
 80075b0:	f814 1b01 	ldrb.w	r1, [r4], #1
 80075b4:	4824      	ldr	r0, [pc, #144]	@ (8007648 <_svfiprintf_r+0x1e8>)
 80075b6:	f88d 1028 	strb.w	r1, [sp, #40]	@ 0x28
 80075ba:	2206      	movs	r2, #6
 80075bc:	f7f8 fe28 	bl	8000210 <memchr>
 80075c0:	2800      	cmp	r0, #0
 80075c2:	d036      	beq.n	8007632 <_svfiprintf_r+0x1d2>
 80075c4:	4b21      	ldr	r3, [pc, #132]	@ (800764c <_svfiprintf_r+0x1ec>)
 80075c6:	bb1b      	cbnz	r3, 8007610 <_svfiprintf_r+0x1b0>
 80075c8:	9b03      	ldr	r3, [sp, #12]
 80075ca:	3307      	adds	r3, #7
 80075cc:	f023 0307 	bic.w	r3, r3, #7
 80075d0:	3308      	adds	r3, #8
 80075d2:	9303      	str	r3, [sp, #12]
 80075d4:	9b09      	ldr	r3, [sp, #36]	@ 0x24
 80075d6:	4433      	add	r3, r6
 80075d8:	9309      	str	r3, [sp, #36]	@ 0x24
 80075da:	e76a      	b.n	80074b2 <_svfiprintf_r+0x52>
 80075dc:	fb0c 3202 	mla	r2, ip, r2, r3
 80075e0:	460c      	mov	r4, r1
 80075e2:	2001      	movs	r0, #1
 80075e4:	e7a8      	b.n	8007538 <_svfiprintf_r+0xd8>
 80075e6:	2300      	movs	r3, #0
 80075e8:	3401      	adds	r4, #1
 80075ea:	9305      	str	r3, [sp, #20]
 80075ec:	4619      	mov	r1, r3
 80075ee:	f04f 0c0a 	mov.w	ip, #10
 80075f2:	4620      	mov	r0, r4
 80075f4:	f810 2b01 	ldrb.w	r2, [r0], #1
 80075f8:	3a30      	subs	r2, #48	@ 0x30
 80075fa:	2a09      	cmp	r2, #9
 80075fc:	d903      	bls.n	8007606 <_svfiprintf_r+0x1a6>
 80075fe:	2b00      	cmp	r3, #0
 8007600:	d0c6      	beq.n	8007590 <_svfiprintf_r+0x130>
 8007602:	9105      	str	r1, [sp, #20]
 8007604:	e7c4      	b.n	8007590 <_svfiprintf_r+0x130>
 8007606:	fb0c 2101 	mla	r1, ip, r1, r2
 800760a:	4604      	mov	r4, r0
 800760c:	2301      	movs	r3, #1
 800760e:	e7f0      	b.n	80075f2 <_svfiprintf_r+0x192>
 8007610:	ab03      	add	r3, sp, #12
 8007612:	9300      	str	r3, [sp, #0]
 8007614:	462a      	mov	r2, r5
 8007616:	4b0e      	ldr	r3, [pc, #56]	@ (8007650 <_svfiprintf_r+0x1f0>)
 8007618:	a904      	add	r1, sp, #16
 800761a:	4638      	mov	r0, r7
 800761c:	f7fe fba2 	bl	8005d64 <_printf_float>
 8007620:	1c42      	adds	r2, r0, #1
 8007622:	4606      	mov	r6, r0
 8007624:	d1d6      	bne.n	80075d4 <_svfiprintf_r+0x174>
 8007626:	89ab      	ldrh	r3, [r5, #12]
 8007628:	065b      	lsls	r3, r3, #25
 800762a:	f53f af2d 	bmi.w	8007488 <_svfiprintf_r+0x28>
 800762e:	9809      	ldr	r0, [sp, #36]	@ 0x24
 8007630:	e72c      	b.n	800748c <_svfiprintf_r+0x2c>
 8007632:	ab03      	add	r3, sp, #12
 8007634:	9300      	str	r3, [sp, #0]
 8007636:	462a      	mov	r2, r5
 8007638:	4b05      	ldr	r3, [pc, #20]	@ (8007650 <_svfiprintf_r+0x1f0>)
 800763a:	a904      	add	r1, sp, #16
 800763c:	4638      	mov	r0, r7
 800763e:	f7fe fe29 	bl	8006294 <_printf_i>
 8007642:	e7ed      	b.n	8007620 <_svfiprintf_r+0x1c0>
 8007644:	080099c9 	.word	0x080099c9
 8007648:	080099d3 	.word	0x080099d3
 800764c:	08005d65 	.word	0x08005d65
 8007650:	080073a9 	.word	0x080073a9
 8007654:	080099cf 	.word	0x080099cf

08007658 <malloc>:
 8007658:	4b02      	ldr	r3, [pc, #8]	@ (8007664 <malloc+0xc>)
 800765a:	4601      	mov	r1, r0
 800765c:	6818      	ldr	r0, [r3, #0]
 800765e:	f000 b825 	b.w	80076ac <_malloc_r>
 8007662:	bf00      	nop
 8007664:	20000018 	.word	0x20000018

08007668 <sbrk_aligned>:
 8007668:	b570      	push	{r4, r5, r6, lr}
 800766a:	4e0f      	ldr	r6, [pc, #60]	@ (80076a8 <sbrk_aligned+0x40>)
 800766c:	460c      	mov	r4, r1
 800766e:	6831      	ldr	r1, [r6, #0]
 8007670:	4605      	mov	r5, r0
 8007672:	b911      	cbnz	r1, 800767a <sbrk_aligned+0x12>
 8007674:	f000 fd94 	bl	80081a0 <_sbrk_r>
 8007678:	6030      	str	r0, [r6, #0]
 800767a:	4621      	mov	r1, r4
 800767c:	4628      	mov	r0, r5
 800767e:	f000 fd8f 	bl	80081a0 <_sbrk_r>
 8007682:	1c43      	adds	r3, r0, #1
 8007684:	d103      	bne.n	800768e <sbrk_aligned+0x26>
 8007686:	f04f 34ff 	mov.w	r4, #4294967295	@ 0xffffffff
 800768a:	4620      	mov	r0, r4
 800768c:	bd70      	pop	{r4, r5, r6, pc}
 800768e:	1cc4      	adds	r4, r0, #3
 8007690:	f024 0403 	bic.w	r4, r4, #3
 8007694:	42a0      	cmp	r0, r4
 8007696:	d0f8      	beq.n	800768a <sbrk_aligned+0x22>
 8007698:	1a21      	subs	r1, r4, r0
 800769a:	4628      	mov	r0, r5
 800769c:	f000 fd80 	bl	80081a0 <_sbrk_r>
 80076a0:	3001      	adds	r0, #1
 80076a2:	d1f2      	bne.n	800768a <sbrk_aligned+0x22>
 80076a4:	e7ef      	b.n	8007686 <sbrk_aligned+0x1e>
 80076a6:	bf00      	nop
 80076a8:	200004c4 	.word	0x200004c4

080076ac <_malloc_r>:
 80076ac:	e92d 43f8 	stmdb	sp!, {r3, r4, r5, r6, r7, r8, r9, lr}
 80076b0:	1ccd      	adds	r5, r1, #3
 80076b2:	f025 0503 	bic.w	r5, r5, #3
 80076b6:	3508      	adds	r5, #8
 80076b8:	2d0c      	cmp	r5, #12
 80076ba:	bf38      	it	cc
 80076bc:	250c      	movcc	r5, #12
 80076be:	2d00      	cmp	r5, #0
 80076c0:	4606      	mov	r6, r0
 80076c2:	db01      	blt.n	80076c8 <_malloc_r+0x1c>
 80076c4:	42a9      	cmp	r1, r5
 80076c6:	d904      	bls.n	80076d2 <_malloc_r+0x26>
 80076c8:	230c      	movs	r3, #12
 80076ca:	6033      	str	r3, [r6, #0]
 80076cc:	2000      	movs	r0, #0
 80076ce:	e8bd 83f8 	ldmia.w	sp!, {r3, r4, r5, r6, r7, r8, r9, pc}
 80076d2:	f8df 80d4 	ldr.w	r8, [pc, #212]	@ 80077a8 <_malloc_r+0xfc>
 80076d6:	f000 f915 	bl	8007904 <__malloc_lock>
 80076da:	f8d8 3000 	ldr.w	r3, [r8]
 80076de:	461c      	mov	r4, r3
 80076e0:	bb44      	cbnz	r4, 8007734 <_malloc_r+0x88>
 80076e2:	4629      	mov	r1, r5
 80076e4:	4630      	mov	r0, r6
 80076e6:	f7ff ffbf 	bl	8007668 <sbrk_aligned>
 80076ea:	1c43      	adds	r3, r0, #1
 80076ec:	4604      	mov	r4, r0
 80076ee:	d158      	bne.n	80077a2 <_malloc_r+0xf6>
 80076f0:	f8d8 4000 	ldr.w	r4, [r8]
 80076f4:	4627      	mov	r7, r4
 80076f6:	2f00      	cmp	r7, #0
 80076f8:	d143      	bne.n	8007782 <_malloc_r+0xd6>
 80076fa:	2c00      	cmp	r4, #0
 80076fc:	d04b      	beq.n	8007796 <_malloc_r+0xea>
 80076fe:	6823      	ldr	r3, [r4, #0]
 8007700:	4639      	mov	r1, r7
 8007702:	4630      	mov	r0, r6
 8007704:	eb04 0903 	add.w	r9, r4, r3
 8007708:	f000 fd4a 	bl	80081a0 <_sbrk_r>
 800770c:	4581      	cmp	r9, r0
 800770e:	d142      	bne.n	8007796 <_malloc_r+0xea>
 8007710:	6821      	ldr	r1, [r4, #0]
 8007712:	1a6d      	subs	r5, r5, r1
 8007714:	4629      	mov	r1, r5
 8007716:	4630      	mov	r0, r6
 8007718:	f7ff ffa6 	bl	8007668 <sbrk_aligned>
 800771c:	3001      	adds	r0, #1
 800771e:	d03a      	beq.n	8007796 <_malloc_r+0xea>
 8007720:	6823      	ldr	r3, [r4, #0]
 8007722:	442b      	add	r3, r5
 8007724:	6023      	str	r3, [r4, #0]
 8007726:	f8d8 3000 	ldr.w	r3, [r8]
 800772a:	685a      	ldr	r2, [r3, #4]
 800772c:	bb62      	cbnz	r2, 8007788 <_malloc_r+0xdc>
 800772e:	f8c8 7000 	str.w	r7, [r8]
 8007732:	e00f      	b.n	8007754 <_malloc_r+0xa8>
 8007734:	6822      	ldr	r2, [r4, #0]
 8007736:	1b52      	subs	r2, r2, r5
 8007738:	d420      	bmi.n	800777c <_malloc_r+0xd0>
 800773a:	2a0b      	cmp	r2, #11
 800773c:	d917      	bls.n	800776e <_malloc_r+0xc2>
 800773e:	1961      	adds	r1, r4, r5
 8007740:	42a3      	cmp	r3, r4
 8007742:	6025      	str	r5, [r4, #0]
 8007744:	bf18      	it	ne
 8007746:	6059      	strne	r1, [r3, #4]
 8007748:	6863      	ldr	r3, [r4, #4]
 800774a:	bf08      	it	eq
 800774c:	f8c8 1000 	streq.w	r1, [r8]
 8007750:	5162      	str	r2, [r4, r5]
 8007752:	604b      	str	r3, [r1, #4]
 8007754:	4630      	mov	r0, r6
 8007756:	f000 f8db 	bl	8007910 <__malloc_unlock>
 800775a:	f104 000b 	add.w	r0, r4, #11
 800775e:	1d23      	adds	r3, r4, #4
 8007760:	f020 0007 	bic.w	r0, r0, #7
 8007764:	1ac2      	subs	r2, r0, r3
 8007766:	bf1c      	itt	ne
 8007768:	1a1b      	subne	r3, r3, r0
 800776a:	50a3      	strne	r3, [r4, r2]
 800776c:	e7af      	b.n	80076ce <_malloc_r+0x22>
 800776e:	6862      	ldr	r2, [r4, #4]
 8007770:	42a3      	cmp	r3, r4
 8007772:	bf0c      	ite	eq
 8007774:	f8c8 2000 	streq.w	r2, [r8]
 8007778:	605a      	strne	r2, [r3, #4]
 800777a:	e7eb      	b.n	8007754 <_malloc_r+0xa8>
 800777c:	4623      	mov	r3, r4
 800777e:	6864      	ldr	r4, [r4, #4]
 8007780:	e7ae      	b.n	80076e0 <_malloc_r+0x34>
 8007782:	463c      	mov	r4, r7
 8007784:	687f      	ldr	r7, [r7, #4]
 8007786:	e7b6      	b.n	80076f6 <_malloc_r+0x4a>
 8007788:	461a      	mov	r2, r3
 800778a:	685b      	ldr	r3, [r3, #4]
 800778c:	42a3      	cmp	r3, r4
 800778e:	d1fb      	bne.n	8007788 <_malloc_r+0xdc>
 8007790:	2300      	movs	r3, #0
 8007792:	6053      	str	r3, [r2, #4]
 8007794:	e7de      	b.n	8007754 <_malloc_r+0xa8>
 8007796:	230c      	movs	r3, #12
 8007798:	6033      	str	r3, [r6, #0]
 800779a:	4630      	mov	r0, r6
 800779c:	f000 f8b8 	bl	8007910 <__malloc_unlock>
 80077a0:	e794      	b.n	80076cc <_malloc_r+0x20>
 80077a2:	6005      	str	r5, [r0, #0]
 80077a4:	e7d6      	b.n	8007754 <_malloc_r+0xa8>
 80077a6:	bf00      	nop
 80077a8:	200004c8 	.word	0x200004c8

080077ac <__sflush_r>:
 80077ac:	f9b1 200c 	ldrsh.w	r2, [r1, #12]
 80077b0:	e92d 41f0 	stmdb	sp!, {r4, r5, r6, r7, r8, lr}
 80077b4:	0716      	lsls	r6, r2, #28
 80077b6:	4605      	mov	r5, r0
 80077b8:	460c      	mov	r4, r1
 80077ba:	d454      	bmi.n	8007866 <__sflush_r+0xba>
 80077bc:	684b      	ldr	r3, [r1, #4]
 80077be:	2b00      	cmp	r3, #0
 80077c0:	dc02      	bgt.n	80077c8 <__sflush_r+0x1c>
 80077c2:	6c0b      	ldr	r3, [r1, #64]	@ 0x40
 80077c4:	2b00      	cmp	r3, #0
 80077c6:	dd48      	ble.n	800785a <__sflush_r+0xae>
 80077c8:	6ae6      	ldr	r6, [r4, #44]	@ 0x2c
 80077ca:	2e00      	cmp	r6, #0
 80077cc:	d045      	beq.n	800785a <__sflush_r+0xae>
 80077ce:	2300      	movs	r3, #0
 80077d0:	f412 5280 	ands.w	r2, r2, #4096	@ 0x1000
 80077d4:	682f      	ldr	r7, [r5, #0]
 80077d6:	6a21      	ldr	r1, [r4, #32]
 80077d8:	602b      	str	r3, [r5, #0]
 80077da:	d030      	beq.n	800783e <__sflush_r+0x92>
 80077dc:	6d62      	ldr	r2, [r4, #84]	@ 0x54
 80077de:	89a3      	ldrh	r3, [r4, #12]
 80077e0:	0759      	lsls	r1, r3, #29
 80077e2:	d505      	bpl.n	80077f0 <__sflush_r+0x44>
 80077e4:	6863      	ldr	r3, [r4, #4]
 80077e6:	1ad2      	subs	r2, r2, r3
 80077e8:	6b63      	ldr	r3, [r4, #52]	@ 0x34
 80077ea:	b10b      	cbz	r3, 80077f0 <__sflush_r+0x44>
 80077ec:	6c23      	ldr	r3, [r4, #64]	@ 0x40
 80077ee:	1ad2      	subs	r2, r2, r3
 80077f0:	2300      	movs	r3, #0
 80077f2:	6ae6      	ldr	r6, [r4, #44]	@ 0x2c
 80077f4:	6a21      	ldr	r1, [r4, #32]
 80077f6:	4628      	mov	r0, r5
 80077f8:	47b0      	blx	r6
 80077fa:	1c43      	adds	r3, r0, #1
 80077fc:	89a3      	ldrh	r3, [r4, #12]
 80077fe:	d106      	bne.n	800780e <__sflush_r+0x62>
 8007800:	6829      	ldr	r1, [r5, #0]
 8007802:	291d      	cmp	r1, #29
 8007804:	d82b      	bhi.n	800785e <__sflush_r+0xb2>
 8007806:	4a2a      	ldr	r2, [pc, #168]	@ (80078b0 <__sflush_r+0x104>)
 8007808:	410a      	asrs	r2, r1
 800780a:	07d6      	lsls	r6, r2, #31
 800780c:	d427      	bmi.n	800785e <__sflush_r+0xb2>
 800780e:	2200      	movs	r2, #0
 8007810:	6062      	str	r2, [r4, #4]
 8007812:	04d9      	lsls	r1, r3, #19
 8007814:	6922      	ldr	r2, [r4, #16]
 8007816:	6022      	str	r2, [r4, #0]
 8007818:	d504      	bpl.n	8007824 <__sflush_r+0x78>
 800781a:	1c42      	adds	r2, r0, #1
 800781c:	d101      	bne.n	8007822 <__sflush_r+0x76>
 800781e:	682b      	ldr	r3, [r5, #0]
 8007820:	b903      	cbnz	r3, 8007824 <__sflush_r+0x78>
 8007822:	6560      	str	r0, [r4, #84]	@ 0x54
 8007824:	6b61      	ldr	r1, [r4, #52]	@ 0x34
 8007826:	602f      	str	r7, [r5, #0]
 8007828:	b1b9      	cbz	r1, 800785a <__sflush_r+0xae>
 800782a:	f104 0344 	add.w	r3, r4, #68	@ 0x44
 800782e:	4299      	cmp	r1, r3
 8007830:	d002      	beq.n	8007838 <__sflush_r+0x8c>
 8007832:	4628      	mov	r0, r5
 8007834:	f000 fd16 	bl	8008264 <_free_r>
 8007838:	2300      	movs	r3, #0
 800783a:	6363      	str	r3, [r4, #52]	@ 0x34
 800783c:	e00d      	b.n	800785a <__sflush_r+0xae>
 800783e:	2301      	movs	r3, #1
 8007840:	4628      	mov	r0, r5
 8007842:	47b0      	blx	r6
 8007844:	4602      	mov	r2, r0
 8007846:	1c50      	adds	r0, r2, #1
 8007848:	d1c9      	bne.n	80077de <__sflush_r+0x32>
 800784a:	682b      	ldr	r3, [r5, #0]
 800784c:	2b00      	cmp	r3, #0
 800784e:	d0c6      	beq.n	80077de <__sflush_r+0x32>
 8007850:	2b1d      	cmp	r3, #29
 8007852:	d001      	beq.n	8007858 <__sflush_r+0xac>
 8007854:	2b16      	cmp	r3, #22
 8007856:	d11e      	bne.n	8007896 <__sflush_r+0xea>
 8007858:	602f      	str	r7, [r5, #0]
 800785a:	2000      	movs	r0, #0
 800785c:	e022      	b.n	80078a4 <__sflush_r+0xf8>
 800785e:	f043 0340 	orr.w	r3, r3, #64	@ 0x40
 8007862:	b21b      	sxth	r3, r3
 8007864:	e01b      	b.n	800789e <__sflush_r+0xf2>
 8007866:	690f      	ldr	r7, [r1, #16]
 8007868:	2f00      	cmp	r7, #0
 800786a:	d0f6      	beq.n	800785a <__sflush_r+0xae>
 800786c:	0793      	lsls	r3, r2, #30
 800786e:	680e      	ldr	r6, [r1, #0]
 8007870:	bf08      	it	eq
 8007872:	694b      	ldreq	r3, [r1, #20]
 8007874:	600f      	str	r7, [r1, #0]
 8007876:	bf18      	it	ne
 8007878:	2300      	movne	r3, #0
 800787a:	eba6 0807 	sub.w	r8, r6, r7
 800787e:	608b      	str	r3, [r1, #8]
 8007880:	f1b8 0f00 	cmp.w	r8, #0
 8007884:	dde9      	ble.n	800785a <__sflush_r+0xae>
 8007886:	6a21      	ldr	r1, [r4, #32]
 8007888:	6aa6      	ldr	r6, [r4, #40]	@ 0x28
 800788a:	4643      	mov	r3, r8
 800788c:	463a      	mov	r2, r7
 800788e:	4628      	mov	r0, r5
 8007890:	47b0      	blx	r6
 8007892:	2800      	cmp	r0, #0
 8007894:	dc08      	bgt.n	80078a8 <__sflush_r+0xfc>
 8007896:	f9b4 300c 	ldrsh.w	r3, [r4, #12]
 800789a:	f043 0340 	orr.w	r3, r3, #64	@ 0x40
 800789e:	81a3      	strh	r3, [r4, #12]
 80078a0:	f04f 30ff 	mov.w	r0, #4294967295	@ 0xffffffff
 80078a4:	e8bd 81f0 	ldmia.w	sp!, {r4, r5, r6, r7, r8, pc}
 80078a8:	4407      	add	r7, r0
 80078aa:	eba8 0800 	sub.w	r8, r8, r0
 80078ae:	e7e7      	b.n	8007880 <__sflush_r+0xd4>
 80078b0:	dfbffffe 	.word	0xdfbffffe

080078b4 <_fflush_r>:
 80078b4:	b538      	push	{r3, r4, r5, lr}
 80078b6:	690b      	ldr	r3, [r1, #16]
 80078b8:	4605      	mov	r5, r0
 80078ba:	460c      	mov	r4, r1
 80078bc:	b913      	cbnz	r3, 80078c4 <_fflush_r+0x10>
 80078be:	2500      	movs	r5, #0
 80078c0:	4628      	mov	r0, r5
 80078c2:	bd38      	pop	{r3, r4, r5, pc}
 80078c4:	b118      	cbz	r0, 80078ce <_fflush_r+0x1a>
 80078c6:	6a03      	ldr	r3, [r0, #32]
 80078c8:	b90b      	cbnz	r3, 80078ce <_fflush_r+0x1a>
 80078ca:	f7fe feaf 	bl	800662c <__sinit>
 80078ce:	f9b4 300c 	ldrsh.w	r3, [r4, #12]
 80078d2:	2b00      	cmp	r3, #0
 80078d4:	d0f3      	beq.n	80078be <_fflush_r+0xa>
 80078d6:	6e62      	ldr	r2, [r4, #100]	@ 0x64
 80078d8:	07d0      	lsls	r0, r2, #31
 80078da:	d404      	bmi.n	80078e6 <_fflush_r+0x32>
 80078dc:	0599      	lsls	r1, r3, #22
 80078de:	d402      	bmi.n	80078e6 <_fflush_r+0x32>
 80078e0:	6da0      	ldr	r0, [r4, #88]	@ 0x58
 80078e2:	f7fe ff10 	bl	8006706 <__retarget_lock_acquire_recursive>
 80078e6:	4628      	mov	r0, r5
 80078e8:	4621      	mov	r1, r4
 80078ea:	f7ff ff5f 	bl	80077ac <__sflush_r>
 80078ee:	6e63      	ldr	r3, [r4, #100]	@ 0x64
 80078f0:	07da      	lsls	r2, r3, #31
 80078f2:	4605      	mov	r5, r0
 80078f4:	d4e4      	bmi.n	80078c0 <_fflush_r+0xc>
 80078f6:	89a3      	ldrh	r3, [r4, #12]
 80078f8:	059b      	lsls	r3, r3, #22
 80078fa:	d4e1      	bmi.n	80078c0 <_fflush_r+0xc>
 80078fc:	6da0      	ldr	r0, [r4, #88]	@ 0x58
 80078fe:	f7fe ff03 	bl	8006708 <__retarget_lock_release_recursive>
 8007902:	e7dd      	b.n	80078c0 <_fflush_r+0xc>

08007904 <__malloc_lock>:
 8007904:	4801      	ldr	r0, [pc, #4]	@ (800790c <__malloc_lock+0x8>)
 8007906:	f7fe befe 	b.w	8006706 <__retarget_lock_acquire_recursive>
 800790a:	bf00      	nop
 800790c:	200004c0 	.word	0x200004c0

08007910 <__malloc_unlock>:
 8007910:	4801      	ldr	r0, [pc, #4]	@ (8007918 <__malloc_unlock+0x8>)
 8007912:	f7fe bef9 	b.w	8006708 <__retarget_lock_release_recursive>
 8007916:	bf00      	nop
 8007918:	200004c0 	.word	0x200004c0

0800791c <_Balloc>:
 800791c:	b570      	push	{r4, r5, r6, lr}
 800791e:	69c6      	ldr	r6, [r0, #28]
 8007920:	4604      	mov	r4, r0
 8007922:	460d      	mov	r5, r1
 8007924:	b976      	cbnz	r6, 8007944 <_Balloc+0x28>
 8007926:	2010      	movs	r0, #16
 8007928:	f7ff fe96 	bl	8007658 <malloc>
 800792c:	4602      	mov	r2, r0
 800792e:	61e0      	str	r0, [r4, #28]
 8007930:	b920      	cbnz	r0, 800793c <_Balloc+0x20>
 8007932:	4b18      	ldr	r3, [pc, #96]	@ (8007994 <_Balloc+0x78>)
 8007934:	4818      	ldr	r0, [pc, #96]	@ (8007998 <_Balloc+0x7c>)
 8007936:	216b      	movs	r1, #107	@ 0x6b
 8007938:	f000 fc62 	bl	8008200 <__assert_func>
 800793c:	e9c0 6601 	strd	r6, r6, [r0, #4]
 8007940:	6006      	str	r6, [r0, #0]
 8007942:	60c6      	str	r6, [r0, #12]
 8007944:	69e6      	ldr	r6, [r4, #28]
 8007946:	68f3      	ldr	r3, [r6, #12]
 8007948:	b183      	cbz	r3, 800796c <_Balloc+0x50>
 800794a:	69e3      	ldr	r3, [r4, #28]
 800794c:	68db      	ldr	r3, [r3, #12]
 800794e:	f853 0025 	ldr.w	r0, [r3, r5, lsl #2]
 8007952:	b9b8      	cbnz	r0, 8007984 <_Balloc+0x68>
 8007954:	2101      	movs	r1, #1
 8007956:	fa01 f605 	lsl.w	r6, r1, r5
 800795a:	1d72      	adds	r2, r6, #5
 800795c:	0092      	lsls	r2, r2, #2
 800795e:	4620      	mov	r0, r4
 8007960:	f000 fc6c 	bl	800823c <_calloc_r>
 8007964:	b160      	cbz	r0, 8007980 <_Balloc+0x64>
 8007966:	e9c0 5601 	strd	r5, r6, [r0, #4]
 800796a:	e00e      	b.n	800798a <_Balloc+0x6e>
 800796c:	2221      	movs	r2, #33	@ 0x21
 800796e:	2104      	movs	r1, #4
 8007970:	4620      	mov	r0, r4
 8007972:	f000 fc63 	bl	800823c <_calloc_r>
 8007976:	69e3      	ldr	r3, [r4, #28]
 8007978:	60f0      	str	r0, [r6, #12]
 800797a:	68db      	ldr	r3, [r3, #12]
 800797c:	2b00      	cmp	r3, #0
 800797e:	d1e4      	bne.n	800794a <_Balloc+0x2e>
 8007980:	2000      	movs	r0, #0
 8007982:	bd70      	pop	{r4, r5, r6, pc}
 8007984:	6802      	ldr	r2, [r0, #0]
 8007986:	f843 2025 	str.w	r2, [r3, r5, lsl #2]
 800798a:	2300      	movs	r3, #0
 800798c:	e9c0 3303 	strd	r3, r3, [r0, #12]
 8007990:	e7f7      	b.n	8007982 <_Balloc+0x66>
 8007992:	bf00      	nop
 8007994:	08009949 	.word	0x08009949
 8007998:	080099da 	.word	0x080099da

0800799c <_Bfree>:
 800799c:	b570      	push	{r4, r5, r6, lr}
 800799e:	69c6      	ldr	r6, [r0, #28]
 80079a0:	4605      	mov	r5, r0
 80079a2:	460c      	mov	r4, r1
 80079a4:	b976      	cbnz	r6, 80079c4 <_Bfree+0x28>
 80079a6:	2010      	movs	r0, #16
 80079a8:	f7ff fe56 	bl	8007658 <malloc>
 80079ac:	4602      	mov	r2, r0
 80079ae:	61e8      	str	r0, [r5, #28]
 80079b0:	b920      	cbnz	r0, 80079bc <_Bfree+0x20>
 80079b2:	4b09      	ldr	r3, [pc, #36]	@ (80079d8 <_Bfree+0x3c>)
 80079b4:	4809      	ldr	r0, [pc, #36]	@ (80079dc <_Bfree+0x40>)
 80079b6:	218f      	movs	r1, #143	@ 0x8f
 80079b8:	f000 fc22 	bl	8008200 <__assert_func>
 80079bc:	e9c0 6601 	strd	r6, r6, [r0, #4]
 80079c0:	6006      	str	r6, [r0, #0]
 80079c2:	60c6      	str	r6, [r0, #12]
 80079c4:	b13c      	cbz	r4, 80079d6 <_Bfree+0x3a>
 80079c6:	69eb      	ldr	r3, [r5, #28]
 80079c8:	6862      	ldr	r2, [r4, #4]
 80079ca:	68db      	ldr	r3, [r3, #12]
 80079cc:	f853 1022 	ldr.w	r1, [r3, r2, lsl #2]
 80079d0:	6021      	str	r1, [r4, #0]
 80079d2:	f843 4022 	str.w	r4, [r3, r2, lsl #2]
 80079d6:	bd70      	pop	{r4, r5, r6, pc}
 80079d8:	08009949 	.word	0x08009949
 80079dc:	080099da 	.word	0x080099da

080079e0 <__multadd>:
 80079e0:	e92d 41f0 	stmdb	sp!, {r4, r5, r6, r7, r8, lr}
 80079e4:	690d      	ldr	r5, [r1, #16]
 80079e6:	4607      	mov	r7, r0
 80079e8:	460c      	mov	r4, r1
 80079ea:	461e      	mov	r6, r3
 80079ec:	f101 0c14 	add.w	ip, r1, #20
 80079f0:	2000      	movs	r0, #0
 80079f2:	f8dc 3000 	ldr.w	r3, [ip]
 80079f6:	b299      	uxth	r1, r3
 80079f8:	fb02 6101 	mla	r1, r2, r1, r6
 80079fc:	0c1e      	lsrs	r6, r3, #16
 80079fe:	0c0b      	lsrs	r3, r1, #16
 8007a00:	fb02 3306 	mla	r3, r2, r6, r3
 8007a04:	b289      	uxth	r1, r1
 8007a06:	3001      	adds	r0, #1
 8007a08:	eb01 4103 	add.w	r1, r1, r3, lsl #16
 8007a0c:	4285      	cmp	r5, r0
 8007a0e:	f84c 1b04 	str.w	r1, [ip], #4
 8007a12:	ea4f 4613 	mov.w	r6, r3, lsr #16
 8007a16:	dcec      	bgt.n	80079f2 <__multadd+0x12>
 8007a18:	b30e      	cbz	r6, 8007a5e <__multadd+0x7e>
 8007a1a:	68a3      	ldr	r3, [r4, #8]
 8007a1c:	42ab      	cmp	r3, r5
 8007a1e:	dc19      	bgt.n	8007a54 <__multadd+0x74>
 8007a20:	6861      	ldr	r1, [r4, #4]
 8007a22:	4638      	mov	r0, r7
 8007a24:	3101      	adds	r1, #1
 8007a26:	f7ff ff79 	bl	800791c <_Balloc>
 8007a2a:	4680      	mov	r8, r0
 8007a2c:	b928      	cbnz	r0, 8007a3a <__multadd+0x5a>
 8007a2e:	4602      	mov	r2, r0
 8007a30:	4b0c      	ldr	r3, [pc, #48]	@ (8007a64 <__multadd+0x84>)
 8007a32:	480d      	ldr	r0, [pc, #52]	@ (8007a68 <__multadd+0x88>)
 8007a34:	21ba      	movs	r1, #186	@ 0xba
 8007a36:	f000 fbe3 	bl	8008200 <__assert_func>
 8007a3a:	6922      	ldr	r2, [r4, #16]
 8007a3c:	3202      	adds	r2, #2
 8007a3e:	f104 010c 	add.w	r1, r4, #12
 8007a42:	0092      	lsls	r2, r2, #2
 8007a44:	300c      	adds	r0, #12
 8007a46:	f000 fbcd 	bl	80081e4 <memcpy>
 8007a4a:	4621      	mov	r1, r4
 8007a4c:	4638      	mov	r0, r7
 8007a4e:	f7ff ffa5 	bl	800799c <_Bfree>
 8007a52:	4644      	mov	r4, r8
 8007a54:	eb04 0385 	add.w	r3, r4, r5, lsl #2
 8007a58:	3501      	adds	r5, #1
 8007a5a:	615e      	str	r6, [r3, #20]
 8007a5c:	6125      	str	r5, [r4, #16]
 8007a5e:	4620      	mov	r0, r4
 8007a60:	e8bd 81f0 	ldmia.w	sp!, {r4, r5, r6, r7, r8, pc}
 8007a64:	080099b8 	.word	0x080099b8
 8007a68:	080099da 	.word	0x080099da

08007a6c <__hi0bits>:
 8007a6c:	f5b0 3f80 	cmp.w	r0, #65536	@ 0x10000
 8007a70:	4603      	mov	r3, r0
 8007a72:	bf36      	itet	cc
 8007a74:	0403      	lslcc	r3, r0, #16
 8007a76:	2000      	movcs	r0, #0
 8007a78:	2010      	movcc	r0, #16
 8007a7a:	f1b3 7f80 	cmp.w	r3, #16777216	@ 0x1000000
 8007a7e:	bf3c      	itt	cc
 8007a80:	021b      	lslcc	r3, r3, #8
 8007a82:	3008      	addcc	r0, #8
 8007a84:	f1b3 5f80 	cmp.w	r3, #268435456	@ 0x10000000
 8007a88:	bf3c      	itt	cc
 8007a8a:	011b      	lslcc	r3, r3, #4
 8007a8c:	3004      	addcc	r0, #4
 8007a8e:	f1b3 4f80 	cmp.w	r3, #1073741824	@ 0x40000000
 8007a92:	bf3c      	itt	cc
 8007a94:	009b      	lslcc	r3, r3, #2
 8007a96:	3002      	addcc	r0, #2
 8007a98:	2b00      	cmp	r3, #0
 8007a9a:	db05      	blt.n	8007aa8 <__hi0bits+0x3c>
 8007a9c:	f013 4f80 	tst.w	r3, #1073741824	@ 0x40000000
 8007aa0:	f100 0001 	add.w	r0, r0, #1
 8007aa4:	bf08      	it	eq
 8007aa6:	2020      	moveq	r0, #32
 8007aa8:	4770      	bx	lr

08007aaa <__lo0bits>:
 8007aaa:	6803      	ldr	r3, [r0, #0]
 8007aac:	4602      	mov	r2, r0
 8007aae:	f013 0007 	ands.w	r0, r3, #7
 8007ab2:	d00b      	beq.n	8007acc <__lo0bits+0x22>
 8007ab4:	07d9      	lsls	r1, r3, #31
 8007ab6:	d421      	bmi.n	8007afc <__lo0bits+0x52>
 8007ab8:	0798      	lsls	r0, r3, #30
 8007aba:	bf49      	itett	mi
 8007abc:	085b      	lsrmi	r3, r3, #1
 8007abe:	089b      	lsrpl	r3, r3, #2
 8007ac0:	2001      	movmi	r0, #1
 8007ac2:	6013      	strmi	r3, [r2, #0]
 8007ac4:	bf5c      	itt	pl
 8007ac6:	6013      	strpl	r3, [r2, #0]
 8007ac8:	2002      	movpl	r0, #2
 8007aca:	4770      	bx	lr
 8007acc:	b299      	uxth	r1, r3
 8007ace:	b909      	cbnz	r1, 8007ad4 <__lo0bits+0x2a>
 8007ad0:	0c1b      	lsrs	r3, r3, #16
 8007ad2:	2010      	movs	r0, #16
 8007ad4:	b2d9      	uxtb	r1, r3
 8007ad6:	b909      	cbnz	r1, 8007adc <__lo0bits+0x32>
 8007ad8:	3008      	adds	r0, #8
 8007ada:	0a1b      	lsrs	r3, r3, #8
 8007adc:	0719      	lsls	r1, r3, #28
 8007ade:	bf04      	itt	eq
 8007ae0:	091b      	lsreq	r3, r3, #4
 8007ae2:	3004      	addeq	r0, #4
 8007ae4:	0799      	lsls	r1, r3, #30
 8007ae6:	bf04      	itt	eq
 8007ae8:	089b      	lsreq	r3, r3, #2
 8007aea:	3002      	addeq	r0, #2
 8007aec:	07d9      	lsls	r1, r3, #31
 8007aee:	d403      	bmi.n	8007af8 <__lo0bits+0x4e>
 8007af0:	085b      	lsrs	r3, r3, #1
 8007af2:	f100 0001 	add.w	r0, r0, #1
 8007af6:	d003      	beq.n	8007b00 <__lo0bits+0x56>
 8007af8:	6013      	str	r3, [r2, #0]
 8007afa:	4770      	bx	lr
 8007afc:	2000      	movs	r0, #0
 8007afe:	4770      	bx	lr
 8007b00:	2020      	movs	r0, #32
 8007b02:	4770      	bx	lr

08007b04 <__i2b>:
 8007b04:	b510      	push	{r4, lr}
 8007b06:	460c      	mov	r4, r1
 8007b08:	2101      	movs	r1, #1
 8007b0a:	f7ff ff07 	bl	800791c <_Balloc>
 8007b0e:	4602      	mov	r2, r0
 8007b10:	b928      	cbnz	r0, 8007b1e <__i2b+0x1a>
 8007b12:	4b05      	ldr	r3, [pc, #20]	@ (8007b28 <__i2b+0x24>)
 8007b14:	4805      	ldr	r0, [pc, #20]	@ (8007b2c <__i2b+0x28>)
 8007b16:	f240 1145 	movw	r1, #325	@ 0x145
 8007b1a:	f000 fb71 	bl	8008200 <__assert_func>
 8007b1e:	2301      	movs	r3, #1
 8007b20:	6144      	str	r4, [r0, #20]
 8007b22:	6103      	str	r3, [r0, #16]
 8007b24:	bd10      	pop	{r4, pc}
 8007b26:	bf00      	nop
 8007b28:	080099b8 	.word	0x080099b8
 8007b2c:	080099da 	.word	0x080099da

08007b30 <__multiply>:
 8007b30:	e92d 4ff0 	stmdb	sp!, {r4, r5, r6, r7, r8, r9, sl, fp, lr}
 8007b34:	4614      	mov	r4, r2
 8007b36:	690a      	ldr	r2, [r1, #16]
 8007b38:	6923      	ldr	r3, [r4, #16]
 8007b3a:	429a      	cmp	r2, r3
 8007b3c:	bfa8      	it	ge
 8007b3e:	4623      	movge	r3, r4
 8007b40:	460f      	mov	r7, r1
 8007b42:	bfa4      	itt	ge
 8007b44:	460c      	movge	r4, r1
 8007b46:	461f      	movge	r7, r3
 8007b48:	f8d4 a010 	ldr.w	sl, [r4, #16]
 8007b4c:	f8d7 9010 	ldr.w	r9, [r7, #16]
 8007b50:	68a3      	ldr	r3, [r4, #8]
 8007b52:	6861      	ldr	r1, [r4, #4]
 8007b54:	eb0a 0609 	add.w	r6, sl, r9
 8007b58:	42b3      	cmp	r3, r6
 8007b5a:	b085      	sub	sp, #20
 8007b5c:	bfb8      	it	lt
 8007b5e:	3101      	addlt	r1, #1
 8007b60:	f7ff fedc 	bl	800791c <_Balloc>
 8007b64:	b930      	cbnz	r0, 8007b74 <__multiply+0x44>
 8007b66:	4602      	mov	r2, r0
 8007b68:	4b44      	ldr	r3, [pc, #272]	@ (8007c7c <__multiply+0x14c>)
 8007b6a:	4845      	ldr	r0, [pc, #276]	@ (8007c80 <__multiply+0x150>)
 8007b6c:	f44f 71b1 	mov.w	r1, #354	@ 0x162
 8007b70:	f000 fb46 	bl	8008200 <__assert_func>
 8007b74:	f100 0514 	add.w	r5, r0, #20
 8007b78:	eb05 0886 	add.w	r8, r5, r6, lsl #2
 8007b7c:	462b      	mov	r3, r5
 8007b7e:	2200      	movs	r2, #0
 8007b80:	4543      	cmp	r3, r8
 8007b82:	d321      	bcc.n	8007bc8 <__multiply+0x98>
 8007b84:	f107 0114 	add.w	r1, r7, #20
 8007b88:	f104 0214 	add.w	r2, r4, #20
 8007b8c:	eb02 028a 	add.w	r2, r2, sl, lsl #2
 8007b90:	eb01 0389 	add.w	r3, r1, r9, lsl #2
 8007b94:	9302      	str	r3, [sp, #8]
 8007b96:	1b13      	subs	r3, r2, r4
 8007b98:	3b15      	subs	r3, #21
 8007b9a:	f023 0303 	bic.w	r3, r3, #3
 8007b9e:	3304      	adds	r3, #4
 8007ba0:	f104 0715 	add.w	r7, r4, #21
 8007ba4:	42ba      	cmp	r2, r7
 8007ba6:	bf38      	it	cc
 8007ba8:	2304      	movcc	r3, #4
 8007baa:	9301      	str	r3, [sp, #4]
 8007bac:	9b02      	ldr	r3, [sp, #8]
 8007bae:	9103      	str	r1, [sp, #12]
 8007bb0:	428b      	cmp	r3, r1
 8007bb2:	d80c      	bhi.n	8007bce <__multiply+0x9e>
 8007bb4:	2e00      	cmp	r6, #0
 8007bb6:	dd03      	ble.n	8007bc0 <__multiply+0x90>
 8007bb8:	f858 3d04 	ldr.w	r3, [r8, #-4]!
 8007bbc:	2b00      	cmp	r3, #0
 8007bbe:	d05b      	beq.n	8007c78 <__multiply+0x148>
 8007bc0:	6106      	str	r6, [r0, #16]
 8007bc2:	b005      	add	sp, #20
 8007bc4:	e8bd 8ff0 	ldmia.w	sp!, {r4, r5, r6, r7, r8, r9, sl, fp, pc}
 8007bc8:	f843 2b04 	str.w	r2, [r3], #4
 8007bcc:	e7d8      	b.n	8007b80 <__multiply+0x50>
 8007bce:	f8b1 a000 	ldrh.w	sl, [r1]
 8007bd2:	f1ba 0f00 	cmp.w	sl, #0
 8007bd6:	d024      	beq.n	8007c22 <__multiply+0xf2>
 8007bd8:	f104 0e14 	add.w	lr, r4, #20
 8007bdc:	46a9      	mov	r9, r5
 8007bde:	f04f 0c00 	mov.w	ip, #0
 8007be2:	f85e 7b04 	ldr.w	r7, [lr], #4
 8007be6:	f8d9 3000 	ldr.w	r3, [r9]
 8007bea:	fa1f fb87 	uxth.w	fp, r7
 8007bee:	b29b      	uxth	r3, r3
 8007bf0:	fb0a 330b 	mla	r3, sl, fp, r3
 8007bf4:	ea4f 4b17 	mov.w	fp, r7, lsr #16
 8007bf8:	f8d9 7000 	ldr.w	r7, [r9]
 8007bfc:	4463      	add	r3, ip
 8007bfe:	ea4f 4c17 	mov.w	ip, r7, lsr #16
 8007c02:	fb0a c70b 	mla	r7, sl, fp, ip
 8007c06:	eb07 4713 	add.w	r7, r7, r3, lsr #16
 8007c0a:	b29b      	uxth	r3, r3
 8007c0c:	ea43 4307 	orr.w	r3, r3, r7, lsl #16
 8007c10:	4572      	cmp	r2, lr
 8007c12:	f849 3b04 	str.w	r3, [r9], #4
 8007c16:	ea4f 4c17 	mov.w	ip, r7, lsr #16
 8007c1a:	d8e2      	bhi.n	8007be2 <__multiply+0xb2>
 8007c1c:	9b01      	ldr	r3, [sp, #4]
 8007c1e:	f845 c003 	str.w	ip, [r5, r3]
 8007c22:	9b03      	ldr	r3, [sp, #12]
 8007c24:	f8b3 9002 	ldrh.w	r9, [r3, #2]
 8007c28:	3104      	adds	r1, #4
 8007c2a:	f1b9 0f00 	cmp.w	r9, #0
 8007c2e:	d021      	beq.n	8007c74 <__multiply+0x144>
 8007c30:	682b      	ldr	r3, [r5, #0]
 8007c32:	f104 0c14 	add.w	ip, r4, #20
 8007c36:	46ae      	mov	lr, r5
 8007c38:	f04f 0a00 	mov.w	sl, #0
 8007c3c:	f8bc b000 	ldrh.w	fp, [ip]
 8007c40:	f8be 7002 	ldrh.w	r7, [lr, #2]
 8007c44:	fb09 770b 	mla	r7, r9, fp, r7
 8007c48:	4457      	add	r7, sl
 8007c4a:	b29b      	uxth	r3, r3
 8007c4c:	ea43 4307 	orr.w	r3, r3, r7, lsl #16
 8007c50:	f84e 3b04 	str.w	r3, [lr], #4
 8007c54:	f85c 3b04 	ldr.w	r3, [ip], #4
 8007c58:	ea4f 4a13 	mov.w	sl, r3, lsr #16
 8007c5c:	f8be 3000 	ldrh.w	r3, [lr]
 8007c60:	fb09 330a 	mla	r3, r9, sl, r3
 8007c64:	eb03 4317 	add.w	r3, r3, r7, lsr #16
 8007c68:	4562      	cmp	r2, ip
 8007c6a:	ea4f 4a13 	mov.w	sl, r3, lsr #16
 8007c6e:	d8e5      	bhi.n	8007c3c <__multiply+0x10c>
 8007c70:	9f01      	ldr	r7, [sp, #4]
 8007c72:	51eb      	str	r3, [r5, r7]
 8007c74:	3504      	adds	r5, #4
 8007c76:	e799      	b.n	8007bac <__multiply+0x7c>
 8007c78:	3e01      	subs	r6, #1
 8007c7a:	e79b      	b.n	8007bb4 <__multiply+0x84>
 8007c7c:	080099b8 	.word	0x080099b8
 8007c80:	080099da 	.word	0x080099da

08007c84 <__pow5mult>:
 8007c84:	e92d 43f8 	stmdb	sp!, {r3, r4, r5, r6, r7, r8, r9, lr}
 8007c88:	4615      	mov	r5, r2
 8007c8a:	f012 0203 	ands.w	r2, r2, #3
 8007c8e:	4607      	mov	r7, r0
 8007c90:	460e      	mov	r6, r1
 8007c92:	d007      	beq.n	8007ca4 <__pow5mult+0x20>
 8007c94:	4c25      	ldr	r4, [pc, #148]	@ (8007d2c <__pow5mult+0xa8>)
 8007c96:	3a01      	subs	r2, #1
 8007c98:	2300      	movs	r3, #0
 8007c9a:	f854 2022 	ldr.w	r2, [r4, r2, lsl #2]
 8007c9e:	f7ff fe9f 	bl	80079e0 <__multadd>
 8007ca2:	4606      	mov	r6, r0
 8007ca4:	10ad      	asrs	r5, r5, #2
 8007ca6:	d03d      	beq.n	8007d24 <__pow5mult+0xa0>
 8007ca8:	69fc      	ldr	r4, [r7, #28]
 8007caa:	b97c      	cbnz	r4, 8007ccc <__pow5mult+0x48>
 8007cac:	2010      	movs	r0, #16
 8007cae:	f7ff fcd3 	bl	8007658 <malloc>
 8007cb2:	4602      	mov	r2, r0
 8007cb4:	61f8      	str	r0, [r7, #28]
 8007cb6:	b928      	cbnz	r0, 8007cc4 <__pow5mult+0x40>
 8007cb8:	4b1d      	ldr	r3, [pc, #116]	@ (8007d30 <__pow5mult+0xac>)
 8007cba:	481e      	ldr	r0, [pc, #120]	@ (8007d34 <__pow5mult+0xb0>)
 8007cbc:	f240 11b3 	movw	r1, #435	@ 0x1b3
 8007cc0:	f000 fa9e 	bl	8008200 <__assert_func>
 8007cc4:	e9c0 4401 	strd	r4, r4, [r0, #4]
 8007cc8:	6004      	str	r4, [r0, #0]
 8007cca:	60c4      	str	r4, [r0, #12]
 8007ccc:	f8d7 801c 	ldr.w	r8, [r7, #28]
 8007cd0:	f8d8 4008 	ldr.w	r4, [r8, #8]
 8007cd4:	b94c      	cbnz	r4, 8007cea <__pow5mult+0x66>
 8007cd6:	f240 2171 	movw	r1, #625	@ 0x271
 8007cda:	4638      	mov	r0, r7
 8007cdc:	f7ff ff12 	bl	8007b04 <__i2b>
 8007ce0:	2300      	movs	r3, #0
 8007ce2:	f8c8 0008 	str.w	r0, [r8, #8]
 8007ce6:	4604      	mov	r4, r0
 8007ce8:	6003      	str	r3, [r0, #0]
 8007cea:	f04f 0900 	mov.w	r9, #0
 8007cee:	07eb      	lsls	r3, r5, #31
 8007cf0:	d50a      	bpl.n	8007d08 <__pow5mult+0x84>
 8007cf2:	4631      	mov	r1, r6
 8007cf4:	4622      	mov	r2, r4
 8007cf6:	4638      	mov	r0, r7
 8007cf8:	f7ff ff1a 	bl	8007b30 <__multiply>
 8007cfc:	4631      	mov	r1, r6
 8007cfe:	4680      	mov	r8, r0
 8007d00:	4638      	mov	r0, r7
 8007d02:	f7ff fe4b 	bl	800799c <_Bfree>
 8007d06:	4646      	mov	r6, r8
 8007d08:	106d      	asrs	r5, r5, #1
 8007d0a:	d00b      	beq.n	8007d24 <__pow5mult+0xa0>
 8007d0c:	6820      	ldr	r0, [r4, #0]
 8007d0e:	b938      	cbnz	r0, 8007d20 <__pow5mult+0x9c>
 8007d10:	4622      	mov	r2, r4
 8007d12:	4621      	mov	r1, r4
 8007d14:	4638      	mov	r0, r7
 8007d16:	f7ff ff0b 	bl	8007b30 <__multiply>
 8007d1a:	6020      	str	r0, [r4, #0]
 8007d1c:	f8c0 9000 	str.w	r9, [r0]
 8007d20:	4604      	mov	r4, r0
 8007d22:	e7e4      	b.n	8007cee <__pow5mult+0x6a>
 8007d24:	4630      	mov	r0, r6
 8007d26:	e8bd 83f8 	ldmia.w	sp!, {r3, r4, r5, r6, r7, r8, r9, pc}
 8007d2a:	bf00      	nop
 8007d2c:	08009a34 	.word	0x08009a34
 8007d30:	08009949 	.word	0x08009949
 8007d34:	080099da 	.word	0x080099da

08007d38 <__lshift>:
 8007d38:	e92d 47f0 	stmdb	sp!, {r4, r5, r6, r7, r8, r9, sl, lr}
 8007d3c:	460c      	mov	r4, r1
 8007d3e:	6849      	ldr	r1, [r1, #4]
 8007d40:	6923      	ldr	r3, [r4, #16]
 8007d42:	eb03 1862 	add.w	r8, r3, r2, asr #5
 8007d46:	68a3      	ldr	r3, [r4, #8]
 8007d48:	4607      	mov	r7, r0
 8007d4a:	4691      	mov	r9, r2
 8007d4c:	ea4f 1a62 	mov.w	sl, r2, asr #5
 8007d50:	f108 0601 	add.w	r6, r8, #1
 8007d54:	42b3      	cmp	r3, r6
 8007d56:	db0b      	blt.n	8007d70 <__lshift+0x38>
 8007d58:	4638      	mov	r0, r7
 8007d5a:	f7ff fddf 	bl	800791c <_Balloc>
 8007d5e:	4605      	mov	r5, r0
 8007d60:	b948      	cbnz	r0, 8007d76 <__lshift+0x3e>
 8007d62:	4602      	mov	r2, r0
 8007d64:	4b28      	ldr	r3, [pc, #160]	@ (8007e08 <__lshift+0xd0>)
 8007d66:	4829      	ldr	r0, [pc, #164]	@ (8007e0c <__lshift+0xd4>)
 8007d68:	f44f 71ef 	mov.w	r1, #478	@ 0x1de
 8007d6c:	f000 fa48 	bl	8008200 <__assert_func>
 8007d70:	3101      	adds	r1, #1
 8007d72:	005b      	lsls	r3, r3, #1
 8007d74:	e7ee      	b.n	8007d54 <__lshift+0x1c>
 8007d76:	2300      	movs	r3, #0
 8007d78:	f100 0114 	add.w	r1, r0, #20
 8007d7c:	f100 0210 	add.w	r2, r0, #16
 8007d80:	4618      	mov	r0, r3
 8007d82:	4553      	cmp	r3, sl
 8007d84:	db33      	blt.n	8007dee <__lshift+0xb6>
 8007d86:	6920      	ldr	r0, [r4, #16]
 8007d88:	ea2a 7aea 	bic.w	sl, sl, sl, asr #31
 8007d8c:	f104 0314 	add.w	r3, r4, #20
 8007d90:	f019 091f 	ands.w	r9, r9, #31
 8007d94:	eb01 018a 	add.w	r1, r1, sl, lsl #2
 8007d98:	eb03 0c80 	add.w	ip, r3, r0, lsl #2
 8007d9c:	d02b      	beq.n	8007df6 <__lshift+0xbe>
 8007d9e:	f1c9 0e20 	rsb	lr, r9, #32
 8007da2:	468a      	mov	sl, r1
 8007da4:	2200      	movs	r2, #0
 8007da6:	6818      	ldr	r0, [r3, #0]
 8007da8:	fa00 f009 	lsl.w	r0, r0, r9
 8007dac:	4310      	orrs	r0, r2
 8007dae:	f84a 0b04 	str.w	r0, [sl], #4
 8007db2:	f853 2b04 	ldr.w	r2, [r3], #4
 8007db6:	459c      	cmp	ip, r3
 8007db8:	fa22 f20e 	lsr.w	r2, r2, lr
 8007dbc:	d8f3      	bhi.n	8007da6 <__lshift+0x6e>
 8007dbe:	ebac 0304 	sub.w	r3, ip, r4
 8007dc2:	3b15      	subs	r3, #21
 8007dc4:	f023 0303 	bic.w	r3, r3, #3
 8007dc8:	3304      	adds	r3, #4
 8007dca:	f104 0015 	add.w	r0, r4, #21
 8007dce:	4584      	cmp	ip, r0
 8007dd0:	bf38      	it	cc
 8007dd2:	2304      	movcc	r3, #4
 8007dd4:	50ca      	str	r2, [r1, r3]
 8007dd6:	b10a      	cbz	r2, 8007ddc <__lshift+0xa4>
 8007dd8:	f108 0602 	add.w	r6, r8, #2
 8007ddc:	3e01      	subs	r6, #1
 8007dde:	4638      	mov	r0, r7
 8007de0:	612e      	str	r6, [r5, #16]
 8007de2:	4621      	mov	r1, r4
 8007de4:	f7ff fdda 	bl	800799c <_Bfree>
 8007de8:	4628      	mov	r0, r5
 8007dea:	e8bd 87f0 	ldmia.w	sp!, {r4, r5, r6, r7, r8, r9, sl, pc}
 8007dee:	f842 0f04 	str.w	r0, [r2, #4]!
 8007df2:	3301      	adds	r3, #1
 8007df4:	e7c5      	b.n	8007d82 <__lshift+0x4a>
 8007df6:	3904      	subs	r1, #4
 8007df8:	f853 2b04 	ldr.w	r2, [r3], #4
 8007dfc:	f841 2f04 	str.w	r2, [r1, #4]!
 8007e00:	459c      	cmp	ip, r3
 8007e02:	d8f9      	bhi.n	8007df8 <__lshift+0xc0>
 8007e04:	e7ea      	b.n	8007ddc <__lshift+0xa4>
 8007e06:	bf00      	nop
 8007e08:	080099b8 	.word	0x080099b8
 8007e0c:	080099da 	.word	0x080099da

08007e10 <__mcmp>:
 8007e10:	690a      	ldr	r2, [r1, #16]
 8007e12:	4603      	mov	r3, r0
 8007e14:	6900      	ldr	r0, [r0, #16]
 8007e16:	1a80      	subs	r0, r0, r2
 8007e18:	b530      	push	{r4, r5, lr}
 8007e1a:	d10e      	bne.n	8007e3a <__mcmp+0x2a>
 8007e1c:	3314      	adds	r3, #20
 8007e1e:	3114      	adds	r1, #20
 8007e20:	eb03 0482 	add.w	r4, r3, r2, lsl #2
 8007e24:	eb01 0182 	add.w	r1, r1, r2, lsl #2
 8007e28:	f854 5d04 	ldr.w	r5, [r4, #-4]!
 8007e2c:	f851 2d04 	ldr.w	r2, [r1, #-4]!
 8007e30:	4295      	cmp	r5, r2
 8007e32:	d003      	beq.n	8007e3c <__mcmp+0x2c>
 8007e34:	d205      	bcs.n	8007e42 <__mcmp+0x32>
 8007e36:	f04f 30ff 	mov.w	r0, #4294967295	@ 0xffffffff
 8007e3a:	bd30      	pop	{r4, r5, pc}
 8007e3c:	42a3      	cmp	r3, r4
 8007e3e:	d3f3      	bcc.n	8007e28 <__mcmp+0x18>
 8007e40:	e7fb      	b.n	8007e3a <__mcmp+0x2a>
 8007e42:	2001      	movs	r0, #1
 8007e44:	e7f9      	b.n	8007e3a <__mcmp+0x2a>
	...

08007e48 <__mdiff>:
 8007e48:	e92d 4ff7 	stmdb	sp!, {r0, r1, r2, r4, r5, r6, r7, r8, r9, sl, fp, lr}
 8007e4c:	4689      	mov	r9, r1
 8007e4e:	4606      	mov	r6, r0
 8007e50:	4611      	mov	r1, r2
 8007e52:	4648      	mov	r0, r9
 8007e54:	4614      	mov	r4, r2
 8007e56:	f7ff ffdb 	bl	8007e10 <__mcmp>
 8007e5a:	1e05      	subs	r5, r0, #0
 8007e5c:	d112      	bne.n	8007e84 <__mdiff+0x3c>
 8007e5e:	4629      	mov	r1, r5
 8007e60:	4630      	mov	r0, r6
 8007e62:	f7ff fd5b 	bl	800791c <_Balloc>
 8007e66:	4602      	mov	r2, r0
 8007e68:	b928      	cbnz	r0, 8007e76 <__mdiff+0x2e>
 8007e6a:	4b3f      	ldr	r3, [pc, #252]	@ (8007f68 <__mdiff+0x120>)
 8007e6c:	f240 2137 	movw	r1, #567	@ 0x237
 8007e70:	483e      	ldr	r0, [pc, #248]	@ (8007f6c <__mdiff+0x124>)
 8007e72:	f000 f9c5 	bl	8008200 <__assert_func>
 8007e76:	2301      	movs	r3, #1
 8007e78:	e9c0 3504 	strd	r3, r5, [r0, #16]
 8007e7c:	4610      	mov	r0, r2
 8007e7e:	b003      	add	sp, #12
 8007e80:	e8bd 8ff0 	ldmia.w	sp!, {r4, r5, r6, r7, r8, r9, sl, fp, pc}
 8007e84:	bfbc      	itt	lt
 8007e86:	464b      	movlt	r3, r9
 8007e88:	46a1      	movlt	r9, r4
 8007e8a:	4630      	mov	r0, r6
 8007e8c:	f8d9 1004 	ldr.w	r1, [r9, #4]
 8007e90:	bfba      	itte	lt
 8007e92:	461c      	movlt	r4, r3
 8007e94:	2501      	movlt	r5, #1
 8007e96:	2500      	movge	r5, #0
 8007e98:	f7ff fd40 	bl	800791c <_Balloc>
 8007e9c:	4602      	mov	r2, r0
 8007e9e:	b918      	cbnz	r0, 8007ea8 <__mdiff+0x60>
 8007ea0:	4b31      	ldr	r3, [pc, #196]	@ (8007f68 <__mdiff+0x120>)
 8007ea2:	f240 2145 	movw	r1, #581	@ 0x245
 8007ea6:	e7e3      	b.n	8007e70 <__mdiff+0x28>
 8007ea8:	f8d9 7010 	ldr.w	r7, [r9, #16]
 8007eac:	6926      	ldr	r6, [r4, #16]
 8007eae:	60c5      	str	r5, [r0, #12]
 8007eb0:	f109 0310 	add.w	r3, r9, #16
 8007eb4:	f109 0514 	add.w	r5, r9, #20
 8007eb8:	f104 0e14 	add.w	lr, r4, #20
 8007ebc:	f100 0b14 	add.w	fp, r0, #20
 8007ec0:	eb05 0887 	add.w	r8, r5, r7, lsl #2
 8007ec4:	eb0e 0686 	add.w	r6, lr, r6, lsl #2
 8007ec8:	9301      	str	r3, [sp, #4]
 8007eca:	46d9      	mov	r9, fp
 8007ecc:	f04f 0c00 	mov.w	ip, #0
 8007ed0:	9b01      	ldr	r3, [sp, #4]
 8007ed2:	f85e 0b04 	ldr.w	r0, [lr], #4
 8007ed6:	f853 af04 	ldr.w	sl, [r3, #4]!
 8007eda:	9301      	str	r3, [sp, #4]
 8007edc:	fa1f f38a 	uxth.w	r3, sl
 8007ee0:	4619      	mov	r1, r3
 8007ee2:	b283      	uxth	r3, r0
 8007ee4:	1acb      	subs	r3, r1, r3
 8007ee6:	0c00      	lsrs	r0, r0, #16
 8007ee8:	4463      	add	r3, ip
 8007eea:	ebc0 401a 	rsb	r0, r0, sl, lsr #16
 8007eee:	eb00 4023 	add.w	r0, r0, r3, asr #16
 8007ef2:	b29b      	uxth	r3, r3
 8007ef4:	ea43 4300 	orr.w	r3, r3, r0, lsl #16
 8007ef8:	4576      	cmp	r6, lr
 8007efa:	f849 3b04 	str.w	r3, [r9], #4
 8007efe:	ea4f 4c20 	mov.w	ip, r0, asr #16
 8007f02:	d8e5      	bhi.n	8007ed0 <__mdiff+0x88>
 8007f04:	1b33      	subs	r3, r6, r4
 8007f06:	3b15      	subs	r3, #21
 8007f08:	f023 0303 	bic.w	r3, r3, #3
 8007f0c:	3415      	adds	r4, #21
 8007f0e:	3304      	adds	r3, #4
 8007f10:	42a6      	cmp	r6, r4
 8007f12:	bf38      	it	cc
 8007f14:	2304      	movcc	r3, #4
 8007f16:	441d      	add	r5, r3
 8007f18:	445b      	add	r3, fp
 8007f1a:	461e      	mov	r6, r3
 8007f1c:	462c      	mov	r4, r5
 8007f1e:	4544      	cmp	r4, r8
 8007f20:	d30e      	bcc.n	8007f40 <__mdiff+0xf8>
 8007f22:	f108 0103 	add.w	r1, r8, #3
 8007f26:	1b49      	subs	r1, r1, r5
 8007f28:	f021 0103 	bic.w	r1, r1, #3
 8007f2c:	3d03      	subs	r5, #3
 8007f2e:	45a8      	cmp	r8, r5
 8007f30:	bf38      	it	cc
 8007f32:	2100      	movcc	r1, #0
 8007f34:	440b      	add	r3, r1
 8007f36:	f853 1d04 	ldr.w	r1, [r3, #-4]!
 8007f3a:	b191      	cbz	r1, 8007f62 <__mdiff+0x11a>
 8007f3c:	6117      	str	r7, [r2, #16]
 8007f3e:	e79d      	b.n	8007e7c <__mdiff+0x34>
 8007f40:	f854 1b04 	ldr.w	r1, [r4], #4
 8007f44:	46e6      	mov	lr, ip
 8007f46:	0c08      	lsrs	r0, r1, #16
 8007f48:	fa1c fc81 	uxtah	ip, ip, r1
 8007f4c:	4471      	add	r1, lr
 8007f4e:	eb00 402c 	add.w	r0, r0, ip, asr #16
 8007f52:	b289      	uxth	r1, r1
 8007f54:	ea41 4100 	orr.w	r1, r1, r0, lsl #16
 8007f58:	f846 1b04 	str.w	r1, [r6], #4
 8007f5c:	ea4f 4c20 	mov.w	ip, r0, asr #16
 8007f60:	e7dd      	b.n	8007f1e <__mdiff+0xd6>
 8007f62:	3f01      	subs	r7, #1
 8007f64:	e7e7      	b.n	8007f36 <__mdiff+0xee>
 8007f66:	bf00      	nop
 8007f68:	080099b8 	.word	0x080099b8
 8007f6c:	080099da 	.word	0x080099da

08007f70 <__d2b>:
 8007f70:	e92d 43f7 	stmdb	sp!, {r0, r1, r2, r4, r5, r6, r7, r8, r9, lr}
 8007f74:	460f      	mov	r7, r1
 8007f76:	2101      	movs	r1, #1
 8007f78:	ec59 8b10 	vmov	r8, r9, d0
 8007f7c:	4616      	mov	r6, r2
 8007f7e:	f7ff fccd 	bl	800791c <_Balloc>
 8007f82:	4604      	mov	r4, r0
 8007f84:	b930      	cbnz	r0, 8007f94 <__d2b+0x24>
 8007f86:	4602      	mov	r2, r0
 8007f88:	4b23      	ldr	r3, [pc, #140]	@ (8008018 <__d2b+0xa8>)
 8007f8a:	4824      	ldr	r0, [pc, #144]	@ (800801c <__d2b+0xac>)
 8007f8c:	f240 310f 	movw	r1, #783	@ 0x30f
 8007f90:	f000 f936 	bl	8008200 <__assert_func>
 8007f94:	f3c9 550a 	ubfx	r5, r9, #20, #11
 8007f98:	f3c9 0313 	ubfx	r3, r9, #0, #20
 8007f9c:	b10d      	cbz	r5, 8007fa2 <__d2b+0x32>
 8007f9e:	f443 1380 	orr.w	r3, r3, #1048576	@ 0x100000
 8007fa2:	9301      	str	r3, [sp, #4]
 8007fa4:	f1b8 0300 	subs.w	r3, r8, #0
 8007fa8:	d023      	beq.n	8007ff2 <__d2b+0x82>
 8007faa:	4668      	mov	r0, sp
 8007fac:	9300      	str	r3, [sp, #0]
 8007fae:	f7ff fd7c 	bl	8007aaa <__lo0bits>
 8007fb2:	e9dd 1200 	ldrd	r1, r2, [sp]
 8007fb6:	b1d0      	cbz	r0, 8007fee <__d2b+0x7e>
 8007fb8:	f1c0 0320 	rsb	r3, r0, #32
 8007fbc:	fa02 f303 	lsl.w	r3, r2, r3
 8007fc0:	430b      	orrs	r3, r1
 8007fc2:	40c2      	lsrs	r2, r0
 8007fc4:	6163      	str	r3, [r4, #20]
 8007fc6:	9201      	str	r2, [sp, #4]
 8007fc8:	9b01      	ldr	r3, [sp, #4]
 8007fca:	61a3      	str	r3, [r4, #24]
 8007fcc:	2b00      	cmp	r3, #0
 8007fce:	bf0c      	ite	eq
 8007fd0:	2201      	moveq	r2, #1
 8007fd2:	2202      	movne	r2, #2
 8007fd4:	6122      	str	r2, [r4, #16]
 8007fd6:	b1a5      	cbz	r5, 8008002 <__d2b+0x92>
 8007fd8:	f2a5 4533 	subw	r5, r5, #1075	@ 0x433
 8007fdc:	4405      	add	r5, r0
 8007fde:	603d      	str	r5, [r7, #0]
 8007fe0:	f1c0 0035 	rsb	r0, r0, #53	@ 0x35
 8007fe4:	6030      	str	r0, [r6, #0]
 8007fe6:	4620      	mov	r0, r4
 8007fe8:	b003      	add	sp, #12
 8007fea:	e8bd 83f0 	ldmia.w	sp!, {r4, r5, r6, r7, r8, r9, pc}
 8007fee:	6161      	str	r1, [r4, #20]
 8007ff0:	e7ea      	b.n	8007fc8 <__d2b+0x58>
 8007ff2:	a801      	add	r0, sp, #4
 8007ff4:	f7ff fd59 	bl	8007aaa <__lo0bits>
 8007ff8:	9b01      	ldr	r3, [sp, #4]
 8007ffa:	6163      	str	r3, [r4, #20]
 8007ffc:	3020      	adds	r0, #32
 8007ffe:	2201      	movs	r2, #1
 8008000:	e7e8      	b.n	8007fd4 <__d2b+0x64>
 8008002:	eb04 0382 	add.w	r3, r4, r2, lsl #2
 8008006:	f2a0 4032 	subw	r0, r0, #1074	@ 0x432
 800800a:	6038      	str	r0, [r7, #0]
 800800c:	6918      	ldr	r0, [r3, #16]
 800800e:	f7ff fd2d 	bl	8007a6c <__hi0bits>
 8008012:	ebc0 1042 	rsb	r0, r0, r2, lsl #5
 8008016:	e7e5      	b.n	8007fe4 <__d2b+0x74>
 8008018:	080099b8 	.word	0x080099b8
 800801c:	080099da 	.word	0x080099da

08008020 <__sread>:
 8008020:	b510      	push	{r4, lr}
 8008022:	460c      	mov	r4, r1
 8008024:	f9b1 100e 	ldrsh.w	r1, [r1, #14]
 8008028:	f000 f8a8 	bl	800817c <_read_r>
 800802c:	2800      	cmp	r0, #0
 800802e:	bfab      	itete	ge
 8008030:	6d63      	ldrge	r3, [r4, #84]	@ 0x54
 8008032:	89a3      	ldrhlt	r3, [r4, #12]
 8008034:	181b      	addge	r3, r3, r0
 8008036:	f423 5380 	biclt.w	r3, r3, #4096	@ 0x1000
 800803a:	bfac      	ite	ge
 800803c:	6563      	strge	r3, [r4, #84]	@ 0x54
 800803e:	81a3      	strhlt	r3, [r4, #12]
 8008040:	bd10      	pop	{r4, pc}

08008042 <__swrite>:
 8008042:	e92d 41f0 	stmdb	sp!, {r4, r5, r6, r7, r8, lr}
 8008046:	461f      	mov	r7, r3
 8008048:	898b      	ldrh	r3, [r1, #12]
 800804a:	05db      	lsls	r3, r3, #23
 800804c:	4605      	mov	r5, r0
 800804e:	460c      	mov	r4, r1
 8008050:	4616      	mov	r6, r2
 8008052:	d505      	bpl.n	8008060 <__swrite+0x1e>
 8008054:	f9b1 100e 	ldrsh.w	r1, [r1, #14]
 8008058:	2302      	movs	r3, #2
 800805a:	2200      	movs	r2, #0
 800805c:	f000 f87c 	bl	8008158 <_lseek_r>
 8008060:	89a3      	ldrh	r3, [r4, #12]
 8008062:	f9b4 100e 	ldrsh.w	r1, [r4, #14]
 8008066:	f423 5380 	bic.w	r3, r3, #4096	@ 0x1000
 800806a:	81a3      	strh	r3, [r4, #12]
 800806c:	4632      	mov	r2, r6
 800806e:	463b      	mov	r3, r7
 8008070:	4628      	mov	r0, r5
 8008072:	e8bd 41f0 	ldmia.w	sp!, {r4, r5, r6, r7, r8, lr}
 8008076:	f000 b8a3 	b.w	80081c0 <_write_r>

0800807a <__sseek>:
 800807a:	b510      	push	{r4, lr}
 800807c:	460c      	mov	r4, r1
 800807e:	f9b1 100e 	ldrsh.w	r1, [r1, #14]
 8008082:	f000 f869 	bl	8008158 <_lseek_r>
 8008086:	1c43      	adds	r3, r0, #1
 8008088:	89a3      	ldrh	r3, [r4, #12]
 800808a:	bf15      	itete	ne
 800808c:	6560      	strne	r0, [r4, #84]	@ 0x54
 800808e:	f423 5380 	biceq.w	r3, r3, #4096	@ 0x1000
 8008092:	f443 5380 	orrne.w	r3, r3, #4096	@ 0x1000
 8008096:	81a3      	strheq	r3, [r4, #12]
 8008098:	bf18      	it	ne
 800809a:	81a3      	strhne	r3, [r4, #12]
 800809c:	bd10      	pop	{r4, pc}

0800809e <__sclose>:
 800809e:	f9b1 100e 	ldrsh.w	r1, [r1, #14]
 80080a2:	f000 b849 	b.w	8008138 <_close_r>

080080a6 <_realloc_r>:
 80080a6:	e92d 41f0 	stmdb	sp!, {r4, r5, r6, r7, r8, lr}
 80080aa:	4680      	mov	r8, r0
 80080ac:	4615      	mov	r5, r2
 80080ae:	460c      	mov	r4, r1
 80080b0:	b921      	cbnz	r1, 80080bc <_realloc_r+0x16>
 80080b2:	e8bd 41f0 	ldmia.w	sp!, {r4, r5, r6, r7, r8, lr}
 80080b6:	4611      	mov	r1, r2
 80080b8:	f7ff baf8 	b.w	80076ac <_malloc_r>
 80080bc:	b92a      	cbnz	r2, 80080ca <_realloc_r+0x24>
 80080be:	f000 f8d1 	bl	8008264 <_free_r>
 80080c2:	2400      	movs	r4, #0
 80080c4:	4620      	mov	r0, r4
 80080c6:	e8bd 81f0 	ldmia.w	sp!, {r4, r5, r6, r7, r8, pc}
 80080ca:	f000 f927 	bl	800831c <_malloc_usable_size_r>
 80080ce:	4285      	cmp	r5, r0
 80080d0:	4606      	mov	r6, r0
 80080d2:	d802      	bhi.n	80080da <_realloc_r+0x34>
 80080d4:	ebb5 0f50 	cmp.w	r5, r0, lsr #1
 80080d8:	d8f4      	bhi.n	80080c4 <_realloc_r+0x1e>
 80080da:	4629      	mov	r1, r5
 80080dc:	4640      	mov	r0, r8
 80080de:	f7ff fae5 	bl	80076ac <_malloc_r>
 80080e2:	4607      	mov	r7, r0
 80080e4:	2800      	cmp	r0, #0
 80080e6:	d0ec      	beq.n	80080c2 <_realloc_r+0x1c>
 80080e8:	42b5      	cmp	r5, r6
 80080ea:	462a      	mov	r2, r5
 80080ec:	4621      	mov	r1, r4
 80080ee:	bf28      	it	cs
 80080f0:	4632      	movcs	r2, r6
 80080f2:	f000 f877 	bl	80081e4 <memcpy>
 80080f6:	4621      	mov	r1, r4
 80080f8:	4640      	mov	r0, r8
 80080fa:	f000 f8b3 	bl	8008264 <_free_r>
 80080fe:	463c      	mov	r4, r7
 8008100:	e7e0      	b.n	80080c4 <_realloc_r+0x1e>

08008102 <memmove>:
 8008102:	4288      	cmp	r0, r1
 8008104:	b510      	push	{r4, lr}
 8008106:	eb01 0402 	add.w	r4, r1, r2
 800810a:	d902      	bls.n	8008112 <memmove+0x10>
 800810c:	4284      	cmp	r4, r0
 800810e:	4623      	mov	r3, r4
 8008110:	d807      	bhi.n	8008122 <memmove+0x20>
 8008112:	1e43      	subs	r3, r0, #1
 8008114:	42a1      	cmp	r1, r4
 8008116:	d008      	beq.n	800812a <memmove+0x28>
 8008118:	f811 2b01 	ldrb.w	r2, [r1], #1
 800811c:	f803 2f01 	strb.w	r2, [r3, #1]!
 8008120:	e7f8      	b.n	8008114 <memmove+0x12>
 8008122:	4402      	add	r2, r0
 8008124:	4601      	mov	r1, r0
 8008126:	428a      	cmp	r2, r1
 8008128:	d100      	bne.n	800812c <memmove+0x2a>
 800812a:	bd10      	pop	{r4, pc}
 800812c:	f813 4d01 	ldrb.w	r4, [r3, #-1]!
 8008130:	f802 4d01 	strb.w	r4, [r2, #-1]!
 8008134:	e7f7      	b.n	8008126 <memmove+0x24>
	...

08008138 <_close_r>:
 8008138:	b538      	push	{r3, r4, r5, lr}
 800813a:	4d06      	ldr	r5, [pc, #24]	@ (8008154 <_close_r+0x1c>)
 800813c:	2300      	movs	r3, #0
 800813e:	4604      	mov	r4, r0
 8008140:	4608      	mov	r0, r1
 8008142:	602b      	str	r3, [r5, #0]
 8008144:	f7fa faa8 	bl	8002698 <_close>
 8008148:	1c43      	adds	r3, r0, #1
 800814a:	d102      	bne.n	8008152 <_close_r+0x1a>
 800814c:	682b      	ldr	r3, [r5, #0]
 800814e:	b103      	cbz	r3, 8008152 <_close_r+0x1a>
 8008150:	6023      	str	r3, [r4, #0]
 8008152:	bd38      	pop	{r3, r4, r5, pc}
 8008154:	200004cc 	.word	0x200004cc

08008158 <_lseek_r>:
 8008158:	b538      	push	{r3, r4, r5, lr}
 800815a:	4d07      	ldr	r5, [pc, #28]	@ (8008178 <_lseek_r+0x20>)
 800815c:	4604      	mov	r4, r0
 800815e:	4608      	mov	r0, r1
 8008160:	4611      	mov	r1, r2
 8008162:	2200      	movs	r2, #0
 8008164:	602a      	str	r2, [r5, #0]
 8008166:	461a      	mov	r2, r3
 8008168:	f7fa fabd 	bl	80026e6 <_lseek>
 800816c:	1c43      	adds	r3, r0, #1
 800816e:	d102      	bne.n	8008176 <_lseek_r+0x1e>
 8008170:	682b      	ldr	r3, [r5, #0]
 8008172:	b103      	cbz	r3, 8008176 <_lseek_r+0x1e>
 8008174:	6023      	str	r3, [r4, #0]
 8008176:	bd38      	pop	{r3, r4, r5, pc}
 8008178:	200004cc 	.word	0x200004cc

0800817c <_read_r>:
 800817c:	b538      	push	{r3, r4, r5, lr}
 800817e:	4d07      	ldr	r5, [pc, #28]	@ (800819c <_read_r+0x20>)
 8008180:	4604      	mov	r4, r0
 8008182:	4608      	mov	r0, r1
 8008184:	4611      	mov	r1, r2
 8008186:	2200      	movs	r2, #0
 8008188:	602a      	str	r2, [r5, #0]
 800818a:	461a      	mov	r2, r3
 800818c:	f7fa fa4b 	bl	8002626 <_read>
 8008190:	1c43      	adds	r3, r0, #1
 8008192:	d102      	bne.n	800819a <_read_r+0x1e>
 8008194:	682b      	ldr	r3, [r5, #0]
 8008196:	b103      	cbz	r3, 800819a <_read_r+0x1e>
 8008198:	6023      	str	r3, [r4, #0]
 800819a:	bd38      	pop	{r3, r4, r5, pc}
 800819c:	200004cc 	.word	0x200004cc

080081a0 <_sbrk_r>:
 80081a0:	b538      	push	{r3, r4, r5, lr}
 80081a2:	4d06      	ldr	r5, [pc, #24]	@ (80081bc <_sbrk_r+0x1c>)
 80081a4:	2300      	movs	r3, #0
 80081a6:	4604      	mov	r4, r0
 80081a8:	4608      	mov	r0, r1
 80081aa:	602b      	str	r3, [r5, #0]
 80081ac:	f7fa faa8 	bl	8002700 <_sbrk>
 80081b0:	1c43      	adds	r3, r0, #1
 80081b2:	d102      	bne.n	80081ba <_sbrk_r+0x1a>
 80081b4:	682b      	ldr	r3, [r5, #0]
 80081b6:	b103      	cbz	r3, 80081ba <_sbrk_r+0x1a>
 80081b8:	6023      	str	r3, [r4, #0]
 80081ba:	bd38      	pop	{r3, r4, r5, pc}
 80081bc:	200004cc 	.word	0x200004cc

080081c0 <_write_r>:
 80081c0:	b538      	push	{r3, r4, r5, lr}
 80081c2:	4d07      	ldr	r5, [pc, #28]	@ (80081e0 <_write_r+0x20>)
 80081c4:	4604      	mov	r4, r0
 80081c6:	4608      	mov	r0, r1
 80081c8:	4611      	mov	r1, r2
 80081ca:	2200      	movs	r2, #0
 80081cc:	602a      	str	r2, [r5, #0]
 80081ce:	461a      	mov	r2, r3
 80081d0:	f7fa fa46 	bl	8002660 <_write>
 80081d4:	1c43      	adds	r3, r0, #1
 80081d6:	d102      	bne.n	80081de <_write_r+0x1e>
 80081d8:	682b      	ldr	r3, [r5, #0]
 80081da:	b103      	cbz	r3, 80081de <_write_r+0x1e>
 80081dc:	6023      	str	r3, [r4, #0]
 80081de:	bd38      	pop	{r3, r4, r5, pc}
 80081e0:	200004cc 	.word	0x200004cc

080081e4 <memcpy>:
 80081e4:	440a      	add	r2, r1
 80081e6:	4291      	cmp	r1, r2
 80081e8:	f100 33ff 	add.w	r3, r0, #4294967295	@ 0xffffffff
 80081ec:	d100      	bne.n	80081f0 <memcpy+0xc>
 80081ee:	4770      	bx	lr
 80081f0:	b510      	push	{r4, lr}
 80081f2:	f811 4b01 	ldrb.w	r4, [r1], #1
 80081f6:	f803 4f01 	strb.w	r4, [r3, #1]!
 80081fa:	4291      	cmp	r1, r2
 80081fc:	d1f9      	bne.n	80081f2 <memcpy+0xe>
 80081fe:	bd10      	pop	{r4, pc}

08008200 <__assert_func>:
 8008200:	b51f      	push	{r0, r1, r2, r3, r4, lr}
 8008202:	4614      	mov	r4, r2
 8008204:	461a      	mov	r2, r3
 8008206:	4b09      	ldr	r3, [pc, #36]	@ (800822c <__assert_func+0x2c>)
 8008208:	681b      	ldr	r3, [r3, #0]
 800820a:	4605      	mov	r5, r0
 800820c:	68d8      	ldr	r0, [r3, #12]
 800820e:	b954      	cbnz	r4, 8008226 <__assert_func+0x26>
 8008210:	4b07      	ldr	r3, [pc, #28]	@ (8008230 <__assert_func+0x30>)
 8008212:	461c      	mov	r4, r3
 8008214:	e9cd 3401 	strd	r3, r4, [sp, #4]
 8008218:	9100      	str	r1, [sp, #0]
 800821a:	462b      	mov	r3, r5
 800821c:	4905      	ldr	r1, [pc, #20]	@ (8008234 <__assert_func+0x34>)
 800821e:	f000 f885 	bl	800832c <fiprintf>
 8008222:	f000 f8a2 	bl	800836a <abort>
 8008226:	4b04      	ldr	r3, [pc, #16]	@ (8008238 <__assert_func+0x38>)
 8008228:	e7f4      	b.n	8008214 <__assert_func+0x14>
 800822a:	bf00      	nop
 800822c:	20000018 	.word	0x20000018
 8008230:	08009c76 	.word	0x08009c76
 8008234:	08009c48 	.word	0x08009c48
 8008238:	08009c3b 	.word	0x08009c3b

0800823c <_calloc_r>:
 800823c:	b570      	push	{r4, r5, r6, lr}
 800823e:	fba1 5402 	umull	r5, r4, r1, r2
 8008242:	b93c      	cbnz	r4, 8008254 <_calloc_r+0x18>
 8008244:	4629      	mov	r1, r5
 8008246:	f7ff fa31 	bl	80076ac <_malloc_r>
 800824a:	4606      	mov	r6, r0
 800824c:	b928      	cbnz	r0, 800825a <_calloc_r+0x1e>
 800824e:	2600      	movs	r6, #0
 8008250:	4630      	mov	r0, r6
 8008252:	bd70      	pop	{r4, r5, r6, pc}
 8008254:	220c      	movs	r2, #12
 8008256:	6002      	str	r2, [r0, #0]
 8008258:	e7f9      	b.n	800824e <_calloc_r+0x12>
 800825a:	462a      	mov	r2, r5
 800825c:	4621      	mov	r1, r4
 800825e:	f7fe fa1b 	bl	8006698 <memset>
 8008262:	e7f5      	b.n	8008250 <_calloc_r+0x14>

08008264 <_free_r>:
 8008264:	b538      	push	{r3, r4, r5, lr}
 8008266:	4605      	mov	r5, r0
 8008268:	2900      	cmp	r1, #0
 800826a:	d041      	beq.n	80082f0 <_free_r+0x8c>
 800826c:	f851 3c04 	ldr.w	r3, [r1, #-4]
 8008270:	1f0c      	subs	r4, r1, #4
 8008272:	2b00      	cmp	r3, #0
 8008274:	bfb8      	it	lt
 8008276:	18e4      	addlt	r4, r4, r3
 8008278:	f7ff fb44 	bl	8007904 <__malloc_lock>
 800827c:	4a1d      	ldr	r2, [pc, #116]	@ (80082f4 <_free_r+0x90>)
 800827e:	6813      	ldr	r3, [r2, #0]
 8008280:	b933      	cbnz	r3, 8008290 <_free_r+0x2c>
 8008282:	6063      	str	r3, [r4, #4]
 8008284:	6014      	str	r4, [r2, #0]
 8008286:	4628      	mov	r0, r5
 8008288:	e8bd 4038 	ldmia.w	sp!, {r3, r4, r5, lr}
 800828c:	f7ff bb40 	b.w	8007910 <__malloc_unlock>
 8008290:	42a3      	cmp	r3, r4
 8008292:	d908      	bls.n	80082a6 <_free_r+0x42>
 8008294:	6820      	ldr	r0, [r4, #0]
 8008296:	1821      	adds	r1, r4, r0
 8008298:	428b      	cmp	r3, r1
 800829a:	bf01      	itttt	eq
 800829c:	6819      	ldreq	r1, [r3, #0]
 800829e:	685b      	ldreq	r3, [r3, #4]
 80082a0:	1809      	addeq	r1, r1, r0
 80082a2:	6021      	streq	r1, [r4, #0]
 80082a4:	e7ed      	b.n	8008282 <_free_r+0x1e>
 80082a6:	461a      	mov	r2, r3
 80082a8:	685b      	ldr	r3, [r3, #4]
 80082aa:	b10b      	cbz	r3, 80082b0 <_free_r+0x4c>
 80082ac:	42a3      	cmp	r3, r4
 80082ae:	d9fa      	bls.n	80082a6 <_free_r+0x42>
 80082b0:	6811      	ldr	r1, [r2, #0]
 80082b2:	1850      	adds	r0, r2, r1
 80082b4:	42a0      	cmp	r0, r4
 80082b6:	d10b      	bne.n	80082d0 <_free_r+0x6c>
 80082b8:	6820      	ldr	r0, [r4, #0]
 80082ba:	4401      	add	r1, r0
 80082bc:	1850      	adds	r0, r2, r1
 80082be:	4283      	cmp	r3, r0
 80082c0:	6011      	str	r1, [r2, #0]
 80082c2:	d1e0      	bne.n	8008286 <_free_r+0x22>
 80082c4:	6818      	ldr	r0, [r3, #0]
 80082c6:	685b      	ldr	r3, [r3, #4]
 80082c8:	6053      	str	r3, [r2, #4]
 80082ca:	4408      	add	r0, r1
 80082cc:	6010      	str	r0, [r2, #0]
 80082ce:	e7da      	b.n	8008286 <_free_r+0x22>
 80082d0:	d902      	bls.n	80082d8 <_free_r+0x74>
 80082d2:	230c      	movs	r3, #12
 80082d4:	602b      	str	r3, [r5, #0]
 80082d6:	e7d6      	b.n	8008286 <_free_r+0x22>
 80082d8:	6820      	ldr	r0, [r4, #0]
 80082da:	1821      	adds	r1, r4, r0
 80082dc:	428b      	cmp	r3, r1
 80082de:	bf04      	itt	eq
 80082e0:	6819      	ldreq	r1, [r3, #0]
 80082e2:	685b      	ldreq	r3, [r3, #4]
 80082e4:	6063      	str	r3, [r4, #4]
 80082e6:	bf04      	itt	eq
 80082e8:	1809      	addeq	r1, r1, r0
 80082ea:	6021      	streq	r1, [r4, #0]
 80082ec:	6054      	str	r4, [r2, #4]
 80082ee:	e7ca      	b.n	8008286 <_free_r+0x22>
 80082f0:	bd38      	pop	{r3, r4, r5, pc}
 80082f2:	bf00      	nop
 80082f4:	200004c8 	.word	0x200004c8

080082f8 <__ascii_mbtowc>:
 80082f8:	b082      	sub	sp, #8
 80082fa:	b901      	cbnz	r1, 80082fe <__ascii_mbtowc+0x6>
 80082fc:	a901      	add	r1, sp, #4
 80082fe:	b142      	cbz	r2, 8008312 <__ascii_mbtowc+0x1a>
 8008300:	b14b      	cbz	r3, 8008316 <__ascii_mbtowc+0x1e>
 8008302:	7813      	ldrb	r3, [r2, #0]
 8008304:	600b      	str	r3, [r1, #0]
 8008306:	7812      	ldrb	r2, [r2, #0]
 8008308:	1e10      	subs	r0, r2, #0
 800830a:	bf18      	it	ne
 800830c:	2001      	movne	r0, #1
 800830e:	b002      	add	sp, #8
 8008310:	4770      	bx	lr
 8008312:	4610      	mov	r0, r2
 8008314:	e7fb      	b.n	800830e <__ascii_mbtowc+0x16>
 8008316:	f06f 0001 	mvn.w	r0, #1
 800831a:	e7f8      	b.n	800830e <__ascii_mbtowc+0x16>

0800831c <_malloc_usable_size_r>:
 800831c:	f851 3c04 	ldr.w	r3, [r1, #-4]
 8008320:	1f18      	subs	r0, r3, #4
 8008322:	2b00      	cmp	r3, #0
 8008324:	bfbc      	itt	lt
 8008326:	580b      	ldrlt	r3, [r1, r0]
 8008328:	18c0      	addlt	r0, r0, r3
 800832a:	4770      	bx	lr

0800832c <fiprintf>:
 800832c:	b40e      	push	{r1, r2, r3}
 800832e:	b503      	push	{r0, r1, lr}
 8008330:	4601      	mov	r1, r0
 8008332:	ab03      	add	r3, sp, #12
 8008334:	4805      	ldr	r0, [pc, #20]	@ (800834c <fiprintf+0x20>)
 8008336:	f853 2b04 	ldr.w	r2, [r3], #4
 800833a:	6800      	ldr	r0, [r0, #0]
 800833c:	9301      	str	r3, [sp, #4]
 800833e:	f000 f845 	bl	80083cc <_vfiprintf_r>
 8008342:	b002      	add	sp, #8
 8008344:	f85d eb04 	ldr.w	lr, [sp], #4
 8008348:	b003      	add	sp, #12
 800834a:	4770      	bx	lr
 800834c:	20000018 	.word	0x20000018

08008350 <__ascii_wctomb>:
 8008350:	4603      	mov	r3, r0
 8008352:	4608      	mov	r0, r1
 8008354:	b141      	cbz	r1, 8008368 <__ascii_wctomb+0x18>
 8008356:	2aff      	cmp	r2, #255	@ 0xff
 8008358:	d904      	bls.n	8008364 <__ascii_wctomb+0x14>
 800835a:	228a      	movs	r2, #138	@ 0x8a
 800835c:	601a      	str	r2, [r3, #0]
 800835e:	f04f 30ff 	mov.w	r0, #4294967295	@ 0xffffffff
 8008362:	4770      	bx	lr
 8008364:	700a      	strb	r2, [r1, #0]
 8008366:	2001      	movs	r0, #1
 8008368:	4770      	bx	lr

0800836a <abort>:
 800836a:	b508      	push	{r3, lr}
 800836c:	2006      	movs	r0, #6
 800836e:	f000 fa85 	bl	800887c <raise>
 8008372:	2001      	movs	r0, #1
 8008374:	f7fa f94c 	bl	8002610 <_exit>

08008378 <__sfputc_r>:
 8008378:	6893      	ldr	r3, [r2, #8]
 800837a:	3b01      	subs	r3, #1
 800837c:	2b00      	cmp	r3, #0
 800837e:	b410      	push	{r4}
 8008380:	6093      	str	r3, [r2, #8]
 8008382:	da08      	bge.n	8008396 <__sfputc_r+0x1e>
 8008384:	6994      	ldr	r4, [r2, #24]
 8008386:	42a3      	cmp	r3, r4
 8008388:	db01      	blt.n	800838e <__sfputc_r+0x16>
 800838a:	290a      	cmp	r1, #10
 800838c:	d103      	bne.n	8008396 <__sfputc_r+0x1e>
 800838e:	f85d 4b04 	ldr.w	r4, [sp], #4
 8008392:	f000 b933 	b.w	80085fc <__swbuf_r>
 8008396:	6813      	ldr	r3, [r2, #0]
 8008398:	1c58      	adds	r0, r3, #1
 800839a:	6010      	str	r0, [r2, #0]
 800839c:	7019      	strb	r1, [r3, #0]
 800839e:	4608      	mov	r0, r1
 80083a0:	f85d 4b04 	ldr.w	r4, [sp], #4
 80083a4:	4770      	bx	lr

080083a6 <__sfputs_r>:
 80083a6:	b5f8      	push	{r3, r4, r5, r6, r7, lr}
 80083a8:	4606      	mov	r6, r0
 80083aa:	460f      	mov	r7, r1
 80083ac:	4614      	mov	r4, r2
 80083ae:	18d5      	adds	r5, r2, r3
 80083b0:	42ac      	cmp	r4, r5
 80083b2:	d101      	bne.n	80083b8 <__sfputs_r+0x12>
 80083b4:	2000      	movs	r0, #0
 80083b6:	e007      	b.n	80083c8 <__sfputs_r+0x22>
 80083b8:	f814 1b01 	ldrb.w	r1, [r4], #1
 80083bc:	463a      	mov	r2, r7
 80083be:	4630      	mov	r0, r6
 80083c0:	f7ff ffda 	bl	8008378 <__sfputc_r>
 80083c4:	1c43      	adds	r3, r0, #1
 80083c6:	d1f3      	bne.n	80083b0 <__sfputs_r+0xa>
 80083c8:	bdf8      	pop	{r3, r4, r5, r6, r7, pc}
	...

080083cc <_vfiprintf_r>:
 80083cc:	e92d 4ff0 	stmdb	sp!, {r4, r5, r6, r7, r8, r9, sl, fp, lr}
 80083d0:	460d      	mov	r5, r1
 80083d2:	b09d      	sub	sp, #116	@ 0x74
 80083d4:	4614      	mov	r4, r2
 80083d6:	4698      	mov	r8, r3
 80083d8:	4606      	mov	r6, r0
 80083da:	b118      	cbz	r0, 80083e4 <_vfiprintf_r+0x18>
 80083dc:	6a03      	ldr	r3, [r0, #32]
 80083de:	b90b      	cbnz	r3, 80083e4 <_vfiprintf_r+0x18>
 80083e0:	f7fe f924 	bl	800662c <__sinit>
 80083e4:	6e6b      	ldr	r3, [r5, #100]	@ 0x64
 80083e6:	07d9      	lsls	r1, r3, #31
 80083e8:	d405      	bmi.n	80083f6 <_vfiprintf_r+0x2a>
 80083ea:	89ab      	ldrh	r3, [r5, #12]
 80083ec:	059a      	lsls	r2, r3, #22
 80083ee:	d402      	bmi.n	80083f6 <_vfiprintf_r+0x2a>
 80083f0:	6da8      	ldr	r0, [r5, #88]	@ 0x58
 80083f2:	f7fe f988 	bl	8006706 <__retarget_lock_acquire_recursive>
 80083f6:	89ab      	ldrh	r3, [r5, #12]
 80083f8:	071b      	lsls	r3, r3, #28
 80083fa:	d501      	bpl.n	8008400 <_vfiprintf_r+0x34>
 80083fc:	692b      	ldr	r3, [r5, #16]
 80083fe:	b99b      	cbnz	r3, 8008428 <_vfiprintf_r+0x5c>
 8008400:	4629      	mov	r1, r5
 8008402:	4630      	mov	r0, r6
 8008404:	f000 f938 	bl	8008678 <__swsetup_r>
 8008408:	b170      	cbz	r0, 8008428 <_vfiprintf_r+0x5c>
 800840a:	6e6b      	ldr	r3, [r5, #100]	@ 0x64
 800840c:	07dc      	lsls	r4, r3, #31
 800840e:	d504      	bpl.n	800841a <_vfiprintf_r+0x4e>
 8008410:	f04f 30ff 	mov.w	r0, #4294967295	@ 0xffffffff
 8008414:	b01d      	add	sp, #116	@ 0x74
 8008416:	e8bd 8ff0 	ldmia.w	sp!, {r4, r5, r6, r7, r8, r9, sl, fp, pc}
 800841a:	89ab      	ldrh	r3, [r5, #12]
 800841c:	0598      	lsls	r0, r3, #22
 800841e:	d4f7      	bmi.n	8008410 <_vfiprintf_r+0x44>
 8008420:	6da8      	ldr	r0, [r5, #88]	@ 0x58
 8008422:	f7fe f971 	bl	8006708 <__retarget_lock_release_recursive>
 8008426:	e7f3      	b.n	8008410 <_vfiprintf_r+0x44>
 8008428:	2300      	movs	r3, #0
 800842a:	9309      	str	r3, [sp, #36]	@ 0x24
 800842c:	2320      	movs	r3, #32
 800842e:	f88d 3029 	strb.w	r3, [sp, #41]	@ 0x29
 8008432:	f8cd 800c 	str.w	r8, [sp, #12]
 8008436:	2330      	movs	r3, #48	@ 0x30
 8008438:	f8df 81ac 	ldr.w	r8, [pc, #428]	@ 80085e8 <_vfiprintf_r+0x21c>
 800843c:	f88d 302a 	strb.w	r3, [sp, #42]	@ 0x2a
 8008440:	f04f 0901 	mov.w	r9, #1
 8008444:	4623      	mov	r3, r4
 8008446:	469a      	mov	sl, r3
 8008448:	f813 2b01 	ldrb.w	r2, [r3], #1
 800844c:	b10a      	cbz	r2, 8008452 <_vfiprintf_r+0x86>
 800844e:	2a25      	cmp	r2, #37	@ 0x25
 8008450:	d1f9      	bne.n	8008446 <_vfiprintf_r+0x7a>
 8008452:	ebba 0b04 	subs.w	fp, sl, r4
 8008456:	d00b      	beq.n	8008470 <_vfiprintf_r+0xa4>
 8008458:	465b      	mov	r3, fp
 800845a:	4622      	mov	r2, r4
 800845c:	4629      	mov	r1, r5
 800845e:	4630      	mov	r0, r6
 8008460:	f7ff ffa1 	bl	80083a6 <__sfputs_r>
 8008464:	3001      	adds	r0, #1
 8008466:	f000 80a7 	beq.w	80085b8 <_vfiprintf_r+0x1ec>
 800846a:	9a09      	ldr	r2, [sp, #36]	@ 0x24
 800846c:	445a      	add	r2, fp
 800846e:	9209      	str	r2, [sp, #36]	@ 0x24
 8008470:	f89a 3000 	ldrb.w	r3, [sl]
 8008474:	2b00      	cmp	r3, #0
 8008476:	f000 809f 	beq.w	80085b8 <_vfiprintf_r+0x1ec>
 800847a:	2300      	movs	r3, #0
 800847c:	f04f 32ff 	mov.w	r2, #4294967295	@ 0xffffffff
 8008480:	e9cd 2305 	strd	r2, r3, [sp, #20]
 8008484:	f10a 0a01 	add.w	sl, sl, #1
 8008488:	9304      	str	r3, [sp, #16]
 800848a:	9307      	str	r3, [sp, #28]
 800848c:	f88d 3053 	strb.w	r3, [sp, #83]	@ 0x53
 8008490:	931a      	str	r3, [sp, #104]	@ 0x68
 8008492:	4654      	mov	r4, sl
 8008494:	2205      	movs	r2, #5
 8008496:	f814 1b01 	ldrb.w	r1, [r4], #1
 800849a:	4853      	ldr	r0, [pc, #332]	@ (80085e8 <_vfiprintf_r+0x21c>)
 800849c:	f7f7 feb8 	bl	8000210 <memchr>
 80084a0:	9a04      	ldr	r2, [sp, #16]
 80084a2:	b9d8      	cbnz	r0, 80084dc <_vfiprintf_r+0x110>
 80084a4:	06d1      	lsls	r1, r2, #27
 80084a6:	bf44      	itt	mi
 80084a8:	2320      	movmi	r3, #32
 80084aa:	f88d 3053 	strbmi.w	r3, [sp, #83]	@ 0x53
 80084ae:	0713      	lsls	r3, r2, #28
 80084b0:	bf44      	itt	mi
 80084b2:	232b      	movmi	r3, #43	@ 0x2b
 80084b4:	f88d 3053 	strbmi.w	r3, [sp, #83]	@ 0x53
 80084b8:	f89a 3000 	ldrb.w	r3, [sl]
 80084bc:	2b2a      	cmp	r3, #42	@ 0x2a
 80084be:	d015      	beq.n	80084ec <_vfiprintf_r+0x120>
 80084c0:	9a07      	ldr	r2, [sp, #28]
 80084c2:	4654      	mov	r4, sl
 80084c4:	2000      	movs	r0, #0
 80084c6:	f04f 0c0a 	mov.w	ip, #10
 80084ca:	4621      	mov	r1, r4
 80084cc:	f811 3b01 	ldrb.w	r3, [r1], #1
 80084d0:	3b30      	subs	r3, #48	@ 0x30
 80084d2:	2b09      	cmp	r3, #9
 80084d4:	d94b      	bls.n	800856e <_vfiprintf_r+0x1a2>
 80084d6:	b1b0      	cbz	r0, 8008506 <_vfiprintf_r+0x13a>
 80084d8:	9207      	str	r2, [sp, #28]
 80084da:	e014      	b.n	8008506 <_vfiprintf_r+0x13a>
 80084dc:	eba0 0308 	sub.w	r3, r0, r8
 80084e0:	fa09 f303 	lsl.w	r3, r9, r3
 80084e4:	4313      	orrs	r3, r2
 80084e6:	9304      	str	r3, [sp, #16]
 80084e8:	46a2      	mov	sl, r4
 80084ea:	e7d2      	b.n	8008492 <_vfiprintf_r+0xc6>
 80084ec:	9b03      	ldr	r3, [sp, #12]
 80084ee:	1d19      	adds	r1, r3, #4
 80084f0:	681b      	ldr	r3, [r3, #0]
 80084f2:	9103      	str	r1, [sp, #12]
 80084f4:	2b00      	cmp	r3, #0
 80084f6:	bfbb      	ittet	lt
 80084f8:	425b      	neglt	r3, r3
 80084fa:	f042 0202 	orrlt.w	r2, r2, #2
 80084fe:	9307      	strge	r3, [sp, #28]
 8008500:	9307      	strlt	r3, [sp, #28]
 8008502:	bfb8      	it	lt
 8008504:	9204      	strlt	r2, [sp, #16]
 8008506:	7823      	ldrb	r3, [r4, #0]
 8008508:	2b2e      	cmp	r3, #46	@ 0x2e
 800850a:	d10a      	bne.n	8008522 <_vfiprintf_r+0x156>
 800850c:	7863      	ldrb	r3, [r4, #1]
 800850e:	2b2a      	cmp	r3, #42	@ 0x2a
 8008510:	d132      	bne.n	8008578 <_vfiprintf_r+0x1ac>
 8008512:	9b03      	ldr	r3, [sp, #12]
 8008514:	1d1a      	adds	r2, r3, #4
 8008516:	681b      	ldr	r3, [r3, #0]
 8008518:	9203      	str	r2, [sp, #12]
 800851a:	ea43 73e3 	orr.w	r3, r3, r3, asr #31
 800851e:	3402      	adds	r4, #2
 8008520:	9305      	str	r3, [sp, #20]
 8008522:	f8df a0d4 	ldr.w	sl, [pc, #212]	@ 80085f8 <_vfiprintf_r+0x22c>
 8008526:	7821      	ldrb	r1, [r4, #0]
 8008528:	2203      	movs	r2, #3
 800852a:	4650      	mov	r0, sl
 800852c:	f7f7 fe70 	bl	8000210 <memchr>
 8008530:	b138      	cbz	r0, 8008542 <_vfiprintf_r+0x176>
 8008532:	9b04      	ldr	r3, [sp, #16]
 8008534:	eba0 000a 	sub.w	r0, r0, sl
 8008538:	2240      	movs	r2, #64	@ 0x40
 800853a:	4082      	lsls	r2, r0
 800853c:	4313      	orrs	r3, r2
 800853e:	3401      	adds	r4, #1
 8008540:	9304      	str	r3, [sp, #16]
 8008542:	f814 1b01 	ldrb.w	r1, [r4], #1
 8008546:	4829      	ldr	r0, [pc, #164]	@ (80085ec <_vfiprintf_r+0x220>)
 8008548:	f88d 1028 	strb.w	r1, [sp, #40]	@ 0x28
 800854c:	2206      	movs	r2, #6
 800854e:	f7f7 fe5f 	bl	8000210 <memchr>
 8008552:	2800      	cmp	r0, #0
 8008554:	d03f      	beq.n	80085d6 <_vfiprintf_r+0x20a>
 8008556:	4b26      	ldr	r3, [pc, #152]	@ (80085f0 <_vfiprintf_r+0x224>)
 8008558:	bb1b      	cbnz	r3, 80085a2 <_vfiprintf_r+0x1d6>
 800855a:	9b03      	ldr	r3, [sp, #12]
 800855c:	3307      	adds	r3, #7
 800855e:	f023 0307 	bic.w	r3, r3, #7
 8008562:	3308      	adds	r3, #8
 8008564:	9303      	str	r3, [sp, #12]
 8008566:	9b09      	ldr	r3, [sp, #36]	@ 0x24
 8008568:	443b      	add	r3, r7
 800856a:	9309      	str	r3, [sp, #36]	@ 0x24
 800856c:	e76a      	b.n	8008444 <_vfiprintf_r+0x78>
 800856e:	fb0c 3202 	mla	r2, ip, r2, r3
 8008572:	460c      	mov	r4, r1
 8008574:	2001      	movs	r0, #1
 8008576:	e7a8      	b.n	80084ca <_vfiprintf_r+0xfe>
 8008578:	2300      	movs	r3, #0
 800857a:	3401      	adds	r4, #1
 800857c:	9305      	str	r3, [sp, #20]
 800857e:	4619      	mov	r1, r3
 8008580:	f04f 0c0a 	mov.w	ip, #10
 8008584:	4620      	mov	r0, r4
 8008586:	f810 2b01 	ldrb.w	r2, [r0], #1
 800858a:	3a30      	subs	r2, #48	@ 0x30
 800858c:	2a09      	cmp	r2, #9
 800858e:	d903      	bls.n	8008598 <_vfiprintf_r+0x1cc>
 8008590:	2b00      	cmp	r3, #0
 8008592:	d0c6      	beq.n	8008522 <_vfiprintf_r+0x156>
 8008594:	9105      	str	r1, [sp, #20]
 8008596:	e7c4      	b.n	8008522 <_vfiprintf_r+0x156>
 8008598:	fb0c 2101 	mla	r1, ip, r1, r2
 800859c:	4604      	mov	r4, r0
 800859e:	2301      	movs	r3, #1
 80085a0:	e7f0      	b.n	8008584 <_vfiprintf_r+0x1b8>
 80085a2:	ab03      	add	r3, sp, #12
 80085a4:	9300      	str	r3, [sp, #0]
 80085a6:	462a      	mov	r2, r5
 80085a8:	4b12      	ldr	r3, [pc, #72]	@ (80085f4 <_vfiprintf_r+0x228>)
 80085aa:	a904      	add	r1, sp, #16
 80085ac:	4630      	mov	r0, r6
 80085ae:	f7fd fbd9 	bl	8005d64 <_printf_float>
 80085b2:	4607      	mov	r7, r0
 80085b4:	1c78      	adds	r0, r7, #1
 80085b6:	d1d6      	bne.n	8008566 <_vfiprintf_r+0x19a>
 80085b8:	6e6b      	ldr	r3, [r5, #100]	@ 0x64
 80085ba:	07d9      	lsls	r1, r3, #31
 80085bc:	d405      	bmi.n	80085ca <_vfiprintf_r+0x1fe>
 80085be:	89ab      	ldrh	r3, [r5, #12]
 80085c0:	059a      	lsls	r2, r3, #22
 80085c2:	d402      	bmi.n	80085ca <_vfiprintf_r+0x1fe>
 80085c4:	6da8      	ldr	r0, [r5, #88]	@ 0x58
 80085c6:	f7fe f89f 	bl	8006708 <__retarget_lock_release_recursive>
 80085ca:	89ab      	ldrh	r3, [r5, #12]
 80085cc:	065b      	lsls	r3, r3, #25
 80085ce:	f53f af1f 	bmi.w	8008410 <_vfiprintf_r+0x44>
 80085d2:	9809      	ldr	r0, [sp, #36]	@ 0x24
 80085d4:	e71e      	b.n	8008414 <_vfiprintf_r+0x48>
 80085d6:	ab03      	add	r3, sp, #12
 80085d8:	9300      	str	r3, [sp, #0]
 80085da:	462a      	mov	r2, r5
 80085dc:	4b05      	ldr	r3, [pc, #20]	@ (80085f4 <_vfiprintf_r+0x228>)
 80085de:	a904      	add	r1, sp, #16
 80085e0:	4630      	mov	r0, r6
 80085e2:	f7fd fe57 	bl	8006294 <_printf_i>
 80085e6:	e7e4      	b.n	80085b2 <_vfiprintf_r+0x1e6>
 80085e8:	080099c9 	.word	0x080099c9
 80085ec:	080099d3 	.word	0x080099d3
 80085f0:	08005d65 	.word	0x08005d65
 80085f4:	080083a7 	.word	0x080083a7
 80085f8:	080099cf 	.word	0x080099cf

080085fc <__swbuf_r>:
 80085fc:	b5f8      	push	{r3, r4, r5, r6, r7, lr}
 80085fe:	460e      	mov	r6, r1
 8008600:	4614      	mov	r4, r2
 8008602:	4605      	mov	r5, r0
 8008604:	b118      	cbz	r0, 800860e <__swbuf_r+0x12>
 8008606:	6a03      	ldr	r3, [r0, #32]
 8008608:	b90b      	cbnz	r3, 800860e <__swbuf_r+0x12>
 800860a:	f7fe f80f 	bl	800662c <__sinit>
 800860e:	69a3      	ldr	r3, [r4, #24]
 8008610:	60a3      	str	r3, [r4, #8]
 8008612:	89a3      	ldrh	r3, [r4, #12]
 8008614:	071a      	lsls	r2, r3, #28
 8008616:	d501      	bpl.n	800861c <__swbuf_r+0x20>
 8008618:	6923      	ldr	r3, [r4, #16]
 800861a:	b943      	cbnz	r3, 800862e <__swbuf_r+0x32>
 800861c:	4621      	mov	r1, r4
 800861e:	4628      	mov	r0, r5
 8008620:	f000 f82a 	bl	8008678 <__swsetup_r>
 8008624:	b118      	cbz	r0, 800862e <__swbuf_r+0x32>
 8008626:	f04f 37ff 	mov.w	r7, #4294967295	@ 0xffffffff
 800862a:	4638      	mov	r0, r7
 800862c:	bdf8      	pop	{r3, r4, r5, r6, r7, pc}
 800862e:	6823      	ldr	r3, [r4, #0]
 8008630:	6922      	ldr	r2, [r4, #16]
 8008632:	1a98      	subs	r0, r3, r2
 8008634:	6963      	ldr	r3, [r4, #20]
 8008636:	b2f6      	uxtb	r6, r6
 8008638:	4283      	cmp	r3, r0
 800863a:	4637      	mov	r7, r6
 800863c:	dc05      	bgt.n	800864a <__swbuf_r+0x4e>
 800863e:	4621      	mov	r1, r4
 8008640:	4628      	mov	r0, r5
 8008642:	f7ff f937 	bl	80078b4 <_fflush_r>
 8008646:	2800      	cmp	r0, #0
 8008648:	d1ed      	bne.n	8008626 <__swbuf_r+0x2a>
 800864a:	68a3      	ldr	r3, [r4, #8]
 800864c:	3b01      	subs	r3, #1
 800864e:	60a3      	str	r3, [r4, #8]
 8008650:	6823      	ldr	r3, [r4, #0]
 8008652:	1c5a      	adds	r2, r3, #1
 8008654:	6022      	str	r2, [r4, #0]
 8008656:	701e      	strb	r6, [r3, #0]
 8008658:	6962      	ldr	r2, [r4, #20]
 800865a:	1c43      	adds	r3, r0, #1
 800865c:	429a      	cmp	r2, r3
 800865e:	d004      	beq.n	800866a <__swbuf_r+0x6e>
 8008660:	89a3      	ldrh	r3, [r4, #12]
 8008662:	07db      	lsls	r3, r3, #31
 8008664:	d5e1      	bpl.n	800862a <__swbuf_r+0x2e>
 8008666:	2e0a      	cmp	r6, #10
 8008668:	d1df      	bne.n	800862a <__swbuf_r+0x2e>
 800866a:	4621      	mov	r1, r4
 800866c:	4628      	mov	r0, r5
 800866e:	f7ff f921 	bl	80078b4 <_fflush_r>
 8008672:	2800      	cmp	r0, #0
 8008674:	d0d9      	beq.n	800862a <__swbuf_r+0x2e>
 8008676:	e7d6      	b.n	8008626 <__swbuf_r+0x2a>

08008678 <__swsetup_r>:
 8008678:	b538      	push	{r3, r4, r5, lr}
 800867a:	4b29      	ldr	r3, [pc, #164]	@ (8008720 <__swsetup_r+0xa8>)
 800867c:	4605      	mov	r5, r0
 800867e:	6818      	ldr	r0, [r3, #0]
 8008680:	460c      	mov	r4, r1
 8008682:	b118      	cbz	r0, 800868c <__swsetup_r+0x14>
 8008684:	6a03      	ldr	r3, [r0, #32]
 8008686:	b90b      	cbnz	r3, 800868c <__swsetup_r+0x14>
 8008688:	f7fd ffd0 	bl	800662c <__sinit>
 800868c:	f9b4 300c 	ldrsh.w	r3, [r4, #12]
 8008690:	0719      	lsls	r1, r3, #28
 8008692:	d422      	bmi.n	80086da <__swsetup_r+0x62>
 8008694:	06da      	lsls	r2, r3, #27
 8008696:	d407      	bmi.n	80086a8 <__swsetup_r+0x30>
 8008698:	2209      	movs	r2, #9
 800869a:	602a      	str	r2, [r5, #0]
 800869c:	f043 0340 	orr.w	r3, r3, #64	@ 0x40
 80086a0:	81a3      	strh	r3, [r4, #12]
 80086a2:	f04f 30ff 	mov.w	r0, #4294967295	@ 0xffffffff
 80086a6:	e033      	b.n	8008710 <__swsetup_r+0x98>
 80086a8:	0758      	lsls	r0, r3, #29
 80086aa:	d512      	bpl.n	80086d2 <__swsetup_r+0x5a>
 80086ac:	6b61      	ldr	r1, [r4, #52]	@ 0x34
 80086ae:	b141      	cbz	r1, 80086c2 <__swsetup_r+0x4a>
 80086b0:	f104 0344 	add.w	r3, r4, #68	@ 0x44
 80086b4:	4299      	cmp	r1, r3
 80086b6:	d002      	beq.n	80086be <__swsetup_r+0x46>
 80086b8:	4628      	mov	r0, r5
 80086ba:	f7ff fdd3 	bl	8008264 <_free_r>
 80086be:	2300      	movs	r3, #0
 80086c0:	6363      	str	r3, [r4, #52]	@ 0x34
 80086c2:	89a3      	ldrh	r3, [r4, #12]
 80086c4:	f023 0324 	bic.w	r3, r3, #36	@ 0x24
 80086c8:	81a3      	strh	r3, [r4, #12]
 80086ca:	2300      	movs	r3, #0
 80086cc:	6063      	str	r3, [r4, #4]
 80086ce:	6923      	ldr	r3, [r4, #16]
 80086d0:	6023      	str	r3, [r4, #0]
 80086d2:	89a3      	ldrh	r3, [r4, #12]
 80086d4:	f043 0308 	orr.w	r3, r3, #8
 80086d8:	81a3      	strh	r3, [r4, #12]
 80086da:	6923      	ldr	r3, [r4, #16]
 80086dc:	b94b      	cbnz	r3, 80086f2 <__swsetup_r+0x7a>
 80086de:	89a3      	ldrh	r3, [r4, #12]
 80086e0:	f403 7320 	and.w	r3, r3, #640	@ 0x280
 80086e4:	f5b3 7f00 	cmp.w	r3, #512	@ 0x200
 80086e8:	d003      	beq.n	80086f2 <__swsetup_r+0x7a>
 80086ea:	4621      	mov	r1, r4
 80086ec:	4628      	mov	r0, r5
 80086ee:	f000 f83f 	bl	8008770 <__smakebuf_r>
 80086f2:	f9b4 300c 	ldrsh.w	r3, [r4, #12]
 80086f6:	f013 0201 	ands.w	r2, r3, #1
 80086fa:	d00a      	beq.n	8008712 <__swsetup_r+0x9a>
 80086fc:	2200      	movs	r2, #0
 80086fe:	60a2      	str	r2, [r4, #8]
 8008700:	6962      	ldr	r2, [r4, #20]
 8008702:	4252      	negs	r2, r2
 8008704:	61a2      	str	r2, [r4, #24]
 8008706:	6922      	ldr	r2, [r4, #16]
 8008708:	b942      	cbnz	r2, 800871c <__swsetup_r+0xa4>
 800870a:	f013 0080 	ands.w	r0, r3, #128	@ 0x80
 800870e:	d1c5      	bne.n	800869c <__swsetup_r+0x24>
 8008710:	bd38      	pop	{r3, r4, r5, pc}
 8008712:	0799      	lsls	r1, r3, #30
 8008714:	bf58      	it	pl
 8008716:	6962      	ldrpl	r2, [r4, #20]
 8008718:	60a2      	str	r2, [r4, #8]
 800871a:	e7f4      	b.n	8008706 <__swsetup_r+0x8e>
 800871c:	2000      	movs	r0, #0
 800871e:	e7f7      	b.n	8008710 <__swsetup_r+0x98>
 8008720:	20000018 	.word	0x20000018

08008724 <__swhatbuf_r>:
 8008724:	b570      	push	{r4, r5, r6, lr}
 8008726:	460c      	mov	r4, r1
 8008728:	f9b1 100e 	ldrsh.w	r1, [r1, #14]
 800872c:	2900      	cmp	r1, #0
 800872e:	b096      	sub	sp, #88	@ 0x58
 8008730:	4615      	mov	r5, r2
 8008732:	461e      	mov	r6, r3
 8008734:	da0d      	bge.n	8008752 <__swhatbuf_r+0x2e>
 8008736:	89a3      	ldrh	r3, [r4, #12]
 8008738:	f013 0f80 	tst.w	r3, #128	@ 0x80
 800873c:	f04f 0100 	mov.w	r1, #0
 8008740:	bf14      	ite	ne
 8008742:	2340      	movne	r3, #64	@ 0x40
 8008744:	f44f 6380 	moveq.w	r3, #1024	@ 0x400
 8008748:	2000      	movs	r0, #0
 800874a:	6031      	str	r1, [r6, #0]
 800874c:	602b      	str	r3, [r5, #0]
 800874e:	b016      	add	sp, #88	@ 0x58
 8008750:	bd70      	pop	{r4, r5, r6, pc}
 8008752:	466a      	mov	r2, sp
 8008754:	f000 f848 	bl	80087e8 <_fstat_r>
 8008758:	2800      	cmp	r0, #0
 800875a:	dbec      	blt.n	8008736 <__swhatbuf_r+0x12>
 800875c:	9901      	ldr	r1, [sp, #4]
 800875e:	f401 4170 	and.w	r1, r1, #61440	@ 0xf000
 8008762:	f5a1 5300 	sub.w	r3, r1, #8192	@ 0x2000
 8008766:	4259      	negs	r1, r3
 8008768:	4159      	adcs	r1, r3
 800876a:	f44f 6380 	mov.w	r3, #1024	@ 0x400
 800876e:	e7eb      	b.n	8008748 <__swhatbuf_r+0x24>

08008770 <__smakebuf_r>:
 8008770:	898b      	ldrh	r3, [r1, #12]
 8008772:	b5f7      	push	{r0, r1, r2, r4, r5, r6, r7, lr}
 8008774:	079d      	lsls	r5, r3, #30
 8008776:	4606      	mov	r6, r0
 8008778:	460c      	mov	r4, r1
 800877a:	d507      	bpl.n	800878c <__smakebuf_r+0x1c>
 800877c:	f104 0347 	add.w	r3, r4, #71	@ 0x47
 8008780:	6023      	str	r3, [r4, #0]
 8008782:	6123      	str	r3, [r4, #16]
 8008784:	2301      	movs	r3, #1
 8008786:	6163      	str	r3, [r4, #20]
 8008788:	b003      	add	sp, #12
 800878a:	bdf0      	pop	{r4, r5, r6, r7, pc}
 800878c:	ab01      	add	r3, sp, #4
 800878e:	466a      	mov	r2, sp
 8008790:	f7ff ffc8 	bl	8008724 <__swhatbuf_r>
 8008794:	9f00      	ldr	r7, [sp, #0]
 8008796:	4605      	mov	r5, r0
 8008798:	4639      	mov	r1, r7
 800879a:	4630      	mov	r0, r6
 800879c:	f7fe ff86 	bl	80076ac <_malloc_r>
 80087a0:	b948      	cbnz	r0, 80087b6 <__smakebuf_r+0x46>
 80087a2:	f9b4 300c 	ldrsh.w	r3, [r4, #12]
 80087a6:	059a      	lsls	r2, r3, #22
 80087a8:	d4ee      	bmi.n	8008788 <__smakebuf_r+0x18>
 80087aa:	f023 0303 	bic.w	r3, r3, #3
 80087ae:	f043 0302 	orr.w	r3, r3, #2
 80087b2:	81a3      	strh	r3, [r4, #12]
 80087b4:	e7e2      	b.n	800877c <__smakebuf_r+0xc>
 80087b6:	89a3      	ldrh	r3, [r4, #12]
 80087b8:	6020      	str	r0, [r4, #0]
 80087ba:	f043 0380 	orr.w	r3, r3, #128	@ 0x80
 80087be:	81a3      	strh	r3, [r4, #12]
 80087c0:	9b01      	ldr	r3, [sp, #4]
 80087c2:	e9c4 0704 	strd	r0, r7, [r4, #16]
 80087c6:	b15b      	cbz	r3, 80087e0 <__smakebuf_r+0x70>
 80087c8:	f9b4 100e 	ldrsh.w	r1, [r4, #14]
 80087cc:	4630      	mov	r0, r6
 80087ce:	f000 f81d 	bl	800880c <_isatty_r>
 80087d2:	b128      	cbz	r0, 80087e0 <__smakebuf_r+0x70>
 80087d4:	89a3      	ldrh	r3, [r4, #12]
 80087d6:	f023 0303 	bic.w	r3, r3, #3
 80087da:	f043 0301 	orr.w	r3, r3, #1
 80087de:	81a3      	strh	r3, [r4, #12]
 80087e0:	89a3      	ldrh	r3, [r4, #12]
 80087e2:	431d      	orrs	r5, r3
 80087e4:	81a5      	strh	r5, [r4, #12]
 80087e6:	e7cf      	b.n	8008788 <__smakebuf_r+0x18>

080087e8 <_fstat_r>:
 80087e8:	b538      	push	{r3, r4, r5, lr}
 80087ea:	4d07      	ldr	r5, [pc, #28]	@ (8008808 <_fstat_r+0x20>)
 80087ec:	2300      	movs	r3, #0
 80087ee:	4604      	mov	r4, r0
 80087f0:	4608      	mov	r0, r1
 80087f2:	4611      	mov	r1, r2
 80087f4:	602b      	str	r3, [r5, #0]
 80087f6:	f7f9 ff5b 	bl	80026b0 <_fstat>
 80087fa:	1c43      	adds	r3, r0, #1
 80087fc:	d102      	bne.n	8008804 <_fstat_r+0x1c>
 80087fe:	682b      	ldr	r3, [r5, #0]
 8008800:	b103      	cbz	r3, 8008804 <_fstat_r+0x1c>
 8008802:	6023      	str	r3, [r4, #0]
 8008804:	bd38      	pop	{r3, r4, r5, pc}
 8008806:	bf00      	nop
 8008808:	200004cc 	.word	0x200004cc

0800880c <_isatty_r>:
 800880c:	b538      	push	{r3, r4, r5, lr}
 800880e:	4d06      	ldr	r5, [pc, #24]	@ (8008828 <_isatty_r+0x1c>)
 8008810:	2300      	movs	r3, #0
 8008812:	4604      	mov	r4, r0
 8008814:	4608      	mov	r0, r1
 8008816:	602b      	str	r3, [r5, #0]
 8008818:	f7f9 ff5a 	bl	80026d0 <_isatty>
 800881c:	1c43      	adds	r3, r0, #1
 800881e:	d102      	bne.n	8008826 <_isatty_r+0x1a>
 8008820:	682b      	ldr	r3, [r5, #0]
 8008822:	b103      	cbz	r3, 8008826 <_isatty_r+0x1a>
 8008824:	6023      	str	r3, [r4, #0]
 8008826:	bd38      	pop	{r3, r4, r5, pc}
 8008828:	200004cc 	.word	0x200004cc

0800882c <_raise_r>:
 800882c:	291f      	cmp	r1, #31
 800882e:	b538      	push	{r3, r4, r5, lr}
 8008830:	4605      	mov	r5, r0
 8008832:	460c      	mov	r4, r1
 8008834:	d904      	bls.n	8008840 <_raise_r+0x14>
 8008836:	2316      	movs	r3, #22
 8008838:	6003      	str	r3, [r0, #0]
 800883a:	f04f 30ff 	mov.w	r0, #4294967295	@ 0xffffffff
 800883e:	bd38      	pop	{r3, r4, r5, pc}
 8008840:	6bc2      	ldr	r2, [r0, #60]	@ 0x3c
 8008842:	b112      	cbz	r2, 800884a <_raise_r+0x1e>
 8008844:	f852 3021 	ldr.w	r3, [r2, r1, lsl #2]
 8008848:	b94b      	cbnz	r3, 800885e <_raise_r+0x32>
 800884a:	4628      	mov	r0, r5
 800884c:	f000 f830 	bl	80088b0 <_getpid_r>
 8008850:	4622      	mov	r2, r4
 8008852:	4601      	mov	r1, r0
 8008854:	4628      	mov	r0, r5
 8008856:	e8bd 4038 	ldmia.w	sp!, {r3, r4, r5, lr}
 800885a:	f000 b817 	b.w	800888c <_kill_r>
 800885e:	2b01      	cmp	r3, #1
 8008860:	d00a      	beq.n	8008878 <_raise_r+0x4c>
 8008862:	1c59      	adds	r1, r3, #1
 8008864:	d103      	bne.n	800886e <_raise_r+0x42>
 8008866:	2316      	movs	r3, #22
 8008868:	6003      	str	r3, [r0, #0]
 800886a:	2001      	movs	r0, #1
 800886c:	e7e7      	b.n	800883e <_raise_r+0x12>
 800886e:	2100      	movs	r1, #0
 8008870:	f842 1024 	str.w	r1, [r2, r4, lsl #2]
 8008874:	4620      	mov	r0, r4
 8008876:	4798      	blx	r3
 8008878:	2000      	movs	r0, #0
 800887a:	e7e0      	b.n	800883e <_raise_r+0x12>

0800887c <raise>:
 800887c:	4b02      	ldr	r3, [pc, #8]	@ (8008888 <raise+0xc>)
 800887e:	4601      	mov	r1, r0
 8008880:	6818      	ldr	r0, [r3, #0]
 8008882:	f7ff bfd3 	b.w	800882c <_raise_r>
 8008886:	bf00      	nop
 8008888:	20000018 	.word	0x20000018

0800888c <_kill_r>:
 800888c:	b538      	push	{r3, r4, r5, lr}
 800888e:	4d07      	ldr	r5, [pc, #28]	@ (80088ac <_kill_r+0x20>)
 8008890:	2300      	movs	r3, #0
 8008892:	4604      	mov	r4, r0
 8008894:	4608      	mov	r0, r1
 8008896:	4611      	mov	r1, r2
 8008898:	602b      	str	r3, [r5, #0]
 800889a:	f7f9 fea9 	bl	80025f0 <_kill>
 800889e:	1c43      	adds	r3, r0, #1
 80088a0:	d102      	bne.n	80088a8 <_kill_r+0x1c>
 80088a2:	682b      	ldr	r3, [r5, #0]
 80088a4:	b103      	cbz	r3, 80088a8 <_kill_r+0x1c>
 80088a6:	6023      	str	r3, [r4, #0]
 80088a8:	bd38      	pop	{r3, r4, r5, pc}
 80088aa:	bf00      	nop
 80088ac:	200004cc 	.word	0x200004cc

080088b0 <_getpid_r>:
 80088b0:	f7f9 be96 	b.w	80025e0 <_getpid>

080088b4 <pow>:
 80088b4:	b5f8      	push	{r3, r4, r5, r6, r7, lr}
 80088b6:	ed2d 8b02 	vpush	{d8}
 80088ba:	eeb0 8a40 	vmov.f32	s16, s0
 80088be:	eef0 8a60 	vmov.f32	s17, s1
 80088c2:	ec55 4b11 	vmov	r4, r5, d1
 80088c6:	f000 f873 	bl	80089b0 <__ieee754_pow>
 80088ca:	4622      	mov	r2, r4
 80088cc:	462b      	mov	r3, r5
 80088ce:	4620      	mov	r0, r4
 80088d0:	4629      	mov	r1, r5
 80088d2:	ec57 6b10 	vmov	r6, r7, d0
 80088d6:	f7f8 f949 	bl	8000b6c <__aeabi_dcmpun>
 80088da:	2800      	cmp	r0, #0
 80088dc:	d13b      	bne.n	8008956 <pow+0xa2>
 80088de:	ec51 0b18 	vmov	r0, r1, d8
 80088e2:	2200      	movs	r2, #0
 80088e4:	2300      	movs	r3, #0
 80088e6:	f7f8 f90f 	bl	8000b08 <__aeabi_dcmpeq>
 80088ea:	b1b8      	cbz	r0, 800891c <pow+0x68>
 80088ec:	2200      	movs	r2, #0
 80088ee:	2300      	movs	r3, #0
 80088f0:	4620      	mov	r0, r4
 80088f2:	4629      	mov	r1, r5
 80088f4:	f7f8 f908 	bl	8000b08 <__aeabi_dcmpeq>
 80088f8:	2800      	cmp	r0, #0
 80088fa:	d146      	bne.n	800898a <pow+0xd6>
 80088fc:	ec45 4b10 	vmov	d0, r4, r5
 8008900:	f000 f848 	bl	8008994 <finite>
 8008904:	b338      	cbz	r0, 8008956 <pow+0xa2>
 8008906:	2200      	movs	r2, #0
 8008908:	2300      	movs	r3, #0
 800890a:	4620      	mov	r0, r4
 800890c:	4629      	mov	r1, r5
 800890e:	f7f8 f905 	bl	8000b1c <__aeabi_dcmplt>
 8008912:	b300      	cbz	r0, 8008956 <pow+0xa2>
 8008914:	f7fd fecc 	bl	80066b0 <__errno>
 8008918:	2322      	movs	r3, #34	@ 0x22
 800891a:	e01b      	b.n	8008954 <pow+0xa0>
 800891c:	ec47 6b10 	vmov	d0, r6, r7
 8008920:	f000 f838 	bl	8008994 <finite>
 8008924:	b9e0      	cbnz	r0, 8008960 <pow+0xac>
 8008926:	eeb0 0a48 	vmov.f32	s0, s16
 800892a:	eef0 0a68 	vmov.f32	s1, s17
 800892e:	f000 f831 	bl	8008994 <finite>
 8008932:	b1a8      	cbz	r0, 8008960 <pow+0xac>
 8008934:	ec45 4b10 	vmov	d0, r4, r5
 8008938:	f000 f82c 	bl	8008994 <finite>
 800893c:	b180      	cbz	r0, 8008960 <pow+0xac>
 800893e:	4632      	mov	r2, r6
 8008940:	463b      	mov	r3, r7
 8008942:	4630      	mov	r0, r6
 8008944:	4639      	mov	r1, r7
 8008946:	f7f8 f911 	bl	8000b6c <__aeabi_dcmpun>
 800894a:	2800      	cmp	r0, #0
 800894c:	d0e2      	beq.n	8008914 <pow+0x60>
 800894e:	f7fd feaf 	bl	80066b0 <__errno>
 8008952:	2321      	movs	r3, #33	@ 0x21
 8008954:	6003      	str	r3, [r0, #0]
 8008956:	ecbd 8b02 	vpop	{d8}
 800895a:	ec47 6b10 	vmov	d0, r6, r7
 800895e:	bdf8      	pop	{r3, r4, r5, r6, r7, pc}
 8008960:	2200      	movs	r2, #0
 8008962:	2300      	movs	r3, #0
 8008964:	4630      	mov	r0, r6
 8008966:	4639      	mov	r1, r7
 8008968:	f7f8 f8ce 	bl	8000b08 <__aeabi_dcmpeq>
 800896c:	2800      	cmp	r0, #0
 800896e:	d0f2      	beq.n	8008956 <pow+0xa2>
 8008970:	eeb0 0a48 	vmov.f32	s0, s16
 8008974:	eef0 0a68 	vmov.f32	s1, s17
 8008978:	f000 f80c 	bl	8008994 <finite>
 800897c:	2800      	cmp	r0, #0
 800897e:	d0ea      	beq.n	8008956 <pow+0xa2>
 8008980:	ec45 4b10 	vmov	d0, r4, r5
 8008984:	f000 f806 	bl	8008994 <finite>
 8008988:	e7c3      	b.n	8008912 <pow+0x5e>
 800898a:	4f01      	ldr	r7, [pc, #4]	@ (8008990 <pow+0xdc>)
 800898c:	2600      	movs	r6, #0
 800898e:	e7e2      	b.n	8008956 <pow+0xa2>
 8008990:	3ff00000 	.word	0x3ff00000

08008994 <finite>:
 8008994:	b082      	sub	sp, #8
 8008996:	ed8d 0b00 	vstr	d0, [sp]
 800899a:	9801      	ldr	r0, [sp, #4]
 800899c:	f040 4000 	orr.w	r0, r0, #2147483648	@ 0x80000000
 80089a0:	f500 1080 	add.w	r0, r0, #1048576	@ 0x100000
 80089a4:	0fc0      	lsrs	r0, r0, #31
 80089a6:	b002      	add	sp, #8
 80089a8:	4770      	bx	lr
 80089aa:	0000      	movs	r0, r0
 80089ac:	0000      	movs	r0, r0
	...

080089b0 <__ieee754_pow>:
 80089b0:	e92d 4ff0 	stmdb	sp!, {r4, r5, r6, r7, r8, r9, sl, fp, lr}
 80089b4:	b091      	sub	sp, #68	@ 0x44
 80089b6:	ed8d 1b00 	vstr	d1, [sp]
 80089ba:	e9dd 1900 	ldrd	r1, r9, [sp]
 80089be:	f029 4a00 	bic.w	sl, r9, #2147483648	@ 0x80000000
 80089c2:	ea5a 0001 	orrs.w	r0, sl, r1
 80089c6:	ec57 6b10 	vmov	r6, r7, d0
 80089ca:	d113      	bne.n	80089f4 <__ieee754_pow+0x44>
 80089cc:	19b3      	adds	r3, r6, r6
 80089ce:	f487 2200 	eor.w	r2, r7, #524288	@ 0x80000
 80089d2:	4152      	adcs	r2, r2
 80089d4:	4298      	cmp	r0, r3
 80089d6:	4b98      	ldr	r3, [pc, #608]	@ (8008c38 <__ieee754_pow+0x288>)
 80089d8:	4193      	sbcs	r3, r2
 80089da:	f080 84ea 	bcs.w	80093b2 <__ieee754_pow+0xa02>
 80089de:	e9dd 2300 	ldrd	r2, r3, [sp]
 80089e2:	4630      	mov	r0, r6
 80089e4:	4639      	mov	r1, r7
 80089e6:	f7f7 fc71 	bl	80002cc <__adddf3>
 80089ea:	ec41 0b10 	vmov	d0, r0, r1
 80089ee:	b011      	add	sp, #68	@ 0x44
 80089f0:	e8bd 8ff0 	ldmia.w	sp!, {r4, r5, r6, r7, r8, r9, sl, fp, pc}
 80089f4:	4a91      	ldr	r2, [pc, #580]	@ (8008c3c <__ieee754_pow+0x28c>)
 80089f6:	f027 4800 	bic.w	r8, r7, #2147483648	@ 0x80000000
 80089fa:	4590      	cmp	r8, r2
 80089fc:	463d      	mov	r5, r7
 80089fe:	4633      	mov	r3, r6
 8008a00:	d806      	bhi.n	8008a10 <__ieee754_pow+0x60>
 8008a02:	d101      	bne.n	8008a08 <__ieee754_pow+0x58>
 8008a04:	2e00      	cmp	r6, #0
 8008a06:	d1ea      	bne.n	80089de <__ieee754_pow+0x2e>
 8008a08:	4592      	cmp	sl, r2
 8008a0a:	d801      	bhi.n	8008a10 <__ieee754_pow+0x60>
 8008a0c:	d10e      	bne.n	8008a2c <__ieee754_pow+0x7c>
 8008a0e:	b169      	cbz	r1, 8008a2c <__ieee754_pow+0x7c>
 8008a10:	f105 4540 	add.w	r5, r5, #3221225472	@ 0xc0000000
 8008a14:	f505 1580 	add.w	r5, r5, #1048576	@ 0x100000
 8008a18:	431d      	orrs	r5, r3
 8008a1a:	d1e0      	bne.n	80089de <__ieee754_pow+0x2e>
 8008a1c:	e9dd 3200 	ldrd	r3, r2, [sp]
 8008a20:	18db      	adds	r3, r3, r3
 8008a22:	f482 2200 	eor.w	r2, r2, #524288	@ 0x80000
 8008a26:	4152      	adcs	r2, r2
 8008a28:	429d      	cmp	r5, r3
 8008a2a:	e7d4      	b.n	80089d6 <__ieee754_pow+0x26>
 8008a2c:	2d00      	cmp	r5, #0
 8008a2e:	46c3      	mov	fp, r8
 8008a30:	da3a      	bge.n	8008aa8 <__ieee754_pow+0xf8>
 8008a32:	4a83      	ldr	r2, [pc, #524]	@ (8008c40 <__ieee754_pow+0x290>)
 8008a34:	4592      	cmp	sl, r2
 8008a36:	d84d      	bhi.n	8008ad4 <__ieee754_pow+0x124>
 8008a38:	f1a2 7254 	sub.w	r2, r2, #55574528	@ 0x3500000
 8008a3c:	4592      	cmp	sl, r2
 8008a3e:	f240 84c7 	bls.w	80093d0 <__ieee754_pow+0xa20>
 8008a42:	ea4f 522a 	mov.w	r2, sl, asr #20
 8008a46:	f2a2 32ff 	subw	r2, r2, #1023	@ 0x3ff
 8008a4a:	2a14      	cmp	r2, #20
 8008a4c:	dd0f      	ble.n	8008a6e <__ieee754_pow+0xbe>
 8008a4e:	f1c2 0234 	rsb	r2, r2, #52	@ 0x34
 8008a52:	fa21 f402 	lsr.w	r4, r1, r2
 8008a56:	fa04 f202 	lsl.w	r2, r4, r2
 8008a5a:	428a      	cmp	r2, r1
 8008a5c:	f040 84b8 	bne.w	80093d0 <__ieee754_pow+0xa20>
 8008a60:	f004 0401 	and.w	r4, r4, #1
 8008a64:	f1c4 0402 	rsb	r4, r4, #2
 8008a68:	2900      	cmp	r1, #0
 8008a6a:	d158      	bne.n	8008b1e <__ieee754_pow+0x16e>
 8008a6c:	e00e      	b.n	8008a8c <__ieee754_pow+0xdc>
 8008a6e:	2900      	cmp	r1, #0
 8008a70:	d154      	bne.n	8008b1c <__ieee754_pow+0x16c>
 8008a72:	f1c2 0214 	rsb	r2, r2, #20
 8008a76:	fa4a f402 	asr.w	r4, sl, r2
 8008a7a:	fa04 f202 	lsl.w	r2, r4, r2
 8008a7e:	4552      	cmp	r2, sl
 8008a80:	f040 84a3 	bne.w	80093ca <__ieee754_pow+0xa1a>
 8008a84:	f004 0401 	and.w	r4, r4, #1
 8008a88:	f1c4 0402 	rsb	r4, r4, #2
 8008a8c:	4a6d      	ldr	r2, [pc, #436]	@ (8008c44 <__ieee754_pow+0x294>)
 8008a8e:	4592      	cmp	sl, r2
 8008a90:	d12e      	bne.n	8008af0 <__ieee754_pow+0x140>
 8008a92:	f1b9 0f00 	cmp.w	r9, #0
 8008a96:	f280 8494 	bge.w	80093c2 <__ieee754_pow+0xa12>
 8008a9a:	496a      	ldr	r1, [pc, #424]	@ (8008c44 <__ieee754_pow+0x294>)
 8008a9c:	4632      	mov	r2, r6
 8008a9e:	463b      	mov	r3, r7
 8008aa0:	2000      	movs	r0, #0
 8008aa2:	f7f7 fef3 	bl	800088c <__aeabi_ddiv>
 8008aa6:	e7a0      	b.n	80089ea <__ieee754_pow+0x3a>
 8008aa8:	2400      	movs	r4, #0
 8008aaa:	bbc1      	cbnz	r1, 8008b1e <__ieee754_pow+0x16e>
 8008aac:	4a63      	ldr	r2, [pc, #396]	@ (8008c3c <__ieee754_pow+0x28c>)
 8008aae:	4592      	cmp	sl, r2
 8008ab0:	d1ec      	bne.n	8008a8c <__ieee754_pow+0xdc>
 8008ab2:	f108 4240 	add.w	r2, r8, #3221225472	@ 0xc0000000
 8008ab6:	f502 1280 	add.w	r2, r2, #1048576	@ 0x100000
 8008aba:	431a      	orrs	r2, r3
 8008abc:	f000 8479 	beq.w	80093b2 <__ieee754_pow+0xa02>
 8008ac0:	4b61      	ldr	r3, [pc, #388]	@ (8008c48 <__ieee754_pow+0x298>)
 8008ac2:	4598      	cmp	r8, r3
 8008ac4:	d908      	bls.n	8008ad8 <__ieee754_pow+0x128>
 8008ac6:	f1b9 0f00 	cmp.w	r9, #0
 8008aca:	f2c0 8476 	blt.w	80093ba <__ieee754_pow+0xa0a>
 8008ace:	e9dd 0100 	ldrd	r0, r1, [sp]
 8008ad2:	e78a      	b.n	80089ea <__ieee754_pow+0x3a>
 8008ad4:	2402      	movs	r4, #2
 8008ad6:	e7e8      	b.n	8008aaa <__ieee754_pow+0xfa>
 8008ad8:	f1b9 0f00 	cmp.w	r9, #0
 8008adc:	f04f 0000 	mov.w	r0, #0
 8008ae0:	f04f 0100 	mov.w	r1, #0
 8008ae4:	da81      	bge.n	80089ea <__ieee754_pow+0x3a>
 8008ae6:	e9dd 0300 	ldrd	r0, r3, [sp]
 8008aea:	f103 4100 	add.w	r1, r3, #2147483648	@ 0x80000000
 8008aee:	e77c      	b.n	80089ea <__ieee754_pow+0x3a>
 8008af0:	f1b9 4f80 	cmp.w	r9, #1073741824	@ 0x40000000
 8008af4:	d106      	bne.n	8008b04 <__ieee754_pow+0x154>
 8008af6:	4632      	mov	r2, r6
 8008af8:	463b      	mov	r3, r7
 8008afa:	4630      	mov	r0, r6
 8008afc:	4639      	mov	r1, r7
 8008afe:	f7f7 fd9b 	bl	8000638 <__aeabi_dmul>
 8008b02:	e772      	b.n	80089ea <__ieee754_pow+0x3a>
 8008b04:	4a51      	ldr	r2, [pc, #324]	@ (8008c4c <__ieee754_pow+0x29c>)
 8008b06:	4591      	cmp	r9, r2
 8008b08:	d109      	bne.n	8008b1e <__ieee754_pow+0x16e>
 8008b0a:	2d00      	cmp	r5, #0
 8008b0c:	db07      	blt.n	8008b1e <__ieee754_pow+0x16e>
 8008b0e:	ec47 6b10 	vmov	d0, r6, r7
 8008b12:	b011      	add	sp, #68	@ 0x44
 8008b14:	e8bd 4ff0 	ldmia.w	sp!, {r4, r5, r6, r7, r8, r9, sl, fp, lr}
 8008b18:	f000 bd50 	b.w	80095bc <__ieee754_sqrt>
 8008b1c:	2400      	movs	r4, #0
 8008b1e:	ec47 6b10 	vmov	d0, r6, r7
 8008b22:	9302      	str	r3, [sp, #8]
 8008b24:	f000 fcc4 	bl	80094b0 <fabs>
 8008b28:	9b02      	ldr	r3, [sp, #8]
 8008b2a:	ec51 0b10 	vmov	r0, r1, d0
 8008b2e:	bb53      	cbnz	r3, 8008b86 <__ieee754_pow+0x1d6>
 8008b30:	4b44      	ldr	r3, [pc, #272]	@ (8008c44 <__ieee754_pow+0x294>)
 8008b32:	f025 4240 	bic.w	r2, r5, #3221225472	@ 0xc0000000
 8008b36:	429a      	cmp	r2, r3
 8008b38:	d002      	beq.n	8008b40 <__ieee754_pow+0x190>
 8008b3a:	f1b8 0f00 	cmp.w	r8, #0
 8008b3e:	d122      	bne.n	8008b86 <__ieee754_pow+0x1d6>
 8008b40:	f1b9 0f00 	cmp.w	r9, #0
 8008b44:	da05      	bge.n	8008b52 <__ieee754_pow+0x1a2>
 8008b46:	4602      	mov	r2, r0
 8008b48:	460b      	mov	r3, r1
 8008b4a:	2000      	movs	r0, #0
 8008b4c:	493d      	ldr	r1, [pc, #244]	@ (8008c44 <__ieee754_pow+0x294>)
 8008b4e:	f7f7 fe9d 	bl	800088c <__aeabi_ddiv>
 8008b52:	2d00      	cmp	r5, #0
 8008b54:	f6bf af49 	bge.w	80089ea <__ieee754_pow+0x3a>
 8008b58:	f108 4840 	add.w	r8, r8, #3221225472	@ 0xc0000000
 8008b5c:	f508 1880 	add.w	r8, r8, #1048576	@ 0x100000
 8008b60:	ea58 0804 	orrs.w	r8, r8, r4
 8008b64:	d108      	bne.n	8008b78 <__ieee754_pow+0x1c8>
 8008b66:	4602      	mov	r2, r0
 8008b68:	460b      	mov	r3, r1
 8008b6a:	4610      	mov	r0, r2
 8008b6c:	4619      	mov	r1, r3
 8008b6e:	f7f7 fbab 	bl	80002c8 <__aeabi_dsub>
 8008b72:	4602      	mov	r2, r0
 8008b74:	460b      	mov	r3, r1
 8008b76:	e794      	b.n	8008aa2 <__ieee754_pow+0xf2>
 8008b78:	2c01      	cmp	r4, #1
 8008b7a:	f47f af36 	bne.w	80089ea <__ieee754_pow+0x3a>
 8008b7e:	f101 4300 	add.w	r3, r1, #2147483648	@ 0x80000000
 8008b82:	4619      	mov	r1, r3
 8008b84:	e731      	b.n	80089ea <__ieee754_pow+0x3a>
 8008b86:	0feb      	lsrs	r3, r5, #31
 8008b88:	3b01      	subs	r3, #1
 8008b8a:	ea53 0204 	orrs.w	r2, r3, r4
 8008b8e:	d102      	bne.n	8008b96 <__ieee754_pow+0x1e6>
 8008b90:	4632      	mov	r2, r6
 8008b92:	463b      	mov	r3, r7
 8008b94:	e7e9      	b.n	8008b6a <__ieee754_pow+0x1ba>
 8008b96:	3c01      	subs	r4, #1
 8008b98:	431c      	orrs	r4, r3
 8008b9a:	d016      	beq.n	8008bca <__ieee754_pow+0x21a>
 8008b9c:	ed9f 7b22 	vldr	d7, [pc, #136]	@ 8008c28 <__ieee754_pow+0x278>
 8008ba0:	f1ba 4f84 	cmp.w	sl, #1107296256	@ 0x42000000
 8008ba4:	ed8d 7b02 	vstr	d7, [sp, #8]
 8008ba8:	f240 8112 	bls.w	8008dd0 <__ieee754_pow+0x420>
 8008bac:	4b28      	ldr	r3, [pc, #160]	@ (8008c50 <__ieee754_pow+0x2a0>)
 8008bae:	459a      	cmp	sl, r3
 8008bb0:	4b25      	ldr	r3, [pc, #148]	@ (8008c48 <__ieee754_pow+0x298>)
 8008bb2:	d916      	bls.n	8008be2 <__ieee754_pow+0x232>
 8008bb4:	4598      	cmp	r8, r3
 8008bb6:	d80b      	bhi.n	8008bd0 <__ieee754_pow+0x220>
 8008bb8:	f1b9 0f00 	cmp.w	r9, #0
 8008bbc:	da0b      	bge.n	8008bd6 <__ieee754_pow+0x226>
 8008bbe:	2000      	movs	r0, #0
 8008bc0:	b011      	add	sp, #68	@ 0x44
 8008bc2:	e8bd 4ff0 	ldmia.w	sp!, {r4, r5, r6, r7, r8, r9, sl, fp, lr}
 8008bc6:	f000 bc6b 	b.w	80094a0 <__math_oflow>
 8008bca:	ed9f 7b19 	vldr	d7, [pc, #100]	@ 8008c30 <__ieee754_pow+0x280>
 8008bce:	e7e7      	b.n	8008ba0 <__ieee754_pow+0x1f0>
 8008bd0:	f1b9 0f00 	cmp.w	r9, #0
 8008bd4:	dcf3      	bgt.n	8008bbe <__ieee754_pow+0x20e>
 8008bd6:	2000      	movs	r0, #0
 8008bd8:	b011      	add	sp, #68	@ 0x44
 8008bda:	e8bd 4ff0 	ldmia.w	sp!, {r4, r5, r6, r7, r8, r9, sl, fp, lr}
 8008bde:	f000 bc57 	b.w	8009490 <__math_uflow>
 8008be2:	4598      	cmp	r8, r3
 8008be4:	d20c      	bcs.n	8008c00 <__ieee754_pow+0x250>
 8008be6:	e9dd 0102 	ldrd	r0, r1, [sp, #8]
 8008bea:	2200      	movs	r2, #0
 8008bec:	2300      	movs	r3, #0
 8008bee:	f7f7 ff95 	bl	8000b1c <__aeabi_dcmplt>
 8008bf2:	3800      	subs	r0, #0
 8008bf4:	bf18      	it	ne
 8008bf6:	2001      	movne	r0, #1
 8008bf8:	f1b9 0f00 	cmp.w	r9, #0
 8008bfc:	daec      	bge.n	8008bd8 <__ieee754_pow+0x228>
 8008bfe:	e7df      	b.n	8008bc0 <__ieee754_pow+0x210>
 8008c00:	4b10      	ldr	r3, [pc, #64]	@ (8008c44 <__ieee754_pow+0x294>)
 8008c02:	4598      	cmp	r8, r3
 8008c04:	f04f 0200 	mov.w	r2, #0
 8008c08:	d924      	bls.n	8008c54 <__ieee754_pow+0x2a4>
 8008c0a:	e9dd 0102 	ldrd	r0, r1, [sp, #8]
 8008c0e:	2300      	movs	r3, #0
 8008c10:	f7f7 ff84 	bl	8000b1c <__aeabi_dcmplt>
 8008c14:	3800      	subs	r0, #0
 8008c16:	bf18      	it	ne
 8008c18:	2001      	movne	r0, #1
 8008c1a:	f1b9 0f00 	cmp.w	r9, #0
 8008c1e:	dccf      	bgt.n	8008bc0 <__ieee754_pow+0x210>
 8008c20:	e7da      	b.n	8008bd8 <__ieee754_pow+0x228>
 8008c22:	bf00      	nop
 8008c24:	f3af 8000 	nop.w
 8008c28:	00000000 	.word	0x00000000
 8008c2c:	3ff00000 	.word	0x3ff00000
 8008c30:	00000000 	.word	0x00000000
 8008c34:	bff00000 	.word	0xbff00000
 8008c38:	fff00000 	.word	0xfff00000
 8008c3c:	7ff00000 	.word	0x7ff00000
 8008c40:	433fffff 	.word	0x433fffff
 8008c44:	3ff00000 	.word	0x3ff00000
 8008c48:	3fefffff 	.word	0x3fefffff
 8008c4c:	3fe00000 	.word	0x3fe00000
 8008c50:	43f00000 	.word	0x43f00000
 8008c54:	4b5a      	ldr	r3, [pc, #360]	@ (8008dc0 <__ieee754_pow+0x410>)
 8008c56:	f7f7 fb37 	bl	80002c8 <__aeabi_dsub>
 8008c5a:	a351      	add	r3, pc, #324	@ (adr r3, 8008da0 <__ieee754_pow+0x3f0>)
 8008c5c:	e9d3 2300 	ldrd	r2, r3, [r3]
 8008c60:	4604      	mov	r4, r0
 8008c62:	460d      	mov	r5, r1
 8008c64:	f7f7 fce8 	bl	8000638 <__aeabi_dmul>
 8008c68:	a34f      	add	r3, pc, #316	@ (adr r3, 8008da8 <__ieee754_pow+0x3f8>)
 8008c6a:	e9d3 2300 	ldrd	r2, r3, [r3]
 8008c6e:	4606      	mov	r6, r0
 8008c70:	460f      	mov	r7, r1
 8008c72:	4620      	mov	r0, r4
 8008c74:	4629      	mov	r1, r5
 8008c76:	f7f7 fcdf 	bl	8000638 <__aeabi_dmul>
 8008c7a:	4b52      	ldr	r3, [pc, #328]	@ (8008dc4 <__ieee754_pow+0x414>)
 8008c7c:	4682      	mov	sl, r0
 8008c7e:	468b      	mov	fp, r1
 8008c80:	2200      	movs	r2, #0
 8008c82:	4620      	mov	r0, r4
 8008c84:	4629      	mov	r1, r5
 8008c86:	f7f7 fcd7 	bl	8000638 <__aeabi_dmul>
 8008c8a:	4602      	mov	r2, r0
 8008c8c:	460b      	mov	r3, r1
 8008c8e:	a148      	add	r1, pc, #288	@ (adr r1, 8008db0 <__ieee754_pow+0x400>)
 8008c90:	e9d1 0100 	ldrd	r0, r1, [r1]
 8008c94:	f7f7 fb18 	bl	80002c8 <__aeabi_dsub>
 8008c98:	4622      	mov	r2, r4
 8008c9a:	462b      	mov	r3, r5
 8008c9c:	f7f7 fccc 	bl	8000638 <__aeabi_dmul>
 8008ca0:	4602      	mov	r2, r0
 8008ca2:	460b      	mov	r3, r1
 8008ca4:	2000      	movs	r0, #0
 8008ca6:	4948      	ldr	r1, [pc, #288]	@ (8008dc8 <__ieee754_pow+0x418>)
 8008ca8:	f7f7 fb0e 	bl	80002c8 <__aeabi_dsub>
 8008cac:	4622      	mov	r2, r4
 8008cae:	4680      	mov	r8, r0
 8008cb0:	4689      	mov	r9, r1
 8008cb2:	462b      	mov	r3, r5
 8008cb4:	4620      	mov	r0, r4
 8008cb6:	4629      	mov	r1, r5
 8008cb8:	f7f7 fcbe 	bl	8000638 <__aeabi_dmul>
 8008cbc:	4602      	mov	r2, r0
 8008cbe:	460b      	mov	r3, r1
 8008cc0:	4640      	mov	r0, r8
 8008cc2:	4649      	mov	r1, r9
 8008cc4:	f7f7 fcb8 	bl	8000638 <__aeabi_dmul>
 8008cc8:	a33b      	add	r3, pc, #236	@ (adr r3, 8008db8 <__ieee754_pow+0x408>)
 8008cca:	e9d3 2300 	ldrd	r2, r3, [r3]
 8008cce:	f7f7 fcb3 	bl	8000638 <__aeabi_dmul>
 8008cd2:	4602      	mov	r2, r0
 8008cd4:	460b      	mov	r3, r1
 8008cd6:	4650      	mov	r0, sl
 8008cd8:	4659      	mov	r1, fp
 8008cda:	f7f7 faf5 	bl	80002c8 <__aeabi_dsub>
 8008cde:	4602      	mov	r2, r0
 8008ce0:	460b      	mov	r3, r1
 8008ce2:	4680      	mov	r8, r0
 8008ce4:	4689      	mov	r9, r1
 8008ce6:	4630      	mov	r0, r6
 8008ce8:	4639      	mov	r1, r7
 8008cea:	f7f7 faef 	bl	80002cc <__adddf3>
 8008cee:	2400      	movs	r4, #0
 8008cf0:	4632      	mov	r2, r6
 8008cf2:	463b      	mov	r3, r7
 8008cf4:	4620      	mov	r0, r4
 8008cf6:	460d      	mov	r5, r1
 8008cf8:	f7f7 fae6 	bl	80002c8 <__aeabi_dsub>
 8008cfc:	4602      	mov	r2, r0
 8008cfe:	460b      	mov	r3, r1
 8008d00:	4640      	mov	r0, r8
 8008d02:	4649      	mov	r1, r9
 8008d04:	f7f7 fae0 	bl	80002c8 <__aeabi_dsub>
 8008d08:	e9dd 2300 	ldrd	r2, r3, [sp]
 8008d0c:	e9cd 2304 	strd	r2, r3, [sp, #16]
 8008d10:	2300      	movs	r3, #0
 8008d12:	9304      	str	r3, [sp, #16]
 8008d14:	e9dd ab04 	ldrd	sl, fp, [sp, #16]
 8008d18:	4606      	mov	r6, r0
 8008d1a:	460f      	mov	r7, r1
 8008d1c:	4652      	mov	r2, sl
 8008d1e:	465b      	mov	r3, fp
 8008d20:	e9dd 0100 	ldrd	r0, r1, [sp]
 8008d24:	f7f7 fad0 	bl	80002c8 <__aeabi_dsub>
 8008d28:	4622      	mov	r2, r4
 8008d2a:	462b      	mov	r3, r5
 8008d2c:	f7f7 fc84 	bl	8000638 <__aeabi_dmul>
 8008d30:	e9dd 2300 	ldrd	r2, r3, [sp]
 8008d34:	4680      	mov	r8, r0
 8008d36:	4689      	mov	r9, r1
 8008d38:	4630      	mov	r0, r6
 8008d3a:	4639      	mov	r1, r7
 8008d3c:	f7f7 fc7c 	bl	8000638 <__aeabi_dmul>
 8008d40:	4602      	mov	r2, r0
 8008d42:	460b      	mov	r3, r1
 8008d44:	4640      	mov	r0, r8
 8008d46:	4649      	mov	r1, r9
 8008d48:	f7f7 fac0 	bl	80002cc <__adddf3>
 8008d4c:	4652      	mov	r2, sl
 8008d4e:	465b      	mov	r3, fp
 8008d50:	4606      	mov	r6, r0
 8008d52:	460f      	mov	r7, r1
 8008d54:	4620      	mov	r0, r4
 8008d56:	4629      	mov	r1, r5
 8008d58:	f7f7 fc6e 	bl	8000638 <__aeabi_dmul>
 8008d5c:	460b      	mov	r3, r1
 8008d5e:	4602      	mov	r2, r0
 8008d60:	4680      	mov	r8, r0
 8008d62:	4689      	mov	r9, r1
 8008d64:	4630      	mov	r0, r6
 8008d66:	4639      	mov	r1, r7
 8008d68:	f7f7 fab0 	bl	80002cc <__adddf3>
 8008d6c:	4b17      	ldr	r3, [pc, #92]	@ (8008dcc <__ieee754_pow+0x41c>)
 8008d6e:	4299      	cmp	r1, r3
 8008d70:	4604      	mov	r4, r0
 8008d72:	460d      	mov	r5, r1
 8008d74:	468a      	mov	sl, r1
 8008d76:	468b      	mov	fp, r1
 8008d78:	f340 82ef 	ble.w	800935a <__ieee754_pow+0x9aa>
 8008d7c:	f101 433f 	add.w	r3, r1, #3204448256	@ 0xbf000000
 8008d80:	f503 03e0 	add.w	r3, r3, #7340032	@ 0x700000
 8008d84:	4303      	orrs	r3, r0
 8008d86:	f000 81e8 	beq.w	800915a <__ieee754_pow+0x7aa>
 8008d8a:	e9dd 0102 	ldrd	r0, r1, [sp, #8]
 8008d8e:	2200      	movs	r2, #0
 8008d90:	2300      	movs	r3, #0
 8008d92:	f7f7 fec3 	bl	8000b1c <__aeabi_dcmplt>
 8008d96:	3800      	subs	r0, #0
 8008d98:	bf18      	it	ne
 8008d9a:	2001      	movne	r0, #1
 8008d9c:	e710      	b.n	8008bc0 <__ieee754_pow+0x210>
 8008d9e:	bf00      	nop
 8008da0:	60000000 	.word	0x60000000
 8008da4:	3ff71547 	.word	0x3ff71547
 8008da8:	f85ddf44 	.word	0xf85ddf44
 8008dac:	3e54ae0b 	.word	0x3e54ae0b
 8008db0:	55555555 	.word	0x55555555
 8008db4:	3fd55555 	.word	0x3fd55555
 8008db8:	652b82fe 	.word	0x652b82fe
 8008dbc:	3ff71547 	.word	0x3ff71547
 8008dc0:	3ff00000 	.word	0x3ff00000
 8008dc4:	3fd00000 	.word	0x3fd00000
 8008dc8:	3fe00000 	.word	0x3fe00000
 8008dcc:	408fffff 	.word	0x408fffff
 8008dd0:	4bd5      	ldr	r3, [pc, #852]	@ (8009128 <__ieee754_pow+0x778>)
 8008dd2:	402b      	ands	r3, r5
 8008dd4:	2200      	movs	r2, #0
 8008dd6:	b92b      	cbnz	r3, 8008de4 <__ieee754_pow+0x434>
 8008dd8:	4bd4      	ldr	r3, [pc, #848]	@ (800912c <__ieee754_pow+0x77c>)
 8008dda:	f7f7 fc2d 	bl	8000638 <__aeabi_dmul>
 8008dde:	f06f 0234 	mvn.w	r2, #52	@ 0x34
 8008de2:	468b      	mov	fp, r1
 8008de4:	ea4f 532b 	mov.w	r3, fp, asr #20
 8008de8:	f2a3 33ff 	subw	r3, r3, #1023	@ 0x3ff
 8008dec:	4413      	add	r3, r2
 8008dee:	930a      	str	r3, [sp, #40]	@ 0x28
 8008df0:	4bcf      	ldr	r3, [pc, #828]	@ (8009130 <__ieee754_pow+0x780>)
 8008df2:	f3cb 0b13 	ubfx	fp, fp, #0, #20
 8008df6:	f04b 557f 	orr.w	r5, fp, #1069547520	@ 0x3fc00000
 8008dfa:	459b      	cmp	fp, r3
 8008dfc:	f445 1540 	orr.w	r5, r5, #3145728	@ 0x300000
 8008e00:	dd08      	ble.n	8008e14 <__ieee754_pow+0x464>
 8008e02:	4bcc      	ldr	r3, [pc, #816]	@ (8009134 <__ieee754_pow+0x784>)
 8008e04:	459b      	cmp	fp, r3
 8008e06:	f340 81a5 	ble.w	8009154 <__ieee754_pow+0x7a4>
 8008e0a:	9b0a      	ldr	r3, [sp, #40]	@ 0x28
 8008e0c:	3301      	adds	r3, #1
 8008e0e:	930a      	str	r3, [sp, #40]	@ 0x28
 8008e10:	f5a5 1580 	sub.w	r5, r5, #1048576	@ 0x100000
 8008e14:	f04f 0a00 	mov.w	sl, #0
 8008e18:	ea4f 03ca 	mov.w	r3, sl, lsl #3
 8008e1c:	930b      	str	r3, [sp, #44]	@ 0x2c
 8008e1e:	4bc6      	ldr	r3, [pc, #792]	@ (8009138 <__ieee754_pow+0x788>)
 8008e20:	eb03 03ca 	add.w	r3, r3, sl, lsl #3
 8008e24:	ed93 7b00 	vldr	d7, [r3]
 8008e28:	4629      	mov	r1, r5
 8008e2a:	ec53 2b17 	vmov	r2, r3, d7
 8008e2e:	ed8d 7b06 	vstr	d7, [sp, #24]
 8008e32:	e9cd 0108 	strd	r0, r1, [sp, #32]
 8008e36:	f7f7 fa47 	bl	80002c8 <__aeabi_dsub>
 8008e3a:	e9dd 2308 	ldrd	r2, r3, [sp, #32]
 8008e3e:	4606      	mov	r6, r0
 8008e40:	460f      	mov	r7, r1
 8008e42:	e9dd 0106 	ldrd	r0, r1, [sp, #24]
 8008e46:	f7f7 fa41 	bl	80002cc <__adddf3>
 8008e4a:	4602      	mov	r2, r0
 8008e4c:	460b      	mov	r3, r1
 8008e4e:	2000      	movs	r0, #0
 8008e50:	49ba      	ldr	r1, [pc, #744]	@ (800913c <__ieee754_pow+0x78c>)
 8008e52:	f7f7 fd1b 	bl	800088c <__aeabi_ddiv>
 8008e56:	e9cd 010c 	strd	r0, r1, [sp, #48]	@ 0x30
 8008e5a:	4602      	mov	r2, r0
 8008e5c:	460b      	mov	r3, r1
 8008e5e:	4630      	mov	r0, r6
 8008e60:	4639      	mov	r1, r7
 8008e62:	f7f7 fbe9 	bl	8000638 <__aeabi_dmul>
 8008e66:	e9cd 0104 	strd	r0, r1, [sp, #16]
 8008e6a:	e9dd bc04 	ldrd	fp, ip, [sp, #16]
 8008e6e:	106d      	asrs	r5, r5, #1
 8008e70:	f045 5500 	orr.w	r5, r5, #536870912	@ 0x20000000
 8008e74:	f04f 0b00 	mov.w	fp, #0
 8008e78:	f505 2500 	add.w	r5, r5, #524288	@ 0x80000
 8008e7c:	4661      	mov	r1, ip
 8008e7e:	2200      	movs	r2, #0
 8008e80:	eb05 438a 	add.w	r3, r5, sl, lsl #18
 8008e84:	4658      	mov	r0, fp
 8008e86:	46e1      	mov	r9, ip
 8008e88:	e9cd bc0e 	strd	fp, ip, [sp, #56]	@ 0x38
 8008e8c:	4614      	mov	r4, r2
 8008e8e:	461d      	mov	r5, r3
 8008e90:	f7f7 fbd2 	bl	8000638 <__aeabi_dmul>
 8008e94:	4602      	mov	r2, r0
 8008e96:	460b      	mov	r3, r1
 8008e98:	4630      	mov	r0, r6
 8008e9a:	4639      	mov	r1, r7
 8008e9c:	f7f7 fa14 	bl	80002c8 <__aeabi_dsub>
 8008ea0:	e9dd 2306 	ldrd	r2, r3, [sp, #24]
 8008ea4:	4606      	mov	r6, r0
 8008ea6:	460f      	mov	r7, r1
 8008ea8:	4620      	mov	r0, r4
 8008eaa:	4629      	mov	r1, r5
 8008eac:	f7f7 fa0c 	bl	80002c8 <__aeabi_dsub>
 8008eb0:	4602      	mov	r2, r0
 8008eb2:	460b      	mov	r3, r1
 8008eb4:	e9dd 0108 	ldrd	r0, r1, [sp, #32]
 8008eb8:	f7f7 fa06 	bl	80002c8 <__aeabi_dsub>
 8008ebc:	465a      	mov	r2, fp
 8008ebe:	464b      	mov	r3, r9
 8008ec0:	f7f7 fbba 	bl	8000638 <__aeabi_dmul>
 8008ec4:	4602      	mov	r2, r0
 8008ec6:	460b      	mov	r3, r1
 8008ec8:	4630      	mov	r0, r6
 8008eca:	4639      	mov	r1, r7
 8008ecc:	f7f7 f9fc 	bl	80002c8 <__aeabi_dsub>
 8008ed0:	e9dd 230c 	ldrd	r2, r3, [sp, #48]	@ 0x30
 8008ed4:	f7f7 fbb0 	bl	8000638 <__aeabi_dmul>
 8008ed8:	e9dd 2304 	ldrd	r2, r3, [sp, #16]
 8008edc:	e9cd 0106 	strd	r0, r1, [sp, #24]
 8008ee0:	4610      	mov	r0, r2
 8008ee2:	4619      	mov	r1, r3
 8008ee4:	f7f7 fba8 	bl	8000638 <__aeabi_dmul>
 8008ee8:	a37d      	add	r3, pc, #500	@ (adr r3, 80090e0 <__ieee754_pow+0x730>)
 8008eea:	e9d3 2300 	ldrd	r2, r3, [r3]
 8008eee:	4604      	mov	r4, r0
 8008ef0:	460d      	mov	r5, r1
 8008ef2:	f7f7 fba1 	bl	8000638 <__aeabi_dmul>
 8008ef6:	a37c      	add	r3, pc, #496	@ (adr r3, 80090e8 <__ieee754_pow+0x738>)
 8008ef8:	e9d3 2300 	ldrd	r2, r3, [r3]
 8008efc:	f7f7 f9e6 	bl	80002cc <__adddf3>
 8008f00:	4622      	mov	r2, r4
 8008f02:	462b      	mov	r3, r5
 8008f04:	f7f7 fb98 	bl	8000638 <__aeabi_dmul>
 8008f08:	a379      	add	r3, pc, #484	@ (adr r3, 80090f0 <__ieee754_pow+0x740>)
 8008f0a:	e9d3 2300 	ldrd	r2, r3, [r3]
 8008f0e:	f7f7 f9dd 	bl	80002cc <__adddf3>
 8008f12:	4622      	mov	r2, r4
 8008f14:	462b      	mov	r3, r5
 8008f16:	f7f7 fb8f 	bl	8000638 <__aeabi_dmul>
 8008f1a:	a377      	add	r3, pc, #476	@ (adr r3, 80090f8 <__ieee754_pow+0x748>)
 8008f1c:	e9d3 2300 	ldrd	r2, r3, [r3]
 8008f20:	f7f7 f9d4 	bl	80002cc <__adddf3>
 8008f24:	4622      	mov	r2, r4
 8008f26:	462b      	mov	r3, r5
 8008f28:	f7f7 fb86 	bl	8000638 <__aeabi_dmul>
 8008f2c:	a374      	add	r3, pc, #464	@ (adr r3, 8009100 <__ieee754_pow+0x750>)
 8008f2e:	e9d3 2300 	ldrd	r2, r3, [r3]
 8008f32:	f7f7 f9cb 	bl	80002cc <__adddf3>
 8008f36:	4622      	mov	r2, r4
 8008f38:	462b      	mov	r3, r5
 8008f3a:	f7f7 fb7d 	bl	8000638 <__aeabi_dmul>
 8008f3e:	a372      	add	r3, pc, #456	@ (adr r3, 8009108 <__ieee754_pow+0x758>)
 8008f40:	e9d3 2300 	ldrd	r2, r3, [r3]
 8008f44:	f7f7 f9c2 	bl	80002cc <__adddf3>
 8008f48:	4622      	mov	r2, r4
 8008f4a:	4606      	mov	r6, r0
 8008f4c:	460f      	mov	r7, r1
 8008f4e:	462b      	mov	r3, r5
 8008f50:	4620      	mov	r0, r4
 8008f52:	4629      	mov	r1, r5
 8008f54:	f7f7 fb70 	bl	8000638 <__aeabi_dmul>
 8008f58:	4602      	mov	r2, r0
 8008f5a:	460b      	mov	r3, r1
 8008f5c:	4630      	mov	r0, r6
 8008f5e:	4639      	mov	r1, r7
 8008f60:	f7f7 fb6a 	bl	8000638 <__aeabi_dmul>
 8008f64:	465a      	mov	r2, fp
 8008f66:	4604      	mov	r4, r0
 8008f68:	460d      	mov	r5, r1
 8008f6a:	464b      	mov	r3, r9
 8008f6c:	e9dd 0104 	ldrd	r0, r1, [sp, #16]
 8008f70:	f7f7 f9ac 	bl	80002cc <__adddf3>
 8008f74:	e9dd 2306 	ldrd	r2, r3, [sp, #24]
 8008f78:	f7f7 fb5e 	bl	8000638 <__aeabi_dmul>
 8008f7c:	4622      	mov	r2, r4
 8008f7e:	462b      	mov	r3, r5
 8008f80:	f7f7 f9a4 	bl	80002cc <__adddf3>
 8008f84:	465a      	mov	r2, fp
 8008f86:	e9cd 0108 	strd	r0, r1, [sp, #32]
 8008f8a:	464b      	mov	r3, r9
 8008f8c:	4658      	mov	r0, fp
 8008f8e:	4649      	mov	r1, r9
 8008f90:	f7f7 fb52 	bl	8000638 <__aeabi_dmul>
 8008f94:	4b6a      	ldr	r3, [pc, #424]	@ (8009140 <__ieee754_pow+0x790>)
 8008f96:	2200      	movs	r2, #0
 8008f98:	4606      	mov	r6, r0
 8008f9a:	460f      	mov	r7, r1
 8008f9c:	f7f7 f996 	bl	80002cc <__adddf3>
 8008fa0:	e9dd 2308 	ldrd	r2, r3, [sp, #32]
 8008fa4:	f7f7 f992 	bl	80002cc <__adddf3>
 8008fa8:	46d8      	mov	r8, fp
 8008faa:	e9dd bc0e 	ldrd	fp, ip, [sp, #56]	@ 0x38
 8008fae:	460d      	mov	r5, r1
 8008fb0:	465a      	mov	r2, fp
 8008fb2:	460b      	mov	r3, r1
 8008fb4:	4640      	mov	r0, r8
 8008fb6:	4649      	mov	r1, r9
 8008fb8:	e9cd bc0c 	strd	fp, ip, [sp, #48]	@ 0x30
 8008fbc:	f7f7 fb3c 	bl	8000638 <__aeabi_dmul>
 8008fc0:	465c      	mov	r4, fp
 8008fc2:	4680      	mov	r8, r0
 8008fc4:	4689      	mov	r9, r1
 8008fc6:	4b5e      	ldr	r3, [pc, #376]	@ (8009140 <__ieee754_pow+0x790>)
 8008fc8:	2200      	movs	r2, #0
 8008fca:	4620      	mov	r0, r4
 8008fcc:	4629      	mov	r1, r5
 8008fce:	f7f7 f97b 	bl	80002c8 <__aeabi_dsub>
 8008fd2:	4632      	mov	r2, r6
 8008fd4:	463b      	mov	r3, r7
 8008fd6:	f7f7 f977 	bl	80002c8 <__aeabi_dsub>
 8008fda:	4602      	mov	r2, r0
 8008fdc:	460b      	mov	r3, r1
 8008fde:	e9dd 0108 	ldrd	r0, r1, [sp, #32]
 8008fe2:	f7f7 f971 	bl	80002c8 <__aeabi_dsub>
 8008fe6:	e9dd 2304 	ldrd	r2, r3, [sp, #16]
 8008fea:	f7f7 fb25 	bl	8000638 <__aeabi_dmul>
 8008fee:	4622      	mov	r2, r4
 8008ff0:	4606      	mov	r6, r0
 8008ff2:	460f      	mov	r7, r1
 8008ff4:	462b      	mov	r3, r5
 8008ff6:	e9dd 0106 	ldrd	r0, r1, [sp, #24]
 8008ffa:	f7f7 fb1d 	bl	8000638 <__aeabi_dmul>
 8008ffe:	4602      	mov	r2, r0
 8009000:	460b      	mov	r3, r1
 8009002:	4630      	mov	r0, r6
 8009004:	4639      	mov	r1, r7
 8009006:	f7f7 f961 	bl	80002cc <__adddf3>
 800900a:	4606      	mov	r6, r0
 800900c:	460f      	mov	r7, r1
 800900e:	4602      	mov	r2, r0
 8009010:	460b      	mov	r3, r1
 8009012:	4640      	mov	r0, r8
 8009014:	4649      	mov	r1, r9
 8009016:	f7f7 f959 	bl	80002cc <__adddf3>
 800901a:	e9dd bc0c 	ldrd	fp, ip, [sp, #48]	@ 0x30
 800901e:	a33c      	add	r3, pc, #240	@ (adr r3, 8009110 <__ieee754_pow+0x760>)
 8009020:	e9d3 2300 	ldrd	r2, r3, [r3]
 8009024:	4658      	mov	r0, fp
 8009026:	e9cd bc08 	strd	fp, ip, [sp, #32]
 800902a:	460d      	mov	r5, r1
 800902c:	f7f7 fb04 	bl	8000638 <__aeabi_dmul>
 8009030:	465c      	mov	r4, fp
 8009032:	e9cd 0104 	strd	r0, r1, [sp, #16]
 8009036:	4642      	mov	r2, r8
 8009038:	464b      	mov	r3, r9
 800903a:	4620      	mov	r0, r4
 800903c:	4629      	mov	r1, r5
 800903e:	f7f7 f943 	bl	80002c8 <__aeabi_dsub>
 8009042:	4602      	mov	r2, r0
 8009044:	460b      	mov	r3, r1
 8009046:	4630      	mov	r0, r6
 8009048:	4639      	mov	r1, r7
 800904a:	f7f7 f93d 	bl	80002c8 <__aeabi_dsub>
 800904e:	a332      	add	r3, pc, #200	@ (adr r3, 8009118 <__ieee754_pow+0x768>)
 8009050:	e9d3 2300 	ldrd	r2, r3, [r3]
 8009054:	f7f7 faf0 	bl	8000638 <__aeabi_dmul>
 8009058:	a331      	add	r3, pc, #196	@ (adr r3, 8009120 <__ieee754_pow+0x770>)
 800905a:	e9d3 2300 	ldrd	r2, r3, [r3]
 800905e:	4606      	mov	r6, r0
 8009060:	460f      	mov	r7, r1
 8009062:	4620      	mov	r0, r4
 8009064:	4629      	mov	r1, r5
 8009066:	f7f7 fae7 	bl	8000638 <__aeabi_dmul>
 800906a:	4602      	mov	r2, r0
 800906c:	460b      	mov	r3, r1
 800906e:	4630      	mov	r0, r6
 8009070:	4639      	mov	r1, r7
 8009072:	f7f7 f92b 	bl	80002cc <__adddf3>
 8009076:	9a0b      	ldr	r2, [sp, #44]	@ 0x2c
 8009078:	4b32      	ldr	r3, [pc, #200]	@ (8009144 <__ieee754_pow+0x794>)
 800907a:	4413      	add	r3, r2
 800907c:	e9d3 2300 	ldrd	r2, r3, [r3]
 8009080:	f7f7 f924 	bl	80002cc <__adddf3>
 8009084:	e9cd 0106 	strd	r0, r1, [sp, #24]
 8009088:	980a      	ldr	r0, [sp, #40]	@ 0x28
 800908a:	f7f7 fa6b 	bl	8000564 <__aeabi_i2d>
 800908e:	9a0b      	ldr	r2, [sp, #44]	@ 0x2c
 8009090:	4b2d      	ldr	r3, [pc, #180]	@ (8009148 <__ieee754_pow+0x798>)
 8009092:	4413      	add	r3, r2
 8009094:	e9d3 8900 	ldrd	r8, r9, [r3]
 8009098:	4606      	mov	r6, r0
 800909a:	e9dd 2306 	ldrd	r2, r3, [sp, #24]
 800909e:	460f      	mov	r7, r1
 80090a0:	e9dd 0104 	ldrd	r0, r1, [sp, #16]
 80090a4:	f7f7 f912 	bl	80002cc <__adddf3>
 80090a8:	4642      	mov	r2, r8
 80090aa:	464b      	mov	r3, r9
 80090ac:	f7f7 f90e 	bl	80002cc <__adddf3>
 80090b0:	4632      	mov	r2, r6
 80090b2:	463b      	mov	r3, r7
 80090b4:	f7f7 f90a 	bl	80002cc <__adddf3>
 80090b8:	e9dd bc08 	ldrd	fp, ip, [sp, #32]
 80090bc:	4632      	mov	r2, r6
 80090be:	463b      	mov	r3, r7
 80090c0:	4658      	mov	r0, fp
 80090c2:	460d      	mov	r5, r1
 80090c4:	f7f7 f900 	bl	80002c8 <__aeabi_dsub>
 80090c8:	4642      	mov	r2, r8
 80090ca:	464b      	mov	r3, r9
 80090cc:	f7f7 f8fc 	bl	80002c8 <__aeabi_dsub>
 80090d0:	e9dd 2304 	ldrd	r2, r3, [sp, #16]
 80090d4:	f7f7 f8f8 	bl	80002c8 <__aeabi_dsub>
 80090d8:	465c      	mov	r4, fp
 80090da:	4602      	mov	r2, r0
 80090dc:	e036      	b.n	800914c <__ieee754_pow+0x79c>
 80090de:	bf00      	nop
 80090e0:	4a454eef 	.word	0x4a454eef
 80090e4:	3fca7e28 	.word	0x3fca7e28
 80090e8:	93c9db65 	.word	0x93c9db65
 80090ec:	3fcd864a 	.word	0x3fcd864a
 80090f0:	a91d4101 	.word	0xa91d4101
 80090f4:	3fd17460 	.word	0x3fd17460
 80090f8:	518f264d 	.word	0x518f264d
 80090fc:	3fd55555 	.word	0x3fd55555
 8009100:	db6fabff 	.word	0xdb6fabff
 8009104:	3fdb6db6 	.word	0x3fdb6db6
 8009108:	33333303 	.word	0x33333303
 800910c:	3fe33333 	.word	0x3fe33333
 8009110:	e0000000 	.word	0xe0000000
 8009114:	3feec709 	.word	0x3feec709
 8009118:	dc3a03fd 	.word	0xdc3a03fd
 800911c:	3feec709 	.word	0x3feec709
 8009120:	145b01f5 	.word	0x145b01f5
 8009124:	be3e2fe0 	.word	0xbe3e2fe0
 8009128:	7ff00000 	.word	0x7ff00000
 800912c:	43400000 	.word	0x43400000
 8009130:	0003988e 	.word	0x0003988e
 8009134:	000bb679 	.word	0x000bb679
 8009138:	08009c98 	.word	0x08009c98
 800913c:	3ff00000 	.word	0x3ff00000
 8009140:	40080000 	.word	0x40080000
 8009144:	08009c78 	.word	0x08009c78
 8009148:	08009c88 	.word	0x08009c88
 800914c:	460b      	mov	r3, r1
 800914e:	e9dd 0106 	ldrd	r0, r1, [sp, #24]
 8009152:	e5d7      	b.n	8008d04 <__ieee754_pow+0x354>
 8009154:	f04f 0a01 	mov.w	sl, #1
 8009158:	e65e      	b.n	8008e18 <__ieee754_pow+0x468>
 800915a:	a3b4      	add	r3, pc, #720	@ (adr r3, 800942c <__ieee754_pow+0xa7c>)
 800915c:	e9d3 2300 	ldrd	r2, r3, [r3]
 8009160:	4630      	mov	r0, r6
 8009162:	4639      	mov	r1, r7
 8009164:	f7f7 f8b2 	bl	80002cc <__adddf3>
 8009168:	4642      	mov	r2, r8
 800916a:	e9cd 0100 	strd	r0, r1, [sp]
 800916e:	464b      	mov	r3, r9
 8009170:	4620      	mov	r0, r4
 8009172:	4629      	mov	r1, r5
 8009174:	f7f7 f8a8 	bl	80002c8 <__aeabi_dsub>
 8009178:	4602      	mov	r2, r0
 800917a:	460b      	mov	r3, r1
 800917c:	e9dd 0100 	ldrd	r0, r1, [sp]
 8009180:	f7f7 fcea 	bl	8000b58 <__aeabi_dcmpgt>
 8009184:	2800      	cmp	r0, #0
 8009186:	f47f ae00 	bne.w	8008d8a <__ieee754_pow+0x3da>
 800918a:	ea4f 5a2a 	mov.w	sl, sl, asr #20
 800918e:	f44f 1380 	mov.w	r3, #1048576	@ 0x100000
 8009192:	f2aa 3afe 	subw	sl, sl, #1022	@ 0x3fe
 8009196:	fa43 fa0a 	asr.w	sl, r3, sl
 800919a:	44da      	add	sl, fp
 800919c:	f3ca 510a 	ubfx	r1, sl, #20, #11
 80091a0:	489d      	ldr	r0, [pc, #628]	@ (8009418 <__ieee754_pow+0xa68>)
 80091a2:	f2a1 31ff 	subw	r1, r1, #1023	@ 0x3ff
 80091a6:	4108      	asrs	r0, r1
 80091a8:	ea00 030a 	and.w	r3, r0, sl
 80091ac:	f3ca 0a13 	ubfx	sl, sl, #0, #20
 80091b0:	f1c1 0114 	rsb	r1, r1, #20
 80091b4:	f44a 1a80 	orr.w	sl, sl, #1048576	@ 0x100000
 80091b8:	fa4a fa01 	asr.w	sl, sl, r1
 80091bc:	f1bb 0f00 	cmp.w	fp, #0
 80091c0:	4640      	mov	r0, r8
 80091c2:	4649      	mov	r1, r9
 80091c4:	f04f 0200 	mov.w	r2, #0
 80091c8:	bfb8      	it	lt
 80091ca:	f1ca 0a00 	rsblt	sl, sl, #0
 80091ce:	f7f7 f87b 	bl	80002c8 <__aeabi_dsub>
 80091d2:	4680      	mov	r8, r0
 80091d4:	4689      	mov	r9, r1
 80091d6:	4632      	mov	r2, r6
 80091d8:	463b      	mov	r3, r7
 80091da:	4640      	mov	r0, r8
 80091dc:	4649      	mov	r1, r9
 80091de:	f7f7 f875 	bl	80002cc <__adddf3>
 80091e2:	2400      	movs	r4, #0
 80091e4:	a37c      	add	r3, pc, #496	@ (adr r3, 80093d8 <__ieee754_pow+0xa28>)
 80091e6:	e9d3 2300 	ldrd	r2, r3, [r3]
 80091ea:	4620      	mov	r0, r4
 80091ec:	460d      	mov	r5, r1
 80091ee:	f7f7 fa23 	bl	8000638 <__aeabi_dmul>
 80091f2:	4642      	mov	r2, r8
 80091f4:	e9cd 0100 	strd	r0, r1, [sp]
 80091f8:	464b      	mov	r3, r9
 80091fa:	4620      	mov	r0, r4
 80091fc:	4629      	mov	r1, r5
 80091fe:	f7f7 f863 	bl	80002c8 <__aeabi_dsub>
 8009202:	4602      	mov	r2, r0
 8009204:	460b      	mov	r3, r1
 8009206:	4630      	mov	r0, r6
 8009208:	4639      	mov	r1, r7
 800920a:	f7f7 f85d 	bl	80002c8 <__aeabi_dsub>
 800920e:	a374      	add	r3, pc, #464	@ (adr r3, 80093e0 <__ieee754_pow+0xa30>)
 8009210:	e9d3 2300 	ldrd	r2, r3, [r3]
 8009214:	f7f7 fa10 	bl	8000638 <__aeabi_dmul>
 8009218:	a373      	add	r3, pc, #460	@ (adr r3, 80093e8 <__ieee754_pow+0xa38>)
 800921a:	e9d3 2300 	ldrd	r2, r3, [r3]
 800921e:	4680      	mov	r8, r0
 8009220:	4689      	mov	r9, r1
 8009222:	4620      	mov	r0, r4
 8009224:	4629      	mov	r1, r5
 8009226:	f7f7 fa07 	bl	8000638 <__aeabi_dmul>
 800922a:	4602      	mov	r2, r0
 800922c:	460b      	mov	r3, r1
 800922e:	4640      	mov	r0, r8
 8009230:	4649      	mov	r1, r9
 8009232:	f7f7 f84b 	bl	80002cc <__adddf3>
 8009236:	4604      	mov	r4, r0
 8009238:	460d      	mov	r5, r1
 800923a:	4602      	mov	r2, r0
 800923c:	460b      	mov	r3, r1
 800923e:	e9dd 0100 	ldrd	r0, r1, [sp]
 8009242:	f7f7 f843 	bl	80002cc <__adddf3>
 8009246:	e9dd 2300 	ldrd	r2, r3, [sp]
 800924a:	4680      	mov	r8, r0
 800924c:	4689      	mov	r9, r1
 800924e:	f7f7 f83b 	bl	80002c8 <__aeabi_dsub>
 8009252:	4602      	mov	r2, r0
 8009254:	460b      	mov	r3, r1
 8009256:	4620      	mov	r0, r4
 8009258:	4629      	mov	r1, r5
 800925a:	f7f7 f835 	bl	80002c8 <__aeabi_dsub>
 800925e:	4642      	mov	r2, r8
 8009260:	4606      	mov	r6, r0
 8009262:	460f      	mov	r7, r1
 8009264:	464b      	mov	r3, r9
 8009266:	4640      	mov	r0, r8
 8009268:	4649      	mov	r1, r9
 800926a:	f7f7 f9e5 	bl	8000638 <__aeabi_dmul>
 800926e:	a360      	add	r3, pc, #384	@ (adr r3, 80093f0 <__ieee754_pow+0xa40>)
 8009270:	e9d3 2300 	ldrd	r2, r3, [r3]
 8009274:	4604      	mov	r4, r0
 8009276:	460d      	mov	r5, r1
 8009278:	f7f7 f9de 	bl	8000638 <__aeabi_dmul>
 800927c:	a35e      	add	r3, pc, #376	@ (adr r3, 80093f8 <__ieee754_pow+0xa48>)
 800927e:	e9d3 2300 	ldrd	r2, r3, [r3]
 8009282:	f7f7 f821 	bl	80002c8 <__aeabi_dsub>
 8009286:	4622      	mov	r2, r4
 8009288:	462b      	mov	r3, r5
 800928a:	f7f7 f9d5 	bl	8000638 <__aeabi_dmul>
 800928e:	a35c      	add	r3, pc, #368	@ (adr r3, 8009400 <__ieee754_pow+0xa50>)
 8009290:	e9d3 2300 	ldrd	r2, r3, [r3]
 8009294:	f7f7 f81a 	bl	80002cc <__adddf3>
 8009298:	4622      	mov	r2, r4
 800929a:	462b      	mov	r3, r5
 800929c:	f7f7 f9cc 	bl	8000638 <__aeabi_dmul>
 80092a0:	a359      	add	r3, pc, #356	@ (adr r3, 8009408 <__ieee754_pow+0xa58>)
 80092a2:	e9d3 2300 	ldrd	r2, r3, [r3]
 80092a6:	f7f7 f80f 	bl	80002c8 <__aeabi_dsub>
 80092aa:	4622      	mov	r2, r4
 80092ac:	462b      	mov	r3, r5
 80092ae:	f7f7 f9c3 	bl	8000638 <__aeabi_dmul>
 80092b2:	a357      	add	r3, pc, #348	@ (adr r3, 8009410 <__ieee754_pow+0xa60>)
 80092b4:	e9d3 2300 	ldrd	r2, r3, [r3]
 80092b8:	f7f7 f808 	bl	80002cc <__adddf3>
 80092bc:	4622      	mov	r2, r4
 80092be:	462b      	mov	r3, r5
 80092c0:	f7f7 f9ba 	bl	8000638 <__aeabi_dmul>
 80092c4:	4602      	mov	r2, r0
 80092c6:	460b      	mov	r3, r1
 80092c8:	4640      	mov	r0, r8
 80092ca:	4649      	mov	r1, r9
 80092cc:	f7f6 fffc 	bl	80002c8 <__aeabi_dsub>
 80092d0:	4604      	mov	r4, r0
 80092d2:	460d      	mov	r5, r1
 80092d4:	4602      	mov	r2, r0
 80092d6:	460b      	mov	r3, r1
 80092d8:	4640      	mov	r0, r8
 80092da:	4649      	mov	r1, r9
 80092dc:	f7f7 f9ac 	bl	8000638 <__aeabi_dmul>
 80092e0:	2200      	movs	r2, #0
 80092e2:	e9cd 0100 	strd	r0, r1, [sp]
 80092e6:	f04f 4380 	mov.w	r3, #1073741824	@ 0x40000000
 80092ea:	4620      	mov	r0, r4
 80092ec:	4629      	mov	r1, r5
 80092ee:	f7f6 ffeb 	bl	80002c8 <__aeabi_dsub>
 80092f2:	4602      	mov	r2, r0
 80092f4:	460b      	mov	r3, r1
 80092f6:	e9dd 0100 	ldrd	r0, r1, [sp]
 80092fa:	f7f7 fac7 	bl	800088c <__aeabi_ddiv>
 80092fe:	4632      	mov	r2, r6
 8009300:	4604      	mov	r4, r0
 8009302:	460d      	mov	r5, r1
 8009304:	463b      	mov	r3, r7
 8009306:	4640      	mov	r0, r8
 8009308:	4649      	mov	r1, r9
 800930a:	f7f7 f995 	bl	8000638 <__aeabi_dmul>
 800930e:	4632      	mov	r2, r6
 8009310:	463b      	mov	r3, r7
 8009312:	f7f6 ffdb 	bl	80002cc <__adddf3>
 8009316:	4602      	mov	r2, r0
 8009318:	460b      	mov	r3, r1
 800931a:	4620      	mov	r0, r4
 800931c:	4629      	mov	r1, r5
 800931e:	f7f6 ffd3 	bl	80002c8 <__aeabi_dsub>
 8009322:	4642      	mov	r2, r8
 8009324:	464b      	mov	r3, r9
 8009326:	f7f6 ffcf 	bl	80002c8 <__aeabi_dsub>
 800932a:	460b      	mov	r3, r1
 800932c:	4602      	mov	r2, r0
 800932e:	493b      	ldr	r1, [pc, #236]	@ (800941c <__ieee754_pow+0xa6c>)
 8009330:	2000      	movs	r0, #0
 8009332:	f7f6 ffc9 	bl	80002c8 <__aeabi_dsub>
 8009336:	ec41 0b10 	vmov	d0, r0, r1
 800933a:	ee10 3a90 	vmov	r3, s1
 800933e:	eb03 530a 	add.w	r3, r3, sl, lsl #20
 8009342:	f5b3 1f80 	cmp.w	r3, #1048576	@ 0x100000
 8009346:	da30      	bge.n	80093aa <__ieee754_pow+0x9fa>
 8009348:	4650      	mov	r0, sl
 800934a:	f000 f8b9 	bl	80094c0 <scalbn>
 800934e:	ec51 0b10 	vmov	r0, r1, d0
 8009352:	e9dd 2302 	ldrd	r2, r3, [sp, #8]
 8009356:	f7ff bbd2 	b.w	8008afe <__ieee754_pow+0x14e>
 800935a:	4c31      	ldr	r4, [pc, #196]	@ (8009420 <__ieee754_pow+0xa70>)
 800935c:	f021 4300 	bic.w	r3, r1, #2147483648	@ 0x80000000
 8009360:	42a3      	cmp	r3, r4
 8009362:	d91a      	bls.n	800939a <__ieee754_pow+0x9ea>
 8009364:	4b2f      	ldr	r3, [pc, #188]	@ (8009424 <__ieee754_pow+0xa74>)
 8009366:	440b      	add	r3, r1
 8009368:	4303      	orrs	r3, r0
 800936a:	d009      	beq.n	8009380 <__ieee754_pow+0x9d0>
 800936c:	e9dd 0102 	ldrd	r0, r1, [sp, #8]
 8009370:	2200      	movs	r2, #0
 8009372:	2300      	movs	r3, #0
 8009374:	f7f7 fbd2 	bl	8000b1c <__aeabi_dcmplt>
 8009378:	3800      	subs	r0, #0
 800937a:	bf18      	it	ne
 800937c:	2001      	movne	r0, #1
 800937e:	e42b      	b.n	8008bd8 <__ieee754_pow+0x228>
 8009380:	4642      	mov	r2, r8
 8009382:	464b      	mov	r3, r9
 8009384:	f7f6 ffa0 	bl	80002c8 <__aeabi_dsub>
 8009388:	4632      	mov	r2, r6
 800938a:	463b      	mov	r3, r7
 800938c:	f7f7 fbda 	bl	8000b44 <__aeabi_dcmpge>
 8009390:	2800      	cmp	r0, #0
 8009392:	d1eb      	bne.n	800936c <__ieee754_pow+0x9bc>
 8009394:	f8df a09c 	ldr.w	sl, [pc, #156]	@ 8009434 <__ieee754_pow+0xa84>
 8009398:	e6f7      	b.n	800918a <__ieee754_pow+0x7da>
 800939a:	469a      	mov	sl, r3
 800939c:	4b22      	ldr	r3, [pc, #136]	@ (8009428 <__ieee754_pow+0xa78>)
 800939e:	459a      	cmp	sl, r3
 80093a0:	f63f aef3 	bhi.w	800918a <__ieee754_pow+0x7da>
 80093a4:	f8dd a010 	ldr.w	sl, [sp, #16]
 80093a8:	e715      	b.n	80091d6 <__ieee754_pow+0x826>
 80093aa:	ec51 0b10 	vmov	r0, r1, d0
 80093ae:	4619      	mov	r1, r3
 80093b0:	e7cf      	b.n	8009352 <__ieee754_pow+0x9a2>
 80093b2:	491a      	ldr	r1, [pc, #104]	@ (800941c <__ieee754_pow+0xa6c>)
 80093b4:	2000      	movs	r0, #0
 80093b6:	f7ff bb18 	b.w	80089ea <__ieee754_pow+0x3a>
 80093ba:	2000      	movs	r0, #0
 80093bc:	2100      	movs	r1, #0
 80093be:	f7ff bb14 	b.w	80089ea <__ieee754_pow+0x3a>
 80093c2:	4630      	mov	r0, r6
 80093c4:	4639      	mov	r1, r7
 80093c6:	f7ff bb10 	b.w	80089ea <__ieee754_pow+0x3a>
 80093ca:	460c      	mov	r4, r1
 80093cc:	f7ff bb5e 	b.w	8008a8c <__ieee754_pow+0xdc>
 80093d0:	2400      	movs	r4, #0
 80093d2:	f7ff bb49 	b.w	8008a68 <__ieee754_pow+0xb8>
 80093d6:	bf00      	nop
 80093d8:	00000000 	.word	0x00000000
 80093dc:	3fe62e43 	.word	0x3fe62e43
 80093e0:	fefa39ef 	.word	0xfefa39ef
 80093e4:	3fe62e42 	.word	0x3fe62e42
 80093e8:	0ca86c39 	.word	0x0ca86c39
 80093ec:	be205c61 	.word	0xbe205c61
 80093f0:	72bea4d0 	.word	0x72bea4d0
 80093f4:	3e663769 	.word	0x3e663769
 80093f8:	c5d26bf1 	.word	0xc5d26bf1
 80093fc:	3ebbbd41 	.word	0x3ebbbd41
 8009400:	af25de2c 	.word	0xaf25de2c
 8009404:	3f11566a 	.word	0x3f11566a
 8009408:	16bebd93 	.word	0x16bebd93
 800940c:	3f66c16c 	.word	0x3f66c16c
 8009410:	5555553e 	.word	0x5555553e
 8009414:	3fc55555 	.word	0x3fc55555
 8009418:	fff00000 	.word	0xfff00000
 800941c:	3ff00000 	.word	0x3ff00000
 8009420:	4090cbff 	.word	0x4090cbff
 8009424:	3f6f3400 	.word	0x3f6f3400
 8009428:	3fe00000 	.word	0x3fe00000
 800942c:	652b82fe 	.word	0x652b82fe
 8009430:	3c971547 	.word	0x3c971547
 8009434:	4090cc00 	.word	0x4090cc00

08009438 <with_errno>:
 8009438:	b510      	push	{r4, lr}
 800943a:	ed2d 8b02 	vpush	{d8}
 800943e:	eeb0 8a40 	vmov.f32	s16, s0
 8009442:	eef0 8a60 	vmov.f32	s17, s1
 8009446:	4604      	mov	r4, r0
 8009448:	f7fd f932 	bl	80066b0 <__errno>
 800944c:	eeb0 0a48 	vmov.f32	s0, s16
 8009450:	eef0 0a68 	vmov.f32	s1, s17
 8009454:	ecbd 8b02 	vpop	{d8}
 8009458:	6004      	str	r4, [r0, #0]
 800945a:	bd10      	pop	{r4, pc}

0800945c <xflow>:
 800945c:	4603      	mov	r3, r0
 800945e:	b507      	push	{r0, r1, r2, lr}
 8009460:	ec51 0b10 	vmov	r0, r1, d0
 8009464:	b183      	cbz	r3, 8009488 <xflow+0x2c>
 8009466:	4602      	mov	r2, r0
 8009468:	f101 4300 	add.w	r3, r1, #2147483648	@ 0x80000000
 800946c:	e9cd 2300 	strd	r2, r3, [sp]
 8009470:	e9dd 2300 	ldrd	r2, r3, [sp]
 8009474:	f7f7 f8e0 	bl	8000638 <__aeabi_dmul>
 8009478:	ec41 0b10 	vmov	d0, r0, r1
 800947c:	2022      	movs	r0, #34	@ 0x22
 800947e:	b003      	add	sp, #12
 8009480:	f85d eb04 	ldr.w	lr, [sp], #4
 8009484:	f7ff bfd8 	b.w	8009438 <with_errno>
 8009488:	4602      	mov	r2, r0
 800948a:	460b      	mov	r3, r1
 800948c:	e7ee      	b.n	800946c <xflow+0x10>
	...

08009490 <__math_uflow>:
 8009490:	ed9f 0b01 	vldr	d0, [pc, #4]	@ 8009498 <__math_uflow+0x8>
 8009494:	f7ff bfe2 	b.w	800945c <xflow>
 8009498:	00000000 	.word	0x00000000
 800949c:	10000000 	.word	0x10000000

080094a0 <__math_oflow>:
 80094a0:	ed9f 0b01 	vldr	d0, [pc, #4]	@ 80094a8 <__math_oflow+0x8>
 80094a4:	f7ff bfda 	b.w	800945c <xflow>
 80094a8:	00000000 	.word	0x00000000
 80094ac:	70000000 	.word	0x70000000

080094b0 <fabs>:
 80094b0:	ec51 0b10 	vmov	r0, r1, d0
 80094b4:	4602      	mov	r2, r0
 80094b6:	f021 4300 	bic.w	r3, r1, #2147483648	@ 0x80000000
 80094ba:	ec43 2b10 	vmov	d0, r2, r3
 80094be:	4770      	bx	lr

080094c0 <scalbn>:
 80094c0:	b570      	push	{r4, r5, r6, lr}
 80094c2:	ec55 4b10 	vmov	r4, r5, d0
 80094c6:	f3c5 510a 	ubfx	r1, r5, #20, #11
 80094ca:	4606      	mov	r6, r0
 80094cc:	462b      	mov	r3, r5
 80094ce:	b991      	cbnz	r1, 80094f6 <scalbn+0x36>
 80094d0:	f025 4300 	bic.w	r3, r5, #2147483648	@ 0x80000000
 80094d4:	4323      	orrs	r3, r4
 80094d6:	d03d      	beq.n	8009554 <scalbn+0x94>
 80094d8:	4b35      	ldr	r3, [pc, #212]	@ (80095b0 <scalbn+0xf0>)
 80094da:	4620      	mov	r0, r4
 80094dc:	4629      	mov	r1, r5
 80094de:	2200      	movs	r2, #0
 80094e0:	f7f7 f8aa 	bl	8000638 <__aeabi_dmul>
 80094e4:	4b33      	ldr	r3, [pc, #204]	@ (80095b4 <scalbn+0xf4>)
 80094e6:	429e      	cmp	r6, r3
 80094e8:	4604      	mov	r4, r0
 80094ea:	460d      	mov	r5, r1
 80094ec:	da0f      	bge.n	800950e <scalbn+0x4e>
 80094ee:	a328      	add	r3, pc, #160	@ (adr r3, 8009590 <scalbn+0xd0>)
 80094f0:	e9d3 2300 	ldrd	r2, r3, [r3]
 80094f4:	e01e      	b.n	8009534 <scalbn+0x74>
 80094f6:	f240 72ff 	movw	r2, #2047	@ 0x7ff
 80094fa:	4291      	cmp	r1, r2
 80094fc:	d10b      	bne.n	8009516 <scalbn+0x56>
 80094fe:	4622      	mov	r2, r4
 8009500:	4620      	mov	r0, r4
 8009502:	4629      	mov	r1, r5
 8009504:	f7f6 fee2 	bl	80002cc <__adddf3>
 8009508:	4604      	mov	r4, r0
 800950a:	460d      	mov	r5, r1
 800950c:	e022      	b.n	8009554 <scalbn+0x94>
 800950e:	460b      	mov	r3, r1
 8009510:	f3c1 510a 	ubfx	r1, r1, #20, #11
 8009514:	3936      	subs	r1, #54	@ 0x36
 8009516:	f24c 3250 	movw	r2, #50000	@ 0xc350
 800951a:	4296      	cmp	r6, r2
 800951c:	dd0d      	ble.n	800953a <scalbn+0x7a>
 800951e:	2d00      	cmp	r5, #0
 8009520:	a11d      	add	r1, pc, #116	@ (adr r1, 8009598 <scalbn+0xd8>)
 8009522:	e9d1 0100 	ldrd	r0, r1, [r1]
 8009526:	da02      	bge.n	800952e <scalbn+0x6e>
 8009528:	a11d      	add	r1, pc, #116	@ (adr r1, 80095a0 <scalbn+0xe0>)
 800952a:	e9d1 0100 	ldrd	r0, r1, [r1]
 800952e:	a31a      	add	r3, pc, #104	@ (adr r3, 8009598 <scalbn+0xd8>)
 8009530:	e9d3 2300 	ldrd	r2, r3, [r3]
 8009534:	f7f7 f880 	bl	8000638 <__aeabi_dmul>
 8009538:	e7e6      	b.n	8009508 <scalbn+0x48>
 800953a:	1872      	adds	r2, r6, r1
 800953c:	f240 71fe 	movw	r1, #2046	@ 0x7fe
 8009540:	428a      	cmp	r2, r1
 8009542:	dcec      	bgt.n	800951e <scalbn+0x5e>
 8009544:	2a00      	cmp	r2, #0
 8009546:	dd08      	ble.n	800955a <scalbn+0x9a>
 8009548:	f023 43ff 	bic.w	r3, r3, #2139095040	@ 0x7f800000
 800954c:	f423 03e0 	bic.w	r3, r3, #7340032	@ 0x700000
 8009550:	ea43 5502 	orr.w	r5, r3, r2, lsl #20
 8009554:	ec45 4b10 	vmov	d0, r4, r5
 8009558:	bd70      	pop	{r4, r5, r6, pc}
 800955a:	f112 0f35 	cmn.w	r2, #53	@ 0x35
 800955e:	da08      	bge.n	8009572 <scalbn+0xb2>
 8009560:	2d00      	cmp	r5, #0
 8009562:	a10b      	add	r1, pc, #44	@ (adr r1, 8009590 <scalbn+0xd0>)
 8009564:	e9d1 0100 	ldrd	r0, r1, [r1]
 8009568:	dac1      	bge.n	80094ee <scalbn+0x2e>
 800956a:	a10f      	add	r1, pc, #60	@ (adr r1, 80095a8 <scalbn+0xe8>)
 800956c:	e9d1 0100 	ldrd	r0, r1, [r1]
 8009570:	e7bd      	b.n	80094ee <scalbn+0x2e>
 8009572:	f023 43ff 	bic.w	r3, r3, #2139095040	@ 0x7f800000
 8009576:	3236      	adds	r2, #54	@ 0x36
 8009578:	f423 03e0 	bic.w	r3, r3, #7340032	@ 0x700000
 800957c:	ea43 5502 	orr.w	r5, r3, r2, lsl #20
 8009580:	4620      	mov	r0, r4
 8009582:	4b0d      	ldr	r3, [pc, #52]	@ (80095b8 <scalbn+0xf8>)
 8009584:	4629      	mov	r1, r5
 8009586:	2200      	movs	r2, #0
 8009588:	e7d4      	b.n	8009534 <scalbn+0x74>
 800958a:	bf00      	nop
 800958c:	f3af 8000 	nop.w
 8009590:	c2f8f359 	.word	0xc2f8f359
 8009594:	01a56e1f 	.word	0x01a56e1f
 8009598:	8800759c 	.word	0x8800759c
 800959c:	7e37e43c 	.word	0x7e37e43c
 80095a0:	8800759c 	.word	0x8800759c
 80095a4:	fe37e43c 	.word	0xfe37e43c
 80095a8:	c2f8f359 	.word	0xc2f8f359
 80095ac:	81a56e1f 	.word	0x81a56e1f
 80095b0:	43500000 	.word	0x43500000
 80095b4:	ffff3cb0 	.word	0xffff3cb0
 80095b8:	3c900000 	.word	0x3c900000

080095bc <__ieee754_sqrt>:
 80095bc:	e92d 4ff8 	stmdb	sp!, {r3, r4, r5, r6, r7, r8, r9, sl, fp, lr}
 80095c0:	4a68      	ldr	r2, [pc, #416]	@ (8009764 <__ieee754_sqrt+0x1a8>)
 80095c2:	ec55 4b10 	vmov	r4, r5, d0
 80095c6:	43aa      	bics	r2, r5
 80095c8:	462b      	mov	r3, r5
 80095ca:	4621      	mov	r1, r4
 80095cc:	d110      	bne.n	80095f0 <__ieee754_sqrt+0x34>
 80095ce:	4622      	mov	r2, r4
 80095d0:	4620      	mov	r0, r4
 80095d2:	4629      	mov	r1, r5
 80095d4:	f7f7 f830 	bl	8000638 <__aeabi_dmul>
 80095d8:	4602      	mov	r2, r0
 80095da:	460b      	mov	r3, r1
 80095dc:	4620      	mov	r0, r4
 80095de:	4629      	mov	r1, r5
 80095e0:	f7f6 fe74 	bl	80002cc <__adddf3>
 80095e4:	4604      	mov	r4, r0
 80095e6:	460d      	mov	r5, r1
 80095e8:	ec45 4b10 	vmov	d0, r4, r5
 80095ec:	e8bd 8ff8 	ldmia.w	sp!, {r3, r4, r5, r6, r7, r8, r9, sl, fp, pc}
 80095f0:	2d00      	cmp	r5, #0
 80095f2:	dc0e      	bgt.n	8009612 <__ieee754_sqrt+0x56>
 80095f4:	f025 4200 	bic.w	r2, r5, #2147483648	@ 0x80000000
 80095f8:	4322      	orrs	r2, r4
 80095fa:	d0f5      	beq.n	80095e8 <__ieee754_sqrt+0x2c>
 80095fc:	b19d      	cbz	r5, 8009626 <__ieee754_sqrt+0x6a>
 80095fe:	4622      	mov	r2, r4
 8009600:	4620      	mov	r0, r4
 8009602:	4629      	mov	r1, r5
 8009604:	f7f6 fe60 	bl	80002c8 <__aeabi_dsub>
 8009608:	4602      	mov	r2, r0
 800960a:	460b      	mov	r3, r1
 800960c:	f7f7 f93e 	bl	800088c <__aeabi_ddiv>
 8009610:	e7e8      	b.n	80095e4 <__ieee754_sqrt+0x28>
 8009612:	152a      	asrs	r2, r5, #20
 8009614:	d115      	bne.n	8009642 <__ieee754_sqrt+0x86>
 8009616:	2000      	movs	r0, #0
 8009618:	e009      	b.n	800962e <__ieee754_sqrt+0x72>
 800961a:	0acb      	lsrs	r3, r1, #11
 800961c:	3a15      	subs	r2, #21
 800961e:	0549      	lsls	r1, r1, #21
 8009620:	2b00      	cmp	r3, #0
 8009622:	d0fa      	beq.n	800961a <__ieee754_sqrt+0x5e>
 8009624:	e7f7      	b.n	8009616 <__ieee754_sqrt+0x5a>
 8009626:	462a      	mov	r2, r5
 8009628:	e7fa      	b.n	8009620 <__ieee754_sqrt+0x64>
 800962a:	005b      	lsls	r3, r3, #1
 800962c:	3001      	adds	r0, #1
 800962e:	02dc      	lsls	r4, r3, #11
 8009630:	d5fb      	bpl.n	800962a <__ieee754_sqrt+0x6e>
 8009632:	1e44      	subs	r4, r0, #1
 8009634:	1b12      	subs	r2, r2, r4
 8009636:	f1c0 0420 	rsb	r4, r0, #32
 800963a:	fa21 f404 	lsr.w	r4, r1, r4
 800963e:	4323      	orrs	r3, r4
 8009640:	4081      	lsls	r1, r0
 8009642:	f3c3 0313 	ubfx	r3, r3, #0, #20
 8009646:	f2a2 35ff 	subw	r5, r2, #1023	@ 0x3ff
 800964a:	f443 1380 	orr.w	r3, r3, #1048576	@ 0x100000
 800964e:	07d2      	lsls	r2, r2, #31
 8009650:	bf5c      	itt	pl
 8009652:	005b      	lslpl	r3, r3, #1
 8009654:	eb03 73d1 	addpl.w	r3, r3, r1, lsr #31
 8009658:	ea4f 0343 	mov.w	r3, r3, lsl #1
 800965c:	bf58      	it	pl
 800965e:	0049      	lslpl	r1, r1, #1
 8009660:	2600      	movs	r6, #0
 8009662:	eb03 73d1 	add.w	r3, r3, r1, lsr #31
 8009666:	106d      	asrs	r5, r5, #1
 8009668:	0049      	lsls	r1, r1, #1
 800966a:	2016      	movs	r0, #22
 800966c:	4632      	mov	r2, r6
 800966e:	f44f 1400 	mov.w	r4, #2097152	@ 0x200000
 8009672:	1917      	adds	r7, r2, r4
 8009674:	429f      	cmp	r7, r3
 8009676:	bfde      	ittt	le
 8009678:	193a      	addle	r2, r7, r4
 800967a:	1bdb      	suble	r3, r3, r7
 800967c:	1936      	addle	r6, r6, r4
 800967e:	0fcf      	lsrs	r7, r1, #31
 8009680:	3801      	subs	r0, #1
 8009682:	eb07 0343 	add.w	r3, r7, r3, lsl #1
 8009686:	ea4f 0141 	mov.w	r1, r1, lsl #1
 800968a:	ea4f 0454 	mov.w	r4, r4, lsr #1
 800968e:	d1f0      	bne.n	8009672 <__ieee754_sqrt+0xb6>
 8009690:	4604      	mov	r4, r0
 8009692:	2720      	movs	r7, #32
 8009694:	f04f 4c00 	mov.w	ip, #2147483648	@ 0x80000000
 8009698:	429a      	cmp	r2, r3
 800969a:	eb00 0e0c 	add.w	lr, r0, ip
 800969e:	db02      	blt.n	80096a6 <__ieee754_sqrt+0xea>
 80096a0:	d113      	bne.n	80096ca <__ieee754_sqrt+0x10e>
 80096a2:	458e      	cmp	lr, r1
 80096a4:	d811      	bhi.n	80096ca <__ieee754_sqrt+0x10e>
 80096a6:	f1be 0f00 	cmp.w	lr, #0
 80096aa:	eb0e 000c 	add.w	r0, lr, ip
 80096ae:	da42      	bge.n	8009736 <__ieee754_sqrt+0x17a>
 80096b0:	2800      	cmp	r0, #0
 80096b2:	db40      	blt.n	8009736 <__ieee754_sqrt+0x17a>
 80096b4:	f102 0801 	add.w	r8, r2, #1
 80096b8:	1a9b      	subs	r3, r3, r2
 80096ba:	458e      	cmp	lr, r1
 80096bc:	bf88      	it	hi
 80096be:	f103 33ff 	addhi.w	r3, r3, #4294967295	@ 0xffffffff
 80096c2:	eba1 010e 	sub.w	r1, r1, lr
 80096c6:	4464      	add	r4, ip
 80096c8:	4642      	mov	r2, r8
 80096ca:	ea4f 7ed1 	mov.w	lr, r1, lsr #31
 80096ce:	3f01      	subs	r7, #1
 80096d0:	eb0e 0343 	add.w	r3, lr, r3, lsl #1
 80096d4:	ea4f 0141 	mov.w	r1, r1, lsl #1
 80096d8:	ea4f 0c5c 	mov.w	ip, ip, lsr #1
 80096dc:	d1dc      	bne.n	8009698 <__ieee754_sqrt+0xdc>
 80096de:	4319      	orrs	r1, r3
 80096e0:	d01b      	beq.n	800971a <__ieee754_sqrt+0x15e>
 80096e2:	f8df a084 	ldr.w	sl, [pc, #132]	@ 8009768 <__ieee754_sqrt+0x1ac>
 80096e6:	f8df b084 	ldr.w	fp, [pc, #132]	@ 800976c <__ieee754_sqrt+0x1b0>
 80096ea:	e9da 0100 	ldrd	r0, r1, [sl]
 80096ee:	e9db 2300 	ldrd	r2, r3, [fp]
 80096f2:	f7f6 fde9 	bl	80002c8 <__aeabi_dsub>
 80096f6:	e9da 8900 	ldrd	r8, r9, [sl]
 80096fa:	4602      	mov	r2, r0
 80096fc:	460b      	mov	r3, r1
 80096fe:	4640      	mov	r0, r8
 8009700:	4649      	mov	r1, r9
 8009702:	f7f7 fa15 	bl	8000b30 <__aeabi_dcmple>
 8009706:	b140      	cbz	r0, 800971a <__ieee754_sqrt+0x15e>
 8009708:	f1b4 3fff 	cmp.w	r4, #4294967295	@ 0xffffffff
 800970c:	e9da 0100 	ldrd	r0, r1, [sl]
 8009710:	e9db 2300 	ldrd	r2, r3, [fp]
 8009714:	d111      	bne.n	800973a <__ieee754_sqrt+0x17e>
 8009716:	3601      	adds	r6, #1
 8009718:	463c      	mov	r4, r7
 800971a:	1072      	asrs	r2, r6, #1
 800971c:	0863      	lsrs	r3, r4, #1
 800971e:	07f1      	lsls	r1, r6, #31
 8009720:	f102 527f 	add.w	r2, r2, #1069547520	@ 0x3fc00000
 8009724:	f502 1200 	add.w	r2, r2, #2097152	@ 0x200000
 8009728:	bf48      	it	mi
 800972a:	f043 4300 	orrmi.w	r3, r3, #2147483648	@ 0x80000000
 800972e:	eb02 5105 	add.w	r1, r2, r5, lsl #20
 8009732:	4618      	mov	r0, r3
 8009734:	e756      	b.n	80095e4 <__ieee754_sqrt+0x28>
 8009736:	4690      	mov	r8, r2
 8009738:	e7be      	b.n	80096b8 <__ieee754_sqrt+0xfc>
 800973a:	f7f6 fdc7 	bl	80002cc <__adddf3>
 800973e:	e9da 8900 	ldrd	r8, r9, [sl]
 8009742:	4602      	mov	r2, r0
 8009744:	460b      	mov	r3, r1
 8009746:	4640      	mov	r0, r8
 8009748:	4649      	mov	r1, r9
 800974a:	f7f7 f9e7 	bl	8000b1c <__aeabi_dcmplt>
 800974e:	b120      	cbz	r0, 800975a <__ieee754_sqrt+0x19e>
 8009750:	1ca0      	adds	r0, r4, #2
 8009752:	bf08      	it	eq
 8009754:	3601      	addeq	r6, #1
 8009756:	3402      	adds	r4, #2
 8009758:	e7df      	b.n	800971a <__ieee754_sqrt+0x15e>
 800975a:	1c63      	adds	r3, r4, #1
 800975c:	f023 0401 	bic.w	r4, r3, #1
 8009760:	e7db      	b.n	800971a <__ieee754_sqrt+0x15e>
 8009762:	bf00      	nop
 8009764:	7ff00000 	.word	0x7ff00000
 8009768:	200001e0 	.word	0x200001e0
 800976c:	200001d8 	.word	0x200001d8

08009770 <_init>:
 8009770:	b5f8      	push	{r3, r4, r5, r6, r7, lr}
 8009772:	bf00      	nop
 8009774:	bcf8      	pop	{r3, r4, r5, r6, r7}
 8009776:	bc08      	pop	{r3}
 8009778:	469e      	mov	lr, r3
 800977a:	4770      	bx	lr

0800977c <_fini>:
 800977c:	b5f8      	push	{r3, r4, r5, r6, r7, lr}
 800977e:	bf00      	nop
 8009780:	bcf8      	pop	{r3, r4, r5, r6, r7}
 8009782:	bc08      	pop	{r3}
 8009784:	469e      	mov	lr, r3
 8009786:	4770      	bx	lr
